ARM GAS  C:\Users\Helon\AppData\Local\Temp\cczBwqra.s 			page 1


   1              		.cpu cortex-m0
   2              		.fpu softvfp
   3              		.eabi_attribute 20, 1
   4              		.eabi_attribute 21, 1
   5              		.eabi_attribute 23, 3
   6              		.eabi_attribute 24, 1
   7              		.eabi_attribute 25, 1
   8              		.eabi_attribute 26, 1
   9              		.eabi_attribute 30, 1
  10              		.eabi_attribute 34, 0
  11              		.eabi_attribute 18, 4
  12              		.code	16
  13              		.file	"BLE.c"
  14              		.text
  15              	.Ltext0:
  16              		.cfi_sections	.debug_frame
  17              		.section	.text.CyBle_ChangeAdLocalName,"ax",%progbits
  18              		.align	2
  19              		.code	16
  20              		.thumb_func
  21              		.type	CyBle_ChangeAdLocalName, %function
  22              	CyBle_ChangeAdLocalName:
  23              	.LFB13:
  24              		.file 1 ".\\Generated_Source\\PSoC4\\BLE.c"
   1:.\Generated_Source\PSoC4/BLE.c **** /***************************************************************************//**
   2:.\Generated_Source\PSoC4/BLE.c **** * \file CYBLE.c
   3:.\Generated_Source\PSoC4/BLE.c **** * \version 2.30
   4:.\Generated_Source\PSoC4/BLE.c **** * 
   5:.\Generated_Source\PSoC4/BLE.c **** * \brief
   6:.\Generated_Source\PSoC4/BLE.c **** *  This file contains the source code for the Common APIs of the BLE Component.
   7:.\Generated_Source\PSoC4/BLE.c **** * 
   8:.\Generated_Source\PSoC4/BLE.c **** ********************************************************************************
   9:.\Generated_Source\PSoC4/BLE.c **** * \copyright
  10:.\Generated_Source\PSoC4/BLE.c **** * Copyright 2014-2015, Cypress Semiconductor Corporation.  All rights reserved.
  11:.\Generated_Source\PSoC4/BLE.c **** * You may use this file only in accordance with the license, terms, conditions,
  12:.\Generated_Source\PSoC4/BLE.c **** * disclaimers, and limitations in the end user license agreement accompanying
  13:.\Generated_Source\PSoC4/BLE.c **** * the software package with which this file was provided.
  14:.\Generated_Source\PSoC4/BLE.c **** *******************************************************************************/
  15:.\Generated_Source\PSoC4/BLE.c **** 
  16:.\Generated_Source\PSoC4/BLE.c **** #include "BLE_eventHandler.h"
  17:.\Generated_Source\PSoC4/BLE.c **** #include "BLE_HAL_PVT.h"
  18:.\Generated_Source\PSoC4/BLE.c **** #include <stdlib.h>
  19:.\Generated_Source\PSoC4/BLE.c **** 
  20:.\Generated_Source\PSoC4/BLE.c **** 
  21:.\Generated_Source\PSoC4/BLE.c **** /***************************************
  22:.\Generated_Source\PSoC4/BLE.c **** * Function Prototypes
  23:.\Generated_Source\PSoC4/BLE.c **** ***************************************/
  24:.\Generated_Source\PSoC4/BLE.c **** 
  25:.\Generated_Source\PSoC4/BLE.c **** #if(CYBLE_GATT_ROLE_SERVER)
  26:.\Generated_Source\PSoC4/BLE.c ****     #if(CYBLE_GAP_ROLE_PERIPHERAL)
  27:.\Generated_Source\PSoC4/BLE.c ****         static void CyBle_ChangeAdLocalName(const char8 name[], uint8 dest);
  28:.\Generated_Source\PSoC4/BLE.c ****     #endif /* (CYBLE_GAP_ROLE_PERIPHERAL) */
  29:.\Generated_Source\PSoC4/BLE.c **** #endif /* (CYBLE_GATT_ROLE_SERVER) */
  30:.\Generated_Source\PSoC4/BLE.c ****     
  31:.\Generated_Source\PSoC4/BLE.c **** 
  32:.\Generated_Source\PSoC4/BLE.c **** /***************************************
  33:.\Generated_Source\PSoC4/BLE.c **** * Global Variables
ARM GAS  C:\Users\Helon\AppData\Local\Temp\cczBwqra.s 			page 2


  34:.\Generated_Source\PSoC4/BLE.c **** ***************************************/
  35:.\Generated_Source\PSoC4/BLE.c **** 
  36:.\Generated_Source\PSoC4/BLE.c **** /* Indicates whether the BLE has been initialized. The variable is initialized to
  37:.\Generated_Source\PSoC4/BLE.c ****    0 and set to 1 the first time CyBle_Start() is called. This allows the component
  38:.\Generated_Source\PSoC4/BLE.c ****    to restart without reinitialization after the first call to the CyBle_Start() 
  39:.\Generated_Source\PSoC4/BLE.c ****    routine. If reinitialization of the component is required, the variable should 
  40:.\Generated_Source\PSoC4/BLE.c ****    be set to 0 before the CyBle_Start() routine is called. Alternatively, the BLE
  41:.\Generated_Source\PSoC4/BLE.c ****    can be reinitialized by calling the CyBle_Init() function.
  42:.\Generated_Source\PSoC4/BLE.c **** */
  43:.\Generated_Source\PSoC4/BLE.c **** uint8  cyBle_initVar = 0u;
  44:.\Generated_Source\PSoC4/BLE.c **** 
  45:.\Generated_Source\PSoC4/BLE.c **** /* Allocate RAM memory for stack. This buffer could be reused by application when 
  46:.\Generated_Source\PSoC4/BLE.c ****    BLE component is stopped. For export mode buffer is allocated in heap.
  47:.\Generated_Source\PSoC4/BLE.c **** */
  48:.\Generated_Source\PSoC4/BLE.c **** #if(CYBLE_SHARING_MODE_EXPORT)
  49:.\Generated_Source\PSoC4/BLE.c ****     
  50:.\Generated_Source\PSoC4/BLE.c **** uint8 *cyBle_stackMemoryRam = NULL;
  51:.\Generated_Source\PSoC4/BLE.c **** 
  52:.\Generated_Source\PSoC4/BLE.c **** #else
  53:.\Generated_Source\PSoC4/BLE.c **** 
  54:.\Generated_Source\PSoC4/BLE.c **** CYBLE_CYALIGNED_BEGIN uint8 cyBle_stackMemoryRam[CYBLE_STACK_RAM_SIZE] CYBLE_CYALIGNED_END;
  55:.\Generated_Source\PSoC4/BLE.c **** 
  56:.\Generated_Source\PSoC4/BLE.c **** #endif  /* CYBLE_SHARING_MODE_EXPORT */
  57:.\Generated_Source\PSoC4/BLE.c **** 
  58:.\Generated_Source\PSoC4/BLE.c **** #if(CYBLE_GAP_ROLE_PERIPHERAL || CYBLE_GAP_ROLE_BROADCASTER)
  59:.\Generated_Source\PSoC4/BLE.c **** 
  60:.\Generated_Source\PSoC4/BLE.c **** CYBLE_GAPP_DISC_PARAM_T cyBle_discoveryParam =
  61:.\Generated_Source\PSoC4/BLE.c **** {
  62:.\Generated_Source\PSoC4/BLE.c ****     0x0020u,    /* uint16 advertising_interval_min */
  63:.\Generated_Source\PSoC4/BLE.c ****     0x0020u,    /* uint16 advertising_interval_max */
  64:.\Generated_Source\PSoC4/BLE.c ****     CYBLE_GAPP_CONNECTABLE_UNDIRECTED_ADV, /* uint8 advertising_type */
  65:.\Generated_Source\PSoC4/BLE.c ****     0x00u,      /* uint8 own_addr_type */
  66:.\Generated_Source\PSoC4/BLE.c ****     0x00u,      /* uint8 direct_addr_type */
  67:.\Generated_Source\PSoC4/BLE.c ****     {0x00u, 0x00u, 0x00u, 0x50u, 0xA0u, 0x00u}, /* uint8* direct_addr */
  68:.\Generated_Source\PSoC4/BLE.c ****     0x07u,      /* uint8 advertising_channel_map */
  69:.\Generated_Source\PSoC4/BLE.c ****     0x00u,      /* uint8 advertising_filter_policy */
  70:.\Generated_Source\PSoC4/BLE.c **** };
  71:.\Generated_Source\PSoC4/BLE.c **** 
  72:.\Generated_Source\PSoC4/BLE.c **** CYBLE_GAPP_DISC_DATA_T cyBle_discoveryData =
  73:.\Generated_Source\PSoC4/BLE.c **** {
  74:.\Generated_Source\PSoC4/BLE.c ****     { 0x02u, 0x01u, 0x06u, 0x18u, 0x09u, 0x54u, 0x68u,
  75:.\Generated_Source\PSoC4/BLE.c ****     0x72u, 0x6Fu, 0x75u, 0x67u, 0x68u, 0x70u, 0x75u, 0x74u,
  76:.\Generated_Source\PSoC4/BLE.c ****     0x20u, 0x20u, 0x20u, 0x20u, 0x20u, 0x20u, 0x20u, 0x20u,
  77:.\Generated_Source\PSoC4/BLE.c ****     0x20u, 0x20u, 0x20u, 0x20u, 0x20u, 0x02u, 0x0Au, 0x00u }, /* uint8 advertising_data[CYBLE_MAX_A
  78:.\Generated_Source\PSoC4/BLE.c ****     0x1Fu,      /* uint8 adv_data_length */
  79:.\Generated_Source\PSoC4/BLE.c **** };
  80:.\Generated_Source\PSoC4/BLE.c **** 
  81:.\Generated_Source\PSoC4/BLE.c **** CYBLE_GAPP_SCAN_RSP_DATA_T cyBle_scanRspData =
  82:.\Generated_Source\PSoC4/BLE.c **** {
  83:.\Generated_Source\PSoC4/BLE.c ****     { 0x00u, 0x00u, 0x00u, 0x00u, 0x00u, 0x00u, 0x00u,
  84:.\Generated_Source\PSoC4/BLE.c ****     0x00u, 0x00u, 0x00u, 0x00u, 0x00u, 0x00u, 0x00u, 0x00u,
  85:.\Generated_Source\PSoC4/BLE.c ****     0x00u, 0x00u, 0x00u, 0x00u, 0x00u, 0x00u, 0x00u, 0x00u,
  86:.\Generated_Source\PSoC4/BLE.c ****     0x00u, 0x00u, 0x00u, 0x00u, 0x00u, 0x00u, 0x00u, 0x00u }, /* uint8 scan_rsp_data[CYBLE_MAX_SCAN
  87:.\Generated_Source\PSoC4/BLE.c ****     0x00u,      /* uint8 scan_rsp_data_length */
  88:.\Generated_Source\PSoC4/BLE.c **** };
  89:.\Generated_Source\PSoC4/BLE.c **** 
  90:.\Generated_Source\PSoC4/BLE.c **** /* This variable of type CYBLE_GAPP_DISC_MODE_INFO_T is present only when 
ARM GAS  C:\Users\Helon\AppData\Local\Temp\cczBwqra.s 			page 3


  91:.\Generated_Source\PSoC4/BLE.c ****    the BLE component is configured for Peripheral GAP role or Central and 
  92:.\Generated_Source\PSoC4/BLE.c ****    Peripheral GAP role. It contains the Advertisement settings and also the 
  93:.\Generated_Source\PSoC4/BLE.c ****    Advertisement and Scan response data parameters entered in the customizer.
  94:.\Generated_Source\PSoC4/BLE.c ****    This variable can be used by advanced users to change Advertisement settings,
  95:.\Generated_Source\PSoC4/BLE.c ****    Advertisement or Scan response data in runtime. 
  96:.\Generated_Source\PSoC4/BLE.c **** */
  97:.\Generated_Source\PSoC4/BLE.c **** CYBLE_GAPP_DISC_MODE_INFO_T cyBle_discoveryModeInfo =
  98:.\Generated_Source\PSoC4/BLE.c **** {
  99:.\Generated_Source\PSoC4/BLE.c ****     0x02u,      /* uint8 discMode */
 100:.\Generated_Source\PSoC4/BLE.c ****     &cyBle_discoveryParam,
 101:.\Generated_Source\PSoC4/BLE.c ****     &cyBle_discoveryData,
 102:.\Generated_Source\PSoC4/BLE.c ****     &cyBle_scanRspData,
 103:.\Generated_Source\PSoC4/BLE.c ****     0x001Eu,    /* uint16 advTo */
 104:.\Generated_Source\PSoC4/BLE.c **** };
 105:.\Generated_Source\PSoC4/BLE.c **** 
 106:.\Generated_Source\PSoC4/BLE.c **** 
 107:.\Generated_Source\PSoC4/BLE.c **** #endif /* CYBLE_GAP_ROLE_PERIPHERAL || CYBLE_GAP_ROLE_BROADCASTER */
 108:.\Generated_Source\PSoC4/BLE.c **** 
 109:.\Generated_Source\PSoC4/BLE.c **** #if(CYBLE_GAP_ROLE_CENTRAL)
 110:.\Generated_Source\PSoC4/BLE.c ****     
 111:.\Generated_Source\PSoC4/BLE.c **** CYBLE_GAPC_CONN_PARAM_T cyBle_connectionParameters;
 112:.\Generated_Source\PSoC4/BLE.c **** 
 113:.\Generated_Source\PSoC4/BLE.c **** /* Connecting timeout is set to 30 seconds in CyBle_Init function. 
 114:.\Generated_Source\PSoC4/BLE.c ****    Not zero value starts timer in CyBle_GapcConnectDevice API.
 115:.\Generated_Source\PSoC4/BLE.c **** */
 116:.\Generated_Source\PSoC4/BLE.c **** uint16 cyBle_connectingTimeout;
 117:.\Generated_Source\PSoC4/BLE.c ****     
 118:.\Generated_Source\PSoC4/BLE.c **** #endif /* CYBLE_GAP_ROLE_CENTRAL */
 119:.\Generated_Source\PSoC4/BLE.c **** 
 120:.\Generated_Source\PSoC4/BLE.c **** #if(CYBLE_GAP_ROLE_CENTRAL || CYBLE_GAP_ROLE_OBSERVER)
 121:.\Generated_Source\PSoC4/BLE.c ****     
 122:.\Generated_Source\PSoC4/BLE.c **** /* This variable of type CYBLE_GAPC_DISC_INFO_T is present only when  
 123:.\Generated_Source\PSoC4/BLE.c ****    the BLE component is configured for Central GAP role or Central and  
 124:.\Generated_Source\PSoC4/BLE.c ****    Peripheral GAP role. It contains the Scan settings entered in the  
 125:.\Generated_Source\PSoC4/BLE.c ****    customizer. This variable can be used by advanced users to change Scan  
 126:.\Generated_Source\PSoC4/BLE.c ****    settings in runtime.
 127:.\Generated_Source\PSoC4/BLE.c **** */
 128:.\Generated_Source\PSoC4/BLE.c **** CYBLE_GAPC_DISC_INFO_T cyBle_discoveryInfo =
 129:.\Generated_Source\PSoC4/BLE.c **** {
 130:.\Generated_Source\PSoC4/BLE.c ****     0x02u,      /* discProcedure */
 131:.\Generated_Source\PSoC4/BLE.c ****     0x01u,      /* scanType */
 132:.\Generated_Source\PSoC4/BLE.c ****     0x0030u,    /* scanInterval */
 133:.\Generated_Source\PSoC4/BLE.c ****     0x0030u,    /* scanWindow */
 134:.\Generated_Source\PSoC4/BLE.c ****     0x00u,      /* ownAddrType */
 135:.\Generated_Source\PSoC4/BLE.c ****     0x00u,      /* scanFilterPolicy */
 136:.\Generated_Source\PSoC4/BLE.c ****     0x000Au,    /* scanTO */
 137:.\Generated_Source\PSoC4/BLE.c ****     0x01u,      /* filterDuplicates */
 138:.\Generated_Source\PSoC4/BLE.c **** };
 139:.\Generated_Source\PSoC4/BLE.c ****     
 140:.\Generated_Source\PSoC4/BLE.c **** #endif /* CYBLE_GAP_ROLE_CENTRAL || CYBLE_GAP_ROLE_OBSERVER */
 141:.\Generated_Source\PSoC4/BLE.c **** 
 142:.\Generated_Source\PSoC4/BLE.c **** #if((CYBLE_GAP_ROLE_PERIPHERAL || CYBLE_GAP_ROLE_CENTRAL) && (CYBLE_BONDING_REQUIREMENT == CYBLE_BO
 143:.\Generated_Source\PSoC4/BLE.c **** 
 144:.\Generated_Source\PSoC4/BLE.c **** uint8 cyBle_peerBonding;
 145:.\Generated_Source\PSoC4/BLE.c **** uint8 cyBle_pendingFlashWrite;
 146:.\Generated_Source\PSoC4/BLE.c ****     
 147:.\Generated_Source\PSoC4/BLE.c **** #endif  /* (CYBLE_BONDING_REQUIREMENT == CYBLE_BONDING_YES) */
ARM GAS  C:\Users\Helon\AppData\Local\Temp\cczBwqra.s 			page 4


 148:.\Generated_Source\PSoC4/BLE.c **** 
 149:.\Generated_Source\PSoC4/BLE.c **** CYBLE_CALLBACK_T CyBle_ApplCallback;
 150:.\Generated_Source\PSoC4/BLE.c **** CYBLE_GAP_BD_ADDR_T cyBle_deviceAddress = {{0x00u, 0x00u, 0x00u, 0x50u, 0xA0u, 0x00u}, 0x00u };
 151:.\Generated_Source\PSoC4/BLE.c **** CYBLE_GAP_BD_ADDR_T * cyBle_sflashDeviceAddress = CYBLE_SFLASH_DEVICE_ADDRESS_PTR;
 152:.\Generated_Source\PSoC4/BLE.c **** 
 153:.\Generated_Source\PSoC4/BLE.c **** #if(CYBLE_MODE_PROFILE)
 154:.\Generated_Source\PSoC4/BLE.c ****     #if defined(__ARMCC_VERSION)
 155:.\Generated_Source\PSoC4/BLE.c ****         CY_ALIGN(CYDEV_FLS_ROW_SIZE) const uint8 cyBle_StackFlashptr[CYBLE_STACK_FLASH_SIZE] = {0u}
 156:.\Generated_Source\PSoC4/BLE.c ****     #elif defined (__GNUC__)
 157:.\Generated_Source\PSoC4/BLE.c ****         const uint8 cyBle_StackFlashptr[CYBLE_STACK_FLASH_SIZE] CY_ALIGN(CYDEV_FLS_ROW_SIZE) = {0u}
 158:.\Generated_Source\PSoC4/BLE.c ****     #elif defined (__ICCARM__)
 159:.\Generated_Source\PSoC4/BLE.c ****         #pragma data_alignment=CY_FLASH_SIZEOF_ROW
 160:.\Generated_Source\PSoC4/BLE.c ****         const uint8 cyBle_StackFlashptr[CYBLE_STACK_FLASH_SIZE] = {0u};
 161:.\Generated_Source\PSoC4/BLE.c ****     #endif  /* (__ARMCC_VERSION) */
 162:.\Generated_Source\PSoC4/BLE.c **** #endif /* (CYBLE_MODE_PROFILE) */
 163:.\Generated_Source\PSoC4/BLE.c **** 
 164:.\Generated_Source\PSoC4/BLE.c **** 
 165:.\Generated_Source\PSoC4/BLE.c **** /******************************************************************************
 166:.\Generated_Source\PSoC4/BLE.c **** * Function Name: CyBle_Init
 167:.\Generated_Source\PSoC4/BLE.c **** ***************************************************************************//**
 168:.\Generated_Source\PSoC4/BLE.c **** *
 169:.\Generated_Source\PSoC4/BLE.c **** *   Initializes the component with the parameters set in the customizer.
 170:.\Generated_Source\PSoC4/BLE.c **** * 
 171:.\Generated_Source\PSoC4/BLE.c **** *  \return
 172:.\Generated_Source\PSoC4/BLE.c **** *   None
 173:.\Generated_Source\PSoC4/BLE.c **** * 
 174:.\Generated_Source\PSoC4/BLE.c **** ******************************************************************************/
 175:.\Generated_Source\PSoC4/BLE.c **** void CyBle_Init(void)
 176:.\Generated_Source\PSoC4/BLE.c **** {
 177:.\Generated_Source\PSoC4/BLE.c ****     cyBle_eventHandlerFlag = 0u;
 178:.\Generated_Source\PSoC4/BLE.c ****     cyBle_busyStatus = CYBLE_STACK_STATE_FREE;
 179:.\Generated_Source\PSoC4/BLE.c **** 
 180:.\Generated_Source\PSoC4/BLE.c ****     #if(CYBLE_GAP_ROLE_PERIPHERAL || CYBLE_GAP_ROLE_BROADCASTER) 
 181:.\Generated_Source\PSoC4/BLE.c ****         cyBle_advertisingIntervalType = CYBLE_ADVERTISING_FAST; 
 182:.\Generated_Source\PSoC4/BLE.c ****     #endif /* (CYBLE_GAP_ROLE_PERIPHERAL || CYBLE_GAP_ROLE_BROADCASTER)  */
 183:.\Generated_Source\PSoC4/BLE.c ****     #if(CYBLE_GAP_ROLE_CENTRAL || CYBLE_GAP_ROLE_OBSERVER)
 184:.\Generated_Source\PSoC4/BLE.c ****         cyBle_scanningIntervalType = CYBLE_SCANNING_FAST; 
 185:.\Generated_Source\PSoC4/BLE.c ****     #endif /* (CYBLE_GAP_ROLE_CENTRAL || CYBLE_GAP_ROLE_OBSERVER) */
 186:.\Generated_Source\PSoC4/BLE.c ****         
 187:.\Generated_Source\PSoC4/BLE.c ****     /* Init default connection parameters. 
 188:.\Generated_Source\PSoC4/BLE.c ****        Application may change it before initiating a connection */
 189:.\Generated_Source\PSoC4/BLE.c ****     #if(CYBLE_GAP_ROLE_CENTRAL)
 190:.\Generated_Source\PSoC4/BLE.c ****         cyBle_connectionParameters.scanIntv = cyBle_discoveryInfo.scanIntv;
 191:.\Generated_Source\PSoC4/BLE.c ****         cyBle_connectionParameters.scanWindow = cyBle_discoveryInfo.scanWindow;
 192:.\Generated_Source\PSoC4/BLE.c ****         cyBle_connectionParameters.ownAddrType = cyBle_discoveryInfo.ownAddrType;
 193:.\Generated_Source\PSoC4/BLE.c ****         cyBle_connectionParameters.initiatorFilterPolicy = cyBle_discoveryInfo.scanFilterPolicy;
 194:.\Generated_Source\PSoC4/BLE.c ****         cyBle_connectionParameters.connIntvMin = CYBLE_GAPC_CONNECTION_INTERVAL_MIN;
 195:.\Generated_Source\PSoC4/BLE.c ****         cyBle_connectionParameters.connIntvMax = CYBLE_GAPC_CONNECTION_INTERVAL_MAX;
 196:.\Generated_Source\PSoC4/BLE.c ****         cyBle_connectionParameters.connLatency = CYBLE_GAPC_CONNECTION_SLAVE_LATENCY;
 197:.\Generated_Source\PSoC4/BLE.c ****         cyBle_connectionParameters.supervisionTO = CYBLE_GAPC_CONNECTION_TIME_OUT;
 198:.\Generated_Source\PSoC4/BLE.c ****         cyBle_connectionParameters.minCeLength = 0x0000u;
 199:.\Generated_Source\PSoC4/BLE.c ****         cyBle_connectionParameters.maxCeLength = 0xFFFFu;
 200:.\Generated_Source\PSoC4/BLE.c ****         
 201:.\Generated_Source\PSoC4/BLE.c ****         cyBle_connectingTimeout = CYBLE_GAPC_CONNECTING_TIMEOUT;
 202:.\Generated_Source\PSoC4/BLE.c ****     #endif /* CYBLE_GAP_ROLE_CENTRAL */
 203:.\Generated_Source\PSoC4/BLE.c **** 
 204:.\Generated_Source\PSoC4/BLE.c ****     CyBle_ServiceInit();
ARM GAS  C:\Users\Helon\AppData\Local\Temp\cczBwqra.s 			page 5


 205:.\Generated_Source\PSoC4/BLE.c **** 
 206:.\Generated_Source\PSoC4/BLE.c ****     #if((CYBLE_GAP_ROLE_PERIPHERAL || CYBLE_GAP_ROLE_CENTRAL) && (CYBLE_BONDING_REQUIREMENT == CYBL
 207:.\Generated_Source\PSoC4/BLE.c ****         cyBle_pendingFlashWrite = 0u;
 208:.\Generated_Source\PSoC4/BLE.c ****         cyBle_peerBonding = CYBLE_GAP_BONDING_NONE;
 209:.\Generated_Source\PSoC4/BLE.c ****     #endif  /* (CYBLE_BONDING_REQUIREMENT == CYBLE_BONDING_YES) */
 210:.\Generated_Source\PSoC4/BLE.c **** 
 211:.\Generated_Source\PSoC4/BLE.c **** }
 212:.\Generated_Source\PSoC4/BLE.c **** 
 213:.\Generated_Source\PSoC4/BLE.c **** 
 214:.\Generated_Source\PSoC4/BLE.c **** /******************************************************************************
 215:.\Generated_Source\PSoC4/BLE.c **** * Function Name: CyBle_ServiceInit
 216:.\Generated_Source\PSoC4/BLE.c **** ***************************************************************************//**
 217:.\Generated_Source\PSoC4/BLE.c **** * 
 218:.\Generated_Source\PSoC4/BLE.c **** *  Initializes all included services.
 219:.\Generated_Source\PSoC4/BLE.c **** * 
 220:.\Generated_Source\PSoC4/BLE.c **** * \return
 221:.\Generated_Source\PSoC4/BLE.c **** *  None
 222:.\Generated_Source\PSoC4/BLE.c **** * 
 223:.\Generated_Source\PSoC4/BLE.c **** ******************************************************************************/
 224:.\Generated_Source\PSoC4/BLE.c **** void CyBle_ServiceInit(void)
 225:.\Generated_Source\PSoC4/BLE.c **** {
 226:.\Generated_Source\PSoC4/BLE.c ****     #if(CYBLE_GATT_ROLE_CLIENT)
 227:.\Generated_Source\PSoC4/BLE.c ****         (void)memset(&cyBle_gapc, 0, sizeof(cyBle_gapc));
 228:.\Generated_Source\PSoC4/BLE.c ****         (void)memset(&cyBle_gattc, 0, sizeof(cyBle_gattc));
 229:.\Generated_Source\PSoC4/BLE.c ****     #endif /* CYBLE_GATT_ROLE_CLIENT */
 230:.\Generated_Source\PSoC4/BLE.c ****     
 231:.\Generated_Source\PSoC4/BLE.c **** 	#ifdef CYBLE_ANCS
 232:.\Generated_Source\PSoC4/BLE.c ****         CyBle_AncsInit();
 233:.\Generated_Source\PSoC4/BLE.c ****     #endif /* CYBLE_ANCS */
 234:.\Generated_Source\PSoC4/BLE.c **** 	
 235:.\Generated_Source\PSoC4/BLE.c ****     #ifdef CYBLE_ANS
 236:.\Generated_Source\PSoC4/BLE.c ****         CyBle_AnsInit();
 237:.\Generated_Source\PSoC4/BLE.c ****     #endif /* CYBLE_ANS */
 238:.\Generated_Source\PSoC4/BLE.c ****     
 239:.\Generated_Source\PSoC4/BLE.c ****     #ifdef CYBLE_BAS
 240:.\Generated_Source\PSoC4/BLE.c ****         CyBle_BasInit();
 241:.\Generated_Source\PSoC4/BLE.c ****     #endif /* CYBLE_BAS */
 242:.\Generated_Source\PSoC4/BLE.c ****     
 243:.\Generated_Source\PSoC4/BLE.c ****     #ifdef CYBLE_BLS
 244:.\Generated_Source\PSoC4/BLE.c ****         CyBle_BlsInit();
 245:.\Generated_Source\PSoC4/BLE.c ****     #endif /* CYBLE_BLS */
 246:.\Generated_Source\PSoC4/BLE.c ****     
 247:.\Generated_Source\PSoC4/BLE.c ****     #ifdef CYBLE_BMS
 248:.\Generated_Source\PSoC4/BLE.c ****         CyBle_BmsInit();
 249:.\Generated_Source\PSoC4/BLE.c ****     #endif /* CYBLE_BMS */
 250:.\Generated_Source\PSoC4/BLE.c ****     
 251:.\Generated_Source\PSoC4/BLE.c ****     #ifdef CYBLE_CGMS
 252:.\Generated_Source\PSoC4/BLE.c ****         CyBle_CgmsInit();
 253:.\Generated_Source\PSoC4/BLE.c ****     #endif /* CYBLE_CGMS */
 254:.\Generated_Source\PSoC4/BLE.c **** 
 255:.\Generated_Source\PSoC4/BLE.c ****     #ifdef CYBLE_CPS
 256:.\Generated_Source\PSoC4/BLE.c ****         CyBle_CpsInit();
 257:.\Generated_Source\PSoC4/BLE.c ****     #endif /* CYBLE_CPS */
 258:.\Generated_Source\PSoC4/BLE.c **** 
 259:.\Generated_Source\PSoC4/BLE.c ****     #ifdef CYBLE_CSCS
 260:.\Generated_Source\PSoC4/BLE.c ****         CyBle_CscsInit();
 261:.\Generated_Source\PSoC4/BLE.c ****     #endif /* CYBLE_CSCS */
ARM GAS  C:\Users\Helon\AppData\Local\Temp\cczBwqra.s 			page 6


 262:.\Generated_Source\PSoC4/BLE.c ****     
 263:.\Generated_Source\PSoC4/BLE.c ****     #ifdef CYBLE_CTS
 264:.\Generated_Source\PSoC4/BLE.c ****         CyBle_CtsInit();
 265:.\Generated_Source\PSoC4/BLE.c ****     #endif /* CYBLE_CTS */
 266:.\Generated_Source\PSoC4/BLE.c **** 
 267:.\Generated_Source\PSoC4/BLE.c ****     #ifdef CYBLE_DIS
 268:.\Generated_Source\PSoC4/BLE.c ****         CyBle_DisInit();
 269:.\Generated_Source\PSoC4/BLE.c ****     #endif /* CYBLE_DIS */
 270:.\Generated_Source\PSoC4/BLE.c **** 
 271:.\Generated_Source\PSoC4/BLE.c ****     #ifdef CYBLE_ESS
 272:.\Generated_Source\PSoC4/BLE.c ****         CyBle_EssInit();
 273:.\Generated_Source\PSoC4/BLE.c ****     #endif /* CYBLE_ESS */
 274:.\Generated_Source\PSoC4/BLE.c ****     
 275:.\Generated_Source\PSoC4/BLE.c ****     #ifdef CYBLE_GLS
 276:.\Generated_Source\PSoC4/BLE.c ****         CyBle_GlsInit();
 277:.\Generated_Source\PSoC4/BLE.c ****     #endif /* CYBLE_GLS */
 278:.\Generated_Source\PSoC4/BLE.c ****     
 279:.\Generated_Source\PSoC4/BLE.c ****     #ifdef CYBLE_CUSTOM
 280:.\Generated_Source\PSoC4/BLE.c ****         CyBle_CustomInit();
 281:.\Generated_Source\PSoC4/BLE.c ****     #endif /* CYBLE_CUSTOM */
 282:.\Generated_Source\PSoC4/BLE.c **** 
 283:.\Generated_Source\PSoC4/BLE.c ****     #ifdef CYBLE_HIDS
 284:.\Generated_Source\PSoC4/BLE.c ****         CyBle_HidsInit();
 285:.\Generated_Source\PSoC4/BLE.c ****     #endif /* CYBLE_HIDS */
 286:.\Generated_Source\PSoC4/BLE.c **** 
 287:.\Generated_Source\PSoC4/BLE.c ****     #ifdef CYBLE_HRS
 288:.\Generated_Source\PSoC4/BLE.c ****         CyBle_HrsInit();
 289:.\Generated_Source\PSoC4/BLE.c ****     #endif /* CYBLE_HRS */
 290:.\Generated_Source\PSoC4/BLE.c ****     
 291:.\Generated_Source\PSoC4/BLE.c ****     #ifdef CYBLE_HTS
 292:.\Generated_Source\PSoC4/BLE.c ****         CyBle_HtsInit();
 293:.\Generated_Source\PSoC4/BLE.c ****     #endif /* CYBLE_RSCS */
 294:.\Generated_Source\PSoC4/BLE.c **** 
 295:.\Generated_Source\PSoC4/BLE.c ****     #ifdef CYBLE_IAS
 296:.\Generated_Source\PSoC4/BLE.c ****         CyBle_IasInit();
 297:.\Generated_Source\PSoC4/BLE.c ****     #endif /* CYBLE_IAS */
 298:.\Generated_Source\PSoC4/BLE.c **** 
 299:.\Generated_Source\PSoC4/BLE.c ****     #ifdef CYBLE_LLS
 300:.\Generated_Source\PSoC4/BLE.c ****         CyBle_LlsInit();
 301:.\Generated_Source\PSoC4/BLE.c ****     #endif /* CYBLE_LLS */
 302:.\Generated_Source\PSoC4/BLE.c **** 
 303:.\Generated_Source\PSoC4/BLE.c ****     #ifdef CYBLE_RTUS
 304:.\Generated_Source\PSoC4/BLE.c ****         CyBle_RtusInit();
 305:.\Generated_Source\PSoC4/BLE.c ****     #endif /* CYBLE_RTUS */
 306:.\Generated_Source\PSoC4/BLE.c **** 
 307:.\Generated_Source\PSoC4/BLE.c ****     #ifdef CYBLE_LNS
 308:.\Generated_Source\PSoC4/BLE.c ****         CyBle_LnsInit();
 309:.\Generated_Source\PSoC4/BLE.c ****     #endif /* CYBLE_LNS */
 310:.\Generated_Source\PSoC4/BLE.c ****     
 311:.\Generated_Source\PSoC4/BLE.c ****     #ifdef CYBLE_PASS
 312:.\Generated_Source\PSoC4/BLE.c ****         CyBle_PassInit();
 313:.\Generated_Source\PSoC4/BLE.c ****     #endif /* CYBLE_PASS */
 314:.\Generated_Source\PSoC4/BLE.c ****     
 315:.\Generated_Source\PSoC4/BLE.c ****     #ifdef CYBLE_RSCS
 316:.\Generated_Source\PSoC4/BLE.c ****         CyBle_RscsInit();
 317:.\Generated_Source\PSoC4/BLE.c ****     #endif /* CYBLE_RSCS */
 318:.\Generated_Source\PSoC4/BLE.c **** 
ARM GAS  C:\Users\Helon\AppData\Local\Temp\cczBwqra.s 			page 7


 319:.\Generated_Source\PSoC4/BLE.c ****     #ifdef CYBLE_SCPS
 320:.\Generated_Source\PSoC4/BLE.c ****         CyBle_ScpsInit();
 321:.\Generated_Source\PSoC4/BLE.c ****     #endif /* CYBLE_SCPS */
 322:.\Generated_Source\PSoC4/BLE.c ****     
 323:.\Generated_Source\PSoC4/BLE.c ****     #ifdef CYBLE_TPS
 324:.\Generated_Source\PSoC4/BLE.c ****         CyBle_TpsInit();
 325:.\Generated_Source\PSoC4/BLE.c ****     #endif /* CYBLE_TPS */
 326:.\Generated_Source\PSoC4/BLE.c ****     
 327:.\Generated_Source\PSoC4/BLE.c ****     #ifdef CYBLE_UDS
 328:.\Generated_Source\PSoC4/BLE.c ****         CyBle_UdsInit();
 329:.\Generated_Source\PSoC4/BLE.c ****     #endif /* CYBLE_UDS */
 330:.\Generated_Source\PSoC4/BLE.c **** 
 331:.\Generated_Source\PSoC4/BLE.c ****     #ifdef CYBLE_WPTS
 332:.\Generated_Source\PSoC4/BLE.c ****         CyBle_WptsInit();
 333:.\Generated_Source\PSoC4/BLE.c ****     #endif /* CYBLE_WPTS */
 334:.\Generated_Source\PSoC4/BLE.c **** 
 335:.\Generated_Source\PSoC4/BLE.c ****     #ifdef CYBLE_WSS
 336:.\Generated_Source\PSoC4/BLE.c ****         CyBle_WssInit();
 337:.\Generated_Source\PSoC4/BLE.c ****     #endif /* CYBLE_WSS */
 338:.\Generated_Source\PSoC4/BLE.c **** }
 339:.\Generated_Source\PSoC4/BLE.c **** 
 340:.\Generated_Source\PSoC4/BLE.c **** 
 341:.\Generated_Source\PSoC4/BLE.c **** /******************************************************************************
 342:.\Generated_Source\PSoC4/BLE.c **** * Function Name: CyBle_Start
 343:.\Generated_Source\PSoC4/BLE.c **** ***************************************************************************//**
 344:.\Generated_Source\PSoC4/BLE.c **** * 
 345:.\Generated_Source\PSoC4/BLE.c **** *  This function initializes the BLE Stack, which consists of the BLE Stack 
 346:.\Generated_Source\PSoC4/BLE.c **** *  Manager, BLE Controller, and BLE Host modules. It takes care of initializing
 347:.\Generated_Source\PSoC4/BLE.c **** *  the Profile layer, schedulers, Timer and other platform related
 348:.\Generated_Source\PSoC4/BLE.c **** *  resources required for the BLE component. It also registers the callback 
 349:.\Generated_Source\PSoC4/BLE.c **** *  function for BLE events that will be registered in the BLE stack.
 350:.\Generated_Source\PSoC4/BLE.c **** * 
 351:.\Generated_Source\PSoC4/BLE.c **** *  Note that this function does not reset the BLE Stack.
 352:.\Generated_Source\PSoC4/BLE.c **** * 
 353:.\Generated_Source\PSoC4/BLE.c **** *  For HCI-Mode of operation, this function will not initialize the BLE Host 
 354:.\Generated_Source\PSoC4/BLE.c **** *  module.
 355:.\Generated_Source\PSoC4/BLE.c **** * 
 356:.\Generated_Source\PSoC4/BLE.c **** *  Calling this function results in the generation of CYBLE_EVT_STACK_ON event
 357:.\Generated_Source\PSoC4/BLE.c **** *  on successful initialization of the BLE Stack.
 358:.\Generated_Source\PSoC4/BLE.c **** * 
 359:.\Generated_Source\PSoC4/BLE.c **** *  \param callbackFunc: Event callback function to receive events from BLE stack.
 360:.\Generated_Source\PSoC4/BLE.c **** *   CYBLE_CALLBACK_T is a function pointer type.
 361:.\Generated_Source\PSoC4/BLE.c **** * 
 362:.\Generated_Source\PSoC4/BLE.c **** * \return
 363:.\Generated_Source\PSoC4/BLE.c **** *  CYBLE_API_RESULT_T : Return value indicates if the function succeeded or 
 364:.\Generated_Source\PSoC4/BLE.c **** *  failed. Following are the possible error codes.
 365:.\Generated_Source\PSoC4/BLE.c **** * 
 366:.\Generated_Source\PSoC4/BLE.c **** *   <table>
 367:.\Generated_Source\PSoC4/BLE.c **** *  	  <tr>
 368:.\Generated_Source\PSoC4/BLE.c **** *       <th>Error codes</th>
 369:.\Generated_Source\PSoC4/BLE.c **** *       <th>Description</th>
 370:.\Generated_Source\PSoC4/BLE.c **** *     </tr>
 371:.\Generated_Source\PSoC4/BLE.c **** *     <tr>
 372:.\Generated_Source\PSoC4/BLE.c **** *       <td>CYBLE_ERROR_OK</td>
 373:.\Generated_Source\PSoC4/BLE.c **** *       <td>On successful operation.</td>
 374:.\Generated_Source\PSoC4/BLE.c **** *     </tr>
 375:.\Generated_Source\PSoC4/BLE.c **** *     <tr>
ARM GAS  C:\Users\Helon\AppData\Local\Temp\cczBwqra.s 			page 8


 376:.\Generated_Source\PSoC4/BLE.c **** *       <td>CYBLE_ERROR_INVALID_PARAMETER</td>
 377:.\Generated_Source\PSoC4/BLE.c **** *       <td>On passing a NULL pointer to the function when the BLE stack is not built in HCI mode. 
 378:.\Generated_Source\PSoC4/BLE.c **** *			CYBLE_ERROR_INVALID_PARAMETER is never returned in HCI mode.</td>
 379:.\Generated_Source\PSoC4/BLE.c **** *     </tr>
 380:.\Generated_Source\PSoC4/BLE.c **** *     <tr>
 381:.\Generated_Source\PSoC4/BLE.c **** *       <td>CYBLE_ERROR_REPEATED_ATTEMPTS</td>
 382:.\Generated_Source\PSoC4/BLE.c **** *       <td>On invoking this function more than once without calling CyBle_Shutdown() 
 383:.\Generated_Source\PSoC4/BLE.c **** *           function between calls to this function.</td>
 384:.\Generated_Source\PSoC4/BLE.c **** *     </tr>
 385:.\Generated_Source\PSoC4/BLE.c **** *     <tr>
 386:.\Generated_Source\PSoC4/BLE.c **** *       <td>CYBLE_ERROR_MEMORY_ALLOCATION_FAILED</td>
 387:.\Generated_Source\PSoC4/BLE.c **** *       <td>There is insufficient memory available.</td>
 388:.\Generated_Source\PSoC4/BLE.c **** *     </tr>
 389:.\Generated_Source\PSoC4/BLE.c **** *   </table>
 390:.\Generated_Source\PSoC4/BLE.c **** * 
 391:.\Generated_Source\PSoC4/BLE.c **** *  \globalvars
 392:.\Generated_Source\PSoC4/BLE.c **** *   The CyBle_initVar variable is used to indicate initial
 393:.\Generated_Source\PSoC4/BLE.c **** *   configuration of this component. The variable is initialized to zero (0u)
 394:.\Generated_Source\PSoC4/BLE.c **** *   and set to one (1u) the first time CyBle_Start() is called. This
 395:.\Generated_Source\PSoC4/BLE.c **** *   allows for component initialization without re-initialization in all
 396:.\Generated_Source\PSoC4/BLE.c **** *   subsequent calls to the CyBle_Start() routine.
 397:.\Generated_Source\PSoC4/BLE.c **** * 
 398:.\Generated_Source\PSoC4/BLE.c **** ******************************************************************************/
 399:.\Generated_Source\PSoC4/BLE.c **** CYBLE_API_RESULT_T CyBle_Start(CYBLE_CALLBACK_T callbackFunc)
 400:.\Generated_Source\PSoC4/BLE.c **** {
 401:.\Generated_Source\PSoC4/BLE.c ****     CYBLE_API_RESULT_T apiResult = CYBLE_ERROR_OK;
 402:.\Generated_Source\PSoC4/BLE.c ****     
 403:.\Generated_Source\PSoC4/BLE.c ****     #if(CYBLE_MODE_PROFILE)
 404:.\Generated_Source\PSoC4/BLE.c ****     
 405:.\Generated_Source\PSoC4/BLE.c ****     CYBLE_STK_APP_DATA_BUFF_T cyBle_stackDataBuff[CYBLE_STACK_BUF_COUNT] = 
 406:.\Generated_Source\PSoC4/BLE.c ****     {
 407:.\Generated_Source\PSoC4/BLE.c ****         {CYBLE_GATT_MTU_PLUS_L2CAP_MEM_EXT, CYBLE_GATT_MTU_BUF_COUNT},
 408:.\Generated_Source\PSoC4/BLE.c ****         {CYBLE_GATT_MAX_ATTR_LEN_PLUS_L2CAP_MEM_EXT, 1u},
 409:.\Generated_Source\PSoC4/BLE.c ****         {CYBLE_L2CAP_PSM_PLUS_L2CAP_MEM_EXT, CYBLE_L2CAP_PSM_COUNT},
 410:.\Generated_Source\PSoC4/BLE.c ****         {CYBLE_L2CAP_CBFC_PLUS_L2CAP_MEM_EXT, CYBLE_L2CAP_LOGICAL_CHANNEL_COUNT},
 411:.\Generated_Source\PSoC4/BLE.c ****         {CYBLE_L2CAP_MTU_PLUS_L2CAP_MEM_EXT, CYBLE_L2CAP_LOGICAL_CHANNEL_COUNT},
 412:.\Generated_Source\PSoC4/BLE.c ****         {CYBLE_L2CAP_MPS_PLUS_L2CAP_MEM_EXT, CYBLE_L2CAP_LOGICAL_CHANNEL_COUNT * (CYBLE_L2CAP_MTU/C
 413:.\Generated_Source\PSoC4/BLE.c ****     }; 
 414:.\Generated_Source\PSoC4/BLE.c **** 
 415:.\Generated_Source\PSoC4/BLE.c ****     #endif /* CYBLE_MODE_PROFILE */
 416:.\Generated_Source\PSoC4/BLE.c ****     
 417:.\Generated_Source\PSoC4/BLE.c ****     /* If not initialized then initialize all the required hardware and software */
 418:.\Generated_Source\PSoC4/BLE.c ****     if(cyBle_initVar == 0u)
 419:.\Generated_Source\PSoC4/BLE.c ****     {
 420:.\Generated_Source\PSoC4/BLE.c ****         CyBle_Init();
 421:.\Generated_Source\PSoC4/BLE.c ****         cyBle_initVar = 1u;
 422:.\Generated_Source\PSoC4/BLE.c ****     }
 423:.\Generated_Source\PSoC4/BLE.c ****     
 424:.\Generated_Source\PSoC4/BLE.c ****     if(callbackFunc != NULL)
 425:.\Generated_Source\PSoC4/BLE.c ****     {
 426:.\Generated_Source\PSoC4/BLE.c ****     #if(CYBLE_SHARING_MODE_EXPORT)
 427:.\Generated_Source\PSoC4/BLE.c ****         if(cyBle_stackMemoryRam == NULL)
 428:.\Generated_Source\PSoC4/BLE.c ****         {
 429:.\Generated_Source\PSoC4/BLE.c ****             cyBle_stackMemoryRam = (uint8 *)malloc(CYBLE_STACK_RAM_SIZE);
 430:.\Generated_Source\PSoC4/BLE.c ****             if(cyBle_stackMemoryRam == NULL)
 431:.\Generated_Source\PSoC4/BLE.c ****             {
 432:.\Generated_Source\PSoC4/BLE.c ****                 apiResult = CYBLE_ERROR_MEMORY_ALLOCATION_FAILED;
ARM GAS  C:\Users\Helon\AppData\Local\Temp\cczBwqra.s 			page 9


 433:.\Generated_Source\PSoC4/BLE.c ****             } 
 434:.\Generated_Source\PSoC4/BLE.c ****         }
 435:.\Generated_Source\PSoC4/BLE.c ****     #endif /* CYBLE_SHARING_MODE_EXPORT */
 436:.\Generated_Source\PSoC4/BLE.c ****         if(apiResult == CYBLE_ERROR_OK)
 437:.\Generated_Source\PSoC4/BLE.c ****         {
 438:.\Generated_Source\PSoC4/BLE.c ****             CyBle_ApplCallback = callbackFunc;
 439:.\Generated_Source\PSoC4/BLE.c ****             
 440:.\Generated_Source\PSoC4/BLE.c ****         #if(CYBLE_MODE_PROFILE)
 441:.\Generated_Source\PSoC4/BLE.c ****             apiResult = CyBle_StackInit(&CyBle_EventHandler, cyBle_stackMemoryRam, CYBLE_STACK_RAM_
 442:.\Generated_Source\PSoC4/BLE.c ****                 cyBle_stackDataBuff, CYBLE_STACK_BUF_COUNT, cyBle_flashStorage.stackFlashptr, CYBLE
 443:.\Generated_Source\PSoC4/BLE.c ****         #else
 444:.\Generated_Source\PSoC4/BLE.c ****             apiResult = CyBle_StackInit(&CyBle_EventHandler, cyBle_stackMemoryRam, CYBLE_STACK_RAM_
 445:.\Generated_Source\PSoC4/BLE.c ****                 NULL, 0u, NULL, 0u);
 446:.\Generated_Source\PSoC4/BLE.c ****         #endif /* CYBLE_MODE_PROFILE */
 447:.\Generated_Source\PSoC4/BLE.c **** 
 448:.\Generated_Source\PSoC4/BLE.c ****             if(apiResult == CYBLE_ERROR_OK)
 449:.\Generated_Source\PSoC4/BLE.c ****             {
 450:.\Generated_Source\PSoC4/BLE.c ****                 CyBle_SetState(CYBLE_STATE_INITIALIZING);
 451:.\Generated_Source\PSoC4/BLE.c ****                 
 452:.\Generated_Source\PSoC4/BLE.c ****             #if (CYBLE_GATT_ROLE_CLIENT)
 453:.\Generated_Source\PSoC4/BLE.c ****                 CyBle_SetClientState(CYBLE_CLIENT_STATE_DISCONNECTED);
 454:.\Generated_Source\PSoC4/BLE.c ****             #endif /* CYBLE_GATT_ROLE_CLIENT */
 455:.\Generated_Source\PSoC4/BLE.c ****                 
 456:.\Generated_Source\PSoC4/BLE.c ****             #if(CYBLE_GATT_ROLE_SERVER)
 457:.\Generated_Source\PSoC4/BLE.c ****                 apiResult = CyBle_GattsDbRegister(cyBle_gattDB, CYBLE_GATT_DB_INDEX_COUNT, CYBLE_GA
 458:.\Generated_Source\PSoC4/BLE.c ****             #endif /* CYBLE_GATT_ROLE_SERVER */
 459:.\Generated_Source\PSoC4/BLE.c ****             }
 460:.\Generated_Source\PSoC4/BLE.c ****         }
 461:.\Generated_Source\PSoC4/BLE.c ****     }
 462:.\Generated_Source\PSoC4/BLE.c ****     else
 463:.\Generated_Source\PSoC4/BLE.c ****     {
 464:.\Generated_Source\PSoC4/BLE.c ****         apiResult = CYBLE_ERROR_INVALID_PARAMETER;
 465:.\Generated_Source\PSoC4/BLE.c ****     }
 466:.\Generated_Source\PSoC4/BLE.c **** 
 467:.\Generated_Source\PSoC4/BLE.c ****     return (apiResult);
 468:.\Generated_Source\PSoC4/BLE.c **** }
 469:.\Generated_Source\PSoC4/BLE.c **** 
 470:.\Generated_Source\PSoC4/BLE.c **** 
 471:.\Generated_Source\PSoC4/BLE.c **** /******************************************************************************
 472:.\Generated_Source\PSoC4/BLE.c **** * Function Name: CyBle_Stop
 473:.\Generated_Source\PSoC4/BLE.c **** ***************************************************************************//**
 474:.\Generated_Source\PSoC4/BLE.c **** * 
 475:.\Generated_Source\PSoC4/BLE.c **** *  This function stops any ongoing operation in the BLE Stack and forces the 
 476:.\Generated_Source\PSoC4/BLE.c **** *  BLE Stack to shut down. The only function that can be called after calling
 477:.\Generated_Source\PSoC4/BLE.c **** *  this function is CyBle_Start(). 
 478:.\Generated_Source\PSoC4/BLE.c **** * 
 479:.\Generated_Source\PSoC4/BLE.c **** * \return
 480:.\Generated_Source\PSoC4/BLE.c **** *  None
 481:.\Generated_Source\PSoC4/BLE.c **** * 
 482:.\Generated_Source\PSoC4/BLE.c **** ******************************************************************************/
 483:.\Generated_Source\PSoC4/BLE.c **** void CyBle_Stop(void)
 484:.\Generated_Source\PSoC4/BLE.c **** {
 485:.\Generated_Source\PSoC4/BLE.c ****     CyBle_Shutdown();                         /* Stop all ongoing activities */
 486:.\Generated_Source\PSoC4/BLE.c ****     CyBle_SetState(CYBLE_STATE_STOPPED);
 487:.\Generated_Source\PSoC4/BLE.c ****     #if(CYBLE_SHARING_MODE_EXPORT)
 488:.\Generated_Source\PSoC4/BLE.c ****         if(cyBle_stackMemoryRam != NULL)
 489:.\Generated_Source\PSoC4/BLE.c ****         {
ARM GAS  C:\Users\Helon\AppData\Local\Temp\cczBwqra.s 			page 10


 490:.\Generated_Source\PSoC4/BLE.c ****             free(cyBle_stackMemoryRam);
 491:.\Generated_Source\PSoC4/BLE.c ****         }
 492:.\Generated_Source\PSoC4/BLE.c ****     #endif /* CYBLE_SHARING_MODE_EXPORT */
 493:.\Generated_Source\PSoC4/BLE.c **** }
 494:.\Generated_Source\PSoC4/BLE.c **** 
 495:.\Generated_Source\PSoC4/BLE.c **** 
 496:.\Generated_Source\PSoC4/BLE.c **** #if((CYBLE_GAP_ROLE_PERIPHERAL || CYBLE_GAP_ROLE_CENTRAL) && (CYBLE_BONDING_REQUIREMENT == CYBLE_BO
 497:.\Generated_Source\PSoC4/BLE.c **** 
 498:.\Generated_Source\PSoC4/BLE.c ****     
 499:.\Generated_Source\PSoC4/BLE.c **** /******************************************************************************
 500:.\Generated_Source\PSoC4/BLE.c **** * Function Name: CyBle_StoreBondingData
 501:.\Generated_Source\PSoC4/BLE.c **** ***************************************************************************//**
 502:.\Generated_Source\PSoC4/BLE.c **** * 
 503:.\Generated_Source\PSoC4/BLE.c **** *  This function writes the new bonding data from RAM to the dedicated Flash 
 504:.\Generated_Source\PSoC4/BLE.c **** *  location as defined by the component. It performs data comparing between RAM
 505:.\Generated_Source\PSoC4/BLE.c **** *  and Flash before writing to Flash. If there is no change between RAM and Flash
 506:.\Generated_Source\PSoC4/BLE.c **** *  data, then no write is performed. It writes only one flash row in one call.
 507:.\Generated_Source\PSoC4/BLE.c **** *  Application should keep calling this function till API return CYBLE_ERROR_OK. 
 508:.\Generated_Source\PSoC4/BLE.c **** *  This function is available only when Bonding requirement is selected in
 509:.\Generated_Source\PSoC4/BLE.c **** *  Security settings.    
 510:.\Generated_Source\PSoC4/BLE.c **** * 
 511:.\Generated_Source\PSoC4/BLE.c **** *  \param isForceWrite:  If value is set to 0, then stack will check if flash write 
 512:.\Generated_Source\PSoC4/BLE.c **** *                 is permissible. 
 513:.\Generated_Source\PSoC4/BLE.c **** *  
 514:.\Generated_Source\PSoC4/BLE.c **** * \return
 515:.\Generated_Source\PSoC4/BLE.c **** *  Return value is of type CYBLE_API_RESULT_T.
 516:.\Generated_Source\PSoC4/BLE.c **** *
 517:.\Generated_Source\PSoC4/BLE.c **** *   Errors codes                         | Description
 518:.\Generated_Source\PSoC4/BLE.c **** *   ----------------------------------   | ------------------------------------
 519:.\Generated_Source\PSoC4/BLE.c **** *   CYBLE_ERROR_OK                       | On successful operation
 520:.\Generated_Source\PSoC4/BLE.c **** *   CYBLE_ERROR_FLASH_WRITE_NOT_PERMITED | Flash Write is not complete
 521:.\Generated_Source\PSoC4/BLE.c **** *    
 522:.\Generated_Source\PSoC4/BLE.c **** *  \sideeffect
 523:.\Generated_Source\PSoC4/BLE.c **** *   For BLE devices with 128K of Flash memory this API will automatically 
 524:.\Generated_Source\PSoC4/BLE.c **** *   modify the clock settings for the device.
 525:.\Generated_Source\PSoC4/BLE.c **** *   Writing to flash requires changes to be done to the IMO (set to 48 MHz)
 526:.\Generated_Source\PSoC4/BLE.c **** *   and HFCLK (source set to IMO) settings. The configuration is restored before
 527:.\Generated_Source\PSoC4/BLE.c **** *   returning. This will impact the operation of most of the hardware in the
 528:.\Generated_Source\PSoC4/BLE.c **** *   device.
 529:.\Generated_Source\PSoC4/BLE.c **** * 
 530:.\Generated_Source\PSoC4/BLE.c **** *  \globalvars
 531:.\Generated_Source\PSoC4/BLE.c **** *   The BLE_pendingFlashWrite variable is used to detect status
 532:.\Generated_Source\PSoC4/BLE.c **** *   of pending write to flash operation for stack data and CCCD.
 533:.\Generated_Source\PSoC4/BLE.c **** *   This API automatically clears pending bits after write operation complete.
 534:.\Generated_Source\PSoC4/BLE.c **** *     
 535:.\Generated_Source\PSoC4/BLE.c **** ******************************************************************************/
 536:.\Generated_Source\PSoC4/BLE.c **** CYBLE_API_RESULT_T CyBle_StoreBondingData(uint8 isForceWrite)
 537:.\Generated_Source\PSoC4/BLE.c **** {
 538:.\Generated_Source\PSoC4/BLE.c ****     CYBLE_API_RESULT_T apiResult = CYBLE_ERROR_OK;
 539:.\Generated_Source\PSoC4/BLE.c ****     
 540:.\Generated_Source\PSoC4/BLE.c ****     /* Store Stack data */
 541:.\Generated_Source\PSoC4/BLE.c ****     if((cyBle_pendingFlashWrite & CYBLE_PENDING_STACK_FLASH_WRITE_BIT) != 0u)
 542:.\Generated_Source\PSoC4/BLE.c ****     {
 543:.\Generated_Source\PSoC4/BLE.c ****         apiResult = CyBle_StoreStackData(isForceWrite);
 544:.\Generated_Source\PSoC4/BLE.c ****         if(apiResult == CYBLE_ERROR_OK)
 545:.\Generated_Source\PSoC4/BLE.c ****         {
 546:.\Generated_Source\PSoC4/BLE.c ****             cyBle_pendingFlashWrite &= (uint8)~CYBLE_PENDING_STACK_FLASH_WRITE_BIT;
ARM GAS  C:\Users\Helon\AppData\Local\Temp\cczBwqra.s 			page 11


 547:.\Generated_Source\PSoC4/BLE.c ****             /* Change apiResult if there are more pending data to store */
 548:.\Generated_Source\PSoC4/BLE.c ****             if((cyBle_pendingFlashWrite & CYBLE_PENDING_CCCD_FLASH_WRITE_BIT) != 0u)
 549:.\Generated_Source\PSoC4/BLE.c ****             {
 550:.\Generated_Source\PSoC4/BLE.c ****                 apiResult = CYBLE_ERROR_FLASH_WRITE_NOT_PERMITED;
 551:.\Generated_Source\PSoC4/BLE.c ****             }
 552:.\Generated_Source\PSoC4/BLE.c ****         }
 553:.\Generated_Source\PSoC4/BLE.c ****     }
 554:.\Generated_Source\PSoC4/BLE.c **** #if(CYBLE_GATT_DB_CCCD_COUNT != 0u)
 555:.\Generated_Source\PSoC4/BLE.c ****     /* Store CCCD values */
 556:.\Generated_Source\PSoC4/BLE.c ****     if( ((apiResult == CYBLE_ERROR_OK) || (isForceWrite != 0u)) && 
 557:.\Generated_Source\PSoC4/BLE.c ****         ((cyBle_pendingFlashWrite & CYBLE_PENDING_CCCD_FLASH_WRITE_BIT) != 0u) &&
 558:.\Generated_Source\PSoC4/BLE.c ****         (cyBle_connHandle.bdHandle <= CYBLE_GAP_MAX_BONDED_DEVICE))
 559:.\Generated_Source\PSoC4/BLE.c ****     {
 560:.\Generated_Source\PSoC4/BLE.c ****         apiResult = CyBle_StoreAppData(cyBle_attValuesCCCD, cyBle_flashStorage.attValuesCCCDFlashMe
 561:.\Generated_Source\PSoC4/BLE.c ****                                        CYBLE_GATT_DB_CCCD_COUNT, isForceWrite);
 562:.\Generated_Source\PSoC4/BLE.c ****         if(apiResult == CYBLE_ERROR_OK)
 563:.\Generated_Source\PSoC4/BLE.c ****         {
 564:.\Generated_Source\PSoC4/BLE.c ****             cyBle_pendingFlashWrite &= (uint8)~CYBLE_PENDING_CCCD_FLASH_WRITE_BIT;
 565:.\Generated_Source\PSoC4/BLE.c ****         }
 566:.\Generated_Source\PSoC4/BLE.c ****     }
 567:.\Generated_Source\PSoC4/BLE.c **** #endif /* CYBLE_GATT_DB_CCCD_COUNT != 0u */
 568:.\Generated_Source\PSoC4/BLE.c ****     return(apiResult);
 569:.\Generated_Source\PSoC4/BLE.c **** }
 570:.\Generated_Source\PSoC4/BLE.c **** 
 571:.\Generated_Source\PSoC4/BLE.c **** 
 572:.\Generated_Source\PSoC4/BLE.c **** #endif /* (CYBLE_GAP_ROLE_PERIPHERAL || CYBLE_GAP_ROLE_CENTRAL) && (CYBLE_BONDING_REQUIREMENT == CY
 573:.\Generated_Source\PSoC4/BLE.c **** 
 574:.\Generated_Source\PSoC4/BLE.c **** 
 575:.\Generated_Source\PSoC4/BLE.c **** #if(CYBLE_GAP_ROLE_PERIPHERAL || CYBLE_GAP_ROLE_BROADCASTER)
 576:.\Generated_Source\PSoC4/BLE.c **** 
 577:.\Generated_Source\PSoC4/BLE.c ****     /******************************************************************************
 578:.\Generated_Source\PSoC4/BLE.c ****     *  Function Name: CyBle_GappStartAdvertisement
 579:.\Generated_Source\PSoC4/BLE.c ****     ***************************************************************************//**
 580:.\Generated_Source\PSoC4/BLE.c ****     *     
 581:.\Generated_Source\PSoC4/BLE.c ****     *  This function is used to start the advertisement using the advertisement data 
 582:.\Generated_Source\PSoC4/BLE.c ****     *  set in the component customizer's GUI. After invoking this API, the device 
 583:.\Generated_Source\PSoC4/BLE.c ****     *  will be available for connection by the devices configured for GAP central 
 584:.\Generated_Source\PSoC4/BLE.c ****     *  role. It is only included if the device is configured for GAP Peripheral or 
 585:.\Generated_Source\PSoC4/BLE.c ****     *  GAP Peripheral + Central role.
 586:.\Generated_Source\PSoC4/BLE.c ****     *  
 587:.\Generated_Source\PSoC4/BLE.c ****     *  On start of advertisement, GAP Peripheral receives the
 588:.\Generated_Source\PSoC4/BLE.c ****     *  CYBLE_EVT_GAPP_ADVERTISEMENT_START_STOP event. The following events are 
 589:.\Generated_Source\PSoC4/BLE.c ****     *  possible on invoking this function:
 590:.\Generated_Source\PSoC4/BLE.c ****     *  
 591:.\Generated_Source\PSoC4/BLE.c ****     *  * CYBLE_EVT_GAP_DEVICE_CONNECTED: If the device connects to remote GAP 
 592:.\Generated_Source\PSoC4/BLE.c ****     *                                      Central device
 593:.\Generated_Source\PSoC4/BLE.c ****     *  * CYBLE_EVT_TIMEOUT: If no device in GAP Central mode connects to this 
 594:.\Generated_Source\PSoC4/BLE.c ****     *                       device within the specified timeout limit. Stack 
 595:.\Generated_Source\PSoC4/BLE.c ****     *                       automatically initiate stop advertising when Slow 
 596:.\Generated_Source\PSoC4/BLE.c ****     *                       advertising was initiated, or starts Slow advertising
 597:.\Generated_Source\PSoC4/BLE.c ****     *                       after Fast advertising timeout occur.
 598:.\Generated_Source\PSoC4/BLE.c ****     *  * CYBLE_EVT_GAPP_ADVERTISEMENT_START_STOP: If device started or stopped
 599:.\Generated_Source\PSoC4/BLE.c ****     *                                               advertising. Use CyBle_GetState()
 600:.\Generated_Source\PSoC4/BLE.c ****     *                                               to determine the state. Sequential 
 601:.\Generated_Source\PSoC4/BLE.c ****     *                                               advertising could be started when
 602:.\Generated_Source\PSoC4/BLE.c ****     *                                               CYBLE_STATE_DISCONNECTED state is
 603:.\Generated_Source\PSoC4/BLE.c ****     *                                               returned.
ARM GAS  C:\Users\Helon\AppData\Local\Temp\cczBwqra.s 			page 12


 604:.\Generated_Source\PSoC4/BLE.c ****     * 
 605:.\Generated_Source\PSoC4/BLE.c ****     *  \param advertisingIntervalType: Fast or slow advertising interval with timings
 606:.\Generated_Source\PSoC4/BLE.c ****     *                                 entered in Advertising settings section of the
 607:.\Generated_Source\PSoC4/BLE.c ****     *                                 customizer.
 608:.\Generated_Source\PSoC4/BLE.c ****     *  * CYBLE_ADVERTISING_FAST   0x00u
 609:.\Generated_Source\PSoC4/BLE.c ****     *  * CYBLE_ADVERTISING_SLOW   0x01u
 610:.\Generated_Source\PSoC4/BLE.c ****     *  * CYBLE_ADVERTISING_CUSTOM 0x02u
 611:.\Generated_Source\PSoC4/BLE.c ****     * 
 612:.\Generated_Source\PSoC4/BLE.c ****     * \return
 613:.\Generated_Source\PSoC4/BLE.c ****     *  CYBLE_API_RESULT_T : Return value indicates if the function succeeded or
 614:.\Generated_Source\PSoC4/BLE.c ****     *  failed. Following are the possible error codes.
 615:.\Generated_Source\PSoC4/BLE.c ****     * 
 616:.\Generated_Source\PSoC4/BLE.c ****     *   Errors codes                      |  Description
 617:.\Generated_Source\PSoC4/BLE.c ****     *   --------------------------------- |  --------------------------------
 618:.\Generated_Source\PSoC4/BLE.c ****     *   CYBLE_ERROR_OK                    |  On successful operation.
 619:.\Generated_Source\PSoC4/BLE.c ****     *   CYBLE_ERROR_INVALID_PARAMETER     |  On passing an invalid parameter.
 620:.\Generated_Source\PSoC4/BLE.c ****     *   CYBLE_ERROR_INVALID_STATE         |  On calling this API not in Disconnected state.
 621:.\Generated_Source\PSoC4/BLE.c ****     *
 622:.\Generated_Source\PSoC4/BLE.c ****     * 
 623:.\Generated_Source\PSoC4/BLE.c ****     *******************************************************************************/
 624:.\Generated_Source\PSoC4/BLE.c ****     CYBLE_API_RESULT_T CyBle_GappStartAdvertisement(uint8 advertisingIntervalType)
 625:.\Generated_Source\PSoC4/BLE.c ****     {
 626:.\Generated_Source\PSoC4/BLE.c ****         CYBLE_API_RESULT_T apiResult;
 627:.\Generated_Source\PSoC4/BLE.c ****         
 628:.\Generated_Source\PSoC4/BLE.c ****         if(advertisingIntervalType > CYBLE_ADVERTISING_CUSTOM)
 629:.\Generated_Source\PSoC4/BLE.c ****         {
 630:.\Generated_Source\PSoC4/BLE.c ****             apiResult = CYBLE_ERROR_INVALID_PARAMETER;
 631:.\Generated_Source\PSoC4/BLE.c ****         }
 632:.\Generated_Source\PSoC4/BLE.c ****         else if((CYBLE_STATE_DISCONNECTED == CyBle_GetState()) && ((cyBle_eventHandlerFlag & CYBLE_
 633:.\Generated_Source\PSoC4/BLE.c ****         {   
 634:.\Generated_Source\PSoC4/BLE.c ****             if(advertisingIntervalType == CYBLE_ADVERTISING_FAST)
 635:.\Generated_Source\PSoC4/BLE.c ****             {
 636:.\Generated_Source\PSoC4/BLE.c ****                 cyBle_discoveryModeInfo.advTo = CYBLE_FAST_ADV_TIMEOUT;
 637:.\Generated_Source\PSoC4/BLE.c ****                 cyBle_discoveryModeInfo.advParam->advIntvMin = CYBLE_FAST_ADV_INT_MIN;
 638:.\Generated_Source\PSoC4/BLE.c ****                 cyBle_discoveryModeInfo.advParam->advIntvMax = CYBLE_FAST_ADV_INT_MAX;
 639:.\Generated_Source\PSoC4/BLE.c ****             }
 640:.\Generated_Source\PSoC4/BLE.c ****             else if(advertisingIntervalType == CYBLE_ADVERTISING_SLOW)
 641:.\Generated_Source\PSoC4/BLE.c ****             {
 642:.\Generated_Source\PSoC4/BLE.c ****                 cyBle_discoveryModeInfo.advTo = CYBLE_SLOW_ADV_TIMEOUT;
 643:.\Generated_Source\PSoC4/BLE.c ****                 cyBle_discoveryModeInfo.advParam->advIntvMin = CYBLE_SLOW_ADV_INT_MIN;
 644:.\Generated_Source\PSoC4/BLE.c ****                 cyBle_discoveryModeInfo.advParam->advIntvMax = CYBLE_SLOW_ADV_INT_MAX;
 645:.\Generated_Source\PSoC4/BLE.c ****             }       
 646:.\Generated_Source\PSoC4/BLE.c ****             else /* Do not update advertising intervals */
 647:.\Generated_Source\PSoC4/BLE.c ****             {
 648:.\Generated_Source\PSoC4/BLE.c ****             }
 649:.\Generated_Source\PSoC4/BLE.c ****             cyBle_advertisingIntervalType = advertisingIntervalType;
 650:.\Generated_Source\PSoC4/BLE.c ****             apiResult = CyBle_GappEnterDiscoveryMode(&cyBle_discoveryModeInfo);
 651:.\Generated_Source\PSoC4/BLE.c ****         
 652:.\Generated_Source\PSoC4/BLE.c ****             if(CYBLE_ERROR_OK == apiResult)
 653:.\Generated_Source\PSoC4/BLE.c ****             {
 654:.\Generated_Source\PSoC4/BLE.c ****                 cyBle_eventHandlerFlag |= CYBLE_START_FLAG;
 655:.\Generated_Source\PSoC4/BLE.c ****             }
 656:.\Generated_Source\PSoC4/BLE.c ****         }
 657:.\Generated_Source\PSoC4/BLE.c ****         else
 658:.\Generated_Source\PSoC4/BLE.c ****         {
 659:.\Generated_Source\PSoC4/BLE.c ****             apiResult = CYBLE_ERROR_INVALID_STATE;
 660:.\Generated_Source\PSoC4/BLE.c ****         }
ARM GAS  C:\Users\Helon\AppData\Local\Temp\cczBwqra.s 			page 13


 661:.\Generated_Source\PSoC4/BLE.c **** 
 662:.\Generated_Source\PSoC4/BLE.c ****         return (apiResult);
 663:.\Generated_Source\PSoC4/BLE.c ****     }
 664:.\Generated_Source\PSoC4/BLE.c **** 
 665:.\Generated_Source\PSoC4/BLE.c ****     
 666:.\Generated_Source\PSoC4/BLE.c ****     /******************************************************************************
 667:.\Generated_Source\PSoC4/BLE.c ****     * Function Name: CyBle_GappStopAdvertisement
 668:.\Generated_Source\PSoC4/BLE.c ****     ***************************************************************************//**
 669:.\Generated_Source\PSoC4/BLE.c ****     * 
 670:.\Generated_Source\PSoC4/BLE.c ****     *   This function can be used to exit from discovery mode. After the execution 
 671:.\Generated_Source\PSoC4/BLE.c ****     *   of this function, there will no longer be any advertisements. On stopping 
 672:.\Generated_Source\PSoC4/BLE.c ****     *   advertising, GAP Peripheral receives CYBLE_EVT_GAPP_ADVERTISEMENT_START_STOP
 673:.\Generated_Source\PSoC4/BLE.c ****     *   event. It is expected that the application layer tracks the function call 
 674:.\Generated_Source\PSoC4/BLE.c ****     *   performed before occurrence of this event as this event can occur on making 
 675:.\Generated_Source\PSoC4/BLE.c ****     *   a call to Cy_BleGappStartAdvertisement(), CyBle_GappEnterDiscoveryMode(), 
 676:.\Generated_Source\PSoC4/BLE.c ****     *   or CyBle_GappStartAdvertisement() functions as well.
 677:.\Generated_Source\PSoC4/BLE.c ****     *   
 678:.\Generated_Source\PSoC4/BLE.c ****     *   The following event occurs on invoking this function:
 679:.\Generated_Source\PSoC4/BLE.c ****     *   * CYBLE_EVT_GAPP_ADVERTISEMENT_START_STOP
 680:.\Generated_Source\PSoC4/BLE.c ****     * 
 681:.\Generated_Source\PSoC4/BLE.c ****     *  \return
 682:.\Generated_Source\PSoC4/BLE.c ****     *   None
 683:.\Generated_Source\PSoC4/BLE.c ****     * 
 684:.\Generated_Source\PSoC4/BLE.c ****     *******************************************************************************/
 685:.\Generated_Source\PSoC4/BLE.c ****     void CyBle_GappStopAdvertisement(void)
 686:.\Generated_Source\PSoC4/BLE.c ****     {
 687:.\Generated_Source\PSoC4/BLE.c ****         CyBle_GappExitDiscoveryMode();
 688:.\Generated_Source\PSoC4/BLE.c ****         cyBle_eventHandlerFlag |= CYBLE_STOP_FLAG;
 689:.\Generated_Source\PSoC4/BLE.c ****     }
 690:.\Generated_Source\PSoC4/BLE.c ****     
 691:.\Generated_Source\PSoC4/BLE.c ****     
 692:.\Generated_Source\PSoC4/BLE.c ****     /******************************************************************************
 693:.\Generated_Source\PSoC4/BLE.c ****     * Function Name: CyBle_ChangeAdDeviceAddress
 694:.\Generated_Source\PSoC4/BLE.c ****     ***************************************************************************//**
 695:.\Generated_Source\PSoC4/BLE.c ****     * 
 696:.\Generated_Source\PSoC4/BLE.c ****     *  This API is used to set the Bluetooth device address into the advertisement 
 697:.\Generated_Source\PSoC4/BLE.c ****     *  or scan response data structure.
 698:.\Generated_Source\PSoC4/BLE.c ****     * 
 699:.\Generated_Source\PSoC4/BLE.c ****     *  \param bdAddr: Bluetooth Device address. The variable is of type CYBLE_GAP_BD_ADDR_T
 700:.\Generated_Source\PSoC4/BLE.c ****     *  \param dest: 0 - selects advertisement structure, not zero value selects scan 
 701:.\Generated_Source\PSoC4/BLE.c ****     *               response structure.
 702:.\Generated_Source\PSoC4/BLE.c ****     * 
 703:.\Generated_Source\PSoC4/BLE.c ****     * \return
 704:.\Generated_Source\PSoC4/BLE.c ****     *  None
 705:.\Generated_Source\PSoC4/BLE.c ****     *  
 706:.\Generated_Source\PSoC4/BLE.c ****     *******************************************************************************/
 707:.\Generated_Source\PSoC4/BLE.c ****     void CyBle_ChangeAdDeviceAddress(const CYBLE_GAP_BD_ADDR_T* bdAddr, uint8 dest)
 708:.\Generated_Source\PSoC4/BLE.c ****     {
 709:.\Generated_Source\PSoC4/BLE.c ****         uint8 i;
 710:.\Generated_Source\PSoC4/BLE.c ****         uint8 *destBuffer = NULL;
 711:.\Generated_Source\PSoC4/BLE.c ****         
 712:.\Generated_Source\PSoC4/BLE.c ****         if(dest == 0u)      /* Destination - advertising structure */
 713:.\Generated_Source\PSoC4/BLE.c ****         {
 714:.\Generated_Source\PSoC4/BLE.c ****             #ifdef CYBLE_ADV_PKT_INDEX_BLUETOOTH_DEVICE_ADDRESS
 715:.\Generated_Source\PSoC4/BLE.c ****                 destBuffer = &cyBle_discoveryData.advData[CYBLE_ADV_PKT_INDEX_BLUETOOTH_DEVICE_ADDR
 716:.\Generated_Source\PSoC4/BLE.c ****             #endif /* CYBLE_ADV_PKT_INDEX_BLUETOOTH_DEVICE_ADDRESS */
 717:.\Generated_Source\PSoC4/BLE.c ****         }
ARM GAS  C:\Users\Helon\AppData\Local\Temp\cczBwqra.s 			page 14


 718:.\Generated_Source\PSoC4/BLE.c ****         else                /* Destination - scan response structure */
 719:.\Generated_Source\PSoC4/BLE.c ****         {
 720:.\Generated_Source\PSoC4/BLE.c ****             #ifdef CYBLE_SCN_PKT_INDEX_BLUETOOTH_DEVICE_ADDRESS
 721:.\Generated_Source\PSoC4/BLE.c ****                 destBuffer = &cyBle_scanRspData.scanRspData[CYBLE_SCN_PKT_INDEX_BLUETOOTH_DEVICE_AD
 722:.\Generated_Source\PSoC4/BLE.c ****             #endif /* CYBLE_SCN_PKT_INDEX_BLUETOOTH_DEVICE_ADDRESS */    
 723:.\Generated_Source\PSoC4/BLE.c ****         }
 724:.\Generated_Source\PSoC4/BLE.c ****         
 725:.\Generated_Source\PSoC4/BLE.c ****         if(destBuffer != NULL)
 726:.\Generated_Source\PSoC4/BLE.c ****         {
 727:.\Generated_Source\PSoC4/BLE.c ****             /* Update Device Address type */
 728:.\Generated_Source\PSoC4/BLE.c ****             destBuffer[0u] = bdAddr->type;
 729:.\Generated_Source\PSoC4/BLE.c ****             
 730:.\Generated_Source\PSoC4/BLE.c ****             for(i = 0u; i < CYBLE_GAP_BD_ADDR_SIZE; i++)
 731:.\Generated_Source\PSoC4/BLE.c ****             {
 732:.\Generated_Source\PSoC4/BLE.c ****                 destBuffer[i + 1u] = bdAddr->bdAddr[i];
 733:.\Generated_Source\PSoC4/BLE.c ****             }
 734:.\Generated_Source\PSoC4/BLE.c ****         }
 735:.\Generated_Source\PSoC4/BLE.c ****     }
 736:.\Generated_Source\PSoC4/BLE.c ****   
 737:.\Generated_Source\PSoC4/BLE.c **** #endif /* CYBLE_GAP_ROLE_PERIPHERAL || CYBLE_GAP_ROLE_BROADCASTER */
 738:.\Generated_Source\PSoC4/BLE.c **** 
 739:.\Generated_Source\PSoC4/BLE.c **** 
 740:.\Generated_Source\PSoC4/BLE.c **** #if(CYBLE_GAP_ROLE_CENTRAL || CYBLE_GAP_ROLE_OBSERVER)
 741:.\Generated_Source\PSoC4/BLE.c **** 
 742:.\Generated_Source\PSoC4/BLE.c ****     /******************************************************************************
 743:.\Generated_Source\PSoC4/BLE.c ****     * Function Name: CyBle_GapcStartScan
 744:.\Generated_Source\PSoC4/BLE.c ****     ***************************************************************************//**
 745:.\Generated_Source\PSoC4/BLE.c ****     * 
 746:.\Generated_Source\PSoC4/BLE.c ****     *   This function is used for discovering GAP peripheral devices that are 
 747:.\Generated_Source\PSoC4/BLE.c ****     *   available for connection. It performs the scanning routine using the 
 748:.\Generated_Source\PSoC4/BLE.c ****     *   parameters entered in the component's customizer.
 749:.\Generated_Source\PSoC4/BLE.c ****     *   
 750:.\Generated_Source\PSoC4/BLE.c ****     *   As soon as the discovery operation starts, CYBLE_EVT_GAPC_SCAN_START_STOP 
 751:.\Generated_Source\PSoC4/BLE.c ****     *   event is generated. The CYBLE_EVT_GAPC_SCAN_PROGRESS_RESULT event is 
 752:.\Generated_Source\PSoC4/BLE.c ****     *   generated when a GAP peripheral device is located. There are three discovery
 753:.\Generated_Source\PSoC4/BLE.c ****     *   procedures can be selected in the customizer's GUI:
 754:.\Generated_Source\PSoC4/BLE.c ****     *   
 755:.\Generated_Source\PSoC4/BLE.c ****     *   * Observation procedure: A device performing the observer role receives only
 756:.\Generated_Source\PSoC4/BLE.c ****     *                            advertisement data from devices irrespective of 
 757:.\Generated_Source\PSoC4/BLE.c ****     *                            their discoverable mode settings. Advertisement 
 758:.\Generated_Source\PSoC4/BLE.c ****     *                            data received is provided by the event,      
 759:.\Generated_Source\PSoC4/BLE.c ****     *                            CYBLE_EVT_GAPC_SCAN_PROGRESS_RESULT. This procedure
 760:.\Generated_Source\PSoC4/BLE.c ****     *                            requires the scanType sub parameter to be passive
 761:.\Generated_Source\PSoC4/BLE.c ****     *                            scanning. 
 762:.\Generated_Source\PSoC4/BLE.c ****     *   
 763:.\Generated_Source\PSoC4/BLE.c ****     *   * Limited Discovery procedure: A device performing the limited discovery
 764:.\Generated_Source\PSoC4/BLE.c ****     *                                  procedure receives advertisement data and 
 765:.\Generated_Source\PSoC4/BLE.c ****     *                                  scan# response data from devices in the 
 766:.\Generated_Source\PSoC4/BLE.c ****     *                                  limited discoverable mode only. Received data
 767:.\Generated_Source\PSoC4/BLE.c ****     *                                  is provided by the event, 
 768:.\Generated_Source\PSoC4/BLE.c ****     *                                  CYBLE_EVT_GAPC_SCAN_PROGRESS_RESULT. This 
 769:.\Generated_Source\PSoC4/BLE.c ****     *                                  procedure requires the scanType sub-parameter 
 770:.\Generated_Source\PSoC4/BLE.c ****     *                                  to be active scanning.
 771:.\Generated_Source\PSoC4/BLE.c ****     *   
 772:.\Generated_Source\PSoC4/BLE.c ****     *   * General Discovery procedure: A device performing the general discovery 
 773:.\Generated_Source\PSoC4/BLE.c ****     *                                  procedure receives the advertisement data and
 774:.\Generated_Source\PSoC4/BLE.c ****     *                                  scan response data from devices in both 
ARM GAS  C:\Users\Helon\AppData\Local\Temp\cczBwqra.s 			page 15


 775:.\Generated_Source\PSoC4/BLE.c ****     *                                  limited discoverable mode and the general 
 776:.\Generated_Source\PSoC4/BLE.c ****     *                                  discoverable mode. Received data is provided
 777:.\Generated_Source\PSoC4/BLE.c ****     *                                  by the event,
 778:.\Generated_Source\PSoC4/BLE.c ****     *                                  CYBLE_EVT_GAPC_SCAN_PROGRESS_RESULT. This 
 779:.\Generated_Source\PSoC4/BLE.c ****     *                                  procedure requires the scanType sub-parameter
 780:.\Generated_Source\PSoC4/BLE.c ****     *                                  to be active scanning.
 781:.\Generated_Source\PSoC4/BLE.c ****     *   
 782:.\Generated_Source\PSoC4/BLE.c ****     *   Every Advertisement / Scan response packet received results in a new event, 
 783:.\Generated_Source\PSoC4/BLE.c ****     *   CYBLE_EVT_GAPC_SCAN_PROGRESS_RESULT.
 784:.\Generated_Source\PSoC4/BLE.c ****     *   If 'scanTo' sub-parameter is a non-zero value, then upon commencement of 
 785:.\Generated_Source\PSoC4/BLE.c ****     *   discovery procedure and elapsed time = 'scanTo', CYBLE_EVT_TIMEOUT event
 786:.\Generated_Source\PSoC4/BLE.c ****     *   is generated with the event parameter indicating CYBLE_GAP_SCAN_TO.
 787:.\Generated_Source\PSoC4/BLE.c ****     *   Possible generated events are:
 788:.\Generated_Source\PSoC4/BLE.c ****     *   * CYBLE_EVT_GAPC_SCAN_START_STOP: If a device started or stopped scanning. 
 789:.\Generated_Source\PSoC4/BLE.c ****     *                                     Use CyBle_GetState() to determine the 
 790:.\Generated_Source\PSoC4/BLE.c ****     *                                     state. Sequential scanning could be 
 791:.\Generated_Source\PSoC4/BLE.c ****     *                                     started when CYBLE_STATE_DISCONNECTED 
 792:.\Generated_Source\PSoC4/BLE.c ****     *                                     state is returned. 
 793:.\Generated_Source\PSoC4/BLE.c ****     *   * CYBLE_EVT_GAPC_SCAN_PROGRESS_RESULT 
 794:.\Generated_Source\PSoC4/BLE.c ****     *   * CYBLE_EVT_TIMEOUT (CYBLE_GAP_SCAN_TO)
 795:.\Generated_Source\PSoC4/BLE.c ****     * 
 796:.\Generated_Source\PSoC4/BLE.c ****     *   \param scanningIntervalType:  Fast or slow scanning interval with
 797:.\Generated_Source\PSoC4/BLE.c ****     *       timings entered in Scan settings section of the customizer.
 798:.\Generated_Source\PSoC4/BLE.c ****     * 	  * CYBLE_SCANNING_FAST   0x00u
 799:.\Generated_Source\PSoC4/BLE.c ****     * 	  * CYBLE_SCANNING_SLOW   0x01u
 800:.\Generated_Source\PSoC4/BLE.c ****     * 	  * CYBLE_SCANNING_CUSTOM 0x02u
 801:.\Generated_Source\PSoC4/BLE.c ****     * 
 802:.\Generated_Source\PSoC4/BLE.c ****     * \return
 803:.\Generated_Source\PSoC4/BLE.c ****     *  CYBLE_API_RESULT_T : Return value indicates if the function succeeded or
 804:.\Generated_Source\PSoC4/BLE.c ****     *  failed. Following are the possible error codes.
 805:.\Generated_Source\PSoC4/BLE.c ****     *
 806:.\Generated_Source\PSoC4/BLE.c ****     *   Errors codes                       | Description
 807:.\Generated_Source\PSoC4/BLE.c ****     *   ---------------------------------- | -----------------------------------
 808:.\Generated_Source\PSoC4/BLE.c ****     *   CYBLE_ERROR_OK                     | On successful operation.
 809:.\Generated_Source\PSoC4/BLE.c ****     *   CYBLE_ERROR_STACK_INTERNAL         | An error occurred in the BLE stack.
 810:.\Generated_Source\PSoC4/BLE.c ****     *   CYBLE_ERROR_INVALID_PARAMETER      | On passing an invalid parameter.
 811:.\Generated_Source\PSoC4/BLE.c ****     *  
 812:.\Generated_Source\PSoC4/BLE.c ****     *******************************************************************************/
 813:.\Generated_Source\PSoC4/BLE.c ****     CYBLE_API_RESULT_T CyBle_GapcStartScan(uint8 scanningIntervalType)
 814:.\Generated_Source\PSoC4/BLE.c ****     {
 815:.\Generated_Source\PSoC4/BLE.c ****         CYBLE_API_RESULT_T apiResult;
 816:.\Generated_Source\PSoC4/BLE.c **** 
 817:.\Generated_Source\PSoC4/BLE.c ****         if(scanningIntervalType > CYBLE_SCANNING_CUSTOM)
 818:.\Generated_Source\PSoC4/BLE.c ****         {
 819:.\Generated_Source\PSoC4/BLE.c ****             apiResult = CYBLE_ERROR_INVALID_PARAMETER;
 820:.\Generated_Source\PSoC4/BLE.c ****         }
 821:.\Generated_Source\PSoC4/BLE.c ****         else
 822:.\Generated_Source\PSoC4/BLE.c ****         {
 823:.\Generated_Source\PSoC4/BLE.c ****             if(scanningIntervalType == CYBLE_SCANNING_FAST)
 824:.\Generated_Source\PSoC4/BLE.c ****             {
 825:.\Generated_Source\PSoC4/BLE.c ****                 cyBle_discoveryInfo.scanTo = CYBLE_FAST_SCAN_TIMEOUT;
 826:.\Generated_Source\PSoC4/BLE.c ****                 cyBle_discoveryInfo.scanIntv = CYBLE_FAST_SCAN_INTERVAL;
 827:.\Generated_Source\PSoC4/BLE.c ****                 cyBle_discoveryInfo.scanWindow = CYBLE_FAST_SCAN_WINDOW;
 828:.\Generated_Source\PSoC4/BLE.c ****             }
 829:.\Generated_Source\PSoC4/BLE.c ****             else if(scanningIntervalType == CYBLE_SCANNING_SLOW)
 830:.\Generated_Source\PSoC4/BLE.c ****             {
 831:.\Generated_Source\PSoC4/BLE.c ****                 cyBle_discoveryInfo.scanTo = CYBLE_SLOW_SCAN_TIMEOUT;
ARM GAS  C:\Users\Helon\AppData\Local\Temp\cczBwqra.s 			page 16


 832:.\Generated_Source\PSoC4/BLE.c ****                 cyBle_discoveryInfo.scanIntv = CYBLE_SLOW_SCAN_INTERVAL;
 833:.\Generated_Source\PSoC4/BLE.c ****                 cyBle_discoveryInfo.scanWindow = CYBLE_SLOW_SCAN_WINDOW;
 834:.\Generated_Source\PSoC4/BLE.c ****             }       
 835:.\Generated_Source\PSoC4/BLE.c ****             else /* Do not update scanning intervals */
 836:.\Generated_Source\PSoC4/BLE.c ****             {
 837:.\Generated_Source\PSoC4/BLE.c ****             }
 838:.\Generated_Source\PSoC4/BLE.c ****             
 839:.\Generated_Source\PSoC4/BLE.c ****             cyBle_scanningIntervalType = scanningIntervalType;
 840:.\Generated_Source\PSoC4/BLE.c ****             apiResult = CyBle_GapcStartDiscovery(&cyBle_discoveryInfo);
 841:.\Generated_Source\PSoC4/BLE.c ****         
 842:.\Generated_Source\PSoC4/BLE.c ****             if(CYBLE_ERROR_OK == apiResult)
 843:.\Generated_Source\PSoC4/BLE.c ****             {
 844:.\Generated_Source\PSoC4/BLE.c ****                 cyBle_eventHandlerFlag |= CYBLE_START_FLAG;
 845:.\Generated_Source\PSoC4/BLE.c ****             }
 846:.\Generated_Source\PSoC4/BLE.c ****         }
 847:.\Generated_Source\PSoC4/BLE.c ****        
 848:.\Generated_Source\PSoC4/BLE.c ****         return (apiResult);
 849:.\Generated_Source\PSoC4/BLE.c ****     }
 850:.\Generated_Source\PSoC4/BLE.c ****     
 851:.\Generated_Source\PSoC4/BLE.c ****     
 852:.\Generated_Source\PSoC4/BLE.c ****     /******************************************************************************
 853:.\Generated_Source\PSoC4/BLE.c ****     * Function Name: CyBle_GapcStopScan
 854:.\Generated_Source\PSoC4/BLE.c ****     ***************************************************************************//**
 855:.\Generated_Source\PSoC4/BLE.c ****     * 
 856:.\Generated_Source\PSoC4/BLE.c ****     *   This function used to stop the discovery of devices. On stopping discovery
 857:.\Generated_Source\PSoC4/BLE.c ****     *   operation, CYBLE_EVT_GAPC_SCAN_START_STOP event is generated. Application
 858:.\Generated_Source\PSoC4/BLE.c ****     *   layer needs to keep track of the function call made before receiving this
 859:.\Generated_Source\PSoC4/BLE.c ****     *   event to associate this event with either the start or stop discovery
 860:.\Generated_Source\PSoC4/BLE.c ****     *   function.
 861:.\Generated_Source\PSoC4/BLE.c ****     * 
 862:.\Generated_Source\PSoC4/BLE.c ****     *   Possible events generated are:
 863:.\Generated_Source\PSoC4/BLE.c ****     *    * CYBLE_EVT_GAPC_SCAN_START_STOP
 864:.\Generated_Source\PSoC4/BLE.c ****     * 
 865:.\Generated_Source\PSoC4/BLE.c ****     *  \return
 866:.\Generated_Source\PSoC4/BLE.c ****     *   None
 867:.\Generated_Source\PSoC4/BLE.c ****     * 
 868:.\Generated_Source\PSoC4/BLE.c ****     *******************************************************************************/
 869:.\Generated_Source\PSoC4/BLE.c ****     void CyBle_GapcStopScan(void)
 870:.\Generated_Source\PSoC4/BLE.c ****     {
 871:.\Generated_Source\PSoC4/BLE.c ****         CyBle_GapcStopDiscovery();
 872:.\Generated_Source\PSoC4/BLE.c ****         
 873:.\Generated_Source\PSoC4/BLE.c ****         cyBle_eventHandlerFlag |= CYBLE_STOP_FLAG;
 874:.\Generated_Source\PSoC4/BLE.c ****     }
 875:.\Generated_Source\PSoC4/BLE.c **** 
 876:.\Generated_Source\PSoC4/BLE.c ****     
 877:.\Generated_Source\PSoC4/BLE.c **** #endif /* CYBLE_GAP_ROLE_CENTRAL || CYBLE_GAP_ROLE_OBSERVER */
 878:.\Generated_Source\PSoC4/BLE.c **** 
 879:.\Generated_Source\PSoC4/BLE.c **** 
 880:.\Generated_Source\PSoC4/BLE.c **** #if(CYBLE_GAP_ROLE_CENTRAL)
 881:.\Generated_Source\PSoC4/BLE.c **** 
 882:.\Generated_Source\PSoC4/BLE.c ****     /******************************************************************************
 883:.\Generated_Source\PSoC4/BLE.c ****     * Function Name: CyBle_GapcConnectDevice
 884:.\Generated_Source\PSoC4/BLE.c ****     ***************************************************************************//**
 885:.\Generated_Source\PSoC4/BLE.c ****     * 
 886:.\Generated_Source\PSoC4/BLE.c ****     *  This function is used to send a connection request to the remote device with
 887:.\Generated_Source\PSoC4/BLE.c ****     *  the connection parameters set in the component customizer. This function needs
 888:.\Generated_Source\PSoC4/BLE.c ****     *  to be called only once after the target device is discovered by 
ARM GAS  C:\Users\Helon\AppData\Local\Temp\cczBwqra.s 			page 17


 889:.\Generated_Source\PSoC4/BLE.c ****     *  CyBle_GapcStartScan() and further scanning has stopped. Scanning is 
 890:.\Generated_Source\PSoC4/BLE.c ****     *  successfully stopped on invoking CyBle_GapcStopScan() and then receiving the
 891:.\Generated_Source\PSoC4/BLE.c ****     *  event CYBLE_EVT_GAPC_SCAN_START_STOP with sub-parameter 'success' = 0x01u.
 892:.\Generated_Source\PSoC4/BLE.c ****     *  
 893:.\Generated_Source\PSoC4/BLE.c ****     *  On successful connection, the following events are generated at the GAP 
 894:.\Generated_Source\PSoC4/BLE.c ****     *  Central device (as well as the GAP Peripheral device), in the following order.
 895:.\Generated_Source\PSoC4/BLE.c ****     *  * CYBLE_EVT_GATT_CONNECT_IND
 896:.\Generated_Source\PSoC4/BLE.c ****     *  * CYBLE_EVT_GAP_DEVICE_CONNECTED
 897:.\Generated_Source\PSoC4/BLE.c ****     *  
 898:.\Generated_Source\PSoC4/BLE.c ****     *  A procedure is considered to have timed out if a connection response packet is 
 899:.\Generated_Source\PSoC4/BLE.c ****     *  not received within time set by cyBle_connectingTimeout global variable
 900:.\Generated_Source\PSoC4/BLE.c ****     *  (30 seconds by default). CYBLE_EVT_TIMEOUT event with CYBLE_GENERIC_TO parameter
 901:.\Generated_Source\PSoC4/BLE.c ****     *  will indicate about connection procedure timeout. Connection will automatically
 902:.\Generated_Source\PSoC4/BLE.c ****     *  be canceled and state will be changed to CYBLE_STATE_DISCONNECTED.
 903:.\Generated_Source\PSoC4/BLE.c ****     * 
 904:.\Generated_Source\PSoC4/BLE.c ****     *  \param address: The device address of the remote device to connect to. 
 905:.\Generated_Source\PSoC4/BLE.c ****     *  \param timeout: Timeout for which timer to be started in seconds.
 906:.\Generated_Source\PSoC4/BLE.c ****     *  
 907:.\Generated_Source\PSoC4/BLE.c ****     * \return
 908:.\Generated_Source\PSoC4/BLE.c ****     *  CYBLE_API_RESULT_T : Return value indicates if the function succeeded or 
 909:.\Generated_Source\PSoC4/BLE.c ****     *  failed. Following are the possible error codes.
 910:.\Generated_Source\PSoC4/BLE.c ****     *
 911:.\Generated_Source\PSoC4/BLE.c ****     *   Errors codes                       | Description
 912:.\Generated_Source\PSoC4/BLE.c ****     *   ------------                       | -----------
 913:.\Generated_Source\PSoC4/BLE.c ****     *   CYBLE_ERROR_OK                     | On successful operation.
 914:.\Generated_Source\PSoC4/BLE.c ****     *   CYBLE_ERROR_STACK_INTERNAL         | On error occurred in the BLE stack.
 915:.\Generated_Source\PSoC4/BLE.c ****     *   CYBLE_ERROR_INVALID_PARAMETER      | On passing an invalid parameter.
 916:.\Generated_Source\PSoC4/BLE.c ****     *   CYBLE_ERROR_INVALID_STATE          | On calling this API not in Disconnected state.
 917:.\Generated_Source\PSoC4/BLE.c ****     *  
 918:.\Generated_Source\PSoC4/BLE.c ****     ******************************************************************************/
 919:.\Generated_Source\PSoC4/BLE.c ****     CYBLE_API_RESULT_T CyBle_GapcConnectDevice(const CYBLE_GAP_BD_ADDR_T * address)
 920:.\Generated_Source\PSoC4/BLE.c ****     {
 921:.\Generated_Source\PSoC4/BLE.c ****         CYBLE_API_RESULT_T apiResult;
 922:.\Generated_Source\PSoC4/BLE.c ****         uint8 i;
 923:.\Generated_Source\PSoC4/BLE.c **** 
 924:.\Generated_Source\PSoC4/BLE.c ****         if(CYBLE_STATE_DISCONNECTED != CyBle_GetState())
 925:.\Generated_Source\PSoC4/BLE.c ****         {
 926:.\Generated_Source\PSoC4/BLE.c ****             apiResult = CYBLE_ERROR_INVALID_STATE;
 927:.\Generated_Source\PSoC4/BLE.c ****         }
 928:.\Generated_Source\PSoC4/BLE.c ****         else if(address == NULL)
 929:.\Generated_Source\PSoC4/BLE.c ****         {
 930:.\Generated_Source\PSoC4/BLE.c ****             apiResult = CYBLE_ERROR_INVALID_PARAMETER;
 931:.\Generated_Source\PSoC4/BLE.c ****         }
 932:.\Generated_Source\PSoC4/BLE.c ****         else
 933:.\Generated_Source\PSoC4/BLE.c ****         {
 934:.\Generated_Source\PSoC4/BLE.c ****             for(i = 0u; i < CYBLE_GAP_BD_ADDR_SIZE; i++)
 935:.\Generated_Source\PSoC4/BLE.c ****             {
 936:.\Generated_Source\PSoC4/BLE.c ****                 cyBle_connectionParameters.peerBdAddr[i] = address->bdAddr[i];
 937:.\Generated_Source\PSoC4/BLE.c ****             }
 938:.\Generated_Source\PSoC4/BLE.c ****             cyBle_connectionParameters.peerAddrType = address -> type;
 939:.\Generated_Source\PSoC4/BLE.c ****             apiResult = CyBle_GapcInitConnection(&cyBle_connectionParameters);
 940:.\Generated_Source\PSoC4/BLE.c ****             
 941:.\Generated_Source\PSoC4/BLE.c ****             if(CYBLE_ERROR_OK == apiResult)
 942:.\Generated_Source\PSoC4/BLE.c ****             {
 943:.\Generated_Source\PSoC4/BLE.c ****                 CyBle_SetState(CYBLE_STATE_CONNECTING);
 944:.\Generated_Source\PSoC4/BLE.c ****                 if(cyBle_connectingTimeout != 0u)
 945:.\Generated_Source\PSoC4/BLE.c ****                 {
ARM GAS  C:\Users\Helon\AppData\Local\Temp\cczBwqra.s 			page 18


 946:.\Generated_Source\PSoC4/BLE.c ****                     (void)CyBle_StartTimer(cyBle_connectingTimeout);
 947:.\Generated_Source\PSoC4/BLE.c ****                 }
 948:.\Generated_Source\PSoC4/BLE.c ****             }
 949:.\Generated_Source\PSoC4/BLE.c ****         }
 950:.\Generated_Source\PSoC4/BLE.c ****         return (apiResult);
 951:.\Generated_Source\PSoC4/BLE.c ****     }
 952:.\Generated_Source\PSoC4/BLE.c ****     
 953:.\Generated_Source\PSoC4/BLE.c **** 
 954:.\Generated_Source\PSoC4/BLE.c ****     /******************************************************************************
 955:.\Generated_Source\PSoC4/BLE.c ****     * Function Name: CyBle_GapcCancelDeviceConnection
 956:.\Generated_Source\PSoC4/BLE.c ****     ***************************************************************************//**
 957:.\Generated_Source\PSoC4/BLE.c ****     * 
 958:.\Generated_Source\PSoC4/BLE.c ****     *  This function cancels a previously initiated connection with the remote 
 959:.\Generated_Source\PSoC4/BLE.c ****     *  device. It is a blocking function. No event is generated on calling this 
 960:.\Generated_Source\PSoC4/BLE.c ****     *  function. If the devices are already connected then this function should not
 961:.\Generated_Source\PSoC4/BLE.c ****     *  be used. If you intend to disconnect from an existing connection, the function
 962:.\Generated_Source\PSoC4/BLE.c ****     *  CyBle_GapDisconnect() should be used.
 963:.\Generated_Source\PSoC4/BLE.c ****     * 
 964:.\Generated_Source\PSoC4/BLE.c ****     * \return
 965:.\Generated_Source\PSoC4/BLE.c ****     *  CYBLE_API_RESULT_T : Return value indicates if the function succeeded or 
 966:.\Generated_Source\PSoC4/BLE.c ****     *  failed. Following are the possible error codes.
 967:.\Generated_Source\PSoC4/BLE.c ****     *
 968:.\Generated_Source\PSoC4/BLE.c ****     *   Errors codes                       | Description
 969:.\Generated_Source\PSoC4/BLE.c ****     *   ---------------------------------- | --------------------------------------
 970:.\Generated_Source\PSoC4/BLE.c ****     *   CYBLE_ERROR_OK                     | On successful operation.
 971:.\Generated_Source\PSoC4/BLE.c ****     *   CYBLE_ERROR_STACK_INTERNAL         | An error occurred in the BLE stack.
 972:.\Generated_Source\PSoC4/BLE.c ****     *   CYBLE_ERROR_INVALID_OPERATION      | Device is already connected.
 973:.\Generated_Source\PSoC4/BLE.c ****     *  
 974:.\Generated_Source\PSoC4/BLE.c ****     *******************************************************************************/
 975:.\Generated_Source\PSoC4/BLE.c ****     CYBLE_API_RESULT_T CyBle_GapcCancelDeviceConnection(void)
 976:.\Generated_Source\PSoC4/BLE.c ****     {
 977:.\Generated_Source\PSoC4/BLE.c ****         CYBLE_API_RESULT_T apiResult;
 978:.\Generated_Source\PSoC4/BLE.c ****         
 979:.\Generated_Source\PSoC4/BLE.c ****         apiResult = CyBle_GapcCancelConnection();
 980:.\Generated_Source\PSoC4/BLE.c ****             
 981:.\Generated_Source\PSoC4/BLE.c ****         if(cyBle_connectingTimeout != 0u)
 982:.\Generated_Source\PSoC4/BLE.c ****         {
 983:.\Generated_Source\PSoC4/BLE.c ****             (void)CyBle_StopTimer();
 984:.\Generated_Source\PSoC4/BLE.c ****         }
 985:.\Generated_Source\PSoC4/BLE.c **** 
 986:.\Generated_Source\PSoC4/BLE.c ****         if(CYBLE_ERROR_OK == apiResult)
 987:.\Generated_Source\PSoC4/BLE.c ****         {
 988:.\Generated_Source\PSoC4/BLE.c ****             CyBle_SetState(CYBLE_STATE_DISCONNECTED);
 989:.\Generated_Source\PSoC4/BLE.c ****         }
 990:.\Generated_Source\PSoC4/BLE.c ****         return (apiResult);
 991:.\Generated_Source\PSoC4/BLE.c ****     }    
 992:.\Generated_Source\PSoC4/BLE.c **** 
 993:.\Generated_Source\PSoC4/BLE.c ****     
 994:.\Generated_Source\PSoC4/BLE.c **** #endif /* CYBLE_GAP_ROLE_CENTRAL */
 995:.\Generated_Source\PSoC4/BLE.c **** 
 996:.\Generated_Source\PSoC4/BLE.c **** 
 997:.\Generated_Source\PSoC4/BLE.c **** #if(CYBLE_GATT_ROLE_SERVER)
 998:.\Generated_Source\PSoC4/BLE.c **** 
 999:.\Generated_Source\PSoC4/BLE.c **** #if(CYBLE_GAP_ROLE_PERIPHERAL)
1000:.\Generated_Source\PSoC4/BLE.c **** 
1001:.\Generated_Source\PSoC4/BLE.c ****         /******************************************************************************
1002:.\Generated_Source\PSoC4/BLE.c ****         * Function Name: CyBle_ChangeAdLocalName
ARM GAS  C:\Users\Helon\AppData\Local\Temp\cczBwqra.s 			page 19


1003:.\Generated_Source\PSoC4/BLE.c ****         ***************************************************************************//**
1004:.\Generated_Source\PSoC4/BLE.c ****         *  This API is used to set the local device name in the advertisement or scan 
1005:.\Generated_Source\PSoC4/BLE.c ****         *  response data structure.
1006:.\Generated_Source\PSoC4/BLE.c ****         * 
1007:.\Generated_Source\PSoC4/BLE.c ****         *  \param name: The local device name string to be set in advertisement data 
1008:.\Generated_Source\PSoC4/BLE.c ****         *            structure.
1009:.\Generated_Source\PSoC4/BLE.c ****         *  \param dest: 0 - advertisement structure, not zero value selects scan response
1010:.\Generated_Source\PSoC4/BLE.c ****         *              structure.
1011:.\Generated_Source\PSoC4/BLE.c ****         * 
1012:.\Generated_Source\PSoC4/BLE.c ****         * \return
1013:.\Generated_Source\PSoC4/BLE.c ****         *  None
1014:.\Generated_Source\PSoC4/BLE.c ****         *  
1015:.\Generated_Source\PSoC4/BLE.c ****         *******************************************************************************/
1016:.\Generated_Source\PSoC4/BLE.c ****         static void CyBle_ChangeAdLocalName(const char8 name[], uint8 dest)
1017:.\Generated_Source\PSoC4/BLE.c ****         {
  25              		.loc 1 1017 0
  26              		.cfi_startproc
  27              	.LVL0:
  28 0000 70B5     		push	{r4, r5, r6, lr}
  29              		.cfi_def_cfa_offset 16
  30              		.cfi_offset 4, -16
  31              		.cfi_offset 5, -12
  32              		.cfi_offset 6, -8
  33              		.cfi_offset 14, -4
  34              	.LVL1:
1018:.\Generated_Source\PSoC4/BLE.c ****             uint8 i;
1019:.\Generated_Source\PSoC4/BLE.c ****             uint8 flag = 0u;
1020:.\Generated_Source\PSoC4/BLE.c ****             uint8 adLength = 0u;
1021:.\Generated_Source\PSoC4/BLE.c ****             uint8 byteCounter = 0u;
1022:.\Generated_Source\PSoC4/BLE.c ****             uint8 *destBuffer;
1023:.\Generated_Source\PSoC4/BLE.c ****             uint8 maxLength;
1024:.\Generated_Source\PSoC4/BLE.c ****             
1025:.\Generated_Source\PSoC4/BLE.c ****             if(dest == 0u)      /* Destination - advertising structure */
  35              		.loc 1 1025 0
  36 0002 0029     		cmp	r1, #0
  37 0004 05D1     		bne	.L2
  38              	.LVL2:
1026:.\Generated_Source\PSoC4/BLE.c ****             {
1027:.\Generated_Source\PSoC4/BLE.c ****                 destBuffer = cyBle_discoveryData.advData;
1028:.\Generated_Source\PSoC4/BLE.c ****                 maxLength = cyBle_discoveryData.advDataLen;
  39              		.loc 1 1028 0
  40 0006 1A4C     		ldr	r4, .L15
  41 0008 E67F     		ldrb	r6, [r4, #31]
  42              	.LVL3:
  43              	.L4:
1029:.\Generated_Source\PSoC4/BLE.c ****             }
1030:.\Generated_Source\PSoC4/BLE.c ****             else                /* Destination - scan response structure */
1031:.\Generated_Source\PSoC4/BLE.c ****             {
1032:.\Generated_Source\PSoC4/BLE.c ****                 destBuffer = cyBle_scanRspData.scanRspData;
1033:.\Generated_Source\PSoC4/BLE.c ****                 maxLength = cyBle_scanRspData.scanRspDataLen;
1034:.\Generated_Source\PSoC4/BLE.c ****             }
1035:.\Generated_Source\PSoC4/BLE.c ****             
1036:.\Generated_Source\PSoC4/BLE.c ****             while((byteCounter < maxLength) && (0u == flag))
1037:.\Generated_Source\PSoC4/BLE.c ****             {
1038:.\Generated_Source\PSoC4/BLE.c ****                 adLength = destBuffer[byteCounter];
1039:.\Generated_Source\PSoC4/BLE.c ****                 
1040:.\Generated_Source\PSoC4/BLE.c ****                 if(0u != adLength)
ARM GAS  C:\Users\Helon\AppData\Local\Temp\cczBwqra.s 			page 20


1041:.\Generated_Source\PSoC4/BLE.c ****                 {
1042:.\Generated_Source\PSoC4/BLE.c ****                     /* Increment byte counter so it can point to AD type */
1043:.\Generated_Source\PSoC4/BLE.c ****                     byteCounter++;
1044:.\Generated_Source\PSoC4/BLE.c ****                     
1045:.\Generated_Source\PSoC4/BLE.c ****                     if((CYBLE_SHORT_LOCAL_NAME == destBuffer[byteCounter]) || 
1046:.\Generated_Source\PSoC4/BLE.c ****                        (CYBLE_COMPLETE_LOCAL_NAME == destBuffer[byteCounter]))
1047:.\Generated_Source\PSoC4/BLE.c ****                     {
1048:.\Generated_Source\PSoC4/BLE.c ****                         /* Start of the Local Name AD type was fount. Set flag and exit the loop. *
1049:.\Generated_Source\PSoC4/BLE.c ****                         flag = 1u;
  44              		.loc 1 1049 0
  45 000a 0023     		mov	r3, #0
  46 000c 0022     		mov	r2, #0
  47 000e 0025     		mov	r5, #0
  48 0010 0FE0     		b	.L3
  49              	.LVL4:
  50              	.L2:
1033:.\Generated_Source\PSoC4/BLE.c ****             }
  51              		.loc 1 1033 0
  52 0012 184C     		ldr	r4, .L15+4
  53 0014 E67F     		ldrb	r6, [r4, #31]
  54              	.LVL5:
  55 0016 F8E7     		b	.L4
  56              	.LVL6:
  57              	.L7:
1038:.\Generated_Source\PSoC4/BLE.c ****                 
  58              		.loc 1 1038 0
  59 0018 E25C     		ldrb	r2, [r4, r3]
  60              	.LVL7:
1040:.\Generated_Source\PSoC4/BLE.c ****                 {
  61              		.loc 1 1040 0
  62 001a 002A     		cmp	r2, #0
  63 001c 0DD0     		beq	.L5
1043:.\Generated_Source\PSoC4/BLE.c ****                     
  64              		.loc 1 1043 0
  65 001e 0133     		add	r3, r3, #1
  66              	.LVL8:
  67 0020 DBB2     		uxtb	r3, r3
  68              	.LVL9:
1045:.\Generated_Source\PSoC4/BLE.c ****                        (CYBLE_COMPLETE_LOCAL_NAME == destBuffer[byteCounter]))
  69              		.loc 1 1045 0
  70 0022 E15C     		ldrb	r1, [r4, r3]
  71 0024 0839     		sub	r1, r1, #8
  72 0026 0129     		cmp	r1, #1
  73 0028 02D9     		bls	.L14
1050:.\Generated_Source\PSoC4/BLE.c ****                     }
1051:.\Generated_Source\PSoC4/BLE.c ****                     else
1052:.\Generated_Source\PSoC4/BLE.c ****                     {
1053:.\Generated_Source\PSoC4/BLE.c ****                         byteCounter += adLength;
  74              		.loc 1 1053 0
  75 002a 9B18     		add	r3, r3, r2
  76              	.LVL10:
  77 002c DBB2     		uxtb	r3, r3
  78              	.LVL11:
  79 002e 00E0     		b	.L3
  80              	.L14:
1049:.\Generated_Source\PSoC4/BLE.c ****                     }
  81              		.loc 1 1049 0
ARM GAS  C:\Users\Helon\AppData\Local\Temp\cczBwqra.s 			page 21


  82 0030 0125     		mov	r5, #1
  83              	.LVL12:
  84              	.L3:
1036:.\Generated_Source\PSoC4/BLE.c ****             {
  85              		.loc 1 1036 0
  86 0032 B342     		cmp	r3, r6
  87 0034 01D2     		bcs	.L5
1036:.\Generated_Source\PSoC4/BLE.c ****             {
  88              		.loc 1 1036 0 is_stmt 0 discriminator 1
  89 0036 002D     		cmp	r5, #0
  90 0038 EED0     		beq	.L7
  91              	.L5:
1054:.\Generated_Source\PSoC4/BLE.c ****                     }
1055:.\Generated_Source\PSoC4/BLE.c ****                 }
1056:.\Generated_Source\PSoC4/BLE.c ****                 else
1057:.\Generated_Source\PSoC4/BLE.c ****                 {
1058:.\Generated_Source\PSoC4/BLE.c ****                     /* The end of advertisement data structure was encountered though exit the loop
1059:.\Generated_Source\PSoC4/BLE.c ****                     break;
1060:.\Generated_Source\PSoC4/BLE.c ****                 }
1061:.\Generated_Source\PSoC4/BLE.c ****             }
1062:.\Generated_Source\PSoC4/BLE.c ****             
1063:.\Generated_Source\PSoC4/BLE.c ****             if(0u != flag)
  92              		.loc 1 1063 0 is_stmt 1
  93 003a 002D     		cmp	r5, #0
  94 003c 16D0     		beq	.L1
1064:.\Generated_Source\PSoC4/BLE.c ****             {
1065:.\Generated_Source\PSoC4/BLE.c ****                 /* Reuse "adLength" to hold location of the last character of local name in 
1066:.\Generated_Source\PSoC4/BLE.c ****                    AD structure. */
1067:.\Generated_Source\PSoC4/BLE.c ****                 adLength += byteCounter;
  95              		.loc 1 1067 0
  96 003e D218     		add	r2, r2, r3
  97              	.LVL13:
  98 0040 D1B2     		uxtb	r1, r2
  99              	.LVL14:
1068:.\Generated_Source\PSoC4/BLE.c ****                 
1069:.\Generated_Source\PSoC4/BLE.c ****                 /* Increment byte counter to point to start of the local Name string */
1070:.\Generated_Source\PSoC4/BLE.c ****                 byteCounter++;
 100              		.loc 1 1070 0
 101 0042 0133     		add	r3, r3, #1
 102              	.LVL15:
 103 0044 DBB2     		uxtb	r3, r3
 104              	.LVL16:
1071:.\Generated_Source\PSoC4/BLE.c ****                 
1072:.\Generated_Source\PSoC4/BLE.c ****                 for(i = byteCounter; ((i < (adLength)) && (CYBLE_NULL_CHARCTER != name[i - byteCoun
 105              		.loc 1 1072 0
 106 0046 1A1C     		mov	r2, r3
 107 0048 02E0     		b	.L9
 108              	.LVL17:
 109              	.L11:
1073:.\Generated_Source\PSoC4/BLE.c ****                 {
1074:.\Generated_Source\PSoC4/BLE.c ****                     destBuffer[i] = (uint8)name[i - byteCounter];
 110              		.loc 1 1074 0 discriminator 4
 111 004a A554     		strb	r5, [r4, r2]
1072:.\Generated_Source\PSoC4/BLE.c ****                 {
 112              		.loc 1 1072 0 discriminator 4
 113 004c 0132     		add	r2, r2, #1
 114              	.LVL18:
ARM GAS  C:\Users\Helon\AppData\Local\Temp\cczBwqra.s 			page 22


 115 004e D2B2     		uxtb	r2, r2
 116              	.LVL19:
 117              	.L9:
1072:.\Generated_Source\PSoC4/BLE.c ****                 {
 118              		.loc 1 1072 0 is_stmt 0 discriminator 1
 119 0050 8A42     		cmp	r2, r1
 120 0052 09D2     		bcs	.L12
1072:.\Generated_Source\PSoC4/BLE.c ****                 {
 121              		.loc 1 1072 0 discriminator 3
 122 0054 D51A     		sub	r5, r2, r3
 123 0056 455D     		ldrb	r5, [r0, r5]
 124 0058 002D     		cmp	r5, #0
 125 005a F6D1     		bne	.L11
 126 005c 04E0     		b	.L12
 127              	.LVL20:
 128              	.L13:
1075:.\Generated_Source\PSoC4/BLE.c ****                 }
1076:.\Generated_Source\PSoC4/BLE.c ****                 
1077:.\Generated_Source\PSoC4/BLE.c ****                 /* This loop handles the case when new local name is shorted than old one.
1078:.\Generated_Source\PSoC4/BLE.c ****                    In this case all remaining characters should be null characters. */
1079:.\Generated_Source\PSoC4/BLE.c ****                 while(adLength > i)
1080:.\Generated_Source\PSoC4/BLE.c ****                 {
1081:.\Generated_Source\PSoC4/BLE.c ****                     /* Terminate string */
1082:.\Generated_Source\PSoC4/BLE.c ****                     destBuffer[i] = (uint8)CYBLE_NULL_CHARCTER;
 129              		.loc 1 1082 0 is_stmt 1
 130 005e A318     		add	r3, r4, r2
 131 0060 0020     		mov	r0, #0
 132 0062 1870     		strb	r0, [r3]
1083:.\Generated_Source\PSoC4/BLE.c ****                     i++;
 133              		.loc 1 1083 0
 134 0064 0132     		add	r2, r2, #1
 135              	.LVL21:
 136 0066 D2B2     		uxtb	r2, r2
 137              	.LVL22:
 138              	.L12:
1079:.\Generated_Source\PSoC4/BLE.c ****                 {
 139              		.loc 1 1079 0
 140 0068 9142     		cmp	r1, r2
 141 006a F8D8     		bhi	.L13
 142              	.LVL23:
 143              	.L1:
1084:.\Generated_Source\PSoC4/BLE.c ****                 }
1085:.\Generated_Source\PSoC4/BLE.c ****             }
1086:.\Generated_Source\PSoC4/BLE.c ****         }
 144              		.loc 1 1086 0
 145              		@ sp needed
 146              	.LVL24:
 147              	.LVL25:
 148 006c 70BD     		pop	{r4, r5, r6, pc}
 149              	.L16:
 150 006e C046     		.align	2
 151              	.L15:
 152 0070 00000000 		.word	.LANCHOR0
 153 0074 00000000 		.word	.LANCHOR1
 154              		.cfi_endproc
 155              	.LFE13:
 156              		.size	CyBle_ChangeAdLocalName, .-CyBle_ChangeAdLocalName
ARM GAS  C:\Users\Helon\AppData\Local\Temp\cczBwqra.s 			page 23


 157              		.section	.text.CyBle_ServiceInit,"ax",%progbits
 158              		.align	2
 159              		.global	CyBle_ServiceInit
 160              		.code	16
 161              		.thumb_func
 162              		.type	CyBle_ServiceInit, %function
 163              	CyBle_ServiceInit:
 164              	.LFB3:
 225:.\Generated_Source\PSoC4/BLE.c ****     #if(CYBLE_GATT_ROLE_CLIENT)
 165              		.loc 1 225 0
 166              		.cfi_startproc
 167 0000 08B5     		push	{r3, lr}
 168              		.cfi_def_cfa_offset 8
 169              		.cfi_offset 3, -8
 170              		.cfi_offset 14, -4
 280:.\Generated_Source\PSoC4/BLE.c ****     #endif /* CYBLE_CUSTOM */
 171              		.loc 1 280 0
 172 0002 FFF7FEFF 		bl	CyBle_CustomInit
 173              	.LVL26:
 338:.\Generated_Source\PSoC4/BLE.c **** 
 174              		.loc 1 338 0
 175              		@ sp needed
 176 0006 08BD     		pop	{r3, pc}
 177              		.cfi_endproc
 178              	.LFE3:
 179              		.size	CyBle_ServiceInit, .-CyBle_ServiceInit
 180              		.section	.text.CyBle_Init,"ax",%progbits
 181              		.align	2
 182              		.global	CyBle_Init
 183              		.code	16
 184              		.thumb_func
 185              		.type	CyBle_Init, %function
 186              	CyBle_Init:
 187              	.LFB2:
 176:.\Generated_Source\PSoC4/BLE.c ****     cyBle_eventHandlerFlag = 0u;
 188              		.loc 1 176 0
 189              		.cfi_startproc
 190 0000 08B5     		push	{r3, lr}
 191              		.cfi_def_cfa_offset 8
 192              		.cfi_offset 3, -8
 193              		.cfi_offset 14, -4
 177:.\Generated_Source\PSoC4/BLE.c ****     cyBle_busyStatus = CYBLE_STACK_STATE_FREE;
 194              		.loc 1 177 0
 195 0002 0022     		mov	r2, #0
 196 0004 114B     		ldr	r3, .L19
 197 0006 1A70     		strb	r2, [r3]
 178:.\Generated_Source\PSoC4/BLE.c **** 
 198              		.loc 1 178 0
 199 0008 114B     		ldr	r3, .L19+4
 200 000a 1A70     		strb	r2, [r3]
 181:.\Generated_Source\PSoC4/BLE.c ****     #endif /* (CYBLE_GAP_ROLE_PERIPHERAL || CYBLE_GAP_ROLE_BROADCASTER)  */
 201              		.loc 1 181 0
 202 000c 114B     		ldr	r3, .L19+8
 203 000e 1A70     		strb	r2, [r3]
 184:.\Generated_Source\PSoC4/BLE.c ****     #endif /* (CYBLE_GAP_ROLE_CENTRAL || CYBLE_GAP_ROLE_OBSERVER) */
 204              		.loc 1 184 0
 205 0010 114B     		ldr	r3, .L19+12
ARM GAS  C:\Users\Helon\AppData\Local\Temp\cczBwqra.s 			page 24


 206 0012 1A70     		strb	r2, [r3]
 190:.\Generated_Source\PSoC4/BLE.c ****         cyBle_connectionParameters.scanWindow = cyBle_discoveryInfo.scanWindow;
 207              		.loc 1 190 0
 208 0014 1149     		ldr	r1, .L19+16
 209 0016 488C     		ldrh	r0, [r1, #34]
 210 0018 114B     		ldr	r3, .L19+20
 211 001a 1880     		strh	r0, [r3]
 191:.\Generated_Source\PSoC4/BLE.c ****         cyBle_connectionParameters.ownAddrType = cyBle_discoveryInfo.ownAddrType;
 212              		.loc 1 191 0
 213 001c 888C     		ldrh	r0, [r1, #36]
 214 001e 5880     		strh	r0, [r3, #2]
 192:.\Generated_Source\PSoC4/BLE.c ****         cyBle_connectionParameters.initiatorFilterPolicy = cyBle_discoveryInfo.scanFilterPolicy;
 215              		.loc 1 192 0
 216 0020 2031     		add	r1, r1, #32
 217 0022 8879     		ldrb	r0, [r1, #6]
 218 0024 1873     		strb	r0, [r3, #12]
 193:.\Generated_Source\PSoC4/BLE.c ****         cyBle_connectionParameters.connIntvMin = CYBLE_GAPC_CONNECTION_INTERVAL_MIN;
 219              		.loc 1 193 0
 220 0026 C979     		ldrb	r1, [r1, #7]
 221 0028 1971     		strb	r1, [r3, #4]
 194:.\Generated_Source\PSoC4/BLE.c ****         cyBle_connectionParameters.connIntvMax = CYBLE_GAPC_CONNECTION_INTERVAL_MAX;
 222              		.loc 1 194 0
 223 002a 0621     		mov	r1, #6
 224 002c D981     		strh	r1, [r3, #14]
 195:.\Generated_Source\PSoC4/BLE.c ****         cyBle_connectionParameters.connLatency = CYBLE_GAPC_CONNECTION_SLAVE_LATENCY;
 225              		.loc 1 195 0
 226 002e 2231     		add	r1, r1, #34
 227 0030 1982     		strh	r1, [r3, #16]
 196:.\Generated_Source\PSoC4/BLE.c ****         cyBle_connectionParameters.supervisionTO = CYBLE_GAPC_CONNECTION_TIME_OUT;
 228              		.loc 1 196 0
 229 0032 5A82     		strh	r2, [r3, #18]
 197:.\Generated_Source\PSoC4/BLE.c ****         cyBle_connectionParameters.minCeLength = 0x0000u;
 230              		.loc 1 197 0
 231 0034 FA21     		mov	r1, #250
 232 0036 8900     		lsl	r1, r1, #2
 233 0038 9982     		strh	r1, [r3, #20]
 198:.\Generated_Source\PSoC4/BLE.c ****         cyBle_connectionParameters.maxCeLength = 0xFFFFu;
 234              		.loc 1 198 0
 235 003a DA82     		strh	r2, [r3, #22]
 199:.\Generated_Source\PSoC4/BLE.c ****         
 236              		.loc 1 199 0
 237 003c 013A     		sub	r2, r2, #1
 238 003e 1A83     		strh	r2, [r3, #24]
 201:.\Generated_Source\PSoC4/BLE.c ****     #endif /* CYBLE_GAP_ROLE_CENTRAL */
 239              		.loc 1 201 0
 240 0040 1F32     		add	r2, r2, #31
 241 0042 084B     		ldr	r3, .L19+24
 242 0044 1A80     		strh	r2, [r3]
 204:.\Generated_Source\PSoC4/BLE.c **** 
 243              		.loc 1 204 0
 244 0046 FFF7FEFF 		bl	CyBle_ServiceInit
 245              	.LVL27:
 211:.\Generated_Source\PSoC4/BLE.c **** 
 246              		.loc 1 211 0
 247              		@ sp needed
 248 004a 08BD     		pop	{r3, pc}
 249              	.L20:
ARM GAS  C:\Users\Helon\AppData\Local\Temp\cczBwqra.s 			page 25


 250              		.align	2
 251              	.L19:
 252 004c 00000000 		.word	cyBle_eventHandlerFlag
 253 0050 00000000 		.word	cyBle_busyStatus
 254 0054 00000000 		.word	cyBle_advertisingIntervalType
 255 0058 00000000 		.word	cyBle_scanningIntervalType
 256 005c 00000000 		.word	.LANCHOR0
 257 0060 00000000 		.word	cyBle_connectionParameters
 258 0064 00000000 		.word	cyBle_connectingTimeout
 259              		.cfi_endproc
 260              	.LFE2:
 261              		.size	CyBle_Init, .-CyBle_Init
 262              		.section	.text.CyBle_Start,"ax",%progbits
 263              		.align	2
 264              		.global	CyBle_Start
 265              		.code	16
 266              		.thumb_func
 267              		.type	CyBle_Start, %function
 268              	CyBle_Start:
 269              	.LFB4:
 400:.\Generated_Source\PSoC4/BLE.c ****     CYBLE_API_RESULT_T apiResult = CYBLE_ERROR_OK;
 270              		.loc 1 400 0
 271              		.cfi_startproc
 272              	.LVL28:
 273 0000 10B5     		push	{r4, lr}
 274              		.cfi_def_cfa_offset 8
 275              		.cfi_offset 4, -8
 276              		.cfi_offset 14, -4
 277 0002 8AB0     		sub	sp, sp, #40
 278              		.cfi_def_cfa_offset 48
 279 0004 041C     		mov	r4, r0
 280              	.LVL29:
 405:.\Generated_Source\PSoC4/BLE.c ****     {
 281              		.loc 1 405 0
 282 0006 04A8     		add	r0, sp, #16
 283              	.LVL30:
 284 0008 1649     		ldr	r1, .L25
 285 000a 1822     		mov	r2, #24
 286 000c FFF7FEFF 		bl	memcpy
 287              	.LVL31:
 418:.\Generated_Source\PSoC4/BLE.c ****     {
 288              		.loc 1 418 0
 289 0010 2023     		mov	r3, #32
 290 0012 154A     		ldr	r2, .L25+4
 291 0014 D35C     		ldrb	r3, [r2, r3]
 292 0016 002B     		cmp	r3, #0
 293 0018 05D1     		bne	.L22
 420:.\Generated_Source\PSoC4/BLE.c ****         cyBle_initVar = 1u;
 294              		.loc 1 420 0
 295 001a FFF7FEFF 		bl	CyBle_Init
 296              	.LVL32:
 421:.\Generated_Source\PSoC4/BLE.c ****     }
 297              		.loc 1 421 0
 298 001e 0121     		mov	r1, #1
 299 0020 2023     		mov	r3, #32
 300 0022 114A     		ldr	r2, .L25+4
 301 0024 D154     		strb	r1, [r2, r3]
ARM GAS  C:\Users\Helon\AppData\Local\Temp\cczBwqra.s 			page 26


 302              	.L22:
 424:.\Generated_Source\PSoC4/BLE.c ****     {
 303              		.loc 1 424 0
 304 0026 002C     		cmp	r4, #0
 305 0028 19D0     		beq	.L24
 438:.\Generated_Source\PSoC4/BLE.c ****             
 306              		.loc 1 438 0
 307 002a 104B     		ldr	r3, .L25+8
 308 002c 1C60     		str	r4, [r3]
 441:.\Generated_Source\PSoC4/BLE.c ****                 cyBle_stackDataBuff, CYBLE_STACK_BUF_COUNT, cyBle_flashStorage.stackFlashptr, CYBLE
 309              		.loc 1 441 0
 310 002e 0623     		mov	r3, #6
 311 0030 0093     		str	r3, [sp]
 312 0032 0F4B     		ldr	r3, .L25+12
 313 0034 0193     		str	r3, [sp, #4]
 314 0036 6E23     		mov	r3, #110
 315 0038 FF33     		add	r3, r3, #255
 316 003a 0293     		str	r3, [sp, #8]
 317 003c 0D48     		ldr	r0, .L25+16
 318 003e 0E49     		ldr	r1, .L25+20
 319 0040 0E4A     		ldr	r2, .L25+24
 320 0042 04AB     		add	r3, sp, #16
 321 0044 FFF7FEFF 		bl	CyBle_StackInit
 322              	.LVL33:
 448:.\Generated_Source\PSoC4/BLE.c ****             {
 323              		.loc 1 448 0
 324 0048 0028     		cmp	r0, #0
 325 004a 09D1     		bne	.L23
 450:.\Generated_Source\PSoC4/BLE.c ****                 
 326              		.loc 1 450 0
 327 004c 0122     		mov	r2, #1
 328 004e 0C4B     		ldr	r3, .L25+28
 329 0050 1A70     		strb	r2, [r3]
 457:.\Generated_Source\PSoC4/BLE.c ****             #endif /* CYBLE_GATT_ROLE_SERVER */
 330              		.loc 1 457 0
 331 0052 0C48     		ldr	r0, .L25+32
 332              	.LVL34:
 333 0054 1121     		mov	r1, #17
 334 0056 3132     		add	r2, r2, #49
 335 0058 FFF7FEFF 		bl	CyBle_GattsDbRegister
 336              	.LVL35:
 337 005c 00E0     		b	.L23
 338              	.LVL36:
 339              	.L24:
 464:.\Generated_Source\PSoC4/BLE.c ****     }
 340              		.loc 1 464 0
 341 005e 0120     		mov	r0, #1
 342              	.LVL37:
 343              	.L23:
 468:.\Generated_Source\PSoC4/BLE.c **** 
 344              		.loc 1 468 0
 345 0060 0AB0     		add	sp, sp, #40
 346              		@ sp needed
 347              	.LVL38:
 348 0062 10BD     		pop	{r4, pc}
 349              	.L26:
 350              		.align	2
ARM GAS  C:\Users\Helon\AppData\Local\Temp\cczBwqra.s 			page 27


 351              	.L25:
 352 0064 00000000 		.word	.LANCHOR2
 353 0068 00000000 		.word	.LANCHOR1
 354 006c 00000000 		.word	CyBle_ApplCallback
 355 0070 00000000 		.word	cyBle_flashStorage
 356 0074 00000000 		.word	CyBle_EventHandler
 357 0078 00000000 		.word	cyBle_stackMemoryRam
 358 007c A4100000 		.word	4260
 359 0080 00000000 		.word	cyBle_state
 360 0084 00000000 		.word	cyBle_gattDB
 361              		.cfi_endproc
 362              	.LFE4:
 363              		.size	CyBle_Start, .-CyBle_Start
 364              		.section	.text.CyBle_Stop,"ax",%progbits
 365              		.align	2
 366              		.global	CyBle_Stop
 367              		.code	16
 368              		.thumb_func
 369              		.type	CyBle_Stop, %function
 370              	CyBle_Stop:
 371              	.LFB5:
 484:.\Generated_Source\PSoC4/BLE.c ****     CyBle_Shutdown();                         /* Stop all ongoing activities */
 372              		.loc 1 484 0
 373              		.cfi_startproc
 374 0000 08B5     		push	{r3, lr}
 375              		.cfi_def_cfa_offset 8
 376              		.cfi_offset 3, -8
 377              		.cfi_offset 14, -4
 485:.\Generated_Source\PSoC4/BLE.c ****     CyBle_SetState(CYBLE_STATE_STOPPED);
 378              		.loc 1 485 0
 379 0002 FFF7FEFF 		bl	CyBle_Shutdown
 380              	.LVL39:
 486:.\Generated_Source\PSoC4/BLE.c ****     #if(CYBLE_SHARING_MODE_EXPORT)
 381              		.loc 1 486 0
 382 0006 0022     		mov	r2, #0
 383 0008 014B     		ldr	r3, .L28
 384 000a 1A70     		strb	r2, [r3]
 493:.\Generated_Source\PSoC4/BLE.c **** 
 385              		.loc 1 493 0
 386              		@ sp needed
 387 000c 08BD     		pop	{r3, pc}
 388              	.L29:
 389 000e C046     		.align	2
 390              	.L28:
 391 0010 00000000 		.word	cyBle_state
 392              		.cfi_endproc
 393              	.LFE5:
 394              		.size	CyBle_Stop, .-CyBle_Stop
 395              		.section	.text.CyBle_GappStartAdvertisement,"ax",%progbits
 396              		.align	2
 397              		.global	CyBle_GappStartAdvertisement
 398              		.code	16
 399              		.thumb_func
 400              		.type	CyBle_GappStartAdvertisement, %function
 401              	CyBle_GappStartAdvertisement:
 402              	.LFB6:
 625:.\Generated_Source\PSoC4/BLE.c ****         CYBLE_API_RESULT_T apiResult;
ARM GAS  C:\Users\Helon\AppData\Local\Temp\cczBwqra.s 			page 28


 403              		.loc 1 625 0
 404              		.cfi_startproc
 405              	.LVL40:
 406 0000 08B5     		push	{r3, lr}
 407              		.cfi_def_cfa_offset 8
 408              		.cfi_offset 3, -8
 409              		.cfi_offset 14, -4
 628:.\Generated_Source\PSoC4/BLE.c ****         {
 410              		.loc 1 628 0
 411 0002 0228     		cmp	r0, #2
 412 0004 2DD8     		bhi	.L34
 632:.\Generated_Source\PSoC4/BLE.c ****         {   
 413              		.loc 1 632 0
 414 0006 1B4B     		ldr	r3, .L37
 415 0008 1B78     		ldrb	r3, [r3]
 416 000a 062B     		cmp	r3, #6
 417 000c 2BD1     		bne	.L35
 632:.\Generated_Source\PSoC4/BLE.c ****         {   
 418              		.loc 1 632 0 is_stmt 0 discriminator 1
 419 000e 1A4B     		ldr	r3, .L37+4
 420 0010 1B78     		ldrb	r3, [r3]
 421 0012 5B07     		lsl	r3, r3, #29
 422 0014 2AD4     		bmi	.L36
 634:.\Generated_Source\PSoC4/BLE.c ****             {
 423              		.loc 1 634 0 is_stmt 1
 424 0016 0028     		cmp	r0, #0
 425 0018 08D1     		bne	.L32
 636:.\Generated_Source\PSoC4/BLE.c ****                 cyBle_discoveryModeInfo.advParam->advIntvMin = CYBLE_FAST_ADV_INT_MIN;
 426              		.loc 1 636 0
 427 001a 184B     		ldr	r3, .L37+8
 428 001c 1E22     		mov	r2, #30
 429 001e 9A87     		strh	r2, [r3, #60]
 637:.\Generated_Source\PSoC4/BLE.c ****                 cyBle_discoveryModeInfo.advParam->advIntvMax = CYBLE_FAST_ADV_INT_MAX;
 430              		.loc 1 637 0
 431 0020 0232     		add	r2, r2, #2
 432 0022 196B     		ldr	r1, [r3, #48]
 433 0024 0A80     		strh	r2, [r1]
 638:.\Generated_Source\PSoC4/BLE.c ****             }
 434              		.loc 1 638 0
 435 0026 1B6B     		ldr	r3, [r3, #48]
 436 0028 5A80     		strh	r2, [r3, #2]
 437 002a 0CE0     		b	.L33
 438              	.L32:
 640:.\Generated_Source\PSoC4/BLE.c ****             {
 439              		.loc 1 640 0
 440 002c 0128     		cmp	r0, #1
 441 002e 0AD1     		bne	.L33
 642:.\Generated_Source\PSoC4/BLE.c ****                 cyBle_discoveryModeInfo.advParam->advIntvMin = CYBLE_SLOW_ADV_INT_MIN;
 442              		.loc 1 642 0
 443 0030 124B     		ldr	r3, .L37+8
 444 0032 9622     		mov	r2, #150
 445 0034 9A87     		strh	r2, [r3, #60]
 643:.\Generated_Source\PSoC4/BLE.c ****                 cyBle_discoveryModeInfo.advParam->advIntvMax = CYBLE_SLOW_ADV_INT_MAX;
 446              		.loc 1 643 0
 447 0036 C822     		mov	r2, #200
 448 0038 D200     		lsl	r2, r2, #3
 449 003a 196B     		ldr	r1, [r3, #48]
ARM GAS  C:\Users\Helon\AppData\Local\Temp\cczBwqra.s 			page 29


 450 003c 0A80     		strh	r2, [r1]
 644:.\Generated_Source\PSoC4/BLE.c ****             }       
 451              		.loc 1 644 0
 452 003e 1B6B     		ldr	r3, [r3, #48]
 453 0040 8022     		mov	r2, #128
 454 0042 D201     		lsl	r2, r2, #7
 455 0044 5A80     		strh	r2, [r3, #2]
 456              	.L33:
 649:.\Generated_Source\PSoC4/BLE.c ****             apiResult = CyBle_GappEnterDiscoveryMode(&cyBle_discoveryModeInfo);
 457              		.loc 1 649 0
 458 0046 0E4B     		ldr	r3, .L37+12
 459 0048 1870     		strb	r0, [r3]
 650:.\Generated_Source\PSoC4/BLE.c ****         
 460              		.loc 1 650 0
 461 004a 0C48     		ldr	r0, .L37+8
 462              	.LVL41:
 463 004c 2C30     		add	r0, r0, #44
 464 004e FFF7FEFF 		bl	CyBle_GappEnterDiscoveryMode
 465              	.LVL42:
 652:.\Generated_Source\PSoC4/BLE.c ****             {
 466              		.loc 1 652 0
 467 0052 0028     		cmp	r0, #0
 468 0054 0CD1     		bne	.L31
 654:.\Generated_Source\PSoC4/BLE.c ****             }
 469              		.loc 1 654 0
 470 0056 084A     		ldr	r2, .L37+4
 471 0058 1178     		ldrb	r1, [r2]
 472 005a 0423     		mov	r3, #4
 473 005c 0B43     		orr	r3, r1
 474 005e 1370     		strb	r3, [r2]
 475 0060 06E0     		b	.L31
 476              	.LVL43:
 477              	.L34:
 630:.\Generated_Source\PSoC4/BLE.c ****         }
 478              		.loc 1 630 0
 479 0062 0120     		mov	r0, #1
 480              	.LVL44:
 481 0064 04E0     		b	.L31
 482              	.LVL45:
 483              	.L35:
 659:.\Generated_Source\PSoC4/BLE.c ****         }
 484              		.loc 1 659 0
 485 0066 0420     		mov	r0, #4
 486              	.LVL46:
 487 0068 FF30     		add	r0, r0, #255
 488 006a 01E0     		b	.L31
 489              	.LVL47:
 490              	.L36:
 491 006c 0420     		mov	r0, #4
 492              	.LVL48:
 493 006e FF30     		add	r0, r0, #255
 494              	.L31:
 495              	.LVL49:
 663:.\Generated_Source\PSoC4/BLE.c **** 
 496              		.loc 1 663 0
 497              		@ sp needed
 498 0070 08BD     		pop	{r3, pc}
ARM GAS  C:\Users\Helon\AppData\Local\Temp\cczBwqra.s 			page 30


 499              	.L38:
 500 0072 C046     		.align	2
 501              	.L37:
 502 0074 00000000 		.word	cyBle_state
 503 0078 00000000 		.word	cyBle_eventHandlerFlag
 504 007c 00000000 		.word	.LANCHOR0
 505 0080 00000000 		.word	cyBle_advertisingIntervalType
 506              		.cfi_endproc
 507              	.LFE6:
 508              		.size	CyBle_GappStartAdvertisement, .-CyBle_GappStartAdvertisement
 509              		.section	.text.CyBle_GappStopAdvertisement,"ax",%progbits
 510              		.align	2
 511              		.global	CyBle_GappStopAdvertisement
 512              		.code	16
 513              		.thumb_func
 514              		.type	CyBle_GappStopAdvertisement, %function
 515              	CyBle_GappStopAdvertisement:
 516              	.LFB7:
 686:.\Generated_Source\PSoC4/BLE.c ****         CyBle_GappExitDiscoveryMode();
 517              		.loc 1 686 0
 518              		.cfi_startproc
 519 0000 08B5     		push	{r3, lr}
 520              		.cfi_def_cfa_offset 8
 521              		.cfi_offset 3, -8
 522              		.cfi_offset 14, -4
 687:.\Generated_Source\PSoC4/BLE.c ****         cyBle_eventHandlerFlag |= CYBLE_STOP_FLAG;
 523              		.loc 1 687 0
 524 0002 FFF7FEFF 		bl	CyBle_GappExitDiscoveryMode
 525              	.LVL50:
 688:.\Generated_Source\PSoC4/BLE.c ****     }
 526              		.loc 1 688 0
 527 0006 034A     		ldr	r2, .L40
 528 0008 1178     		ldrb	r1, [r2]
 529 000a 0823     		mov	r3, #8
 530 000c 0B43     		orr	r3, r1
 531 000e 1370     		strb	r3, [r2]
 689:.\Generated_Source\PSoC4/BLE.c ****     
 532              		.loc 1 689 0
 533              		@ sp needed
 534 0010 08BD     		pop	{r3, pc}
 535              	.L41:
 536 0012 C046     		.align	2
 537              	.L40:
 538 0014 00000000 		.word	cyBle_eventHandlerFlag
 539              		.cfi_endproc
 540              	.LFE7:
 541              		.size	CyBle_GappStopAdvertisement, .-CyBle_GappStopAdvertisement
 542              		.section	.text.CyBle_ChangeAdDeviceAddress,"ax",%progbits
 543              		.align	2
 544              		.global	CyBle_ChangeAdDeviceAddress
 545              		.code	16
 546              		.thumb_func
 547              		.type	CyBle_ChangeAdDeviceAddress, %function
 548              	CyBle_ChangeAdDeviceAddress:
 549              	.LFB8:
 708:.\Generated_Source\PSoC4/BLE.c ****         uint8 i;
 550              		.loc 1 708 0
ARM GAS  C:\Users\Helon\AppData\Local\Temp\cczBwqra.s 			page 31


 551              		.cfi_startproc
 552              	.LVL51:
 735:.\Generated_Source\PSoC4/BLE.c ****   
 553              		.loc 1 735 0
 554              		@ sp needed
 555 0000 7047     		bx	lr
 556              		.cfi_endproc
 557              	.LFE8:
 558              		.size	CyBle_ChangeAdDeviceAddress, .-CyBle_ChangeAdDeviceAddress
 559 0002 C046     		.section	.text.CyBle_GapcStartScan,"ax",%progbits
 560              		.align	2
 561              		.global	CyBle_GapcStartScan
 562              		.code	16
 563              		.thumb_func
 564              		.type	CyBle_GapcStartScan, %function
 565              	CyBle_GapcStartScan:
 566              	.LFB9:
 814:.\Generated_Source\PSoC4/BLE.c ****         CYBLE_API_RESULT_T apiResult;
 567              		.loc 1 814 0
 568              		.cfi_startproc
 569              	.LVL52:
 570 0000 08B5     		push	{r3, lr}
 571              		.cfi_def_cfa_offset 8
 572              		.cfi_offset 3, -8
 573              		.cfi_offset 14, -4
 817:.\Generated_Source\PSoC4/BLE.c ****         {
 574              		.loc 1 817 0
 575 0002 0228     		cmp	r0, #2
 576 0004 20D8     		bhi	.L47
 823:.\Generated_Source\PSoC4/BLE.c ****             {
 577              		.loc 1 823 0
 578 0006 0028     		cmp	r0, #0
 579 0008 06D1     		bne	.L45
 825:.\Generated_Source\PSoC4/BLE.c ****                 cyBle_discoveryInfo.scanIntv = CYBLE_FAST_SCAN_INTERVAL;
 580              		.loc 1 825 0
 581 000a 104B     		ldr	r3, .L48
 582 000c 0A22     		mov	r2, #10
 583 000e 1A85     		strh	r2, [r3, #40]
 826:.\Generated_Source\PSoC4/BLE.c ****                 cyBle_discoveryInfo.scanWindow = CYBLE_FAST_SCAN_WINDOW;
 584              		.loc 1 826 0
 585 0010 2632     		add	r2, r2, #38
 586 0012 5A84     		strh	r2, [r3, #34]
 827:.\Generated_Source\PSoC4/BLE.c ****             }
 587              		.loc 1 827 0
 588 0014 9A84     		strh	r2, [r3, #36]
 589 0016 09E0     		b	.L46
 590              	.L45:
 829:.\Generated_Source\PSoC4/BLE.c ****             {
 591              		.loc 1 829 0
 592 0018 0128     		cmp	r0, #1
 593 001a 07D1     		bne	.L46
 831:.\Generated_Source\PSoC4/BLE.c ****                 cyBle_discoveryInfo.scanIntv = CYBLE_SLOW_SCAN_INTERVAL;
 594              		.loc 1 831 0
 595 001c 0B4B     		ldr	r3, .L48
 596 001e 9622     		mov	r2, #150
 597 0020 1A85     		strh	r2, [r3, #40]
 832:.\Generated_Source\PSoC4/BLE.c ****                 cyBle_discoveryInfo.scanWindow = CYBLE_SLOW_SCAN_WINDOW;
ARM GAS  C:\Users\Helon\AppData\Local\Temp\cczBwqra.s 			page 32


 598              		.loc 1 832 0
 599 0022 8022     		mov	r2, #128
 600 0024 1201     		lsl	r2, r2, #4
 601 0026 5A84     		strh	r2, [r3, #34]
 833:.\Generated_Source\PSoC4/BLE.c ****             }       
 602              		.loc 1 833 0
 603 0028 F83A     		sub	r2, r2, #248
 604 002a 9A84     		strh	r2, [r3, #36]
 605              	.L46:
 839:.\Generated_Source\PSoC4/BLE.c ****             apiResult = CyBle_GapcStartDiscovery(&cyBle_discoveryInfo);
 606              		.loc 1 839 0
 607 002c 084B     		ldr	r3, .L48+4
 608 002e 1870     		strb	r0, [r3]
 840:.\Generated_Source\PSoC4/BLE.c ****         
 609              		.loc 1 840 0
 610 0030 0648     		ldr	r0, .L48
 611              	.LVL53:
 612 0032 2030     		add	r0, r0, #32
 613 0034 FFF7FEFF 		bl	CyBle_GapcStartDiscovery
 614              	.LVL54:
 842:.\Generated_Source\PSoC4/BLE.c ****             {
 615              		.loc 1 842 0
 616 0038 0028     		cmp	r0, #0
 617 003a 06D1     		bne	.L44
 844:.\Generated_Source\PSoC4/BLE.c ****             }
 618              		.loc 1 844 0
 619 003c 054A     		ldr	r2, .L48+8
 620 003e 1178     		ldrb	r1, [r2]
 621 0040 0423     		mov	r3, #4
 622 0042 0B43     		orr	r3, r1
 623 0044 1370     		strb	r3, [r2]
 624 0046 00E0     		b	.L44
 625              	.LVL55:
 626              	.L47:
 819:.\Generated_Source\PSoC4/BLE.c ****         }
 627              		.loc 1 819 0
 628 0048 0120     		mov	r0, #1
 629              	.LVL56:
 630              	.L44:
 849:.\Generated_Source\PSoC4/BLE.c ****     
 631              		.loc 1 849 0
 632              		@ sp needed
 633 004a 08BD     		pop	{r3, pc}
 634              	.L49:
 635              		.align	2
 636              	.L48:
 637 004c 00000000 		.word	.LANCHOR0
 638 0050 00000000 		.word	cyBle_scanningIntervalType
 639 0054 00000000 		.word	cyBle_eventHandlerFlag
 640              		.cfi_endproc
 641              	.LFE9:
 642              		.size	CyBle_GapcStartScan, .-CyBle_GapcStartScan
 643              		.section	.text.CyBle_GapcStopScan,"ax",%progbits
 644              		.align	2
 645              		.global	CyBle_GapcStopScan
 646              		.code	16
 647              		.thumb_func
ARM GAS  C:\Users\Helon\AppData\Local\Temp\cczBwqra.s 			page 33


 648              		.type	CyBle_GapcStopScan, %function
 649              	CyBle_GapcStopScan:
 650              	.LFB10:
 870:.\Generated_Source\PSoC4/BLE.c ****         CyBle_GapcStopDiscovery();
 651              		.loc 1 870 0
 652              		.cfi_startproc
 653 0000 08B5     		push	{r3, lr}
 654              		.cfi_def_cfa_offset 8
 655              		.cfi_offset 3, -8
 656              		.cfi_offset 14, -4
 871:.\Generated_Source\PSoC4/BLE.c ****         
 657              		.loc 1 871 0
 658 0002 FFF7FEFF 		bl	CyBle_GapcStopDiscovery
 659              	.LVL57:
 873:.\Generated_Source\PSoC4/BLE.c ****     }
 660              		.loc 1 873 0
 661 0006 034A     		ldr	r2, .L51
 662 0008 1178     		ldrb	r1, [r2]
 663 000a 0823     		mov	r3, #8
 664 000c 0B43     		orr	r3, r1
 665 000e 1370     		strb	r3, [r2]
 874:.\Generated_Source\PSoC4/BLE.c **** 
 666              		.loc 1 874 0
 667              		@ sp needed
 668 0010 08BD     		pop	{r3, pc}
 669              	.L52:
 670 0012 C046     		.align	2
 671              	.L51:
 672 0014 00000000 		.word	cyBle_eventHandlerFlag
 673              		.cfi_endproc
 674              	.LFE10:
 675              		.size	CyBle_GapcStopScan, .-CyBle_GapcStopScan
 676              		.section	.text.CyBle_GapcConnectDevice,"ax",%progbits
 677              		.align	2
 678              		.global	CyBle_GapcConnectDevice
 679              		.code	16
 680              		.thumb_func
 681              		.type	CyBle_GapcConnectDevice, %function
 682              	CyBle_GapcConnectDevice:
 683              	.LFB11:
 920:.\Generated_Source\PSoC4/BLE.c ****         CYBLE_API_RESULT_T apiResult;
 684              		.loc 1 920 0
 685              		.cfi_startproc
 686              	.LVL58:
 687 0000 10B5     		push	{r4, lr}
 688              		.cfi_def_cfa_offset 8
 689              		.cfi_offset 4, -8
 690              		.cfi_offset 14, -4
 924:.\Generated_Source\PSoC4/BLE.c ****         {
 691              		.loc 1 924 0
 692 0002 134B     		ldr	r3, .L59
 693 0004 1B78     		ldrb	r3, [r3]
 694 0006 062B     		cmp	r3, #6
 695 0008 1CD1     		bne	.L57
 928:.\Generated_Source\PSoC4/BLE.c ****         {
 696              		.loc 1 928 0
 697 000a 0028     		cmp	r0, #0
ARM GAS  C:\Users\Helon\AppData\Local\Temp\cczBwqra.s 			page 34


 698 000c 1DD0     		beq	.L58
 699 000e 0023     		mov	r3, #0
 700 0010 05E0     		b	.L55
 701              	.LVL59:
 702              	.L56:
 936:.\Generated_Source\PSoC4/BLE.c ****             }
 703              		.loc 1 936 0 discriminator 3
 704 0012 C15C     		ldrb	r1, [r0, r3]
 705 0014 0F4A     		ldr	r2, .L59+4
 706 0016 D218     		add	r2, r2, r3
 707 0018 5171     		strb	r1, [r2, #5]
 934:.\Generated_Source\PSoC4/BLE.c ****             {
 708              		.loc 1 934 0 discriminator 3
 709 001a 0133     		add	r3, r3, #1
 710              	.LVL60:
 711 001c DBB2     		uxtb	r3, r3
 712              	.LVL61:
 713              	.L55:
 934:.\Generated_Source\PSoC4/BLE.c ****             {
 714              		.loc 1 934 0 is_stmt 0 discriminator 1
 715 001e 052B     		cmp	r3, #5
 716 0020 F7D9     		bls	.L56
 938:.\Generated_Source\PSoC4/BLE.c ****             apiResult = CyBle_GapcInitConnection(&cyBle_connectionParameters);
 717              		.loc 1 938 0 is_stmt 1
 718 0022 8379     		ldrb	r3, [r0, #6]
 719              	.LVL62:
 720 0024 0B48     		ldr	r0, .L59+4
 721              	.LVL63:
 722 0026 C372     		strb	r3, [r0, #11]
 939:.\Generated_Source\PSoC4/BLE.c ****             
 723              		.loc 1 939 0
 724 0028 FFF7FEFF 		bl	CyBle_GapcInitConnection
 725              	.LVL64:
 726 002c 041E     		sub	r4, r0, #0
 727              	.LVL65:
 941:.\Generated_Source\PSoC4/BLE.c ****             {
 728              		.loc 1 941 0
 729 002e 0DD1     		bne	.L54
 943:.\Generated_Source\PSoC4/BLE.c ****                 if(cyBle_connectingTimeout != 0u)
 730              		.loc 1 943 0
 731 0030 0522     		mov	r2, #5
 732 0032 074B     		ldr	r3, .L59
 733 0034 1A70     		strb	r2, [r3]
 944:.\Generated_Source\PSoC4/BLE.c ****                 {
 734              		.loc 1 944 0
 735 0036 084B     		ldr	r3, .L59+8
 736 0038 1888     		ldrh	r0, [r3]
 737              	.LVL66:
 738 003a 0028     		cmp	r0, #0
 739 003c 06D0     		beq	.L54
 946:.\Generated_Source\PSoC4/BLE.c ****                 }
 740              		.loc 1 946 0
 741 003e FFF7FEFF 		bl	CyBle_StartTimer
 742              	.LVL67:
 743 0042 03E0     		b	.L54
 744              	.LVL68:
 745              	.L57:
ARM GAS  C:\Users\Helon\AppData\Local\Temp\cczBwqra.s 			page 35


 926:.\Generated_Source\PSoC4/BLE.c ****         }
 746              		.loc 1 926 0
 747 0044 0424     		mov	r4, #4
 748 0046 FF34     		add	r4, r4, #255
 749 0048 00E0     		b	.L54
 750              	.L58:
 930:.\Generated_Source\PSoC4/BLE.c ****         }
 751              		.loc 1 930 0
 752 004a 0124     		mov	r4, #1
 753              	.LVL69:
 754              	.L54:
 951:.\Generated_Source\PSoC4/BLE.c ****     
 755              		.loc 1 951 0
 756 004c 201C     		mov	r0, r4
 757              		@ sp needed
 758              	.LVL70:
 759 004e 10BD     		pop	{r4, pc}
 760              	.L60:
 761              		.align	2
 762              	.L59:
 763 0050 00000000 		.word	cyBle_state
 764 0054 00000000 		.word	cyBle_connectionParameters
 765 0058 00000000 		.word	cyBle_connectingTimeout
 766              		.cfi_endproc
 767              	.LFE11:
 768              		.size	CyBle_GapcConnectDevice, .-CyBle_GapcConnectDevice
 769              		.section	.text.CyBle_GapcCancelDeviceConnection,"ax",%progbits
 770              		.align	2
 771              		.global	CyBle_GapcCancelDeviceConnection
 772              		.code	16
 773              		.thumb_func
 774              		.type	CyBle_GapcCancelDeviceConnection, %function
 775              	CyBle_GapcCancelDeviceConnection:
 776              	.LFB12:
 976:.\Generated_Source\PSoC4/BLE.c ****         CYBLE_API_RESULT_T apiResult;
 777              		.loc 1 976 0
 778              		.cfi_startproc
 779 0000 38B5     		push	{r3, r4, r5, lr}
 780              		.cfi_def_cfa_offset 16
 781              		.cfi_offset 3, -16
 782              		.cfi_offset 4, -12
 783              		.cfi_offset 5, -8
 784              		.cfi_offset 14, -4
 979:.\Generated_Source\PSoC4/BLE.c ****             
 785              		.loc 1 979 0
 786 0002 FFF7FEFF 		bl	CyBle_GapcCancelConnection
 787              	.LVL71:
 788 0006 041C     		mov	r4, r0
 789 0008 051C     		mov	r5, r0
 790              	.LVL72:
 981:.\Generated_Source\PSoC4/BLE.c ****         {
 791              		.loc 1 981 0
 792 000a 064B     		ldr	r3, .L64
 793 000c 1B88     		ldrh	r3, [r3]
 794 000e 002B     		cmp	r3, #0
 795 0010 01D0     		beq	.L62
 983:.\Generated_Source\PSoC4/BLE.c ****         }
ARM GAS  C:\Users\Helon\AppData\Local\Temp\cczBwqra.s 			page 36


 796              		.loc 1 983 0
 797 0012 FFF7FEFF 		bl	CyBle_StopTimer
 798              	.LVL73:
 799              	.L62:
 986:.\Generated_Source\PSoC4/BLE.c ****         {
 800              		.loc 1 986 0
 801 0016 002D     		cmp	r5, #0
 802 0018 02D1     		bne	.L63
 988:.\Generated_Source\PSoC4/BLE.c ****         }
 803              		.loc 1 988 0
 804 001a 0622     		mov	r2, #6
 805 001c 024B     		ldr	r3, .L64+4
 806 001e 1A70     		strb	r2, [r3]
 807              	.L63:
 991:.\Generated_Source\PSoC4/BLE.c **** 
 808              		.loc 1 991 0
 809 0020 201C     		mov	r0, r4
 810              		@ sp needed
 811              	.LVL74:
 812 0022 38BD     		pop	{r3, r4, r5, pc}
 813              	.L65:
 814              		.align	2
 815              	.L64:
 816 0024 00000000 		.word	cyBle_connectingTimeout
 817 0028 00000000 		.word	cyBle_state
 818              		.cfi_endproc
 819              	.LFE12:
 820              		.size	CyBle_GapcCancelDeviceConnection, .-CyBle_GapcCancelDeviceConnection
 821              		.section	.text.CyBle_GapSetLocalName,"ax",%progbits
 822              		.align	2
 823              		.global	CyBle_GapSetLocalName
 824              		.code	16
 825              		.thumb_func
 826              		.type	CyBle_GapSetLocalName, %function
 827              	CyBle_GapSetLocalName:
 828              	.LFB14:
1087:.\Generated_Source\PSoC4/BLE.c ****         
1088:.\Generated_Source\PSoC4/BLE.c **** #endif /* (CYBLE_GAP_ROLE_PERIPHERAL) */  
1089:.\Generated_Source\PSoC4/BLE.c ****     
1090:.\Generated_Source\PSoC4/BLE.c ****     
1091:.\Generated_Source\PSoC4/BLE.c ****     /******************************************************************************
1092:.\Generated_Source\PSoC4/BLE.c ****     * Function Name: CyBle_GapSetLocalName
1093:.\Generated_Source\PSoC4/BLE.c ****     ***************************************************************************//**
1094:.\Generated_Source\PSoC4/BLE.c ****     *  This API is used to set the local device name - a Characteristic of the 
1095:.\Generated_Source\PSoC4/BLE.c ****     *  GAP Service. If the characteristic length entered in the component customizer
1096:.\Generated_Source\PSoC4/BLE.c ****     *  is shorter than the string specified by the "name" parameter, the local device
1097:.\Generated_Source\PSoC4/BLE.c ****     *  name will be cut to the length specified in the customizer.
1098:.\Generated_Source\PSoC4/BLE.c ****     * 
1099:.\Generated_Source\PSoC4/BLE.c ****     *  \param name: The local device name string. The name string to be written as
1100:.\Generated_Source\PSoC4/BLE.c ****     *              the local device name. It represents a UTF-8 encoded User
1101:.\Generated_Source\PSoC4/BLE.c ****     *              Friendly Descriptive Name for the device. The length of the local
1102:.\Generated_Source\PSoC4/BLE.c ****     *              device string is entered into the component customizer and it can
1103:.\Generated_Source\PSoC4/BLE.c ****     *              be set to a value from 0 to 248 bytes. If the name contained in
1104:.\Generated_Source\PSoC4/BLE.c ****     *              the parameter is shorter than the length from the customizer, the
1105:.\Generated_Source\PSoC4/BLE.c ****     *              end of the name is indicated by a NULL octet (0x00).
1106:.\Generated_Source\PSoC4/BLE.c ****     * 
1107:.\Generated_Source\PSoC4/BLE.c ****     * \return
ARM GAS  C:\Users\Helon\AppData\Local\Temp\cczBwqra.s 			page 37


1108:.\Generated_Source\PSoC4/BLE.c ****     *  CYBLE_API_RESULT_T : Return value indicates if the function succeeded or 
1109:.\Generated_Source\PSoC4/BLE.c ****     *  failed. Following are the possible error codes.
1110:.\Generated_Source\PSoC4/BLE.c ****     *
1111:.\Generated_Source\PSoC4/BLE.c ****     *   Errors codes                       | Description
1112:.\Generated_Source\PSoC4/BLE.c ****     *   ------------                       | -----------
1113:.\Generated_Source\PSoC4/BLE.c ****     *   CYBLE_ERROR_OK                     | Function completed successfully.
1114:.\Generated_Source\PSoC4/BLE.c ****     *   CYBLE_ERROR_INVALID_PARAMETER      | On specifying NULL as input parameter
1115:.\Generated_Source\PSoC4/BLE.c ****     *  
1116:.\Generated_Source\PSoC4/BLE.c ****     *******************************************************************************/
1117:.\Generated_Source\PSoC4/BLE.c ****     CYBLE_API_RESULT_T CyBle_GapSetLocalName(const char8 name[])
1118:.\Generated_Source\PSoC4/BLE.c ****     {
 829              		.loc 1 1118 0
 830              		.cfi_startproc
 831              	.LVL75:
 832 0000 10B5     		push	{r4, lr}
 833              		.cfi_def_cfa_offset 8
 834              		.cfi_offset 4, -8
 835              		.cfi_offset 14, -4
 836              	.LVL76:
1119:.\Generated_Source\PSoC4/BLE.c ****         CYBLE_API_RESULT_T apiResult = CYBLE_ERROR_OK;
1120:.\Generated_Source\PSoC4/BLE.c ****         uint8 i;
1121:.\Generated_Source\PSoC4/BLE.c ****         char8 *ptr;
1122:.\Generated_Source\PSoC4/BLE.c ****         uint8 charLen;
1123:.\Generated_Source\PSoC4/BLE.c **** 
1124:.\Generated_Source\PSoC4/BLE.c ****         if(NULL != name)
 837              		.loc 1 1124 0
 838 0002 0028     		cmp	r0, #0
 839 0004 1DD0     		beq	.L72
1125:.\Generated_Source\PSoC4/BLE.c ****         {
1126:.\Generated_Source\PSoC4/BLE.c ****             /* Get the pointer to the Device Name characteristic  */
1127:.\Generated_Source\PSoC4/BLE.c ****             ptr = (char8 *) CYBLE_GATT_DB_ATTR_GET_ATTR_GEN_PTR(CYBLE_GAP_DEVICE_NAME_INDEX + 1u);
 840              		.loc 1 1127 0
 841 0006 104B     		ldr	r3, .L73
 842 0008 9A6B     		ldr	r2, [r3, #56]
 843 000a 5468     		ldr	r4, [r2, #4]
 844              	.LVL77:
1128:.\Generated_Source\PSoC4/BLE.c **** 
1129:.\Generated_Source\PSoC4/BLE.c ****             /* First need to get the maximum length of the characteristic data in the GATT
1130:.\Generated_Source\PSoC4/BLE.c ****                 database to make sure there is enough place for the data. The length
1131:.\Generated_Source\PSoC4/BLE.c ****                 can't be longer than 248, so only the LSB of 16 bit of length is to
1132:.\Generated_Source\PSoC4/BLE.c ****                 be used. */
1133:.\Generated_Source\PSoC4/BLE.c ****             charLen = (uint8)CYBLE_GATT_DB_ATTR_GET_ATTR_GEN_MAX_LEN(CYBLE_GAP_DEVICE_NAME_INDEX + 
 845              		.loc 1 1133 0
 846 000c 998E     		ldrh	r1, [r3, #52]
 847 000e C9B2     		uxtb	r1, r1
 848              	.LVL78:
1134:.\Generated_Source\PSoC4/BLE.c **** 
1135:.\Generated_Source\PSoC4/BLE.c ****             /* Copy name into characteristic */
1136:.\Generated_Source\PSoC4/BLE.c ****             for(i = 0u; ((i < charLen) && (CYBLE_NULL_CHARCTER != name[i])); i++)
 849              		.loc 1 1136 0
 850 0010 0023     		mov	r3, #0
 851 0012 02E0     		b	.L68
 852              	.LVL79:
 853              	.L70:
1137:.\Generated_Source\PSoC4/BLE.c ****             {
1138:.\Generated_Source\PSoC4/BLE.c ****                 ptr[i] = name[i];
 854              		.loc 1 1138 0 discriminator 4
ARM GAS  C:\Users\Helon\AppData\Local\Temp\cczBwqra.s 			page 38


 855 0014 E254     		strb	r2, [r4, r3]
1136:.\Generated_Source\PSoC4/BLE.c ****             {
 856              		.loc 1 1136 0 discriminator 4
 857 0016 0133     		add	r3, r3, #1
 858              	.LVL80:
 859 0018 DBB2     		uxtb	r3, r3
 860              	.LVL81:
 861              	.L68:
1136:.\Generated_Source\PSoC4/BLE.c ****             {
 862              		.loc 1 1136 0 is_stmt 0 discriminator 1
 863 001a 8B42     		cmp	r3, r1
 864 001c 02D2     		bcs	.L69
1136:.\Generated_Source\PSoC4/BLE.c ****             {
 865              		.loc 1 1136 0 discriminator 3
 866 001e C25C     		ldrb	r2, [r0, r3]
 867 0020 002A     		cmp	r2, #0
 868 0022 F7D1     		bne	.L70
 869              	.L69:
1139:.\Generated_Source\PSoC4/BLE.c ****             }
1140:.\Generated_Source\PSoC4/BLE.c **** 
1141:.\Generated_Source\PSoC4/BLE.c ****             if(i < charLen)
 870              		.loc 1 1141 0 is_stmt 1
 871 0024 8B42     		cmp	r3, r1
 872 0026 02D2     		bcs	.L71
1142:.\Generated_Source\PSoC4/BLE.c ****             {
1143:.\Generated_Source\PSoC4/BLE.c ****                 /* Terminate string */
1144:.\Generated_Source\PSoC4/BLE.c ****                 ptr[i] = CYBLE_NULL_CHARCTER;
 873              		.loc 1 1144 0
 874 0028 E318     		add	r3, r4, r3
 875              	.LVL82:
 876 002a 0022     		mov	r2, #0
 877 002c 1A70     		strb	r2, [r3]
 878              	.L71:
 879 002e 041C     		mov	r4, r0
 880              	.LVL83:
1145:.\Generated_Source\PSoC4/BLE.c ****             }
1146:.\Generated_Source\PSoC4/BLE.c ****             
1147:.\Generated_Source\PSoC4/BLE.c ****             /* Set new actual length */
1148:.\Generated_Source\PSoC4/BLE.c ****             
1149:.\Generated_Source\PSoC4/BLE.c ****             /* Update device name in advertising and scan response structure */
1150:.\Generated_Source\PSoC4/BLE.c ****             #if(CYBLE_GAP_ROLE_PERIPHERAL)
1151:.\Generated_Source\PSoC4/BLE.c ****                 CyBle_ChangeAdLocalName(name, 0u);
 881              		.loc 1 1151 0
 882 0030 0021     		mov	r1, #0
 883              	.LVL84:
 884 0032 FFF7FEFF 		bl	CyBle_ChangeAdLocalName
 885              	.LVL85:
1152:.\Generated_Source\PSoC4/BLE.c ****                 CyBle_ChangeAdLocalName(name, 1u);
 886              		.loc 1 1152 0
 887 0036 201C     		mov	r0, r4
 888 0038 0121     		mov	r1, #1
 889 003a FFF7FEFF 		bl	CyBle_ChangeAdLocalName
 890              	.LVL86:
1119:.\Generated_Source\PSoC4/BLE.c ****         uint8 i;
 891              		.loc 1 1119 0
 892 003e 0020     		mov	r0, #0
 893 0040 00E0     		b	.L67
ARM GAS  C:\Users\Helon\AppData\Local\Temp\cczBwqra.s 			page 39


 894              	.LVL87:
 895              	.L72:
1153:.\Generated_Source\PSoC4/BLE.c ****             #endif /* (CYBLE_GAP_ROLE_PERIPHERAL) */
1154:.\Generated_Source\PSoC4/BLE.c ****         }
1155:.\Generated_Source\PSoC4/BLE.c ****         else
1156:.\Generated_Source\PSoC4/BLE.c ****         {
1157:.\Generated_Source\PSoC4/BLE.c ****             apiResult = CYBLE_ERROR_INVALID_PARAMETER;
 896              		.loc 1 1157 0
 897 0042 0120     		mov	r0, #1
 898              	.LVL88:
 899              	.L67:
1158:.\Generated_Source\PSoC4/BLE.c ****         }
1159:.\Generated_Source\PSoC4/BLE.c ****         
1160:.\Generated_Source\PSoC4/BLE.c ****         return(apiResult);
1161:.\Generated_Source\PSoC4/BLE.c ****     }
 900              		.loc 1 1161 0
 901              		@ sp needed
 902 0044 10BD     		pop	{r4, pc}
 903              	.L74:
 904 0046 C046     		.align	2
 905              	.L73:
 906 0048 00000000 		.word	cyBle_gattDB
 907              		.cfi_endproc
 908              	.LFE14:
 909              		.size	CyBle_GapSetLocalName, .-CyBle_GapSetLocalName
 910              		.section	.text.CyBle_GapGetLocalName,"ax",%progbits
 911              		.align	2
 912              		.global	CyBle_GapGetLocalName
 913              		.code	16
 914              		.thumb_func
 915              		.type	CyBle_GapGetLocalName, %function
 916              	CyBle_GapGetLocalName:
 917              	.LFB15:
1162:.\Generated_Source\PSoC4/BLE.c **** 
1163:.\Generated_Source\PSoC4/BLE.c **** 
1164:.\Generated_Source\PSoC4/BLE.c ****     /******************************************************************************
1165:.\Generated_Source\PSoC4/BLE.c ****     * Function Name: CyBle_GapGetLocalName
1166:.\Generated_Source\PSoC4/BLE.c ****     ***************************************************************************//**
1167:.\Generated_Source\PSoC4/BLE.c ****     *  
1168:.\Generated_Source\PSoC4/BLE.c ****     *  This API is used to read the local device name - a Characteristic of the 
1169:.\Generated_Source\PSoC4/BLE.c ****     *  GAP Service.
1170:.\Generated_Source\PSoC4/BLE.c ****     * 
1171:.\Generated_Source\PSoC4/BLE.c ****     * \param name: The local device name string. Used to read the local name to the
1172:.\Generated_Source\PSoC4/BLE.c ****     *             given string array. It represents a UTF-8 encoded User Friendly 
1173:.\Generated_Source\PSoC4/BLE.c ****     *             Descriptive Name for the device. The length of the local device
1174:.\Generated_Source\PSoC4/BLE.c ****     *             string is entered into the component customizer and it can be set
1175:.\Generated_Source\PSoC4/BLE.c ****     *             to a value from 0 to 248 bytes. If the name contained in the
1176:.\Generated_Source\PSoC4/BLE.c ****     *             parameter is shorter than the length from the customizer, the end
1177:.\Generated_Source\PSoC4/BLE.c ****     *             of the name is indicated by a NULL octet (0x00).
1178:.\Generated_Source\PSoC4/BLE.c ****     * 
1179:.\Generated_Source\PSoC4/BLE.c ****     * \return
1180:.\Generated_Source\PSoC4/BLE.c ****     *  CYBLE_API_RESULT_T : Return value indicates if the function succeeded or 
1181:.\Generated_Source\PSoC4/BLE.c ****     *  failed. Following are the possible error codes.
1182:.\Generated_Source\PSoC4/BLE.c ****     *
1183:.\Generated_Source\PSoC4/BLE.c ****     *   Errors codes                       | Description
1184:.\Generated_Source\PSoC4/BLE.c ****     *   ------------                       | -----------
1185:.\Generated_Source\PSoC4/BLE.c ****     *   CYBLE_ERROR_OK                     | Function completed successfully.
ARM GAS  C:\Users\Helon\AppData\Local\Temp\cczBwqra.s 			page 40


1186:.\Generated_Source\PSoC4/BLE.c ****     *   CYBLE_ERROR_INVALID_PARAMETER      | On specifying NULL as input parameter
1187:.\Generated_Source\PSoC4/BLE.c ****     *
1188:.\Generated_Source\PSoC4/BLE.c ****     *******************************************************************************/
1189:.\Generated_Source\PSoC4/BLE.c ****     CYBLE_API_RESULT_T CyBle_GapGetLocalName(char8 name[])
1190:.\Generated_Source\PSoC4/BLE.c ****     {
 918              		.loc 1 1190 0
 919              		.cfi_startproc
 920              	.LVL89:
 921 0000 10B5     		push	{r4, lr}
 922              		.cfi_def_cfa_offset 8
 923              		.cfi_offset 4, -8
 924              		.cfi_offset 14, -4
 925              	.LVL90:
1191:.\Generated_Source\PSoC4/BLE.c ****         CYBLE_API_RESULT_T apiResult = CYBLE_ERROR_OK;
1192:.\Generated_Source\PSoC4/BLE.c ****         uint8 charLen;
1193:.\Generated_Source\PSoC4/BLE.c ****         uint8 i;
1194:.\Generated_Source\PSoC4/BLE.c ****         char8 *ptr;
1195:.\Generated_Source\PSoC4/BLE.c **** 
1196:.\Generated_Source\PSoC4/BLE.c ****         if(NULL != name)
 926              		.loc 1 1196 0
 927 0002 0028     		cmp	r0, #0
 928 0004 12D0     		beq	.L80
1197:.\Generated_Source\PSoC4/BLE.c ****         {
1198:.\Generated_Source\PSoC4/BLE.c ****             /* Get the pointer to the Device Name characteristic  */
1199:.\Generated_Source\PSoC4/BLE.c ****             ptr = (char8 *) CYBLE_GATT_DB_ATTR_GET_ATTR_GEN_PTR(CYBLE_GAP_DEVICE_NAME_INDEX + 1u);
 929              		.loc 1 1199 0
 930 0006 0A4B     		ldr	r3, .L81
 931 0008 9B6B     		ldr	r3, [r3, #56]
 932 000a 5C68     		ldr	r4, [r3, #4]
 933              	.LVL91:
1200:.\Generated_Source\PSoC4/BLE.c **** 
1201:.\Generated_Source\PSoC4/BLE.c ****             /* First need to get the length of the characteristic data in the GATT
1202:.\Generated_Source\PSoC4/BLE.c ****                 database to make sure there is enough place for the data. The length
1203:.\Generated_Source\PSoC4/BLE.c ****                 can't be longer than 248, so only the LSB of 16 bit of length is to
1204:.\Generated_Source\PSoC4/BLE.c ****                 be used. */
1205:.\Generated_Source\PSoC4/BLE.c ****             charLen = (uint8)CYBLE_GATT_DB_ATTR_GET_ATTR_GEN_LEN(CYBLE_GAP_DEVICE_NAME_INDEX + 1u);
 934              		.loc 1 1205 0
 935 000c 1978     		ldrb	r1, [r3]
 936              	.LVL92:
1206:.\Generated_Source\PSoC4/BLE.c **** 
1207:.\Generated_Source\PSoC4/BLE.c ****             /* Copy name from characteristic */
1208:.\Generated_Source\PSoC4/BLE.c ****             for(i = 0u; ((i < charLen) && (CYBLE_NULL_CHARCTER != ptr[i])); i++)
 937              		.loc 1 1208 0
 938 000e 0023     		mov	r3, #0
 939 0010 02E0     		b	.L77
 940              	.LVL93:
 941              	.L79:
1209:.\Generated_Source\PSoC4/BLE.c ****             {
1210:.\Generated_Source\PSoC4/BLE.c ****                 name[i] = ptr[i];
 942              		.loc 1 1210 0 discriminator 4
 943 0012 C254     		strb	r2, [r0, r3]
1208:.\Generated_Source\PSoC4/BLE.c ****             {
 944              		.loc 1 1208 0 discriminator 4
 945 0014 0133     		add	r3, r3, #1
 946              	.LVL94:
 947 0016 DBB2     		uxtb	r3, r3
 948              	.LVL95:
ARM GAS  C:\Users\Helon\AppData\Local\Temp\cczBwqra.s 			page 41


 949              	.L77:
1208:.\Generated_Source\PSoC4/BLE.c ****             {
 950              		.loc 1 1208 0 is_stmt 0 discriminator 1
 951 0018 8B42     		cmp	r3, r1
 952 001a 02D2     		bcs	.L78
1208:.\Generated_Source\PSoC4/BLE.c ****             {
 953              		.loc 1 1208 0 discriminator 3
 954 001c E25C     		ldrb	r2, [r4, r3]
 955 001e 002A     		cmp	r2, #0
 956 0020 F7D1     		bne	.L79
 957              	.L78:
1211:.\Generated_Source\PSoC4/BLE.c ****             }
1212:.\Generated_Source\PSoC4/BLE.c **** 
1213:.\Generated_Source\PSoC4/BLE.c ****             /* Terminate string */
1214:.\Generated_Source\PSoC4/BLE.c ****             name[i] = CYBLE_NULL_CHARCTER;
 958              		.loc 1 1214 0 is_stmt 1
 959 0022 C318     		add	r3, r0, r3
 960              	.LVL96:
 961 0024 0022     		mov	r2, #0
 962 0026 1A70     		strb	r2, [r3]
1191:.\Generated_Source\PSoC4/BLE.c ****         uint8 charLen;
 963              		.loc 1 1191 0
 964 0028 0020     		mov	r0, #0
 965              	.LVL97:
 966 002a 00E0     		b	.L76
 967              	.LVL98:
 968              	.L80:
1215:.\Generated_Source\PSoC4/BLE.c ****         }
1216:.\Generated_Source\PSoC4/BLE.c ****         else
1217:.\Generated_Source\PSoC4/BLE.c ****         {
1218:.\Generated_Source\PSoC4/BLE.c ****             apiResult = CYBLE_ERROR_INVALID_PARAMETER;
 969              		.loc 1 1218 0
 970 002c 0120     		mov	r0, #1
 971              	.LVL99:
 972              	.L76:
1219:.\Generated_Source\PSoC4/BLE.c ****         }
1220:.\Generated_Source\PSoC4/BLE.c ****         
1221:.\Generated_Source\PSoC4/BLE.c ****         return(apiResult);
1222:.\Generated_Source\PSoC4/BLE.c ****     }
 973              		.loc 1 1222 0
 974              		@ sp needed
 975 002e 10BD     		pop	{r4, pc}
 976              	.L82:
 977              		.align	2
 978              	.L81:
 979 0030 00000000 		.word	cyBle_gattDB
 980              		.cfi_endproc
 981              	.LFE15:
 982              		.size	CyBle_GapGetLocalName, .-CyBle_GapGetLocalName
 983              		.section	.text.CyBle_Get16ByPtr,"ax",%progbits
 984              		.align	2
 985              		.global	CyBle_Get16ByPtr
 986              		.code	16
 987              		.thumb_func
 988              		.type	CyBle_Get16ByPtr, %function
 989              	CyBle_Get16ByPtr:
 990              	.LFB16:
ARM GAS  C:\Users\Helon\AppData\Local\Temp\cczBwqra.s 			page 42


1223:.\Generated_Source\PSoC4/BLE.c **** 
1224:.\Generated_Source\PSoC4/BLE.c **** #endif /* (CYBLE_GATT_ROLE_SERVER) */
1225:.\Generated_Source\PSoC4/BLE.c **** 
1226:.\Generated_Source\PSoC4/BLE.c **** 
1227:.\Generated_Source\PSoC4/BLE.c **** /******************************************************************************
1228:.\Generated_Source\PSoC4/BLE.c **** * Function Name: CyBle_Get16ByPtr
1229:.\Generated_Source\PSoC4/BLE.c **** ***************************************************************************//**
1230:.\Generated_Source\PSoC4/BLE.c **** * 
1231:.\Generated_Source\PSoC4/BLE.c **** *  Returns the two-bytes value by using a pointer to the LSB.
1232:.\Generated_Source\PSoC4/BLE.c **** * 
1233:.\Generated_Source\PSoC4/BLE.c **** *  \param ptr: Pointer to the LSB of two-bytes data (little endian).
1234:.\Generated_Source\PSoC4/BLE.c **** * 
1235:.\Generated_Source\PSoC4/BLE.c **** *  \return
1236:.\Generated_Source\PSoC4/BLE.c **** *  uint16: Two-bytes data.
1237:.\Generated_Source\PSoC4/BLE.c **** * 
1238:.\Generated_Source\PSoC4/BLE.c **** ******************************************************************************/
1239:.\Generated_Source\PSoC4/BLE.c **** uint16 CyBle_Get16ByPtr(const uint8 ptr[])
1240:.\Generated_Source\PSoC4/BLE.c **** {
 991              		.loc 1 1240 0
 992              		.cfi_startproc
 993              	.LVL100:
1241:.\Generated_Source\PSoC4/BLE.c ****     return ((uint16) ptr[0u] | ((uint16) (((uint16) ptr[1u]) << 8u)));
 994              		.loc 1 1241 0
 995 0000 0378     		ldrb	r3, [r0]
 996 0002 4078     		ldrb	r0, [r0, #1]
 997              	.LVL101:
 998 0004 0002     		lsl	r0, r0, #8
 999 0006 1843     		orr	r0, r3
1242:.\Generated_Source\PSoC4/BLE.c **** }
 1000              		.loc 1 1242 0
 1001              		@ sp needed
 1002 0008 7047     		bx	lr
 1003              		.cfi_endproc
 1004              	.LFE16:
 1005              		.size	CyBle_Get16ByPtr, .-CyBle_Get16ByPtr
 1006 000a C046     		.section	.text.CyBle_Set16ByPtr,"ax",%progbits
 1007              		.align	2
 1008              		.global	CyBle_Set16ByPtr
 1009              		.code	16
 1010              		.thumb_func
 1011              		.type	CyBle_Set16ByPtr, %function
 1012              	CyBle_Set16ByPtr:
 1013              	.LFB17:
1243:.\Generated_Source\PSoC4/BLE.c **** 
1244:.\Generated_Source\PSoC4/BLE.c **** 
1245:.\Generated_Source\PSoC4/BLE.c **** /******************************************************************************
1246:.\Generated_Source\PSoC4/BLE.c **** * Function Name: CyBle_Set16ByPtr
1247:.\Generated_Source\PSoC4/BLE.c **** ***************************************************************************//**
1248:.\Generated_Source\PSoC4/BLE.c **** * 
1249:.\Generated_Source\PSoC4/BLE.c **** *  Sets the two-bytes value by using a pointer to the LSB.
1250:.\Generated_Source\PSoC4/BLE.c **** * 
1251:.\Generated_Source\PSoC4/BLE.c **** *  \param ptr:    Pointer to the LSB of two-bytes data (little endian).
1252:.\Generated_Source\PSoC4/BLE.c **** *  \param value:  Two-bytes data to be written.
1253:.\Generated_Source\PSoC4/BLE.c **** * 
1254:.\Generated_Source\PSoC4/BLE.c **** *  \return
1255:.\Generated_Source\PSoC4/BLE.c **** *  None
1256:.\Generated_Source\PSoC4/BLE.c **** * 
ARM GAS  C:\Users\Helon\AppData\Local\Temp\cczBwqra.s 			page 43


1257:.\Generated_Source\PSoC4/BLE.c **** ******************************************************************************/
1258:.\Generated_Source\PSoC4/BLE.c **** void CyBle_Set16ByPtr(uint8 ptr[], uint16 value)
1259:.\Generated_Source\PSoC4/BLE.c **** {
 1014              		.loc 1 1259 0
 1015              		.cfi_startproc
 1016              	.LVL102:
1260:.\Generated_Source\PSoC4/BLE.c ****     ptr[0u] = (uint8) value;
 1017              		.loc 1 1260 0
 1018 0000 0170     		strb	r1, [r0]
1261:.\Generated_Source\PSoC4/BLE.c ****     ptr[1u] = (uint8) (value >> 8u);
 1019              		.loc 1 1261 0
 1020 0002 090A     		lsr	r1, r1, #8
 1021              	.LVL103:
 1022 0004 4170     		strb	r1, [r0, #1]
1262:.\Generated_Source\PSoC4/BLE.c **** }
 1023              		.loc 1 1262 0
 1024              		@ sp needed
 1025 0006 7047     		bx	lr
 1026              		.cfi_endproc
 1027              	.LFE17:
 1028              		.size	CyBle_Set16ByPtr, .-CyBle_Set16ByPtr
 1029              		.global	cyBle_StackFlashptr
 1030              		.global	cyBle_sflashDeviceAddress
 1031              		.global	cyBle_deviceAddress
 1032              		.comm	CyBle_ApplCallback,4,4
 1033              		.global	cyBle_discoveryInfo
 1034              		.comm	cyBle_connectingTimeout,2,2
 1035              		.comm	cyBle_connectionParameters,26,4
 1036              		.global	cyBle_discoveryModeInfo
 1037              		.global	cyBle_scanRspData
 1038              		.global	cyBle_discoveryData
 1039              		.global	cyBle_discoveryParam
 1040              		.comm	cyBle_stackMemoryRam,4260,8
 1041              		.global	cyBle_initVar
 1042              		.section	.rodata
 1043              		.align	7
 1044              		.set	.LANCHOR2,. + 0
 1045              	.LC0:
 1046 0000 0C02     		.short	524
 1047 0002 03       		.byte	3
 1048 0003 00       		.space	1
 1049 0004 4000     		.short	64
 1050 0006 01       		.byte	1
 1051 0007 00       		.space	1
 1052 0008 3000     		.short	48
 1053 000a 01       		.byte	1
 1054 000b 00       		.space	1
 1055 000c 4800     		.short	72
 1056 000e 01       		.byte	1
 1057 000f 00       		.space	1
 1058 0010 2400     		.short	36
 1059 0012 01       		.byte	1
 1060 0013 00       		.space	1
 1061 0014 2400     		.short	36
 1062 0016 01       		.byte	1
 1063 0017 00       		.space	1
 1064 0018 00000000 		.space	104
ARM GAS  C:\Users\Helon\AppData\Local\Temp\cczBwqra.s 			page 44


 1064      00000000 
 1064      00000000 
 1064      00000000 
 1064      00000000 
 1065              		.type	cyBle_StackFlashptr, %object
 1066              		.size	cyBle_StackFlashptr, 365
 1067              	cyBle_StackFlashptr:
 1068 0080 00000000 		.space	365
 1068      00000000 
 1068      00000000 
 1068      00000000 
 1068      00000000 
 1069 01ed 00000000 		.data
 1069      00000000 
 1069      00000000 
 1069      00000000 
 1069      000000
 1070              		.align	2
 1071              		.set	.LANCHOR0,. + 0
 1072              		.type	cyBle_discoveryData, %object
 1073              		.size	cyBle_discoveryData, 32
 1074              	cyBle_discoveryData:
 1075 0000 02       		.byte	2
 1076 0001 01       		.byte	1
 1077 0002 06       		.byte	6
 1078 0003 18       		.byte	24
 1079 0004 09       		.byte	9
 1080 0005 54       		.byte	84
 1081 0006 68       		.byte	104
 1082 0007 72       		.byte	114
 1083 0008 6F       		.byte	111
 1084 0009 75       		.byte	117
 1085 000a 67       		.byte	103
 1086 000b 68       		.byte	104
 1087 000c 70       		.byte	112
 1088 000d 75       		.byte	117
 1089 000e 74       		.byte	116
 1090 000f 20       		.byte	32
 1091 0010 20       		.byte	32
 1092 0011 20       		.byte	32
 1093 0012 20       		.byte	32
 1094 0013 20       		.byte	32
 1095 0014 20       		.byte	32
 1096 0015 20       		.byte	32
 1097 0016 20       		.byte	32
 1098 0017 20       		.byte	32
 1099 0018 20       		.byte	32
 1100 0019 20       		.byte	32
 1101 001a 20       		.byte	32
 1102 001b 20       		.byte	32
 1103 001c 02       		.byte	2
 1104 001d 0A       		.byte	10
 1105 001e 00       		.byte	0
 1106 001f 1F       		.byte	31
 1107              		.type	cyBle_discoveryInfo, %object
 1108              		.size	cyBle_discoveryInfo, 12
 1109              	cyBle_discoveryInfo:
ARM GAS  C:\Users\Helon\AppData\Local\Temp\cczBwqra.s 			page 45


 1110 0020 02       		.byte	2
 1111 0021 01       		.byte	1
 1112 0022 3000     		.short	48
 1113 0024 3000     		.short	48
 1114 0026 00       		.byte	0
 1115 0027 00       		.byte	0
 1116 0028 0A00     		.short	10
 1117 002a 01       		.byte	1
 1118 002b 00       		.space	1
 1119              		.type	cyBle_discoveryModeInfo, %object
 1120              		.size	cyBle_discoveryModeInfo, 20
 1121              	cyBle_discoveryModeInfo:
 1122 002c 02       		.byte	2
 1123 002d 000000   		.space	3
 1124 0030 00000000 		.word	cyBle_discoveryParam
 1125 0034 00000000 		.word	cyBle_discoveryData
 1126 0038 00000000 		.word	cyBle_scanRspData
 1127 003c 1E00     		.short	30
 1128 003e 0000     		.space	2
 1129              		.type	cyBle_sflashDeviceAddress, %object
 1130              		.size	cyBle_sflashDeviceAddress, 4
 1131              	cyBle_sflashDeviceAddress:
 1132 0040 00F2FF0F 		.word	268431872
 1133              		.type	cyBle_deviceAddress, %object
 1134              		.size	cyBle_deviceAddress, 7
 1135              	cyBle_deviceAddress:
 1136 0044 00       		.byte	0
 1137 0045 00       		.byte	0
 1138 0046 00       		.byte	0
 1139 0047 50       		.byte	80
 1140 0048 A0       		.byte	-96
 1141 0049 00       		.byte	0
 1142 004a 00       		.byte	0
 1143 004b 00       		.space	1
 1144              		.type	cyBle_discoveryParam, %object
 1145              		.size	cyBle_discoveryParam, 16
 1146              	cyBle_discoveryParam:
 1147 004c 2000     		.short	32
 1148 004e 2000     		.short	32
 1149 0050 00       		.byte	0
 1150 0051 00       		.byte	0
 1151 0052 00       		.byte	0
 1152 0053 00       		.byte	0
 1153 0054 00       		.byte	0
 1154 0055 00       		.byte	0
 1155 0056 50       		.byte	80
 1156 0057 A0       		.byte	-96
 1157 0058 00       		.byte	0
 1158 0059 07       		.byte	7
 1159 005a 00       		.byte	0
 1160 005b 00       		.space	1
 1161              		.bss
 1162              		.align	2
 1163              		.set	.LANCHOR1,. + 0
 1164              		.type	cyBle_scanRspData, %object
 1165              		.size	cyBle_scanRspData, 32
 1166              	cyBle_scanRspData:
ARM GAS  C:\Users\Helon\AppData\Local\Temp\cczBwqra.s 			page 46


 1167 0000 00000000 		.space	32
 1167      00000000 
 1167      00000000 
 1167      00000000 
 1167      00000000 
 1168              		.type	cyBle_initVar, %object
 1169              		.size	cyBle_initVar, 1
 1170              	cyBle_initVar:
 1171 0020 00       		.space	1
 1172 0021 000000   		.text
 1173              	.Letext0:
 1174              		.file 2 ".\\Generated_Source\\PSoC4\\cytypes.h"
 1175              		.file 3 ".\\Generated_Source\\PSoC4\\BLE_Stack.h"
 1176              		.file 4 ".\\Generated_Source\\PSoC4\\BLE_StackGap.h"
 1177              		.file 5 ".\\Generated_Source\\PSoC4\\BLE_StackGattDb.h"
 1178              		.file 6 ".\\Generated_Source\\PSoC4\\BLE.h"
 1179              		.file 7 ".\\Generated_Source\\PSoC4\\BLE_gatt.h"
 1180              		.file 8 ".\\Generated_Source\\PSoC4\\BLE_eventHandler.h"
 1181              		.file 9 ".\\Generated_Source\\PSoC4\\BLE_custom.h"
 1182              		.file 10 ".\\Generated_Source\\PSoC4\\BLE_StackHostMain.h"