ARM GAS  C:\Users\Helon\AppData\Local\Temp\ccys0XsA.s 			page 1


   1              		.cpu cortex-m0
   2              		.fpu softvfp
   3              		.eabi_attribute 20, 1
   4              		.eabi_attribute 21, 1
   5              		.eabi_attribute 23, 3
   6              		.eabi_attribute 24, 1
   7              		.eabi_attribute 25, 1
   8              		.eabi_attribute 26, 1
   9              		.eabi_attribute 30, 1
  10              		.eabi_attribute 34, 0
  11              		.eabi_attribute 18, 4
  12              		.code	16
  13              		.file	"BLEApplication.c"
  14              		.text
  15              	.Ltext0:
  16              		.cfi_sections	.debug_frame
  17              		.section	.rodata.cst2,"aM",%progbits,2
  18              		.align	1
  19              	.LC39:
  20 0000 0002     		.short	512
  21              		.section	.text.StackEventHandler,"ax",%progbits
  22              		.align	2
  23              		.global	StackEventHandler
  24              		.code	16
  25              		.thumb_func
  26              		.type	StackEventHandler, %function
  27              	StackEventHandler:
  28              	.LFB35:
  29              		.file 1 ".\\BLEApplication.c"
   1:.\BLEApplication.c **** /* ========================================
   2:.\BLEApplication.c ****  *
   3:.\BLEApplication.c ****  * Copyright YOUR COMPANY, THE YEAR
   4:.\BLEApplication.c ****  * All Rights Reserved
   5:.\BLEApplication.c ****  * UNPUBLISHED, LICENSED SOFTWARE.
   6:.\BLEApplication.c ****  *
   7:.\BLEApplication.c ****  * CONFIDENTIAL AND PROPRIETARY INFORMATION
   8:.\BLEApplication.c ****  * WHICH IS THE PROPERTY OF your company.
   9:.\BLEApplication.c ****  *
  10:.\BLEApplication.c ****  * ========================================
  11:.\BLEApplication.c **** */
  12:.\BLEApplication.c **** #include<project.h>
  13:.\BLEApplication.c **** #include "BLEApplication.h"
  14:.\BLEApplication.c **** #include<stdio.h>
  15:.\BLEApplication.c **** #include "BLEClient.h"
  16:.\BLEApplication.c **** #include <malloc.h>
  17:.\BLEApplication.c **** #include "WriteUserSFlash.h"
  18:.\BLEApplication.c **** /***************************************
  19:.\BLEApplication.c **** * Â§ñÈÉ®ÂÖ®Â±ÄÂèòÈáèÂ£∞Êòé
  20:.\BLEApplication.c **** ***************************************/
  21:.\BLEApplication.c **** extern uint8_t StartScan;
  22:.\BLEApplication.c **** extern uint8_t DeviceCount;
  23:.\BLEApplication.c **** extern CYBLE_DEVICE_INFO DeviceInfo[DeviceListCount];
  24:.\BLEApplication.c **** //extern uint8_t DeviceList[DeviceListCount];
  25:.\BLEApplication.c **** /***************************************
  26:.\BLEApplication.c **** * ÂÖ®Â±ÄÂèòÈáè
  27:.\BLEApplication.c **** ***************************************/
  28:.\BLEApplication.c **** UART_UART_INIT_STRUCT configUart;
ARM GAS  C:\Users\Helon\AppData\Local\Temp\ccys0XsA.s 			page 2


  29:.\BLEApplication.c **** uint8_t LowPower_EN=TURE;
  30:.\BLEApplication.c **** uint8_t RX_BUFFER[BUFFER_LENGHTH]={0};
  31:.\BLEApplication.c **** uint8_t Buffer_Length=0;
  32:.\BLEApplication.c **** uint8_t rx_isover=FALSE;
  33:.\BLEApplication.c **** uint8_t RxFlag=OVER;
  34:.\BLEApplication.c **** CYBLE_CONN_OR_DISCONN_INFO Conn_Or_Disconn_Info;
  35:.\BLEApplication.c **** uint8_t Conn_or_Disconn_Idx=0;
  36:.\BLEApplication.c **** //uint8 bufferRx[UART_RX_BUFFER + 1u];     /* RX software buffer requires one extra entry for corre
  37:.\BLEApplication.c **** //uint8 bufferTx[UART_TX_BUFFER];           /* TX software buffer */ 
  38:.\BLEApplication.c **** uint8_t MTU_REQ_FLAG=TURE;
  39:.\BLEApplication.c **** uint8_t TroughtTest_Flag=FALSE;
  40:.\BLEApplication.c **** uint8_t charNotificationEnabled = FALSE;
  41:.\BLEApplication.c **** uint32 totalByteCounter = 0;
  42:.\BLEApplication.c **** uint8_t Role=Peripheral;//ÈªòËÆ§ÊòØPeripheral
  43:.\BLEApplication.c **** uint8 buffer[20];
  44:.\BLEApplication.c **** uint16 negotiatedMtu = DEFAULT_MTU_SIZE;
  45:.\BLEApplication.c **** uint8_t CommandMode=AT_COMMAND_MODE;
  46:.\BLEApplication.c **** uint32 testCount=0;
  47:.\BLEApplication.c **** uint8_t iocapability=CYBLE_GAP_IOCAP_DISPLAY_ONLY;
  48:.\BLEApplication.c **** CYBLE_GAP_CONN_PARAM_UPDATED_IN_CONTROLLER_T ConnParam;
  49:.\BLEApplication.c **** uint8_t KEYBOARD=FALSE;
  50:.\BLEApplication.c **** uint8_t AUTHFLAG=FALSE;
  51:.\BLEApplication.c **** //CYBLE_GAPP_DISC_MODE_INFO_T updateadvparam;
  52:.\BLEApplication.c **** //uint8_t ExitThrought[]={
  53:.\BLEApplication.c **** //    0x11,0x24,0xFB,0x1E,0x1F,0x24,0x19,0x16,0x29};
  54:.\BLEApplication.c **** //CYBLE_CONN_HANDLE_T	connHandle=
  55:.\BLEApplication.c **** //{
  56:.\BLEApplication.c **** //    CYBLE_TROUGHPUT_SERVICE_CUSTOM_CHARACTERISTIC_CLIENT_CHARACTERISTIC_CONFIGURATION_DESC_HANDLE
  57:.\BLEApplication.c **** //    0x00
  58:.\BLEApplication.c **** //};
  59:.\BLEApplication.c **** CYBLE_GAP_BD_ADDR_T DeviceAddr;//Â≠òÊîæÊú¨Êú∫ÁöÑMACÂú∞ÂùÄ,‰∏çËÉΩÂÅö‰∏∫Â±ÄÈÉ®ÂèòÈáèÂê¶ÂàôËé∑ÂèñÁöÑÂú
  60:.\BLEApplication.c **** uint8_t _10sIsOver=FALSE;
  61:.\BLEApplication.c **** uint8 cccdNotifEnabledValue[] = {0x01, 0x00};
  62:.\BLEApplication.c **** CYBLE_GATT_VALUE_T cccdNotifFlagSetStruct =
  63:.\BLEApplication.c **** {
  64:.\BLEApplication.c ****     cccdNotifEnabledValue,
  65:.\BLEApplication.c ****     2,
  66:.\BLEApplication.c ****     0
  67:.\BLEApplication.c **** };
  68:.\BLEApplication.c **** //    Êõ¥Êñ∞ËøûÊé•Èó¥ÈöîÂèÇÊï∞ÔºåÊèêÈ´òÈÄè‰º†ÈÄüÁéáÔºå‰ΩÜ‰ºöÂ¢ûÂä†ÂäüËÄó
  69:.\BLEApplication.c **** CYBLE_GAP_CONN_UPDATE_PARAM_T connParam={
  70:.\BLEApplication.c ****     0x10,
  71:.\BLEApplication.c ****     0x10,
  72:.\BLEApplication.c ****     0,
  73:.\BLEApplication.c ****     1000
  74:.\BLEApplication.c **** };
  75:.\BLEApplication.c **** CYBLE_GATTC_WRITE_REQ_T writeRequestData;
  76:.\BLEApplication.c **** CYBLE_GATTC_READ_REQ_T readRequestData=CYBLE_TROUGHPUT_SERVICE_CUSTOM_CHARACTERISTIC_CLIENT_CHARACT
  77:.\BLEApplication.c **** //ATÂëΩ‰ª§ÂàóË°®
  78:.\BLEApplication.c **** char * StringArry[]={
  79:.\BLEApplication.c ****                      AT_RESET,AT_REFAC,AT_VERSION,AT_BAUD,AT_LADDR,AT_NAME,
  80:.\BLEApplication.c ****                      AT_CPIN,AT_TXP,AT_ADVD,AT_ADVI,AT_CONNI,AT_ROLE,AT_SCAN,
  81:.\BLEApplication.c ****                      AT_CONNT,AT_DISCONN,AT_LOGIN,AT_TX,AT_RSSI,AT_DISALLCHAR,
  82:.\BLEApplication.c ****                      AT,AT_SPEED,AT_NOTIFY,AT_STAUS,AT_ADVS,AT_AUTH,AT_IOCAP
  83:.\BLEApplication.c ****                     };
  84:.\BLEApplication.c **** uint8_t STOP_SCAN_FLAG=FALSE;
  85:.\BLEApplication.c **** uint8_t Baud_rate_idx='7';//ÈªòËÆ§ÊòØ115200
ARM GAS  C:\Users\Helon\AppData\Local\Temp\ccys0XsA.s 			page 3


  86:.\BLEApplication.c **** /******************************************************************************
  87:.\BLEApplication.c **** * Function Name: StackEventHandler
  88:.\BLEApplication.c **** ***************************************************************************//**
  89:.\BLEApplication.c **** * 
  90:.\BLEApplication.c **** *  Â§ÑÁêÜËìùÁâôÂçèËÆÆÊ†à‰∫ã‰ª∂
  91:.\BLEApplication.c **** * 
  92:.\BLEApplication.c **** * \return
  93:.\BLEApplication.c **** *  None
  94:.\BLEApplication.c **** * 
  95:.\BLEApplication.c **** ******************************************************************************/
  96:.\BLEApplication.c **** void StackEventHandler(uint32 eventCode, void *eventParam)
  97:.\BLEApplication.c **** {
  30              		.loc 1 97 0
  31              		.cfi_startproc
  32              	.LVL0:
  33 0000 70B5     		push	{r4, r5, r6, lr}
  34              		.cfi_def_cfa_offset 16
  35              		.cfi_offset 4, -16
  36              		.cfi_offset 5, -12
  37              		.cfi_offset 6, -8
  38              		.cfi_offset 14, -4
  39 0002 90B0     		sub	sp, sp, #64
  40              		.cfi_def_cfa_offset 80
  41              	.LVL1:
  98:.\BLEApplication.c ****     CYBLE_GAPC_ADV_REPORT_T	Scan_Result;
  99:.\BLEApplication.c **** //    CYBLE_API_RESULT_T API_RESULT=0;
 100:.\BLEApplication.c ****     CYBLE_GATTC_FIND_INFO_RSP_PARAM_T DisAllCharResult;  
 101:.\BLEApplication.c ****     uint8_t i=0;
 102:.\BLEApplication.c ****     CYBLE_GATTC_HANDLE_VALUE_NTF_PARAM_T * handleValueNotification;
 103:.\BLEApplication.c ****     CYBLE_GATTS_WRITE_REQ_PARAM_T writeParam;  
 104:.\BLEApplication.c **** //    uint32 PassKey=0;
 105:.\BLEApplication.c **** //    CYBLE_GATTC_READ_RSP_PARAM_T readParam;
 106:.\BLEApplication.c ****     switch(eventCode)
  42              		.loc 1 106 0
  43 0004 5228     		cmp	r0, #82
  44 0006 00D9     		bls	.LCB16
  45 0008 3AE1     		b	.L1	@long jump
  46              	.LCB16:
  47 000a 0C1C     		mov	r4, r1
  48 000c 8000     		lsl	r0, r0, #2
  49              	.LVL2:
  50 000e 9D4B     		ldr	r3, .L39
  51 0010 1B58     		ldr	r3, [r3, r0]
  52 0012 9F46     		mov	pc, r3
  53              		.section	.rodata
  54              		.align	2
  55              	.L4:
  56 0000 80020000 		.word	.L1
  57 0004 14000000 		.word	.L3
  58 0008 5E000000 		.word	.L5
  59 000c 80020000 		.word	.L1
  60 0010 80020000 		.word	.L1
  61 0014 80020000 		.word	.L1
  62 0018 80020000 		.word	.L1
  63 001c 80020000 		.word	.L1
  64 0020 80020000 		.word	.L1
  65 0024 80020000 		.word	.L1
ARM GAS  C:\Users\Helon\AppData\Local\Temp\ccys0XsA.s 			page 4


  66 0028 80020000 		.word	.L1
  67 002c 80020000 		.word	.L1
  68 0030 80020000 		.word	.L1
  69 0034 80020000 		.word	.L1
  70 0038 80020000 		.word	.L1
  71 003c 80020000 		.word	.L1
  72 0040 80020000 		.word	.L1
  73 0044 80020000 		.word	.L1
  74 0048 80020000 		.word	.L1
  75 004c 80020000 		.word	.L1
  76 0050 80020000 		.word	.L1
  77 0054 80020000 		.word	.L1
  78 0058 80020000 		.word	.L1
  79 005c 80020000 		.word	.L1
  80 0060 80020000 		.word	.L1
  81 0064 80020000 		.word	.L1
  82 0068 80020000 		.word	.L1
  83 006c 80020000 		.word	.L1
  84 0070 80020000 		.word	.L1
  85 0074 80020000 		.word	.L1
  86 0078 80020000 		.word	.L1
  87 007c 80020000 		.word	.L1
  88 0080 34000000 		.word	.L6
  89 0084 38020000 		.word	.L7
  90 0088 56020000 		.word	.L8
  91 008c 4C020000 		.word	.L9
  92 0090 64020000 		.word	.L10
  93 0094 72020000 		.word	.L11
  94 0098 80020000 		.word	.L1
  95 009c 72000000 		.word	.L12
  96 00a0 04010000 		.word	.L13
  97 00a4 80020000 		.word	.L1
  98 00a8 B8000000 		.word	.L14
  99 00ac 46000000 		.word	.L15
 100 00b0 80020000 		.word	.L1
 101 00b4 80020000 		.word	.L1
 102 00b8 80020000 		.word	.L1
 103 00bc 80020000 		.word	.L1
 104 00c0 80020000 		.word	.L1
 105 00c4 80020000 		.word	.L1
 106 00c8 80020000 		.word	.L1
 107 00cc 80020000 		.word	.L1
 108 00d0 80020000 		.word	.L1
 109 00d4 80020000 		.word	.L1
 110 00d8 80020000 		.word	.L1
 111 00dc 80020000 		.word	.L1
 112 00e0 80020000 		.word	.L1
 113 00e4 80020000 		.word	.L1
 114 00e8 80020000 		.word	.L1
 115 00ec 80020000 		.word	.L1
 116 00f0 80020000 		.word	.L1
 117 00f4 80020000 		.word	.L1
 118 00f8 80020000 		.word	.L1
 119 00fc 80020000 		.word	.L1
 120 0100 80020000 		.word	.L1
 121 0104 80020000 		.word	.L1
 122 0108 80020000 		.word	.L1
ARM GAS  C:\Users\Helon\AppData\Local\Temp\ccys0XsA.s 			page 5


 123 010c D6000000 		.word	.L16
 124 0110 C8000000 		.word	.L17
 125 0114 80020000 		.word	.L1
 126 0118 80020000 		.word	.L1
 127 011c 04020000 		.word	.L18
 128 0120 80020000 		.word	.L1
 129 0124 80020000 		.word	.L1
 130 0128 80020000 		.word	.L1
 131 012c 80020000 		.word	.L1
 132 0130 80020000 		.word	.L1
 133 0134 80020000 		.word	.L1
 134 0138 58010000 		.word	.L19
 135 013c 80020000 		.word	.L1
 136 0140 80020000 		.word	.L1
 137 0144 80020000 		.word	.L1
 138 0148 B6010000 		.word	.L20
 139              		.section	.text.StackEventHandler
 140              	.L3:
 107:.\BLEApplication.c ****     {
 108:.\BLEApplication.c ****         case CYBLE_EVT_STACK_ON:
 109:.\BLEApplication.c ****             printf("BLE is Ready\r\n");
 141              		.loc 1 109 0
 142 0014 9C48     		ldr	r0, .L39+4
 143 0016 FFF7FEFF 		bl	puts
 144              	.LVL3:
 145              	.L22:
 110:.\BLEApplication.c ****             while((UART_SpiUartGetTxBufferSize() + UART_GET_TX_FIFO_SR_VALID) != 0);//Á≠âÂæÖ‰∏≤Âè£Á
 146              		.loc 1 110 0 discriminator 5
 147 001a FFF7FEFF 		bl	UART_SpiUartGetTxBufferSize
 148              	.LVL4:
 149 001e 9B4B     		ldr	r3, .L39+8
 150 0020 1B68     		ldr	r3, [r3]
 151 0022 8022     		mov	r2, #128
 152 0024 1202     		lsl	r2, r2, #8
 153 0026 1340     		and	r3, r2
 154 0028 00D0     		beq	.L21
 155              		.loc 1 110 0 is_stmt 0
 156 002a 0123     		mov	r3, #1
 157              	.L21:
 158              		.loc 1 110 0 discriminator 4
 159 002c C318     		add	r3, r0, r3
 160 002e 002B     		cmp	r3, #0
 161 0030 F3D1     		bne	.L22
 162 0032 25E1     		b	.L1
 163              	.LVL5:
 164              	.L6:
 111:.\BLEApplication.c **** //            StartScan=TRUE;            
 112:.\BLEApplication.c ****         break;
 113:.\BLEApplication.c ****         case CYBLE_EVT_GAPC_SCAN_PROGRESS_RESULT:
 114:.\BLEApplication.c ****             Scan_Result=*(CYBLE_GAPC_ADV_REPORT_T *)eventParam;
 165              		.loc 1 114 0 is_stmt 1
 166 0034 0BA8     		add	r0, sp, #44
 167 0036 031C     		mov	r3, r0
 168 0038 26CC     		ldmia	r4!, {r1, r2, r5}
 169 003a 26C3     		stmia	r3!, {r1, r2, r5}
 170              	.LVL6:
 171 003c 06CC     		ldmia	r4!, {r1, r2}
ARM GAS  C:\Users\Helon\AppData\Local\Temp\ccys0XsA.s 			page 6


 172 003e 06C3     		stmia	r3!, {r1, r2}
 173              	.LVL7:
 115:.\BLEApplication.c ****             HandleScanDevices(&Scan_Result);               
 174              		.loc 1 115 0
 175 0040 FFF7FEFF 		bl	HandleScanDevices
 176              	.LVL8:
 116:.\BLEApplication.c **** //            CyBle_GapcStopScan();
 117:.\BLEApplication.c ****         break;
 177              		.loc 1 117 0
 178 0044 1CE1     		b	.L1
 179              	.LVL9:
 180              	.L15:
 118:.\BLEApplication.c ****         case CYBLE_EVT_GAPC_SCAN_START_STOP:
 119:.\BLEApplication.c ****             if(STOP_SCAN_FLAG)
 181              		.loc 1 119 0
 182 0046 924B     		ldr	r3, .L39+12
 183 0048 1B78     		ldrb	r3, [r3]
 184 004a 002B     		cmp	r3, #0
 185 004c 00D1     		bne	.LCB73
 186 004e 17E1     		b	.L1	@long jump
 187              	.LCB73:
 120:.\BLEApplication.c ****             {
 121:.\BLEApplication.c ****                 STOP_SCAN_FLAG=FALSE;             
 188              		.loc 1 121 0
 189 0050 0022     		mov	r2, #0
 190 0052 8F4B     		ldr	r3, .L39+12
 191 0054 1A70     		strb	r2, [r3]
 122:.\BLEApplication.c ****                 printf("+SCAN_STOP\r\n");
 192              		.loc 1 122 0
 193 0056 8F48     		ldr	r0, .L39+16
 194 0058 FFF7FEFF 		bl	puts
 195              	.LVL10:
 196 005c 10E1     		b	.L1
 197              	.LVL11:
 198              	.L5:
 123:.\BLEApplication.c ****             }
 124:.\BLEApplication.c ****             
 125:.\BLEApplication.c ****         break;
 126:.\BLEApplication.c ****         //ÂΩìClientÊâ´ÊèèÂà∞ServerÁöÑDB‰πãÂêéÊâç‰ºöËß¶ÂèëËØ•‰∫ã‰ª∂ÔºåÂâçÊèêÊòØclientÂíåserverËøûÊé•
 127:.\BLEApplication.c ****         case CYBLE_EVT_GATTC_DISCOVERY_COMPLETE:
 128:.\BLEApplication.c ****             
 129:.\BLEApplication.c ****         break;        
 130:.\BLEApplication.c ****         case CYBLE_EVT_TIMEOUT:                         
 131:.\BLEApplication.c ****             if(*(uint8_t*)eventParam==CYBLE_GAP_SCAN_TO)
 199              		.loc 1 131 0
 200 005e 0B78     		ldrb	r3, [r1]
 201 0060 022B     		cmp	r3, #2
 202 0062 00D0     		beq	.LCB88
 203 0064 0CE1     		b	.L1	@long jump
 204              	.LCB88:
 132:.\BLEApplication.c ****             {   
 133:.\BLEApplication.c ****                 CyBle_GapcStopScan();
 205              		.loc 1 133 0
 206 0066 FFF7FEFF 		bl	CyBle_GapcStopScan
 207              	.LVL12:
 134:.\BLEApplication.c ****                 printf("+SCAN_CMP\r\n");                    
 208              		.loc 1 134 0
ARM GAS  C:\Users\Helon\AppData\Local\Temp\ccys0XsA.s 			page 7


 209 006a 8B48     		ldr	r0, .L39+20
 210 006c FFF7FEFF 		bl	puts
 211              	.LVL13:
 212 0070 06E1     		b	.L1
 213              	.LVL14:
 214              	.L12:
 135:.\BLEApplication.c ****             }
 136:.\BLEApplication.c ****             //ÂπøÊí≠Ë∂ÖÊó∂
 137:.\BLEApplication.c **** //            if(*(uint8_t*)eventParam==CYBLE_GAP_ADV_MODE_TO)
 138:.\BLEApplication.c **** //            {
 139:.\BLEApplication.c **** //                CyBle_GappStartAdvertisement(CYBLE_ADVERTISING_SLOW);
 140:.\BLEApplication.c **** //            }
 141:.\BLEApplication.c ****         break;
 142:.\BLEApplication.c ****         case CYBLE_EVT_GAPP_ADVERTISEMENT_START_STOP:
 143:.\BLEApplication.c **** //            if(CYBLE_STATE_ADVERTISING!=CyBle_GetState())
 144:.\BLEApplication.c **** //            {
 145:.\BLEApplication.c **** //                CyBle_GappStartAdvertisement(CYBLE_ADVERTISING_SLOW);
 146:.\BLEApplication.c **** //            }
 147:.\BLEApplication.c ****         break;
 148:.\BLEApplication.c ****         case CYBLE_EVT_GAP_DEVICE_CONNECTED:
 149:.\BLEApplication.c **** //            Ëé∑ÂèñËøûÊé•ÂèÇÊï∞‰ø°ÊÅØ
 150:.\BLEApplication.c ****             ConnParam=*(CYBLE_GAP_CONN_PARAM_UPDATED_IN_CONTROLLER_T *)eventParam;            
 215              		.loc 1 150 0
 216 0072 8A48     		ldr	r0, .L39+24
 217 0074 0822     		mov	r2, #8
 218 0076 FFF7FEFF 		bl	memcpy
 219              	.LVL15:
 151:.\BLEApplication.c ****             if(Role==Peripheral)
 220              		.loc 1 151 0
 221 007a 854B     		ldr	r3, .L39+12
 222 007c 5B78     		ldrb	r3, [r3, #1]
 223 007e 002B     		cmp	r3, #0
 224 0080 08D1     		bne	.L23
 152:.\BLEApplication.c ****             {
 153:.\BLEApplication.c ****                 printf("+CONN_EVT=OK\r\n");
 225              		.loc 1 153 0
 226 0082 8748     		ldr	r0, .L39+28
 227 0084 FFF7FEFF 		bl	puts
 228              	.LVL16:
 154:.\BLEApplication.c ****                 CyBle_L2capLeConnectionParamUpdateRequest(cyBle_connHandle.bdHandle,&connParam);
 229              		.loc 1 154 0
 230 0088 864B     		ldr	r3, .L39+32
 231 008a 1878     		ldrb	r0, [r3]
 232 008c 8649     		ldr	r1, .L39+36
 233 008e FFF7FEFF 		bl	CyBle_L2capLeConnectionParamUpdateRequest
 234              	.LVL17:
 235 0092 F5E0     		b	.L1
 236              	.L23:
 155:.\BLEApplication.c ****             }
 156:.\BLEApplication.c ****             else
 157:.\BLEApplication.c ****             {
 158:.\BLEApplication.c ****                 printf("+CONN_EVT=<%d,OK>\r\n",Conn_or_Disconn_Idx);   
 237              		.loc 1 158 0
 238 0094 7E4B     		ldr	r3, .L39+12
 239 0096 9978     		ldrb	r1, [r3, #2]
 240 0098 8448     		ldr	r0, .L39+40
 241 009a FFF7FEFF 		bl	printf
ARM GAS  C:\Users\Helon\AppData\Local\Temp\ccys0XsA.s 			page 8


 242              	.LVL18:
 159:.\BLEApplication.c **** //                ‰∏é‰ªéÊú∫ËøûÊé•ÊàêÂäüÂêéÔºå‰∏ªÊú∫ÂèëËµ∑ËøûÊé•Èó¥ÈöîÊõ¥Êñ∞ËØ∑Ê±Ç
 160:.\BLEApplication.c ****                 CyBle_GapcConnectionParamUpdateRequest(cyBle_connHandle.bdHandle,&connParam);
 243              		.loc 1 160 0
 244 009e 814C     		ldr	r4, .L39+32
 245              	.LVL19:
 246 00a0 2078     		ldrb	r0, [r4]
 247 00a2 8149     		ldr	r1, .L39+36
 248 00a4 FFF7FEFF 		bl	CyBle_GapcConnectionParamUpdateRequest
 249              	.LVL20:
 161:.\BLEApplication.c ****                                 /* Initiate an MTU exchange request CYBLE_GATT_MTU*/
 162:.\BLEApplication.c ****                 CyBle_GattcExchangeMtuReq(cyBle_connHandle,MAX_MTU_SIZE);
 250              		.loc 1 162 0
 251 00a8 2378     		ldrb	r3, [r4]
 252 00aa 6078     		ldrb	r0, [r4, #1]
 253 00ac 0002     		lsl	r0, r0, #8
 254 00ae 1843     		orr	r0, r3
 255 00b0 3321     		mov	r1, #51
 256 00b2 FFF7FEFF 		bl	CyBle_GattcExchangeMtuReq
 257              	.LVL21:
 258 00b6 E3E0     		b	.L1
 259              	.LVL22:
 260              	.L14:
 163:.\BLEApplication.c ****             }
 164:.\BLEApplication.c **** //            //‰∏ªÊú∫ÂèëÈÄÅÁöÑMTU exchange request
 165:.\BLEApplication.c **** //            if(MTU_REQ_FLAG)
 166:.\BLEApplication.c **** //            {
 167:.\BLEApplication.c **** //                MTU_REQ_FLAG=FALSE;
 168:.\BLEApplication.c **** //                /* Initiate an MTU exchange request */
 169:.\BLEApplication.c **** //                CyBle_GattcExchangeMtuReq(cyBle_connHandle, CYBLE_GATT_MTU);
 170:.\BLEApplication.c **** //            }
 171:.\BLEApplication.c ****         break;
 172:.\BLEApplication.c ****         case CYBLE_EVT_GAP_CONNECTION_UPDATE_COMPLETE: 
 173:.\BLEApplication.c **** //            Ëé∑ÂèñËøûÊé•ÂèÇÊï∞‰ø°ÊÅØ
 174:.\BLEApplication.c ****             ConnParam=*(CYBLE_GAP_CONN_PARAM_UPDATED_IN_CONTROLLER_T *)eventParam;
 261              		.loc 1 174 0
 262 00b8 7848     		ldr	r0, .L39+24
 263 00ba 0822     		mov	r2, #8
 264 00bc FFF7FEFF 		bl	memcpy
 265              	.LVL23:
 175:.\BLEApplication.c ****             printf("+UPDATECONN_EVT=OK\r\n");
 266              		.loc 1 175 0
 267 00c0 7B48     		ldr	r0, .L39+44
 268 00c2 FFF7FEFF 		bl	puts
 269              	.LVL24:
 176:.\BLEApplication.c **** //            if(Role==Central)
 177:.\BLEApplication.c **** //                Timer_Enable();
 178:.\BLEApplication.c ****         break;
 270              		.loc 1 178 0
 271 00c6 DBE0     		b	.L1
 272              	.LVL25:
 273              	.L17:
 179:.\BLEApplication.c **** //            ‰∏ªÊú∫Êé•Êî∂‰ªéÊú∫ÁöÑMTU‰∫§Êç¢ÂìçÂ∫î
 180:.\BLEApplication.c ****         case CYBLE_EVT_GATTC_XCHNG_MTU_RSP:            
 181:.\BLEApplication.c ****             negotiatedMtu=((CYBLE_GATT_XCHG_MTU_PARAM_T *)eventParam)->mtu;
 274              		.loc 1 181 0
 275 00c8 4988     		ldrh	r1, [r1, #2]
ARM GAS  C:\Users\Helon\AppData\Local\Temp\ccys0XsA.s 			page 9


 276              	.LVL26:
 277 00ca 774B     		ldr	r3, .L39+36
 278 00cc 1981     		strh	r1, [r3, #8]
 182:.\BLEApplication.c ****             printf("mtu is %d\r\n",negotiatedMtu);
 279              		.loc 1 182 0
 280 00ce 7948     		ldr	r0, .L39+48
 281 00d0 FFF7FEFF 		bl	printf
 282              	.LVL27:
 183:.\BLEApplication.c ****             /* Enable notifications on the characteristic to get data from the 
 184:.\BLEApplication.c ****              * Server.
 185:.\BLEApplication.c ****              */
 186:.\BLEApplication.c **** //            TroughtTest_Flag=TURE;  
 187:.\BLEApplication.c **** //            UART_UartPutString("Calculating throughput. Please wait...\n\r");
 188:.\BLEApplication.c **** //            Timer_Enable();
 189:.\BLEApplication.c **** //            printf("'MTU Exchange Response' received from server device\r\n");
 190:.\BLEApplication.c **** //            if(0x00==writeRequestData.value.val[0])
 191:.\BLEApplication.c **** //                writeRequestData.value.val[0]=0x01;
 192:.\BLEApplication.c **** //            writeRequestData.attrHandle=CYBLE_TROUGHPUT_SERVICE_SPEEDTEST_CHAR_HANDLE;
 193:.\BLEApplication.c **** //            CyBle_GattcWriteCharacteristicValue(cyBle_connHandle, &writeRequestData);   
 194:.\BLEApplication.c **** //            printf("Notify slave is %d",API_RESULT);
 195:.\BLEApplication.c **** //            while((UART_SpiUartGetTxBufferSize() + UART_GET_TX_FIFO_SR_VALID) != 0);//Á≠âÂæÖ‰∏≤Âè
 196:.\BLEApplication.c ****             break;
 283              		.loc 1 196 0
 284 00d4 D4E0     		b	.L1
 285              	.LVL28:
 286              	.L16:
 197:.\BLEApplication.c ****         /* GATT MTU exchange request - Update the negotiated MTU value */
 198:.\BLEApplication.c **** //            ÂÅö‰∏∫‰ªéÊú∫Êó∂Êé•Êî∂‰∏ªÊú∫ÂèëÈÄÅËøáÊù•ÁöÑMTU‰∫§Êç¢ËØ∑Ê±Ç
 199:.\BLEApplication.c ****         case CYBLE_EVT_GATTS_XCNHG_MTU_REQ:
 200:.\BLEApplication.c ****             CyBle_GattsExchangeMtuRsp(cyBle_connHandle,MAX_MTU_SIZE);
 287              		.loc 1 200 0
 288 00d6 734A     		ldr	r2, .L39+32
 289 00d8 1378     		ldrb	r3, [r2]
 290 00da 5078     		ldrb	r0, [r2, #1]
 291 00dc 0002     		lsl	r0, r0, #8
 292 00de 1843     		orr	r0, r3
 293 00e0 3321     		mov	r1, #51
 294              	.LVL29:
 295 00e2 FFF7FEFF 		bl	CyBle_GattsExchangeMtuRsp
 296              	.LVL30:
 201:.\BLEApplication.c ****             negotiatedMtu = (((CYBLE_GATT_XCHG_MTU_PARAM_T *)eventParam)->mtu < CYBLE_GATT_MTU) ?
 297              		.loc 1 201 0
 298 00e6 6288     		ldrh	r2, [r4, #2]
 299 00e8 131C     		add	r3, r2, #0
 300 00ea 8021     		mov	r1, #128
 301 00ec 8900     		lsl	r1, r1, #2
 302 00ee 8A42     		cmp	r2, r1
 303 00f0 01D9     		bls	.L24
 304 00f2 714B     		ldr	r3, .L39+52
 305 00f4 1B88     		ldrh	r3, [r3]
 306              	.L24:
 307 00f6 99B2     		uxth	r1, r3
 308 00f8 6B4A     		ldr	r2, .L39+36
 309 00fa 1381     		strh	r3, [r2, #8]
 202:.\BLEApplication.c ****                             ((CYBLE_GATT_XCHG_MTU_PARAM_T *)eventParam)->mtu : CYBLE_GATT_MTU;
 203:.\BLEApplication.c ****                             printf("mtu is %d\r\n",negotiatedMtu);
 310              		.loc 1 203 0
ARM GAS  C:\Users\Helon\AppData\Local\Temp\ccys0XsA.s 			page 10


 311 00fc 6D48     		ldr	r0, .L39+48
 312 00fe FFF7FEFF 		bl	printf
 313              	.LVL31:
 204:.\BLEApplication.c **** //            printf("'MTU Exchange Request' received from GATT client device\r\n");
 205:.\BLEApplication.c ****         break;
 314              		.loc 1 205 0
 315 0102 BDE0     		b	.L1
 316              	.LVL32:
 317              	.L13:
 206:.\BLEApplication.c ****         case CYBLE_EVT_GAP_DEVICE_DISCONNECTED:   
 207:.\BLEApplication.c ****             cyBle_discoveryModeInfo.advTo = CYBLE_FAST_ADV_TIMEOUT;
 318              		.loc 1 207 0
 319 0104 6D4B     		ldr	r3, .L39+56
 320 0106 1E22     		mov	r2, #30
 321 0108 1A82     		strh	r2, [r3, #16]
 208:.\BLEApplication.c ****             cyBle_discoveryModeInfo.advParam->advIntvMin = CYBLE_FAST_ADV_INT_MIN;
 322              		.loc 1 208 0
 323 010a 0232     		add	r2, r2, #2
 324 010c 5968     		ldr	r1, [r3, #4]
 325              	.LVL33:
 326 010e 0A80     		strh	r2, [r1]
 209:.\BLEApplication.c ****             cyBle_discoveryModeInfo.advParam->advIntvMax = CYBLE_FAST_ADV_INT_MAX;                 
 327              		.loc 1 209 0
 328 0110 5B68     		ldr	r3, [r3, #4]
 329 0112 5A80     		strh	r2, [r3, #2]
 210:.\BLEApplication.c ****             if(Role==Peripheral)
 330              		.loc 1 210 0
 331 0114 5E4B     		ldr	r3, .L39+12
 332 0116 5B78     		ldrb	r3, [r3, #1]
 333 0118 002B     		cmp	r3, #0
 334 011a 04D1     		bne	.L25
 211:.\BLEApplication.c ****             {
 212:.\BLEApplication.c ****                printf("+DISCONN_EVT=<0x%02X>\r\n",*(uint8_t*)eventParam);
 335              		.loc 1 212 0
 336 011c 2178     		ldrb	r1, [r4]
 337 011e 6848     		ldr	r0, .L39+60
 338 0120 FFF7FEFF 		bl	printf
 339              	.LVL34:
 340 0124 05E0     		b	.L28
 341              	.L25:
 213:.\BLEApplication.c ****             }
 214:.\BLEApplication.c ****             else
 215:.\BLEApplication.c ****             {
 216:.\BLEApplication.c ****                printf("+DISCONN_EVT=<%d,0x%02X>\r\n",Conn_or_Disconn_Idx,*(uint8_t*)eventParam);
 342              		.loc 1 216 0
 343 0126 2278     		ldrb	r2, [r4]
 344 0128 594B     		ldr	r3, .L39+12
 345 012a 9978     		ldrb	r1, [r3, #2]
 346 012c 6548     		ldr	r0, .L39+64
 347 012e FFF7FEFF 		bl	printf
 348              	.LVL35:
 349              	.L28:
 217:.\BLEApplication.c ****             }
 218:.\BLEApplication.c ****             while((UART_SpiUartGetTxBufferSize() + UART_GET_TX_FIFO_SR_VALID) != 0);//Á≠âÂæÖ‰∏≤Âè£Á
 350              		.loc 1 218 0 discriminator 5
 351 0132 FFF7FEFF 		bl	UART_SpiUartGetTxBufferSize
 352              	.LVL36:
ARM GAS  C:\Users\Helon\AppData\Local\Temp\ccys0XsA.s 			page 11


 353 0136 554B     		ldr	r3, .L39+8
 354 0138 1B68     		ldr	r3, [r3]
 355 013a 8022     		mov	r2, #128
 356 013c 1202     		lsl	r2, r2, #8
 357 013e 1340     		and	r3, r2
 358 0140 00D0     		beq	.L27
 359              		.loc 1 218 0 is_stmt 0
 360 0142 0123     		mov	r3, #1
 361              	.L27:
 362              		.loc 1 218 0 discriminator 4
 363 0144 C318     		add	r3, r0, r3
 364 0146 002B     		cmp	r3, #0
 365 0148 F3D1     		bne	.L28
 219:.\BLEApplication.c ****             LowPower_EN=TURE;
 366              		.loc 1 219 0 is_stmt 1
 367 014a 0122     		mov	r2, #1
 368 014c 564B     		ldr	r3, .L39+36
 369 014e 9A72     		strb	r2, [r3, #10]
 220:.\BLEApplication.c ****             AUTHFLAG=FALSE;
 370              		.loc 1 220 0
 371 0150 0022     		mov	r2, #0
 372 0152 4F4B     		ldr	r3, .L39+12
 373 0154 DA70     		strb	r2, [r3, #3]
 221:.\BLEApplication.c ****         break;
 374              		.loc 1 221 0
 375 0156 93E0     		b	.L1
 376              	.LVL37:
 377              	.L19:
 222:.\BLEApplication.c **** //            ‰ªéÊú∫Êé•Êî∂‰∏ªÊú∫ÁöÑÂÜôËØ∑Ê±ÇÔºåÂπ∂‰∏î‰ªéÊú∫‰∏çÈúÄË¶ÅÂÜôÂìçÂ∫î
 223:.\BLEApplication.c ****         case CYBLE_EVT_GATTS_WRITE_CMD_REQ:
 224:.\BLEApplication.c ****             writeParam = *(CYBLE_GATTS_WRITE_REQ_PARAM_T *)eventParam;
 378              		.loc 1 224 0
 379 0158 03AB     		add	r3, sp, #12
 380 015a 07CC     		ldmia	r4!, {r0, r1, r2}
 381 015c 07C3     		stmia	r3!, {r0, r1, r2}
 382              	.LVL38:
 383 015e 2568     		ldr	r5, [r4]
 384 0160 1D60     		str	r5, [r3]
 225:.\BLEApplication.c ****             //Ëá™ÂÆö‰πâÊúçÂä°ÁöÑCUSTOM Characteristic
 226:.\BLEApplication.c ****             if(writeParam.handleValPair.attrHandle == 
 385              		.loc 1 226 0
 386 0162 ADB2     		uxth	r5, r5
 387 0164 0E2D     		cmp	r5, #14
 388 0166 10D1     		bne	.L29
 227:.\BLEApplication.c ****                CYBLE_TROUGHPUT_SERVICE_CUSTOM_CHARACTERISTIC_CHAR_HANDLE)
 228:.\BLEApplication.c ****             {
 229:.\BLEApplication.c ****                 testCount+=writeParam.handleValPair.value.len;    
 389              		.loc 1 229 0
 390 0168 03AB     		add	r3, sp, #12
 391 016a 1E89     		ldrh	r6, [r3, #8]
 392 016c 484A     		ldr	r2, .L39+12
 393 016e 5368     		ldr	r3, [r2, #4]
 394 0170 F318     		add	r3, r6, r3
 395 0172 5360     		str	r3, [r2, #4]
 230:.\BLEApplication.c **** //                printf("0x");
 231:.\BLEApplication.c **** //                UART_UartPutString("0x");
 232:.\BLEApplication.c ****                 for(i=0;i<writeParam.handleValPair.value.len;i++)
ARM GAS  C:\Users\Helon\AppData\Local\Temp\ccys0XsA.s 			page 12


 396              		.loc 1 232 0
 397 0174 0024     		mov	r4, #0
 398              	.LVL39:
 399 0176 05E0     		b	.L30
 400              	.LVL40:
 401              	.L31:
 233:.\BLEApplication.c ****                 {                    
 234:.\BLEApplication.c **** //                    printf("%02X",writeParam.handleValPair.value.val[i]);
 235:.\BLEApplication.c ****                     UART_UartPutChar(writeParam.handleValPair.value.val[i]);
 402              		.loc 1 235 0 discriminator 3
 403 0178 049B     		ldr	r3, [sp, #16]
 404 017a 185D     		ldrb	r0, [r3, r4]
 405 017c FFF7FEFF 		bl	UART_SpiUartWriteTxData
 406              	.LVL41:
 232:.\BLEApplication.c ****                 {                    
 407              		.loc 1 232 0 discriminator 3
 408 0180 0134     		add	r4, r4, #1
 409              	.LVL42:
 410 0182 E4B2     		uxtb	r4, r4
 411              	.LVL43:
 412              	.L30:
 232:.\BLEApplication.c ****                 {                    
 413              		.loc 1 232 0 is_stmt 0 discriminator 1
 414 0184 A3B2     		uxth	r3, r4
 415 0186 9E42     		cmp	r6, r3
 416 0188 F6D8     		bhi	.L31
 417              	.LVL44:
 418              	.L29:
 236:.\BLEApplication.c ****                 }   
 237:.\BLEApplication.c **** //                UART_UartPutString("\r\n");
 238:.\BLEApplication.c **** //                printf("\r\n");
 239:.\BLEApplication.c **** //                UART_SpiUartWriteTxData(testCount);
 240:.\BLEApplication.c **** //                printf("%ld\r\n",testCount);
 241:.\BLEApplication.c **** //                printf("+RX=<0x");
 242:.\BLEApplication.c **** //                for(i=0;i<writeParam.handleValPair.value.len;i++)
 243:.\BLEApplication.c **** //                {
 244:.\BLEApplication.c **** //                    printf("%02X",writeParam.handleValPair.value.val[i]);
 245:.\BLEApplication.c **** //                }
 246:.\BLEApplication.c **** //                printf(">\r\n");
 247:.\BLEApplication.c ****             } 
 248:.\BLEApplication.c ****              //Ëá™ÂÆö‰πâÊúçÂä°ÁöÑClient Characteristic
 249:.\BLEApplication.c ****             if(writeParam.handleValPair.attrHandle == 
 419              		.loc 1 249 0 is_stmt 1
 420 018a 0F2D     		cmp	r5, #15
 421 018c 78D1     		bne	.L1
 250:.\BLEApplication.c ****                CYBLE_TROUGHPUT_SERVICE_CUSTOM_CHARACTERISTIC_CLIENT_CHARACTERISTIC_CONFIGURATION_DE
 251:.\BLEApplication.c ****             {
 252:.\BLEApplication.c ****                 charNotificationEnabled = writeParam.handleValPair.value.val[0];  
 422              		.loc 1 252 0
 423 018e 049B     		ldr	r3, [sp, #16]
 424 0190 1B78     		ldrb	r3, [r3]
 425 0192 3F4A     		ldr	r2, .L39+12
 426 0194 1372     		strb	r3, [r2, #8]
 253:.\BLEApplication.c ****                 if(charNotificationEnabled)
 427              		.loc 1 253 0
 428 0196 002B     		cmp	r3, #0
 429 0198 06D0     		beq	.L32
ARM GAS  C:\Users\Helon\AppData\Local\Temp\ccys0XsA.s 			page 13


 254:.\BLEApplication.c ****                 {               
 255:.\BLEApplication.c ****                     CommandMode=THROUGHT_MODE;
 430              		.loc 1 255 0
 431 019a 0122     		mov	r2, #1
 432 019c 3C4B     		ldr	r3, .L39+12
 433 019e 5A72     		strb	r2, [r3, #9]
 256:.\BLEApplication.c ****                     printf("+MODE=<THROUGHT_MODE>\r\n");
 434              		.loc 1 256 0
 435 01a0 4948     		ldr	r0, .L39+68
 436 01a2 FFF7FEFF 		bl	puts
 437              	.LVL45:
 438 01a6 6BE0     		b	.L1
 439              	.L32:
 257:.\BLEApplication.c ****                 }
 258:.\BLEApplication.c ****                 else
 259:.\BLEApplication.c ****                 {
 260:.\BLEApplication.c ****                     CommandMode=AT_COMMAND_MODE;
 440              		.loc 1 260 0
 441 01a8 0022     		mov	r2, #0
 442 01aa 394B     		ldr	r3, .L39+12
 443 01ac 5A72     		strb	r2, [r3, #9]
 261:.\BLEApplication.c ****                     printf("+MODE=<AT_COMMAND_MODE>\r\n");
 444              		.loc 1 261 0
 445 01ae 4748     		ldr	r0, .L39+72
 446 01b0 FFF7FEFF 		bl	puts
 447              	.LVL46:
 448 01b4 64E0     		b	.L1
 449              	.LVL47:
 450              	.L20:
 262:.\BLEApplication.c ****                 }
 263:.\BLEApplication.c ****             }   
 264:.\BLEApplication.c ****         break;
 265:.\BLEApplication.c ****         /* Check if the Client Characteristic Configuration Descriptor is
 266:.\BLEApplication.c ****          * written to. Notification is enabled or disabled accordingly.
 267:.\BLEApplication.c ****         */
 268:.\BLEApplication.c **** //            ‰ªéÊú∫Êé•Êî∂‰∏ªÊú∫ÁöÑÂÜôËØ∑Ê±ÇÔºåÂπ∂‰∏î‰ªéÊú∫Ë¶ÅÊúâÂÜôÂìçÂ∫î
 269:.\BLEApplication.c ****         case CYBLE_EVT_GATTS_WRITE_REQ:
 270:.\BLEApplication.c **** //            writeParam = *(CYBLE_GATTS_WRITE_REQ_PARAM_T *)eventParam;
 271:.\BLEApplication.c **** //            //Ëá™ÂÆö‰πâÊúçÂä°ÁöÑCUSTOM Characteristic
 272:.\BLEApplication.c **** //            if(writeParam.handleValPair.attrHandle == 
 273:.\BLEApplication.c **** //               CYBLE_TROUGHPUT_SERVICE_CUSTOM_CHARACTERISTIC_CHAR_HANDLE)
 274:.\BLEApplication.c **** //            {
 275:.\BLEApplication.c **** //                testCount+=writeParam.handleValPair.value.len;
 276:.\BLEApplication.c **** ////                UART_SpiUartWriteTxData(testCount);
 277:.\BLEApplication.c **** ////                printf("%ld\r\n",testCount);
 278:.\BLEApplication.c **** ////                printf("+RX=<0x");
 279:.\BLEApplication.c **** ////                for(i=0;i<writeParam.handleValPair.value.len;i++)
 280:.\BLEApplication.c **** ////                {
 281:.\BLEApplication.c **** ////                    printf("%02X",writeParam.handleValPair.value.val[i]);
 282:.\BLEApplication.c **** ////                }
 283:.\BLEApplication.c **** ////                printf(">\r\n");
 284:.\BLEApplication.c **** //            } 
 285:.\BLEApplication.c **** //            //Ëá™ÂÆö‰πâÊúçÂä°ÁöÑClient Characteristic
 286:.\BLEApplication.c **** //            if(writeParam.handleValPair.attrHandle == 
 287:.\BLEApplication.c **** //               CYBLE_TROUGHPUT_SERVICE_CUSTOM_CHARACTERISTIC_CLIENT_CHARACTERISTIC_CONFIGURATION_
 288:.\BLEApplication.c **** //            {
 289:.\BLEApplication.c **** //                charNotificationEnabled = writeParam.handleValPair.value.val[0];  
ARM GAS  C:\Users\Helon\AppData\Local\Temp\ccys0XsA.s 			page 14


 290:.\BLEApplication.c **** //                if(charNotificationEnabled)
 291:.\BLEApplication.c **** //                {               
 292:.\BLEApplication.c **** //                    CommandMode=THROUGHT_MODE;
 293:.\BLEApplication.c **** //                    printf("+MODE=<THROUGHT_MODE>\r\n");
 294:.\BLEApplication.c **** //                }
 295:.\BLEApplication.c **** //                else
 296:.\BLEApplication.c **** //                {
 297:.\BLEApplication.c **** //                    CommandMode=AT_COMMAND_MODE;
 298:.\BLEApplication.c **** //                    printf("+MODE=<AT_COMMAND_MODE>\r\n");
 299:.\BLEApplication.c **** //                }
 300:.\BLEApplication.c **** //            }   
 301:.\BLEApplication.c **** //            //Ëá™ÂÆö‰πâÊúçÂä°ÁöÑSPEEDTEST Characteristic
 302:.\BLEApplication.c **** //            if(writeParam.handleValPair.attrHandle == 
 303:.\BLEApplication.c **** //               CYBLE_TROUGHPUT_SERVICE_SPEEDTEST_CHAR_HANDLE)
 304:.\BLEApplication.c **** //            {
 305:.\BLEApplication.c **** //                TroughtTest_Flag = writeParam.handleValPair.value.val[0];                
 306:.\BLEApplication.c **** //            }               
 307:.\BLEApplication.c **** //            CyBle_GattsWriteRsp(cyBle_connHandle);
 308:.\BLEApplication.c ****         break;
 309:.\BLEApplication.c **** //        ÂÅö‰∏∫‰∏ªÊú∫Êó∂ÔºåÊé•Êî∂Âà∞‰ªéÊú∫ÁöÑÂÜôÂìçÂ∫î
 310:.\BLEApplication.c ****         case CYBLE_EVT_GATTC_WRITE_RSP:
 311:.\BLEApplication.c ****             /* Write response for the CCCD write; this means that the
 312:.\BLEApplication.c ****              * notifications are now enabled.
 313:.\BLEApplication.c ****              * Start timing measurements to calculate throughput.
 314:.\BLEApplication.c ****              */
 315:.\BLEApplication.c **** //            if(TroughtTest_Flag)//‰ªÖ‰ªÖÂìçÂ∫îÊµãËØïÈÄè‰º†ÈÄüÁéáÊåá‰ª§,ÂÖ∂‰ªñÂÜôËØ∑Ê±Ç‰∏çÂìçÂ∫î
 316:.\BLEApplication.c **** //            {                
 317:.\BLEApplication.c **** ////                TroughtTest_Flag=FALSE;
 318:.\BLEApplication.c **** //                UART_UartPutString("Calculating throughput. Please wait...\n\r");
 319:.\BLEApplication.c **** //                Timer_Enable();
 320:.\BLEApplication.c **** //            }
 321:.\BLEApplication.c ****         break;
 322:.\BLEApplication.c **** //        case CYBLE_EVT_GATTC_READ_RSP:
 323:.\BLEApplication.c **** //            readParam=*(CYBLE_GATTC_READ_RSP_PARAM_T*)eventParam;
 324:.\BLEApplication.c **** //            if((readParam.value.val[0]))
 325:.\BLEApplication.c **** //                printf("+NOTIFY=<ENABLE>\r\n");
 326:.\BLEApplication.c **** //            else
 327:.\BLEApplication.c **** //                printf("+NOTIFY=<DISABLE>\r\n");
 328:.\BLEApplication.c **** //        break;
 329:.\BLEApplication.c **** //        Êé•Êî∂‰ªéÊú∫ÂèëÈÄÅËøáÊù•ÁöÑÈÄè‰º†Êï∞ÊçÆ            
 330:.\BLEApplication.c ****         case CYBLE_EVT_GATTC_HANDLE_VALUE_NTF:
 331:.\BLEApplication.c ****             if(TroughtTest_Flag==TRUE)
 451              		.loc 1 331 0
 452 01b6 364B     		ldr	r3, .L39+12
 453 01b8 9B7A     		ldrb	r3, [r3, #10]
 454 01ba 012B     		cmp	r3, #1
 455 01bc 0DD1     		bne	.L33
 332:.\BLEApplication.c ****             {
 333:.\BLEApplication.c ****                 if(Central==Role)//‰ªÖÊµãËØïÈÄè‰º†ÈÄüÁéáÊó∂ÊúâÊïà
 456              		.loc 1 333 0
 457 01be 344B     		ldr	r3, .L39+12
 458 01c0 5B78     		ldrb	r3, [r3, #1]
 459 01c2 012B     		cmp	r3, #1
 460 01c4 5CD1     		bne	.L1
 461              	.LVL48:
 334:.\BLEApplication.c ****                 {
 335:.\BLEApplication.c ****                     handleValueNotification = (CYBLE_GATTC_HANDLE_VALUE_NTF_PARAM_T *)eventParam;
ARM GAS  C:\Users\Helon\AppData\Local\Temp\ccys0XsA.s 			page 15


 336:.\BLEApplication.c ****                     if(handleValueNotification->handleValPair.attrHandle == 0x000E)//NotifyÊùÉÈôêÁö
 462              		.loc 1 336 0
 463 01c6 8B89     		ldrh	r3, [r1, #12]
 464 01c8 0E2B     		cmp	r3, #14
 465 01ca 59D1     		bne	.L1
 337:.\BLEApplication.c ****                     {
 338:.\BLEApplication.c ****         //                printf("Len is %d",handleValueNotification->handleValPair.value.len);
 339:.\BLEApplication.c ****                         totalByteCounter += handleValueNotification->handleValPair.value.len;
 466              		.loc 1 339 0
 467 01cc 0B89     		ldrh	r3, [r1, #8]
 468 01ce 304A     		ldr	r2, .L39+12
 469 01d0 D168     		ldr	r1, [r2, #12]
 470              	.LVL49:
 471 01d2 8C46     		mov	ip, r1
 472 01d4 6344     		add	r3, r3, ip
 473 01d6 D360     		str	r3, [r2, #12]
 474 01d8 52E0     		b	.L1
 475              	.LVL50:
 476              	.L33:
 340:.\BLEApplication.c ****                     }
 341:.\BLEApplication.c ****     //                printf("ReceviceNotification\r\n");
 342:.\BLEApplication.c ****                 }
 343:.\BLEApplication.c ****             }
 344:.\BLEApplication.c ****             else
 345:.\BLEApplication.c ****             {
 346:.\BLEApplication.c ****                 if(Central==Role)//Êé•Êî∂‰ªéÊú∫ÂèëÈÄÅËøáÊù•ÁöÑÈÄè‰º†Êï∞ÊçÆ
 477              		.loc 1 346 0
 478 01da 2D4B     		ldr	r3, .L39+12
 479 01dc 5B78     		ldrb	r3, [r3, #1]
 480 01de 012B     		cmp	r3, #1
 481 01e0 4ED1     		bne	.L1
 482              	.LVL51:
 347:.\BLEApplication.c ****                 {
 348:.\BLEApplication.c ****                     handleValueNotification = (CYBLE_GATTC_HANDLE_VALUE_NTF_PARAM_T *)eventParam;
 349:.\BLEApplication.c ****                     if(handleValueNotification->handleValPair.attrHandle == 0x000E)//NotifyÊùÉÈôêÁö
 483              		.loc 1 349 0
 484 01e2 8B89     		ldrh	r3, [r1, #12]
 485 01e4 0E2B     		cmp	r3, #14
 486 01e6 4BD1     		bne	.L1
 487 01e8 06E0     		b	.L38
 488              	.LVL52:
 489              	.L35:
 350:.\BLEApplication.c ****                     {
 351:.\BLEApplication.c ****         //                printf("Len is %d",handleValueNotification->handleValPair.value.len);
 352:.\BLEApplication.c ****     //                    totalByteCounter += handleValueNotification->handleValPair.value.len;
 353:.\BLEApplication.c ****     //                    printf("%ld\r\n",totalByteCounter);
 354:.\BLEApplication.c **** //                        printf("+RX=<0x");
 355:.\BLEApplication.c ****                         for(i=0;i<handleValueNotification->handleValPair.value.len;i++)
 356:.\BLEApplication.c ****                         {
 357:.\BLEApplication.c **** //                            printf("%02X",handleValueNotification->handleValPair.value.val[i]);
 358:.\BLEApplication.c ****                             UART_UartPutChar(handleValueNotification->handleValPair.value.val[i]);
 490              		.loc 1 358 0 discriminator 3
 491 01ea 6368     		ldr	r3, [r4, #4]
 492 01ec 585D     		ldrb	r0, [r3, r5]
 493 01ee FFF7FEFF 		bl	UART_SpiUartWriteTxData
 494              	.LVL53:
 355:.\BLEApplication.c ****                         {
ARM GAS  C:\Users\Helon\AppData\Local\Temp\ccys0XsA.s 			page 16


 495              		.loc 1 355 0 discriminator 3
 496 01f2 0135     		add	r5, r5, #1
 497              	.LVL54:
 498 01f4 EDB2     		uxtb	r5, r5
 499              	.LVL55:
 500 01f6 00E0     		b	.L34
 501              	.LVL56:
 502              	.L38:
 503 01f8 0025     		mov	r5, #0
 504              	.LVL57:
 505              	.L34:
 355:.\BLEApplication.c ****                         {
 506              		.loc 1 355 0 is_stmt 0 discriminator 1
 507 01fa ABB2     		uxth	r3, r5
 508 01fc 2289     		ldrh	r2, [r4, #8]
 509 01fe 9342     		cmp	r3, r2
 510 0200 F3D3     		bcc	.L35
 511 0202 3DE0     		b	.L1
 512              	.LVL58:
 513              	.L18:
 359:.\BLEApplication.c ****                         }
 360:.\BLEApplication.c **** //                        printf("\r\n");
 361:.\BLEApplication.c ****                     }
 362:.\BLEApplication.c ****                 }
 363:.\BLEApplication.c ****             }
 364:.\BLEApplication.c ****             break;
 365:.\BLEApplication.c **** //        case CYBLE_EVT_GATTC_READ_BY_TYPE_RSP:
 366:.\BLEApplication.c **** //            DisAllCharResult=*((CYBLE_GATTC_READ_BY_TYPE_RSP_PARAM_T*)eventParam);
 367:.\BLEApplication.c **** //            printf("characteristic declaration is 0x%04X\r\n",DisAllCharResult.connHandle.bdHandl
 368:.\BLEApplication.c **** //            printf("attrLen is %d\r\n",DisAllCharResult.attrData.attrLen);   
 369:.\BLEApplication.c **** //            for(i=0;i<DisAllCharResult.attrData.attrLen;)
 370:.\BLEApplication.c **** //            {
 371:.\BLEApplication.c **** //                printf("Attribute Handle is 0x%02X%02X\r\n",DisAllCharResult.attrData.attrValue[i
 372:.\BLEApplication.c **** //                printf("Properties is 0x%02X\r\n",DisAllCharResult.attrData.attrValue[i+2]); 
 373:.\BLEApplication.c **** //                printf("Pointer Handle is 0x%02X%02X\r\n",DisAllCharResult.attrData.attrValue[i+4
 374:.\BLEApplication.c **** //                printf("UUID is 0x%02X%02X\r\n",DisAllCharResult.attrData.attrValue[i+6],DisAllCh
 375:.\BLEApplication.c **** //                i+=7;
 376:.\BLEApplication.c **** //            }
 377:.\BLEApplication.c **** ////            printf("uuid16 is 0x%04X\r\n",DisAllCharResult.uuid.uuid16); 
 378:.\BLEApplication.c **** ////            printf("uuidFormat is 0x%04X\r\n",DisAllCharResult.uuidFormat); 
 379:.\BLEApplication.c **** ////            printf("valueHandle is 0x%04X\r\n",DisAllCharResult.valueHandle);            
 380:.\BLEApplication.c **** //        break;
 381:.\BLEApplication.c **** //        Êü•ÊâæServerÁöÑÊâÄÊúâÁâπÂæÅÂÄº
 382:.\BLEApplication.c ****         case CYBLE_EVT_GATTC_FIND_INFO_RSP:
 383:.\BLEApplication.c ****             DisAllCharResult=*((CYBLE_GATTC_FIND_INFO_RSP_PARAM_T *)eventParam);
 514              		.loc 1 383 0 is_stmt 1
 515 0204 07AB     		add	r3, sp, #28
 516 0206 07CC     		ldmia	r4!, {r0, r1, r2}
 517 0208 07C3     		stmia	r3!, {r0, r1, r2}
 518              	.LVL59:
 519 020a 1A1C     		mov	r2, r3
 520 020c 2368     		ldr	r3, [r4]
 521 020e 1360     		str	r3, [r2]
 384:.\BLEApplication.c **** //            printf("+DISALLCHAR=<0x%02X%02X,",);
 385:.\BLEApplication.c **** //            printf("connHandle is 0x%04X\r\n",DisAllCharResult.connHandle.bdHandle);
 386:.\BLEApplication.c **** //            printf("uuidFormat is %d\r\n",DisAllCharResult.uuidFormat);
 387:.\BLEApplication.c **** //            printf("byteCount is %d\r\n",DisAllCharResult.handleValueList.byteCount);
ARM GAS  C:\Users\Helon\AppData\Local\Temp\ccys0XsA.s 			page 17


 388:.\BLEApplication.c ****             for(i=0;i<DisAllCharResult.handleValueList.byteCount;)
 522              		.loc 1 388 0
 523 0210 0024     		mov	r4, #0
 524              	.LVL60:
 525 0212 0BE0     		b	.L36
 526              	.LVL61:
 527              	.L37:
 389:.\BLEApplication.c ****             {                
 390:.\BLEApplication.c ****                 printf("+DIS_EVT=<0x%02X%02X,0x%02X%02X>\r\n",
 391:.\BLEApplication.c ****                     DisAllCharResult.handleValueList.list[i+1],DisAllCharResult.handleValueList.lis
 528              		.loc 1 391 0
 529 0214 089B     		ldr	r3, [sp, #32]
 530 0216 1819     		add	r0, r3, r4
 531 0218 4178     		ldrb	r1, [r0, #1]
 532 021a 1A5D     		ldrb	r2, [r3, r4]
 392:.\BLEApplication.c ****                     DisAllCharResult.handleValueList.list[i+3],DisAllCharResult.handleValueList.lis
 533              		.loc 1 392 0
 534 021c C378     		ldrb	r3, [r0, #3]
 535 021e 8078     		ldrb	r0, [r0, #2]
 390:.\BLEApplication.c ****                     DisAllCharResult.handleValueList.list[i+1],DisAllCharResult.handleValueList.lis
 536              		.loc 1 390 0
 537 0220 0090     		str	r0, [sp]
 538 0222 2B48     		ldr	r0, .L39+76
 539 0224 FFF7FEFF 		bl	printf
 540              	.LVL62:
 393:.\BLEApplication.c ****                 i=i+4;
 541              		.loc 1 393 0
 542 0228 0434     		add	r4, r4, #4
 543              	.LVL63:
 544 022a E4B2     		uxtb	r4, r4
 545              	.LVL64:
 546              	.L36:
 388:.\BLEApplication.c ****             {                
 547              		.loc 1 388 0 discriminator 1
 548 022c A3B2     		uxth	r3, r4
 549 022e 07AA     		add	r2, sp, #28
 550 0230 1289     		ldrh	r2, [r2, #8]
 551 0232 9342     		cmp	r3, r2
 552 0234 EED3     		bcc	.L37
 553 0236 23E0     		b	.L1
 554              	.LVL65:
 555              	.L7:
 394:.\BLEApplication.c ****             }
 395:.\BLEApplication.c ****         break;
 396:.\BLEApplication.c ****         case CYBLE_EVT_GAP_AUTH_REQ:
 397:.\BLEApplication.c ****             if(Role==Peripheral)//‰ªéÊú∫Êé•Êî∂‰∏ªÊú∫ÂèëËµ∑ËÆ§ËØÅËØ∑Ê±Ç
 556              		.loc 1 397 0
 557 0238 154B     		ldr	r3, .L39+12
 558 023a 5B78     		ldrb	r3, [r3, #1]
 559 023c 002B     		cmp	r3, #0
 560 023e 1FD1     		bne	.L1
 398:.\BLEApplication.c ****             {
 399:.\BLEApplication.c ****                 CyBle_GappAuthReqReply(cyBle_connHandle.bdHandle,&cyBle_authInfo);
 561              		.loc 1 399 0
 562 0240 184B     		ldr	r3, .L39+32
 563 0242 1878     		ldrb	r0, [r3]
 564 0244 2349     		ldr	r1, .L39+80
ARM GAS  C:\Users\Helon\AppData\Local\Temp\ccys0XsA.s 			page 18


 565              	.LVL66:
 566 0246 FFF7FEFF 		bl	CyBle_GappAuthReqReply
 567              	.LVL67:
 568 024a 19E0     		b	.L1
 569              	.LVL68:
 570              	.L9:
 400:.\BLEApplication.c ****             }
 401:.\BLEApplication.c ****             else
 402:.\BLEApplication.c ****             {
 403:.\BLEApplication.c **** //                CyBle_GappAuthReq();
 404:.\BLEApplication.c ****             }
 405:.\BLEApplication.c ****         break;    
 406:.\BLEApplication.c ****         case CYBLE_EVT_GAP_PASSKEY_DISPLAY_REQUEST://ÊòæÁ§∫ÈöèÊú∫‰∫ßÁîüÁöÑÈÖçÂØπÁ†Å
 407:.\BLEApplication.c **** //            PassKey=*(uint32*)eventParam;            
 408:.\BLEApplication.c ****             printf("+AUTHKEY=<%lu>\r\n",*(uint32 *)eventParam);
 571              		.loc 1 408 0
 572 024c 0968     		ldr	r1, [r1]
 573              	.LVL69:
 574 024e 2248     		ldr	r0, .L39+84
 575 0250 FFF7FEFF 		bl	printf
 576              	.LVL70:
 409:.\BLEApplication.c ****         break;
 577              		.loc 1 409 0
 578 0254 14E0     		b	.L1
 579              	.LVL71:
 580              	.L8:
 410:.\BLEApplication.c ****         case CYBLE_EVT_GAP_PASSKEY_ENTRY_REQUEST:
 411:.\BLEApplication.c ****             KEYBOARD=TURE;//Ê†áËÆ∞Ê≠§Êó∂Ê≠§ËÆæÂ§áÂÖ∑ÊúâËæìÂÖ•ËÉΩÂäõ
 581              		.loc 1 411 0
 582 0256 0122     		mov	r2, #1
 583 0258 0D4B     		ldr	r3, .L39+12
 584 025a 1A74     		strb	r2, [r3, #16]
 412:.\BLEApplication.c ****             printf("Please Input PassKey:\r\n");            
 585              		.loc 1 412 0
 586 025c 1F48     		ldr	r0, .L39+88
 587 025e FFF7FEFF 		bl	puts
 588              	.LVL72:
 413:.\BLEApplication.c ****         break;
 589              		.loc 1 413 0
 590 0262 0DE0     		b	.L1
 591              	.LVL73:
 592              	.L10:
 414:.\BLEApplication.c ****         case CYBLE_EVT_GAP_AUTH_COMPLETE:
 415:.\BLEApplication.c ****              printf("+AUTH=OK\r\n");
 593              		.loc 1 415 0
 594 0264 1E48     		ldr	r0, .L39+92
 595 0266 FFF7FEFF 		bl	puts
 596              	.LVL74:
 416:.\BLEApplication.c ****              AUTHFLAG=TURE;
 597              		.loc 1 416 0
 598 026a 0122     		mov	r2, #1
 599 026c 084B     		ldr	r3, .L39+12
 600 026e DA70     		strb	r2, [r3, #3]
 417:.\BLEApplication.c ****         break;
 601              		.loc 1 417 0
 602 0270 06E0     		b	.L1
 603              	.LVL75:
ARM GAS  C:\Users\Helon\AppData\Local\Temp\ccys0XsA.s 			page 19


 604              	.L11:
 418:.\BLEApplication.c ****         case CYBLE_EVT_GAP_AUTH_FAILED:            
 419:.\BLEApplication.c ****             printf("AT+ERR=%d\r\n",*(CYBLE_GAP_AUTH_FAILED_REASON_T*)eventParam);
 605              		.loc 1 419 0
 606 0272 0978     		ldrb	r1, [r1]
 607              	.LVL76:
 608 0274 1B48     		ldr	r0, .L39+96
 609 0276 FFF7FEFF 		bl	printf
 610              	.LVL77:
 420:.\BLEApplication.c ****             AUTHFLAG=FALSE;
 611              		.loc 1 420 0
 612 027a 0022     		mov	r2, #0
 613 027c 044B     		ldr	r3, .L39+12
 614 027e DA70     		strb	r2, [r3, #3]
 615              	.LVL78:
 616              	.L1:
 421:.\BLEApplication.c ****         break;
 422:.\BLEApplication.c ****         default:
 423:.\BLEApplication.c ****         break;
 424:.\BLEApplication.c ****     
 425:.\BLEApplication.c ****     }
 426:.\BLEApplication.c **** }
 617              		.loc 1 426 0
 618 0280 10B0     		add	sp, sp, #64
 619              		@ sp needed
 620 0282 70BD     		pop	{r4, r5, r6, pc}
 621              	.L40:
 622              		.align	2
 623              	.L39:
 624 0284 00000000 		.word	.L4
 625 0288 00000000 		.word	.LC1
 626 028c 08022440 		.word	1076101640
 627 0290 00000000 		.word	.LANCHOR0
 628 0294 10000000 		.word	.LC4
 629 0298 1C000000 		.word	.LC6
 630 029c 00000000 		.word	ConnParam
 631 02a0 28000000 		.word	.LC9
 632 02a4 00000000 		.word	cyBle_connHandle
 633 02a8 00000000 		.word	.LANCHOR1
 634 02ac 38000000 		.word	.LC13
 635 02b0 4C000000 		.word	.LC15
 636 02b4 60000000 		.word	.LC17
 637 02b8 00000000 		.word	.LC39
 638 02bc 00000000 		.word	cyBle_discoveryModeInfo
 639 02c0 6C000000 		.word	.LC20
 640 02c4 84000000 		.word	.LC22
 641 02c8 A0000000 		.word	.LC24
 642 02cc B8000000 		.word	.LC26
 643 02d0 D4000000 		.word	.LC28
 644 02d4 00000000 		.word	cyBle_authInfo
 645 02d8 F8000000 		.word	.LC31
 646 02dc 0C010000 		.word	.LC33
 647 02e0 24010000 		.word	.LC35
 648 02e4 30010000 		.word	.LC37
 649              		.cfi_endproc
 650              	.LFE35:
 651              		.size	StackEventHandler, .-StackEventHandler
ARM GAS  C:\Users\Helon\AppData\Local\Temp\ccys0XsA.s 			page 20


 652              		.section	.text.MyTimerIsr,"ax",%progbits
 653              		.align	2
 654              		.global	MyTimerIsr
 655              		.code	16
 656              		.thumb_func
 657              		.type	MyTimerIsr, %function
 658              	MyTimerIsr:
 659              	.LFB45:
 427:.\BLEApplication.c **** 
 428:.\BLEApplication.c **** 
 429:.\BLEApplication.c **** /******************************************************************************
 430:.\BLEApplication.c **** * Function Name: LowPowerManagement
 431:.\BLEApplication.c **** ***************************************************************************//**
 432:.\BLEApplication.c **** * 
 433:.\BLEApplication.c **** *  BLE‰ΩéÂäüËÄóÁÆ°ÁêÜ
 434:.\BLEApplication.c **** * 
 435:.\BLEApplication.c **** * \return
 436:.\BLEApplication.c **** *  None
 437:.\BLEApplication.c **** * 
 438:.\BLEApplication.c **** ******************************************************************************/
 439:.\BLEApplication.c **** //uint8_t size=0,ch[10]={0},i=0;
 440:.\BLEApplication.c **** void LowPowerManagement(void)
 441:.\BLEApplication.c **** {
 442:.\BLEApplication.c ****     /* Local variable to store the status of BLESS Hardware block */
 443:.\BLEApplication.c **** 		CYBLE_LP_MODE_T sleepMode;
 444:.\BLEApplication.c **** 		CYBLE_BLESS_STATE_T blessState;
 445:.\BLEApplication.c **** 	
 446:.\BLEApplication.c **** 		/* Put BLESS into Deep Sleep and check the return status */
 447:.\BLEApplication.c **** 		sleepMode = CyBle_EnterLPM(CYBLE_BLESS_DEEPSLEEP);
 448:.\BLEApplication.c **** 		
 449:.\BLEApplication.c **** 		/* Disable global interrupt to prevent changes from any other interrupt ISR */
 450:.\BLEApplication.c **** 		CyGlobalIntDisable;
 451:.\BLEApplication.c **** 	
 452:.\BLEApplication.c **** 		/* Check the Status of BLESS */
 453:.\BLEApplication.c **** 		blessState = CyBle_GetBleSsState();
 454:.\BLEApplication.c **** 
 455:.\BLEApplication.c **** 		if(sleepMode == CYBLE_BLESS_DEEPSLEEP)
 456:.\BLEApplication.c **** 		{
 457:.\BLEApplication.c **** 		    /* If the ECO has started or the BLESS can go to Deep Sleep, then place CPU 
 458:.\BLEApplication.c **** 			* to Deep Sleep */
 459:.\BLEApplication.c **** 			if(blessState == CYBLE_BLESS_STATE_ECO_ON || blessState == CYBLE_BLESS_STATE_DEEPSLEEP)
 460:.\BLEApplication.c **** 		    {
 461:.\BLEApplication.c **** //                printf("Device is going into DeepSleep!\r\n");
 462:.\BLEApplication.c ****                 Status_LED_Write(LED_ON);             
 463:.\BLEApplication.c ****                 while((UART_SpiUartGetTxBufferSize() + UART_GET_TX_FIFO_SR_VALID) != 0);//Á≠âÂæÖ‰∏≤
 464:.\BLEApplication.c ****                 UART_Sleep();
 465:.\BLEApplication.c **** 		        CySysPmDeepSleep();
 466:.\BLEApplication.c ****                 UART_Wakeup();
 467:.\BLEApplication.c ****                 CyDelay(5);
 468:.\BLEApplication.c ****                 UART_SpiUartClearRxBuffer();//Ê∏ÖÈô§‰∏≤Âè£Êé•Êî∂ÁºìÂÜ≤Âå∫
 469:.\BLEApplication.c ****                 UART_RX_WAKEUP_IRQ_ClearPending();
 470:.\BLEApplication.c **** //                UART_SCB_IRQ_ClearPending();
 471:.\BLEApplication.c ****                 UART_rx_wake_ClearInterrupt();                
 472:.\BLEApplication.c **** //                UART_RX_WAKEUP_IRQ_Disable();
 473:.\BLEApplication.c **** //                UART_UartPutString("Device is WakeUp!\r\n");                
 474:.\BLEApplication.c **** //                Âî§ÈÜíÂêé‰ΩøËÉΩ‰∏≤Âè£Êé•Êî∂‰∏≠Êñ≠
 475:.\BLEApplication.c **** //                  UART_SetCustomInterruptHandler(My_ISR_UART);            
ARM GAS  C:\Users\Helon\AppData\Local\Temp\ccys0XsA.s 			page 21


 476:.\BLEApplication.c ****                 LowPower_EN=FALSE;
 477:.\BLEApplication.c ****                 Status_LED_Write(LED_OFF);  
 478:.\BLEApplication.c **** 
 479:.\BLEApplication.c **** 		 	}
 480:.\BLEApplication.c **** 		}
 481:.\BLEApplication.c **** 		else if(sleepMode == CYBLE_BLESS_SLEEP)
 482:.\BLEApplication.c **** 		{
 483:.\BLEApplication.c **** 		    if(blessState != CYBLE_BLESS_STATE_EVENT_CLOSE)
 484:.\BLEApplication.c **** 		    {
 485:.\BLEApplication.c **** 				/* If the BLESS hardware block cannot go to Deep Sleep and BLE Event has not 
 486:.\BLEApplication.c **** 				* closed yet, then place CPU to Sleep */ 
 487:.\BLEApplication.c **** 		        CySysPmSleep();  
 488:.\BLEApplication.c **** 		    }
 489:.\BLEApplication.c **** 		}
 490:.\BLEApplication.c **** 		/* Re-enable global interrupt mask after wakeup */
 491:.\BLEApplication.c **** 		CyGlobalIntEnable;           
 492:.\BLEApplication.c ****         
 493:.\BLEApplication.c **** }
 494:.\BLEApplication.c **** 
 495:.\BLEApplication.c **** /******************************************************************************
 496:.\BLEApplication.c **** * Function Name: MY_ISR_USERBUTTON
 497:.\BLEApplication.c **** ***************************************************************************//**
 498:.\BLEApplication.c **** * 
 499:.\BLEApplication.c **** *  Âî§ÈÜíÊåâÈîÆ‰∏≠Êñ≠Â§ÑÁêÜÂáΩÊï∞
 500:.\BLEApplication.c **** * 
 501:.\BLEApplication.c **** * \return
 502:.\BLEApplication.c **** *  None
 503:.\BLEApplication.c **** * 
 504:.\BLEApplication.c **** ******************************************************************************/
 505:.\BLEApplication.c **** CY_ISR(MY_ISR_USERBUTTON)
 506:.\BLEApplication.c **** {
 507:.\BLEApplication.c **** //    isr_UserButton_ClearPending();
 508:.\BLEApplication.c **** //    UserButton_ClearInterrupt();
 509:.\BLEApplication.c **** ////    Ê∏ÖÈô§‰∏≤Âè£Êé•Êî∂ÁºìÂÜ≤Âå∫,Èò≤Ê≠¢‰øÆÊîπ‰∫Ü‰∏≤Âè£Ê≥¢ÁâπÁéá‰πãÂêé,ÂèëÈÄÅÁ´ØÊú™ÂèäÊó∂Áõ∏Â∫îÁö
 510:.\BLEApplication.c **** //    memset(RX_BUFFER,0,sizeof(RX_BUFFER));
 511:.\BLEApplication.c **** //    Buffer_Length=0;
 512:.\BLEApplication.c **** //    if(Peripheral==Role)
 513:.\BLEApplication.c **** //    {
 514:.\BLEApplication.c **** //        CyBle_GappStartAdvertisement(CYBLE_ADVERTISING_FAST);
 515:.\BLEApplication.c **** //    }
 516:.\BLEApplication.c **** //    StartScan=TRUE;
 517:.\BLEApplication.c **** //    printf("test!\r\n");
 518:.\BLEApplication.c **** }
 519:.\BLEApplication.c **** /******************************************************************************
 520:.\BLEApplication.c **** * Function Name: My_ISR_UART
 521:.\BLEApplication.c **** ***************************************************************************//**
 522:.\BLEApplication.c **** * 
 523:.\BLEApplication.c **** *  ‰∏≤Âè£Êé•Êî∂‰∏≠Êñ≠Â§ÑÁêÜÂáΩÊï∞
 524:.\BLEApplication.c **** * 
 525:.\BLEApplication.c **** * \return
 526:.\BLEApplication.c **** *  None
 527:.\BLEApplication.c **** * 
 528:.\BLEApplication.c **** ******************************************************************************/
 529:.\BLEApplication.c **** CY_ISR(My_ISR_UART)
 530:.\BLEApplication.c **** {
 531:.\BLEApplication.c **** //    uint8_t rxdata;
 532:.\BLEApplication.c ****     if(UART_GetRxInterruptSourceMasked()&UART_INTR_RX_NOT_EMPTY)//Âà§Êñ≠Êé•Êî∂‰∏≠Êñ≠ÁöÑÁ±ªÂûã
ARM GAS  C:\Users\Helon\AppData\Local\Temp\ccys0XsA.s 			page 22


 533:.\BLEApplication.c ****     {
 534:.\BLEApplication.c ****         rx_isover=TURE;
 535:.\BLEApplication.c ****         //ËØªÂèñ‰∏≤Âè£Êï∞ÊçÆ
 536:.\BLEApplication.c **** //        rxdata=UART_UartGetByte();
 537:.\BLEApplication.c **** //        if(rxdata!='\n')
 538:.\BLEApplication.c **** //        {
 539:.\BLEApplication.c **** //          RX_BUFFER[Buffer_Length]=rxdata;//ËØªÂèñ‰∏≤Âè£Êé•Êî∂ÁºìÂÜ≤Âå∫ÁöÑÊï∞ÊçÆ
 540:.\BLEApplication.c **** //          Buffer_Length++;
 541:.\BLEApplication.c **** //        }
 542:.\BLEApplication.c **** //        else
 543:.\BLEApplication.c **** //        {          
 544:.\BLEApplication.c **** //          RX_BUFFER[Buffer_Length]=rxdata;//ËØªÂèñ‰∏≤Âè£Êé•Êî∂ÁºìÂÜ≤Âå∫ÁöÑÊï∞ÊçÆ
 545:.\BLEApplication.c **** //          rx_isover=TURE;
 546:.\BLEApplication.c **** //        }
 547:.\BLEApplication.c ****     }
 548:.\BLEApplication.c **** //    UART_SpiUartClearRxBuffer();//Ê∏ÖÈô§‰∏≤Âè£Êé•Êî∂ÁºìÂÜ≤Âå∫
 549:.\BLEApplication.c **** //    UART_RX_WAKEUP_IRQ_ClearPending();
 550:.\BLEApplication.c **** //    UART_SCB_IRQ_ClearPending();
 551:.\BLEApplication.c **** //    UART_rx_wake_ClearInterrupt();    
 552:.\BLEApplication.c ****     UART_ClearRxInterruptSource(UART_INTR_RX_NOT_EMPTY);
 553:.\BLEApplication.c ****   
 554:.\BLEApplication.c **** }
 555:.\BLEApplication.c **** 
 556:.\BLEApplication.c **** /******************************************************************************
 557:.\BLEApplication.c **** * Function Name: SystemInitialization
 558:.\BLEApplication.c **** ***************************************************************************//**
 559:.\BLEApplication.c **** * 
 560:.\BLEApplication.c **** *  BLEÂçèËÆÆÊ†à„ÄÅÂ§ñËÆæÂàùÂßãÂåñ
 561:.\BLEApplication.c **** * 
 562:.\BLEApplication.c **** * \return
 563:.\BLEApplication.c **** *  None
 564:.\BLEApplication.c **** * 
 565:.\BLEApplication.c **** ******************************************************************************/
 566:.\BLEApplication.c **** void SystemInitialization(void)
 567:.\BLEApplication.c **** {
 568:.\BLEApplication.c **** //    ÊµÅÊéßÂºïËÑöÁöÑÂàùÂßãÂåñ
 569:.\BLEApplication.c ****     CTS_SetDriveMode(CTS_DM_STRONG);//ÊµÅÊéßÂºïËÑöËÆæÁΩÆ‰∏∫Êé®ÊåΩËæìÂá∫
 570:.\BLEApplication.c ****     CTS_Write(CTS_OFF);//ÊµÅÊéßÊòØ‰ΩéÁîµÂπ≥ÊúâÊïà
 571:.\BLEApplication.c **** //    uint16_t counter;
 572:.\BLEApplication.c ****     //Â≠òÊîæNotifyÂÄºÁöÑÊï∞ÁªÑÂàùÂßãÂåñ
 573:.\BLEApplication.c **** //    for(counter = 0; counter < 20; counter++)
 574:.\BLEApplication.c **** //    {
 575:.\BLEApplication.c **** //        buffer[counter] = counter;
 576:.\BLEApplication.c **** //    }
 577:.\BLEApplication.c **** //    ÂàùÂßãÂåñÂÜôËØ∑Ê±ÇÊï∞ÊçÆ
 578:.\BLEApplication.c ****     writeRequestData.attrHandle=CYBLE_TROUGHPUT_SERVICE_CUSTOM_CHARACTERISTIC_CLIENT_CHARACTERISTIC
 579:.\BLEApplication.c ****     writeRequestData.value=cccdNotifFlagSetStruct;
 580:.\BLEApplication.c **** //    ÂàùÂßãÂåñÂπøÊí≠Èó¥ÈöîÂíåÂπøÂëäË∂ÖÊó∂Êó∂Èó¥
 581:.\BLEApplication.c **** //    updateadvparam.advParam->advIntvMin=CYBLE_FAST_ADV_INT_MIN;
 582:.\BLEApplication.c **** //    updateadvparam.advParam->advIntvMax=CYBLE_FAST_ADV_INT_MAX;
 583:.\BLEApplication.c **** //    updateadvparam.advTo=CYBLE_FAST_ADV_TIMEOUT;
 584:.\BLEApplication.c **** //    ConfigUartInit();
 585:.\BLEApplication.c **** //    SetUartConfiguration(BAUD_9600);    
 586:.\BLEApplication.c ****     Timer_Init();
 587:.\BLEApplication.c ****     TimerInterrupt_StartEx(MyTimerIsr);
 588:.\BLEApplication.c ****     UART_Start();
 589:.\BLEApplication.c ****   //    UART_SCB_IRQ_StartEx(My_ISR_UART);   
ARM GAS  C:\Users\Helon\AppData\Local\Temp\ccys0XsA.s 			page 23


 590:.\BLEApplication.c **** //    isr_UserButton_StartEx(MY_ISR_USERBUTTON);
 591:.\BLEApplication.c ****     LedInit();
 592:.\BLEApplication.c ****     CyBle_Start(StackEventHandler);
 593:.\BLEApplication.c ****     
 594:.\BLEApplication.c **** }
 595:.\BLEApplication.c **** 
 596:.\BLEApplication.c **** /******************************************************************************
 597:.\BLEApplication.c **** * Function Name: ConfigUartInit
 598:.\BLEApplication.c **** ***************************************************************************//**
 599:.\BLEApplication.c **** * 
 600:.\BLEApplication.c **** *  UARTÈÖçÁΩÆÂàùÂßãÂåñ
 601:.\BLEApplication.c **** * 
 602:.\BLEApplication.c **** * \return
 603:.\BLEApplication.c **** *  None   
 604:.\BLEApplication.c **** * 
 605:.\BLEApplication.c **** ******************************************************************************/
 606:.\BLEApplication.c **** void ConfigUartInit(void)
 607:.\BLEApplication.c **** {   
 608:.\BLEApplication.c **** //    configUart.mode=UART_UART_MODE_STD;         /* mode: Standard */ 
 609:.\BLEApplication.c **** //    configUart.direction=UART_UART_TX_RX;       /* direction: RX + TX */ 
 610:.\BLEApplication.c **** //    configUart.dataBits=8;                      /* dataBits: 8 bits */
 611:.\BLEApplication.c **** //    configUart.parity=UART_UART_PARITY_NONE;    /* parity: None */
 612:.\BLEApplication.c **** //    configUart.stopBits=UART_UART_STOP_BITS_1;  /* stopBits: 1 bit */ 
 613:.\BLEApplication.c **** //    configUart.oversample=16;                   /* oversample: 16u */
 614:.\BLEApplication.c **** //    configUart.enableIrdaLowPower=0;            /* enableIrdaLowPower: disable */
 615:.\BLEApplication.c **** //    configUart.enableMedianFilter=1;            /* enableMedianFilter: enable */
 616:.\BLEApplication.c **** //    configUart.enableRetryNack=0;               /* enableRetryNack: disable */
 617:.\BLEApplication.c **** //    configUart.enableInvertedRx=0;              /* enableInvertedRx: disable */
 618:.\BLEApplication.c **** //    configUart.dropOnParityErr=0;               /* dropOnParityErr: disable */
 619:.\BLEApplication.c **** //    configUart.dropOnFrameErr=0;                /* dropOnFrameErr: disable */
 620:.\BLEApplication.c **** //    configUart.enableWake=0;                    /* enableWake: disable */
 621:.\BLEApplication.c **** //    configUart.rxBufferSize=UART_RX_BUFFER;   /* rxBufferSize: software buffer 10 bytes */
 622:.\BLEApplication.c **** //    configUart.rxBuffer=bufferRx;               /* rxBuffer: RX software buffer enable */ 
 623:.\BLEApplication.c **** //    configUart.txBufferSize=UART_TX_BUFFER;   /* txBufferSize: software buffer 10 bytes */
 624:.\BLEApplication.c **** //    configUart.txBuffer=bufferTx;               /* txBuffer: TX software buffer enable */
 625:.\BLEApplication.c **** //    configUart.enableMultiproc=0;               /* enableMultiproc: disable */
 626:.\BLEApplication.c **** //    configUart.multiprocAcceptAddr=0;           /* multiprocAcceptAddr: disable */ 
 627:.\BLEApplication.c **** //    configUart.multiprocAddr=0;                 /* multiprocAddr: N/A for this configuration */ 
 628:.\BLEApplication.c **** //    configUart.multiprocAddrMask=0;             /* multiprocAddrMask: N/A for this configuration 
 629:.\BLEApplication.c **** //    configUart.enableInterrupt=1;               /* enableInterrupt: enable to process software bu
 630:.\BLEApplication.c **** //    configUart.rxInterruptMask=UART_INTR_RX_NOT_EMPTY; /* rxInterruptMask: enable NOT_EMPTY for R
 631:.\BLEApplication.c **** //    configUart.rxTriggerLevel=0;               /* rxTriggerLevel: N/A for this configuration */ 
 632:.\BLEApplication.c **** //    configUart.txInterruptMask=0;              /* txInterruptMask: NOT_FULL is enabled when there
 633:.\BLEApplication.c **** //    configUart.txTriggerLevel=0;               /* txTriggerLevel: N/A for this configuration */ 
 634:.\BLEApplication.c **** }
 635:.\BLEApplication.c **** /******************************************************************************
 636:.\BLEApplication.c **** * Function Name: SetUartConfiguration
 637:.\BLEApplication.c **** ***************************************************************************//**
 638:.\BLEApplication.c **** * 
 639:.\BLEApplication.c **** *  ËÆæÁΩÆ‰∏≤Âè£ÈÖçÁΩÆ
 640:.\BLEApplication.c **** * \param  DIVIDER_CLOCK:ÈÖçÁΩÆÊ≥¢ÁâπÁéáÁöÑÊó∂ÈíüÂàÜÈ¢ëÔºå‰∏çÂêåÁöÑÈ¢ëÁéáÂàÜÈ¢ëÁ≥ªÁªü‰∏çÂêå„ÄÇ
 641:.\BLEApplication.c **** * \return
 642:.\BLEApplication.c **** *   CYRET_SUCCESS    //Successful
 643:.\BLEApplication.c **** *   CYRET_BAD_PARAM  //Uknowns operation mode - no actions 
 644:.\BLEApplication.c **** ******************************************************************************/
 645:.\BLEApplication.c **** void SetUartConfiguration(uint32_t DIVIDER_CLOCK) 
 646:.\BLEApplication.c **** {
ARM GAS  C:\Users\Helon\AppData\Local\Temp\ccys0XsA.s 			page 24


 647:.\BLEApplication.c **** //    cystatus status = CYRET_SUCCESS; 
 648:.\BLEApplication.c **** //    UART_Stop();                    /* Disable component before configuration change */ 
 649:.\BLEApplication.c **** //    /* Change clock divider */
 650:.\BLEApplication.c **** //    UART_CLOCK_Stop();
 651:.\BLEApplication.c **** //    UART_CLOCK_SetFractionalDividerRegister(DIVIDER_CLOCK, 0u); 
 652:.\BLEApplication.c **** //    UART_CLOCK_Start();
 653:.\BLEApplication.c **** //    /* Configure to UART operation */ 
 654:.\BLEApplication.c **** //    UART_UartInit(&configUart);          
 655:.\BLEApplication.c **** //    UART_Start();                       /* Enable component after configuration change */     
 656:.\BLEApplication.c **** }
 657:.\BLEApplication.c **** 
 658:.\BLEApplication.c **** /******************************************************************************
 659:.\BLEApplication.c **** * Function Name: LedInit
 660:.\BLEApplication.c **** ***************************************************************************//**
 661:.\BLEApplication.c **** * 
 662:.\BLEApplication.c **** *  Áä∂ÊÄÅÁÅØÂàùÂßãÂåñ
 663:.\BLEApplication.c **** * 
 664:.\BLEApplication.c **** * \return
 665:.\BLEApplication.c **** *  None
 666:.\BLEApplication.c **** * 
 667:.\BLEApplication.c **** ******************************************************************************/
 668:.\BLEApplication.c **** void LedInit(void)
 669:.\BLEApplication.c **** {
 670:.\BLEApplication.c ****     Status_LED_SetDriveMode(Status_LED_DM_STRONG);
 671:.\BLEApplication.c ****     Connected_LED_SetDriveMode(Connected_LED_DM_STRONG);
 672:.\BLEApplication.c ****     Status_LED_Write(LED_OFF);
 673:.\BLEApplication.c ****     Connected_LED_Write(LED_OFF);
 674:.\BLEApplication.c **** }
 675:.\BLEApplication.c **** 
 676:.\BLEApplication.c **** /******************************************************************************
 677:.\BLEApplication.c **** * Function Name: Parser_UartData
 678:.\BLEApplication.c **** ***************************************************************************//**
 679:.\BLEApplication.c **** * 
 680:.\BLEApplication.c **** *  Ëß£ÊûêÊé•Êî∂Âà∞ÁöÑ‰∏≤Âè£Êï∞ÊçÆ
 681:.\BLEApplication.c **** * \param  SerialData:ÊåáÂêëcharÂûãÁöÑÊåáÈíà
 682:.\BLEApplication.c **** * \return
 683:.\BLEApplication.c **** *  None
 684:.\BLEApplication.c **** * 
 685:.\BLEApplication.c **** ******************************************************************************/
 686:.\BLEApplication.c **** void Parser_UartData(const char* SerialData)
 687:.\BLEApplication.c **** {
 688:.\BLEApplication.c ****     if(NULL==SerialData)
 689:.\BLEApplication.c ****         return;
 690:.\BLEApplication.c ****     uint8_t At_Command_Idex=0,i=0;
 691:.\BLEApplication.c ****     uint8_t idx=0;    
 692:.\BLEApplication.c ****     int16_t AdvMin,AdvMax;
 693:.\BLEApplication.c ****     char8 Name[27]={0};
 694:.\BLEApplication.c ****     char AdvData[31]={0};
 695:.\BLEApplication.c ****     char StrAdvData[62]={0};
 696:.\BLEApplication.c ****     char StrAdvDataLength[2]={0};
 697:.\BLEApplication.c ****     char AdvDataLength=0;
 698:.\BLEApplication.c ****     char AdvParamArray[2]={0};
 699:.\BLEApplication.c ****     char AdvParam=0;
 700:.\BLEApplication.c ****     uint32 WriteDataToFlash=0;
 701:.\BLEApplication.c ****     volatile uint8_t test=0;
 702:.\BLEApplication.c **** //    double connintv=0;
 703:.\BLEApplication.c **** //    uint16 supervisionTO=0;
ARM GAS  C:\Users\Helon\AppData\Local\Temp\ccys0XsA.s 			page 25


 704:.\BLEApplication.c ****     CYBLE_API_RESULT_T API_RESULT=0;
 705:.\BLEApplication.c ****     uint8_t STAUS_T=0;
 706:.\BLEApplication.c ****     CYBLE_GATTC_FIND_INFO_REQ_T range;    
 707:.\BLEApplication.c ****     CYBLE_GAPP_DISC_DATA_T advDiscData;
 708:.\BLEApplication.c **** //    CYBLE_CONN_HANDLE_T  connHandle; 
 709:.\BLEApplication.c **** //     uint8 bdHandle=0;
 710:.\BLEApplication.c ****     At_Command_Idex=Command_Identify(SerialData);
 711:.\BLEApplication.c ****     switch(At_Command_Idex)
 712:.\BLEApplication.c ****     {
 713:.\BLEApplication.c **** //        ÊµãËØï‰∏≤Âè£ÊòØÂê¶Ê≠£Â∏∏----‰∏ª‰ªéÊúâÊïà
 714:.\BLEApplication.c ****         case _AT:
 715:.\BLEApplication.c **** //            printf("OK\r\n");
 716:.\BLEApplication.c ****             printf("AT+OK\r\n");
 717:.\BLEApplication.c ****         break;
 718:.\BLEApplication.c **** //        ËΩØÂ§ç‰Ωç----‰∏ª‰ªéÊúâÊïà
 719:.\BLEApplication.c ****         case RESET:
 720:.\BLEApplication.c ****             printf("AT+OK\r\n");
 721:.\BLEApplication.c **** //            printf("AT+RESET=1\r\n");
 722:.\BLEApplication.c **** //            printf("OK\r\n");
 723:.\BLEApplication.c ****             while((UART_SpiUartGetTxBufferSize() + UART_GET_TX_FIFO_SR_VALID) != 0);//Á≠âÂæÖ‰∏≤Âè£Á
 724:.\BLEApplication.c ****             CySoftwareReset();
 725:.\BLEApplication.c ****         break;
 726:.\BLEApplication.c ****         case REFAC:
 727:.\BLEApplication.c ****         break;
 728:.\BLEApplication.c **** //         ÂΩìÂâçÂõ∫‰ª∂ÁâàÊú¨ÁöÑÊü•ËØ¢
 729:.\BLEApplication.c ****         case VERSION:
 730:.\BLEApplication.c ****             if(SerialData[11]=='?')
 731:.\BLEApplication.c ****                 printf("+VERSION=Ver1.4\r\n");
 732:.\BLEApplication.c ****             else
 733:.\BLEApplication.c ****             {
 734:.\BLEApplication.c ****                 printf("AT+ERR=5\r\n");//Ë°®Á§∫Ê≤°ÊúâËØ•ATÂëΩ‰ª§     
 735:.\BLEApplication.c ****             }
 736:.\BLEApplication.c ****         break;
 737:.\BLEApplication.c **** //            ÊöÇÊó∂Êó†ÊïàÔºåÂõ∫ÂÆö‰∏∫9600ÁöÑÊ≥¢ÁâπÁéá
 738:.\BLEApplication.c ****         case BAUD:
 739:.\BLEApplication.c **** //            idx=SerialData[8];             
 740:.\BLEApplication.c **** //            UartBuadRate_Handler(idx);
 741:.\BLEApplication.c ****         break;
 742:.\BLEApplication.c **** //            MACÂú∞ÂùÄÊü•ËØ¢----‰∏ª‰ªéÊúâÊïà
 743:.\BLEApplication.c ****         case LADDR:
 744:.\BLEApplication.c ****             idx=SerialData[9]; 
 745:.\BLEApplication.c ****             if('?'==idx)
 746:.\BLEApplication.c ****                 CyBle_GetDeviceAddress(&DeviceAddr);
 747:.\BLEApplication.c ****                 printf("+LADDR:<0x%02X%02X%02X%02X%02X%02X>\r\n",                  
 748:.\BLEApplication.c ****                     DeviceAddr.bdAddr[5],
 749:.\BLEApplication.c ****                     DeviceAddr.bdAddr[4],
 750:.\BLEApplication.c ****                     DeviceAddr.bdAddr[3],
 751:.\BLEApplication.c ****                     DeviceAddr.bdAddr[2],
 752:.\BLEApplication.c ****                     DeviceAddr.bdAddr[1],
 753:.\BLEApplication.c ****                     DeviceAddr.bdAddr[0]                             
 754:.\BLEApplication.c ****                   );
 755:.\BLEApplication.c ****         break;
 756:.\BLEApplication.c **** //                ËÆæÂ§áÂêçÊü•ËØ¢Âèä‰øÆÊîπ---‰ªéÊú∫ÊúâÊïà
 757:.\BLEApplication.c ****         case NAME:
 758:.\BLEApplication.c ****              idx=SerialData[8];
 759:.\BLEApplication.c ****              if(Peripheral==Role)
 760:.\BLEApplication.c ****              {
ARM GAS  C:\Users\Helon\AppData\Local\Temp\ccys0XsA.s 			page 26


 761:.\BLEApplication.c ****                 switch(idx)
 762:.\BLEApplication.c ****                 {
 763:.\BLEApplication.c ****                     case '?':
 764:.\BLEApplication.c ****                         CyBle_GapGetLocalName(Name);
 765:.\BLEApplication.c ****                         printf("+NAME=<%s>\r\n",Name);
 766:.\BLEApplication.c **** //                        free(Name);
 767:.\BLEApplication.c ****                     break;
 768:.\BLEApplication.c ****                     case '<':
 769:.\BLEApplication.c **** //                        if((strchr((char*)(SerialData+9),'>')-(SerialData+9))>24)
 770:.\BLEApplication.c **** //                            printf("AT+ERR=6\r\n");//Ë°®Á§∫ËÆæÁΩÆÁöÑÂêçÂ≠óËøáÈïø
 771:.\BLEApplication.c **** //                        test=strchr((char*)(SerialData+9),'>')-(SerialData+9);
 772:.\BLEApplication.c ****                         if((strchr((char*)(SerialData+9),'>')-(SerialData+9))>23)
 773:.\BLEApplication.c ****                         {
 774:.\BLEApplication.c ****                             printf("AT+ERR=6\r\n");//Ë°®Á§∫ËÆæÁΩÆÁöÑÂêçÂ≠óËøáÈïø
 775:.\BLEApplication.c ****                             return;
 776:.\BLEApplication.c ****                         }
 777:.\BLEApplication.c ****                         if((CYBLE_STATE_CONNECTED!=CyBle_GetState()))
 778:.\BLEApplication.c ****                         {
 779:.\BLEApplication.c ****                             CyBle_GappStopAdvertisement();
 780:.\BLEApplication.c ****                             memset(Name,0,sizeof(char8)*27);
 781:.\BLEApplication.c ****                             memcpy(Name,RX_BUFFER+9,Buffer_Length-11);
 782:.\BLEApplication.c ****                             API_RESULT=CyBle_GapSetLocalName(Name);                            
 783:.\BLEApplication.c ****                             if(API_RESULT==CYBLE_ERROR_OK)
 784:.\BLEApplication.c ****                             {
 785:.\BLEApplication.c ****                                 printf("AT+OK\r\n");
 786:.\BLEApplication.c **** //                                printf("AT+ NAME=<%s>\r\n",Name);
 787:.\BLEApplication.c **** //                                printf("OK\r\n");
 788:.\BLEApplication.c ****                             }
 789:.\BLEApplication.c ****                             else
 790:.\BLEApplication.c ****                             {
 791:.\BLEApplication.c ****                                 printf("AT+ERR=2\r\n");//Ë°®Á§∫ÂëΩ‰ª§ËÆæÁΩÆÂ§±Ë¥•
 792:.\BLEApplication.c ****                             }
 793:.\BLEApplication.c **** //                            free(Name);
 794:.\BLEApplication.c **** //                            CyBle_GappStartAdvertisement(CYBLE_ADVERTISING_FAST);
 795:.\BLEApplication.c ****                         }
 796:.\BLEApplication.c ****                         else
 797:.\BLEApplication.c ****                         {
 798:.\BLEApplication.c ****                                 printf("AT+ERR=3\r\n");//Ë°®Á§∫ÂΩìÂâçÁä∂ÊÄÅ‰∏çÊîØÊåÅËØ•ÂëΩ‰ª§
 799:.\BLEApplication.c **** //                            printf("+NAME=<INVALID>\r\n"); 
 800:.\BLEApplication.c ****                         }
 801:.\BLEApplication.c ****                     break;
 802:.\BLEApplication.c ****                 }                   
 803:.\BLEApplication.c ****              }
 804:.\BLEApplication.c ****             else
 805:.\BLEApplication.c ****             {
 806:.\BLEApplication.c **** //                printf("+NAME=<INVALID>\r\n"); 
 807:.\BLEApplication.c ****                 printf("AT+ERR=4\r\n");//Ë°®Á§∫ÂΩìÂâçËßíËâ≤‰∏çÊîØÊåÅËØ•ÂëΩ‰ª§ 
 808:.\BLEApplication.c ****             }
 809:.\BLEApplication.c ****                 
 810:.\BLEApplication.c ****         break;
 811:.\BLEApplication.c ****         case CPIN:
 812:.\BLEApplication.c ****         break;
 813:.\BLEApplication.c **** //            ÂèëÂ∞ÑÂäüÁéáÊü•ËØ¢Âèä‰øÆÊîπ----‰ªéÊú∫ÊúâÊïà
 814:.\BLEApplication.c ****         case TXP:
 815:.\BLEApplication.c ****             idx=SerialData[7];
 816:.\BLEApplication.c ****             if(Role==Peripheral)
 817:.\BLEApplication.c ****                 TxPower_Handler(idx);
ARM GAS  C:\Users\Helon\AppData\Local\Temp\ccys0XsA.s 			page 27


 818:.\BLEApplication.c ****              else
 819:.\BLEApplication.c ****             {
 820:.\BLEApplication.c **** //                printf("+TXP=<INVALID>\r\n"); 
 821:.\BLEApplication.c ****                 printf("AT+ERR=4\r\n");//Ë°®Á§∫ÂΩìÂâçËßíËâ≤‰∏çÊîØÊåÅËØ•ÂëΩ‰ª§ 
 822:.\BLEApplication.c ****             }
 823:.\BLEApplication.c ****         break;
 824:.\BLEApplication.c **** //            ÂπøÊí≠Êï∞ÊçÆÁöÑ‰øÆÊîπÂèäÊü•ËØ¢----‰ªéÊú∫ÊúâÊïà
 825:.\BLEApplication.c ****         case ADVD:
 826:.\BLEApplication.c ****             idx=SerialData[8];
 827:.\BLEApplication.c ****             if(Peripheral==Role)
 828:.\BLEApplication.c ****             {
 829:.\BLEApplication.c ****                 if(CYBLE_STATE_ADVERTISING==CyBle_GetState())
 830:.\BLEApplication.c ****                 {
 831:.\BLEApplication.c ****                     switch(idx)
 832:.\BLEApplication.c ****                     {
 833:.\BLEApplication.c ****                         case '<':                        
 834:.\BLEApplication.c ****                             memset(advDiscData.advData,0,CYBLE_GAP_MAX_ADV_DATA_LEN);
 835:.\BLEApplication.c ****                             memcpy(StrAdvDataLength,SerialData+9,2);
 836:.\BLEApplication.c ****                             StrToHex(&AdvDataLength,StrAdvDataLength,1);
 837:.\BLEApplication.c ****                             advDiscData.advDataLen=AdvDataLength;
 838:.\BLEApplication.c ****                             memcpy(StrAdvData,SerialData+12,AdvDataLength*2);
 839:.\BLEApplication.c ****                             StrToHex(AdvData,StrAdvData,sizeof(StrAdvData)/sizeof(char)/2);
 840:.\BLEApplication.c ****                             memcpy(advDiscData.advData,AdvData,advDiscData.advDataLen);
 841:.\BLEApplication.c ****                             API_RESULT=CyBle_GapUpdateAdvData(&advDiscData,NULL);
 842:.\BLEApplication.c ****                             if(CYBLE_ERROR_OK==API_RESULT)
 843:.\BLEApplication.c ****                             {
 844:.\BLEApplication.c ****     //                            printf("+ADVD=<SUCCESS>\r\n");
 845:.\BLEApplication.c ****                                 cyBle_discoveryModeInfo.advData->advDataLen=AdvDataLength;
 846:.\BLEApplication.c ****                                 memcpy(cyBle_discoveryModeInfo.advData->advData,AdvData,AdvDataLeng
 847:.\BLEApplication.c ****                                 printf("AT+OK\r\n");
 848:.\BLEApplication.c ****                             }
 849:.\BLEApplication.c ****                             else
 850:.\BLEApplication.c ****                             {
 851:.\BLEApplication.c ****                                 printf("AT+ERR=2\r\n");//Ë°®Á§∫ÂëΩ‰ª§ËÆæÁΩÆÂ§±Ë¥•
 852:.\BLEApplication.c ****                             }
 853:.\BLEApplication.c ****                         break;
 854:.\BLEApplication.c ****                         case '?':
 855:.\BLEApplication.c ****                             printf("+ADVD=<0x");
 856:.\BLEApplication.c ****                             for(i=0;i<cyBle_discoveryModeInfo.advData->advDataLen;i++)
 857:.\BLEApplication.c ****                             {
 858:.\BLEApplication.c ****                                 printf("%02X",cyBle_discoveryModeInfo.advData->advData[i]);
 859:.\BLEApplication.c ****                             }
 860:.\BLEApplication.c ****                             printf(">\r\n");
 861:.\BLEApplication.c ****                         break;
 862:.\BLEApplication.c ****                     }
 863:.\BLEApplication.c ****                 }
 864:.\BLEApplication.c ****                 else
 865:.\BLEApplication.c ****                 {
 866:.\BLEApplication.c ****                     printf("AT+ERR=3\r\n");//Ë°®Á§∫ÂΩìÂâçÁä∂ÊÄÅ‰∏çÊîØÊåÅËØ•ÂëΩ‰ª§
 867:.\BLEApplication.c ****                 }
 868:.\BLEApplication.c ****             }                
 869:.\BLEApplication.c ****             else
 870:.\BLEApplication.c ****             {
 871:.\BLEApplication.c **** //                printf("+ADVD=<INVALID>\r\n");
 872:.\BLEApplication.c ****                 printf("AT+ERR=4\r\n");//Ë°®Á§∫ÂΩìÂâçËßíËâ≤‰∏çÊîØÊåÅËØ•ÂëΩ‰ª§
 873:.\BLEApplication.c ****             }
 874:.\BLEApplication.c ****         break;
ARM GAS  C:\Users\Helon\AppData\Local\Temp\ccys0XsA.s 			page 28


 875:.\BLEApplication.c **** //            ÂπøÊí≠Èó¥ÈöîÁöÑ‰øÆÊîπÂèäÊü•ËØ¢----‰ªéÊú∫ÊúâÊïà
 876:.\BLEApplication.c ****         case ADVI:            
 877:.\BLEApplication.c ****             if(Role==Peripheral)
 878:.\BLEApplication.c ****             {
 879:.\BLEApplication.c ****                 idx=SerialData[8];  
 880:.\BLEApplication.c ****                 if((CYBLE_STATE_CONNECTED!=CyBle_GetState()))
 881:.\BLEApplication.c ****                 {
 882:.\BLEApplication.c ****                     switch(idx)
 883:.\BLEApplication.c ****                     {
 884:.\BLEApplication.c ****                         case '?':
 885:.\BLEApplication.c ****                         AdvMin=(cyBle_discoveryModeInfo.advParam->advIntvMin)*0.625;
 886:.\BLEApplication.c ****                         AdvMax=(cyBle_discoveryModeInfo.advParam->advIntvMax)*0.625;               
 887:.\BLEApplication.c ****                         printf("+ADVI=<MIN=%hdms,MAX=%hdms,TIMEOUT=%hus>\r\n",AdvMin,
 888:.\BLEApplication.c ****                         AdvMax,cyBle_discoveryModeInfo.advTo);
 889:.\BLEApplication.c ****                         while((UART_SpiUartGetTxBufferSize() + UART_GET_TX_FIFO_SR_VALID) != 0);//Á
 890:.\BLEApplication.c ****                         break;
 891:.\BLEApplication.c ****                         case '<':
 892:.\BLEApplication.c ****     //                    Âè™ÊúâÂÅúÊ≠¢ÂπøÊí≠‰∫Ü‰øÆÊîπÊâçÊúâÊïà
 893:.\BLEApplication.c ****                         if(CYBLE_STATE_ADVERTISING!=CyBle_GetState())
 894:.\BLEApplication.c ****                         {
 895:.\BLEApplication.c ****                          //              Ëé∑ÂèñAdvMinÂÄº
 896:.\BLEApplication.c ****                             AdvParamArray[0]=SerialData[9];
 897:.\BLEApplication.c ****                             AdvParamArray[1]=SerialData[10];
 898:.\BLEApplication.c ****                             StrToHex(&AdvParam,AdvParamArray,1);
 899:.\BLEApplication.c ****                             cyBle_discoveryModeInfo.advParam->advIntvMin=AdvParam;
 900:.\BLEApplication.c ****         //                    Ëé∑ÂèñAdvMaxÂÄº
 901:.\BLEApplication.c ****                             AdvParamArray[0]=SerialData[12];
 902:.\BLEApplication.c ****                             AdvParamArray[1]=SerialData[13];
 903:.\BLEApplication.c ****                             StrToHex(&AdvParam,AdvParamArray,1);
 904:.\BLEApplication.c ****                             cyBle_discoveryModeInfo.advParam->advIntvMax=AdvParam;
 905:.\BLEApplication.c ****         //                      Ëé∑ÂèñAdvToÂÄº
 906:.\BLEApplication.c ****                             AdvParamArray[0]=SerialData[15];
 907:.\BLEApplication.c ****                             AdvParamArray[1]=SerialData[16];
 908:.\BLEApplication.c ****                             StrToHex(&AdvParam,AdvParamArray,1);
 909:.\BLEApplication.c ****                             cyBle_discoveryModeInfo.advTo=AdvParam;
 910:.\BLEApplication.c ****                             printf("AT+OK\r\n");
 911:.\BLEApplication.c **** //                            printf("%s",SerialData);
 912:.\BLEApplication.c **** //                            printf("OK\r\n");
 913:.\BLEApplication.c ****                         }
 914:.\BLEApplication.c ****                         else
 915:.\BLEApplication.c ****                         {
 916:.\BLEApplication.c **** //                             printf("+ADVI=<INVALID>\r\n");
 917:.\BLEApplication.c ****                             printf("AT+ERR=3\r\n");//Ë°®Á§∫ÂΩìÂâçÁä∂ÊÄÅ‰∏çÊîØÊåÅËØ•ÂëΩ‰ª§
 918:.\BLEApplication.c ****                         }
 919:.\BLEApplication.c ****                         break;
 920:.\BLEApplication.c ****                     }  
 921:.\BLEApplication.c ****                 }
 922:.\BLEApplication.c ****                 else
 923:.\BLEApplication.c ****                 {
 924:.\BLEApplication.c ****                     printf("AT+ERR=3\r\n");//Ë°®Á§∫ÂΩìÂâçÁä∂ÊÄÅ‰∏çÊîØÊåÅËØ•ÂëΩ‰ª§
 925:.\BLEApplication.c ****                 }
 926:.\BLEApplication.c ****                                             
 927:.\BLEApplication.c ****             }
 928:.\BLEApplication.c ****             else
 929:.\BLEApplication.c ****             {
 930:.\BLEApplication.c **** //                printf("+ADVI=<INVALID>\r\n");
 931:.\BLEApplication.c ****                 printf("AT+ERR=4\r\n");//Ë°®Á§∫ÂΩìÂâçËßíËâ≤‰∏çÊîØÊåÅËØ•ÂëΩ‰ª§
ARM GAS  C:\Users\Helon\AppData\Local\Temp\ccys0XsA.s 			page 29


 932:.\BLEApplication.c ****             }
 933:.\BLEApplication.c ****             
 934:.\BLEApplication.c ****         break;
 935:.\BLEApplication.c **** //            ËøûÊé•Èó¥ÈöîÁöÑ‰øÆÊîπÂèäÊü•ËØ¢----‰∏ªÊú∫ÊúâÊïàÔºåÊü•ËØ¢Âàô‰∏ª‰ªéÊúâÊïà
 936:.\BLEApplication.c ****         case CONNI:  
 937:.\BLEApplication.c ****             idx=SerialData[9];
 938:.\BLEApplication.c ****             switch(idx)
 939:.\BLEApplication.c ****             {
 940:.\BLEApplication.c ****                 case '?':
 941:.\BLEApplication.c ****                 if(CYBLE_STATE_CONNECTED==CyBle_GetState())
 942:.\BLEApplication.c ****                 {
 943:.\BLEApplication.c **** //                    connintv=(ConnParam.connIntv)*1.25;
 944:.\BLEApplication.c **** //                    supervisionTO=(ConnParam.supervisionTO)*10;
 945:.\BLEApplication.c ****                     printf("+CONNI=<CONNINTV=0x%04X,CONNTO=0x%04X,CONNLATENCY=0x%04X>\r\n",ConnPara
 946:.\BLEApplication.c ****                     ConnParam.supervisionTO,ConnParam.connLatency);
 947:.\BLEApplication.c ****                 }
 948:.\BLEApplication.c ****                 else
 949:.\BLEApplication.c ****                 {
 950:.\BLEApplication.c **** //                    printf("+CONNI=<INVALID>\r\n");
 951:.\BLEApplication.c ****                     printf("AT+ERR=3\r\n");//Ë°®Á§∫ÂΩìÂâçÁä∂ÊÄÅ‰∏çÊîØÊåÅËØ•ÂëΩ‰ª§
 952:.\BLEApplication.c ****                 }
 953:.\BLEApplication.c ****                 break;
 954:.\BLEApplication.c ****                 case '<':
 955:.\BLEApplication.c **** //                Âè™Êúâ‰∏ªÊú∫ÂèØ‰ª•Êõ¥ÊîπËøûÊé•ÂèÇÊï∞
 956:.\BLEApplication.c ****                 if(Role==Central)
 957:.\BLEApplication.c ****                 {
 958:.\BLEApplication.c **** //                    Ëé∑ÂèñÊúÄÂ∞èËøûÊé•Èó¥Èöî
 959:.\BLEApplication.c ****                     AdvParamArray[0]=SerialData[10];
 960:.\BLEApplication.c ****                     AdvParamArray[1]=SerialData[11];
 961:.\BLEApplication.c ****                     StrToHex(&AdvParam,AdvParamArray,1);
 962:.\BLEApplication.c ****                     connParam.connIntvMin=AdvParam;
 963:.\BLEApplication.c **** //                    Ëé∑ÂèñÊúÄÂ§ßËøûÊé•Èó¥Èöî                    
 964:.\BLEApplication.c ****                     AdvParamArray[0]=SerialData[13];
 965:.\BLEApplication.c ****                     AdvParamArray[1]=SerialData[14];
 966:.\BLEApplication.c ****                     StrToHex(&AdvParam,AdvParamArray,1);
 967:.\BLEApplication.c ****                     connParam.connIntvMax=AdvParam;
 968:.\BLEApplication.c **** //                    ÂèëËµ∑ËøûÊé•Èó¥ÈöîÊõ¥Êñ∞ËØ∑Ê±Ç
 969:.\BLEApplication.c ****                     API_RESULT=CyBle_GapcConnectionParamUpdateRequest(cyBle_connHandle.bdHandle,&co
 970:.\BLEApplication.c ****                     if(CYBLE_ERROR_OK==API_RESULT)
 971:.\BLEApplication.c ****                     {
 972:.\BLEApplication.c ****                         printf("AT+OK\r\n");
 973:.\BLEApplication.c **** //                        printf("%s",SerialData);
 974:.\BLEApplication.c **** //                        printf("OK\r\n");
 975:.\BLEApplication.c ****                     }
 976:.\BLEApplication.c ****                     else
 977:.\BLEApplication.c ****                     {
 978:.\BLEApplication.c **** //                        printf("+CONNI=<FAIL>\r\n");
 979:.\BLEApplication.c ****                         printf("AT+ERR=2\r\n");//Ë°®Á§∫ÂëΩ‰ª§ËÆæÁΩÆÂ§±Ë¥•
 980:.\BLEApplication.c ****                     }
 981:.\BLEApplication.c ****                     
 982:.\BLEApplication.c ****                 }
 983:.\BLEApplication.c ****                 else
 984:.\BLEApplication.c ****                 {
 985:.\BLEApplication.c **** //                    printf("+CONNI=<INVALID>\r\n");
 986:.\BLEApplication.c ****                     printf("AT+ERR=4\r\n");//Ë°®Á§∫ÂΩìÂâçËßíËâ≤‰∏çÊîØÊåÅËØ•ÂëΩ‰ª§
 987:.\BLEApplication.c ****                 }
 988:.\BLEApplication.c ****                 break;
ARM GAS  C:\Users\Helon\AppData\Local\Temp\ccys0XsA.s 			page 30


 989:.\BLEApplication.c ****             }
 990:.\BLEApplication.c ****             
 991:.\BLEApplication.c ****         break;
 992:.\BLEApplication.c **** //              ‰∏ª‰ªé‰∏Ä‰ΩìÂàáÊç¢ÂëΩ‰ª§-----‰∏ª‰ªéÊúâÊïà
 993:.\BLEApplication.c ****         case ROLE:
 994:.\BLEApplication.c ****             idx=SerialData[8];
 995:.\BLEApplication.c ****             switch(idx)
 996:.\BLEApplication.c ****             {
 997:.\BLEApplication.c ****                 case '?':
 998:.\BLEApplication.c ****                     if(Peripheral==Role)
 999:.\BLEApplication.c ****                     {
1000:.\BLEApplication.c ****                         printf("+ROLE:<Peripheral>\r\n");
1001:.\BLEApplication.c ****                     }
1002:.\BLEApplication.c ****                     else
1003:.\BLEApplication.c ****                     {
1004:.\BLEApplication.c ****                         printf("+ROLE:<Central>\r\n");
1005:.\BLEApplication.c ****                     }
1006:.\BLEApplication.c ****                 break;
1007:.\BLEApplication.c **** //                    0Ôºö‰ªéÊú∫(Slave)
1008:.\BLEApplication.c ****                 case '0':
1009:.\BLEApplication.c ****                     if(CYBLE_STATE_CONNECTED!=CyBle_GetState())
1010:.\BLEApplication.c ****                     {
1011:.\BLEApplication.c ****                         WriteDataToFlash=Peripheral;//ÊääÂΩìÂâçÁöÑÂÄºÂÜôÂÖ•Flash‰∏≠,Áî®‰∫éÂ§ç‰ΩçÊó∂
1012:.\BLEApplication.c ****                         if(USER_SFLASH_WRITE_SUCCESSFUL==WriteUserSFlashRow(0,&WriteDataToFlash))
1013:.\BLEApplication.c ****                         {
1014:.\BLEApplication.c ****                             //ÂÅúÊ≠¢Êâ´Êèè
1015:.\BLEApplication.c ****                             CyBle_GapcStopScan();
1016:.\BLEApplication.c ****                             //ÂºÄÂßãÂπøÊí≠
1017:.\BLEApplication.c ****                             CyBle_GappStartAdvertisement(CYBLE_ADVERTISING_FAST);
1018:.\BLEApplication.c ****                             Role=Peripheral;
1019:.\BLEApplication.c ****                             printf("AT+OK\r\n");
1020:.\BLEApplication.c **** //                            printf("+ROLE:<Peripheral>\r\n");
1021:.\BLEApplication.c **** //                            printf("OK\r\n");
1022:.\BLEApplication.c ****                         }  
1023:.\BLEApplication.c ****                         
1024:.\BLEApplication.c ****                     } 
1025:.\BLEApplication.c ****                     else
1026:.\BLEApplication.c ****                     {
1027:.\BLEApplication.c ****                         printf("AT+ERR=3\r\n");//Ë°®Á§∫ÂΩìÂâçÁä∂ÊÄÅ‰∏çÊîØÊåÅËØ•ÂëΩ‰ª§
1028:.\BLEApplication.c ****                     }
1029:.\BLEApplication.c ****                 break;
1030:.\BLEApplication.c **** //                     1Ôºö‰∏ªÊú∫(Master)
1031:.\BLEApplication.c ****                 case '1':
1032:.\BLEApplication.c ****                     if(CYBLE_STATE_CONNECTED!=CyBle_GetState())
1033:.\BLEApplication.c ****                     {
1034:.\BLEApplication.c ****                         WriteDataToFlash=Central;
1035:.\BLEApplication.c ****                         if(USER_SFLASH_WRITE_SUCCESSFUL==WriteUserSFlashRow(0,&WriteDataToFlash))
1036:.\BLEApplication.c ****                         {
1037:.\BLEApplication.c **** //                        ÂÅúÊ≠¢ÂπøÊí≠
1038:.\BLEApplication.c ****                             CyBle_GappStopAdvertisement();
1039:.\BLEApplication.c **** //                        ÂºÄÂßãÊâ´Êèè
1040:.\BLEApplication.c ****                             CyBle_GapcStartScan(CYBLE_SCANNING_FAST);
1041:.\BLEApplication.c ****                             Role=Central;
1042:.\BLEApplication.c ****                             printf("AT+OK\r\n");
1043:.\BLEApplication.c **** //                            printf("+ROLE:<Central>\r\n");
1044:.\BLEApplication.c **** //                            printf("OK\r\n");
1045:.\BLEApplication.c ****                         }
ARM GAS  C:\Users\Helon\AppData\Local\Temp\ccys0XsA.s 			page 31


1046:.\BLEApplication.c **** 
1047:.\BLEApplication.c ****                     }
1048:.\BLEApplication.c ****                     else
1049:.\BLEApplication.c ****                     {
1050:.\BLEApplication.c ****                         printf("AT+ERR=3\r\n");//Ë°®Á§∫ÂΩìÂâçÁä∂ÊÄÅ‰∏çÊîØÊåÅËØ•ÂëΩ‰ª§
1051:.\BLEApplication.c ****                     }
1052:.\BLEApplication.c ****                     
1053:.\BLEApplication.c ****                 break;
1054:.\BLEApplication.c ****             }
1055:.\BLEApplication.c ****         break;
1056:.\BLEApplication.c **** ////            Êü•ËØ¢ÊâÄÊúâÁöÑÁâπÂæÅÊèèËø∞Á¨¶----‰∏ªÊú∫ÊúâÊïà
1057:.\BLEApplication.c ****         case DISALLCHAR:
1058:.\BLEApplication.c ****             if(Role==Central)
1059:.\BLEApplication.c ****             {
1060:.\BLEApplication.c ****                 range.startHandle=0x0001;
1061:.\BLEApplication.c ****                 range.endHandle=0xFFFF;       
1062:.\BLEApplication.c ****                 API_RESULT=CyBle_GattcDiscoverAllCharacteristicDescriptors(cyBle_connHandle,&range)
1063:.\BLEApplication.c ****             }
1064:.\BLEApplication.c ****             else
1065:.\BLEApplication.c ****             {
1066:.\BLEApplication.c ****                 printf("AT+ERR=4\r\n");//Ë°®Á§∫ÂΩìÂâçËßíËâ≤‰∏çÊîØÊåÅËØ•ÂëΩ‰ª§
1067:.\BLEApplication.c **** //                printf("+DISALLCHAR=<INVALID>\r\n");
1068:.\BLEApplication.c ****             }
1069:.\BLEApplication.c ****         break;
1070:.\BLEApplication.c **** //            Êâ´ÊèèÂë®Âõ¥ÁöÑBLEËÆæÂ§á----‰∏ªÊú∫ÊúâÊïà
1071:.\BLEApplication.c ****         case SCAN:
1072:.\BLEApplication.c ****             if(Role==Central)
1073:.\BLEApplication.c ****             {
1074:.\BLEApplication.c ****                 if(SerialData[8]=='1')
1075:.\BLEApplication.c ****                 {
1076:.\BLEApplication.c ****                     if(CYBLE_STATE_CONNECTED!=CyBle_GetState())
1077:.\BLEApplication.c ****                     {
1078:.\BLEApplication.c ****                         ScanDeviceInfoInit();
1079:.\BLEApplication.c ****                         if(CYBLE_ERROR_OK==CyBle_GapcStartScan(CYBLE_SCANNING_FAST))
1080:.\BLEApplication.c ****                         {
1081:.\BLEApplication.c ****                             printf("AT+OK\r\n");  
1082:.\BLEApplication.c ****                         }
1083:.\BLEApplication.c ****                         else
1084:.\BLEApplication.c ****                         {
1085:.\BLEApplication.c ****                             printf("AT+ERR=2\r\n");//Ë°®Á§∫ÂëΩ‰ª§ËÆæÁΩÆÂ§±Ë¥•
1086:.\BLEApplication.c ****                         }
1087:.\BLEApplication.c ****                     }
1088:.\BLEApplication.c ****                     else
1089:.\BLEApplication.c ****                     {
1090:.\BLEApplication.c ****                         printf("AT+ERR=3\r\n");//Ë°®Á§∫ÂΩìÂâçÁä∂ÊÄÅ‰∏çÊîØÊåÅËØ•ÂëΩ‰ª§
1091:.\BLEApplication.c ****                     }
1092:.\BLEApplication.c ****                     
1093:.\BLEApplication.c ****                 }
1094:.\BLEApplication.c ****                 else if(SerialData[8]=='0')
1095:.\BLEApplication.c ****                 {
1096:.\BLEApplication.c ****                     if(CYBLE_STATE_SCANNING==CyBle_GetState())
1097:.\BLEApplication.c ****                     {
1098:.\BLEApplication.c ****                         ScanDeviceInfoInit();
1099:.\BLEApplication.c ****                         CyBle_GapcStopScan();                                   
1100:.\BLEApplication.c ****                         STOP_SCAN_FLAG=TRUE;
1101:.\BLEApplication.c ****                         printf("AT+OK\r\n"); 
1102:.\BLEApplication.c ****                     }
ARM GAS  C:\Users\Helon\AppData\Local\Temp\ccys0XsA.s 			page 32


1103:.\BLEApplication.c ****                     else
1104:.\BLEApplication.c ****                     {
1105:.\BLEApplication.c ****                         printf("AT+ERR=3\r\n");//Ë°®Á§∫ÂΩìÂâçÁä∂ÊÄÅ‰∏çÊîØÊåÅËØ•ÂëΩ‰ª§
1106:.\BLEApplication.c ****                     }
1107:.\BLEApplication.c ****                 }
1108:.\BLEApplication.c ****                 else if(SerialData[8]=='?')
1109:.\BLEApplication.c ****                 {
1110:.\BLEApplication.c ****                     for(i=0;i<DeviceCount;i++)
1111:.\BLEApplication.c ****                     {
1112:.\BLEApplication.c ****                         printf("+INQ_SCAN:<%d,0x%02X%02X%02X%02X%02X%02X>\r\n",
1113:.\BLEApplication.c ****                         DeviceInfo[i].idx,
1114:.\BLEApplication.c ****                         DeviceInfo[i].DeviceList.bdAddr[5],
1115:.\BLEApplication.c ****                         DeviceInfo[i].DeviceList.bdAddr[4],
1116:.\BLEApplication.c ****                         DeviceInfo[i].DeviceList.bdAddr[3],
1117:.\BLEApplication.c ****                         DeviceInfo[i].DeviceList.bdAddr[2],
1118:.\BLEApplication.c ****                         DeviceInfo[i].DeviceList.bdAddr[1],
1119:.\BLEApplication.c ****                         DeviceInfo[i].DeviceList.bdAddr[0]                             
1120:.\BLEApplication.c ****                       );
1121:.\BLEApplication.c ****     //                  while((UART_SpiUartGetTxBufferSize() + UART_GET_TX_FIFO_SR_VALID) != 0);//Á
1122:.\BLEApplication.c ****                     }
1123:.\BLEApplication.c ****                 }
1124:.\BLEApplication.c ****             }
1125:.\BLEApplication.c ****             else
1126:.\BLEApplication.c ****             {
1127:.\BLEApplication.c **** //                printf("+SCAN=<INVALID>\r\n");
1128:.\BLEApplication.c ****                 printf("AT+ERR=4\r\n");//Ë°®Á§∫ÂΩìÂâçËßíËâ≤‰∏çÊîØÊåÅËØ•ÂëΩ‰ª§
1129:.\BLEApplication.c ****             }
1130:.\BLEApplication.c ****         break;
1131:.\BLEApplication.c **** //            ËøûÊé•ÈÄâ‰∏≠ÁöÑBLEËÆæÂ§á-----‰∏ªÊú∫ÊúâÊïà
1132:.\BLEApplication.c ****         case CONNT:
1133:.\BLEApplication.c ****             if(Role==Central)
1134:.\BLEApplication.c ****             {
1135:.\BLEApplication.c ****                 idx=SerialData[9];
1136:.\BLEApplication.c ****                 Connect_Device(idx);      
1137:.\BLEApplication.c ****             }
1138:.\BLEApplication.c ****             else
1139:.\BLEApplication.c ****             {
1140:.\BLEApplication.c **** //                printf("+CONNT=<INVALID>\r\n");
1141:.\BLEApplication.c ****                 printf("AT+ERR=4\r\n");//Ë°®Á§∫ÂΩìÂâçËßíËâ≤‰∏çÊîØÊåÅËØ•ÂëΩ‰ª§
1142:.\BLEApplication.c ****             }
1143:.\BLEApplication.c ****         break;
1144:.\BLEApplication.c **** //            Êñ≠ÂºÄËøûÊé•----‰∏ª‰ªéÊúâÊïà
1145:.\BLEApplication.c ****         case DISCONN:
1146:.\BLEApplication.c ****             if(CYBLE_STATE_CONNECTED==CyBle_GetState())
1147:.\BLEApplication.c ****             {
1148:.\BLEApplication.c ****                 idx=SerialData[11];
1149:.\BLEApplication.c ****                 switch(idx)
1150:.\BLEApplication.c ****                 {
1151:.\BLEApplication.c ****                     case '1':
1152:.\BLEApplication.c ****                         API_RESULT=CyBle_GapDisconnect(cyBle_connHandle.bdHandle);
1153:.\BLEApplication.c ****                         if(CYBLE_ERROR_OK!=API_RESULT)  
1154:.\BLEApplication.c ****                         {
1155:.\BLEApplication.c ****                             printf("AT+ERR=<%d,0x%02X>\r\n",idx-0x30,API_RESULT);                  
1156:.\BLEApplication.c ****                         }
1157:.\BLEApplication.c ****                         else
1158:.\BLEApplication.c ****                         {
1159:.\BLEApplication.c ****                             //Êñ≠ÂºÄËøûÊé•ÂêéÔºåÂ∫îËØ•Ê∏ÖÁ©∫ËøûÊé•ÂàóË°®ÂØπÂ∫îÁöÑÂÜÖÂÆπ
ARM GAS  C:\Users\Helon\AppData\Local\Temp\ccys0XsA.s 			page 33


1160:.\BLEApplication.c ****                             for(i=0;i<Conn_Or_Disconn_Info.Connected_Count;i++)
1161:.\BLEApplication.c ****                             {
1162:.\BLEApplication.c ****                                 if(1==Conn_Or_Disconn_Info.Connect_Idx[i])
1163:.\BLEApplication.c ****                                 {
1164:.\BLEApplication.c ****                                     Conn_Or_Disconn_Info.Connected_Count--;
1165:.\BLEApplication.c ****                                     memset(Conn_Or_Disconn_Info.DeviceAddr[i].bdAddr,0,6);
1166:.\BLEApplication.c ****                                     Conn_Or_Disconn_Info.Connect_Idx[i]=0;
1167:.\BLEApplication.c ****                                     Conn_Or_Disconn_Info.Disconn_Idx[0]=idx-0x30;
1168:.\BLEApplication.c ****                                     Conn_or_Disconn_Idx=idx-0x30;
1169:.\BLEApplication.c ****                                     break;
1170:.\BLEApplication.c ****                                 }
1171:.\BLEApplication.c ****                             }
1172:.\BLEApplication.c ****                             printf("AT+OK\r\n");
1173:.\BLEApplication.c ****                         }
1174:.\BLEApplication.c ****                     break;
1175:.\BLEApplication.c ****                     case '2':
1176:.\BLEApplication.c ****                     break;
1177:.\BLEApplication.c ****                     case '3':
1178:.\BLEApplication.c ****                     break;
1179:.\BLEApplication.c ****                     case '4':
1180:.\BLEApplication.c ****                     break;                    
1181:.\BLEApplication.c ****                 }
1182:.\BLEApplication.c ****             }
1183:.\BLEApplication.c ****             else
1184:.\BLEApplication.c ****             {
1185:.\BLEApplication.c ****                 printf("AT+ERR=3\r\n");//Ë°®Á§∫ÂΩìÂâçÁä∂ÊÄÅ‰∏çÊîØÊåÅËØ•ÂëΩ‰ª§
1186:.\BLEApplication.c ****             }
1187:.\BLEApplication.c ****             
1188:.\BLEApplication.c ****         break;
1189:.\BLEApplication.c ****         case LOGIN:
1190:.\BLEApplication.c ****         break;
1191:.\BLEApplication.c ****         case TX:
1192:.\BLEApplication.c ****         break;
1193:.\BLEApplication.c **** //            ‰∏ªÊú∫Êåá‰ª§ËØªÂèñ‰ªéÊú∫ÁöÑRSSI----‰∏ª‰ªéÊú∫ÊúâÊïà
1194:.\BLEApplication.c ****         case RSSI:
1195:.\BLEApplication.c ****             if(CYBLE_STATE_CONNECTED==CyBle_GetState())
1196:.\BLEApplication.c ****             {
1197:.\BLEApplication.c ****                 idx=SerialData[8];
1198:.\BLEApplication.c ****                 if(idx=='?')
1199:.\BLEApplication.c ****                     printf("+RSSI:<%ddBm>\r\n",CyBle_GetRssi());
1200:.\BLEApplication.c ****             }
1201:.\BLEApplication.c ****             else
1202:.\BLEApplication.c ****             {
1203:.\BLEApplication.c ****                printf("AT+ERR=3\r\n");//Ë°®Á§∫ÂΩìÂâçÁä∂ÊÄÅ‰∏çÊîØÊåÅËØ•ÂëΩ‰ª§ 
1204:.\BLEApplication.c ****             }
1205:.\BLEApplication.c ****         break;     
1206:.\BLEApplication.c **** //            ÈÄè‰º†ÈÄüÁéáÊµãËØï----‰∏ªÊúâÊïà
1207:.\BLEApplication.c ****         case SPEED:
1208:.\BLEApplication.c ****             idx=SerialData[9];
1209:.\BLEApplication.c ****             if('?'==idx)
1210:.\BLEApplication.c ****             {
1211:.\BLEApplication.c ****                 printf("%ld\r\n",testCount);
1212:.\BLEApplication.c ****                 testCount=0;
1213:.\BLEApplication.c ****             }
1214:.\BLEApplication.c **** //            if(CYBLE_STATE_CONNECTED==CyBle_GetState()&&(Central==Role))//ÂΩì‰∏î‰ªÖÂΩìÊòØËøûÊé•Áä
1215:.\BLEApplication.c **** //            {
1216:.\BLEApplication.c **** //                idx=SerialData[9];
ARM GAS  C:\Users\Helon\AppData\Local\Temp\ccys0XsA.s 			page 34


1217:.\BLEApplication.c **** ////                MTU_REQ_FLAG=TRUE;                
1218:.\BLEApplication.c **** //                if('?'==idx)
1219:.\BLEApplication.c **** //                {                           
1220:.\BLEApplication.c **** //                    printf("Test Start\r\n");
1221:.\BLEApplication.c **** //                    Timer_Enable();
1222:.\BLEApplication.c **** //                    //‰∏ªÊú∫ÂèëÈÄÅÁöÑMTU exchange request
1223:.\BLEApplication.c **** ////                    if(MTU_REQ_FLAG^FALSE)
1224:.\BLEApplication.c **** ////                    {
1225:.\BLEApplication.c **** ////                        TroughtTest_Flag=TURE;                        
1226:.\BLEApplication.c **** ////                        MTU_REQ_FLAG=FALSE;
1227:.\BLEApplication.c **** ////                        API_RESULT=CyBle_GattcExchangeMtuReq(cyBle_connHandle, CYBLE_GATT_MTU);
1228:.\BLEApplication.c **** //////                        printf("GattcExchangeMtuReq is %d\r\n",API_RESULT);
1229:.\BLEApplication.c **** ////                        break;
1230:.\BLEApplication.c **** ////                    }
1231:.\BLEApplication.c **** ////                    else
1232:.\BLEApplication.c **** ////                    {
1233:.\BLEApplication.c **** //////                        TroughtTest_Flag=TURE;
1234:.\BLEApplication.c **** //////                        charNotificationEnabled = TURE;
1235:.\BLEApplication.c **** ////                        totalByteCounter=0;
1236:.\BLEApplication.c **** //////                        UART_UartPutString("Calculating throughput. Please wait...\n\r");
1237:.\BLEApplication.c **** //////                        Timer_Enable();
1238:.\BLEApplication.c **** ////                        writeRequestData.value.val[0]=0x01;
1239:.\BLEApplication.c **** ////                        writeRequestData.attrHandle=CYBLE_TROUGHPUT_SERVICE_SPEEDTEST_CHAR_HAND
1240:.\BLEApplication.c **** ////                        API_RESULT=CyBle_GattcWriteCharacteristicValue(cyBle_connHandle, &write
1241:.\BLEApplication.c **** ////                        if(CYBLE_ERROR_OK==API_RESULT)
1242:.\BLEApplication.c **** ////                        {
1243:.\BLEApplication.c **** ////                            CyBle_ProcessEvents();
1244:.\BLEApplication.c **** ////                        }                       
1245:.\BLEApplication.c **** ////                        printf("CyBle_GattcWriteCharacteristicDescriptors is %d\r\n",API_RESULT
1246:.\BLEApplication.c **** ////                    }
1247:.\BLEApplication.c **** //                }    
1248:.\BLEApplication.c **** ////            break;
1249:.\BLEApplication.c **** //            }
1250:.\BLEApplication.c **** //            else
1251:.\BLEApplication.c **** //            {                
1252:.\BLEApplication.c **** //            }
1253:.\BLEApplication.c ****         break;
1254:.\BLEApplication.c **** //            ‰ΩøËÉΩNotifyÂ±ûÊÄßÁöÑÁâπÂæÅÂÄº-----‰∏ªÊú∫ÊúâÊïàÔºå‰ΩÜÊòØ‰ªéÊú∫‰πüÂèØ‰ª•ÊúâÊïàÂè™ÊòØ‰∏
1255:.\BLEApplication.c ****         case NOTIFY:
1256:.\BLEApplication.c ****             idx=SerialData[10];
1257:.\BLEApplication.c ****             if((CYBLE_STATE_CONNECTED==CyBle_GetState())&&(Central==Role))//‰∏ªÊú∫Ê®°Âºè‰∏ã‰∏îÊòØAT
1258:.\BLEApplication.c ****             {                  
1259:.\BLEApplication.c ****                 switch(idx)
1260:.\BLEApplication.c ****                 {
1261:.\BLEApplication.c **** //                    //ÂÖ≥Èó≠ÈÄè‰º†ÈÄöÈÅì,Âú®ÈÄè‰º†Ê®°Âºè‰∏ã‰∏ç‰ºöËøõÊù•ËøôÈáå
1262:.\BLEApplication.c **** //                    case '0':
1263:.\BLEApplication.c **** //                        writeRequestData.value.val[0]=0x00;
1264:.\BLEApplication.c **** //                        writeRequestData.attrHandle=CYBLE_TROUGHPUT_SERVICE_CUSTOM_CHARACTERISTIC
1265:.\BLEApplication.c **** //                        API_RESULT=CyBle_GattcWriteCharacteristicValue(cyBle_connHandle, &writeRe
1266:.\BLEApplication.c **** //                        if(CYBLE_ERROR_OK==API_RESULT)
1267:.\BLEApplication.c **** //                        {
1268:.\BLEApplication.c **** //                            CommandMode=AT_COMMAND_MODE;
1269:.\BLEApplication.c **** //                            printf("+MODE=<AT_COMMAND_MODE>\r\n");
1270:.\BLEApplication.c **** //                        }
1271:.\BLEApplication.c **** ////                        printf("CyBle_GattcWriteCharacteristicValue is %d\r\n",API_RESULT);
1272:.\BLEApplication.c **** //                    break;
1273:.\BLEApplication.c **** //                    ÊâìÂºÄÈÄè‰º†ÈÄöÈÅì
ARM GAS  C:\Users\Helon\AppData\Local\Temp\ccys0XsA.s 			page 35


1274:.\BLEApplication.c ****                     case '1':
1275:.\BLEApplication.c ****                         writeRequestData.value.val[0]=0x01;
1276:.\BLEApplication.c ****                         writeRequestData.attrHandle=CYBLE_TROUGHPUT_SERVICE_CUSTOM_CHARACTERISTIC_C
1277:.\BLEApplication.c ****                         API_RESULT=CyBle_GattcWriteWithoutResponse(cyBle_connHandle, &writeRequestD
1278:.\BLEApplication.c ****                         if(CYBLE_ERROR_OK==API_RESULT)
1279:.\BLEApplication.c ****                         {
1280:.\BLEApplication.c ****                             CommandMode=THROUGHT_MODE;
1281:.\BLEApplication.c ****                             printf("+MODE=<THROUGHT_MODE>\r\n");
1282:.\BLEApplication.c ****                         }
1283:.\BLEApplication.c **** //                        printf("CyBle_GattcWriteCharacteristicValue is %d\r\n",API_RESULT);
1284:.\BLEApplication.c ****                     break;
1285:.\BLEApplication.c ****                     case '?'://‰∏ªÊú∫Ê®°Âºè‰∏ãÔºåËÉΩÊé•Êî∂Âà∞ËØ•ÂëΩ‰ª§Âàô‰∏ÄÂÆöÊòØATÂëΩ‰ª§Ê®°Âºè
1286:.\BLEApplication.c ****                         printf("+MODE=<AT_COMMAND_MODE>\r\n");                       
1287:.\BLEApplication.c ****                     break;
1288:.\BLEApplication.c **** //                        API_RESULT=CyBle_GattcReadCharacteristicValue(cyBle_connHandle,readReques
1289:.\BLEApplication.c **** //                        printf("CyBle_GattcReadCharacteristicDescriptors is %d\r\n",API_RESULT); 
1290:.\BLEApplication.c ****                         
1291:.\BLEApplication.c **** //                    break;
1292:.\BLEApplication.c ****                 }
1293:.\BLEApplication.c ****             }
1294:.\BLEApplication.c ****             else if((CYBLE_STATE_CONNECTED==CyBle_GetState())&&(Peripheral==Role))//‰ªéÊú∫Ê®°Âºè‰∏ã
1295:.\BLEApplication.c ****             {
1296:.\BLEApplication.c ****                 switch(idx)
1297:.\BLEApplication.c ****                 {
1298:.\BLEApplication.c ****                     case '1'://‰ªéÊú∫Ê®°Âºè‰∏îATÂëΩ‰ª§Ê®°Âºè‰∏ãÔºåÊâìÂºÄ‰ªéÊú∫Áªô‰∏ªÊú∫ÁöÑÈÄè‰º†ÈÄö
1299:.\BLEApplication.c ****                         CommandMode=THROUGHT_MODE;
1300:.\BLEApplication.c ****                         printf("+MODE=<THROUGHT_MODE>\r\n");
1301:.\BLEApplication.c ****                     break;
1302:.\BLEApplication.c ****                     case '?'://‰ªéÊú∫Ê®°Âºè‰∏ãÔºåËÉΩÊé•Êî∂Âà∞ËØ•ÂëΩ‰ª§Âàô‰∏ÄÂÆöÊòØATÂëΩ‰ª§Ê®°Âºè
1303:.\BLEApplication.c ****                         printf("+MODE=<AT_COMMAND_MODE>\r\n");                       
1304:.\BLEApplication.c ****                     break;
1305:.\BLEApplication.c ****                 }
1306:.\BLEApplication.c **** //                printf("+NOTIFY=<INVALID>\r\n");
1307:.\BLEApplication.c ****             }
1308:.\BLEApplication.c ****             else
1309:.\BLEApplication.c ****             {
1310:.\BLEApplication.c **** //                printf("+NOTIFY=<INVALID>\r\n");
1311:.\BLEApplication.c ****                 printf("AT+ERR=3\r\n");//Ë°®Á§∫ÂΩìÂâçÁä∂ÊÄÅ‰∏çÊîØÊåÅËØ•ÂëΩ‰ª§
1312:.\BLEApplication.c ****             }
1313:.\BLEApplication.c ****         break;
1314:.\BLEApplication.c **** //            ÂΩìÂâçBLEËÆæÂ§áÁä∂ÊÄÅÊü•ËØ¢----‰∏ª‰ªéÊúâÊïà
1315:.\BLEApplication.c ****         case STAUS:
1316:.\BLEApplication.c ****             idx=SerialData[9];            
1317:.\BLEApplication.c ****             if(idx=='?')
1318:.\BLEApplication.c ****             {
1319:.\BLEApplication.c ****                 STAUS_T=CyBle_GetState();
1320:.\BLEApplication.c ****                 switch(STAUS_T)
1321:.\BLEApplication.c ****                 {
1322:.\BLEApplication.c ****                     case 0:
1323:.\BLEApplication.c ****                         printf("+STAUS=<STATE_STOPPED>\r\n");
1324:.\BLEApplication.c ****                     break;
1325:.\BLEApplication.c ****                     case 1:
1326:.\BLEApplication.c ****                         printf("+STAUS=<STATE_INITIALIZING>\r\n");
1327:.\BLEApplication.c ****                     break;
1328:.\BLEApplication.c ****                     case 2:
1329:.\BLEApplication.c ****                         printf("+STAUS=<STATE_CONNECTED>\r\n");
1330:.\BLEApplication.c ****                     break;
ARM GAS  C:\Users\Helon\AppData\Local\Temp\ccys0XsA.s 			page 36


1331:.\BLEApplication.c ****                     case 3:
1332:.\BLEApplication.c ****                         printf("+STAUS=<STATE_ADVERTISING>\r\n");
1333:.\BLEApplication.c ****                     break;
1334:.\BLEApplication.c ****                     case 4:
1335:.\BLEApplication.c ****                         printf("+STAUS=<STATE_SCANNING>\r\n");
1336:.\BLEApplication.c ****                     break;
1337:.\BLEApplication.c ****                     case 5:
1338:.\BLEApplication.c ****                         printf("+STAUS=<STATE_CONNECTING>\r\n");
1339:.\BLEApplication.c ****                     break;
1340:.\BLEApplication.c ****                     case 6:
1341:.\BLEApplication.c ****                         printf("+STAUS=<STATE_DISCONNECTED>\r\n");
1342:.\BLEApplication.c ****                     break;
1343:.\BLEApplication.c ****                     default:
1344:.\BLEApplication.c ****                     break;
1345:.\BLEApplication.c ****                 }
1346:.\BLEApplication.c ****             }
1347:.\BLEApplication.c ****         break;
1348:.\BLEApplication.c **** //            ÂπøÊí≠ÁöÑÊâìÂºÄ‰∏éÂÖ≥Èó≠-----‰ªéÊú∫ÊúâÊïà
1349:.\BLEApplication.c ****         case ADVS:            
1350:.\BLEApplication.c ****             idx=SerialData[8];            
1351:.\BLEApplication.c ****             if(CYBLE_STATE_CONNECTED!=CyBle_GetState())
1352:.\BLEApplication.c ****             {
1353:.\BLEApplication.c ****                 if(idx=='1')//ÂºÄÂßãÂπøÊí≠
1354:.\BLEApplication.c ****                 {
1355:.\BLEApplication.c ****                     if(CYBLE_STATE_ADVERTISING!=CyBle_GetState())
1356:.\BLEApplication.c ****                     {
1357:.\BLEApplication.c ****                         API_RESULT=CyBle_GappStartAdvertisement(CYBLE_ADVERTISING_FAST);
1358:.\BLEApplication.c ****                         if(CYBLE_ERROR_OK==API_RESULT)
1359:.\BLEApplication.c ****                         {
1360:.\BLEApplication.c **** //                           printf("+ADV=<ENABLE>\r\n");
1361:.\BLEApplication.c ****                             printf("AT+OK\r\n");
1362:.\BLEApplication.c ****                         }
1363:.\BLEApplication.c ****                         else
1364:.\BLEApplication.c ****                         {
1365:.\BLEApplication.c ****                             printf("AT+ERR=2\r\n");//Ë°®Á§∫ÂëΩ‰ª§ËÆæÁΩÆÂ§±Ë¥•
1366:.\BLEApplication.c ****                         }
1367:.\BLEApplication.c ****                     }
1368:.\BLEApplication.c ****                     else
1369:.\BLEApplication.c ****                     {
1370:.\BLEApplication.c **** //                        printf("+ADV=<ENABLE>\r\n");
1371:.\BLEApplication.c ****                         printf("AT+ERR=3\r\n");//Ë°®Á§∫ÂΩìÂâçÁä∂ÊÄÅ‰∏çÊîØÊåÅËØ•ÂëΩ‰ª§
1372:.\BLEApplication.c ****                     }
1373:.\BLEApplication.c ****                 }
1374:.\BLEApplication.c ****                 else if(idx=='0')//ÂÖ≥Èó≠ÂπøÊí≠
1375:.\BLEApplication.c ****                 {
1376:.\BLEApplication.c ****                     if(CYBLE_STATE_ADVERTISING==CyBle_GetState())
1377:.\BLEApplication.c ****                     {
1378:.\BLEApplication.c ****                         CyBle_GappStopAdvertisement();
1379:.\BLEApplication.c ****                         printf("AT+OK\r\n");
1380:.\BLEApplication.c **** //                        printf("+ADV=<DISABLE>\r\n");                        
1381:.\BLEApplication.c ****                     }
1382:.\BLEApplication.c ****                     else
1383:.\BLEApplication.c ****                     {
1384:.\BLEApplication.c **** //                        printf("+ADV=<DISABLE>\r\n");  
1385:.\BLEApplication.c ****                         printf("AT+ERR=3\r\n");//Ë°®Á§∫ÂΩìÂâçÁä∂ÊÄÅ‰∏çÊîØÊåÅËØ•ÂëΩ‰ª§
1386:.\BLEApplication.c ****                     }
1387:.\BLEApplication.c ****                 }
ARM GAS  C:\Users\Helon\AppData\Local\Temp\ccys0XsA.s 			page 37


1388:.\BLEApplication.c ****             }
1389:.\BLEApplication.c ****             else
1390:.\BLEApplication.c ****             {
1391:.\BLEApplication.c **** //                printf("+ADV=<INVALID>\r\n"); 
1392:.\BLEApplication.c ****                 printf("AT+ERR=3\r\n");//Ë°®Á§∫ÂΩìÂâçÁä∂ÊÄÅ‰∏çÊîØÊåÅËØ•ÂëΩ‰ª§
1393:.\BLEApplication.c ****             }
1394:.\BLEApplication.c ****         break;
1395:.\BLEApplication.c **** //            ËÆæÁΩÆËÆæÂ§áIOÁöÑËÉΩÂäõ-----‰∏ª‰ªéÊúâÊïà
1396:.\BLEApplication.c ****         case IOCAP:
1397:.\BLEApplication.c ****             idx=SerialData[9];
1398:.\BLEApplication.c ****             if(CYBLE_STATE_CONNECTED!=CyBle_GetState())
1399:.\BLEApplication.c ****             {                
1400:.\BLEApplication.c ****                 switch(idx)
1401:.\BLEApplication.c ****                 {
1402:.\BLEApplication.c ****                     case '0':
1403:.\BLEApplication.c ****                     API_RESULT=CyBle_GapSetIoCap(CYBLE_GAP_IOCAP_DISPLAY_ONLY);
1404:.\BLEApplication.c ****                     if(API_RESULT==CYBLE_ERROR_OK)
1405:.\BLEApplication.c ****                     {
1406:.\BLEApplication.c **** //                        printf("+IOCAP=<DISPLAY_ONLY>\r\n");
1407:.\BLEApplication.c ****                         printf("AT+OK\r\n");
1408:.\BLEApplication.c ****                         iocapability=CYBLE_GAP_IOCAP_DISPLAY_ONLY;
1409:.\BLEApplication.c ****                     }
1410:.\BLEApplication.c ****                     else
1411:.\BLEApplication.c ****                     {
1412:.\BLEApplication.c ****                         printf("AT+ERR=2\r\n");//Ë°®Á§∫ÂëΩ‰ª§ËÆæÁΩÆÂ§±Ë¥•
1413:.\BLEApplication.c ****                     }
1414:.\BLEApplication.c ****                     break;
1415:.\BLEApplication.c ****                     case '1':
1416:.\BLEApplication.c ****                     API_RESULT=CyBle_GapSetIoCap(CYBLE_GAP_IOCAP_DISPLAY_YESNO);
1417:.\BLEApplication.c ****                     if(API_RESULT==CYBLE_ERROR_OK)
1418:.\BLEApplication.c ****                     {
1419:.\BLEApplication.c **** //                        printf("+IOCAP=<DISPLAY_YESNO>\r\n");
1420:.\BLEApplication.c ****                         printf("AT+OK\r\n");
1421:.\BLEApplication.c ****                         iocapability=CYBLE_GAP_IOCAP_DISPLAY_YESNO;
1422:.\BLEApplication.c ****                     }
1423:.\BLEApplication.c ****                     else
1424:.\BLEApplication.c ****                     {
1425:.\BLEApplication.c ****                         printf("AT+ERR=2\r\n");//Ë°®Á§∫ÂëΩ‰ª§ËÆæÁΩÆÂ§±Ë¥•
1426:.\BLEApplication.c ****                     }
1427:.\BLEApplication.c ****                     break;
1428:.\BLEApplication.c ****                     case '2':
1429:.\BLEApplication.c ****                     API_RESULT=CyBle_GapSetIoCap(CYBLE_GAP_IOCAP_KEYBOARD_ONLY);
1430:.\BLEApplication.c ****                     if(API_RESULT==CYBLE_ERROR_OK)
1431:.\BLEApplication.c ****                     {
1432:.\BLEApplication.c **** //                        printf("+IOCAP=<KEYBOARD_ONLY>\r\n");
1433:.\BLEApplication.c ****                         printf("AT+OK\r\n");
1434:.\BLEApplication.c ****                         iocapability=CYBLE_GAP_IOCAP_KEYBOARD_ONLY;
1435:.\BLEApplication.c ****                     }
1436:.\BLEApplication.c ****                     else
1437:.\BLEApplication.c ****                     {
1438:.\BLEApplication.c ****                         printf("AT+ERR=2\r\n");//Ë°®Á§∫ÂëΩ‰ª§ËÆæÁΩÆÂ§±Ë¥•
1439:.\BLEApplication.c ****                     }
1440:.\BLEApplication.c ****                     break;
1441:.\BLEApplication.c ****                     case '3':
1442:.\BLEApplication.c ****                     API_RESULT=CyBle_GapSetIoCap(CYBLE_GAP_IOCAP_NOINPUT_NOOUTPUT);
1443:.\BLEApplication.c ****                     if(API_RESULT==CYBLE_ERROR_OK)
1444:.\BLEApplication.c ****                     {
ARM GAS  C:\Users\Helon\AppData\Local\Temp\ccys0XsA.s 			page 38


1445:.\BLEApplication.c **** //                        printf("+IOCAP=<NOINPUT_NOOUTPUT>\r\n");
1446:.\BLEApplication.c ****                         printf("AT+OK\r\n");
1447:.\BLEApplication.c ****                         iocapability=CYBLE_GAP_IOCAP_NOINPUT_NOOUTPUT;
1448:.\BLEApplication.c ****                     }
1449:.\BLEApplication.c ****                     else
1450:.\BLEApplication.c ****                     {
1451:.\BLEApplication.c ****                         printf("AT+ERR=2\r\n");//Ë°®Á§∫ÂëΩ‰ª§ËÆæÁΩÆÂ§±Ë¥•
1452:.\BLEApplication.c ****                     }
1453:.\BLEApplication.c ****                     break;
1454:.\BLEApplication.c ****                     case '4':
1455:.\BLEApplication.c ****                     API_RESULT=CyBle_GapSetIoCap(CYBLE_GAP_IOCAP_KEYBOARD_DISPLAY);
1456:.\BLEApplication.c ****                     if(API_RESULT==CYBLE_ERROR_OK)
1457:.\BLEApplication.c ****                     {
1458:.\BLEApplication.c **** //                        printf("+IOCAP=<KEYBOARD_DISPLAY>\r\n");
1459:.\BLEApplication.c ****                         printf("AT+OK\r\n");
1460:.\BLEApplication.c ****                         iocapability=CYBLE_GAP_IOCAP_KEYBOARD_DISPLAY;
1461:.\BLEApplication.c ****                     }
1462:.\BLEApplication.c ****                     else
1463:.\BLEApplication.c ****                     {
1464:.\BLEApplication.c ****                         printf("AT+ERR=2\r\n");//Ë°®Á§∫ÂëΩ‰ª§ËÆæÁΩÆÂ§±Ë¥•
1465:.\BLEApplication.c ****                     }
1466:.\BLEApplication.c ****                     break;
1467:.\BLEApplication.c ****                     case '?':
1468:.\BLEApplication.c ****                         switch(iocapability)
1469:.\BLEApplication.c ****                         {
1470:.\BLEApplication.c ****                             case 0:
1471:.\BLEApplication.c ****                                 printf("+IOCAP=<DISPLAY_ONLY>\r\n");
1472:.\BLEApplication.c ****                             break;
1473:.\BLEApplication.c ****                             case 1:
1474:.\BLEApplication.c ****                                 printf("+IOCAP=<DISPLAY_YESNO>\r\n");
1475:.\BLEApplication.c ****                             break;
1476:.\BLEApplication.c ****                             case 2:
1477:.\BLEApplication.c ****                                 printf("+IOCAP=<KEYBOARD_ONLY>\r\n");
1478:.\BLEApplication.c ****                             break;
1479:.\BLEApplication.c ****                             case 3:
1480:.\BLEApplication.c ****                                 printf("+IOCAP=<NOINPUT_NOOUTPUT>\r\n");
1481:.\BLEApplication.c ****                             break;
1482:.\BLEApplication.c ****                             case 4:
1483:.\BLEApplication.c ****                                 printf("+IOCAP=<KEYBOARD_DISPLAY>\r\n");
1484:.\BLEApplication.c ****                             break;
1485:.\BLEApplication.c ****                         }
1486:.\BLEApplication.c ****                     break;
1487:.\BLEApplication.c ****                 }   
1488:.\BLEApplication.c ****             }            
1489:.\BLEApplication.c ****             else
1490:.\BLEApplication.c ****             {
1491:.\BLEApplication.c **** //                printf("+IOCAP=<INVALID>\r\n");
1492:.\BLEApplication.c ****                 printf("AT+ERR=3\r\n");//Ë°®Á§∫ÂΩìÂâçÁä∂ÊÄÅ‰∏çÊîØÊåÅËØ•ÂëΩ‰ª§
1493:.\BLEApplication.c ****             }
1494:.\BLEApplication.c ****         break;
1495:.\BLEApplication.c ****         case AUTH:
1496:.\BLEApplication.c ****             idx=SerialData[8];
1497:.\BLEApplication.c ****             if(idx=='?')
1498:.\BLEApplication.c ****             {
1499:.\BLEApplication.c ****                 if(AUTHFLAG)
1500:.\BLEApplication.c ****                     printf("+AUTH=<ENABLE>\r\n");
1501:.\BLEApplication.c ****                 else
ARM GAS  C:\Users\Helon\AppData\Local\Temp\ccys0XsA.s 			page 39


1502:.\BLEApplication.c ****                     printf("+AUTH=<DISABLE>\r\n");
1503:.\BLEApplication.c ****             }
1504:.\BLEApplication.c ****             else if(idx=='1')
1505:.\BLEApplication.c ****             {
1506:.\BLEApplication.c ****                 if(!AUTHFLAG)
1507:.\BLEApplication.c ****                 {
1508:.\BLEApplication.c **** //                  ÂèëÈÄÅËÆ§ËØÅËØ∑Ê±Ç  
1509:.\BLEApplication.c ****                     API_RESULT=CyBle_GapAuthReq(cyBle_connHandle.bdHandle,&cyBle_authInfo); 
1510:.\BLEApplication.c ****                     if(API_RESULT==CYBLE_ERROR_OK)
1511:.\BLEApplication.c ****                     {
1512:.\BLEApplication.c ****                         printf("AT+OK\r\n");
1513:.\BLEApplication.c ****                     }
1514:.\BLEApplication.c ****                     else
1515:.\BLEApplication.c ****                     {
1516:.\BLEApplication.c ****                         printf("AT+ERR=2\r\n");//Ë°®Á§∫ÂëΩ‰ª§ËÆæÁΩÆÂ§±Ë¥•
1517:.\BLEApplication.c ****                     }
1518:.\BLEApplication.c ****                 }                                  
1519:.\BLEApplication.c ****                 else
1520:.\BLEApplication.c ****                 {
1521:.\BLEApplication.c ****                     printf("AT+ERR=3\r\n");//Ë°®Á§∫ÂΩìÂâçÁä∂ÊÄÅ‰∏çÊîØÊåÅËØ•ÂëΩ‰ª§
1522:.\BLEApplication.c ****                 }
1523:.\BLEApplication.c ****                     
1524:.\BLEApplication.c **** //                    printf("+AUTH=<INVALID>\r\n");
1525:.\BLEApplication.c ****             }
1526:.\BLEApplication.c ****         break;
1527:.\BLEApplication.c ****         default:
1528:.\BLEApplication.c ****             printf("AT+ERR=5\r\n");//Ë°®Á§∫Ê≤°ÊúâËØ•ATÂëΩ‰ª§
1529:.\BLEApplication.c ****         break;
1530:.\BLEApplication.c ****     }
1531:.\BLEApplication.c ****         
1532:.\BLEApplication.c **** }
1533:.\BLEApplication.c **** 
1534:.\BLEApplication.c **** /******************************************************************************
1535:.\BLEApplication.c **** * Function Name: Command_Identify
1536:.\BLEApplication.c **** ***************************************************************************//**
1537:.\BLEApplication.c **** * 
1538:.\BLEApplication.c **** *  ËØÜÂà´ATÂëΩ‰ª§
1539:.\BLEApplication.c **** * \param  SerialData:ÊåáÂêëcharÂûãÁöÑÊåáÈíà
1540:.\BLEApplication.c **** * \return ËøîÂõûATÂëΩ‰ª§Âú®ATÂëΩ‰ª§ÂàóË°®‰∏≠ÁöÑÁ¥¢ÂºïÂÄº
1541:.\BLEApplication.c **** *  
1542:.\BLEApplication.c **** * 
1543:.\BLEApplication.c **** ******************************************************************************/
1544:.\BLEApplication.c **** uint8_t Command_Identify(const char* SerialData)
1545:.\BLEApplication.c **** {
1546:.\BLEApplication.c ****     if(NULL==SerialData)
1547:.\BLEApplication.c ****         return FALSE;
1548:.\BLEApplication.c ****     uint8_t SerialArryLength=0,i=0,location;    
1549:.\BLEApplication.c **** //    char String[20]={0};
1550:.\BLEApplication.c ****     if(0==strcmp(SerialData,"AT\r\n"))
1551:.\BLEApplication.c ****     {
1552:.\BLEApplication.c **** //        printf("OK\r\n");
1553:.\BLEApplication.c ****         return _AT;
1554:.\BLEApplication.c ****     }
1555:.\BLEApplication.c ****     //Ëé∑ÂèñATÂëΩ‰ª§Á≠âÂè∑ÁöÑ‰ΩçÁΩÆÔºåÂ¶Ç‚ÄúAT+RESET=1‚Äù‰∏≠‚Äú=‚ÄùÂè∑ÁöÑ‰ΩçÁΩÆÊòØ8.
1556:.\BLEApplication.c ****     location=strchr((char*)SerialData,'=')-SerialData;
1557:.\BLEApplication.c ****     if(location>11)
1558:.\BLEApplication.c ****     {
ARM GAS  C:\Users\Helon\AppData\Local\Temp\ccys0XsA.s 			page 40


1559:.\BLEApplication.c ****         return 0xff;
1560:.\BLEApplication.c ****     }
1561:.\BLEApplication.c **** //    Âä®ÊÄÅÂàÜÈÖçÂ†ÜÁ©∫Èó¥
1562:.\BLEApplication.c ****     char* String=malloc(sizeof(char)*location);
1563:.\BLEApplication.c ****     //‰øùÂ≠òATÂëΩ‰ª§Á≠âÂè∑ÂâçÁöÑÊï∞ÊçÆ.
1564:.\BLEApplication.c ****     strncpy(String,SerialData,location);
1565:.\BLEApplication.c ****     SerialArryLength=sizeof(StringArry)/sizeof(StringArry[0]);   
1566:.\BLEApplication.c **** //    ÂåπÈÖçATÂëΩ‰ª§ÂàóË°®‰∏≠ATÂëΩ‰ª§ÁöÑ‰ΩçÁΩÆ
1567:.\BLEApplication.c ****     for(i=0;i<SerialArryLength;i++)
1568:.\BLEApplication.c ****     {
1569:.\BLEApplication.c ****         if(strncmp((char*)String,StringArry[i],location)==0)
1570:.\BLEApplication.c ****         {
1571:.\BLEApplication.c ****             break;
1572:.\BLEApplication.c ****         }
1573:.\BLEApplication.c **** //        printf("%s\r\n",StringArry[i]);
1574:.\BLEApplication.c **** //        printf("%d\r\n",strcmp((char*)String,StringArry[i]));
1575:.\BLEApplication.c ****     }
1576:.\BLEApplication.c **** //    ÈáäÊîæ‰πãÂâçÂàÜÈÖçÁöÑÂ†ÜÁ©∫Èó¥
1577:.\BLEApplication.c ****     free(String);
1578:.\BLEApplication.c ****     return i;
1579:.\BLEApplication.c **** }
1580:.\BLEApplication.c **** 
1581:.\BLEApplication.c **** /*******************************************************************************
1582:.\BLEApplication.c **** * Function Name: MyTimerIsr()
1583:.\BLEApplication.c **** ********************************************************************************
1584:.\BLEApplication.c **** * Summary:
1585:.\BLEApplication.c **** * Interrupt service routine for the timer block.
1586:.\BLEApplication.c **** *
1587:.\BLEApplication.c **** * Parameters:
1588:.\BLEApplication.c **** * None
1589:.\BLEApplication.c **** *
1590:.\BLEApplication.c **** * Return:
1591:.\BLEApplication.c **** * None
1592:.\BLEApplication.c **** *
1593:.\BLEApplication.c **** * Theory:
1594:.\BLEApplication.c **** * The ISR is fired when the timer reaches terminal count. In the ISR, the total
1595:.\BLEApplication.c **** * number of bytes received until now is cached locally (to avoid any potential 
1596:.\BLEApplication.c **** * race conditions) and then the throughput is calculated from it.
1597:.\BLEApplication.c **** * Since the ISR fires 10 seconds after the timer is started, the total number
1598:.\BLEApplication.c **** * of bytes is divided by 10. The bytes are converted to kilobytes by dividing 
1599:.\BLEApplication.c **** * by 1024. It is then converted to kilo bits by multiplying the result by 8.
1600:.\BLEApplication.c **** *
1601:.\BLEApplication.c **** * Side Effects:
1602:.\BLEApplication.c **** * None
1603:.\BLEApplication.c **** *
1604:.\BLEApplication.c **** *******************************************************************************/
1605:.\BLEApplication.c **** CY_ISR(MyTimerIsr)
1606:.\BLEApplication.c **** {
 660              		.loc 1 1606 0
 661              		.cfi_startproc
 662 0000 38B5     		push	{r3, r4, r5, lr}
 663              		.cfi_def_cfa_offset 16
 664              		.cfi_offset 3, -16
 665              		.cfi_offset 4, -12
 666              		.cfi_offset 5, -8
 667              		.cfi_offset 14, -4
1607:.\BLEApplication.c **** //    uint32 cachedTotalByteCounter = totalByteCounter;
ARM GAS  C:\Users\Helon\AppData\Local\Temp\ccys0XsA.s 			page 41


1608:.\BLEApplication.c **** //    uint32 throughput;
1609:.\BLEApplication.c ****     static uint32 timercount=0;
1610:.\BLEApplication.c ****     Timer_ClearInterrupt(Timer_INTR_MASK_TC);
 668              		.loc 1 1610 0
 669 0002 0120     		mov	r0, #1
 670 0004 FFF7FEFF 		bl	Timer_ClearInterrupt
 671              	.LVL79:
1611:.\BLEApplication.c ****     _10sIsOver=TURE;
 672              		.loc 1 1611 0
 673 0008 094A     		ldr	r2, .L43
 674 000a 0123     		mov	r3, #1
 675 000c 5374     		strb	r3, [r2, #17]
1612:.\BLEApplication.c ****     timercount++;
 676              		.loc 1 1612 0
 677 000e 5369     		ldr	r3, [r2, #20]
 678 0010 0133     		add	r3, r3, #1
 679 0012 5361     		str	r3, [r2, #20]
1613:.\BLEApplication.c ****     if(timercount==10001)
 680              		.loc 1 1613 0
 681 0014 074A     		ldr	r2, .L43+4
 682 0016 9342     		cmp	r3, r2
 683 0018 08D1     		bne	.L41
1614:.\BLEApplication.c ****     {
1615:.\BLEApplication.c ****         _10sIsOver=FALSE;
 684              		.loc 1 1615 0
 685 001a 054C     		ldr	r4, .L43
 686 001c 0025     		mov	r5, #0
 687 001e 6574     		strb	r5, [r4, #17]
1616:.\BLEApplication.c ****         Timer_Stop();
 688              		.loc 1 1616 0
 689 0020 FFF7FEFF 		bl	Timer_Stop
 690              	.LVL80:
1617:.\BLEApplication.c ****         timercount=0;
 691              		.loc 1 1617 0
 692 0024 6561     		str	r5, [r4, #20]
1618:.\BLEApplication.c ****         printf("Send Compelete!\r\n");
 693              		.loc 1 1618 0
 694 0026 0448     		ldr	r0, .L43+8
 695 0028 FFF7FEFF 		bl	puts
 696              	.LVL81:
 697              	.L41:
1619:.\BLEApplication.c ****         
1620:.\BLEApplication.c ****     }
1621:.\BLEApplication.c **** //    charNotificationEnabled=FALSE;
1622:.\BLEApplication.c **** //    TroughtTest_Flag=FALSE;
1623:.\BLEApplication.c **** //    TroughtTest_Flag=FALSE;
1624:.\BLEApplication.c ****     /* Total bytes received in 10 seconds converted to Kilo bits per second */
1625:.\BLEApplication.c **** //    printf("totalByteCounter is %ld",totalByteCounter);
1626:.\BLEApplication.c **** //    while((UART_SpiUartGetTxBufferSize() + UART_GET_TX_FIFO_SR_VALID) != 0);//Á≠âÂæÖ‰∏≤Âè£ÁºìÂÜ≤Â
1627:.\BLEApplication.c **** //    throughput = (cachedTotalByteCounter >> 7) / 10;
1628:.\BLEApplication.c **** //    printf("\r\n+SPEED=<%ldkbps>\r\n",throughput);      
1629:.\BLEApplication.c **** //    CyBle_GattcWriteCharacteristicDescriptors(cyBle_connHandle, &writeRequestData);
1630:.\BLEApplication.c **** }
 698              		.loc 1 1630 0
 699              		@ sp needed
 700 002c 38BD     		pop	{r3, r4, r5, pc}
 701              	.L44:
ARM GAS  C:\Users\Helon\AppData\Local\Temp\ccys0XsA.s 			page 42


 702 002e C046     		.align	2
 703              	.L43:
 704 0030 00000000 		.word	.LANCHOR0
 705 0034 11270000 		.word	10001
 706 0038 3C010000 		.word	.LC41
 707              		.cfi_endproc
 708              	.LFE45:
 709              		.size	MyTimerIsr, .-MyTimerIsr
 710              		.section	.text.LowPowerManagement,"ax",%progbits
 711              		.align	2
 712              		.global	LowPowerManagement
 713              		.code	16
 714              		.thumb_func
 715              		.type	LowPowerManagement, %function
 716              	LowPowerManagement:
 717              	.LFB36:
 441:.\BLEApplication.c ****     /* Local variable to store the status of BLESS Hardware block */
 718              		.loc 1 441 0
 719              		.cfi_startproc
 720 0000 10B5     		push	{r4, lr}
 721              		.cfi_def_cfa_offset 8
 722              		.cfi_offset 4, -8
 723              		.cfi_offset 14, -4
 447:.\BLEApplication.c **** 		
 724              		.loc 1 447 0
 725 0002 0320     		mov	r0, #3
 726 0004 FFF7FEFF 		bl	CyBle_EnterLPM
 727              	.LVL82:
 728 0008 041C     		mov	r4, r0
 729              	.LVL83:
 450:.\BLEApplication.c **** 	
 730              		.loc 1 450 0
 731              	@ 450 ".\BLEApplication.c" 1
 732 000a 72B6     		CPSID   i
 733              	@ 0 "" 2
 453:.\BLEApplication.c **** 
 734              		.loc 1 453 0
 735              		.code	16
 736 000c FFF7FEFF 		bl	CyBle_GetBleSsState
 737              	.LVL84:
 455:.\BLEApplication.c **** 		{
 738              		.loc 1 455 0
 739 0010 032C     		cmp	r4, #3
 740 0012 28D1     		bne	.L46
 459:.\BLEApplication.c **** 		    {
 741              		.loc 1 459 0
 742 0014 0428     		cmp	r0, #4
 743 0016 01D0     		beq	.L47
 459:.\BLEApplication.c **** 		    {
 744              		.loc 1 459 0 is_stmt 0 discriminator 1
 745 0018 0628     		cmp	r0, #6
 746 001a 2AD1     		bne	.L48
 747              	.L47:
 462:.\BLEApplication.c ****                 while((UART_SpiUartGetTxBufferSize() + UART_GET_TX_FIFO_SR_VALID) != 0);//Á≠âÂæÖ‰∏≤
 748              		.loc 1 462 0 is_stmt 1
 749 001c 0020     		mov	r0, #0
 750              	.LVL85:
ARM GAS  C:\Users\Helon\AppData\Local\Temp\ccys0XsA.s 			page 43


 751 001e FFF7FEFF 		bl	Status_LED_Write
 752              	.LVL86:
 753              	.L50:
 463:.\BLEApplication.c ****                 UART_Sleep();
 754              		.loc 1 463 0 discriminator 5
 755 0022 FFF7FEFF 		bl	UART_SpiUartGetTxBufferSize
 756              	.LVL87:
 757 0026 144B     		ldr	r3, .L51
 758 0028 1B68     		ldr	r3, [r3]
 759 002a 8022     		mov	r2, #128
 760 002c 1202     		lsl	r2, r2, #8
 761 002e 1340     		and	r3, r2
 762 0030 00D0     		beq	.L49
 463:.\BLEApplication.c ****                 UART_Sleep();
 763              		.loc 1 463 0 is_stmt 0
 764 0032 0123     		mov	r3, #1
 765              	.L49:
 463:.\BLEApplication.c ****                 UART_Sleep();
 766              		.loc 1 463 0 discriminator 4
 767 0034 C318     		add	r3, r0, r3
 768 0036 002B     		cmp	r3, #0
 769 0038 F3D1     		bne	.L50
 464:.\BLEApplication.c **** 		        CySysPmDeepSleep();
 770              		.loc 1 464 0 is_stmt 1
 771 003a FFF7FEFF 		bl	UART_Sleep
 772              	.LVL88:
 465:.\BLEApplication.c ****                 UART_Wakeup();
 773              		.loc 1 465 0
 774 003e FFF7FEFF 		bl	CySysPmDeepSleep
 775              	.LVL89:
 466:.\BLEApplication.c ****                 CyDelay(5);
 776              		.loc 1 466 0
 777 0042 FFF7FEFF 		bl	UART_Wakeup
 778              	.LVL90:
 467:.\BLEApplication.c ****                 UART_SpiUartClearRxBuffer();//Ê∏ÖÈô§‰∏≤Âè£Êé•Êî∂ÁºìÂÜ≤Âå∫
 779              		.loc 1 467 0
 780 0046 0520     		mov	r0, #5
 781 0048 FFF7FEFF 		bl	CyDelay
 782              	.LVL91:
 468:.\BLEApplication.c ****                 UART_RX_WAKEUP_IRQ_ClearPending();
 783              		.loc 1 468 0
 784 004c FFF7FEFF 		bl	UART_SpiUartClearRxBuffer
 785              	.LVL92:
 469:.\BLEApplication.c **** //                UART_SCB_IRQ_ClearPending();
 786              		.loc 1 469 0
 787 0050 FFF7FEFF 		bl	UART_RX_WAKEUP_IRQ_ClearPending
 788              	.LVL93:
 471:.\BLEApplication.c **** //                UART_RX_WAKEUP_IRQ_Disable();
 789              		.loc 1 471 0
 790 0054 FFF7FEFF 		bl	UART_rx_wake_ClearInterrupt
 791              	.LVL94:
 476:.\BLEApplication.c ****                 Status_LED_Write(LED_OFF);  
 792              		.loc 1 476 0
 793 0058 0022     		mov	r2, #0
 794 005a 084B     		ldr	r3, .L51+4
 795 005c 9A72     		strb	r2, [r3, #10]
 477:.\BLEApplication.c **** 
ARM GAS  C:\Users\Helon\AppData\Local\Temp\ccys0XsA.s 			page 44


 796              		.loc 1 477 0
 797 005e 0120     		mov	r0, #1
 798 0060 FFF7FEFF 		bl	Status_LED_Write
 799              	.LVL95:
 800 0064 05E0     		b	.L48
 801              	.LVL96:
 802              	.L46:
 481:.\BLEApplication.c **** 		{
 803              		.loc 1 481 0
 804 0066 022C     		cmp	r4, #2
 805 0068 03D1     		bne	.L48
 483:.\BLEApplication.c **** 		    {
 806              		.loc 1 483 0
 807 006a 0228     		cmp	r0, #2
 808 006c 01D0     		beq	.L48
 487:.\BLEApplication.c **** 		    }
 809              		.loc 1 487 0
 810 006e FFF7FEFF 		bl	CySysPmSleep
 811              	.LVL97:
 812              	.L48:
 491:.\BLEApplication.c ****         
 813              		.loc 1 491 0
 814              	@ 491 ".\BLEApplication.c" 1
 815 0072 62B6     		CPSIE   i
 816              	@ 0 "" 2
 493:.\BLEApplication.c **** 
 817              		.loc 1 493 0
 818              		.code	16
 819              		@ sp needed
 820              	.LVL98:
 821 0074 10BD     		pop	{r4, pc}
 822              	.L52:
 823 0076 C046     		.align	2
 824              	.L51:
 825 0078 08022440 		.word	1076101640
 826 007c 00000000 		.word	.LANCHOR1
 827              		.cfi_endproc
 828              	.LFE36:
 829              		.size	LowPowerManagement, .-LowPowerManagement
 830              		.section	.text.MY_ISR_USERBUTTON,"ax",%progbits
 831              		.align	2
 832              		.global	MY_ISR_USERBUTTON
 833              		.code	16
 834              		.thumb_func
 835              		.type	MY_ISR_USERBUTTON, %function
 836              	MY_ISR_USERBUTTON:
 837              	.LFB37:
 506:.\BLEApplication.c **** //    isr_UserButton_ClearPending();
 838              		.loc 1 506 0
 839              		.cfi_startproc
 518:.\BLEApplication.c **** /******************************************************************************
 840              		.loc 1 518 0
 841              		@ sp needed
 842 0000 7047     		bx	lr
 843              		.cfi_endproc
 844              	.LFE37:
 845              		.size	MY_ISR_USERBUTTON, .-MY_ISR_USERBUTTON
ARM GAS  C:\Users\Helon\AppData\Local\Temp\ccys0XsA.s 			page 45


 846 0002 C046     		.section	.text.My_ISR_UART,"ax",%progbits
 847              		.align	2
 848              		.global	My_ISR_UART
 849              		.code	16
 850              		.thumb_func
 851              		.type	My_ISR_UART, %function
 852              	My_ISR_UART:
 853              	.LFB38:
 530:.\BLEApplication.c **** //    uint8_t rxdata;
 854              		.loc 1 530 0
 855              		.cfi_startproc
 532:.\BLEApplication.c ****     {
 856              		.loc 1 532 0
 857 0000 054B     		ldr	r3, .L56
 858 0002 1B68     		ldr	r3, [r3]
 859 0004 5B07     		lsl	r3, r3, #29
 860 0006 02D5     		bpl	.L55
 534:.\BLEApplication.c ****         //ËØªÂèñ‰∏≤Âè£Êï∞ÊçÆ
 861              		.loc 1 534 0
 862 0008 0122     		mov	r2, #1
 863 000a 044B     		ldr	r3, .L56+4
 864 000c 1A76     		strb	r2, [r3, #24]
 865              	.L55:
 552:.\BLEApplication.c ****   
 866              		.loc 1 552 0
 867 000e 0422     		mov	r2, #4
 868 0010 034B     		ldr	r3, .L56+8
 869 0012 1A60     		str	r2, [r3]
 554:.\BLEApplication.c **** 
 870              		.loc 1 554 0
 871              		@ sp needed
 872 0014 7047     		bx	lr
 873              	.L57:
 874 0016 C046     		.align	2
 875              	.L56:
 876 0018 CC0F2440 		.word	1076105164
 877 001c 00000000 		.word	.LANCHOR0
 878 0020 C00F2440 		.word	1076105152
 879              		.cfi_endproc
 880              	.LFE38:
 881              		.size	My_ISR_UART, .-My_ISR_UART
 882              		.section	.text.ConfigUartInit,"ax",%progbits
 883              		.align	2
 884              		.global	ConfigUartInit
 885              		.code	16
 886              		.thumb_func
 887              		.type	ConfigUartInit, %function
 888              	ConfigUartInit:
 889              	.LFB40:
 607:.\BLEApplication.c **** //    configUart.mode=UART_UART_MODE_STD;         /* mode: Standard */ 
 890              		.loc 1 607 0
 891              		.cfi_startproc
 634:.\BLEApplication.c **** /******************************************************************************
 892              		.loc 1 634 0
 893              		@ sp needed
 894 0000 7047     		bx	lr
 895              		.cfi_endproc
ARM GAS  C:\Users\Helon\AppData\Local\Temp\ccys0XsA.s 			page 46


 896              	.LFE40:
 897              		.size	ConfigUartInit, .-ConfigUartInit
 898 0002 C046     		.section	.text.SetUartConfiguration,"ax",%progbits
 899              		.align	2
 900              		.global	SetUartConfiguration
 901              		.code	16
 902              		.thumb_func
 903              		.type	SetUartConfiguration, %function
 904              	SetUartConfiguration:
 905              	.LFB41:
 646:.\BLEApplication.c **** //    cystatus status = CYRET_SUCCESS; 
 906              		.loc 1 646 0
 907              		.cfi_startproc
 908              	.LVL99:
 656:.\BLEApplication.c **** 
 909              		.loc 1 656 0
 910              		@ sp needed
 911 0000 7047     		bx	lr
 912              		.cfi_endproc
 913              	.LFE41:
 914              		.size	SetUartConfiguration, .-SetUartConfiguration
 915 0002 C046     		.section	.text.LedInit,"ax",%progbits
 916              		.align	2
 917              		.global	LedInit
 918              		.code	16
 919              		.thumb_func
 920              		.type	LedInit, %function
 921              	LedInit:
 922              	.LFB42:
 669:.\BLEApplication.c ****     Status_LED_SetDriveMode(Status_LED_DM_STRONG);
 923              		.loc 1 669 0
 924              		.cfi_startproc
 925 0000 08B5     		push	{r3, lr}
 926              		.cfi_def_cfa_offset 8
 927              		.cfi_offset 3, -8
 928              		.cfi_offset 14, -4
 670:.\BLEApplication.c ****     Connected_LED_SetDriveMode(Connected_LED_DM_STRONG);
 929              		.loc 1 670 0
 930 0002 0620     		mov	r0, #6
 931 0004 FFF7FEFF 		bl	Status_LED_SetDriveMode
 932              	.LVL100:
 671:.\BLEApplication.c ****     Status_LED_Write(LED_OFF);
 933              		.loc 1 671 0
 934 0008 0620     		mov	r0, #6
 935 000a FFF7FEFF 		bl	Connected_LED_SetDriveMode
 936              	.LVL101:
 672:.\BLEApplication.c ****     Connected_LED_Write(LED_OFF);
 937              		.loc 1 672 0
 938 000e 0120     		mov	r0, #1
 939 0010 FFF7FEFF 		bl	Status_LED_Write
 940              	.LVL102:
 673:.\BLEApplication.c **** }
 941              		.loc 1 673 0
 942 0014 0120     		mov	r0, #1
 943 0016 FFF7FEFF 		bl	Connected_LED_Write
 944              	.LVL103:
 674:.\BLEApplication.c **** 
ARM GAS  C:\Users\Helon\AppData\Local\Temp\ccys0XsA.s 			page 47


 945              		.loc 1 674 0
 946              		@ sp needed
 947 001a 08BD     		pop	{r3, pc}
 948              		.cfi_endproc
 949              	.LFE42:
 950              		.size	LedInit, .-LedInit
 951              		.section	.text.SystemInitialization,"ax",%progbits
 952              		.align	2
 953              		.global	SystemInitialization
 954              		.code	16
 955              		.thumb_func
 956              		.type	SystemInitialization, %function
 957              	SystemInitialization:
 958              	.LFB39:
 567:.\BLEApplication.c **** //    ÊµÅÊéßÂºïËÑöÁöÑÂàùÂßãÂåñ
 959              		.loc 1 567 0
 960              		.cfi_startproc
 961 0000 08B5     		push	{r3, lr}
 962              		.cfi_def_cfa_offset 8
 963              		.cfi_offset 3, -8
 964              		.cfi_offset 14, -4
 569:.\BLEApplication.c ****     CTS_Write(CTS_OFF);//ÊµÅÊéßÊòØ‰ΩéÁîµÂπ≥ÊúâÊïà
 965              		.loc 1 569 0
 966 0002 0620     		mov	r0, #6
 967 0004 FFF7FEFF 		bl	CTS_SetDriveMode
 968              	.LVL104:
 570:.\BLEApplication.c **** //    uint16_t counter;
 969              		.loc 1 570 0
 970 0008 0120     		mov	r0, #1
 971 000a FFF7FEFF 		bl	CTS_Write
 972              	.LVL105:
 578:.\BLEApplication.c ****     writeRequestData.value=cccdNotifFlagSetStruct;
 973              		.loc 1 578 0
 974 000e 0A4A     		ldr	r2, .L62
 975 0010 0F23     		mov	r3, #15
 976 0012 1381     		strh	r3, [r2, #8]
 579:.\BLEApplication.c **** //    ÂàùÂßãÂåñÂπøÊí≠Èó¥ÈöîÂíåÂπøÂëäË∂ÖÊó∂Êó∂Èó¥
 977              		.loc 1 579 0
 978 0014 094B     		ldr	r3, .L62+4
 979 0016 0C33     		add	r3, r3, #12
 980 0018 03CB     		ldmia	r3!, {r0, r1}
 981 001a 03C2     		stmia	r2!, {r0, r1}
 586:.\BLEApplication.c ****     TimerInterrupt_StartEx(MyTimerIsr);
 982              		.loc 1 586 0
 983 001c FFF7FEFF 		bl	Timer_Init
 984              	.LVL106:
 587:.\BLEApplication.c ****     UART_Start();
 985              		.loc 1 587 0
 986 0020 0748     		ldr	r0, .L62+8
 987 0022 FFF7FEFF 		bl	TimerInterrupt_StartEx
 988              	.LVL107:
 588:.\BLEApplication.c ****   //    UART_SCB_IRQ_StartEx(My_ISR_UART);   
 989              		.loc 1 588 0
 990 0026 FFF7FEFF 		bl	UART_Start
 991              	.LVL108:
 591:.\BLEApplication.c ****     CyBle_Start(StackEventHandler);
 992              		.loc 1 591 0
ARM GAS  C:\Users\Helon\AppData\Local\Temp\ccys0XsA.s 			page 48


 993 002a FFF7FEFF 		bl	LedInit
 994              	.LVL109:
 592:.\BLEApplication.c ****     
 995              		.loc 1 592 0
 996 002e 0548     		ldr	r0, .L62+12
 997 0030 FFF7FEFF 		bl	CyBle_Start
 998              	.LVL110:
 594:.\BLEApplication.c **** 
 999              		.loc 1 594 0
 1000              		@ sp needed
 1001 0034 08BD     		pop	{r3, pc}
 1002              	.L63:
 1003 0036 C046     		.align	2
 1004              	.L62:
 1005 0038 00000000 		.word	writeRequestData
 1006 003c 00000000 		.word	.LANCHOR1
 1007 0040 00000000 		.word	MyTimerIsr
 1008 0044 00000000 		.word	StackEventHandler
 1009              		.cfi_endproc
 1010              	.LFE39:
 1011              		.size	SystemInitialization, .-SystemInitialization
 1012              		.section	.text.Command_Identify,"ax",%progbits
 1013              		.align	2
 1014              		.global	Command_Identify
 1015              		.code	16
 1016              		.thumb_func
 1017              		.type	Command_Identify, %function
 1018              	Command_Identify:
 1019              	.LFB44:
1545:.\BLEApplication.c ****     if(NULL==SerialData)
 1020              		.loc 1 1545 0
 1021              		.cfi_startproc
 1022              	.LVL111:
 1023 0000 70B5     		push	{r4, r5, r6, lr}
 1024              		.cfi_def_cfa_offset 16
 1025              		.cfi_offset 4, -16
 1026              		.cfi_offset 5, -12
 1027              		.cfi_offset 6, -8
 1028              		.cfi_offset 14, -4
1546:.\BLEApplication.c ****         return FALSE;
 1029              		.loc 1 1546 0
 1030 0002 0028     		cmp	r0, #0
 1031 0004 2CD0     		beq	.L69
 1032 0006 041C     		mov	r4, r0
 1033              	.LVL112:
1550:.\BLEApplication.c ****     {
 1034              		.loc 1 1550 0
 1035 0008 1849     		ldr	r1, .L72
 1036 000a FFF7FEFF 		bl	strcmp
 1037              	.LVL113:
 1038 000e 0028     		cmp	r0, #0
 1039 0010 28D0     		beq	.L70
1556:.\BLEApplication.c ****     if(location>11)
 1040              		.loc 1 1556 0
 1041 0012 201C     		mov	r0, r4
 1042 0014 3D21     		mov	r1, #61
 1043 0016 FFF7FEFF 		bl	strchr
ARM GAS  C:\Users\Helon\AppData\Local\Temp\ccys0XsA.s 			page 49


 1044              	.LVL114:
 1045 001a 001B     		sub	r0, r0, r4
 1046 001c C3B2     		uxtb	r3, r0
 1047              	.LVL115:
1557:.\BLEApplication.c ****     {
 1048              		.loc 1 1557 0
 1049 001e 0B2B     		cmp	r3, #11
 1050 0020 22D8     		bhi	.L71
 1051 0022 FF25     		mov	r5, #255
 1052 0024 0540     		and	r5, r0
1562:.\BLEApplication.c ****     //‰øùÂ≠òATÂëΩ‰ª§Á≠âÂè∑ÂâçÁöÑÊï∞ÊçÆ.
 1053              		.loc 1 1562 0
 1054 0026 281C     		mov	r0, r5
 1055 0028 FFF7FEFF 		bl	malloc
 1056              	.LVL116:
 1057 002c 061C     		mov	r6, r0
 1058              	.LVL117:
1564:.\BLEApplication.c ****     SerialArryLength=sizeof(StringArry)/sizeof(StringArry[0]);   
 1059              		.loc 1 1564 0
 1060 002e 211C     		mov	r1, r4
 1061 0030 2A1C     		mov	r2, r5
 1062 0032 FFF7FEFF 		bl	strncpy
 1063              	.LVL118:
1567:.\BLEApplication.c ****     {
 1064              		.loc 1 1567 0
 1065 0036 0024     		mov	r4, #0
 1066              	.LVL119:
 1067 0038 0BE0     		b	.L66
 1068              	.LVL120:
 1069              	.L68:
1569:.\BLEApplication.c ****         {
 1070              		.loc 1 1569 0
 1071 003a A300     		lsl	r3, r4, #2
 1072 003c 0C4A     		ldr	r2, .L72+4
 1073 003e D318     		add	r3, r2, r3
 1074 0040 5969     		ldr	r1, [r3, #20]
 1075 0042 301C     		mov	r0, r6
 1076 0044 2A1C     		mov	r2, r5
 1077 0046 FFF7FEFF 		bl	strncmp
 1078              	.LVL121:
 1079 004a 0028     		cmp	r0, #0
 1080 004c 03D0     		beq	.L67
1567:.\BLEApplication.c ****     {
 1081              		.loc 1 1567 0 discriminator 2
 1082 004e 0134     		add	r4, r4, #1
 1083              	.LVL122:
 1084 0050 E4B2     		uxtb	r4, r4
 1085              	.LVL123:
 1086              	.L66:
1567:.\BLEApplication.c ****     {
 1087              		.loc 1 1567 0 is_stmt 0 discriminator 1
 1088 0052 192C     		cmp	r4, #25
 1089 0054 F1D9     		bls	.L68
 1090              	.L67:
1577:.\BLEApplication.c ****     return i;
 1091              		.loc 1 1577 0 is_stmt 1
 1092 0056 301C     		mov	r0, r6
ARM GAS  C:\Users\Helon\AppData\Local\Temp\ccys0XsA.s 			page 50


 1093 0058 FFF7FEFF 		bl	free
 1094              	.LVL124:
1578:.\BLEApplication.c **** }
 1095              		.loc 1 1578 0
 1096 005c 201C     		mov	r0, r4
 1097 005e 04E0     		b	.L65
 1098              	.LVL125:
 1099              	.L69:
1547:.\BLEApplication.c ****     uint8_t SerialArryLength=0,i=0,location;    
 1100              		.loc 1 1547 0
 1101 0060 0020     		mov	r0, #0
 1102              	.LVL126:
 1103 0062 02E0     		b	.L65
 1104              	.LVL127:
 1105              	.L70:
1553:.\BLEApplication.c ****     }
 1106              		.loc 1 1553 0
 1107 0064 1320     		mov	r0, #19
 1108 0066 00E0     		b	.L65
 1109              	.LVL128:
 1110              	.L71:
1559:.\BLEApplication.c ****     }
 1111              		.loc 1 1559 0
 1112 0068 FF20     		mov	r0, #255
 1113              	.LVL129:
 1114              	.L65:
1579:.\BLEApplication.c **** 
 1115              		.loc 1 1579 0
 1116              		@ sp needed
 1117 006a 70BD     		pop	{r4, r5, r6, pc}
 1118              	.L73:
 1119              		.align	2
 1120              	.L72:
 1121 006c 50010000 		.word	.LC49
 1122 0070 00000000 		.word	.LANCHOR1
 1123              		.cfi_endproc
 1124              	.LFE44:
 1125              		.size	Command_Identify, .-Command_Identify
 1126              		.section	.text.SendNotification,"ax",%progbits
 1127              		.align	2
 1128              		.global	SendNotification
 1129              		.code	16
 1130              		.thumb_func
 1131              		.type	SendNotification, %function
 1132              	SendNotification:
 1133              	.LFB46:
1631:.\BLEApplication.c **** 
1632:.\BLEApplication.c **** /*******************************************************************************
1633:.\BLEApplication.c **** * Function Name: SendNotification()
1634:.\BLEApplication.c **** ********************************************************************************
1635:.\BLEApplication.c **** * Summary:
1636:.\BLEApplication.c **** * This function creates a notification packet and sends it.
1637:.\BLEApplication.c **** *
1638:.\BLEApplication.c **** * Parameters:
1639:.\BLEApplication.c **** * None
1640:.\BLEApplication.c **** *
1641:.\BLEApplication.c **** * Return:
ARM GAS  C:\Users\Helon\AppData\Local\Temp\ccys0XsA.s 			page 51


1642:.\BLEApplication.c **** * None
1643:.\BLEApplication.c **** *
1644:.\BLEApplication.c **** * Theory:
1645:.\BLEApplication.c **** * The function creates a notification packet for the custom characteristic and 
1646:.\BLEApplication.c **** * sends it over BLE. The amount of data sent for the characteristic is equal 
1647:.\BLEApplication.c **** * to (negotiated MTU size - 3) bytes.
1648:.\BLEApplication.c **** *
1649:.\BLEApplication.c **** * Side Effects:
1650:.\BLEApplication.c **** * None
1651:.\BLEApplication.c **** *
1652:.\BLEApplication.c **** *******************************************************************************/
1653:.\BLEApplication.c **** void SendNotification(uint8_t*val,uint16_t len)
1654:.\BLEApplication.c **** {
 1134              		.loc 1 1654 0
 1135              		.cfi_startproc
 1136              	.LVL130:
 1137 0000 00B5     		push	{lr}
 1138              		.cfi_def_cfa_offset 4
 1139              		.cfi_offset 14, -4
 1140 0002 85B0     		sub	sp, sp, #20
 1141              		.cfi_def_cfa_offset 24
 1142              	.LVL131:
1655:.\BLEApplication.c **** //    uint8   index;
1656:.\BLEApplication.c **** //    uint8   uartTxData[negotiatedMtu - 3];
1657:.\BLEApplication.c ****     CYBLE_API_RESULT_T API_RESULT=0;
1658:.\BLEApplication.c **** //    uint16_t uartTxDataLength;
1659:.\BLEApplication.c **** //    static uint16 uartIdleCount = UART_IDLE_TIMEOUT;
1660:.\BLEApplication.c **** ////    Uart_Char=UART_UartGetChar();
1661:.\BLEApplication.c **** //    CYBLE_GATTS_HANDLE_VALUE_NTF_T      uartTxDataNtf;
1662:.\BLEApplication.c ****     
1663:.\BLEApplication.c ****     /* Create a new notification packet */
1664:.\BLEApplication.c ****     CYBLE_GATTS_HANDLE_VALUE_NTF_T notificationPacket;
1665:.\BLEApplication.c **** //    CYBLE_API_RESULT_T API_RESULT;
1666:.\BLEApplication.c ****     /* Update Notification packet with the data.
1667:.\BLEApplication.c ****      * Maximum data which can be sent is equal to (Negotiated MTU - 3) bytes.
1668:.\BLEApplication.c ****      */
1669:.\BLEApplication.c ****     notificationPacket.attrHandle = CYBLE_TROUGHPUT_SERVICE_CUSTOM_CHARACTERISTIC_CHAR_HANDLE;
 1143              		.loc 1 1669 0
 1144 0004 01AB     		add	r3, sp, #4
 1145 0006 0E22     		mov	r2, #14
 1146 0008 1A81     		strh	r2, [r3, #8]
1670:.\BLEApplication.c ****     notificationPacket.value.val = val;   
 1147              		.loc 1 1670 0
 1148 000a 0190     		str	r0, [sp, #4]
1671:.\BLEApplication.c ****     notificationPacket.value.len = len - 3;
 1149              		.loc 1 1671 0
 1150 000c 0339     		sub	r1, r1, #3
 1151              	.LVL132:
 1152 000e 9980     		strh	r1, [r3, #4]
1672:.\BLEApplication.c **** //    notificationPacket.value.actualLen=0x00;
1673:.\BLEApplication.c ****     /* Report data to BLE component */
1674:.\BLEApplication.c ****     CyBle_GattsNotification(cyBle_connHandle, &notificationPacket);
 1153              		.loc 1 1674 0
 1154 0010 0649     		ldr	r1, .L75
 1155 0012 0A78     		ldrb	r2, [r1]
 1156 0014 4878     		ldrb	r0, [r1, #1]
 1157              	.LVL133:
ARM GAS  C:\Users\Helon\AppData\Local\Temp\ccys0XsA.s 			page 52


 1158 0016 0002     		lsl	r0, r0, #8
 1159 0018 1043     		orr	r0, r2
 1160 001a 191C     		mov	r1, r3
 1161 001c FFF7FEFF 		bl	CyBle_GattsNotification
 1162              	.LVL134:
1675:.\BLEApplication.c ****     printf("SendNotification is %d\r\n",API_RESULT);
 1163              		.loc 1 1675 0
 1164 0020 0348     		ldr	r0, .L75+4
 1165 0022 0021     		mov	r1, #0
 1166 0024 FFF7FEFF 		bl	printf
 1167              	.LVL135:
1676:.\BLEApplication.c **** }
 1168              		.loc 1 1676 0
 1169 0028 05B0     		add	sp, sp, #20
 1170              		@ sp needed
 1171 002a 00BD     		pop	{pc}
 1172              	.L76:
 1173              		.align	2
 1174              	.L75:
 1175 002c 00000000 		.word	cyBle_connHandle
 1176 0030 58010000 		.word	.LC53
 1177              		.cfi_endproc
 1178              	.LFE46:
 1179              		.size	SendNotification, .-SendNotification
 1180              		.section	.text.SendData_toSlave,"ax",%progbits
 1181              		.align	2
 1182              		.global	SendData_toSlave
 1183              		.code	16
 1184              		.thumb_func
 1185              		.type	SendData_toSlave, %function
 1186              	SendData_toSlave:
 1187              	.LFB47:
1677:.\BLEApplication.c **** /******************************************************************************
1678:.\BLEApplication.c **** * Function Name: SendData_toSlave
1679:.\BLEApplication.c **** ***************************************************************************//**
1680:.\BLEApplication.c **** * 
1681:.\BLEApplication.c **** *  MasterÁªôSlaveÂèëÊï∞ÊçÆ
1682:.\BLEApplication.c **** * \param  val:ÊåáÂêëË¶ÅÂèëÈÄÅÁöÑÊï∞ÊçÆÁöÑÈ¶ñÂú∞ÂùÄ
1683:.\BLEApplication.c **** * \param  len:Ë¶ÅÂèëÈÄÅÁöÑÊï∞ÊçÆÁöÑÈïøÂ∫¶
1684:.\BLEApplication.c **** * \return none
1685:.\BLEApplication.c **** *  
1686:.\BLEApplication.c **** * 
1687:.\BLEApplication.c **** ******************************************************************************/
1688:.\BLEApplication.c **** void SendData_toSlave(uint8_t*val,uint16_t len)
1689:.\BLEApplication.c **** {
 1188              		.loc 1 1689 0
 1189              		.cfi_startproc
 1190              	.LVL136:
 1191 0000 00B5     		push	{lr}
 1192              		.cfi_def_cfa_offset 4
 1193              		.cfi_offset 14, -4
 1194 0002 87B0     		sub	sp, sp, #28
 1195              		.cfi_def_cfa_offset 32
 1196              	.LVL137:
1690:.\BLEApplication.c **** //    uint8 cccdNotifEnabledValue[] = {0x01, 0x00};
1691:.\BLEApplication.c ****     CYBLE_API_RESULT_T API_RESULT=0;
1692:.\BLEApplication.c ****     CYBLE_GATT_VALUE_T SendDataStruct =
ARM GAS  C:\Users\Helon\AppData\Local\Temp\ccys0XsA.s 			page 53


 1197              		.loc 1 1692 0
 1198 0004 04AB     		add	r3, sp, #16
 1199 0006 0490     		str	r0, [sp, #16]
 1200 0008 9980     		strh	r1, [r3, #4]
 1201 000a 0022     		mov	r2, #0
 1202 000c DA80     		strh	r2, [r3, #6]
1693:.\BLEApplication.c ****     {
1694:.\BLEApplication.c ****         val,
1695:.\BLEApplication.c ****         len,
1696:.\BLEApplication.c ****         0
1697:.\BLEApplication.c ****     };
1698:.\BLEApplication.c ****     CYBLE_GATTC_WRITE_REQ_T writeRequestData;
1699:.\BLEApplication.c ****     writeRequestData.attrHandle=CYBLE_TROUGHPUT_SERVICE_CUSTOM_CHARACTERISTIC_CHAR_HANDLE;
 1203              		.loc 1 1699 0
 1204 000e 01AA     		add	r2, sp, #4
 1205 0010 0E21     		mov	r1, #14
 1206              	.LVL138:
 1207 0012 1181     		strh	r1, [r2, #8]
1700:.\BLEApplication.c ****     writeRequestData.value=SendDataStruct;
 1208              		.loc 1 1700 0
 1209 0014 03CB     		ldmia	r3!, {r0, r1}
 1210 0016 03C2     		stmia	r2!, {r0, r1}
 1211              	.LVL139:
 1212              	.L79:
1701:.\BLEApplication.c **** //    CyBle_GattcWriteCharacteristicValue(cyBle_connHandle,&writeRequestData);
1702:.\BLEApplication.c ****     do{
1703:.\BLEApplication.c ****         API_RESULT=CyBle_GattcWriteWithoutResponse(cyBle_connHandle,&writeRequestData);
 1213              		.loc 1 1703 0 discriminator 2
 1214 0018 074A     		ldr	r2, .L80
 1215 001a 1378     		ldrb	r3, [r2]
 1216 001c 5078     		ldrb	r0, [r2, #1]
 1217 001e 0002     		lsl	r0, r0, #8
 1218 0020 1843     		orr	r0, r3
 1219 0022 01A9     		add	r1, sp, #4
 1220 0024 FFF7FEFF 		bl	CyBle_GattcWriteWithoutResponse
 1221              	.LVL140:
1704:.\BLEApplication.c ****       }
1705:.\BLEApplication.c ****     while((CYBLE_ERROR_OK != API_RESULT)  && (CYBLE_STATE_CONNECTED == cyBle_state));
 1222              		.loc 1 1705 0 discriminator 2
 1223 0028 0028     		cmp	r0, #0
 1224 002a 03D0     		beq	.L77
 1225              		.loc 1 1705 0 is_stmt 0 discriminator 1
 1226 002c 034B     		ldr	r3, .L80+4
 1227 002e 1B78     		ldrb	r3, [r3]
 1228 0030 022B     		cmp	r3, #2
 1229 0032 F1D0     		beq	.L79
 1230              	.L77:
1706:.\BLEApplication.c ****     
1707:.\BLEApplication.c ****     
1708:.\BLEApplication.c **** }
 1231              		.loc 1 1708 0 is_stmt 1
 1232 0034 07B0     		add	sp, sp, #28
 1233              		@ sp needed
 1234 0036 00BD     		pop	{pc}
 1235              	.L81:
 1236              		.align	2
 1237              	.L80:
ARM GAS  C:\Users\Helon\AppData\Local\Temp\ccys0XsA.s 			page 54


 1238 0038 00000000 		.word	cyBle_connHandle
 1239 003c 00000000 		.word	cyBle_state
 1240              		.cfi_endproc
 1241              	.LFE47:
 1242              		.size	SendData_toSlave, .-SendData_toSlave
 1243              		.section	.text.Connect_Device,"ax",%progbits
 1244              		.align	2
 1245              		.global	Connect_Device
 1246              		.code	16
 1247              		.thumb_func
 1248              		.type	Connect_Device, %function
 1249              	Connect_Device:
 1250              	.LFB49:
1709:.\BLEApplication.c **** /******************************************************************************
1710:.\BLEApplication.c **** * Function Name: Slave_UartHandler
1711:.\BLEApplication.c **** ***************************************************************************//**
1712:.\BLEApplication.c **** * 
1713:.\BLEApplication.c **** *  Âú®Master_SlaveÊ®°Âºè‰∏ãÂ§ÑÁêÜ‰∏≤Âè£Êåá‰ª§
1714:.\BLEApplication.c **** * \param  none
1715:.\BLEApplication.c **** * \return none
1716:.\BLEApplication.c **** *  
1717:.\BLEApplication.c **** * 
1718:.\BLEApplication.c **** ******************************************************************************/
1719:.\BLEApplication.c **** void Master_Slave_UartHandler(uint8_t Role)
1720:.\BLEApplication.c **** {
1721:.\BLEApplication.c ****     uint8_t Uart_Char=0;
1722:.\BLEApplication.c ****     uint32 passkey=0;
1723:.\BLEApplication.c ****     uint32 pow;
1724:.\BLEApplication.c ****     uint8   index;
1725:.\BLEApplication.c ****     uint8   uartTxData[negotiatedMtu - 3];
1726:.\BLEApplication.c ****     CYBLE_API_RESULT_T API_RESULT=0;
1727:.\BLEApplication.c ****     uint16_t uartTxDataLength;
1728:.\BLEApplication.c ****     static uint16 uartIdleCount = UART_IDLE_TIMEOUT;
1729:.\BLEApplication.c **** //    Uart_Char=UART_UartGetChar();
1730:.\BLEApplication.c ****     CYBLE_GATTS_HANDLE_VALUE_NTF_T      uartTxDataNtf;
1731:.\BLEApplication.c ****     uartTxDataLength = UART_SpiUartGetRxBufferSize();//Âè™ÊúâËØªÂèñÂÆå‰∫ÜRX_BufferÊâçÊ∏Ö0
1732:.\BLEApplication.c ****     #ifdef  FLOW_CONTROL//Ê≠§Â§ÑÊúÄÂ•ΩÁΩÆ‰∏ÄGPIOÂè£‰∏∫‰ΩéÁîµÂπ≥ÂëäËØâÂèëÈÄÅÊñπÂÅúÊ≠¢ÂèëÈÄÅÊï∞ÊçÆ
1733:.\BLEApplication.c ****         if(uartTxDataLength>=(UART_RX_BUFFER/2))
1734:.\BLEApplication.c ****         {
1735:.\BLEApplication.c ****             UART_RX_INT_DISABLE();
1736:.\BLEApplication.c ****             CTS_Write(CTS_ON);
1737:.\BLEApplication.c ****         }
1738:.\BLEApplication.c ****         else
1739:.\BLEApplication.c ****         {
1740:.\BLEApplication.c ****             UART_RX_INT_ENABLE();
1741:.\BLEApplication.c ****             CTS_Write(CTS_OFF);
1742:.\BLEApplication.c ****         }
1743:.\BLEApplication.c ****     #endif
1744:.\BLEApplication.c **** //        Â§ÑÁêÜ‰∏≤Âè£‰ø°ÊÅØ,‰∏çÈááÁî®‰∏≠Êñ≠ÁöÑÊñπÂºè,ÈááÂèñ‰∏≠Êñ≠‰ºöÂΩ±ÂìçÈÄè‰º†ÈÄüÁéá
1745:.\BLEApplication.c ****     if((0!=uartTxDataLength)&&((CommandMode==THROUGHT_MODE)))
1746:.\BLEApplication.c ****     {   
1747:.\BLEApplication.c ****         if(uartTxDataLength>=negotiatedMtu-3)
1748:.\BLEApplication.c ****         {
1749:.\BLEApplication.c ****             uartIdleCount=UART_IDLE_TIMEOUT;
1750:.\BLEApplication.c ****             uartTxDataLength=negotiatedMtu-3;
1751:.\BLEApplication.c ****         }
1752:.\BLEApplication.c ****         else//Â¶ÇÊûúÂ∞è‰∫é20Â≠óËäÇÂàôÁ≠â‰∏™100ms,Â¶ÇÊûú100msÂêéËøòÊòØÂ∞ë‰∫é20Â≠óËäÇÂàôÈÄè‰º†Âá∫Âéª
ARM GAS  C:\Users\Helon\AppData\Local\Temp\ccys0XsA.s 			page 55


1753:.\BLEApplication.c ****         {
1754:.\BLEApplication.c ****             if(--uartIdleCount == 0)
1755:.\BLEApplication.c ****             {
1756:.\BLEApplication.c ****                 /*uartTxDataLength remains unchanged */;
1757:.\BLEApplication.c ****             }
1758:.\BLEApplication.c ****             else
1759:.\BLEApplication.c ****             {
1760:.\BLEApplication.c ****                 uartTxDataLength = 0;
1761:.\BLEApplication.c ****             }
1762:.\BLEApplication.c ****         }
1763:.\BLEApplication.c ****         if(0!=uartTxDataLength)
1764:.\BLEApplication.c ****         {
1765:.\BLEApplication.c ****             uartIdleCount=UART_IDLE_TIMEOUT;
1766:.\BLEApplication.c ****             for(index=0;index<uartTxDataLength;index++)//‰∏çÁÆ°ÊòØ‰∏ªÊú∫ËøòÊòØ‰ªéÊú∫ÔºåÂú®ÈÄè‰º†Ê®°
1767:.\BLEApplication.c ****             {
1768:.\BLEApplication.c ****                 uartTxData[index] = (uint8) UART_UartGetByte();
1769:.\BLEApplication.c ****             }
1770:.\BLEApplication.c ****             if(0==memcmp("AT+NOTIFY=0",uartTxData,11))//Âú®ÈÄè‰º†Ê®°Âºè‰∏ãÔºåÂà§Êñ≠ÊòØ‰∏çÊòØË¶ÅÈÄÄÂ
1771:.\BLEApplication.c ****             {
1772:.\BLEApplication.c ****                 if(Role==Central) //‰∏ªÊú∫Ê®°Âºè‰∏ãÈÄÄÂá∫ÈÄè‰º†Ê®°Âºè
1773:.\BLEApplication.c ****                 {
1774:.\BLEApplication.c ****                     writeRequestData.value.val[0]=0x00;
1775:.\BLEApplication.c ****                     writeRequestData.attrHandle=CYBLE_TROUGHPUT_SERVICE_CUSTOM_CHARACTERISTIC_CLIEN
1776:.\BLEApplication.c ****                     API_RESULT=CyBle_GattcWriteCharacteristicValue(cyBle_connHandle, &writeRequestD
1777:.\BLEApplication.c ****                     if(CYBLE_ERROR_OK==API_RESULT)
1778:.\BLEApplication.c ****                     {
1779:.\BLEApplication.c ****                         CommandMode=AT_COMMAND_MODE;
1780:.\BLEApplication.c ****                         Buffer_Length=0;
1781:.\BLEApplication.c ****                         memset(RX_BUFFER,0,sizeof(RX_BUFFER));
1782:.\BLEApplication.c ****                         printf("+MODE=<AT_COMMAND_MODE>\r\n");
1783:.\BLEApplication.c ****                     }
1784:.\BLEApplication.c ****                 }
1785:.\BLEApplication.c ****                 else //‰ªéÊú∫Ê®°Âºè‰∏ãÈÄÄÂá∫ÈÄè‰º†Ê®°Âºè
1786:.\BLEApplication.c ****                 {
1787:.\BLEApplication.c ****                     CommandMode=AT_COMMAND_MODE;
1788:.\BLEApplication.c ****                     Buffer_Length=0;
1789:.\BLEApplication.c ****                     memset(RX_BUFFER,0,sizeof(RX_BUFFER));
1790:.\BLEApplication.c ****                     printf("+MODE=<AT_COMMAND_MODE>\r\n");
1791:.\BLEApplication.c ****                 }
1792:.\BLEApplication.c ****                 return;
1793:.\BLEApplication.c ****             }  
1794:.\BLEApplication.c ****             if(0==memcmp("AT+NOTIFY=?",uartTxData,11))//‰∏çÁÆ°‰∏ªÊú∫ËøòÊòØ‰ªéÊú∫ÔºåÂú®ÈÄè‰º†Ê®°Âºè‰
1795:.\BLEApplication.c ****             {
1796:.\BLEApplication.c ****                 Buffer_Length=0;
1797:.\BLEApplication.c ****                 memset(RX_BUFFER,0,sizeof(RX_BUFFER));
1798:.\BLEApplication.c ****                 printf("+MODE=<THROUGHT_MODE>\r\n");
1799:.\BLEApplication.c ****                 return;
1800:.\BLEApplication.c ****             }
1801:.\BLEApplication.c ****             else if(Peripheral==Role)//‰ªéÊú∫Áªô‰∏ªÊú∫ÂèëÈÄÅÈÄè‰º†Êï∞ÊçÆ
1802:.\BLEApplication.c ****             {
1803:.\BLEApplication.c ****                while(CyBle_GattGetBusStatus()!= CYBLE_STACK_STATE_FREE);//Âè™ÊúâÂΩìËìùÁâôÂçèËÆÆÊ†àÁ
1804:.\BLEApplication.c ****                 uartTxDataNtf.value.val  = uartTxData;
1805:.\BLEApplication.c ****                 uartTxDataNtf.value.len  = uartTxDataLength;
1806:.\BLEApplication.c ****                 uartTxDataNtf.attrHandle = CYBLE_TROUGHPUT_SERVICE_CUSTOM_CHARACTERISTIC_CHAR_HANDL
1807:.\BLEApplication.c **** //                #ifdef FLOW_CONTROL
1808:.\BLEApplication.c **** //                    UART_RX_INT_DISABLE();
1809:.\BLEApplication.c **** //                #endif
ARM GAS  C:\Users\Helon\AppData\Local\Temp\ccys0XsA.s 			page 56


1810:.\BLEApplication.c ****                 do
1811:.\BLEApplication.c ****                 {
1812:.\BLEApplication.c ****                     API_RESULT = CyBle_GattsNotification(cyBle_connHandle, &uartTxDataNtf);
1813:.\BLEApplication.c ****                     CyBle_ProcessEvents();
1814:.\BLEApplication.c ****                 }
1815:.\BLEApplication.c ****                 while((CYBLE_ERROR_OK != API_RESULT)  && (CYBLE_STATE_CONNECTED == cyBle_state));
1816:.\BLEApplication.c **** //                testCount+=uartTxDataLength;
1817:.\BLEApplication.c ****             }
1818:.\BLEApplication.c ****             else////‰∏ªÊú∫Áªô‰ªéÊú∫ÂèëÈÄÅÈÄè‰º†Êï∞ÊçÆ
1819:.\BLEApplication.c ****             {
1820:.\BLEApplication.c ****                 #ifdef FLOW_CONTROL
1821:.\BLEApplication.c ****                     UART_RX_INT_DISABLE();
1822:.\BLEApplication.c ****                 #endif
1823:.\BLEApplication.c ****                 while(CyBle_GattGetBusStatus()!= CYBLE_STACK_STATE_FREE);//Âè™ÊúâÂΩìËìùÁâôÂçèËÆÆÊ†à
1824:.\BLEApplication.c ****                 SendData_toSlave(uartTxData,uartTxDataLength);
1825:.\BLEApplication.c ****             }
1826:.\BLEApplication.c ****         }
1827:.\BLEApplication.c ****         return ;
1828:.\BLEApplication.c ****     }
1829:.\BLEApplication.c ****     else if(0!=uartTxDataLength)
1830:.\BLEApplication.c ****     {   
1831:.\BLEApplication.c ****         RxFlag=START;
1832:.\BLEApplication.c ****         if(KEYBOARD)
1833:.\BLEApplication.c ****         {
1834:.\BLEApplication.c ****            KEYBOARD=FALSE;
1835:.\BLEApplication.c ****         /*Set the passkey to zero before receiving New passkey */
1836:.\BLEApplication.c ****             passkey = 0u;
1837:.\BLEApplication.c ****             pow = 100000ul;
1838:.\BLEApplication.c ****             
1839:.\BLEApplication.c ****             /*Get 6 digit number from UART terminal*/
1840:.\BLEApplication.c ****             for(index = 0u; index < CYBLE_GAP_USER_PASSKEY_SIZE; index++)
1841:.\BLEApplication.c ****             {
1842:.\BLEApplication.c ****                 while((Uart_Char = UART_UartGetChar()) == 0);
1843:.\BLEApplication.c ****                 
1844:.\BLEApplication.c ****                 /* accept the digits that are in between the range '0' and '9'  */
1845:.\BLEApplication.c ****                 if((Uart_Char >= '0') && (Uart_Char <= '9'))  
1846:.\BLEApplication.c ****                 {
1847:.\BLEApplication.c ****                     passkey += (uint32)(Uart_Char - '0') * pow;
1848:.\BLEApplication.c ****                     pow /= 10u;
1849:.\BLEApplication.c **** //                    UART_UartPutChar(Uart_Char); 
1850:.\BLEApplication.c ****                 }
1851:.\BLEApplication.c ****                 else  /* If entered digit is not in between the rnage '0' and '9'*/
1852:.\BLEApplication.c ****                 {
1853:.\BLEApplication.c ****                     printf("+AUTHKEY=<INVALID>\r\n");
1854:.\BLEApplication.c ****                     break;
1855:.\BLEApplication.c ****                 }
1856:.\BLEApplication.c ****             }            
1857:.\BLEApplication.c ****             /*Send Pass key Response to to create an Authenticated Link*/
1858:.\BLEApplication.c ****             API_RESULT = CyBle_GapAuthPassKeyReply(cyBle_connHandle.bdHandle,passkey,1);         
1859:.\BLEApplication.c ****             /*Check the result of CyBle_GapAuthPassKeyReply*/
1860:.\BLEApplication.c ****             if(API_RESULT== CYBLE_ERROR_INVALID_PARAMETER)
1861:.\BLEApplication.c ****             {
1862:.\BLEApplication.c ****                 printf("CYBLE_ERROR_INVALID_PARAMETER \r\n");               
1863:.\BLEApplication.c ****             }
1864:.\BLEApplication.c ****             else if(API_RESULT==CYBLE_ERROR_MEMORY_ALLOCATION_FAILED)
1865:.\BLEApplication.c ****             {
1866:.\BLEApplication.c ****                 printf("CYBLE_ERROR_MEMORY_ALLOCATION_FAILED\r\n");
ARM GAS  C:\Users\Helon\AppData\Local\Temp\ccys0XsA.s 			page 57


1867:.\BLEApplication.c ****             }
1868:.\BLEApplication.c ****             else if(API_RESULT==CYBLE_ERROR_NO_DEVICE_ENTITY)
1869:.\BLEApplication.c ****             {
1870:.\BLEApplication.c ****                 printf("CYBLE_ERROR_NO_DEVICE_ENTITY\r\n");
1871:.\BLEApplication.c ****             }
1872:.\BLEApplication.c ****             else if(API_RESULT==CYBLE_ERROR_OK)
1873:.\BLEApplication.c ****             {
1874:.\BLEApplication.c ****                 printf("+AUTHKEY=<SUCCESFULLY>\r\n");
1875:.\BLEApplication.c ****             }
1876:.\BLEApplication.c ****         }
1877:.\BLEApplication.c ****         else
1878:.\BLEApplication.c ****         {
1879:.\BLEApplication.c ****             Uart_Char=(uint8) UART_UartGetByte();
1880:.\BLEApplication.c ****             if('\n'!=Uart_Char)
1881:.\BLEApplication.c ****             {
1882:.\BLEApplication.c ****     //            if(CommandMode==THROUGHT_MODE)
1883:.\BLEApplication.c ****     //            {
1884:.\BLEApplication.c ****     //                RX_BUFFER[Buffer_Length]=Uart_Char-0x30;//ËØªÂèñ‰∏≤Âè£Êé•Êî∂ÁºìÂÜ≤Âå∫ÁöÑÊï∞Êç
1885:.\BLEApplication.c ****     //                Buffer_Length++;
1886:.\BLEApplication.c ****     //            }
1887:.\BLEApplication.c ****     //            else
1888:.\BLEApplication.c ****     //            {
1889:.\BLEApplication.c ****                     RX_BUFFER[Buffer_Length]=Uart_Char;//ËØªÂèñ‰∏≤Âè£Êé•Êî∂ÁºìÂÜ≤Âå∫ÁöÑÊï∞ÊçÆ
1890:.\BLEApplication.c ****                     Buffer_Length++;
1891:.\BLEApplication.c ****     //            }                      
1892:.\BLEApplication.c ****             }
1893:.\BLEApplication.c ****             else
1894:.\BLEApplication.c ****             {
1895:.\BLEApplication.c ****                 uartIdleCount=UART_IDLE_TIMEOUT;
1896:.\BLEApplication.c ****                 RxFlag=OVER;
1897:.\BLEApplication.c ****             //‰∏≤Âè£Êé•Êî∂ÁöÑÊï∞ÊçÆÈïøÂ∫¶Ê∏ÖÈõ∂,‰ª•‰æø‰∏ã‰∏ÄÊù°ÂëΩ‰ª§ËøáÊù•Êó∂ËøòÊòØÂ≠òÊîæÂú®Êï∞ÁªÑ
1898:.\BLEApplication.c ****                 RX_BUFFER[Buffer_Length]=Uart_Char;//ËØªÂèñ‰∏≤Âè£Êé•Êî∂ÁºìÂÜ≤Âå∫ÁöÑÊï∞ÊçÆ          
1899:.\BLEApplication.c ****                 Parser_UartData((char*)RX_BUFFER);
1900:.\BLEApplication.c ****                 Buffer_Length=0;
1901:.\BLEApplication.c ****                 memset(RX_BUFFER,0,sizeof(RX_BUFFER));
1902:.\BLEApplication.c ****     //            if(CommandMode==THROUGHT_MODE)
1903:.\BLEApplication.c ****     //            {
1904:.\BLEApplication.c ****     //                
1905:.\BLEApplication.c ****     //                if(Role==Peripheral)
1906:.\BLEApplication.c ****     //                    SendNotification(RX_BUFFER,Buffer_Length+3);
1907:.\BLEApplication.c ****     //                else
1908:.\BLEApplication.c ****     //                    SendData_toSlave(RX_BUFFER,Buffer_Length);
1909:.\BLEApplication.c ****     //                //‰∏≤Âè£Êé•Êî∂ÁöÑÊï∞ÊçÆÈïøÂ∫¶Ê∏ÖÈõ∂,‰ª•‰æø‰∏ã‰∏ÄÊù°ÂëΩ‰ª§ËøáÊù•Êó∂ËøòÊòØÂ≠òÊî
1910:.\BLEApplication.c ****     //                Buffer_Length=0;
1911:.\BLEApplication.c ****     //                memset(RX_BUFFER,0,sizeof(RX_BUFFER));
1912:.\BLEApplication.c ****     //            }
1913:.\BLEApplication.c ****     //            else
1914:.\BLEApplication.c ****     //            {
1915:.\BLEApplication.c ****     //                
1916:.\BLEApplication.c ****     //            }
1917:.\BLEApplication.c ****             }
1918:.\BLEApplication.c ****         }    
1919:.\BLEApplication.c ****     }
1920:.\BLEApplication.c ****     else
1921:.\BLEApplication.c ****     {
1922:.\BLEApplication.c ****         if(RxFlag)//Â¶ÇÊûú‰∏≤Âè£100msÂÜÖÊ≤°ÊúâÊé•Êî∂Âà∞ÂõûËΩ¶Êç¢Ë°åÁ¨¶Êó∂ÔºåÂàôËÆ§‰∏∫ËØ•ATÂëΩ‰ª§Êó†
1923:.\BLEApplication.c ****         {
ARM GAS  C:\Users\Helon\AppData\Local\Temp\ccys0XsA.s 			page 58


1924:.\BLEApplication.c ****             if(--uartIdleCount == 0)
1925:.\BLEApplication.c ****             {
1926:.\BLEApplication.c ****                 RxFlag=OVER;
1927:.\BLEApplication.c ****                 uartIdleCount=UART_IDLE_TIMEOUT;
1928:.\BLEApplication.c ****                 Buffer_Length=0;
1929:.\BLEApplication.c ****                 memset(RX_BUFFER,0,sizeof(RX_BUFFER));
1930:.\BLEApplication.c ****                 printf("AT+ERR=5\r\n");//Ë°®Á§∫Ê≤°ÊúâËØ•ATÂëΩ‰ª§
1931:.\BLEApplication.c ****                 /*uartTxDataLength remains unchanged */;
1932:.\BLEApplication.c ****             }
1933:.\BLEApplication.c ****         }
1934:.\BLEApplication.c ****     }
1935:.\BLEApplication.c **** }
1936:.\BLEApplication.c **** 
1937:.\BLEApplication.c **** /******************************************************************************
1938:.\BLEApplication.c **** * Function Name: Connect_Device
1939:.\BLEApplication.c **** ***************************************************************************//**
1940:.\BLEApplication.c **** * 
1941:.\BLEApplication.c **** *  ËøûÊé•Êâ´ÊèèÂàóË°®‰∏≠ÁöÑSlaveËÆæÂ§á
1942:.\BLEApplication.c **** * \param  idx:Êâ´ÊèèÂàóË°®‰∏≠ÁöÑÁ¥¢ÂºïÂè∑
1943:.\BLEApplication.c **** * \return none
1944:.\BLEApplication.c **** *  
1945:.\BLEApplication.c **** * 
1946:.\BLEApplication.c **** ******************************************************************************/
1947:.\BLEApplication.c **** void Connect_Device(uint8_t idx)
1948:.\BLEApplication.c **** {
 1251              		.loc 1 1948 0
 1252              		.cfi_startproc
 1253              	.LVL141:
 1254 0000 F0B5     		push	{r4, r5, r6, r7, lr}
 1255              		.cfi_def_cfa_offset 20
 1256              		.cfi_offset 4, -20
 1257              		.cfi_offset 5, -16
 1258              		.cfi_offset 6, -12
 1259              		.cfi_offset 7, -8
 1260              		.cfi_offset 14, -4
 1261 0002 85B0     		sub	sp, sp, #20
 1262              		.cfi_def_cfa_offset 40
 1263 0004 041C     		mov	r4, r0
 1264              	.LVL142:
1949:.\BLEApplication.c ****     CYBLE_API_RESULT_T API_RESULT=0;
1950:.\BLEApplication.c ****     uint8_t i=0;
1951:.\BLEApplication.c ****     if(Role==Central)
 1265              		.loc 1 1951 0
 1266 0006 744B     		ldr	r3, .L100
 1267 0008 5B78     		ldrb	r3, [r3, #1]
 1268 000a 012B     		cmp	r3, #1
 1269 000c 00D0     		beq	.LCB1098
 1270 000e DDE0     		b	.L83	@long jump
 1271              	.LCB1098:
1952:.\BLEApplication.c ****     {
1953:.\BLEApplication.c ****         switch(idx)
 1272              		.loc 1 1953 0
 1273 0010 031C     		mov	r3, r0
 1274 0012 313B     		sub	r3, r3, #49
 1275 0014 DAB2     		uxtb	r2, r3
 1276 0016 0E2A     		cmp	r2, #14
 1277 0018 00D9     		bls	.LCB1103
ARM GAS  C:\Users\Helon\AppData\Local\Temp\ccys0XsA.s 			page 59


 1278 001a DAE0     		b	.L82	@long jump
 1279              	.LCB1103:
 1280 001c 9300     		lsl	r3, r2, #2
 1281 001e 6F4A     		ldr	r2, .L100+4
 1282 0020 D358     		ldr	r3, [r2, r3]
 1283 0022 9F46     		mov	pc, r3
 1284              		.section	.rodata
 1285              		.align	2
 1286              	.L86:
 1287 014c 24000000 		.word	.L85
 1288 0150 7C000000 		.word	.L87
 1289 0154 D4000000 		.word	.L88
 1290 0158 2C010000 		.word	.L89
 1291 015c D2010000 		.word	.L82
 1292 0160 D2010000 		.word	.L82
 1293 0164 D2010000 		.word	.L82
 1294 0168 D2010000 		.word	.L82
 1295 016c D2010000 		.word	.L82
 1296 0170 D2010000 		.word	.L82
 1297 0174 D2010000 		.word	.L82
 1298 0178 D2010000 		.word	.L82
 1299 017c D2010000 		.word	.L82
 1300 0180 D2010000 		.word	.L82
 1301 0184 84010000 		.word	.L90
 1302              		.section	.text.Connect_Device
 1303              	.L85:
1954:.\BLEApplication.c ****         {
1955:.\BLEApplication.c ****             case '1':
1956:.\BLEApplication.c ****                 API_RESULT=CyBle_GapcConnectDevice(&DeviceInfo[idx-1-0x30].DeviceList);
 1304              		.loc 1 1956 0
 1305 0024 051C     		mov	r5, r0
 1306 0026 313D     		sub	r5, r5, #49
 1307 0028 2B01     		lsl	r3, r5, #4
 1308 002a 5B1B     		sub	r3, r3, r5
 1309 002c 5B00     		lsl	r3, r3, #1
 1310 002e 6C48     		ldr	r0, .L100+8
 1311              	.LVL143:
 1312 0030 1818     		add	r0, r3, r0
 1313 0032 FFF7FEFF 		bl	CyBle_GapcConnectDevice
 1314              	.LVL144:
 1315 0036 021E     		sub	r2, r0, #0
 1316              	.LVL145:
1957:.\BLEApplication.c ****                 if(CYBLE_ERROR_OK!=API_RESULT)  
 1317              		.loc 1 1957 0
 1318 0038 05D0     		beq	.L91
1958:.\BLEApplication.c ****                 {
1959:.\BLEApplication.c ****                     printf("AT+ERR=<%d,0x%02X>\r\n",idx-0x30,API_RESULT);                    
 1319              		.loc 1 1959 0
 1320 003a 211C     		mov	r1, r4
 1321 003c 3039     		sub	r1, r1, #48
 1322 003e 6948     		ldr	r0, .L100+12
 1323              	.LVL146:
 1324 0040 FFF7FEFF 		bl	printf
 1325              	.LVL147:
 1326 0044 C5E0     		b	.L82
 1327              	.LVL148:
 1328              	.L91:
ARM GAS  C:\Users\Helon\AppData\Local\Temp\ccys0XsA.s 			page 60


1960:.\BLEApplication.c ****                 }
1961:.\BLEApplication.c ****                 else
1962:.\BLEApplication.c ****                 {
1963:.\BLEApplication.c ****                     Conn_Or_Disconn_Info.Connected_Count++;
 1329              		.loc 1 1963 0
 1330 0046 6848     		ldr	r0, .L100+16
 1331              	.LVL149:
 1332 0048 037A     		ldrb	r3, [r0, #8]
 1333 004a 0133     		add	r3, r3, #1
 1334 004c DBB2     		uxtb	r3, r3
 1335 004e 0372     		strb	r3, [r0, #8]
1964:.\BLEApplication.c ****                     Conn_Or_Disconn_Info.Connect_Idx[Conn_Or_Disconn_Info.Connected_Count-1]=idx-0x
 1336              		.loc 1 1964 0
 1337 0050 013B     		sub	r3, r3, #1
 1338 0052 303C     		sub	r4, r4, #48
 1339 0054 E4B2     		uxtb	r4, r4
 1340 0056 C454     		strb	r4, [r0, r3]
1965:.\BLEApplication.c ****                     Conn_or_Disconn_Idx=idx-0x30;
 1341              		.loc 1 1965 0
 1342 0058 5F4A     		ldr	r2, .L100
 1343 005a 9470     		strb	r4, [r2, #2]
1966:.\BLEApplication.c ****                     memcpy(Conn_Or_Disconn_Info.DeviceAddr[Conn_Or_Disconn_Info.Connected_Count-1].
 1344              		.loc 1 1966 0
 1345 005c DA00     		lsl	r2, r3, #3
 1346 005e D31A     		sub	r3, r2, r3
 1347 0060 C018     		add	r0, r0, r3
 1348 0062 2901     		lsl	r1, r5, #4
 1349 0064 4D1B     		sub	r5, r1, r5
 1350 0066 6D00     		lsl	r5, r5, #1
 1351 0068 0930     		add	r0, r0, #9
 1352 006a 5D49     		ldr	r1, .L100+8
 1353 006c 4919     		add	r1, r1, r5
 1354 006e 0622     		mov	r2, #6
 1355 0070 FFF7FEFF 		bl	memcpy
 1356              	.LVL150:
1967:.\BLEApplication.c ****                            DeviceInfo[idx-1-0x30].DeviceList.bdAddr,6);  
1968:.\BLEApplication.c ****                     printf("AT+OK\r\n");
 1357              		.loc 1 1968 0
 1358 0074 5D48     		ldr	r0, .L100+20
 1359 0076 FFF7FEFF 		bl	puts
 1360              	.LVL151:
 1361 007a AAE0     		b	.L82
 1362              	.LVL152:
 1363              	.L87:
1969:.\BLEApplication.c **** //                        CyBle_GapGetPeerBdHandle(bdHandle,&DeviceInfo[idx-1-0x30].DeviceList);
1970:.\BLEApplication.c **** //                        printf("0x%02X\r\n",*bdHandle);  
1971:.\BLEApplication.c ****                 }
1972:.\BLEApplication.c ****             break;
1973:.\BLEApplication.c ****             case '2':
1974:.\BLEApplication.c ****                 API_RESULT=CyBle_GapcConnectDevice(&DeviceInfo[idx-1-0x30].DeviceList);
 1364              		.loc 1 1974 0
 1365 007c 051C     		mov	r5, r0
 1366 007e 313D     		sub	r5, r5, #49
 1367 0080 2B01     		lsl	r3, r5, #4
 1368 0082 5B1B     		sub	r3, r3, r5
 1369 0084 5B00     		lsl	r3, r3, #1
 1370 0086 5648     		ldr	r0, .L100+8
ARM GAS  C:\Users\Helon\AppData\Local\Temp\ccys0XsA.s 			page 61


 1371              	.LVL153:
 1372 0088 1818     		add	r0, r3, r0
 1373 008a FFF7FEFF 		bl	CyBle_GapcConnectDevice
 1374              	.LVL154:
 1375 008e 021E     		sub	r2, r0, #0
 1376              	.LVL155:
1975:.\BLEApplication.c ****                 if(CYBLE_ERROR_OK!=API_RESULT)  
 1377              		.loc 1 1975 0
 1378 0090 05D0     		beq	.L92
1976:.\BLEApplication.c ****                 {
1977:.\BLEApplication.c ****                     printf("AT+ERR=<%d,0x%02X>\r\n",idx-0x30,API_RESULT);                    
 1379              		.loc 1 1977 0
 1380 0092 211C     		mov	r1, r4
 1381 0094 3039     		sub	r1, r1, #48
 1382 0096 5348     		ldr	r0, .L100+12
 1383              	.LVL156:
 1384 0098 FFF7FEFF 		bl	printf
 1385              	.LVL157:
 1386 009c 99E0     		b	.L82
 1387              	.LVL158:
 1388              	.L92:
1978:.\BLEApplication.c ****                 }
1979:.\BLEApplication.c ****                 else
1980:.\BLEApplication.c ****                 {
1981:.\BLEApplication.c ****                     Conn_Or_Disconn_Info.Connected_Count++;
 1389              		.loc 1 1981 0
 1390 009e 5248     		ldr	r0, .L100+16
 1391              	.LVL159:
 1392 00a0 037A     		ldrb	r3, [r0, #8]
 1393 00a2 0133     		add	r3, r3, #1
 1394 00a4 DBB2     		uxtb	r3, r3
 1395 00a6 0372     		strb	r3, [r0, #8]
1982:.\BLEApplication.c ****                     Conn_Or_Disconn_Info.Connect_Idx[Conn_Or_Disconn_Info.Connected_Count-1]=idx-0x
 1396              		.loc 1 1982 0
 1397 00a8 013B     		sub	r3, r3, #1
 1398 00aa 303C     		sub	r4, r4, #48
 1399 00ac E4B2     		uxtb	r4, r4
 1400 00ae C454     		strb	r4, [r0, r3]
1983:.\BLEApplication.c ****                     Conn_or_Disconn_Idx=idx-0x30;
 1401              		.loc 1 1983 0
 1402 00b0 494A     		ldr	r2, .L100
 1403 00b2 9470     		strb	r4, [r2, #2]
1984:.\BLEApplication.c ****                     memcpy(Conn_Or_Disconn_Info.DeviceAddr[Conn_Or_Disconn_Info.Connected_Count-1].
 1404              		.loc 1 1984 0
 1405 00b4 DA00     		lsl	r2, r3, #3
 1406 00b6 D31A     		sub	r3, r2, r3
 1407 00b8 C018     		add	r0, r0, r3
 1408 00ba 2901     		lsl	r1, r5, #4
 1409 00bc 4D1B     		sub	r5, r1, r5
 1410 00be 6D00     		lsl	r5, r5, #1
 1411 00c0 0930     		add	r0, r0, #9
 1412 00c2 4749     		ldr	r1, .L100+8
 1413 00c4 4919     		add	r1, r1, r5
 1414 00c6 0622     		mov	r2, #6
 1415 00c8 FFF7FEFF 		bl	memcpy
 1416              	.LVL160:
1985:.\BLEApplication.c ****                            DeviceInfo[idx-1-0x30].DeviceList.bdAddr,6);
ARM GAS  C:\Users\Helon\AppData\Local\Temp\ccys0XsA.s 			page 62


1986:.\BLEApplication.c ****                     printf("AT+OK\r\n");
 1417              		.loc 1 1986 0
 1418 00cc 4748     		ldr	r0, .L100+20
 1419 00ce FFF7FEFF 		bl	puts
 1420              	.LVL161:
 1421 00d2 7EE0     		b	.L82
 1422              	.LVL162:
 1423              	.L88:
1987:.\BLEApplication.c ****                 }
1988:.\BLEApplication.c ****             break;
1989:.\BLEApplication.c ****             case '3':
1990:.\BLEApplication.c ****                 API_RESULT=CyBle_GapcConnectDevice(&DeviceInfo[idx-1-0x30].DeviceList);
 1424              		.loc 1 1990 0
 1425 00d4 051C     		mov	r5, r0
 1426 00d6 313D     		sub	r5, r5, #49
 1427 00d8 2B01     		lsl	r3, r5, #4
 1428 00da 5B1B     		sub	r3, r3, r5
 1429 00dc 5B00     		lsl	r3, r3, #1
 1430 00de 4048     		ldr	r0, .L100+8
 1431              	.LVL163:
 1432 00e0 1818     		add	r0, r3, r0
 1433 00e2 FFF7FEFF 		bl	CyBle_GapcConnectDevice
 1434              	.LVL164:
 1435 00e6 021E     		sub	r2, r0, #0
 1436              	.LVL165:
1991:.\BLEApplication.c ****                 if(CYBLE_ERROR_OK!=API_RESULT)  
 1437              		.loc 1 1991 0
 1438 00e8 05D0     		beq	.L93
1992:.\BLEApplication.c ****                 {
1993:.\BLEApplication.c ****                     printf("AT+ERR=<%d,0x%02X>\r\n",idx-0x30,API_RESULT);                    
 1439              		.loc 1 1993 0
 1440 00ea 211C     		mov	r1, r4
 1441 00ec 3039     		sub	r1, r1, #48
 1442 00ee 3D48     		ldr	r0, .L100+12
 1443              	.LVL166:
 1444 00f0 FFF7FEFF 		bl	printf
 1445              	.LVL167:
 1446 00f4 6DE0     		b	.L82
 1447              	.LVL168:
 1448              	.L93:
1994:.\BLEApplication.c ****                 }
1995:.\BLEApplication.c ****                 else
1996:.\BLEApplication.c ****                 {
1997:.\BLEApplication.c ****                     Conn_Or_Disconn_Info.Connected_Count++;
 1449              		.loc 1 1997 0
 1450 00f6 3C48     		ldr	r0, .L100+16
 1451              	.LVL169:
 1452 00f8 037A     		ldrb	r3, [r0, #8]
 1453 00fa 0133     		add	r3, r3, #1
 1454 00fc DBB2     		uxtb	r3, r3
 1455 00fe 0372     		strb	r3, [r0, #8]
1998:.\BLEApplication.c ****                     Conn_Or_Disconn_Info.Connect_Idx[Conn_Or_Disconn_Info.Connected_Count-1]=idx-0x
 1456              		.loc 1 1998 0
 1457 0100 013B     		sub	r3, r3, #1
 1458 0102 303C     		sub	r4, r4, #48
 1459 0104 E4B2     		uxtb	r4, r4
 1460 0106 C454     		strb	r4, [r0, r3]
ARM GAS  C:\Users\Helon\AppData\Local\Temp\ccys0XsA.s 			page 63


1999:.\BLEApplication.c ****                     Conn_or_Disconn_Idx=idx-0x30;
 1461              		.loc 1 1999 0
 1462 0108 334A     		ldr	r2, .L100
 1463 010a 9470     		strb	r4, [r2, #2]
2000:.\BLEApplication.c ****                     memcpy(Conn_Or_Disconn_Info.DeviceAddr[Conn_Or_Disconn_Info.Connected_Count-1].
 1464              		.loc 1 2000 0
 1465 010c DA00     		lsl	r2, r3, #3
 1466 010e D31A     		sub	r3, r2, r3
 1467 0110 C018     		add	r0, r0, r3
 1468 0112 2901     		lsl	r1, r5, #4
 1469 0114 4D1B     		sub	r5, r1, r5
 1470 0116 6D00     		lsl	r5, r5, #1
 1471 0118 0930     		add	r0, r0, #9
 1472 011a 3149     		ldr	r1, .L100+8
 1473 011c 4919     		add	r1, r1, r5
 1474 011e 0622     		mov	r2, #6
 1475 0120 FFF7FEFF 		bl	memcpy
 1476              	.LVL170:
2001:.\BLEApplication.c ****                            DeviceInfo[idx-1-0x30].DeviceList.bdAddr,6);
2002:.\BLEApplication.c ****                     printf("AT+OK\r\n");
 1477              		.loc 1 2002 0
 1478 0124 3148     		ldr	r0, .L100+20
 1479 0126 FFF7FEFF 		bl	puts
 1480              	.LVL171:
 1481 012a 52E0     		b	.L82
 1482              	.LVL172:
 1483              	.L89:
2003:.\BLEApplication.c ****                 }
2004:.\BLEApplication.c ****             break;
2005:.\BLEApplication.c ****             case '4':
2006:.\BLEApplication.c ****                 API_RESULT=CyBle_GapcConnectDevice(&DeviceInfo[idx-1-0x30].DeviceList);
 1484              		.loc 1 2006 0
 1485 012c 051C     		mov	r5, r0
 1486 012e 313D     		sub	r5, r5, #49
 1487 0130 2B01     		lsl	r3, r5, #4
 1488 0132 5B1B     		sub	r3, r3, r5
 1489 0134 5B00     		lsl	r3, r3, #1
 1490 0136 2A48     		ldr	r0, .L100+8
 1491              	.LVL173:
 1492 0138 1818     		add	r0, r3, r0
 1493 013a FFF7FEFF 		bl	CyBle_GapcConnectDevice
 1494              	.LVL174:
 1495 013e 021E     		sub	r2, r0, #0
 1496              	.LVL175:
2007:.\BLEApplication.c ****                 if(CYBLE_ERROR_OK!=API_RESULT)  
 1497              		.loc 1 2007 0
 1498 0140 05D0     		beq	.L94
2008:.\BLEApplication.c ****                 {
2009:.\BLEApplication.c ****                     printf("AT+ERR=<%d,0x%02X>\r\n",idx-0x30,API_RESULT);                    
 1499              		.loc 1 2009 0
 1500 0142 211C     		mov	r1, r4
 1501 0144 3039     		sub	r1, r1, #48
 1502 0146 2748     		ldr	r0, .L100+12
 1503              	.LVL176:
 1504 0148 FFF7FEFF 		bl	printf
 1505              	.LVL177:
 1506 014c 41E0     		b	.L82
ARM GAS  C:\Users\Helon\AppData\Local\Temp\ccys0XsA.s 			page 64


 1507              	.LVL178:
 1508              	.L94:
2010:.\BLEApplication.c ****                 }
2011:.\BLEApplication.c ****                 else
2012:.\BLEApplication.c ****                 {
2013:.\BLEApplication.c ****                     Conn_Or_Disconn_Info.Connected_Count++;
 1509              		.loc 1 2013 0
 1510 014e 2648     		ldr	r0, .L100+16
 1511              	.LVL179:
 1512 0150 037A     		ldrb	r3, [r0, #8]
 1513 0152 0133     		add	r3, r3, #1
 1514 0154 DBB2     		uxtb	r3, r3
 1515 0156 0372     		strb	r3, [r0, #8]
2014:.\BLEApplication.c ****                     Conn_Or_Disconn_Info.Connect_Idx[Conn_Or_Disconn_Info.Connected_Count-1]=idx-0x
 1516              		.loc 1 2014 0
 1517 0158 013B     		sub	r3, r3, #1
 1518 015a 303C     		sub	r4, r4, #48
 1519 015c E4B2     		uxtb	r4, r4
 1520 015e C454     		strb	r4, [r0, r3]
2015:.\BLEApplication.c ****                     Conn_or_Disconn_Idx=idx-0x30;
 1521              		.loc 1 2015 0
 1522 0160 1D4A     		ldr	r2, .L100
 1523 0162 9470     		strb	r4, [r2, #2]
2016:.\BLEApplication.c ****                     memcpy(Conn_Or_Disconn_Info.DeviceAddr[Conn_Or_Disconn_Info.Connected_Count-1].
 1524              		.loc 1 2016 0
 1525 0164 DA00     		lsl	r2, r3, #3
 1526 0166 D31A     		sub	r3, r2, r3
 1527 0168 C018     		add	r0, r0, r3
 1528 016a 2901     		lsl	r1, r5, #4
 1529 016c 4D1B     		sub	r5, r1, r5
 1530 016e 6D00     		lsl	r5, r5, #1
 1531 0170 0930     		add	r0, r0, #9
 1532 0172 1B49     		ldr	r1, .L100+8
 1533 0174 4919     		add	r1, r1, r5
 1534 0176 0622     		mov	r2, #6
 1535 0178 FFF7FEFF 		bl	memcpy
 1536              	.LVL180:
2017:.\BLEApplication.c ****                            DeviceInfo[idx-1-0x30].DeviceList.bdAddr,6);
2018:.\BLEApplication.c ****                     printf("AT+OK\r\n");
 1537              		.loc 1 2018 0
 1538 017c 1B48     		ldr	r0, .L100+20
 1539 017e FFF7FEFF 		bl	puts
 1540              	.LVL181:
 1541 0182 26E0     		b	.L82
 1542              	.LVL182:
 1543              	.L90:
2019:.\BLEApplication.c ****                 }
2020:.\BLEApplication.c ****             break;
2021:.\BLEApplication.c ****             case '?':
2022:.\BLEApplication.c ****                 if(CYBLE_STATE_CONNECTED==CyBle_GetState())
 1544              		.loc 1 2022 0
 1545 0184 1A4B     		ldr	r3, .L100+24
 1546 0186 1B78     		ldrb	r3, [r3]
 1547 0188 022B     		cmp	r3, #2
 1548 018a 15D0     		beq	.L98
 1549 018c 1AE0     		b	.L99
 1550              	.LVL183:
ARM GAS  C:\Users\Helon\AppData\Local\Temp\ccys0XsA.s 			page 65


 1551              	.L97:
2023:.\BLEApplication.c ****                 {
2024:.\BLEApplication.c ****                     for(i=0;i<Conn_Or_Disconn_Info.Connected_Count;i++)
2025:.\BLEApplication.c ****                     {
2026:.\BLEApplication.c ****                         printf("+INQ_CONN:<%d,0x%02X%02X%02X%02X%02X%02X>\r\n",
2027:.\BLEApplication.c ****                         Conn_Or_Disconn_Info.Connect_Idx[i],
 1552              		.loc 1 2027 0 discriminator 3
 1553 018e 1648     		ldr	r0, .L100+16
 1554 0190 015D     		ldrb	r1, [r0, r4]
2028:.\BLEApplication.c ****                         Conn_Or_Disconn_Info.DeviceAddr[i].bdAddr[5],
 1555              		.loc 1 2028 0 discriminator 3
 1556 0192 E300     		lsl	r3, r4, #3
 1557 0194 1B1B     		sub	r3, r3, r4
 1558 0196 C018     		add	r0, r0, r3
 1559 0198 827B     		ldrb	r2, [r0, #14]
2029:.\BLEApplication.c ****                         Conn_Or_Disconn_Info.DeviceAddr[i].bdAddr[4],
 1560              		.loc 1 2029 0 discriminator 3
 1561 019a 437B     		ldrb	r3, [r0, #13]
2030:.\BLEApplication.c ****                         Conn_Or_Disconn_Info.DeviceAddr[i].bdAddr[3],
 1562              		.loc 1 2030 0 discriminator 3
 1563 019c 077B     		ldrb	r7, [r0, #12]
2031:.\BLEApplication.c ****                         Conn_Or_Disconn_Info.DeviceAddr[i].bdAddr[2],
 1564              		.loc 1 2031 0 discriminator 3
 1565 019e C67A     		ldrb	r6, [r0, #11]
2032:.\BLEApplication.c ****                         Conn_Or_Disconn_Info.DeviceAddr[i].bdAddr[1],
 1566              		.loc 1 2032 0 discriminator 3
 1567 01a0 857A     		ldrb	r5, [r0, #10]
2033:.\BLEApplication.c ****                         Conn_Or_Disconn_Info.DeviceAddr[i].bdAddr[0]
 1568              		.loc 1 2033 0 discriminator 3
 1569 01a2 407A     		ldrb	r0, [r0, #9]
2026:.\BLEApplication.c ****                         Conn_Or_Disconn_Info.Connect_Idx[i],
 1570              		.loc 1 2026 0 discriminator 3
 1571 01a4 0097     		str	r7, [sp]
 1572 01a6 0196     		str	r6, [sp, #4]
 1573 01a8 0295     		str	r5, [sp, #8]
 1574 01aa 0390     		str	r0, [sp, #12]
 1575 01ac 1148     		ldr	r0, .L100+28
 1576 01ae FFF7FEFF 		bl	printf
 1577              	.LVL184:
2024:.\BLEApplication.c ****                     {
 1578              		.loc 1 2024 0 discriminator 3
 1579 01b2 0134     		add	r4, r4, #1
 1580              	.LVL185:
 1581 01b4 E4B2     		uxtb	r4, r4
 1582              	.LVL186:
 1583 01b6 00E0     		b	.L95
 1584              	.LVL187:
 1585              	.L98:
 1586 01b8 0024     		mov	r4, #0
 1587              	.LVL188:
 1588              	.L95:
2024:.\BLEApplication.c ****                     {
 1589              		.loc 1 2024 0 is_stmt 0 discriminator 1
 1590 01ba 0B4B     		ldr	r3, .L100+16
 1591 01bc 1B7A     		ldrb	r3, [r3, #8]
 1592 01be A342     		cmp	r3, r4
 1593 01c0 E5D8     		bhi	.L97
ARM GAS  C:\Users\Helon\AppData\Local\Temp\ccys0XsA.s 			page 66


 1594 01c2 06E0     		b	.L82
 1595              	.LVL189:
 1596              	.L99:
2034:.\BLEApplication.c ****                       );
2035:.\BLEApplication.c ****                     }
2036:.\BLEApplication.c ****                 }
2037:.\BLEApplication.c ****                 else
2038:.\BLEApplication.c ****                 {
2039:.\BLEApplication.c ****                     printf("AT+ERR=3\r\n");//Ë°®Á§∫ÂΩìÂâçÁä∂ÊÄÅ‰∏çÊîØÊåÅËØ•ÂëΩ‰ª§
 1597              		.loc 1 2039 0 is_stmt 1
 1598 01c4 0C48     		ldr	r0, .L100+32
 1599              	.LVL190:
 1600 01c6 FFF7FEFF 		bl	puts
 1601              	.LVL191:
 1602 01ca 02E0     		b	.L82
 1603              	.LVL192:
 1604              	.L83:
2040:.\BLEApplication.c ****                 }
2041:.\BLEApplication.c ****                 
2042:.\BLEApplication.c ****             break;
2043:.\BLEApplication.c ****         }
2044:.\BLEApplication.c ****     }
2045:.\BLEApplication.c ****     else
2046:.\BLEApplication.c ****     {
2047:.\BLEApplication.c ****         printf("AT+ERR=4\r\n");//Ë°®Á§∫ÂΩìÂâçËßíËâ≤‰∏çÊîØÊåÅËØ•ÂëΩ‰ª§ 
 1605              		.loc 1 2047 0
 1606 01cc 0B48     		ldr	r0, .L100+36
 1607              	.LVL193:
 1608 01ce FFF7FEFF 		bl	puts
 1609              	.LVL194:
 1610              	.L82:
2048:.\BLEApplication.c ****     }
2049:.\BLEApplication.c **** }
 1611              		.loc 1 2049 0
 1612 01d2 05B0     		add	sp, sp, #20
 1613              		@ sp needed
 1614 01d4 F0BD     		pop	{r4, r5, r6, r7, pc}
 1615              	.L101:
 1616 01d6 C046     		.align	2
 1617              	.L100:
 1618 01d8 00000000 		.word	.LANCHOR0
 1619 01dc 4C010000 		.word	.L86
 1620 01e0 00000000 		.word	DeviceInfo
 1621 01e4 74010000 		.word	.LC60
 1622 01e8 00000000 		.word	Conn_Or_Disconn_Info
 1623 01ec 8C010000 		.word	.LC63
 1624 01f0 00000000 		.word	cyBle_state
 1625 01f4 94010000 		.word	.LC66
 1626 01f8 C0010000 		.word	.LC68
 1627 01fc CC010000 		.word	.LC70
 1628              		.cfi_endproc
 1629              	.LFE49:
 1630              		.size	Connect_Device, .-Connect_Device
 1631              		.section	.text.UartBuadRate_Handler,"ax",%progbits
 1632              		.align	2
 1633              		.global	UartBuadRate_Handler
 1634              		.code	16
ARM GAS  C:\Users\Helon\AppData\Local\Temp\ccys0XsA.s 			page 67


 1635              		.thumb_func
 1636              		.type	UartBuadRate_Handler, %function
 1637              	UartBuadRate_Handler:
 1638              	.LFB50:
2050:.\BLEApplication.c **** /******************************************************************************
2051:.\BLEApplication.c **** * Function Name: UartBuadRate_Handler
2052:.\BLEApplication.c **** ***************************************************************************//**
2053:.\BLEApplication.c **** * 
2054:.\BLEApplication.c **** *  ËÆæÂ§á‰∏≤Âè£Ê≥¢ÁâπÁéáÊàñËÄÖÊü•ËØ¢ÂΩìÂâçÁöÑ‰∏≤Âè£Ê≥¢ÁâπÁéá
2055:.\BLEApplication.c **** * \param  idx:ËÆæÁΩÆÁöÑÊ≥¢ÁâπÁéáÂÄºÊàñÊü•ËØ¢Ê≥¢ÁâπÁéáÁöÑÁä∂ÊÄÅ
2056:.\BLEApplication.c **** * \return none
2057:.\BLEApplication.c **** *  
2058:.\BLEApplication.c **** * 
2059:.\BLEApplication.c **** ******************************************************************************/
2060:.\BLEApplication.c **** void UartBuadRate_Handler(uint8_t idx)
2061:.\BLEApplication.c **** {
 1639              		.loc 1 2061 0
 1640              		.cfi_startproc
 1641              	.LVL195:
 1642 0000 10B5     		push	{r4, lr}
 1643              		.cfi_def_cfa_offset 8
 1644              		.cfi_offset 4, -8
 1645              		.cfi_offset 14, -4
 1646 0002 041C     		mov	r4, r0
2062:.\BLEApplication.c ****     switch(idx)
 1647              		.loc 1 2062 0
 1648 0004 031C     		mov	r3, r0
 1649 0006 303B     		sub	r3, r3, #48
 1650 0008 DAB2     		uxtb	r2, r3
 1651 000a 312A     		cmp	r2, #49
 1652 000c 00D9     		bls	.LCB1476
 1653 000e E0E1     		b	.L102	@long jump
 1654              	.LCB1476:
 1655 0010 9300     		lsl	r3, r2, #2
 1656 0012 C04A     		ldr	r2, .L173
 1657 0014 D358     		ldr	r3, [r2, r3]
 1658 0016 9F46     		mov	pc, r3
 1659              		.section	.rodata
 1660              		.align	2
 1661              	.L105:
 1662 0188 18000000 		.word	.L104
 1663 018c 44000000 		.word	.L106
 1664 0190 70000000 		.word	.L107
 1665 0194 9C000000 		.word	.L108
 1666 0198 C8000000 		.word	.L109
 1667 019c F4000000 		.word	.L110
 1668 01a0 20010000 		.word	.L111
 1669 01a4 4C010000 		.word	.L112
 1670 01a8 78010000 		.word	.L113
 1671 01ac A4010000 		.word	.L114
 1672 01b0 D2030000 		.word	.L102
 1673 01b4 D2030000 		.word	.L102
 1674 01b8 D2030000 		.word	.L102
 1675 01bc D2030000 		.word	.L102
 1676 01c0 D2030000 		.word	.L102
 1677 01c4 FC010000 		.word	.L115
 1678 01c8 D2030000 		.word	.L102
ARM GAS  C:\Users\Helon\AppData\Local\Temp\ccys0XsA.s 			page 68


 1679 01cc D0010000 		.word	.L116
 1680 01d0 D2030000 		.word	.L102
 1681 01d4 D2030000 		.word	.L102
 1682 01d8 D2030000 		.word	.L102
 1683 01dc D2030000 		.word	.L102
 1684 01e0 D2030000 		.word	.L102
 1685 01e4 D2030000 		.word	.L102
 1686 01e8 D2030000 		.word	.L102
 1687 01ec D2030000 		.word	.L102
 1688 01f0 D2030000 		.word	.L102
 1689 01f4 D2030000 		.word	.L102
 1690 01f8 D2030000 		.word	.L102
 1691 01fc D2030000 		.word	.L102
 1692 0200 D2030000 		.word	.L102
 1693 0204 D2030000 		.word	.L102
 1694 0208 D2030000 		.word	.L102
 1695 020c D2030000 		.word	.L102
 1696 0210 D2030000 		.word	.L102
 1697 0214 D2030000 		.word	.L102
 1698 0218 D2030000 		.word	.L102
 1699 021c D2030000 		.word	.L102
 1700 0220 D2030000 		.word	.L102
 1701 0224 D2030000 		.word	.L102
 1702 0228 D2030000 		.word	.L102
 1703 022c D2030000 		.word	.L102
 1704 0230 D2030000 		.word	.L102
 1705 0234 D2030000 		.word	.L102
 1706 0238 D2030000 		.word	.L102
 1707 023c D2030000 		.word	.L102
 1708 0240 D2030000 		.word	.L102
 1709 0244 D2030000 		.word	.L102
 1710 0248 D2030000 		.word	.L102
 1711 024c D0010000 		.word	.L116
 1712              		.section	.text.UartBuadRate_Handler
 1713              	.L104:
2063:.\BLEApplication.c ****     {
2064:.\BLEApplication.c **** //                1200
2065:.\BLEApplication.c ****         case '0':                     
2066:.\BLEApplication.c ****              printf("AT+BAUD=<1200>\r\n");
 1714              		.loc 1 2066 0
 1715 0018 BF48     		ldr	r0, .L173+4
 1716              	.LVL196:
 1717 001a FFF7FEFF 		bl	puts
 1718              	.LVL197:
2067:.\BLEApplication.c ****              printf("OK\r\n");
 1719              		.loc 1 2067 0
 1720 001e BF48     		ldr	r0, .L173+8
 1721 0020 FFF7FEFF 		bl	puts
 1722              	.LVL198:
 1723              	.L118:
2068:.\BLEApplication.c ****              while((UART_SpiUartGetTxBufferSize() + UART_GET_TX_FIFO_SR_VALID) != 0);//Á≠âÂæÖ‰∏≤Âè£
 1724              		.loc 1 2068 0 discriminator 5
 1725 0024 FFF7FEFF 		bl	UART_SpiUartGetTxBufferSize
 1726              	.LVL199:
 1727 0028 BD4B     		ldr	r3, .L173+12
 1728 002a 1B68     		ldr	r3, [r3]
 1729 002c 8022     		mov	r2, #128
ARM GAS  C:\Users\Helon\AppData\Local\Temp\ccys0XsA.s 			page 69


 1730 002e 1202     		lsl	r2, r2, #8
 1731 0030 1340     		and	r3, r2
 1732 0032 00D0     		beq	.L117
 1733              		.loc 1 2068 0 is_stmt 0
 1734 0034 0123     		mov	r3, #1
 1735              	.L117:
 1736              		.loc 1 2068 0 discriminator 4
 1737 0036 C318     		add	r3, r0, r3
 1738 0038 002B     		cmp	r3, #0
 1739 003a F3D1     		bne	.L118
2069:.\BLEApplication.c ****              SetUartConfiguration(BAUD_1200);
2070:.\BLEApplication.c ****              Baud_rate_idx=idx;
 1740              		.loc 1 2070 0 is_stmt 1
 1741 003c 7C33     		add	r3, r3, #124
 1742 003e B94A     		ldr	r2, .L173+16
 1743 0040 D454     		strb	r4, [r2, r3]
2071:.\BLEApplication.c ****         break;
 1744              		.loc 1 2071 0
 1745 0042 C6E1     		b	.L102
 1746              	.LVL200:
 1747              	.L106:
2072:.\BLEApplication.c **** //                2400
2073:.\BLEApplication.c ****         case '1':
2074:.\BLEApplication.c ****              printf("AT+BAUD=<2400>\r\n");
 1748              		.loc 1 2074 0
 1749 0044 B848     		ldr	r0, .L173+20
 1750              	.LVL201:
 1751 0046 FFF7FEFF 		bl	puts
 1752              	.LVL202:
2075:.\BLEApplication.c ****              printf("OK\r\n");
 1753              		.loc 1 2075 0
 1754 004a B448     		ldr	r0, .L173+8
 1755 004c FFF7FEFF 		bl	puts
 1756              	.LVL203:
 1757              	.L120:
2076:.\BLEApplication.c ****              while((UART_SpiUartGetTxBufferSize() + UART_GET_TX_FIFO_SR_VALID) != 0);//Á≠âÂæÖ‰∏≤Âè£
 1758              		.loc 1 2076 0 discriminator 5
 1759 0050 FFF7FEFF 		bl	UART_SpiUartGetTxBufferSize
 1760              	.LVL204:
 1761 0054 B24B     		ldr	r3, .L173+12
 1762 0056 1B68     		ldr	r3, [r3]
 1763 0058 8022     		mov	r2, #128
 1764 005a 1202     		lsl	r2, r2, #8
 1765 005c 1340     		and	r3, r2
 1766 005e 00D0     		beq	.L119
 1767              		.loc 1 2076 0 is_stmt 0
 1768 0060 0123     		mov	r3, #1
 1769              	.L119:
 1770              		.loc 1 2076 0 discriminator 4
 1771 0062 C318     		add	r3, r0, r3
 1772 0064 002B     		cmp	r3, #0
 1773 0066 F3D1     		bne	.L120
2077:.\BLEApplication.c ****              SetUartConfiguration(BAUD_2400);
2078:.\BLEApplication.c ****              Baud_rate_idx=idx;
 1774              		.loc 1 2078 0 is_stmt 1
 1775 0068 7C33     		add	r3, r3, #124
 1776 006a AE4A     		ldr	r2, .L173+16
ARM GAS  C:\Users\Helon\AppData\Local\Temp\ccys0XsA.s 			page 70


 1777 006c D454     		strb	r4, [r2, r3]
2079:.\BLEApplication.c ****         break;
 1778              		.loc 1 2079 0
 1779 006e B0E1     		b	.L102
 1780              	.LVL205:
 1781              	.L107:
2080:.\BLEApplication.c **** //                4800
2081:.\BLEApplication.c ****         case '2':
2082:.\BLEApplication.c ****              printf("AT+BAUD=<4800>\r\n");
 1782              		.loc 1 2082 0
 1783 0070 AE48     		ldr	r0, .L173+24
 1784              	.LVL206:
 1785 0072 FFF7FEFF 		bl	puts
 1786              	.LVL207:
2083:.\BLEApplication.c ****              printf("OK\r\n");
 1787              		.loc 1 2083 0
 1788 0076 A948     		ldr	r0, .L173+8
 1789 0078 FFF7FEFF 		bl	puts
 1790              	.LVL208:
 1791              	.L122:
2084:.\BLEApplication.c ****              while((UART_SpiUartGetTxBufferSize() + UART_GET_TX_FIFO_SR_VALID) != 0);//Á≠âÂæÖ‰∏≤Âè£
 1792              		.loc 1 2084 0 discriminator 5
 1793 007c FFF7FEFF 		bl	UART_SpiUartGetTxBufferSize
 1794              	.LVL209:
 1795 0080 A74B     		ldr	r3, .L173+12
 1796 0082 1B68     		ldr	r3, [r3]
 1797 0084 8022     		mov	r2, #128
 1798 0086 1202     		lsl	r2, r2, #8
 1799 0088 1340     		and	r3, r2
 1800 008a 00D0     		beq	.L121
 1801              		.loc 1 2084 0 is_stmt 0
 1802 008c 0123     		mov	r3, #1
 1803              	.L121:
 1804              		.loc 1 2084 0 discriminator 4
 1805 008e C318     		add	r3, r0, r3
 1806 0090 002B     		cmp	r3, #0
 1807 0092 F3D1     		bne	.L122
2085:.\BLEApplication.c ****              SetUartConfiguration(BAUD_4800);
2086:.\BLEApplication.c ****              Baud_rate_idx=idx;
 1808              		.loc 1 2086 0 is_stmt 1
 1809 0094 7C33     		add	r3, r3, #124
 1810 0096 A34A     		ldr	r2, .L173+16
 1811 0098 D454     		strb	r4, [r2, r3]
2087:.\BLEApplication.c ****         break;
 1812              		.loc 1 2087 0
 1813 009a 9AE1     		b	.L102
 1814              	.LVL210:
 1815              	.L108:
2088:.\BLEApplication.c **** //                9600
2089:.\BLEApplication.c ****         case '3':
2090:.\BLEApplication.c ****              printf("AT+BAUD=<9600>\r\n");
 1816              		.loc 1 2090 0
 1817 009c A448     		ldr	r0, .L173+28
 1818              	.LVL211:
 1819 009e FFF7FEFF 		bl	puts
 1820              	.LVL212:
2091:.\BLEApplication.c ****              printf("OK\r\n");
ARM GAS  C:\Users\Helon\AppData\Local\Temp\ccys0XsA.s 			page 71


 1821              		.loc 1 2091 0
 1822 00a2 9E48     		ldr	r0, .L173+8
 1823 00a4 FFF7FEFF 		bl	puts
 1824              	.LVL213:
 1825              	.L124:
2092:.\BLEApplication.c ****              while((UART_SpiUartGetTxBufferSize() + UART_GET_TX_FIFO_SR_VALID) != 0);//Á≠âÂæÖ‰∏≤Âè£
 1826              		.loc 1 2092 0 discriminator 5
 1827 00a8 FFF7FEFF 		bl	UART_SpiUartGetTxBufferSize
 1828              	.LVL214:
 1829 00ac 9C4B     		ldr	r3, .L173+12
 1830 00ae 1B68     		ldr	r3, [r3]
 1831 00b0 8022     		mov	r2, #128
 1832 00b2 1202     		lsl	r2, r2, #8
 1833 00b4 1340     		and	r3, r2
 1834 00b6 00D0     		beq	.L123
 1835              		.loc 1 2092 0 is_stmt 0
 1836 00b8 0123     		mov	r3, #1
 1837              	.L123:
 1838              		.loc 1 2092 0 discriminator 4
 1839 00ba C318     		add	r3, r0, r3
 1840 00bc 002B     		cmp	r3, #0
 1841 00be F3D1     		bne	.L124
2093:.\BLEApplication.c ****              SetUartConfiguration(BAUD_9600);
2094:.\BLEApplication.c ****              Baud_rate_idx=idx;
 1842              		.loc 1 2094 0 is_stmt 1
 1843 00c0 7C33     		add	r3, r3, #124
 1844 00c2 984A     		ldr	r2, .L173+16
 1845 00c4 D454     		strb	r4, [r2, r3]
2095:.\BLEApplication.c ****         break;
 1846              		.loc 1 2095 0
 1847 00c6 84E1     		b	.L102
 1848              	.LVL215:
 1849              	.L109:
2096:.\BLEApplication.c ****         case '4':
2097:.\BLEApplication.c ****              printf("AT+BAUD=<19200>\r\n");
 1850              		.loc 1 2097 0
 1851 00c8 9A48     		ldr	r0, .L173+32
 1852              	.LVL216:
 1853 00ca FFF7FEFF 		bl	puts
 1854              	.LVL217:
2098:.\BLEApplication.c ****              printf("OK\r\n");
 1855              		.loc 1 2098 0
 1856 00ce 9348     		ldr	r0, .L173+8
 1857 00d0 FFF7FEFF 		bl	puts
 1858              	.LVL218:
 1859              	.L126:
2099:.\BLEApplication.c ****              while((UART_SpiUartGetTxBufferSize() + UART_GET_TX_FIFO_SR_VALID) != 0);//Á≠âÂæÖ‰∏≤Âè£
 1860              		.loc 1 2099 0 discriminator 5
 1861 00d4 FFF7FEFF 		bl	UART_SpiUartGetTxBufferSize
 1862              	.LVL219:
 1863 00d8 914B     		ldr	r3, .L173+12
 1864 00da 1B68     		ldr	r3, [r3]
 1865 00dc 8022     		mov	r2, #128
 1866 00de 1202     		lsl	r2, r2, #8
 1867 00e0 1340     		and	r3, r2
 1868 00e2 00D0     		beq	.L125
 1869              		.loc 1 2099 0 is_stmt 0
ARM GAS  C:\Users\Helon\AppData\Local\Temp\ccys0XsA.s 			page 72


 1870 00e4 0123     		mov	r3, #1
 1871              	.L125:
 1872              		.loc 1 2099 0 discriminator 4
 1873 00e6 C318     		add	r3, r0, r3
 1874 00e8 002B     		cmp	r3, #0
 1875 00ea F3D1     		bne	.L126
2100:.\BLEApplication.c ****              SetUartConfiguration(BAUD_19200);
2101:.\BLEApplication.c ****              Baud_rate_idx=idx;
 1876              		.loc 1 2101 0 is_stmt 1
 1877 00ec 7C33     		add	r3, r3, #124
 1878 00ee 8D4A     		ldr	r2, .L173+16
 1879 00f0 D454     		strb	r4, [r2, r3]
2102:.\BLEApplication.c ****         break;
 1880              		.loc 1 2102 0
 1881 00f2 6EE1     		b	.L102
 1882              	.LVL220:
 1883              	.L110:
2103:.\BLEApplication.c ****         case '5':
2104:.\BLEApplication.c ****              printf("AT+BAUD=<38400>\r\n");
 1884              		.loc 1 2104 0
 1885 00f4 9048     		ldr	r0, .L173+36
 1886              	.LVL221:
 1887 00f6 FFF7FEFF 		bl	puts
 1888              	.LVL222:
2105:.\BLEApplication.c ****              printf("OK\r\n");
 1889              		.loc 1 2105 0
 1890 00fa 8848     		ldr	r0, .L173+8
 1891 00fc FFF7FEFF 		bl	puts
 1892              	.LVL223:
 1893              	.L128:
2106:.\BLEApplication.c ****              while((UART_SpiUartGetTxBufferSize() + UART_GET_TX_FIFO_SR_VALID) != 0);//Á≠âÂæÖ‰∏≤Âè£
 1894              		.loc 1 2106 0 discriminator 5
 1895 0100 FFF7FEFF 		bl	UART_SpiUartGetTxBufferSize
 1896              	.LVL224:
 1897 0104 864B     		ldr	r3, .L173+12
 1898 0106 1B68     		ldr	r3, [r3]
 1899 0108 8022     		mov	r2, #128
 1900 010a 1202     		lsl	r2, r2, #8
 1901 010c 1340     		and	r3, r2
 1902 010e 00D0     		beq	.L127
 1903              		.loc 1 2106 0 is_stmt 0
 1904 0110 0123     		mov	r3, #1
 1905              	.L127:
 1906              		.loc 1 2106 0 discriminator 4
 1907 0112 C318     		add	r3, r0, r3
 1908 0114 002B     		cmp	r3, #0
 1909 0116 F3D1     		bne	.L128
2107:.\BLEApplication.c ****              SetUartConfiguration(BAUD_38400);
2108:.\BLEApplication.c ****              Baud_rate_idx=idx;
 1910              		.loc 1 2108 0 is_stmt 1
 1911 0118 7C33     		add	r3, r3, #124
 1912 011a 824A     		ldr	r2, .L173+16
 1913 011c D454     		strb	r4, [r2, r3]
2109:.\BLEApplication.c ****         break;
 1914              		.loc 1 2109 0
 1915 011e 58E1     		b	.L102
 1916              	.LVL225:
ARM GAS  C:\Users\Helon\AppData\Local\Temp\ccys0XsA.s 			page 73


 1917              	.L111:
2110:.\BLEApplication.c **** //                57600
2111:.\BLEApplication.c ****         case '6':
2112:.\BLEApplication.c ****              printf("AT+BAUD=<57600>\r\n");
 1918              		.loc 1 2112 0
 1919 0120 8648     		ldr	r0, .L173+40
 1920              	.LVL226:
 1921 0122 FFF7FEFF 		bl	puts
 1922              	.LVL227:
2113:.\BLEApplication.c ****              printf("OK\r\n");
 1923              		.loc 1 2113 0
 1924 0126 7D48     		ldr	r0, .L173+8
 1925 0128 FFF7FEFF 		bl	puts
 1926              	.LVL228:
 1927              	.L130:
2114:.\BLEApplication.c ****              while((UART_SpiUartGetTxBufferSize() + UART_GET_TX_FIFO_SR_VALID) != 0);//Á≠âÂæÖ‰∏≤Âè£
 1928              		.loc 1 2114 0 discriminator 5
 1929 012c FFF7FEFF 		bl	UART_SpiUartGetTxBufferSize
 1930              	.LVL229:
 1931 0130 7B4B     		ldr	r3, .L173+12
 1932 0132 1B68     		ldr	r3, [r3]
 1933 0134 8022     		mov	r2, #128
 1934 0136 1202     		lsl	r2, r2, #8
 1935 0138 1340     		and	r3, r2
 1936 013a 00D0     		beq	.L129
 1937              		.loc 1 2114 0 is_stmt 0
 1938 013c 0123     		mov	r3, #1
 1939              	.L129:
 1940              		.loc 1 2114 0 discriminator 4
 1941 013e C318     		add	r3, r0, r3
 1942 0140 002B     		cmp	r3, #0
 1943 0142 F3D1     		bne	.L130
2115:.\BLEApplication.c ****              SetUartConfiguration(BAUD_57600);
2116:.\BLEApplication.c ****              Baud_rate_idx=idx;
 1944              		.loc 1 2116 0 is_stmt 1
 1945 0144 7C33     		add	r3, r3, #124
 1946 0146 774A     		ldr	r2, .L173+16
 1947 0148 D454     		strb	r4, [r2, r3]
2117:.\BLEApplication.c ****         break;
 1948              		.loc 1 2117 0
 1949 014a 42E1     		b	.L102
 1950              	.LVL230:
 1951              	.L112:
2118:.\BLEApplication.c ****         case '7':
2119:.\BLEApplication.c ****              printf("AT+BAUD=<115200>\r\n");
 1952              		.loc 1 2119 0
 1953 014c 7C48     		ldr	r0, .L173+44
 1954              	.LVL231:
 1955 014e FFF7FEFF 		bl	puts
 1956              	.LVL232:
2120:.\BLEApplication.c ****              printf("OK\r\n");
 1957              		.loc 1 2120 0
 1958 0152 7248     		ldr	r0, .L173+8
 1959 0154 FFF7FEFF 		bl	puts
 1960              	.LVL233:
 1961              	.L132:
2121:.\BLEApplication.c ****              while((UART_SpiUartGetTxBufferSize() + UART_GET_TX_FIFO_SR_VALID) != 0);//Á≠âÂæÖ‰∏≤Âè£
ARM GAS  C:\Users\Helon\AppData\Local\Temp\ccys0XsA.s 			page 74


 1962              		.loc 1 2121 0 discriminator 5
 1963 0158 FFF7FEFF 		bl	UART_SpiUartGetTxBufferSize
 1964              	.LVL234:
 1965 015c 704B     		ldr	r3, .L173+12
 1966 015e 1B68     		ldr	r3, [r3]
 1967 0160 8022     		mov	r2, #128
 1968 0162 1202     		lsl	r2, r2, #8
 1969 0164 1340     		and	r3, r2
 1970 0166 00D0     		beq	.L131
 1971              		.loc 1 2121 0 is_stmt 0
 1972 0168 0123     		mov	r3, #1
 1973              	.L131:
 1974              		.loc 1 2121 0 discriminator 4
 1975 016a C318     		add	r3, r0, r3
 1976 016c 002B     		cmp	r3, #0
 1977 016e F3D1     		bne	.L132
2122:.\BLEApplication.c ****              SetUartConfiguration(BAUD_115200);
2123:.\BLEApplication.c ****              Baud_rate_idx=idx;
 1978              		.loc 1 2123 0 is_stmt 1
 1979 0170 7C33     		add	r3, r3, #124
 1980 0172 6C4A     		ldr	r2, .L173+16
 1981 0174 D454     		strb	r4, [r2, r3]
2124:.\BLEApplication.c ****         break;
 1982              		.loc 1 2124 0
 1983 0176 2CE1     		b	.L102
 1984              	.LVL235:
 1985              	.L113:
2125:.\BLEApplication.c ****         case '8':
2126:.\BLEApplication.c ****              printf("AT+BAUD=<230400>\r\n");
 1986              		.loc 1 2126 0
 1987 0178 7248     		ldr	r0, .L173+48
 1988              	.LVL236:
 1989 017a FFF7FEFF 		bl	puts
 1990              	.LVL237:
2127:.\BLEApplication.c ****              printf("OK\r\n");
 1991              		.loc 1 2127 0
 1992 017e 6748     		ldr	r0, .L173+8
 1993 0180 FFF7FEFF 		bl	puts
 1994              	.LVL238:
 1995              	.L134:
2128:.\BLEApplication.c ****              while((UART_SpiUartGetTxBufferSize() + UART_GET_TX_FIFO_SR_VALID) != 0);//Á≠âÂæÖ‰∏≤Âè£
 1996              		.loc 1 2128 0 discriminator 5
 1997 0184 FFF7FEFF 		bl	UART_SpiUartGetTxBufferSize
 1998              	.LVL239:
 1999 0188 654B     		ldr	r3, .L173+12
 2000 018a 1B68     		ldr	r3, [r3]
 2001 018c 8022     		mov	r2, #128
 2002 018e 1202     		lsl	r2, r2, #8
 2003 0190 1340     		and	r3, r2
 2004 0192 00D0     		beq	.L133
 2005              		.loc 1 2128 0 is_stmt 0
 2006 0194 0123     		mov	r3, #1
 2007              	.L133:
 2008              		.loc 1 2128 0 discriminator 4
 2009 0196 C318     		add	r3, r0, r3
 2010 0198 002B     		cmp	r3, #0
 2011 019a F3D1     		bne	.L134
ARM GAS  C:\Users\Helon\AppData\Local\Temp\ccys0XsA.s 			page 75


2129:.\BLEApplication.c ****              SetUartConfiguration(BAUD_230400);
2130:.\BLEApplication.c ****              Baud_rate_idx=idx;
 2012              		.loc 1 2130 0 is_stmt 1
 2013 019c 7C33     		add	r3, r3, #124
 2014 019e 614A     		ldr	r2, .L173+16
 2015 01a0 D454     		strb	r4, [r2, r3]
2131:.\BLEApplication.c ****         break;
 2016              		.loc 1 2131 0
 2017 01a2 16E1     		b	.L102
 2018              	.LVL240:
 2019              	.L114:
2132:.\BLEApplication.c ****         case '9':
2133:.\BLEApplication.c ****              printf("AT+BAUD=<460800>\r\n");
 2020              		.loc 1 2133 0
 2021 01a4 6848     		ldr	r0, .L173+52
 2022              	.LVL241:
 2023 01a6 FFF7FEFF 		bl	puts
 2024              	.LVL242:
2134:.\BLEApplication.c ****              printf("OK\r\n");
 2025              		.loc 1 2134 0
 2026 01aa 5C48     		ldr	r0, .L173+8
 2027 01ac FFF7FEFF 		bl	puts
 2028              	.LVL243:
 2029              	.L136:
2135:.\BLEApplication.c ****              while((UART_SpiUartGetTxBufferSize() + UART_GET_TX_FIFO_SR_VALID) != 0);//Á≠âÂæÖ‰∏≤Âè£
 2030              		.loc 1 2135 0 discriminator 5
 2031 01b0 FFF7FEFF 		bl	UART_SpiUartGetTxBufferSize
 2032              	.LVL244:
 2033 01b4 5A4B     		ldr	r3, .L173+12
 2034 01b6 1B68     		ldr	r3, [r3]
 2035 01b8 8022     		mov	r2, #128
 2036 01ba 1202     		lsl	r2, r2, #8
 2037 01bc 1340     		and	r3, r2
 2038 01be 00D0     		beq	.L135
 2039              		.loc 1 2135 0 is_stmt 0
 2040 01c0 0123     		mov	r3, #1
 2041              	.L135:
 2042              		.loc 1 2135 0 discriminator 4
 2043 01c2 C318     		add	r3, r0, r3
 2044 01c4 002B     		cmp	r3, #0
 2045 01c6 F3D1     		bne	.L136
2136:.\BLEApplication.c ****              SetUartConfiguration(BAUD_460800);
2137:.\BLEApplication.c ****              Baud_rate_idx=idx;
 2046              		.loc 1 2137 0 is_stmt 1
 2047 01c8 7C33     		add	r3, r3, #124
 2048 01ca 564A     		ldr	r2, .L173+16
 2049 01cc D454     		strb	r4, [r2, r3]
2138:.\BLEApplication.c ****         break;
 2050              		.loc 1 2138 0
 2051 01ce 00E1     		b	.L102
 2052              	.LVL245:
 2053              	.L116:
2139:.\BLEApplication.c ****         case 'a':
2140:.\BLEApplication.c ****         case 'A':
2141:.\BLEApplication.c ****              printf("AT+BAUD=<921600>\r\n");
 2054              		.loc 1 2141 0
 2055 01d0 5E48     		ldr	r0, .L173+56
ARM GAS  C:\Users\Helon\AppData\Local\Temp\ccys0XsA.s 			page 76


 2056              	.LVL246:
 2057 01d2 FFF7FEFF 		bl	puts
 2058              	.LVL247:
2142:.\BLEApplication.c ****              printf("OK\r\n");
 2059              		.loc 1 2142 0
 2060 01d6 5148     		ldr	r0, .L173+8
 2061 01d8 FFF7FEFF 		bl	puts
 2062              	.LVL248:
 2063              	.L138:
2143:.\BLEApplication.c ****              while((UART_SpiUartGetTxBufferSize() + UART_GET_TX_FIFO_SR_VALID) != 0);//Á≠âÂæÖ‰∏≤Âè£
 2064              		.loc 1 2143 0 discriminator 5
 2065 01dc FFF7FEFF 		bl	UART_SpiUartGetTxBufferSize
 2066              	.LVL249:
 2067 01e0 4F4B     		ldr	r3, .L173+12
 2068 01e2 1B68     		ldr	r3, [r3]
 2069 01e4 8022     		mov	r2, #128
 2070 01e6 1202     		lsl	r2, r2, #8
 2071 01e8 1340     		and	r3, r2
 2072 01ea 00D0     		beq	.L137
 2073              		.loc 1 2143 0 is_stmt 0
 2074 01ec 0123     		mov	r3, #1
 2075              	.L137:
 2076              		.loc 1 2143 0 discriminator 4
 2077 01ee C318     		add	r3, r0, r3
 2078 01f0 002B     		cmp	r3, #0
 2079 01f2 F3D1     		bne	.L138
2144:.\BLEApplication.c ****              SetUartConfiguration(BAUD_921600);
2145:.\BLEApplication.c ****              Baud_rate_idx=idx;
 2080              		.loc 1 2145 0 is_stmt 1
 2081 01f4 7C33     		add	r3, r3, #124
 2082 01f6 4B4A     		ldr	r2, .L173+16
 2083 01f8 D454     		strb	r4, [r2, r3]
2146:.\BLEApplication.c ****         break;
 2084              		.loc 1 2146 0
 2085 01fa EAE0     		b	.L102
 2086              	.LVL250:
 2087              	.L115:
2147:.\BLEApplication.c ****         case '?':
2148:.\BLEApplication.c ****             switch(Baud_rate_idx)
 2088              		.loc 1 2148 0
 2089 01fc 7C23     		mov	r3, #124
 2090 01fe 494A     		ldr	r2, .L173+16
 2091 0200 D35C     		ldrb	r3, [r2, r3]
 2092 0202 303B     		sub	r3, r3, #48
 2093 0204 DAB2     		uxtb	r2, r3
 2094 0206 312A     		cmp	r2, #49
 2095 0208 00D9     		bls	.LCB1846
 2096 020a E2E0     		b	.L102	@long jump
 2097              	.LCB1846:
 2098 020c 9300     		lsl	r3, r2, #2
 2099 020e 504A     		ldr	r2, .L173+60
 2100 0210 D358     		ldr	r3, [r2, r3]
 2101 0212 9F46     		mov	pc, r3
 2102              		.section	.rodata
 2103              		.align	2
 2104              	.L140:
 2105 0250 14020000 		.word	.L139
ARM GAS  C:\Users\Helon\AppData\Local\Temp\ccys0XsA.s 			page 77


 2106 0254 34020000 		.word	.L141
 2107 0258 54020000 		.word	.L142
 2108 025c 74020000 		.word	.L143
 2109 0260 94020000 		.word	.L144
 2110 0264 B4020000 		.word	.L145
 2111 0268 D4020000 		.word	.L146
 2112 026c F4020000 		.word	.L147
 2113 0270 74030000 		.word	.L148
 2114 0274 94030000 		.word	.L149
 2115 0278 D2030000 		.word	.L102
 2116 027c D2030000 		.word	.L102
 2117 0280 D2030000 		.word	.L102
 2118 0284 D2030000 		.word	.L102
 2119 0288 D2030000 		.word	.L102
 2120 028c D2030000 		.word	.L102
 2121 0290 D2030000 		.word	.L102
 2122 0294 B4030000 		.word	.L150
 2123 0298 D2030000 		.word	.L102
 2124 029c D2030000 		.word	.L102
 2125 02a0 D2030000 		.word	.L102
 2126 02a4 D2030000 		.word	.L102
 2127 02a8 D2030000 		.word	.L102
 2128 02ac D2030000 		.word	.L102
 2129 02b0 D2030000 		.word	.L102
 2130 02b4 D2030000 		.word	.L102
 2131 02b8 D2030000 		.word	.L102
 2132 02bc D2030000 		.word	.L102
 2133 02c0 D2030000 		.word	.L102
 2134 02c4 D2030000 		.word	.L102
 2135 02c8 D2030000 		.word	.L102
 2136 02cc D2030000 		.word	.L102
 2137 02d0 D2030000 		.word	.L102
 2138 02d4 D2030000 		.word	.L102
 2139 02d8 D2030000 		.word	.L102
 2140 02dc D2030000 		.word	.L102
 2141 02e0 D2030000 		.word	.L102
 2142 02e4 D2030000 		.word	.L102
 2143 02e8 D2030000 		.word	.L102
 2144 02ec D2030000 		.word	.L102
 2145 02f0 D2030000 		.word	.L102
 2146 02f4 D2030000 		.word	.L102
 2147 02f8 D2030000 		.word	.L102
 2148 02fc D2030000 		.word	.L102
 2149 0300 D2030000 		.word	.L102
 2150 0304 D2030000 		.word	.L102
 2151 0308 D2030000 		.word	.L102
 2152 030c D2030000 		.word	.L102
 2153 0310 D2030000 		.word	.L102
 2154 0314 B4030000 		.word	.L150
 2155              		.section	.text.UartBuadRate_Handler
 2156              	.L139:
2149:.\BLEApplication.c ****             {
2150:.\BLEApplication.c **** //                1200
2151:.\BLEApplication.c ****                 case '0':                     
2152:.\BLEApplication.c ****                      printf("+BAUD:<1200>\r\n");
 2157              		.loc 1 2152 0
 2158 0214 4F48     		ldr	r0, .L173+64
ARM GAS  C:\Users\Helon\AppData\Local\Temp\ccys0XsA.s 			page 78


 2159              	.LVL251:
 2160 0216 FFF7FEFF 		bl	puts
 2161              	.LVL252:
 2162              	.L152:
2153:.\BLEApplication.c **** //                             printf("OK\r\n");
2154:.\BLEApplication.c ****                      while((UART_SpiUartGetTxBufferSize() + UART_GET_TX_FIFO_SR_VALID) != 0);//Á≠âÂ
 2163              		.loc 1 2154 0 discriminator 5
 2164 021a FFF7FEFF 		bl	UART_SpiUartGetTxBufferSize
 2165              	.LVL253:
 2166 021e 404B     		ldr	r3, .L173+12
 2167 0220 1B68     		ldr	r3, [r3]
 2168 0222 8022     		mov	r2, #128
 2169 0224 1202     		lsl	r2, r2, #8
 2170 0226 1340     		and	r3, r2
 2171 0228 00D0     		beq	.L151
 2172              		.loc 1 2154 0 is_stmt 0
 2173 022a 0123     		mov	r3, #1
 2174              	.L151:
 2175              		.loc 1 2154 0 discriminator 4
 2176 022c C318     		add	r3, r0, r3
 2177 022e 002B     		cmp	r3, #0
 2178 0230 F3D1     		bne	.L152
 2179 0232 CEE0     		b	.L102
 2180              	.LVL254:
 2181              	.L141:
2155:.\BLEApplication.c **** //                             SetUartConfiguration(BAUD_1200);
2156:.\BLEApplication.c ****                 break;
2157:.\BLEApplication.c **** //                2400
2158:.\BLEApplication.c ****                 case '1':
2159:.\BLEApplication.c ****                      printf("+BAUD:<2400>\r\n");
 2182              		.loc 1 2159 0 is_stmt 1
 2183 0234 4848     		ldr	r0, .L173+68
 2184              	.LVL255:
 2185 0236 FFF7FEFF 		bl	puts
 2186              	.LVL256:
 2187              	.L154:
2160:.\BLEApplication.c **** //                             printf("OK\r\n");
2161:.\BLEApplication.c ****                      while((UART_SpiUartGetTxBufferSize() + UART_GET_TX_FIFO_SR_VALID) != 0);//Á≠âÂ
 2188              		.loc 1 2161 0 discriminator 5
 2189 023a FFF7FEFF 		bl	UART_SpiUartGetTxBufferSize
 2190              	.LVL257:
 2191 023e 384B     		ldr	r3, .L173+12
 2192 0240 1B68     		ldr	r3, [r3]
 2193 0242 8022     		mov	r2, #128
 2194 0244 1202     		lsl	r2, r2, #8
 2195 0246 1340     		and	r3, r2
 2196 0248 00D0     		beq	.L153
 2197              		.loc 1 2161 0 is_stmt 0
 2198 024a 0123     		mov	r3, #1
 2199              	.L153:
 2200              		.loc 1 2161 0 discriminator 4
 2201 024c C318     		add	r3, r0, r3
 2202 024e 002B     		cmp	r3, #0
 2203 0250 F3D1     		bne	.L154
 2204 0252 BEE0     		b	.L102
 2205              	.LVL258:
 2206              	.L142:
ARM GAS  C:\Users\Helon\AppData\Local\Temp\ccys0XsA.s 			page 79


2162:.\BLEApplication.c **** //                             SetUartConfiguration(BAUD_2400);
2163:.\BLEApplication.c ****                 break;
2164:.\BLEApplication.c **** //                4800
2165:.\BLEApplication.c ****                 case '2':
2166:.\BLEApplication.c ****                      printf("+BAUD:<4800>\r\n");
 2207              		.loc 1 2166 0 is_stmt 1
 2208 0254 4148     		ldr	r0, .L173+72
 2209              	.LVL259:
 2210 0256 FFF7FEFF 		bl	puts
 2211              	.LVL260:
 2212              	.L156:
2167:.\BLEApplication.c **** //                             printf("OK\r\n");
2168:.\BLEApplication.c ****                      while((UART_SpiUartGetTxBufferSize() + UART_GET_TX_FIFO_SR_VALID) != 0);//Á≠âÂ
 2213              		.loc 1 2168 0 discriminator 5
 2214 025a FFF7FEFF 		bl	UART_SpiUartGetTxBufferSize
 2215              	.LVL261:
 2216 025e 304B     		ldr	r3, .L173+12
 2217 0260 1B68     		ldr	r3, [r3]
 2218 0262 8022     		mov	r2, #128
 2219 0264 1202     		lsl	r2, r2, #8
 2220 0266 1340     		and	r3, r2
 2221 0268 00D0     		beq	.L155
 2222              		.loc 1 2168 0 is_stmt 0
 2223 026a 0123     		mov	r3, #1
 2224              	.L155:
 2225              		.loc 1 2168 0 discriminator 4
 2226 026c C318     		add	r3, r0, r3
 2227 026e 002B     		cmp	r3, #0
 2228 0270 F3D1     		bne	.L156
 2229 0272 AEE0     		b	.L102
 2230              	.LVL262:
 2231              	.L143:
2169:.\BLEApplication.c **** //                             SetUartConfiguration(BAUD_4800);
2170:.\BLEApplication.c ****                 break;
2171:.\BLEApplication.c **** //                9600
2172:.\BLEApplication.c ****                 case '3':
2173:.\BLEApplication.c ****                      printf("+BAUD:<9600>\r\n");
 2232              		.loc 1 2173 0 is_stmt 1
 2233 0274 3A48     		ldr	r0, .L173+76
 2234              	.LVL263:
 2235 0276 FFF7FEFF 		bl	puts
 2236              	.LVL264:
 2237              	.L158:
2174:.\BLEApplication.c **** //                             printf("OK\r\n");
2175:.\BLEApplication.c ****                      while((UART_SpiUartGetTxBufferSize() + UART_GET_TX_FIFO_SR_VALID) != 0);//Á≠âÂ
 2238              		.loc 1 2175 0 discriminator 5
 2239 027a FFF7FEFF 		bl	UART_SpiUartGetTxBufferSize
 2240              	.LVL265:
 2241 027e 284B     		ldr	r3, .L173+12
 2242 0280 1B68     		ldr	r3, [r3]
 2243 0282 8022     		mov	r2, #128
 2244 0284 1202     		lsl	r2, r2, #8
 2245 0286 1340     		and	r3, r2
 2246 0288 00D0     		beq	.L157
 2247              		.loc 1 2175 0 is_stmt 0
 2248 028a 0123     		mov	r3, #1
 2249              	.L157:
ARM GAS  C:\Users\Helon\AppData\Local\Temp\ccys0XsA.s 			page 80


 2250              		.loc 1 2175 0 discriminator 4
 2251 028c C318     		add	r3, r0, r3
 2252 028e 002B     		cmp	r3, #0
 2253 0290 F3D1     		bne	.L158
 2254 0292 9EE0     		b	.L102
 2255              	.LVL266:
 2256              	.L144:
2176:.\BLEApplication.c **** //                             SetUartConfiguration(BAUD_9600);
2177:.\BLEApplication.c ****                 break;
2178:.\BLEApplication.c ****                 case '4':
2179:.\BLEApplication.c ****                      printf("+BAUD:<19200>\r\n");
 2257              		.loc 1 2179 0 is_stmt 1
 2258 0294 3348     		ldr	r0, .L173+80
 2259              	.LVL267:
 2260 0296 FFF7FEFF 		bl	puts
 2261              	.LVL268:
 2262              	.L160:
2180:.\BLEApplication.c **** //                             printf("OK\r\n");
2181:.\BLEApplication.c ****                      while((UART_SpiUartGetTxBufferSize() + UART_GET_TX_FIFO_SR_VALID) != 0);//Á≠âÂ
 2263              		.loc 1 2181 0 discriminator 5
 2264 029a FFF7FEFF 		bl	UART_SpiUartGetTxBufferSize
 2265              	.LVL269:
 2266 029e 204B     		ldr	r3, .L173+12
 2267 02a0 1B68     		ldr	r3, [r3]
 2268 02a2 8022     		mov	r2, #128
 2269 02a4 1202     		lsl	r2, r2, #8
 2270 02a6 1340     		and	r3, r2
 2271 02a8 00D0     		beq	.L159
 2272              		.loc 1 2181 0 is_stmt 0
 2273 02aa 0123     		mov	r3, #1
 2274              	.L159:
 2275              		.loc 1 2181 0 discriminator 4
 2276 02ac C318     		add	r3, r0, r3
 2277 02ae 002B     		cmp	r3, #0
 2278 02b0 F3D1     		bne	.L160
 2279 02b2 8EE0     		b	.L102
 2280              	.LVL270:
 2281              	.L145:
2182:.\BLEApplication.c **** //                             SetUartConfiguration(BAUD_19200);
2183:.\BLEApplication.c ****                 break;
2184:.\BLEApplication.c ****                 case '5':
2185:.\BLEApplication.c ****                      printf("+BAUD:<38400>\r\n");
 2282              		.loc 1 2185 0 is_stmt 1
 2283 02b4 2C48     		ldr	r0, .L173+84
 2284              	.LVL271:
 2285 02b6 FFF7FEFF 		bl	puts
 2286              	.LVL272:
 2287              	.L162:
2186:.\BLEApplication.c **** //                             printf("OK\r\n");
2187:.\BLEApplication.c ****                      while((UART_SpiUartGetTxBufferSize() + UART_GET_TX_FIFO_SR_VALID) != 0);//Á≠âÂ
 2288              		.loc 1 2187 0 discriminator 5
 2289 02ba FFF7FEFF 		bl	UART_SpiUartGetTxBufferSize
 2290              	.LVL273:
 2291 02be 184B     		ldr	r3, .L173+12
 2292 02c0 1B68     		ldr	r3, [r3]
 2293 02c2 8022     		mov	r2, #128
 2294 02c4 1202     		lsl	r2, r2, #8
ARM GAS  C:\Users\Helon\AppData\Local\Temp\ccys0XsA.s 			page 81


 2295 02c6 1340     		and	r3, r2
 2296 02c8 00D0     		beq	.L161
 2297              		.loc 1 2187 0 is_stmt 0
 2298 02ca 0123     		mov	r3, #1
 2299              	.L161:
 2300              		.loc 1 2187 0 discriminator 4
 2301 02cc C318     		add	r3, r0, r3
 2302 02ce 002B     		cmp	r3, #0
 2303 02d0 F3D1     		bne	.L162
 2304 02d2 7EE0     		b	.L102
 2305              	.LVL274:
 2306              	.L146:
2188:.\BLEApplication.c **** //                             SetUartConfiguration(BAUD_38400);
2189:.\BLEApplication.c ****                 break;
2190:.\BLEApplication.c **** //                57600
2191:.\BLEApplication.c ****                 case '6':
2192:.\BLEApplication.c ****                      printf("+BAUD:<57600>\r\n");
 2307              		.loc 1 2192 0 is_stmt 1
 2308 02d4 2548     		ldr	r0, .L173+88
 2309              	.LVL275:
 2310 02d6 FFF7FEFF 		bl	puts
 2311              	.LVL276:
 2312              	.L164:
2193:.\BLEApplication.c **** //                             printf("OK\r\n");
2194:.\BLEApplication.c ****                      while((UART_SpiUartGetTxBufferSize() + UART_GET_TX_FIFO_SR_VALID) != 0);//Á≠âÂ
 2313              		.loc 1 2194 0 discriminator 5
 2314 02da FFF7FEFF 		bl	UART_SpiUartGetTxBufferSize
 2315              	.LVL277:
 2316 02de 104B     		ldr	r3, .L173+12
 2317 02e0 1B68     		ldr	r3, [r3]
 2318 02e2 8022     		mov	r2, #128
 2319 02e4 1202     		lsl	r2, r2, #8
 2320 02e6 1340     		and	r3, r2
 2321 02e8 00D0     		beq	.L163
 2322              		.loc 1 2194 0 is_stmt 0
 2323 02ea 0123     		mov	r3, #1
 2324              	.L163:
 2325              		.loc 1 2194 0 discriminator 4
 2326 02ec C318     		add	r3, r0, r3
 2327 02ee 002B     		cmp	r3, #0
 2328 02f0 F3D1     		bne	.L164
 2329 02f2 6EE0     		b	.L102
 2330              	.LVL278:
 2331              	.L147:
2195:.\BLEApplication.c **** //                             SetUartConfiguration(BAUD_57600);
2196:.\BLEApplication.c ****                 break;
2197:.\BLEApplication.c ****                 case '7':
2198:.\BLEApplication.c ****                      printf("+BAUD:<115200>\r\n");
 2332              		.loc 1 2198 0 is_stmt 1
 2333 02f4 1E48     		ldr	r0, .L173+92
 2334              	.LVL279:
 2335 02f6 FFF7FEFF 		bl	puts
 2336              	.LVL280:
 2337              	.L166:
2199:.\BLEApplication.c **** //                             printf("OK\r\n");
2200:.\BLEApplication.c ****                      while((UART_SpiUartGetTxBufferSize() + UART_GET_TX_FIFO_SR_VALID) != 0);//Á≠âÂ
 2338              		.loc 1 2200 0 discriminator 5
ARM GAS  C:\Users\Helon\AppData\Local\Temp\ccys0XsA.s 			page 82


 2339 02fa FFF7FEFF 		bl	UART_SpiUartGetTxBufferSize
 2340              	.LVL281:
 2341 02fe 084B     		ldr	r3, .L173+12
 2342 0300 1B68     		ldr	r3, [r3]
 2343 0302 8022     		mov	r2, #128
 2344 0304 1202     		lsl	r2, r2, #8
 2345 0306 1340     		and	r3, r2
 2346 0308 00D0     		beq	.L165
 2347              		.loc 1 2200 0 is_stmt 0
 2348 030a 0123     		mov	r3, #1
 2349              	.L165:
 2350              		.loc 1 2200 0 discriminator 4
 2351 030c C318     		add	r3, r0, r3
 2352 030e 002B     		cmp	r3, #0
 2353 0310 F3D1     		bne	.L166
 2354 0312 5EE0     		b	.L102
 2355              	.L174:
 2356              		.align	2
 2357              	.L173:
 2358 0314 88010000 		.word	.L105
 2359 0318 D8010000 		.word	.LC73
 2360 031c E8010000 		.word	.LC75
 2361 0320 08022440 		.word	1076101640
 2362 0324 00000000 		.word	.LANCHOR1
 2363 0328 EC010000 		.word	.LC78
 2364 032c FC010000 		.word	.LC80
 2365 0330 0C020000 		.word	.LC82
 2366 0334 1C020000 		.word	.LC84
 2367 0338 30020000 		.word	.LC86
 2368 033c 44020000 		.word	.LC88
 2369 0340 58020000 		.word	.LC90
 2370 0344 6C020000 		.word	.LC92
 2371 0348 80020000 		.word	.LC94
 2372 034c 94020000 		.word	.LC96
 2373 0350 50020000 		.word	.L140
 2374 0354 A8020000 		.word	.LC99
 2375 0358 B8020000 		.word	.LC101
 2376 035c C8020000 		.word	.LC103
 2377 0360 D8020000 		.word	.LC105
 2378 0364 E8020000 		.word	.LC107
 2379 0368 F8020000 		.word	.LC109
 2380 036c 08030000 		.word	.LC111
 2381 0370 18030000 		.word	.LC113
 2382              	.LVL282:
 2383              	.L148:
2201:.\BLEApplication.c **** //                             SetUartConfiguration(BAUD_115200);
2202:.\BLEApplication.c ****                 break;
2203:.\BLEApplication.c ****                 case '8':
2204:.\BLEApplication.c ****                      printf("+BAUD:<230400>\r\n");
 2384              		.loc 1 2204 0 is_stmt 1
 2385 0374 1748     		ldr	r0, .L175
 2386              	.LVL283:
 2387 0376 FFF7FEFF 		bl	puts
 2388              	.LVL284:
 2389              	.L168:
2205:.\BLEApplication.c **** //                             printf("OK\r\n");
2206:.\BLEApplication.c ****                      while((UART_SpiUartGetTxBufferSize() + UART_GET_TX_FIFO_SR_VALID) != 0);//Á≠âÂ
ARM GAS  C:\Users\Helon\AppData\Local\Temp\ccys0XsA.s 			page 83


 2390              		.loc 1 2206 0 discriminator 5
 2391 037a FFF7FEFF 		bl	UART_SpiUartGetTxBufferSize
 2392              	.LVL285:
 2393 037e 164B     		ldr	r3, .L175+4
 2394 0380 1B68     		ldr	r3, [r3]
 2395 0382 8022     		mov	r2, #128
 2396 0384 1202     		lsl	r2, r2, #8
 2397 0386 1340     		and	r3, r2
 2398 0388 00D0     		beq	.L167
 2399              		.loc 1 2206 0 is_stmt 0
 2400 038a 0123     		mov	r3, #1
 2401              	.L167:
 2402              		.loc 1 2206 0 discriminator 4
 2403 038c C318     		add	r3, r0, r3
 2404 038e 002B     		cmp	r3, #0
 2405 0390 F3D1     		bne	.L168
 2406 0392 1EE0     		b	.L102
 2407              	.LVL286:
 2408              	.L149:
2207:.\BLEApplication.c **** //                             SetUartConfiguration(BAUD_230400);
2208:.\BLEApplication.c ****                 break;
2209:.\BLEApplication.c ****                 case '9':
2210:.\BLEApplication.c ****                      printf("+BAUD:<460800>\r\n");
 2409              		.loc 1 2210 0 is_stmt 1
 2410 0394 1148     		ldr	r0, .L175+8
 2411              	.LVL287:
 2412 0396 FFF7FEFF 		bl	puts
 2413              	.LVL288:
 2414              	.L170:
2211:.\BLEApplication.c **** //                             printf("OK\r\n");
2212:.\BLEApplication.c ****                      while((UART_SpiUartGetTxBufferSize() + UART_GET_TX_FIFO_SR_VALID) != 0);//Á≠âÂ
 2415              		.loc 1 2212 0 discriminator 5
 2416 039a FFF7FEFF 		bl	UART_SpiUartGetTxBufferSize
 2417              	.LVL289:
 2418 039e 0E4B     		ldr	r3, .L175+4
 2419 03a0 1B68     		ldr	r3, [r3]
 2420 03a2 8022     		mov	r2, #128
 2421 03a4 1202     		lsl	r2, r2, #8
 2422 03a6 1340     		and	r3, r2
 2423 03a8 00D0     		beq	.L169
 2424              		.loc 1 2212 0 is_stmt 0
 2425 03aa 0123     		mov	r3, #1
 2426              	.L169:
 2427              		.loc 1 2212 0 discriminator 4
 2428 03ac C318     		add	r3, r0, r3
 2429 03ae 002B     		cmp	r3, #0
 2430 03b0 F3D1     		bne	.L170
 2431 03b2 0EE0     		b	.L102
 2432              	.LVL290:
 2433              	.L150:
2213:.\BLEApplication.c **** //                             SetUartConfiguration(BAUD_460800);
2214:.\BLEApplication.c ****                 break;
2215:.\BLEApplication.c ****                 case 'a':
2216:.\BLEApplication.c ****                 case 'A':
2217:.\BLEApplication.c ****                      printf("+BAUD:<921600>\r\n");
 2434              		.loc 1 2217 0 is_stmt 1
 2435 03b4 0A48     		ldr	r0, .L175+12
ARM GAS  C:\Users\Helon\AppData\Local\Temp\ccys0XsA.s 			page 84


 2436              	.LVL291:
 2437 03b6 FFF7FEFF 		bl	puts
 2438              	.LVL292:
 2439              	.L172:
2218:.\BLEApplication.c **** //                             printf("OK\r\n");
2219:.\BLEApplication.c ****                      while((UART_SpiUartGetTxBufferSize() + UART_GET_TX_FIFO_SR_VALID) != 0);//Á≠âÂ
 2440              		.loc 1 2219 0 discriminator 5
 2441 03ba FFF7FEFF 		bl	UART_SpiUartGetTxBufferSize
 2442              	.LVL293:
 2443 03be 064B     		ldr	r3, .L175+4
 2444 03c0 1B68     		ldr	r3, [r3]
 2445 03c2 8022     		mov	r2, #128
 2446 03c4 1202     		lsl	r2, r2, #8
 2447 03c6 1340     		and	r3, r2
 2448 03c8 00D0     		beq	.L171
 2449              		.loc 1 2219 0 is_stmt 0
 2450 03ca 0123     		mov	r3, #1
 2451              	.L171:
 2452              		.loc 1 2219 0 discriminator 4
 2453 03cc C318     		add	r3, r0, r3
 2454 03ce 002B     		cmp	r3, #0
 2455 03d0 F3D1     		bne	.L172
 2456              	.L102:
2220:.\BLEApplication.c **** //                             SetUartConfiguration(BAUD_921600);
2221:.\BLEApplication.c ****                 break;
2222:.\BLEApplication.c ****                 default:
2223:.\BLEApplication.c ****                 break;
2224:.\BLEApplication.c ****              }
2225:.\BLEApplication.c ****         break;
2226:.\BLEApplication.c ****     }  
2227:.\BLEApplication.c **** }
 2457              		.loc 1 2227 0 is_stmt 1
 2458              		@ sp needed
 2459 03d2 10BD     		pop	{r4, pc}
 2460              	.L176:
 2461              		.align	2
 2462              	.L175:
 2463 03d4 28030000 		.word	.LC115
 2464 03d8 08022440 		.word	1076101640
 2465 03dc 38030000 		.word	.LC117
 2466 03e0 48030000 		.word	.LC119
 2467              		.cfi_endproc
 2468              	.LFE50:
 2469              		.size	UartBuadRate_Handler, .-UartBuadRate_Handler
 2470              		.section	.text.TxPower_Handler,"ax",%progbits
 2471              		.align	2
 2472              		.global	TxPower_Handler
 2473              		.code	16
 2474              		.thumb_func
 2475              		.type	TxPower_Handler, %function
 2476              	TxPower_Handler:
 2477              	.LFB51:
2228:.\BLEApplication.c **** /******************************************************************************
2229:.\BLEApplication.c **** * Function Name: TxPower_Handler
2230:.\BLEApplication.c **** ***************************************************************************//**
2231:.\BLEApplication.c **** * 
2232:.\BLEApplication.c **** *  ËÆæÁΩÆÂèëÂ∞ÑÂäüÁéáÊàñËÄÖÊü•ËØ¢ÂΩìÂâçÁöÑÂèëÂ∞ÑÂäüÁéá
ARM GAS  C:\Users\Helon\AppData\Local\Temp\ccys0XsA.s 			page 85


2233:.\BLEApplication.c **** * \param  idx:ËÆæÁΩÆÁöÑÂèëÂ∞ÑÂäüÁéáÂÄºÊàñÊü•ËØ¢ÂèëÂ∞ÑÂäüÁéáÁöÑÁä∂ÊÄÅ
2234:.\BLEApplication.c **** * \return none
2235:.\BLEApplication.c **** *  
2236:.\BLEApplication.c **** * 
2237:.\BLEApplication.c **** ******************************************************************************/
2238:.\BLEApplication.c **** void TxPower_Handler(uint8_t idx)
2239:.\BLEApplication.c **** {
 2478              		.loc 1 2239 0
 2479              		.cfi_startproc
 2480              	.LVL294:
 2481 0000 10B5     		push	{r4, lr}
 2482              		.cfi_def_cfa_offset 8
 2483              		.cfi_offset 4, -8
 2484              		.cfi_offset 14, -4
 2485 0002 82B0     		sub	sp, sp, #8
 2486              		.cfi_def_cfa_offset 16
 2487              	.LVL295:
2240:.\BLEApplication.c ****     CYBLE_BLESS_PWR_IN_DB_T bleSsPwrLvl;
2241:.\BLEApplication.c ****     CYBLE_API_RESULT_T API_RESULT=0;
2242:.\BLEApplication.c ****     if(CYBLE_STATE_ADVERTISING==CyBle_GetState())
 2488              		.loc 1 2242 0
 2489 0004 4D4B     		ldr	r3, .L202
 2490 0006 1B78     		ldrb	r3, [r3]
 2491 0008 032B     		cmp	r3, #3
 2492 000a 03D1     		bne	.L178
2243:.\BLEApplication.c ****     {
2244:.\BLEApplication.c ****         bleSsPwrLvl.bleSsChId=CYBLE_LL_ADV_CH_TYPE;
 2493              		.loc 1 2244 0
 2494 000c 0022     		mov	r2, #0
 2495 000e 01AB     		add	r3, sp, #4
 2496 0010 5A70     		strb	r2, [r3, #1]
 2497 0012 05E0     		b	.L179
 2498              	.L178:
2245:.\BLEApplication.c ****     }
2246:.\BLEApplication.c ****     else if(CYBLE_STATE_CONNECTED==CyBle_GetState())
 2499              		.loc 1 2246 0
 2500 0014 022B     		cmp	r3, #2
 2501 0016 00D0     		beq	.LCB2208
 2502 0018 8DE0     		b	.L177	@long jump
 2503              	.LCB2208:
2247:.\BLEApplication.c ****     {
2248:.\BLEApplication.c ****         bleSsPwrLvl.bleSsChId=CYBLE_LL_CONN_CH_TYPE;
 2504              		.loc 1 2248 0
 2505 001a 0122     		mov	r2, #1
 2506 001c 01AB     		add	r3, sp, #4
 2507 001e 5A70     		strb	r2, [r3, #1]
 2508              	.L179:
2249:.\BLEApplication.c ****     }
2250:.\BLEApplication.c ****     else//Â¶Ç‰Ωï‰∏çÊòØÂπøÊí≠ÊàñËÄÖËøûÊé•Áä∂ÊÄÅÂàôÊó†Êïà
2251:.\BLEApplication.c ****     {
2252:.\BLEApplication.c ****         return;
2253:.\BLEApplication.c ****     }
2254:.\BLEApplication.c ****     switch(idx)
 2509              		.loc 1 2254 0
 2510 0020 3138     		sub	r0, r0, #49
 2511              	.LVL296:
 2512 0022 C3B2     		uxtb	r3, r0
ARM GAS  C:\Users\Helon\AppData\Local\Temp\ccys0XsA.s 			page 86


 2513 0024 0E2B     		cmp	r3, #14
 2514 0026 00D9     		bls	.LCB2218
 2515 0028 85E0     		b	.L177	@long jump
 2516              	.LCB2218:
 2517 002a 9800     		lsl	r0, r3, #2
 2518 002c 444B     		ldr	r3, .L202+4
 2519 002e 1B58     		ldr	r3, [r3, r0]
 2520 0030 9F46     		mov	pc, r3
 2521              		.section	.rodata
 2522              		.align	2
 2523              	.L183:
 2524 0318 88000000 		.word	.L182
 2525 031c 9E000000 		.word	.L184
 2526 0320 B4000000 		.word	.L185
 2527 0324 CA000000 		.word	.L186
 2528 0328 E0000000 		.word	.L187
 2529 032c F6000000 		.word	.L188
 2530 0330 0C010000 		.word	.L189
 2531 0334 22010000 		.word	.L190
 2532 0338 36010000 		.word	.L177
 2533 033c 36010000 		.word	.L177
 2534 0340 36010000 		.word	.L177
 2535 0344 36010000 		.word	.L177
 2536 0348 36010000 		.word	.L177
 2537 034c 36010000 		.word	.L177
 2538 0350 32000000 		.word	.L191
 2539              		.section	.text.TxPower_Handler
 2540              	.L191:
2255:.\BLEApplication.c ****     {
2256:.\BLEApplication.c ****         case '?':                        
2257:.\BLEApplication.c ****             CyBle_GetTxPowerLevel(&bleSsPwrLvl);
 2541              		.loc 1 2257 0
 2542 0032 01AC     		add	r4, sp, #4
 2543 0034 201C     		mov	r0, r4
 2544 0036 FFF7FEFF 		bl	CyBle_GetTxPowerLevel
 2545              	.LVL297:
2258:.\BLEApplication.c ****             idx=bleSsPwrLvl.blePwrLevelInDbm;
 2546              		.loc 1 2258 0
 2547 003a 2378     		ldrb	r3, [r4]
 2548              	.LVL298:
2259:.\BLEApplication.c ****             switch(idx)
 2549              		.loc 1 2259 0
 2550 003c 082B     		cmp	r3, #8
 2551 003e 7AD8     		bhi	.L177
 2552 0040 9B00     		lsl	r3, r3, #2
 2553              	.LVL299:
 2554 0042 404A     		ldr	r2, .L202+8
 2555 0044 D358     		ldr	r3, [r2, r3]
 2556 0046 9F46     		mov	pc, r3
 2557              		.section	.rodata
 2558              		.align	2
 2559              	.L193:
 2560 0354 36010000 		.word	.L177
 2561 0358 48000000 		.word	.L192
 2562 035c 50000000 		.word	.L194
 2563 0360 58000000 		.word	.L195
 2564 0364 60000000 		.word	.L196
ARM GAS  C:\Users\Helon\AppData\Local\Temp\ccys0XsA.s 			page 87


 2565 0368 68000000 		.word	.L197
 2566 036c 70000000 		.word	.L198
 2567 0370 78000000 		.word	.L199
 2568 0374 80000000 		.word	.L200
 2569              		.section	.text.TxPower_Handler
 2570              	.L192:
2260:.\BLEApplication.c ****             {
2261:.\BLEApplication.c ****                 case 1:
2262:.\BLEApplication.c ****                     printf("+TXP:<-18dBm>\r\n");
 2571              		.loc 1 2262 0
 2572 0048 3F48     		ldr	r0, .L202+12
 2573 004a FFF7FEFF 		bl	puts
 2574              	.LVL300:
2263:.\BLEApplication.c ****                 break;
 2575              		.loc 1 2263 0
 2576 004e 72E0     		b	.L177
 2577              	.LVL301:
 2578              	.L194:
2264:.\BLEApplication.c ****                 case 2:
2265:.\BLEApplication.c ****                     printf("+TXP:<-12dBm>\r\n");
 2579              		.loc 1 2265 0
 2580 0050 3E48     		ldr	r0, .L202+16
 2581 0052 FFF7FEFF 		bl	puts
 2582              	.LVL302:
2266:.\BLEApplication.c ****                 break;
 2583              		.loc 1 2266 0
 2584 0056 6EE0     		b	.L177
 2585              	.LVL303:
 2586              	.L195:
2267:.\BLEApplication.c ****                 case 3:
2268:.\BLEApplication.c ****                     printf("+TXP:<-6dBm>\r\n");
 2587              		.loc 1 2268 0
 2588 0058 3D48     		ldr	r0, .L202+20
 2589 005a FFF7FEFF 		bl	puts
 2590              	.LVL304:
2269:.\BLEApplication.c ****                 break;
 2591              		.loc 1 2269 0
 2592 005e 6AE0     		b	.L177
 2593              	.LVL305:
 2594              	.L196:
2270:.\BLEApplication.c ****                 case 4:
2271:.\BLEApplication.c ****                     printf("+TXP:<-3dBm>\r\n");
 2595              		.loc 1 2271 0
 2596 0060 3C48     		ldr	r0, .L202+24
 2597 0062 FFF7FEFF 		bl	puts
 2598              	.LVL306:
2272:.\BLEApplication.c ****                 break;
 2599              		.loc 1 2272 0
 2600 0066 66E0     		b	.L177
 2601              	.LVL307:
 2602              	.L197:
2273:.\BLEApplication.c ****                 case 5:
2274:.\BLEApplication.c ****                     printf("+TXP:<-2dBm>\r\n");
 2603              		.loc 1 2274 0
 2604 0068 3B48     		ldr	r0, .L202+28
 2605 006a FFF7FEFF 		bl	puts
 2606              	.LVL308:
ARM GAS  C:\Users\Helon\AppData\Local\Temp\ccys0XsA.s 			page 88


2275:.\BLEApplication.c ****                 break;
 2607              		.loc 1 2275 0
 2608 006e 62E0     		b	.L177
 2609              	.LVL309:
 2610              	.L198:
2276:.\BLEApplication.c ****                 case 6:
2277:.\BLEApplication.c ****                     printf("+TXP:<-1dBm>\r\n");
 2611              		.loc 1 2277 0
 2612 0070 3A48     		ldr	r0, .L202+32
 2613 0072 FFF7FEFF 		bl	puts
 2614              	.LVL310:
2278:.\BLEApplication.c ****                 break;
 2615              		.loc 1 2278 0
 2616 0076 5EE0     		b	.L177
 2617              	.LVL311:
 2618              	.L199:
2279:.\BLEApplication.c ****                 case 7:
2280:.\BLEApplication.c ****                     printf("+TXP:<0dBm>\r\n");
 2619              		.loc 1 2280 0
 2620 0078 3948     		ldr	r0, .L202+36
 2621 007a FFF7FEFF 		bl	puts
 2622              	.LVL312:
2281:.\BLEApplication.c ****                 break;
 2623              		.loc 1 2281 0
 2624 007e 5AE0     		b	.L177
 2625              	.LVL313:
 2626              	.L200:
2282:.\BLEApplication.c ****                 case 8:
2283:.\BLEApplication.c ****                     printf("+TXP:<3dBm>\r\n");
 2627              		.loc 1 2283 0
 2628 0080 3848     		ldr	r0, .L202+40
 2629 0082 FFF7FEFF 		bl	puts
 2630              	.LVL314:
2284:.\BLEApplication.c ****                 break;
 2631              		.loc 1 2284 0
 2632 0086 56E0     		b	.L177
 2633              	.LVL315:
 2634              	.L182:
2285:.\BLEApplication.c ****             }
2286:.\BLEApplication.c ****             
2287:.\BLEApplication.c ****         break;
2288:.\BLEApplication.c ****         case '1':
2289:.\BLEApplication.c ****             bleSsPwrLvl.blePwrLevelInDbm=CYBLE_LL_PWR_LVL_NEG_18_DBM;
 2635              		.loc 1 2289 0
 2636 0088 01A8     		add	r0, sp, #4
 2637 008a 0123     		mov	r3, #1
 2638 008c 0370     		strb	r3, [r0]
2290:.\BLEApplication.c ****             API_RESULT=CyBle_SetTxPowerLevel(&bleSsPwrLvl);
 2639              		.loc 1 2290 0
 2640 008e FFF7FEFF 		bl	CyBle_SetTxPowerLevel
 2641              	.LVL316:
2291:.\BLEApplication.c ****             if(CYBLE_ERROR_OK==API_RESULT)
 2642              		.loc 1 2291 0
 2643 0092 0028     		cmp	r0, #0
 2644 0094 4FD1     		bne	.L177
2292:.\BLEApplication.c ****             {     
2293:.\BLEApplication.c ****                 printf("AT+OK\r\n");
ARM GAS  C:\Users\Helon\AppData\Local\Temp\ccys0XsA.s 			page 89


 2645              		.loc 1 2293 0
 2646 0096 3448     		ldr	r0, .L202+44
 2647              	.LVL317:
 2648 0098 FFF7FEFF 		bl	puts
 2649              	.LVL318:
 2650 009c 4BE0     		b	.L177
 2651              	.LVL319:
 2652              	.L184:
2294:.\BLEApplication.c **** //                printf("AT+TXP=<-18dBm>\r\n");
2295:.\BLEApplication.c **** //                printf("OK\r\n");
2296:.\BLEApplication.c ****             }            
2297:.\BLEApplication.c ****         break;
2298:.\BLEApplication.c ****         case '2':
2299:.\BLEApplication.c ****             bleSsPwrLvl.blePwrLevelInDbm=CYBLE_LL_PWR_LVL_NEG_12_DBM;
 2653              		.loc 1 2299 0
 2654 009e 01A8     		add	r0, sp, #4
 2655 00a0 0223     		mov	r3, #2
 2656 00a2 0370     		strb	r3, [r0]
2300:.\BLEApplication.c ****             API_RESULT=CyBle_SetTxPowerLevel(&bleSsPwrLvl);
 2657              		.loc 1 2300 0
 2658 00a4 FFF7FEFF 		bl	CyBle_SetTxPowerLevel
 2659              	.LVL320:
2301:.\BLEApplication.c ****             if(CYBLE_ERROR_OK==API_RESULT)
 2660              		.loc 1 2301 0
 2661 00a8 0028     		cmp	r0, #0
 2662 00aa 44D1     		bne	.L177
2302:.\BLEApplication.c ****             {     
2303:.\BLEApplication.c ****                 printf("AT+OK\r\n");
 2663              		.loc 1 2303 0
 2664 00ac 2E48     		ldr	r0, .L202+44
 2665              	.LVL321:
 2666 00ae FFF7FEFF 		bl	puts
 2667              	.LVL322:
 2668 00b2 40E0     		b	.L177
 2669              	.LVL323:
 2670              	.L185:
2304:.\BLEApplication.c **** //                printf("AT+TXP=<-12dBm>\r\n");
2305:.\BLEApplication.c **** //                printf("OK\r\n");
2306:.\BLEApplication.c ****             }            
2307:.\BLEApplication.c ****         break;
2308:.\BLEApplication.c ****         case '3':
2309:.\BLEApplication.c ****             bleSsPwrLvl.blePwrLevelInDbm=CYBLE_LL_PWR_LVL_NEG_6_DBM;
 2671              		.loc 1 2309 0
 2672 00b4 01A8     		add	r0, sp, #4
 2673 00b6 0323     		mov	r3, #3
 2674 00b8 0370     		strb	r3, [r0]
2310:.\BLEApplication.c ****             API_RESULT=CyBle_SetTxPowerLevel(&bleSsPwrLvl);
 2675              		.loc 1 2310 0
 2676 00ba FFF7FEFF 		bl	CyBle_SetTxPowerLevel
 2677              	.LVL324:
2311:.\BLEApplication.c ****             if(CYBLE_ERROR_OK==API_RESULT)
 2678              		.loc 1 2311 0
 2679 00be 0028     		cmp	r0, #0
 2680 00c0 39D1     		bne	.L177
2312:.\BLEApplication.c ****             {     
2313:.\BLEApplication.c ****                 printf("AT+OK\r\n");
 2681              		.loc 1 2313 0
ARM GAS  C:\Users\Helon\AppData\Local\Temp\ccys0XsA.s 			page 90


 2682 00c2 2948     		ldr	r0, .L202+44
 2683              	.LVL325:
 2684 00c4 FFF7FEFF 		bl	puts
 2685              	.LVL326:
 2686 00c8 35E0     		b	.L177
 2687              	.LVL327:
 2688              	.L186:
2314:.\BLEApplication.c **** //                printf("AT+TXP=<-6dBm>\r\n");
2315:.\BLEApplication.c **** //                printf("OK\r\n");
2316:.\BLEApplication.c ****             }            
2317:.\BLEApplication.c ****         break;
2318:.\BLEApplication.c ****         case '4':
2319:.\BLEApplication.c ****             bleSsPwrLvl.blePwrLevelInDbm=CYBLE_LL_PWR_LVL_NEG_3_DBM;
 2689              		.loc 1 2319 0
 2690 00ca 01A8     		add	r0, sp, #4
 2691 00cc 0423     		mov	r3, #4
 2692 00ce 0370     		strb	r3, [r0]
2320:.\BLEApplication.c ****             API_RESULT=CyBle_SetTxPowerLevel(&bleSsPwrLvl);
 2693              		.loc 1 2320 0
 2694 00d0 FFF7FEFF 		bl	CyBle_SetTxPowerLevel
 2695              	.LVL328:
2321:.\BLEApplication.c ****             if(CYBLE_ERROR_OK==API_RESULT)
 2696              		.loc 1 2321 0
 2697 00d4 0028     		cmp	r0, #0
 2698 00d6 2ED1     		bne	.L177
2322:.\BLEApplication.c ****             {    
2323:.\BLEApplication.c ****                 printf("AT+OK\r\n");
 2699              		.loc 1 2323 0
 2700 00d8 2348     		ldr	r0, .L202+44
 2701              	.LVL329:
 2702 00da FFF7FEFF 		bl	puts
 2703              	.LVL330:
 2704 00de 2AE0     		b	.L177
 2705              	.LVL331:
 2706              	.L187:
2324:.\BLEApplication.c **** //                printf("AT+TXP=<-3dBm>\r\n");
2325:.\BLEApplication.c **** //                printf("OK\r\n");
2326:.\BLEApplication.c ****             }            
2327:.\BLEApplication.c ****         break;
2328:.\BLEApplication.c ****         case '5':
2329:.\BLEApplication.c ****             bleSsPwrLvl.blePwrLevelInDbm=CYBLE_LL_PWR_LVL_NEG_2_DBM;
 2707              		.loc 1 2329 0
 2708 00e0 01A8     		add	r0, sp, #4
 2709 00e2 0523     		mov	r3, #5
 2710 00e4 0370     		strb	r3, [r0]
2330:.\BLEApplication.c ****             API_RESULT=CyBle_SetTxPowerLevel(&bleSsPwrLvl);
 2711              		.loc 1 2330 0
 2712 00e6 FFF7FEFF 		bl	CyBle_SetTxPowerLevel
 2713              	.LVL332:
2331:.\BLEApplication.c ****             if(CYBLE_ERROR_OK==API_RESULT)
 2714              		.loc 1 2331 0
 2715 00ea 0028     		cmp	r0, #0
 2716 00ec 23D1     		bne	.L177
2332:.\BLEApplication.c ****             {     
2333:.\BLEApplication.c ****                 printf("AT+OK\r\n");
 2717              		.loc 1 2333 0
 2718 00ee 1E48     		ldr	r0, .L202+44
ARM GAS  C:\Users\Helon\AppData\Local\Temp\ccys0XsA.s 			page 91


 2719              	.LVL333:
 2720 00f0 FFF7FEFF 		bl	puts
 2721              	.LVL334:
 2722 00f4 1FE0     		b	.L177
 2723              	.LVL335:
 2724              	.L188:
2334:.\BLEApplication.c **** //                printf("AT+TXP=<-2dBm>\r\n");
2335:.\BLEApplication.c **** //                printf("OK\r\n");
2336:.\BLEApplication.c ****             }           
2337:.\BLEApplication.c ****         break;
2338:.\BLEApplication.c ****         case '6':
2339:.\BLEApplication.c ****             bleSsPwrLvl.blePwrLevelInDbm=CYBLE_LL_PWR_LVL_NEG_1_DBM;
 2725              		.loc 1 2339 0
 2726 00f6 01A8     		add	r0, sp, #4
 2727 00f8 0623     		mov	r3, #6
 2728 00fa 0370     		strb	r3, [r0]
2340:.\BLEApplication.c ****             API_RESULT=CyBle_SetTxPowerLevel(&bleSsPwrLvl);
 2729              		.loc 1 2340 0
 2730 00fc FFF7FEFF 		bl	CyBle_SetTxPowerLevel
 2731              	.LVL336:
2341:.\BLEApplication.c ****             if(CYBLE_ERROR_OK==API_RESULT)
 2732              		.loc 1 2341 0
 2733 0100 0028     		cmp	r0, #0
 2734 0102 18D1     		bne	.L177
2342:.\BLEApplication.c ****             {    
2343:.\BLEApplication.c ****                 printf("AT+OK\r\n");
 2735              		.loc 1 2343 0
 2736 0104 1848     		ldr	r0, .L202+44
 2737              	.LVL337:
 2738 0106 FFF7FEFF 		bl	puts
 2739              	.LVL338:
 2740 010a 14E0     		b	.L177
 2741              	.LVL339:
 2742              	.L189:
2344:.\BLEApplication.c **** //                printf("AT+TXP=<-1dBm>\r\n");
2345:.\BLEApplication.c **** //                printf("OK\r\n");
2346:.\BLEApplication.c ****             }            
2347:.\BLEApplication.c ****         break;
2348:.\BLEApplication.c ****         case '7':
2349:.\BLEApplication.c ****             bleSsPwrLvl.blePwrLevelInDbm=CYBLE_LL_PWR_LVL_0_DBM;
 2743              		.loc 1 2349 0
 2744 010c 01A8     		add	r0, sp, #4
 2745 010e 0723     		mov	r3, #7
 2746 0110 0370     		strb	r3, [r0]
2350:.\BLEApplication.c ****             API_RESULT=CyBle_SetTxPowerLevel(&bleSsPwrLvl);
 2747              		.loc 1 2350 0
 2748 0112 FFF7FEFF 		bl	CyBle_SetTxPowerLevel
 2749              	.LVL340:
2351:.\BLEApplication.c ****             if(CYBLE_ERROR_OK==API_RESULT)
 2750              		.loc 1 2351 0
 2751 0116 0028     		cmp	r0, #0
 2752 0118 0DD1     		bne	.L177
2352:.\BLEApplication.c ****             {   
2353:.\BLEApplication.c ****                 printf("AT+OK\r\n");
 2753              		.loc 1 2353 0
 2754 011a 1348     		ldr	r0, .L202+44
 2755              	.LVL341:
ARM GAS  C:\Users\Helon\AppData\Local\Temp\ccys0XsA.s 			page 92


 2756 011c FFF7FEFF 		bl	puts
 2757              	.LVL342:
 2758 0120 09E0     		b	.L177
 2759              	.LVL343:
 2760              	.L190:
2354:.\BLEApplication.c **** //                printf("AT+TXP=<0dBm>\r\n");
2355:.\BLEApplication.c **** //                printf("OK\r\n");
2356:.\BLEApplication.c ****             }      
2357:.\BLEApplication.c ****         break;
2358:.\BLEApplication.c ****         case '8':
2359:.\BLEApplication.c ****             bleSsPwrLvl.blePwrLevelInDbm=CYBLE_LL_PWR_LVL_3_DBM;
 2761              		.loc 1 2359 0
 2762 0122 01A8     		add	r0, sp, #4
 2763 0124 0823     		mov	r3, #8
 2764 0126 0370     		strb	r3, [r0]
2360:.\BLEApplication.c ****             API_RESULT=CyBle_SetTxPowerLevel(&bleSsPwrLvl);
 2765              		.loc 1 2360 0
 2766 0128 FFF7FEFF 		bl	CyBle_SetTxPowerLevel
 2767              	.LVL344:
2361:.\BLEApplication.c ****             if(CYBLE_ERROR_OK==API_RESULT)
 2768              		.loc 1 2361 0
 2769 012c 0028     		cmp	r0, #0
 2770 012e 02D1     		bne	.L177
2362:.\BLEApplication.c ****             {     
2363:.\BLEApplication.c ****                 printf("AT+OK\r\n");
 2771              		.loc 1 2363 0
 2772 0130 0D48     		ldr	r0, .L202+44
 2773              	.LVL345:
 2774 0132 FFF7FEFF 		bl	puts
 2775              	.LVL346:
 2776              	.L177:
2364:.\BLEApplication.c **** //                printf("AT+TXP=<3dBm>\r\n");
2365:.\BLEApplication.c **** //                printf("OK\r\n");
2366:.\BLEApplication.c ****             }           
2367:.\BLEApplication.c ****         break;
2368:.\BLEApplication.c ****     }    
2369:.\BLEApplication.c **** }
 2777              		.loc 1 2369 0
 2778 0136 02B0     		add	sp, sp, #8
 2779              		@ sp needed
 2780 0138 10BD     		pop	{r4, pc}
 2781              	.L203:
 2782 013a C046     		.align	2
 2783              	.L202:
 2784 013c 00000000 		.word	cyBle_state
 2785 0140 18030000 		.word	.L183
 2786 0144 54030000 		.word	.L193
 2787 0148 58030000 		.word	.LC124
 2788 014c 68030000 		.word	.LC126
 2789 0150 78030000 		.word	.LC128
 2790 0154 88030000 		.word	.LC130
 2791 0158 98030000 		.word	.LC132
 2792 015c A8030000 		.word	.LC134
 2793 0160 B8030000 		.word	.LC136
 2794 0164 C8030000 		.word	.LC138
 2795 0168 8C010000 		.word	.LC63
 2796              		.cfi_endproc
ARM GAS  C:\Users\Helon\AppData\Local\Temp\ccys0XsA.s 			page 93


 2797              	.LFE51:
 2798              		.size	TxPower_Handler, .-TxPower_Handler
 2799              		.section	.text.StrToHex,"ax",%progbits
 2800              		.align	2
 2801              		.global	StrToHex
 2802              		.code	16
 2803              		.thumb_func
 2804              		.type	StrToHex, %function
 2805              	StrToHex:
 2806              	.LFB52:
2370:.\BLEApplication.c **** /******************************************************************************
2371:.\BLEApplication.c **** * Function Name: StrToHex
2372:.\BLEApplication.c **** ***************************************************************************//**
2373:.\BLEApplication.c **** * 
2374:.\BLEApplication.c **** *  Â≠óÁ¨¶‰∏≤ËΩ¨ÂçÅÂÖ≠ËøõÂà∂
2375:.\BLEApplication.c **** * \param  pbDest:ËæìÂá∫ÁºìÂÜ≤Âå∫
2376:.\BLEApplication.c **** * \param  pbSrc :ËæìÂÖ•ÁöÑÂ≠óÁ¨¶‰∏≤
2377:.\BLEApplication.c **** * \param  nLen :ËæìÂÖ•ÁöÑÂ≠óÁ¨¶‰∏≤16ËøõÂà∂Êï∞ÁöÑÂ≠óËäÇÊï∞(Â≠óÁ¨¶‰∏≤ÁöÑÈïøÂ∫¶/2)
2378:.\BLEApplication.c **** * \return none
2379:.\BLEApplication.c **** *  
2380:.\BLEApplication.c **** * 
2381:.\BLEApplication.c **** ******************************************************************************/
2382:.\BLEApplication.c **** void StrToHex(char *pbDest, char *pbSrc, int nLen)
2383:.\BLEApplication.c **** {
 2807              		.loc 1 2383 0
 2808              		.cfi_startproc
 2809              	.LVL347:
 2810 0000 F0B5     		push	{r4, r5, r6, r7, lr}
 2811              		.cfi_def_cfa_offset 20
 2812              		.cfi_offset 4, -20
 2813              		.cfi_offset 5, -16
 2814              		.cfi_offset 6, -12
 2815              		.cfi_offset 7, -8
 2816              		.cfi_offset 14, -4
 2817 0002 4746     		mov	r7, r8
 2818 0004 80B4     		push	{r7}
 2819              		.cfi_def_cfa_offset 24
 2820              		.cfi_offset 8, -24
 2821 0006 8046     		mov	r8, r0
 2822              	.LVL348:
2384:.\BLEApplication.c ****     unsigned char h1,h2;
2385:.\BLEApplication.c ****     unsigned char s1,s2;
2386:.\BLEApplication.c ****     int i;
2387:.\BLEApplication.c **** 
2388:.\BLEApplication.c ****     for (i=0; i<nLen; i++)
 2823              		.loc 1 2388 0
 2824 0008 0026     		mov	r6, #0
 2825 000a 29E0     		b	.L205
 2826              	.LVL349:
 2827              	.L212:
2389:.\BLEApplication.c ****     {
2390:.\BLEApplication.c ****     h1 = pbSrc[2*i];
 2828              		.loc 1 2390 0
 2829 000c 7400     		lsl	r4, r6, #1
 2830 000e 0B5D     		ldrb	r3, [r1, r4]
 2831              	.LVL350:
2391:.\BLEApplication.c ****     h2 = pbSrc[2*i+1];
ARM GAS  C:\Users\Helon\AppData\Local\Temp\ccys0XsA.s 			page 94


 2832              		.loc 1 2391 0
 2833 0010 0134     		add	r4, r4, #1
 2834 0012 0C5D     		ldrb	r4, [r1, r4]
 2835              	.LVL351:
 2836              	.LBB2:
2392:.\BLEApplication.c **** 
2393:.\BLEApplication.c ****     s1 = toupper(h1) - 0x30;
 2837              		.loc 1 2393 0
 2838 0014 154D     		ldr	r5, .L213
 2839 0016 2F68     		ldr	r7, [r5]
 2840 0018 FD18     		add	r5, r7, r3
 2841 001a 6D78     		ldrb	r5, [r5, #1]
 2842 001c 0320     		mov	r0, #3
 2843 001e 0540     		and	r5, r0
 2844 0020 022D     		cmp	r5, #2
 2845 0022 00D1     		bne	.L207
 2846              		.loc 1 2393 0 is_stmt 0 discriminator 1
 2847 0024 203B     		sub	r3, r3, #32
 2848              	.LVL352:
 2849              	.L207:
 2850              	.LBE2:
 2851              		.loc 1 2393 0 discriminator 4
 2852 0026 DDB2     		uxtb	r5, r3
 2853 0028 2B1C     		mov	r3, r5
 2854 002a 303B     		sub	r3, r3, #48
 2855 002c DBB2     		uxtb	r3, r3
 2856              	.LVL353:
2394:.\BLEApplication.c ****     if (s1 > 9) 
 2857              		.loc 1 2394 0 is_stmt 1 discriminator 4
 2858 002e 092B     		cmp	r3, #9
 2859 0030 02D9     		bls	.L208
2395:.\BLEApplication.c ****     s1 -= 7;
 2860              		.loc 1 2395 0
 2861 0032 2B1C     		mov	r3, r5
 2862              	.LVL354:
 2863 0034 373B     		sub	r3, r3, #55
 2864              	.LVL355:
 2865 0036 DBB2     		uxtb	r3, r3
 2866              	.LVL356:
 2867              	.L208:
 2868              	.LBB3:
2396:.\BLEApplication.c **** 
2397:.\BLEApplication.c ****     s2 = toupper(h2) - 0x30;
 2869              		.loc 1 2397 0
 2870 0038 3F19     		add	r7, r7, r4
 2871 003a 7D78     		ldrb	r5, [r7, #1]
 2872 003c 0327     		mov	r7, #3
 2873 003e 3D40     		and	r5, r7
 2874 0040 022D     		cmp	r5, #2
 2875 0042 00D1     		bne	.L210
 2876              		.loc 1 2397 0 is_stmt 0 discriminator 1
 2877 0044 203C     		sub	r4, r4, #32
 2878              	.LVL357:
 2879              	.L210:
 2880              	.LBE3:
 2881              		.loc 1 2397 0 discriminator 4
 2882 0046 E4B2     		uxtb	r4, r4
ARM GAS  C:\Users\Helon\AppData\Local\Temp\ccys0XsA.s 			page 95


 2883 0048 251C     		mov	r5, r4
 2884 004a 303D     		sub	r5, r5, #48
 2885 004c EDB2     		uxtb	r5, r5
 2886              	.LVL358:
2398:.\BLEApplication.c ****     if (s2 > 9) 
 2887              		.loc 1 2398 0 is_stmt 1 discriminator 4
 2888 004e 092D     		cmp	r5, #9
 2889 0050 01D9     		bls	.L211
2399:.\BLEApplication.c ****     s2 -= 7;
 2890              		.loc 1 2399 0
 2891 0052 373C     		sub	r4, r4, #55
 2892 0054 E5B2     		uxtb	r5, r4
 2893              	.LVL359:
 2894              	.L211:
2400:.\BLEApplication.c **** 
2401:.\BLEApplication.c ****     pbDest[i] = s1*16 + s2;
 2895              		.loc 1 2401 0 discriminator 2
 2896 0056 1B01     		lsl	r3, r3, #4
 2897              	.LVL360:
 2898 0058 EC18     		add	r4, r5, r3
 2899 005a 4346     		mov	r3, r8
 2900 005c 9C55     		strb	r4, [r3, r6]
 2901              	.LVL361:
2388:.\BLEApplication.c ****     {
 2902              		.loc 1 2388 0 discriminator 2
 2903 005e 0136     		add	r6, r6, #1
 2904              	.LVL362:
 2905              	.L205:
2388:.\BLEApplication.c ****     {
 2906              		.loc 1 2388 0 is_stmt 0 discriminator 1
 2907 0060 9642     		cmp	r6, r2
 2908 0062 D3DB     		blt	.L212
2402:.\BLEApplication.c ****     }
2403:.\BLEApplication.c **** }
 2909              		.loc 1 2403 0 is_stmt 1
 2910              		@ sp needed
 2911              	.LVL363:
 2912              	.LVL364:
 2913 0064 04BC     		pop	{r2}
 2914 0066 9046     		mov	r8, r2
 2915 0068 F0BD     		pop	{r4, r5, r6, r7, pc}
 2916              	.L214:
 2917 006a C046     		.align	2
 2918              	.L213:
 2919 006c 00000000 		.word	__ctype_ptr__
 2920              		.cfi_endproc
 2921              	.LFE52:
 2922              		.size	StrToHex, .-StrToHex
 2923              		.global	__aeabi_i2d
 2924              		.global	__aeabi_dmul
 2925              		.global	__aeabi_d2iz
 2926              		.section	.text.Parser_UartData,"ax",%progbits
 2927              		.align	2
 2928              		.global	Parser_UartData
 2929              		.code	16
 2930              		.thumb_func
 2931              		.type	Parser_UartData, %function
ARM GAS  C:\Users\Helon\AppData\Local\Temp\ccys0XsA.s 			page 96


 2932              	Parser_UartData:
 2933              	.LFB43:
 687:.\BLEApplication.c ****     if(NULL==SerialData)
 2934              		.loc 1 687 0
 2935              		.cfi_startproc
 2936              	.LVL365:
 2937 0000 F0B5     		push	{r4, r5, r6, r7, lr}
 2938              		.cfi_def_cfa_offset 20
 2939              		.cfi_offset 4, -20
 2940              		.cfi_offset 5, -16
 2941              		.cfi_offset 6, -12
 2942              		.cfi_offset 7, -8
 2943              		.cfi_offset 14, -4
 2944 0002 4746     		mov	r7, r8
 2945 0004 80B4     		push	{r7}
 2946              		.cfi_def_cfa_offset 24
 2947              		.cfi_offset 8, -24
 2948 0006 B2B0     		sub	sp, sp, #200
 2949              		.cfi_def_cfa_offset 224
 688:.\BLEApplication.c ****         return;
 2950              		.loc 1 688 0
 2951 0008 0028     		cmp	r0, #0
 2952 000a 01D1     		bne	.LCB2653
 2953 000c 00F0B6FC 		bl	.L215	@far jump
 2954              	.LCB2653:
 2955 0010 051C     		mov	r5, r0
 2956              	.LVL366:
 693:.\BLEApplication.c ****     char AdvData[31]={0};
 2957              		.loc 1 693 0
 2958 0012 2BAB     		add	r3, sp, #172
 2959 0014 0024     		mov	r4, #0
 2960 0016 2B94     		str	r4, [sp, #172]
 2961 0018 2C94     		str	r4, [sp, #176]
 2962 001a 2D94     		str	r4, [sp, #180]
 2963 001c 2E94     		str	r4, [sp, #184]
 2964 001e 2F94     		str	r4, [sp, #188]
 2965 0020 3094     		str	r4, [sp, #192]
 2966 0022 0026     		mov	r6, #0
 2967 0024 1C83     		strh	r4, [r3, #24]
 2968 0026 9E76     		strb	r6, [r3, #26]
 694:.\BLEApplication.c ****     char StrAdvData[62]={0};
 2969              		.loc 1 694 0
 2970 0028 23AB     		add	r3, sp, #140
 2971 002a 2394     		str	r4, [sp, #140]
 2972 002c 2494     		str	r4, [sp, #144]
 2973 002e 2594     		str	r4, [sp, #148]
 2974 0030 2694     		str	r4, [sp, #152]
 2975 0032 2794     		str	r4, [sp, #156]
 2976 0034 2894     		str	r4, [sp, #160]
 2977 0036 2994     		str	r4, [sp, #164]
 2978 0038 9C83     		strh	r4, [r3, #28]
 2979 003a 9E77     		strb	r6, [r3, #30]
 695:.\BLEApplication.c ****     char StrAdvDataLength[2]={0};
 2980              		.loc 1 695 0
 2981 003c 13A8     		add	r0, sp, #76
 2982              	.LVL367:
 2983 003e 0021     		mov	r1, #0
ARM GAS  C:\Users\Helon\AppData\Local\Temp\ccys0XsA.s 			page 97


 2984 0040 3E22     		mov	r2, #62
 2985 0042 FFF7FEFF 		bl	memset
 2986              	.LVL368:
 696:.\BLEApplication.c ****     char AdvDataLength=0;
 2987              		.loc 1 696 0
 2988 0046 12AB     		add	r3, sp, #72
 2989 0048 1C80     		strh	r4, [r3]
 697:.\BLEApplication.c ****     char AdvParamArray[2]={0};
 2990              		.loc 1 697 0
 2991 004a 4723     		mov	r3, #71
 2992 004c 6B44     		add	r3, r3, sp
 2993 004e 1E70     		strb	r6, [r3]
 698:.\BLEApplication.c ****     char AdvParam=0;
 2994              		.loc 1 698 0
 2995 0050 11AB     		add	r3, sp, #68
 2996 0052 1C80     		strh	r4, [r3]
 699:.\BLEApplication.c ****     uint32 WriteDataToFlash=0;
 2997              		.loc 1 699 0
 2998 0054 4323     		mov	r3, #67
 2999 0056 6B44     		add	r3, r3, sp
 3000 0058 1E70     		strb	r6, [r3]
 700:.\BLEApplication.c ****     volatile uint8_t test=0;
 3001              		.loc 1 700 0
 3002 005a 0F94     		str	r4, [sp, #60]
 701:.\BLEApplication.c **** //    double connintv=0;
 3003              		.loc 1 701 0
 3004 005c 3B23     		mov	r3, #59
 3005 005e 6B44     		add	r3, r3, sp
 3006 0060 1E70     		strb	r6, [r3]
 3007              	.LVL369:
 710:.\BLEApplication.c ****     switch(At_Command_Idex)
 3008              		.loc 1 710 0
 3009 0062 281C     		mov	r0, r5
 3010 0064 FFF7FEFF 		bl	Command_Identify
 3011              	.LVL370:
 711:.\BLEApplication.c ****     {
 3012              		.loc 1 711 0
 3013 0068 1928     		cmp	r0, #25
 3014 006a 01D9     		bls	.LCB2707
 3015 006c 00F083FC 		bl	.L217	@far jump
 3016              	.LCB2707:
 3017 0070 8000     		lsl	r0, r0, #2
 3018              	.LVL371:
 3019 0072 C54B     		ldr	r3, .L339
 3020 0074 1B58     		ldr	r3, [r3, r0]
 3021 0076 9F46     		mov	pc, r3
 3022              		.section	.rodata
 3023              		.align	2
 3024              	.L219:
 3025 0378 82000000 		.word	.L218
 3026 037c 7C090000 		.word	.L215
 3027 0380 A8000000 		.word	.L221
 3028 0384 7C090000 		.word	.L215
 3029 0388 C2000000 		.word	.L222
 3030 038c EC000000 		.word	.L223
 3031 0390 7C090000 		.word	.L215
 3032 0394 8E010000 		.word	.L224
ARM GAS  C:\Users\Helon\AppData\Local\Temp\ccys0XsA.s 			page 98


 3033 0398 A6010000 		.word	.L225
 3034 039c 7C020000 		.word	.L226
 3035 03a0 5A030000 		.word	.L227
 3036 03a4 42040000 		.word	.L228
 3037 03a8 10050000 		.word	.L229
 3038 03ac CA050000 		.word	.L230
 3039 03b0 E2050000 		.word	.L231
 3040 03b4 7C090000 		.word	.L215
 3041 03b8 7C090000 		.word	.L215
 3042 03bc 5E060000 		.word	.L232
 3043 03c0 E8040000 		.word	.L233
 3044 03c4 78000000 		.word	.L234
 3045 03c8 84060000 		.word	.L235
 3046 03cc 9C060000 		.word	.L236
 3047 03d0 72070000 		.word	.L237
 3048 03d4 C4070000 		.word	.L238
 3049 03d8 26090000 		.word	.L239
 3050 03dc 1E080000 		.word	.L240
 3051              		.section	.text.Parser_UartData
 3052              	.L234:
 716:.\BLEApplication.c ****         break;
 3053              		.loc 1 716 0
 3054 0078 C448     		ldr	r0, .L339+4
 3055 007a FFF7FEFF 		bl	puts
 3056              	.LVL372:
 717:.\BLEApplication.c **** //        ËΩØÂ§ç‰Ωç----‰∏ª‰ªéÊúâÊïà
 3057              		.loc 1 717 0
 3058 007e 00F07DFC 		bl	.L215	@ far jump
 3059              	.L218:
 720:.\BLEApplication.c **** //            printf("AT+RESET=1\r\n");
 3060              		.loc 1 720 0
 3061 0082 C248     		ldr	r0, .L339+4
 3062 0084 FFF7FEFF 		bl	puts
 3063              	.LVL373:
 3064              	.L242:
 723:.\BLEApplication.c ****             CySoftwareReset();
 3065              		.loc 1 723 0 discriminator 5
 3066 0088 FFF7FEFF 		bl	UART_SpiUartGetTxBufferSize
 3067              	.LVL374:
 3068 008c C04B     		ldr	r3, .L339+8
 3069 008e 1B68     		ldr	r3, [r3]
 3070 0090 8022     		mov	r2, #128
 3071 0092 1202     		lsl	r2, r2, #8
 3072 0094 1340     		and	r3, r2
 3073 0096 00D0     		beq	.L241
 723:.\BLEApplication.c ****             CySoftwareReset();
 3074              		.loc 1 723 0 is_stmt 0
 3075 0098 0123     		mov	r3, #1
 3076              	.L241:
 723:.\BLEApplication.c ****             CySoftwareReset();
 3077              		.loc 1 723 0 discriminator 4
 3078 009a C318     		add	r3, r0, r3
 3079 009c 002B     		cmp	r3, #0
 3080 009e F3D1     		bne	.L242
 724:.\BLEApplication.c ****         break;
 3081              		.loc 1 724 0 is_stmt 1
 3082 00a0 FFF7FEFF 		bl	CySoftwareReset
ARM GAS  C:\Users\Helon\AppData\Local\Temp\ccys0XsA.s 			page 99


 3083              	.LVL375:
 725:.\BLEApplication.c ****         case REFAC:
 3084              		.loc 1 725 0
 3085 00a4 00F06AFC 		bl	.L215	@ far jump
 3086              	.L221:
 730:.\BLEApplication.c ****                 printf("+VERSION=Ver1.4\r\n");
 3087              		.loc 1 730 0
 3088 00a8 EB7A     		ldrb	r3, [r5, #11]
 3089 00aa 3F2B     		cmp	r3, #63
 3090 00ac 04D1     		bne	.L243
 731:.\BLEApplication.c ****             else
 3091              		.loc 1 731 0
 3092 00ae B948     		ldr	r0, .L339+12
 3093 00b0 FFF7FEFF 		bl	puts
 3094              	.LVL376:
 3095 00b4 00F062FC 		bl	.L215	@ far jump
 3096              	.L243:
 734:.\BLEApplication.c ****             }
 3097              		.loc 1 734 0
 3098 00b8 B748     		ldr	r0, .L339+16
 3099 00ba FFF7FEFF 		bl	puts
 3100              	.LVL377:
 3101 00be 00F05DFC 		bl	.L215	@ far jump
 3102              	.L222:
 744:.\BLEApplication.c ****             if('?'==idx)
 3103              		.loc 1 744 0
 3104 00c2 6B7A     		ldrb	r3, [r5, #9]
 3105              	.LVL378:
 745:.\BLEApplication.c ****                 CyBle_GetDeviceAddress(&DeviceAddr);
 3106              		.loc 1 745 0
 3107 00c4 3F2B     		cmp	r3, #63
 3108 00c6 02D1     		bne	.L244
 746:.\BLEApplication.c ****                 printf("+LADDR:<0x%02X%02X%02X%02X%02X%02X>\r\n",                  
 3109              		.loc 1 746 0
 3110 00c8 B448     		ldr	r0, .L339+20
 3111 00ca FFF7FEFF 		bl	CyBle_GetDeviceAddress
 3112              	.LVL379:
 3113              	.L244:
 748:.\BLEApplication.c ****                     DeviceAddr.bdAddr[4],
 3114              		.loc 1 748 0
 3115 00ce B348     		ldr	r0, .L339+20
 3116 00d0 4179     		ldrb	r1, [r0, #5]
 749:.\BLEApplication.c ****                     DeviceAddr.bdAddr[3],
 3117              		.loc 1 749 0
 3118 00d2 0279     		ldrb	r2, [r0, #4]
 750:.\BLEApplication.c ****                     DeviceAddr.bdAddr[2],
 3119              		.loc 1 750 0
 3120 00d4 C378     		ldrb	r3, [r0, #3]
 751:.\BLEApplication.c ****                     DeviceAddr.bdAddr[1],
 3121              		.loc 1 751 0
 3122 00d6 8578     		ldrb	r5, [r0, #2]
 3123              	.LVL380:
 752:.\BLEApplication.c ****                     DeviceAddr.bdAddr[0]                             
 3124              		.loc 1 752 0
 3125 00d8 4478     		ldrb	r4, [r0, #1]
 753:.\BLEApplication.c ****                   );
 3126              		.loc 1 753 0
ARM GAS  C:\Users\Helon\AppData\Local\Temp\ccys0XsA.s 			page 100


 3127 00da 0078     		ldrb	r0, [r0]
 747:.\BLEApplication.c ****                     DeviceAddr.bdAddr[5],
 3128              		.loc 1 747 0
 3129 00dc 0095     		str	r5, [sp]
 3130 00de 0194     		str	r4, [sp, #4]
 3131 00e0 0290     		str	r0, [sp, #8]
 3132 00e2 AF48     		ldr	r0, .L339+24
 3133 00e4 FFF7FEFF 		bl	printf
 3134              	.LVL381:
 755:.\BLEApplication.c **** //                ËÆæÂ§áÂêçÊü•ËØ¢Âèä‰øÆÊîπ---‰ªéÊú∫ÊúâÊïà
 3135              		.loc 1 755 0
 3136 00e8 00F048FC 		bl	.L215	@ far jump
 3137              	.LVL382:
 3138              	.L223:
 758:.\BLEApplication.c ****              if(Peripheral==Role)
 3139              		.loc 1 758 0
 3140 00ec 2B7A     		ldrb	r3, [r5, #8]
 3141              	.LVL383:
 759:.\BLEApplication.c ****              {
 3142              		.loc 1 759 0
 3143 00ee AD4A     		ldr	r2, .L339+28
 3144 00f0 5278     		ldrb	r2, [r2, #1]
 3145 00f2 002A     		cmp	r2, #0
 3146 00f4 46D1     		bne	.L245
 761:.\BLEApplication.c ****                 {
 3147              		.loc 1 761 0
 3148 00f6 3C2B     		cmp	r3, #60
 3149 00f8 0CD0     		beq	.L246
 3150 00fa 3F2B     		cmp	r3, #63
 3151 00fc 01D0     		beq	.LCB2810
 3152 00fe 00F03DFC 		bl	.L215	@far jump
 3153              	.LCB2810:
 764:.\BLEApplication.c ****                         printf("+NAME=<%s>\r\n",Name);
 3154              		.loc 1 764 0
 3155 0102 2BA8     		add	r0, sp, #172
 3156 0104 FFF7FEFF 		bl	CyBle_GapGetLocalName
 3157              	.LVL384:
 765:.\BLEApplication.c **** //                        free(Name);
 3158              		.loc 1 765 0
 3159 0108 A748     		ldr	r0, .L339+32
 3160 010a 2BA9     		add	r1, sp, #172
 3161 010c FFF7FEFF 		bl	printf
 3162              	.LVL385:
 767:.\BLEApplication.c ****                     case '<':
 3163              		.loc 1 767 0
 3164 0110 00F034FC 		bl	.L215	@ far jump
 3165              	.LVL386:
 3166              	.L246:
 772:.\BLEApplication.c ****                         {
 3167              		.loc 1 772 0
 3168 0114 0935     		add	r5, r5, #9
 3169              	.LVL387:
 3170 0116 281C     		mov	r0, r5
 3171 0118 3E21     		mov	r1, #62
 3172 011a FFF7FEFF 		bl	strchr
 3173              	.LVL388:
 3174 011e 401B     		sub	r0, r0, r5
ARM GAS  C:\Users\Helon\AppData\Local\Temp\ccys0XsA.s 			page 101


 3175 0120 1728     		cmp	r0, #23
 3176 0122 04DD     		ble	.L248
 774:.\BLEApplication.c ****                             return;
 3177              		.loc 1 774 0
 3178 0124 A148     		ldr	r0, .L339+36
 3179 0126 FFF7FEFF 		bl	puts
 3180              	.LVL389:
 775:.\BLEApplication.c ****                         }
 3181              		.loc 1 775 0
 3182 012a 00F027FC 		bl	.L215	@ far jump
 3183              	.L248:
 777:.\BLEApplication.c ****                         {
 3184              		.loc 1 777 0
 3185 012e A04B     		ldr	r3, .L339+40
 3186 0130 1B78     		ldrb	r3, [r3]
 3187 0132 022B     		cmp	r3, #2
 3188 0134 21D0     		beq	.L249
 779:.\BLEApplication.c ****                             memset(Name,0,sizeof(char8)*27);
 3189              		.loc 1 779 0
 3190 0136 FFF7FEFF 		bl	CyBle_GappStopAdvertisement
 3191              	.LVL390:
 780:.\BLEApplication.c ****                             memcpy(Name,RX_BUFFER+9,Buffer_Length-11);
 3192              		.loc 1 780 0
 3193 013a 2BAC     		add	r4, sp, #172
 3194 013c 0023     		mov	r3, #0
 3195 013e 2B93     		str	r3, [sp, #172]
 3196 0140 2C93     		str	r3, [sp, #176]
 3197 0142 2D93     		str	r3, [sp, #180]
 3198 0144 2E93     		str	r3, [sp, #184]
 3199 0146 2F93     		str	r3, [sp, #188]
 3200 0148 3093     		str	r3, [sp, #192]
 3201 014a 2383     		strh	r3, [r4, #24]
 3202 014c A376     		strb	r3, [r4, #26]
 781:.\BLEApplication.c ****                             API_RESULT=CyBle_GapSetLocalName(Name);                            
 3203              		.loc 1 781 0
 3204 014e 9549     		ldr	r1, .L339+28
 3205 0150 4A7E     		ldrb	r2, [r1, #25]
 3206 0152 0B3A     		sub	r2, r2, #11
 3207 0154 2531     		add	r1, r1, #37
 3208 0156 201C     		mov	r0, r4
 3209 0158 FFF7FEFF 		bl	memcpy
 3210              	.LVL391:
 782:.\BLEApplication.c ****                             if(API_RESULT==CYBLE_ERROR_OK)
 3211              		.loc 1 782 0
 3212 015c 201C     		mov	r0, r4
 3213 015e FFF7FEFF 		bl	CyBle_GapSetLocalName
 3214              	.LVL392:
 783:.\BLEApplication.c ****                             {
 3215              		.loc 1 783 0
 3216 0162 0028     		cmp	r0, #0
 3217 0164 04D1     		bne	.L250
 785:.\BLEApplication.c **** //                                printf("AT+ NAME=<%s>\r\n",Name);
 3218              		.loc 1 785 0
 3219 0166 8948     		ldr	r0, .L339+4
 3220              	.LVL393:
 3221 0168 FFF7FEFF 		bl	puts
 3222              	.LVL394:
ARM GAS  C:\Users\Helon\AppData\Local\Temp\ccys0XsA.s 			page 102


 3223 016c 00F006FC 		bl	.L215	@ far jump
 3224              	.LVL395:
 3225              	.L250:
 791:.\BLEApplication.c ****                             }
 3226              		.loc 1 791 0
 3227 0170 9048     		ldr	r0, .L339+44
 3228              	.LVL396:
 3229 0172 FFF7FEFF 		bl	puts
 3230              	.LVL397:
 3231 0176 00F001FC 		bl	.L215	@ far jump
 3232              	.LVL398:
 3233              	.L249:
 798:.\BLEApplication.c **** //                            printf("+NAME=<INVALID>\r\n"); 
 3234              		.loc 1 798 0
 3235 017a 8F48     		ldr	r0, .L339+48
 3236 017c FFF7FEFF 		bl	puts
 3237              	.LVL399:
 3238 0180 00F0FCFB 		bl	.L215	@ far jump
 3239              	.LVL400:
 3240              	.L245:
 807:.\BLEApplication.c ****             }
 3241              		.loc 1 807 0
 3242 0184 8D48     		ldr	r0, .L339+52
 3243 0186 FFF7FEFF 		bl	puts
 3244              	.LVL401:
 3245 018a 00F0F7FB 		bl	.L215	@ far jump
 3246              	.LVL402:
 3247              	.L224:
 815:.\BLEApplication.c ****             if(Role==Peripheral)
 3248              		.loc 1 815 0
 3249 018e E879     		ldrb	r0, [r5, #7]
 3250              	.LVL403:
 816:.\BLEApplication.c ****                 TxPower_Handler(idx);
 3251              		.loc 1 816 0
 3252 0190 844B     		ldr	r3, .L339+28
 3253 0192 5B78     		ldrb	r3, [r3, #1]
 3254 0194 002B     		cmp	r3, #0
 3255 0196 02D1     		bne	.L251
 817:.\BLEApplication.c ****              else
 3256              		.loc 1 817 0
 3257 0198 FFF7FEFF 		bl	TxPower_Handler
 3258              	.LVL404:
 3259 019c EEE3     		b	.L215
 3260              	.LVL405:
 3261              	.L251:
 821:.\BLEApplication.c ****             }
 3262              		.loc 1 821 0
 3263 019e 8748     		ldr	r0, .L339+52
 3264              	.LVL406:
 3265 01a0 FFF7FEFF 		bl	puts
 3266              	.LVL407:
 3267 01a4 EAE3     		b	.L215
 3268              	.LVL408:
 3269              	.L225:
 826:.\BLEApplication.c ****             if(Peripheral==Role)
 3270              		.loc 1 826 0
 3271 01a6 2A7A     		ldrb	r2, [r5, #8]
ARM GAS  C:\Users\Helon\AppData\Local\Temp\ccys0XsA.s 			page 103


 3272              	.LVL409:
 827:.\BLEApplication.c ****             {
 3273              		.loc 1 827 0
 3274 01a8 7E4B     		ldr	r3, .L339+28
 3275 01aa 5B78     		ldrb	r3, [r3, #1]
 3276 01ac 002B     		cmp	r3, #0
 3277 01ae 61D1     		bne	.L252
 829:.\BLEApplication.c ****                 {
 3278              		.loc 1 829 0
 3279 01b0 7F4B     		ldr	r3, .L339+40
 3280 01b2 1B78     		ldrb	r3, [r3]
 3281 01b4 032B     		cmp	r3, #3
 3282 01b6 59D1     		bne	.L253
 831:.\BLEApplication.c ****                     {
 3283              		.loc 1 831 0
 3284 01b8 3C2A     		cmp	r2, #60
 3285 01ba 02D0     		beq	.L254
 3286 01bc 3F2A     		cmp	r2, #63
 3287 01be 41D0     		beq	.L255
 3288 01c0 DCE3     		b	.L215
 3289              	.L254:
 834:.\BLEApplication.c ****                             memcpy(StrAdvDataLength,SerialData+9,2);
 3290              		.loc 1 834 0
 3291 01c2 05AC     		add	r4, sp, #20
 3292 01c4 0023     		mov	r3, #0
 3293 01c6 0593     		str	r3, [sp, #20]
 3294 01c8 0693     		str	r3, [sp, #24]
 3295 01ca 0793     		str	r3, [sp, #28]
 3296 01cc 0893     		str	r3, [sp, #32]
 3297 01ce 0993     		str	r3, [sp, #36]
 3298 01d0 0A93     		str	r3, [sp, #40]
 3299 01d2 0B93     		str	r3, [sp, #44]
 3300 01d4 A383     		strh	r3, [r4, #28]
 3301 01d6 A377     		strb	r3, [r4, #30]
 835:.\BLEApplication.c ****                             StrToHex(&AdvDataLength,StrAdvDataLength,1);
 3302              		.loc 1 835 0
 3303 01d8 291C     		mov	r1, r5
 3304 01da 0931     		add	r1, r1, #9
 3305 01dc 12A8     		add	r0, sp, #72
 3306 01de 0222     		mov	r2, #2
 3307              	.LVL410:
 3308 01e0 FFF7FEFF 		bl	memcpy
 3309              	.LVL411:
 836:.\BLEApplication.c ****                             advDiscData.advDataLen=AdvDataLength;
 3310              		.loc 1 836 0
 3311 01e4 4726     		mov	r6, #71
 3312 01e6 6E44     		add	r6, r6, sp
 3313 01e8 301C     		mov	r0, r6
 3314 01ea 12A9     		add	r1, sp, #72
 3315 01ec 0122     		mov	r2, #1
 3316 01ee FFF7FEFF 		bl	StrToHex
 3317              	.LVL412:
 837:.\BLEApplication.c ****                             memcpy(StrAdvData,SerialData+12,AdvDataLength*2);
 3318              		.loc 1 837 0
 3319 01f2 3278     		ldrb	r2, [r6]
 3320 01f4 E277     		strb	r2, [r4, #31]
 838:.\BLEApplication.c ****                             StrToHex(AdvData,StrAdvData,sizeof(StrAdvData)/sizeof(char)/2);
ARM GAS  C:\Users\Helon\AppData\Local\Temp\ccys0XsA.s 			page 104


 3321              		.loc 1 838 0
 3322 01f6 5200     		lsl	r2, r2, #1
 3323 01f8 291C     		mov	r1, r5
 3324 01fa 0C31     		add	r1, r1, #12
 3325 01fc 13A8     		add	r0, sp, #76
 3326 01fe FFF7FEFF 		bl	memcpy
 3327              	.LVL413:
 839:.\BLEApplication.c ****                             memcpy(advDiscData.advData,AdvData,advDiscData.advDataLen);
 3328              		.loc 1 839 0
 3329 0202 23A8     		add	r0, sp, #140
 3330 0204 13A9     		add	r1, sp, #76
 3331 0206 1F22     		mov	r2, #31
 3332 0208 FFF7FEFF 		bl	StrToHex
 3333              	.LVL414:
 840:.\BLEApplication.c ****                             API_RESULT=CyBle_GapUpdateAdvData(&advDiscData,NULL);
 3334              		.loc 1 840 0
 3335 020c E27F     		ldrb	r2, [r4, #31]
 3336 020e 201C     		mov	r0, r4
 3337 0210 23A9     		add	r1, sp, #140
 3338 0212 FFF7FEFF 		bl	memcpy
 3339              	.LVL415:
 841:.\BLEApplication.c ****                             if(CYBLE_ERROR_OK==API_RESULT)
 3340              		.loc 1 841 0
 3341 0216 201C     		mov	r0, r4
 3342 0218 0021     		mov	r1, #0
 3343 021a FFF7FEFF 		bl	CyBle_GapUpdateAdvData
 3344              	.LVL416:
 842:.\BLEApplication.c ****                             {
 3345              		.loc 1 842 0
 3346 021e 0028     		cmp	r0, #0
 3347 0220 0CD1     		bne	.L256
 845:.\BLEApplication.c ****                                 memcpy(cyBle_discoveryModeInfo.advData->advData,AdvData,AdvDataLeng
 3348              		.loc 1 845 0
 3349 0222 674B     		ldr	r3, .L339+56
 3350 0224 9868     		ldr	r0, [r3, #8]
 3351              	.LVL417:
 3352 0226 4723     		mov	r3, #71
 3353 0228 6B44     		add	r3, r3, sp
 3354 022a 1A78     		ldrb	r2, [r3]
 3355 022c C277     		strb	r2, [r0, #31]
 846:.\BLEApplication.c ****                                 printf("AT+OK\r\n");
 3356              		.loc 1 846 0
 3357 022e 23A9     		add	r1, sp, #140
 3358 0230 FFF7FEFF 		bl	memcpy
 3359              	.LVL418:
 847:.\BLEApplication.c ****                             }
 3360              		.loc 1 847 0
 3361 0234 5548     		ldr	r0, .L339+4
 3362 0236 FFF7FEFF 		bl	puts
 3363              	.LVL419:
 3364 023a 9FE3     		b	.L215
 3365              	.LVL420:
 3366              	.L256:
 851:.\BLEApplication.c ****                             }
 3367              		.loc 1 851 0
 3368 023c 5D48     		ldr	r0, .L339+44
 3369              	.LVL421:
ARM GAS  C:\Users\Helon\AppData\Local\Temp\ccys0XsA.s 			page 105


 3370 023e FFF7FEFF 		bl	puts
 3371              	.LVL422:
 3372 0242 9BE3     		b	.L215
 3373              	.LVL423:
 3374              	.L255:
 855:.\BLEApplication.c ****                             for(i=0;i<cyBle_discoveryModeInfo.advData->advDataLen;i++)
 3375              		.loc 1 855 0
 3376 0244 5F48     		ldr	r0, .L339+60
 3377 0246 FFF7FEFF 		bl	printf
 3378              	.LVL424:
 856:.\BLEApplication.c ****                             {
 3379              		.loc 1 856 0
 3380 024a 0024     		mov	r4, #0
 3381 024c 05E0     		b	.L257
 3382              	.LVL425:
 3383              	.L258:
 858:.\BLEApplication.c ****                             }
 3384              		.loc 1 858 0 discriminator 3
 3385 024e 195D     		ldrb	r1, [r3, r4]
 3386 0250 5D48     		ldr	r0, .L339+64
 3387 0252 FFF7FEFF 		bl	printf
 3388              	.LVL426:
 856:.\BLEApplication.c ****                             {
 3389              		.loc 1 856 0 discriminator 3
 3390 0256 0134     		add	r4, r4, #1
 3391              	.LVL427:
 3392 0258 E4B2     		uxtb	r4, r4
 3393              	.LVL428:
 3394              	.L257:
 856:.\BLEApplication.c ****                             {
 3395              		.loc 1 856 0 is_stmt 0 discriminator 1
 3396 025a 594B     		ldr	r3, .L339+56
 3397 025c 9B68     		ldr	r3, [r3, #8]
 3398 025e DA7F     		ldrb	r2, [r3, #31]
 3399 0260 A242     		cmp	r2, r4
 3400 0262 F4D8     		bhi	.L258
 860:.\BLEApplication.c ****                         break;
 3401              		.loc 1 860 0 is_stmt 1
 3402 0264 5948     		ldr	r0, .L339+68
 3403 0266 FFF7FEFF 		bl	puts
 3404              	.LVL429:
 861:.\BLEApplication.c ****                     }
 3405              		.loc 1 861 0
 3406 026a 87E3     		b	.L215
 3407              	.LVL430:
 3408              	.L253:
 866:.\BLEApplication.c ****                 }
 3409              		.loc 1 866 0
 3410 026c 5248     		ldr	r0, .L339+48
 3411 026e FFF7FEFF 		bl	puts
 3412              	.LVL431:
 3413 0272 83E3     		b	.L215
 3414              	.LVL432:
 3415              	.L252:
 872:.\BLEApplication.c ****             }
 3416              		.loc 1 872 0
 3417 0274 5148     		ldr	r0, .L339+52
ARM GAS  C:\Users\Helon\AppData\Local\Temp\ccys0XsA.s 			page 106


 3418 0276 FFF7FEFF 		bl	puts
 3419              	.LVL433:
 3420 027a 7FE3     		b	.L215
 3421              	.LVL434:
 3422              	.L226:
 877:.\BLEApplication.c ****             {
 3423              		.loc 1 877 0
 3424 027c 494B     		ldr	r3, .L339+28
 3425 027e 5B78     		ldrb	r3, [r3, #1]
 3426 0280 002B     		cmp	r3, #0
 3427 0282 66D1     		bne	.L259
 879:.\BLEApplication.c ****                 if((CYBLE_STATE_CONNECTED!=CyBle_GetState()))
 3428              		.loc 1 879 0
 3429 0284 2B7A     		ldrb	r3, [r5, #8]
 3430              	.LVL435:
 880:.\BLEApplication.c ****                 {
 3431              		.loc 1 880 0
 3432 0286 4A4A     		ldr	r2, .L339+40
 3433 0288 1278     		ldrb	r2, [r2]
 3434 028a 022A     		cmp	r2, #2
 3435 028c 5DD0     		beq	.L260
 882:.\BLEApplication.c ****                     {
 3436              		.loc 1 882 0
 3437 028e 3C2B     		cmp	r3, #60
 3438 0290 2AD0     		beq	.L261
 3439 0292 3F2B     		cmp	r3, #63
 3440 0294 00D0     		beq	.LCB3102
 3441 0296 71E3     		b	.L215	@long jump
 3442              	.LCB3102:
 885:.\BLEApplication.c ****                         AdvMax=(cyBle_discoveryModeInfo.advParam->advIntvMax)*0.625;               
 3443              		.loc 1 885 0
 3444 0298 494D     		ldr	r5, .L339+56
 3445              	.LVL436:
 3446 029a 6E68     		ldr	r6, [r5, #4]
 3447 029c 3088     		ldrh	r0, [r6]
 3448 029e FFF7FEFF 		bl	__aeabi_i2d
 3449              	.LVL437:
 3450 02a2 0022     		mov	r2, #0
 3451 02a4 4A4B     		ldr	r3, .L339+72
 3452 02a6 FFF7FEFF 		bl	__aeabi_dmul
 3453              	.LVL438:
 3454 02aa FFF7FEFF 		bl	__aeabi_d2iz
 3455              	.LVL439:
 3456 02ae 84B2     		uxth	r4, r0
 3457              	.LVL440:
 886:.\BLEApplication.c ****                         printf("+ADVI=<MIN=%hdms,MAX=%hdms,TIMEOUT=%hus>\r\n",AdvMin,
 3458              		.loc 1 886 0
 3459 02b0 7088     		ldrh	r0, [r6, #2]
 3460 02b2 FFF7FEFF 		bl	__aeabi_i2d
 3461              	.LVL441:
 3462 02b6 0022     		mov	r2, #0
 3463 02b8 454B     		ldr	r3, .L339+72
 3464 02ba FFF7FEFF 		bl	__aeabi_dmul
 3465              	.LVL442:
 3466 02be FFF7FEFF 		bl	__aeabi_d2iz
 3467              	.LVL443:
 888:.\BLEApplication.c ****                         while((UART_SpiUartGetTxBufferSize() + UART_GET_TX_FIFO_SR_VALID) != 0);//Á
ARM GAS  C:\Users\Helon\AppData\Local\Temp\ccys0XsA.s 			page 107


 3468              		.loc 1 888 0
 3469 02c2 2B8A     		ldrh	r3, [r5, #16]
 887:.\BLEApplication.c ****                         AdvMax,cyBle_discoveryModeInfo.advTo);
 3470              		.loc 1 887 0
 3471 02c4 21B2     		sxth	r1, r4
 3472 02c6 02B2     		sxth	r2, r0
 3473 02c8 4248     		ldr	r0, .L339+76
 3474              	.LVL444:
 3475 02ca FFF7FEFF 		bl	printf
 3476              	.LVL445:
 3477              	.L264:
 889:.\BLEApplication.c ****                         break;
 3478              		.loc 1 889 0 discriminator 5
 3479 02ce FFF7FEFF 		bl	UART_SpiUartGetTxBufferSize
 3480              	.LVL446:
 3481 02d2 2F4B     		ldr	r3, .L339+8
 3482 02d4 1B68     		ldr	r3, [r3]
 3483 02d6 8022     		mov	r2, #128
 3484 02d8 1202     		lsl	r2, r2, #8
 3485 02da 1340     		and	r3, r2
 3486 02dc 00D0     		beq	.L263
 889:.\BLEApplication.c ****                         break;
 3487              		.loc 1 889 0 is_stmt 0
 3488 02de 0123     		mov	r3, #1
 3489              	.L263:
 889:.\BLEApplication.c ****                         break;
 3490              		.loc 1 889 0 discriminator 4
 3491 02e0 C318     		add	r3, r0, r3
 3492 02e2 002B     		cmp	r3, #0
 3493 02e4 F3D1     		bne	.L264
 3494 02e6 49E3     		b	.L215
 3495              	.LVL447:
 3496              	.L261:
 893:.\BLEApplication.c ****                         {
 3497              		.loc 1 893 0 is_stmt 1
 3498 02e8 032A     		cmp	r2, #3
 3499 02ea 2AD0     		beq	.L265
 896:.\BLEApplication.c ****                             AdvParamArray[1]=SerialData[10];
 3500              		.loc 1 896 0
 3501 02ec 11AC     		add	r4, sp, #68
 3502 02ee 6B7A     		ldrb	r3, [r5, #9]
 3503              	.LVL448:
 3504 02f0 2370     		strb	r3, [r4]
 897:.\BLEApplication.c ****                             StrToHex(&AdvParam,AdvParamArray,1);
 3505              		.loc 1 897 0
 3506 02f2 AB7A     		ldrb	r3, [r5, #10]
 3507 02f4 6370     		strb	r3, [r4, #1]
 898:.\BLEApplication.c ****                             cyBle_discoveryModeInfo.advParam->advIntvMin=AdvParam;
 3508              		.loc 1 898 0
 3509 02f6 4326     		mov	r6, #67
 3510 02f8 6E44     		add	r6, r6, sp
 3511 02fa 301C     		mov	r0, r6
 3512 02fc 211C     		mov	r1, r4
 3513 02fe 0122     		mov	r2, #1
 3514 0300 FFF7FEFF 		bl	StrToHex
 3515              	.LVL449:
 899:.\BLEApplication.c ****         //                    Ëé∑ÂèñAdvMaxÂÄº
ARM GAS  C:\Users\Helon\AppData\Local\Temp\ccys0XsA.s 			page 108


 3516              		.loc 1 899 0
 3517 0304 2E4F     		ldr	r7, .L339+56
 3518 0306 3378     		ldrb	r3, [r6]
 3519 0308 7A68     		ldr	r2, [r7, #4]
 3520 030a 1380     		strh	r3, [r2]
 901:.\BLEApplication.c ****                             AdvParamArray[1]=SerialData[13];
 3521              		.loc 1 901 0
 3522 030c 2B7B     		ldrb	r3, [r5, #12]
 3523 030e 2370     		strb	r3, [r4]
 902:.\BLEApplication.c ****                             StrToHex(&AdvParam,AdvParamArray,1);
 3524              		.loc 1 902 0
 3525 0310 6B7B     		ldrb	r3, [r5, #13]
 3526 0312 6370     		strb	r3, [r4, #1]
 903:.\BLEApplication.c ****                             cyBle_discoveryModeInfo.advParam->advIntvMax=AdvParam;
 3527              		.loc 1 903 0
 3528 0314 301C     		mov	r0, r6
 3529 0316 211C     		mov	r1, r4
 3530 0318 0122     		mov	r2, #1
 3531 031a FFF7FEFF 		bl	StrToHex
 3532              	.LVL450:
 904:.\BLEApplication.c ****         //                      Ëé∑ÂèñAdvToÂÄº
 3533              		.loc 1 904 0
 3534 031e 3378     		ldrb	r3, [r6]
 3535 0320 7A68     		ldr	r2, [r7, #4]
 3536 0322 5380     		strh	r3, [r2, #2]
 906:.\BLEApplication.c ****                             AdvParamArray[1]=SerialData[16];
 3537              		.loc 1 906 0
 3538 0324 EB7B     		ldrb	r3, [r5, #15]
 3539 0326 2370     		strb	r3, [r4]
 907:.\BLEApplication.c ****                             StrToHex(&AdvParam,AdvParamArray,1);
 3540              		.loc 1 907 0
 3541 0328 2B7C     		ldrb	r3, [r5, #16]
 3542 032a 6370     		strb	r3, [r4, #1]
 908:.\BLEApplication.c ****                             cyBle_discoveryModeInfo.advTo=AdvParam;
 3543              		.loc 1 908 0
 3544 032c 301C     		mov	r0, r6
 3545 032e 211C     		mov	r1, r4
 3546 0330 0122     		mov	r2, #1
 3547 0332 FFF7FEFF 		bl	StrToHex
 3548              	.LVL451:
 909:.\BLEApplication.c ****                             printf("AT+OK\r\n");
 3549              		.loc 1 909 0
 3550 0336 3378     		ldrb	r3, [r6]
 3551 0338 3B82     		strh	r3, [r7, #16]
 910:.\BLEApplication.c **** //                            printf("%s",SerialData);
 3552              		.loc 1 910 0
 3553 033a 1448     		ldr	r0, .L339+4
 3554 033c FFF7FEFF 		bl	puts
 3555              	.LVL452:
 3556 0340 1CE3     		b	.L215
 3557              	.LVL453:
 3558              	.L265:
 917:.\BLEApplication.c ****                         }
 3559              		.loc 1 917 0
 3560 0342 1D48     		ldr	r0, .L339+48
 3561 0344 FFF7FEFF 		bl	puts
 3562              	.LVL454:
ARM GAS  C:\Users\Helon\AppData\Local\Temp\ccys0XsA.s 			page 109


 3563 0348 18E3     		b	.L215
 3564              	.LVL455:
 3565              	.L260:
 924:.\BLEApplication.c ****                 }
 3566              		.loc 1 924 0
 3567 034a 1B48     		ldr	r0, .L339+48
 3568 034c FFF7FEFF 		bl	puts
 3569              	.LVL456:
 3570 0350 14E3     		b	.L215
 3571              	.LVL457:
 3572              	.L259:
 931:.\BLEApplication.c ****             }
 3573              		.loc 1 931 0
 3574 0352 1A48     		ldr	r0, .L339+52
 3575 0354 FFF7FEFF 		bl	puts
 3576              	.LVL458:
 3577 0358 10E3     		b	.L215
 3578              	.L227:
 937:.\BLEApplication.c ****             switch(idx)
 3579              		.loc 1 937 0
 3580 035a 6B7A     		ldrb	r3, [r5, #9]
 3581              	.LVL459:
 938:.\BLEApplication.c ****             {
 3582              		.loc 1 938 0
 3583 035c 3C2B     		cmp	r3, #60
 3584 035e 3FD0     		beq	.L266
 3585 0360 3F2B     		cmp	r3, #63
 3586 0362 00D0     		beq	.LCB3247
 3587 0364 0AE3     		b	.L215	@long jump
 3588              	.LCB3247:
 941:.\BLEApplication.c ****                 {
 3589              		.loc 1 941 0
 3590 0366 124B     		ldr	r3, .L339+40
 3591              	.LVL460:
 3592 0368 1B78     		ldrb	r3, [r3]
 3593 036a 022B     		cmp	r3, #2
 3594 036c 07D1     		bne	.L268
 945:.\BLEApplication.c ****                     ConnParam.supervisionTO,ConnParam.connLatency);
 3595              		.loc 1 945 0
 3596 036e 1A4B     		ldr	r3, .L339+80
 3597 0370 5988     		ldrh	r1, [r3, #2]
 946:.\BLEApplication.c ****                 }
 3598              		.loc 1 946 0
 3599 0372 DA88     		ldrh	r2, [r3, #6]
 3600 0374 9B88     		ldrh	r3, [r3, #4]
 945:.\BLEApplication.c ****                     ConnParam.supervisionTO,ConnParam.connLatency);
 3601              		.loc 1 945 0
 3602 0376 1948     		ldr	r0, .L339+84
 3603 0378 FFF7FEFF 		bl	printf
 3604              	.LVL461:
 3605 037c FEE2     		b	.L215
 3606              	.LVL462:
 3607              	.L268:
 951:.\BLEApplication.c ****                 }
 3608              		.loc 1 951 0
 3609 037e 0E48     		ldr	r0, .L339+48
 3610 0380 FFF7FEFF 		bl	puts
ARM GAS  C:\Users\Helon\AppData\Local\Temp\ccys0XsA.s 			page 110


 3611              	.LVL463:
 3612 0384 FAE2     		b	.L215
 3613              	.L340:
 3614 0386 C046     		.align	2
 3615              	.L339:
 3616 0388 78030000 		.word	.L219
 3617 038c 8C010000 		.word	.LC63
 3618 0390 08022440 		.word	1076101640
 3619 0394 D8030000 		.word	.LC144
 3620 0398 EC030000 		.word	.LC146
 3621 039c 00000000 		.word	DeviceAddr
 3622 03a0 F8030000 		.word	.LC149
 3623 03a4 00000000 		.word	.LANCHOR0
 3624 03a8 20040000 		.word	.LC152
 3625 03ac 30040000 		.word	.LC154
 3626 03b0 00000000 		.word	cyBle_state
 3627 03b4 3C040000 		.word	.LC157
 3628 03b8 C0010000 		.word	.LC68
 3629 03bc CC010000 		.word	.LC70
 3630 03c0 00000000 		.word	cyBle_discoveryModeInfo
 3631 03c4 48040000 		.word	.LC162
 3632 03c8 54040000 		.word	.LC164
 3633 03cc 5C040000 		.word	.LC166
 3634 03d0 0000E43F 		.word	1071906816
 3635 03d4 60040000 		.word	.LC168
 3636 03d8 00000000 		.word	ConnParam
 3637 03dc 8C040000 		.word	.LC171
 3638              	.LVL464:
 3639              	.L266:
 956:.\BLEApplication.c ****                 {
 3640              		.loc 1 956 0
 3641 03e0 C84B     		ldr	r3, .L341
 3642              	.LVL465:
 3643 03e2 5B78     		ldrb	r3, [r3, #1]
 3644 03e4 012B     		cmp	r3, #1
 3645 03e6 28D1     		bne	.L269
 959:.\BLEApplication.c ****                     AdvParamArray[1]=SerialData[11];
 3646              		.loc 1 959 0
 3647 03e8 11AC     		add	r4, sp, #68
 3648 03ea AB7A     		ldrb	r3, [r5, #10]
 3649 03ec 2370     		strb	r3, [r4]
 960:.\BLEApplication.c ****                     StrToHex(&AdvParam,AdvParamArray,1);
 3650              		.loc 1 960 0
 3651 03ee EB7A     		ldrb	r3, [r5, #11]
 3652 03f0 6370     		strb	r3, [r4, #1]
 961:.\BLEApplication.c ****                     connParam.connIntvMin=AdvParam;
 3653              		.loc 1 961 0
 3654 03f2 4326     		mov	r6, #67
 3655 03f4 6E44     		add	r6, r6, sp
 3656 03f6 301C     		mov	r0, r6
 3657 03f8 211C     		mov	r1, r4
 3658 03fa 0122     		mov	r2, #1
 3659 03fc FFF7FEFF 		bl	StrToHex
 3660              	.LVL466:
 962:.\BLEApplication.c **** //                    Ëé∑ÂèñÊúÄÂ§ßËøûÊé•Èó¥Èöî                    
 3661              		.loc 1 962 0
 3662 0400 C14F     		ldr	r7, .L341+4
ARM GAS  C:\Users\Helon\AppData\Local\Temp\ccys0XsA.s 			page 111


 3663 0402 3378     		ldrb	r3, [r6]
 3664 0404 3B80     		strh	r3, [r7]
 964:.\BLEApplication.c ****                     AdvParamArray[1]=SerialData[14];
 3665              		.loc 1 964 0
 3666 0406 6B7B     		ldrb	r3, [r5, #13]
 3667 0408 2370     		strb	r3, [r4]
 965:.\BLEApplication.c ****                     StrToHex(&AdvParam,AdvParamArray,1);
 3668              		.loc 1 965 0
 3669 040a AB7B     		ldrb	r3, [r5, #14]
 3670 040c 6370     		strb	r3, [r4, #1]
 966:.\BLEApplication.c ****                     connParam.connIntvMax=AdvParam;
 3671              		.loc 1 966 0
 3672 040e 301C     		mov	r0, r6
 3673 0410 211C     		mov	r1, r4
 3674 0412 0122     		mov	r2, #1
 3675 0414 FFF7FEFF 		bl	StrToHex
 3676              	.LVL467:
 967:.\BLEApplication.c **** //                    ÂèëËµ∑ËøûÊé•Èó¥ÈöîÊõ¥Êñ∞ËØ∑Ê±Ç
 3677              		.loc 1 967 0
 3678 0418 3378     		ldrb	r3, [r6]
 3679 041a 7B80     		strh	r3, [r7, #2]
 969:.\BLEApplication.c ****                     if(CYBLE_ERROR_OK==API_RESULT)
 3680              		.loc 1 969 0
 3681 041c BB4B     		ldr	r3, .L341+8
 3682 041e 1878     		ldrb	r0, [r3]
 3683 0420 391C     		mov	r1, r7
 3684 0422 FFF7FEFF 		bl	CyBle_GapcConnectionParamUpdateRequest
 3685              	.LVL468:
 970:.\BLEApplication.c ****                     {
 3686              		.loc 1 970 0
 3687 0426 0028     		cmp	r0, #0
 3688 0428 03D1     		bne	.L270
 972:.\BLEApplication.c **** //                        printf("%s",SerialData);
 3689              		.loc 1 972 0
 3690 042a B948     		ldr	r0, .L341+12
 3691              	.LVL469:
 3692 042c FFF7FEFF 		bl	puts
 3693              	.LVL470:
 3694 0430 A4E2     		b	.L215
 3695              	.LVL471:
 3696              	.L270:
 979:.\BLEApplication.c ****                     }
 3697              		.loc 1 979 0
 3698 0432 B848     		ldr	r0, .L341+16
 3699              	.LVL472:
 3700 0434 FFF7FEFF 		bl	puts
 3701              	.LVL473:
 3702 0438 A0E2     		b	.L215
 3703              	.LVL474:
 3704              	.L269:
 986:.\BLEApplication.c ****                 }
 3705              		.loc 1 986 0
 3706 043a B748     		ldr	r0, .L341+20
 3707 043c FFF7FEFF 		bl	puts
 3708              	.LVL475:
 3709 0440 9CE2     		b	.L215
 3710              	.LVL476:
ARM GAS  C:\Users\Helon\AppData\Local\Temp\ccys0XsA.s 			page 112


 3711              	.L228:
 994:.\BLEApplication.c ****             switch(idx)
 3712              		.loc 1 994 0
 3713 0442 2B7A     		ldrb	r3, [r5, #8]
 3714              	.LVL477:
 995:.\BLEApplication.c ****             {
 3715              		.loc 1 995 0
 3716 0444 312B     		cmp	r3, #49
 3717 0446 30D0     		beq	.L271
 3718 0448 3F2B     		cmp	r3, #63
 3719 044a 03D0     		beq	.L272
 3720 044c 302B     		cmp	r3, #48
 3721 044e 00D0     		beq	.LCB3379
 3722 0450 94E2     		b	.L215	@long jump
 3723              	.LCB3379:
 3724 0452 0BE0     		b	.L273
 3725              	.L272:
 998:.\BLEApplication.c ****                     {
 3726              		.loc 1 998 0
 3727 0454 AB4B     		ldr	r3, .L341
 3728              	.LVL478:
 3729 0456 5B78     		ldrb	r3, [r3, #1]
 3730 0458 002B     		cmp	r3, #0
 3731 045a 03D1     		bne	.L274
1000:.\BLEApplication.c ****                     }
 3732              		.loc 1 1000 0
 3733 045c AF48     		ldr	r0, .L341+24
 3734 045e FFF7FEFF 		bl	puts
 3735              	.LVL479:
 3736 0462 8BE2     		b	.L215
 3737              	.LVL480:
 3738              	.L274:
1004:.\BLEApplication.c ****                     }
 3739              		.loc 1 1004 0
 3740 0464 AE48     		ldr	r0, .L341+28
 3741 0466 FFF7FEFF 		bl	puts
 3742              	.LVL481:
 3743 046a 87E2     		b	.L215
 3744              	.LVL482:
 3745              	.L273:
1009:.\BLEApplication.c ****                     {
 3746              		.loc 1 1009 0
 3747 046c AD4B     		ldr	r3, .L341+32
 3748              	.LVL483:
 3749 046e 1B78     		ldrb	r3, [r3]
 3750 0470 022B     		cmp	r3, #2
 3751 0472 16D0     		beq	.L275
1011:.\BLEApplication.c ****                         if(USER_SFLASH_WRITE_SUCCESSFUL==WriteUserSFlashRow(0,&WriteDataToFlash))
 3752              		.loc 1 1011 0
 3753 0474 0023     		mov	r3, #0
 3754 0476 0F93     		str	r3, [sp, #60]
1012:.\BLEApplication.c ****                         {
 3755              		.loc 1 1012 0
 3756 0478 0020     		mov	r0, #0
 3757 047a 0FA9     		add	r1, sp, #60
 3758 047c FFF7FEFF 		bl	WriteUserSFlashRow
 3759              	.LVL484:
ARM GAS  C:\Users\Helon\AppData\Local\Temp\ccys0XsA.s 			page 113


 3760 0480 A023     		mov	r3, #160
 3761 0482 1B06     		lsl	r3, r3, #24
 3762 0484 9842     		cmp	r0, r3
 3763 0486 00D0     		beq	.LCB3422
 3764 0488 78E2     		b	.L215	@long jump
 3765              	.LCB3422:
1015:.\BLEApplication.c ****                             //ÂºÄÂßãÂπøÊí≠
 3766              		.loc 1 1015 0
 3767 048a FFF7FEFF 		bl	CyBle_GapcStopScan
 3768              	.LVL485:
1017:.\BLEApplication.c ****                             Role=Peripheral;
 3769              		.loc 1 1017 0
 3770 048e 0020     		mov	r0, #0
 3771 0490 FFF7FEFF 		bl	CyBle_GappStartAdvertisement
 3772              	.LVL486:
1018:.\BLEApplication.c ****                             printf("AT+OK\r\n");
 3773              		.loc 1 1018 0
 3774 0494 0022     		mov	r2, #0
 3775 0496 9B4B     		ldr	r3, .L341
 3776 0498 5A70     		strb	r2, [r3, #1]
1019:.\BLEApplication.c **** //                            printf("+ROLE:<Peripheral>\r\n");
 3777              		.loc 1 1019 0
 3778 049a 9D48     		ldr	r0, .L341+12
 3779 049c FFF7FEFF 		bl	puts
 3780              	.LVL487:
 3781 04a0 6CE2     		b	.L215
 3782              	.LVL488:
 3783              	.L275:
1027:.\BLEApplication.c ****                     }
 3784              		.loc 1 1027 0
 3785 04a2 A148     		ldr	r0, .L341+36
 3786 04a4 FFF7FEFF 		bl	puts
 3787              	.LVL489:
 3788 04a8 68E2     		b	.L215
 3789              	.LVL490:
 3790              	.L271:
1032:.\BLEApplication.c ****                     {
 3791              		.loc 1 1032 0
 3792 04aa 9E4B     		ldr	r3, .L341+32
 3793              	.LVL491:
 3794 04ac 1B78     		ldrb	r3, [r3]
 3795 04ae 022B     		cmp	r3, #2
 3796 04b0 16D0     		beq	.L276
1034:.\BLEApplication.c ****                         if(USER_SFLASH_WRITE_SUCCESSFUL==WriteUserSFlashRow(0,&WriteDataToFlash))
 3797              		.loc 1 1034 0
 3798 04b2 0123     		mov	r3, #1
 3799 04b4 0F93     		str	r3, [sp, #60]
1035:.\BLEApplication.c ****                         {
 3800              		.loc 1 1035 0
 3801 04b6 0020     		mov	r0, #0
 3802 04b8 0FA9     		add	r1, sp, #60
 3803 04ba FFF7FEFF 		bl	WriteUserSFlashRow
 3804              	.LVL492:
 3805 04be A023     		mov	r3, #160
 3806 04c0 1B06     		lsl	r3, r3, #24
 3807 04c2 9842     		cmp	r0, r3
 3808 04c4 00D0     		beq	.LCB3463
ARM GAS  C:\Users\Helon\AppData\Local\Temp\ccys0XsA.s 			page 114


 3809 04c6 59E2     		b	.L215	@long jump
 3810              	.LCB3463:
1038:.\BLEApplication.c **** //                        ÂºÄÂßãÊâ´Êèè
 3811              		.loc 1 1038 0
 3812 04c8 FFF7FEFF 		bl	CyBle_GappStopAdvertisement
 3813              	.LVL493:
1040:.\BLEApplication.c ****                             Role=Central;
 3814              		.loc 1 1040 0
 3815 04cc 0020     		mov	r0, #0
 3816 04ce FFF7FEFF 		bl	CyBle_GapcStartScan
 3817              	.LVL494:
1041:.\BLEApplication.c ****                             printf("AT+OK\r\n");
 3818              		.loc 1 1041 0
 3819 04d2 0122     		mov	r2, #1
 3820 04d4 8B4B     		ldr	r3, .L341
 3821 04d6 5A70     		strb	r2, [r3, #1]
1042:.\BLEApplication.c **** //                            printf("+ROLE:<Central>\r\n");
 3822              		.loc 1 1042 0
 3823 04d8 8D48     		ldr	r0, .L341+12
 3824 04da FFF7FEFF 		bl	puts
 3825              	.LVL495:
 3826 04de 4DE2     		b	.L215
 3827              	.LVL496:
 3828              	.L276:
1050:.\BLEApplication.c ****                     }
 3829              		.loc 1 1050 0
 3830 04e0 9148     		ldr	r0, .L341+36
 3831 04e2 FFF7FEFF 		bl	puts
 3832              	.LVL497:
 3833 04e6 49E2     		b	.L215
 3834              	.LVL498:
 3835              	.L233:
1058:.\BLEApplication.c ****             {
 3836              		.loc 1 1058 0
 3837 04e8 864B     		ldr	r3, .L341
 3838 04ea 5B78     		ldrb	r3, [r3, #1]
 3839 04ec 012B     		cmp	r3, #1
 3840 04ee 0BD1     		bne	.L277
1060:.\BLEApplication.c ****                 range.endHandle=0xFFFF;       
 3841              		.loc 1 1060 0
 3842 04f0 0DA9     		add	r1, sp, #52
 3843 04f2 0B80     		strh	r3, [r1]
1061:.\BLEApplication.c ****                 API_RESULT=CyBle_GattcDiscoverAllCharacteristicDescriptors(cyBle_connHandle,&range)
 3844              		.loc 1 1061 0
 3845 04f4 023B     		sub	r3, r3, #2
 3846 04f6 4B80     		strh	r3, [r1, #2]
1062:.\BLEApplication.c ****             }
 3847              		.loc 1 1062 0
 3848 04f8 844A     		ldr	r2, .L341+8
 3849 04fa 1378     		ldrb	r3, [r2]
 3850 04fc 5078     		ldrb	r0, [r2, #1]
 3851 04fe 0002     		lsl	r0, r0, #8
 3852 0500 1843     		orr	r0, r3
 3853 0502 FFF7FEFF 		bl	CyBle_GattcDiscoverAllCharacteristicDescriptors
 3854              	.LVL499:
 3855 0506 39E2     		b	.L215
 3856              	.LVL500:
ARM GAS  C:\Users\Helon\AppData\Local\Temp\ccys0XsA.s 			page 115


 3857              	.L277:
1066:.\BLEApplication.c **** //                printf("+DISALLCHAR=<INVALID>\r\n");
 3858              		.loc 1 1066 0
 3859 0508 8348     		ldr	r0, .L341+20
 3860 050a FFF7FEFF 		bl	puts
 3861              	.LVL501:
 3862 050e 35E2     		b	.L215
 3863              	.L229:
1072:.\BLEApplication.c ****             {
 3864              		.loc 1 1072 0
 3865 0510 7C4B     		ldr	r3, .L341
 3866 0512 5B78     		ldrb	r3, [r3, #1]
 3867 0514 012B     		cmp	r3, #1
 3868 0516 54D1     		bne	.L278
1074:.\BLEApplication.c ****                 {
 3869              		.loc 1 1074 0
 3870 0518 2B7A     		ldrb	r3, [r5, #8]
 3871 051a 312B     		cmp	r3, #49
 3872 051c 16D1     		bne	.L279
1076:.\BLEApplication.c ****                     {
 3873              		.loc 1 1076 0
 3874 051e 814B     		ldr	r3, .L341+32
 3875 0520 1B78     		ldrb	r3, [r3]
 3876 0522 022B     		cmp	r3, #2
 3877 0524 0ED0     		beq	.L280
1078:.\BLEApplication.c ****                         if(CYBLE_ERROR_OK==CyBle_GapcStartScan(CYBLE_SCANNING_FAST))
 3878              		.loc 1 1078 0
 3879 0526 FFF7FEFF 		bl	ScanDeviceInfoInit
 3880              	.LVL502:
1079:.\BLEApplication.c ****                         {
 3881              		.loc 1 1079 0
 3882 052a 0020     		mov	r0, #0
 3883 052c FFF7FEFF 		bl	CyBle_GapcStartScan
 3884              	.LVL503:
 3885 0530 0028     		cmp	r0, #0
 3886 0532 03D1     		bne	.L281
1081:.\BLEApplication.c ****                         }
 3887              		.loc 1 1081 0
 3888 0534 7648     		ldr	r0, .L341+12
 3889 0536 FFF7FEFF 		bl	puts
 3890              	.LVL504:
 3891 053a 1FE2     		b	.L215
 3892              	.L281:
1085:.\BLEApplication.c ****                         }
 3893              		.loc 1 1085 0
 3894 053c 7548     		ldr	r0, .L341+16
 3895 053e FFF7FEFF 		bl	puts
 3896              	.LVL505:
 3897 0542 1BE2     		b	.L215
 3898              	.L280:
1090:.\BLEApplication.c ****                     }
 3899              		.loc 1 1090 0
 3900 0544 7848     		ldr	r0, .L341+36
 3901 0546 FFF7FEFF 		bl	puts
 3902              	.LVL506:
 3903 054a 17E2     		b	.L215
 3904              	.L279:
ARM GAS  C:\Users\Helon\AppData\Local\Temp\ccys0XsA.s 			page 116


1094:.\BLEApplication.c ****                 {
 3905              		.loc 1 1094 0
 3906 054c 302B     		cmp	r3, #48
 3907 054e 12D1     		bne	.L282
1096:.\BLEApplication.c ****                     {
 3908              		.loc 1 1096 0
 3909 0550 744B     		ldr	r3, .L341+32
 3910 0552 1B78     		ldrb	r3, [r3]
 3911 0554 042B     		cmp	r3, #4
 3912 0556 0AD1     		bne	.L283
1098:.\BLEApplication.c ****                         CyBle_GapcStopScan();                                   
 3913              		.loc 1 1098 0
 3914 0558 FFF7FEFF 		bl	ScanDeviceInfoInit
 3915              	.LVL507:
1099:.\BLEApplication.c ****                         STOP_SCAN_FLAG=TRUE;
 3916              		.loc 1 1099 0
 3917 055c FFF7FEFF 		bl	CyBle_GapcStopScan
 3918              	.LVL508:
1100:.\BLEApplication.c ****                         printf("AT+OK\r\n"); 
 3919              		.loc 1 1100 0
 3920 0560 0122     		mov	r2, #1
 3921 0562 684B     		ldr	r3, .L341
 3922 0564 1A70     		strb	r2, [r3]
1101:.\BLEApplication.c ****                     }
 3923              		.loc 1 1101 0
 3924 0566 6A48     		ldr	r0, .L341+12
 3925 0568 FFF7FEFF 		bl	puts
 3926              	.LVL509:
 3927 056c 06E2     		b	.L215
 3928              	.L283:
1105:.\BLEApplication.c ****                     }
 3929              		.loc 1 1105 0
 3930 056e 6E48     		ldr	r0, .L341+36
 3931 0570 FFF7FEFF 		bl	puts
 3932              	.LVL510:
 3933 0574 02E2     		b	.L215
 3934              	.L282:
1108:.\BLEApplication.c ****                 {
 3935              		.loc 1 1108 0
 3936 0576 3F2B     		cmp	r3, #63
 3937 0578 00D0     		beq	.LCB3587
 3938 057a FFE1     		b	.L215	@long jump
 3939              	.LCB3587:
 3940 057c 1BE0     		b	.L337
 3941              	.LVL511:
 3942              	.L285:
1113:.\BLEApplication.c ****                         DeviceInfo[i].DeviceList.bdAddr[5],
 3943              		.loc 1 1113 0 discriminator 3
 3944 057e 6B4E     		ldr	r6, .L341+40
 3945 0580 2501     		lsl	r5, r4, #4
 3946 0582 281B     		sub	r0, r5, r4
 3947 0584 4000     		lsl	r0, r0, #1
 3948 0586 3018     		add	r0, r6, r0
 3949 0588 C179     		ldrb	r1, [r0, #7]
1114:.\BLEApplication.c ****                         DeviceInfo[i].DeviceList.bdAddr[4],
 3950              		.loc 1 1114 0 discriminator 3
 3951 058a 4279     		ldrb	r2, [r0, #5]
ARM GAS  C:\Users\Helon\AppData\Local\Temp\ccys0XsA.s 			page 117


1115:.\BLEApplication.c ****                         DeviceInfo[i].DeviceList.bdAddr[3],
 3952              		.loc 1 1115 0 discriminator 3
 3953 058c 0379     		ldrb	r3, [r0, #4]
1116:.\BLEApplication.c ****                         DeviceInfo[i].DeviceList.bdAddr[2],
 3954              		.loc 1 1116 0 discriminator 3
 3955 058e C778     		ldrb	r7, [r0, #3]
 3956 0590 B846     		mov	r8, r7
1117:.\BLEApplication.c ****                         DeviceInfo[i].DeviceList.bdAddr[1],
 3957              		.loc 1 1117 0 discriminator 3
 3958 0592 8778     		ldrb	r7, [r0, #2]
 3959 0594 BC46     		mov	ip, r7
1118:.\BLEApplication.c ****                         DeviceInfo[i].DeviceList.bdAddr[0]                             
 3960              		.loc 1 1118 0 discriminator 3
 3961 0596 4778     		ldrb	r7, [r0, #1]
1119:.\BLEApplication.c ****                       );
 3962              		.loc 1 1119 0 discriminator 3
 3963 0598 281B     		sub	r0, r5, r4
 3964 059a 4000     		lsl	r0, r0, #1
 3965 059c 805D     		ldrb	r0, [r0, r6]
1112:.\BLEApplication.c ****                         DeviceInfo[i].idx,
 3966              		.loc 1 1112 0 discriminator 3
 3967 059e 4546     		mov	r5, r8
 3968 05a0 0095     		str	r5, [sp]
 3969 05a2 6546     		mov	r5, ip
 3970 05a4 0195     		str	r5, [sp, #4]
 3971 05a6 0297     		str	r7, [sp, #8]
 3972 05a8 0390     		str	r0, [sp, #12]
 3973 05aa 6148     		ldr	r0, .L341+44
 3974 05ac FFF7FEFF 		bl	printf
 3975              	.LVL512:
1110:.\BLEApplication.c ****                     {
 3976              		.loc 1 1110 0 discriminator 3
 3977 05b0 0134     		add	r4, r4, #1
 3978              	.LVL513:
 3979 05b2 E4B2     		uxtb	r4, r4
 3980              	.LVL514:
 3981 05b4 00E0     		b	.L284
 3982              	.LVL515:
 3983              	.L337:
 3984 05b6 0024     		mov	r4, #0
 3985              	.LVL516:
 3986              	.L284:
1110:.\BLEApplication.c ****                     {
 3987              		.loc 1 1110 0 is_stmt 0 discriminator 1
 3988 05b8 5E4B     		ldr	r3, .L341+48
 3989 05ba 1B78     		ldrb	r3, [r3]
 3990 05bc 9C42     		cmp	r4, r3
 3991 05be DED3     		bcc	.L285
 3992 05c0 DCE1     		b	.L215
 3993              	.LVL517:
 3994              	.L278:
1128:.\BLEApplication.c ****             }
 3995              		.loc 1 1128 0 is_stmt 1
 3996 05c2 5548     		ldr	r0, .L341+20
 3997 05c4 FFF7FEFF 		bl	puts
 3998              	.LVL518:
 3999 05c8 D8E1     		b	.L215
ARM GAS  C:\Users\Helon\AppData\Local\Temp\ccys0XsA.s 			page 118


 4000              	.L230:
1133:.\BLEApplication.c ****             {
 4001              		.loc 1 1133 0
 4002 05ca 4E4B     		ldr	r3, .L341
 4003 05cc 5B78     		ldrb	r3, [r3, #1]
 4004 05ce 012B     		cmp	r3, #1
 4005 05d0 03D1     		bne	.L286
1135:.\BLEApplication.c ****                 Connect_Device(idx);      
 4006              		.loc 1 1135 0
 4007 05d2 687A     		ldrb	r0, [r5, #9]
 4008              	.LVL519:
1136:.\BLEApplication.c ****             }
 4009              		.loc 1 1136 0
 4010 05d4 FFF7FEFF 		bl	Connect_Device
 4011              	.LVL520:
 4012 05d8 D0E1     		b	.L215
 4013              	.LVL521:
 4014              	.L286:
1141:.\BLEApplication.c ****             }
 4015              		.loc 1 1141 0
 4016 05da 4F48     		ldr	r0, .L341+20
 4017 05dc FFF7FEFF 		bl	puts
 4018              	.LVL522:
 4019 05e0 CCE1     		b	.L215
 4020              	.L231:
1146:.\BLEApplication.c ****             {
 4021              		.loc 1 1146 0
 4022 05e2 504B     		ldr	r3, .L341+32
 4023 05e4 1B78     		ldrb	r3, [r3]
 4024 05e6 022B     		cmp	r3, #2
 4025 05e8 35D1     		bne	.L287
1148:.\BLEApplication.c ****                 switch(idx)
 4026              		.loc 1 1148 0
 4027 05ea EC7A     		ldrb	r4, [r5, #11]
 4028              	.LVL523:
1149:.\BLEApplication.c ****                 {
 4029              		.loc 1 1149 0
 4030 05ec 312C     		cmp	r4, #49
 4031 05ee 00D0     		beq	.LCB3688
 4032 05f0 C4E1     		b	.L215	@long jump
 4033              	.LCB3688:
1152:.\BLEApplication.c ****                         if(CYBLE_ERROR_OK!=API_RESULT)  
 4034              		.loc 1 1152 0
 4035 05f2 464B     		ldr	r3, .L341+8
 4036 05f4 1878     		ldrb	r0, [r3]
 4037 05f6 FFF7FEFF 		bl	CyBle_GapDisconnect
 4038              	.LVL524:
 4039 05fa 021E     		sub	r2, r0, #0
 4040              	.LVL525:
1153:.\BLEApplication.c ****                         {
 4041              		.loc 1 1153 0
 4042 05fc 22D0     		beq	.L338
1155:.\BLEApplication.c ****                         }
 4043              		.loc 1 1155 0
 4044 05fe 211C     		mov	r1, r4
 4045 0600 3039     		sub	r1, r1, #48
 4046 0602 4D48     		ldr	r0, .L341+52
ARM GAS  C:\Users\Helon\AppData\Local\Temp\ccys0XsA.s 			page 119


 4047              	.LVL526:
 4048 0604 FFF7FEFF 		bl	printf
 4049              	.LVL527:
 4050 0608 B8E1     		b	.L215
 4051              	.LVL528:
 4052              	.L292:
1162:.\BLEApplication.c ****                                 {
 4053              		.loc 1 1162 0
 4054 060a 191C     		mov	r1, r3
 4055 060c 4B48     		ldr	r0, .L341+56
 4056 060e C05C     		ldrb	r0, [r0, r3]
 4057 0610 0128     		cmp	r0, #1
 4058 0612 14D1     		bne	.L290
1164:.\BLEApplication.c ****                                     memset(Conn_Or_Disconn_Info.DeviceAddr[i].bdAddr,0,6);
 4059              		.loc 1 1164 0
 4060 0614 494D     		ldr	r5, .L341+56
 4061              	.LVL529:
 4062 0616 013A     		sub	r2, r2, #1
 4063 0618 2A72     		strb	r2, [r5, #8]
1165:.\BLEApplication.c ****                                     Conn_Or_Disconn_Info.Connect_Idx[i]=0;
 4064              		.loc 1 1165 0
 4065 061a DB00     		lsl	r3, r3, #3
 4066              	.LVL530:
 4067 061c 5B1A     		sub	r3, r3, r1
 4068 061e 0833     		add	r3, r3, #8
 4069 0620 5B19     		add	r3, r3, r5
 4070 0622 0022     		mov	r2, #0
 4071 0624 5A70     		strb	r2, [r3, #1]
 4072 0626 9A70     		strb	r2, [r3, #2]
 4073 0628 DA70     		strb	r2, [r3, #3]
 4074 062a 1A71     		strb	r2, [r3, #4]
 4075 062c 5A71     		strb	r2, [r3, #5]
 4076 062e 9A71     		strb	r2, [r3, #6]
1166:.\BLEApplication.c ****                                     Conn_Or_Disconn_Info.Disconn_Idx[0]=idx-0x30;
 4077              		.loc 1 1166 0
 4078 0630 6A54     		strb	r2, [r5, r1]
1167:.\BLEApplication.c ****                                     Conn_or_Disconn_Idx=idx-0x30;
 4079              		.loc 1 1167 0
 4080 0632 303C     		sub	r4, r4, #48
 4081              	.LVL531:
 4082 0634 E4B2     		uxtb	r4, r4
 4083              	.LVL532:
 4084 0636 2C71     		strb	r4, [r5, #4]
1168:.\BLEApplication.c ****                                     break;
 4085              		.loc 1 1168 0
 4086 0638 324B     		ldr	r3, .L341
 4087 063a 9C70     		strb	r4, [r3, #2]
1169:.\BLEApplication.c ****                                 }
 4088              		.loc 1 1169 0
 4089 063c 07E0     		b	.L291
 4090              	.LVL533:
 4091              	.L290:
1160:.\BLEApplication.c ****                             {
 4092              		.loc 1 1160 0 discriminator 2
 4093 063e 0133     		add	r3, r3, #1
 4094              	.LVL534:
 4095 0640 DBB2     		uxtb	r3, r3
ARM GAS  C:\Users\Helon\AppData\Local\Temp\ccys0XsA.s 			page 120


 4096              	.LVL535:
 4097 0642 00E0     		b	.L289
 4098              	.LVL536:
 4099              	.L338:
 4100 0644 0023     		mov	r3, #0
 4101              	.LVL537:
 4102              	.L289:
1160:.\BLEApplication.c ****                             {
 4103              		.loc 1 1160 0 is_stmt 0 discriminator 1
 4104 0646 3D4A     		ldr	r2, .L341+56
 4105 0648 127A     		ldrb	r2, [r2, #8]
 4106 064a 9A42     		cmp	r2, r3
 4107 064c DDD8     		bhi	.L292
 4108              	.LVL538:
 4109              	.L291:
1172:.\BLEApplication.c ****                         }
 4110              		.loc 1 1172 0 is_stmt 1
 4111 064e 3048     		ldr	r0, .L341+12
 4112 0650 FFF7FEFF 		bl	puts
 4113              	.LVL539:
 4114 0654 92E1     		b	.L215
 4115              	.LVL540:
 4116              	.L287:
1185:.\BLEApplication.c ****             }
 4117              		.loc 1 1185 0
 4118 0656 3448     		ldr	r0, .L341+36
 4119 0658 FFF7FEFF 		bl	puts
 4120              	.LVL541:
 4121 065c 8EE1     		b	.L215
 4122              	.L232:
1195:.\BLEApplication.c ****             {
 4123              		.loc 1 1195 0
 4124 065e 314B     		ldr	r3, .L341+32
 4125 0660 1B78     		ldrb	r3, [r3]
 4126 0662 022B     		cmp	r3, #2
 4127 0664 0AD1     		bne	.L293
1197:.\BLEApplication.c ****                 if(idx=='?')
 4128              		.loc 1 1197 0
 4129 0666 2B7A     		ldrb	r3, [r5, #8]
 4130              	.LVL542:
1198:.\BLEApplication.c ****                     printf("+RSSI:<%ddBm>\r\n",CyBle_GetRssi());
 4131              		.loc 1 1198 0
 4132 0668 3F2B     		cmp	r3, #63
 4133 066a 00D0     		beq	.LCB3794
 4134 066c 86E1     		b	.L215	@long jump
 4135              	.LCB3794:
1199:.\BLEApplication.c ****             }
 4136              		.loc 1 1199 0
 4137 066e FFF7FEFF 		bl	CyBle_GetRssi
 4138              	.LVL543:
 4139 0672 011C     		mov	r1, r0
 4140 0674 3248     		ldr	r0, .L341+60
 4141 0676 FFF7FEFF 		bl	printf
 4142              	.LVL544:
 4143 067a 7FE1     		b	.L215
 4144              	.LVL545:
 4145              	.L293:
ARM GAS  C:\Users\Helon\AppData\Local\Temp\ccys0XsA.s 			page 121


1203:.\BLEApplication.c ****             }
 4146              		.loc 1 1203 0
 4147 067c 2A48     		ldr	r0, .L341+36
 4148 067e FFF7FEFF 		bl	puts
 4149              	.LVL546:
 4150 0682 7BE1     		b	.L215
 4151              	.L235:
1208:.\BLEApplication.c ****             if('?'==idx)
 4152              		.loc 1 1208 0
 4153 0684 6B7A     		ldrb	r3, [r5, #9]
 4154              	.LVL547:
1209:.\BLEApplication.c ****             {
 4155              		.loc 1 1209 0
 4156 0686 3F2B     		cmp	r3, #63
 4157 0688 00D0     		beq	.LCB3818
 4158 068a 77E1     		b	.L215	@long jump
 4159              	.LCB3818:
1211:.\BLEApplication.c ****                 testCount=0;
 4160              		.loc 1 1211 0
 4161 068c 1D4C     		ldr	r4, .L341
 4162 068e 2D48     		ldr	r0, .L341+64
 4163 0690 6168     		ldr	r1, [r4, #4]
 4164 0692 FFF7FEFF 		bl	printf
 4165              	.LVL548:
1212:.\BLEApplication.c ****             }
 4166              		.loc 1 1212 0
 4167 0696 0023     		mov	r3, #0
 4168 0698 6360     		str	r3, [r4, #4]
 4169 069a 6FE1     		b	.L215
 4170              	.LVL549:
 4171              	.L236:
1256:.\BLEApplication.c ****             if((CYBLE_STATE_CONNECTED==CyBle_GetState())&&(Central==Role))//‰∏ªÊú∫Ê®°Âºè‰∏ã‰∏îÊòØAT
 4172              		.loc 1 1256 0
 4173 069c AA7A     		ldrb	r2, [r5, #10]
 4174              	.LVL550:
1257:.\BLEApplication.c ****             {                  
 4175              		.loc 1 1257 0
 4176 069e 214B     		ldr	r3, .L341+32
 4177 06a0 1B78     		ldrb	r3, [r3]
 4178 06a2 022B     		cmp	r3, #2
 4179 06a4 23D1     		bne	.L294
1257:.\BLEApplication.c ****             {                  
 4180              		.loc 1 1257 0 is_stmt 0 discriminator 1
 4181 06a6 1749     		ldr	r1, .L341
 4182 06a8 4978     		ldrb	r1, [r1, #1]
 4183 06aa 0129     		cmp	r1, #1
 4184 06ac 1FD1     		bne	.L294
1259:.\BLEApplication.c ****                 {
 4185              		.loc 1 1259 0 is_stmt 1
 4186 06ae 312A     		cmp	r2, #49
 4187 06b0 02D0     		beq	.L295
 4188 06b2 3F2A     		cmp	r2, #63
 4189 06b4 17D0     		beq	.L296
 4190 06b6 61E1     		b	.L215
 4191              	.L295:
1275:.\BLEApplication.c ****                         writeRequestData.attrHandle=CYBLE_TROUGHPUT_SERVICE_CUSTOM_CHARACTERISTIC_C
 4192              		.loc 1 1275 0
ARM GAS  C:\Users\Helon\AppData\Local\Temp\ccys0XsA.s 			page 122


 4193 06b8 2349     		ldr	r1, .L341+68
 4194 06ba 0123     		mov	r3, #1
 4195 06bc 0A68     		ldr	r2, [r1]
 4196              	.LVL551:
 4197 06be 1370     		strb	r3, [r2]
 4198              	.LVL552:
1276:.\BLEApplication.c ****                         API_RESULT=CyBle_GattcWriteWithoutResponse(cyBle_connHandle, &writeRequestD
 4199              		.loc 1 1276 0
 4200 06c0 0E33     		add	r3, r3, #14
 4201 06c2 0B81     		strh	r3, [r1, #8]
1277:.\BLEApplication.c ****                         if(CYBLE_ERROR_OK==API_RESULT)
 4202              		.loc 1 1277 0
 4203 06c4 114A     		ldr	r2, .L341+8
 4204 06c6 1378     		ldrb	r3, [r2]
 4205 06c8 5078     		ldrb	r0, [r2, #1]
 4206 06ca 0002     		lsl	r0, r0, #8
 4207 06cc 1843     		orr	r0, r3
 4208 06ce FFF7FEFF 		bl	CyBle_GattcWriteWithoutResponse
 4209              	.LVL553:
1278:.\BLEApplication.c ****                         {
 4210              		.loc 1 1278 0
 4211 06d2 0028     		cmp	r0, #0
 4212 06d4 00D0     		beq	.LCB3872
 4213 06d6 51E1     		b	.L215	@long jump
 4214              	.LCB3872:
1280:.\BLEApplication.c ****                             printf("+MODE=<THROUGHT_MODE>\r\n");
 4215              		.loc 1 1280 0
 4216 06d8 0122     		mov	r2, #1
 4217 06da 0A4B     		ldr	r3, .L341
 4218 06dc 5A72     		strb	r2, [r3, #9]
1281:.\BLEApplication.c ****                         }
 4219              		.loc 1 1281 0
 4220 06de 1B48     		ldr	r0, .L341+72
 4221              	.LVL554:
 4222 06e0 FFF7FEFF 		bl	puts
 4223              	.LVL555:
 4224 06e4 4AE1     		b	.L215
 4225              	.LVL556:
 4226              	.L296:
1286:.\BLEApplication.c ****                     break;
 4227              		.loc 1 1286 0
 4228 06e6 1A48     		ldr	r0, .L341+76
 4229 06e8 FFF7FEFF 		bl	puts
 4230              	.LVL557:
1287:.\BLEApplication.c **** //                        API_RESULT=CyBle_GattcReadCharacteristicValue(cyBle_connHandle,readReques
 4231              		.loc 1 1287 0
 4232 06ec 46E1     		b	.L215
 4233              	.LVL558:
 4234              	.L294:
1294:.\BLEApplication.c ****             {
 4235              		.loc 1 1294 0
 4236 06ee 022B     		cmp	r3, #2
 4237 06f0 3BD1     		bne	.L297
1294:.\BLEApplication.c ****             {
 4238              		.loc 1 1294 0 is_stmt 0 discriminator 1
 4239 06f2 044B     		ldr	r3, .L341
 4240 06f4 5B78     		ldrb	r3, [r3, #1]
ARM GAS  C:\Users\Helon\AppData\Local\Temp\ccys0XsA.s 			page 123


 4241 06f6 002B     		cmp	r3, #0
 4242 06f8 37D1     		bne	.L297
1296:.\BLEApplication.c ****                 {
 4243              		.loc 1 1296 0 is_stmt 1
 4244 06fa 312A     		cmp	r2, #49
 4245 06fc 2AD0     		beq	.L298
 4246 06fe 3F2A     		cmp	r2, #63
 4247 0700 2FD0     		beq	.L299
 4248 0702 3BE1     		b	.L215
 4249              	.L342:
 4250              		.align	2
 4251              	.L341:
 4252 0704 00000000 		.word	.LANCHOR0
 4253 0708 00000000 		.word	.LANCHOR1
 4254 070c 00000000 		.word	cyBle_connHandle
 4255 0710 8C010000 		.word	.LC63
 4256 0714 3C040000 		.word	.LC157
 4257 0718 CC010000 		.word	.LC70
 4258 071c C8040000 		.word	.LC175
 4259 0720 DC040000 		.word	.LC177
 4260 0724 00000000 		.word	cyBle_state
 4261 0728 C0010000 		.word	.LC68
 4262 072c 00000000 		.word	DeviceInfo
 4263 0730 F0040000 		.word	.LC180
 4264 0734 00000000 		.word	DeviceCount
 4265 0738 74010000 		.word	.LC60
 4266 073c 00000000 		.word	Conn_Or_Disconn_Info
 4267 0740 1C050000 		.word	.LC185
 4268 0744 2C050000 		.word	.LC187
 4269 0748 00000000 		.word	writeRequestData
 4270 074c A0000000 		.word	.LC24
 4271 0750 B8000000 		.word	.LC26
 4272              	.L298:
1299:.\BLEApplication.c ****                         printf("+MODE=<THROUGHT_MODE>\r\n");
 4273              		.loc 1 1299 0
 4274 0754 0122     		mov	r2, #1
 4275              	.LVL559:
 4276 0756 8B4B     		ldr	r3, .L343
 4277 0758 5A72     		strb	r2, [r3, #9]
1300:.\BLEApplication.c ****                     break;
 4278              		.loc 1 1300 0
 4279 075a 8B48     		ldr	r0, .L343+4
 4280 075c FFF7FEFF 		bl	puts
 4281              	.LVL560:
1301:.\BLEApplication.c ****                     case '?'://‰ªéÊú∫Ê®°Âºè‰∏ãÔºåËÉΩÊé•Êî∂Âà∞ËØ•ÂëΩ‰ª§Âàô‰∏ÄÂÆöÊòØATÂëΩ‰ª§Ê®°Âºè
 4282              		.loc 1 1301 0
 4283 0760 0CE1     		b	.L215
 4284              	.LVL561:
 4285              	.L299:
1303:.\BLEApplication.c ****                     break;
 4286              		.loc 1 1303 0
 4287 0762 8A48     		ldr	r0, .L343+8
 4288 0764 FFF7FEFF 		bl	puts
 4289              	.LVL562:
1304:.\BLEApplication.c ****                 }
 4290              		.loc 1 1304 0
 4291 0768 08E1     		b	.L215
ARM GAS  C:\Users\Helon\AppData\Local\Temp\ccys0XsA.s 			page 124


 4292              	.LVL563:
 4293              	.L297:
1311:.\BLEApplication.c ****             }
 4294              		.loc 1 1311 0
 4295 076a 8948     		ldr	r0, .L343+12
 4296 076c FFF7FEFF 		bl	puts
 4297              	.LVL564:
 4298 0770 04E1     		b	.L215
 4299              	.LVL565:
 4300              	.L237:
1316:.\BLEApplication.c ****             if(idx=='?')
 4301              		.loc 1 1316 0
 4302 0772 6B7A     		ldrb	r3, [r5, #9]
 4303              	.LVL566:
1317:.\BLEApplication.c ****             {
 4304              		.loc 1 1317 0
 4305 0774 3F2B     		cmp	r3, #63
 4306 0776 00D0     		beq	.LCB3969
 4307 0778 00E1     		b	.L215	@long jump
 4308              	.LCB3969:
1319:.\BLEApplication.c ****                 switch(STAUS_T)
 4309              		.loc 1 1319 0
 4310 077a 864B     		ldr	r3, .L343+16
 4311              	.LVL567:
 4312 077c 1B78     		ldrb	r3, [r3]
 4313              	.LVL568:
1320:.\BLEApplication.c ****                 {
 4314              		.loc 1 1320 0
 4315 077e 062B     		cmp	r3, #6
 4316 0780 00D9     		bls	.LCB3975
 4317 0782 FBE0     		b	.L215	@long jump
 4318              	.LCB3975:
 4319 0784 9B00     		lsl	r3, r3, #2
 4320              	.LVL569:
 4321 0786 844A     		ldr	r2, .L343+20
 4322 0788 D358     		ldr	r3, [r2, r3]
 4323 078a 9F46     		mov	pc, r3
 4324              		.section	.rodata
 4325              		.align	2
 4326              	.L301:
 4327 03e0 8C070000 		.word	.L300
 4328 03e4 94070000 		.word	.L302
 4329 03e8 9C070000 		.word	.L303
 4330 03ec A4070000 		.word	.L304
 4331 03f0 AC070000 		.word	.L305
 4332 03f4 B4070000 		.word	.L306
 4333 03f8 BC070000 		.word	.L307
 4334              		.section	.text.Parser_UartData
 4335              	.L300:
1323:.\BLEApplication.c ****                     break;
 4336              		.loc 1 1323 0
 4337 078c 8348     		ldr	r0, .L343+24
 4338 078e FFF7FEFF 		bl	puts
 4339              	.LVL570:
1324:.\BLEApplication.c ****                     case 1:
 4340              		.loc 1 1324 0
 4341 0792 F3E0     		b	.L215
ARM GAS  C:\Users\Helon\AppData\Local\Temp\ccys0XsA.s 			page 125


 4342              	.LVL571:
 4343              	.L302:
1326:.\BLEApplication.c ****                     break;
 4344              		.loc 1 1326 0
 4345 0794 8248     		ldr	r0, .L343+28
 4346 0796 FFF7FEFF 		bl	puts
 4347              	.LVL572:
1327:.\BLEApplication.c ****                     case 2:
 4348              		.loc 1 1327 0
 4349 079a EFE0     		b	.L215
 4350              	.LVL573:
 4351              	.L303:
1329:.\BLEApplication.c ****                     break;
 4352              		.loc 1 1329 0
 4353 079c 8148     		ldr	r0, .L343+32
 4354 079e FFF7FEFF 		bl	puts
 4355              	.LVL574:
1330:.\BLEApplication.c ****                     case 3:
 4356              		.loc 1 1330 0
 4357 07a2 EBE0     		b	.L215
 4358              	.LVL575:
 4359              	.L304:
1332:.\BLEApplication.c ****                     break;
 4360              		.loc 1 1332 0
 4361 07a4 8048     		ldr	r0, .L343+36
 4362 07a6 FFF7FEFF 		bl	puts
 4363              	.LVL576:
1333:.\BLEApplication.c ****                     case 4:
 4364              		.loc 1 1333 0
 4365 07aa E7E0     		b	.L215
 4366              	.LVL577:
 4367              	.L305:
1335:.\BLEApplication.c ****                     break;
 4368              		.loc 1 1335 0
 4369 07ac 7F48     		ldr	r0, .L343+40
 4370 07ae FFF7FEFF 		bl	puts
 4371              	.LVL578:
1336:.\BLEApplication.c ****                     case 5:
 4372              		.loc 1 1336 0
 4373 07b2 E3E0     		b	.L215
 4374              	.LVL579:
 4375              	.L306:
1338:.\BLEApplication.c ****                     break;
 4376              		.loc 1 1338 0
 4377 07b4 7E48     		ldr	r0, .L343+44
 4378 07b6 FFF7FEFF 		bl	puts
 4379              	.LVL580:
1339:.\BLEApplication.c ****                     case 6:
 4380              		.loc 1 1339 0
 4381 07ba DFE0     		b	.L215
 4382              	.LVL581:
 4383              	.L307:
1341:.\BLEApplication.c ****                     break;
 4384              		.loc 1 1341 0
 4385 07bc 7D48     		ldr	r0, .L343+48
 4386 07be FFF7FEFF 		bl	puts
 4387              	.LVL582:
ARM GAS  C:\Users\Helon\AppData\Local\Temp\ccys0XsA.s 			page 126


1342:.\BLEApplication.c ****                     default:
 4388              		.loc 1 1342 0
 4389 07c2 DBE0     		b	.L215
 4390              	.LVL583:
 4391              	.L238:
1350:.\BLEApplication.c ****             if(CYBLE_STATE_CONNECTED!=CyBle_GetState())
 4392              		.loc 1 1350 0
 4393 07c4 2A7A     		ldrb	r2, [r5, #8]
 4394              	.LVL584:
1351:.\BLEApplication.c ****             {
 4395              		.loc 1 1351 0
 4396 07c6 734B     		ldr	r3, .L343+16
 4397 07c8 1B78     		ldrb	r3, [r3]
 4398 07ca 022B     		cmp	r3, #2
 4399 07cc 23D0     		beq	.L308
1353:.\BLEApplication.c ****                 {
 4400              		.loc 1 1353 0
 4401 07ce 312A     		cmp	r2, #49
 4402 07d0 12D1     		bne	.L309
1355:.\BLEApplication.c ****                     {
 4403              		.loc 1 1355 0
 4404 07d2 032B     		cmp	r3, #3
 4405 07d4 0CD0     		beq	.L310
1357:.\BLEApplication.c ****                         if(CYBLE_ERROR_OK==API_RESULT)
 4406              		.loc 1 1357 0
 4407 07d6 0020     		mov	r0, #0
 4408 07d8 FFF7FEFF 		bl	CyBle_GappStartAdvertisement
 4409              	.LVL585:
1358:.\BLEApplication.c ****                         {
 4410              		.loc 1 1358 0
 4411 07dc 0028     		cmp	r0, #0
 4412 07de 03D1     		bne	.L311
1361:.\BLEApplication.c ****                         }
 4413              		.loc 1 1361 0
 4414 07e0 7548     		ldr	r0, .L343+52
 4415              	.LVL586:
 4416 07e2 FFF7FEFF 		bl	puts
 4417              	.LVL587:
 4418 07e6 C9E0     		b	.L215
 4419              	.LVL588:
 4420              	.L311:
1365:.\BLEApplication.c ****                         }
 4421              		.loc 1 1365 0
 4422 07e8 7448     		ldr	r0, .L343+56
 4423              	.LVL589:
 4424 07ea FFF7FEFF 		bl	puts
 4425              	.LVL590:
 4426 07ee C5E0     		b	.L215
 4427              	.LVL591:
 4428              	.L310:
1371:.\BLEApplication.c ****                     }
 4429              		.loc 1 1371 0
 4430 07f0 6748     		ldr	r0, .L343+12
 4431 07f2 FFF7FEFF 		bl	puts
 4432              	.LVL592:
 4433 07f6 C1E0     		b	.L215
 4434              	.LVL593:
ARM GAS  C:\Users\Helon\AppData\Local\Temp\ccys0XsA.s 			page 127


 4435              	.L309:
1374:.\BLEApplication.c ****                 {
 4436              		.loc 1 1374 0
 4437 07f8 302A     		cmp	r2, #48
 4438 07fa 00D0     		beq	.LCB4112
 4439 07fc BEE0     		b	.L215	@long jump
 4440              	.LCB4112:
1376:.\BLEApplication.c ****                     {
 4441              		.loc 1 1376 0
 4442 07fe 032B     		cmp	r3, #3
 4443 0800 05D1     		bne	.L312
1378:.\BLEApplication.c ****                         printf("AT+OK\r\n");
 4444              		.loc 1 1378 0
 4445 0802 FFF7FEFF 		bl	CyBle_GappStopAdvertisement
 4446              	.LVL594:
1379:.\BLEApplication.c **** //                        printf("+ADV=<DISABLE>\r\n");                        
 4447              		.loc 1 1379 0
 4448 0806 6C48     		ldr	r0, .L343+52
 4449 0808 FFF7FEFF 		bl	puts
 4450              	.LVL595:
 4451 080c B6E0     		b	.L215
 4452              	.LVL596:
 4453              	.L312:
1385:.\BLEApplication.c ****                     }
 4454              		.loc 1 1385 0
 4455 080e 6048     		ldr	r0, .L343+12
 4456 0810 FFF7FEFF 		bl	puts
 4457              	.LVL597:
 4458 0814 B2E0     		b	.L215
 4459              	.LVL598:
 4460              	.L308:
1392:.\BLEApplication.c ****             }
 4461              		.loc 1 1392 0
 4462 0816 5E48     		ldr	r0, .L343+12
 4463 0818 FFF7FEFF 		bl	puts
 4464              	.LVL599:
 4465 081c AEE0     		b	.L215
 4466              	.LVL600:
 4467              	.L240:
1397:.\BLEApplication.c ****             if(CYBLE_STATE_CONNECTED!=CyBle_GetState())
 4468              		.loc 1 1397 0
 4469 081e 6B7A     		ldrb	r3, [r5, #9]
 4470              	.LVL601:
1398:.\BLEApplication.c ****             {                
 4471              		.loc 1 1398 0
 4472 0820 5C4A     		ldr	r2, .L343+16
 4473 0822 1278     		ldrb	r2, [r2]
 4474 0824 022A     		cmp	r2, #2
 4475 0826 7AD0     		beq	.L313
1400:.\BLEApplication.c ****                 {
 4476              		.loc 1 1400 0
 4477 0828 303B     		sub	r3, r3, #48
 4478              	.LVL602:
 4479 082a DAB2     		uxtb	r2, r3
 4480 082c 0F2A     		cmp	r2, #15
 4481 082e 00D9     		bls	.LCB4155
 4482 0830 A4E0     		b	.L215	@long jump
ARM GAS  C:\Users\Helon\AppData\Local\Temp\ccys0XsA.s 			page 128


 4483              	.LCB4155:
 4484 0832 9300     		lsl	r3, r2, #2
 4485              	.LVL603:
 4486 0834 624A     		ldr	r2, .L343+60
 4487 0836 D358     		ldr	r3, [r2, r3]
 4488 0838 9F46     		mov	pc, r3
 4489              		.section	.rodata
 4490              		.align	2
 4491              	.L315:
 4492 03fc 3A080000 		.word	.L314
 4493 0400 5C080000 		.word	.L316
 4494 0404 7E080000 		.word	.L317
 4495 0408 A0080000 		.word	.L318
 4496 040c C2080000 		.word	.L319
 4497 0410 7C090000 		.word	.L215
 4498 0414 7C090000 		.word	.L215
 4499 0418 7C090000 		.word	.L215
 4500 041c 7C090000 		.word	.L215
 4501 0420 7C090000 		.word	.L215
 4502 0424 7C090000 		.word	.L215
 4503 0428 7C090000 		.word	.L215
 4504 042c 7C090000 		.word	.L215
 4505 0430 7C090000 		.word	.L215
 4506 0434 7C090000 		.word	.L215
 4507 0438 E4080000 		.word	.L320
 4508              		.section	.text.Parser_UartData
 4509              	.L314:
1403:.\BLEApplication.c ****                     if(API_RESULT==CYBLE_ERROR_OK)
 4510              		.loc 1 1403 0
 4511 083a 0020     		mov	r0, #0
 4512 083c FFF7FEFF 		bl	CyBle_GapSetIoCap
 4513              	.LVL604:
1404:.\BLEApplication.c ****                     {
 4514              		.loc 1 1404 0
 4515 0840 0028     		cmp	r0, #0
 4516 0842 07D1     		bne	.L321
1407:.\BLEApplication.c ****                         iocapability=CYBLE_GAP_IOCAP_DISPLAY_ONLY;
 4517              		.loc 1 1407 0
 4518 0844 5C48     		ldr	r0, .L343+52
 4519              	.LVL605:
 4520 0846 FFF7FEFF 		bl	puts
 4521              	.LVL606:
1408:.\BLEApplication.c ****                     }
 4522              		.loc 1 1408 0
 4523 084a 0021     		mov	r1, #0
 4524 084c 4C23     		mov	r3, #76
 4525 084e 4D4A     		ldr	r2, .L343
 4526 0850 D154     		strb	r1, [r2, r3]
 4527 0852 93E0     		b	.L215
 4528              	.LVL607:
 4529              	.L321:
1412:.\BLEApplication.c ****                     }
 4530              		.loc 1 1412 0
 4531 0854 5948     		ldr	r0, .L343+56
 4532              	.LVL608:
 4533 0856 FFF7FEFF 		bl	puts
 4534              	.LVL609:
ARM GAS  C:\Users\Helon\AppData\Local\Temp\ccys0XsA.s 			page 129


 4535 085a 8FE0     		b	.L215
 4536              	.LVL610:
 4537              	.L316:
1416:.\BLEApplication.c ****                     if(API_RESULT==CYBLE_ERROR_OK)
 4538              		.loc 1 1416 0
 4539 085c 0120     		mov	r0, #1
 4540 085e FFF7FEFF 		bl	CyBle_GapSetIoCap
 4541              	.LVL611:
1417:.\BLEApplication.c ****                     {
 4542              		.loc 1 1417 0
 4543 0862 0028     		cmp	r0, #0
 4544 0864 07D1     		bne	.L322
1420:.\BLEApplication.c ****                         iocapability=CYBLE_GAP_IOCAP_DISPLAY_YESNO;
 4545              		.loc 1 1420 0
 4546 0866 5448     		ldr	r0, .L343+52
 4547              	.LVL612:
 4548 0868 FFF7FEFF 		bl	puts
 4549              	.LVL613:
1421:.\BLEApplication.c ****                     }
 4550              		.loc 1 1421 0
 4551 086c 0121     		mov	r1, #1
 4552 086e 4C23     		mov	r3, #76
 4553 0870 444A     		ldr	r2, .L343
 4554 0872 D154     		strb	r1, [r2, r3]
 4555 0874 82E0     		b	.L215
 4556              	.LVL614:
 4557              	.L322:
1425:.\BLEApplication.c ****                     }
 4558              		.loc 1 1425 0
 4559 0876 5148     		ldr	r0, .L343+56
 4560              	.LVL615:
 4561 0878 FFF7FEFF 		bl	puts
 4562              	.LVL616:
 4563 087c 7EE0     		b	.L215
 4564              	.LVL617:
 4565              	.L317:
1429:.\BLEApplication.c ****                     if(API_RESULT==CYBLE_ERROR_OK)
 4566              		.loc 1 1429 0
 4567 087e 0220     		mov	r0, #2
 4568 0880 FFF7FEFF 		bl	CyBle_GapSetIoCap
 4569              	.LVL618:
1430:.\BLEApplication.c ****                     {
 4570              		.loc 1 1430 0
 4571 0884 0028     		cmp	r0, #0
 4572 0886 07D1     		bne	.L323
1433:.\BLEApplication.c ****                         iocapability=CYBLE_GAP_IOCAP_KEYBOARD_ONLY;
 4573              		.loc 1 1433 0
 4574 0888 4B48     		ldr	r0, .L343+52
 4575              	.LVL619:
 4576 088a FFF7FEFF 		bl	puts
 4577              	.LVL620:
1434:.\BLEApplication.c ****                     }
 4578              		.loc 1 1434 0
 4579 088e 0221     		mov	r1, #2
 4580 0890 4C23     		mov	r3, #76
 4581 0892 3C4A     		ldr	r2, .L343
 4582 0894 D154     		strb	r1, [r2, r3]
ARM GAS  C:\Users\Helon\AppData\Local\Temp\ccys0XsA.s 			page 130


 4583 0896 71E0     		b	.L215
 4584              	.LVL621:
 4585              	.L323:
1438:.\BLEApplication.c ****                     }
 4586              		.loc 1 1438 0
 4587 0898 4848     		ldr	r0, .L343+56
 4588              	.LVL622:
 4589 089a FFF7FEFF 		bl	puts
 4590              	.LVL623:
 4591 089e 6DE0     		b	.L215
 4592              	.LVL624:
 4593              	.L318:
1442:.\BLEApplication.c ****                     if(API_RESULT==CYBLE_ERROR_OK)
 4594              		.loc 1 1442 0
 4595 08a0 0320     		mov	r0, #3
 4596 08a2 FFF7FEFF 		bl	CyBle_GapSetIoCap
 4597              	.LVL625:
1443:.\BLEApplication.c ****                     {
 4598              		.loc 1 1443 0
 4599 08a6 0028     		cmp	r0, #0
 4600 08a8 07D1     		bne	.L324
1446:.\BLEApplication.c ****                         iocapability=CYBLE_GAP_IOCAP_NOINPUT_NOOUTPUT;
 4601              		.loc 1 1446 0
 4602 08aa 4348     		ldr	r0, .L343+52
 4603              	.LVL626:
 4604 08ac FFF7FEFF 		bl	puts
 4605              	.LVL627:
1447:.\BLEApplication.c ****                     }
 4606              		.loc 1 1447 0
 4607 08b0 0321     		mov	r1, #3
 4608 08b2 4C23     		mov	r3, #76
 4609 08b4 334A     		ldr	r2, .L343
 4610 08b6 D154     		strb	r1, [r2, r3]
 4611 08b8 60E0     		b	.L215
 4612              	.LVL628:
 4613              	.L324:
1451:.\BLEApplication.c ****                     }
 4614              		.loc 1 1451 0
 4615 08ba 4048     		ldr	r0, .L343+56
 4616              	.LVL629:
 4617 08bc FFF7FEFF 		bl	puts
 4618              	.LVL630:
 4619 08c0 5CE0     		b	.L215
 4620              	.LVL631:
 4621              	.L319:
1455:.\BLEApplication.c ****                     if(API_RESULT==CYBLE_ERROR_OK)
 4622              		.loc 1 1455 0
 4623 08c2 0420     		mov	r0, #4
 4624 08c4 FFF7FEFF 		bl	CyBle_GapSetIoCap
 4625              	.LVL632:
1456:.\BLEApplication.c ****                     {
 4626              		.loc 1 1456 0
 4627 08c8 0028     		cmp	r0, #0
 4628 08ca 07D1     		bne	.L325
1459:.\BLEApplication.c ****                         iocapability=CYBLE_GAP_IOCAP_KEYBOARD_DISPLAY;
 4629              		.loc 1 1459 0
 4630 08cc 3A48     		ldr	r0, .L343+52
ARM GAS  C:\Users\Helon\AppData\Local\Temp\ccys0XsA.s 			page 131


 4631              	.LVL633:
 4632 08ce FFF7FEFF 		bl	puts
 4633              	.LVL634:
1460:.\BLEApplication.c ****                     }
 4634              		.loc 1 1460 0
 4635 08d2 0421     		mov	r1, #4
 4636 08d4 4C23     		mov	r3, #76
 4637 08d6 2B4A     		ldr	r2, .L343
 4638 08d8 D154     		strb	r1, [r2, r3]
 4639 08da 4FE0     		b	.L215
 4640              	.LVL635:
 4641              	.L325:
1464:.\BLEApplication.c ****                     }
 4642              		.loc 1 1464 0
 4643 08dc 3748     		ldr	r0, .L343+56
 4644              	.LVL636:
 4645 08de FFF7FEFF 		bl	puts
 4646              	.LVL637:
 4647 08e2 4BE0     		b	.L215
 4648              	.LVL638:
 4649              	.L320:
1468:.\BLEApplication.c ****                         {
 4650              		.loc 1 1468 0
 4651 08e4 274A     		ldr	r2, .L343
 4652 08e6 4C23     		mov	r3, #76
 4653 08e8 D15C     		ldrb	r1, [r2, r3]
 4654 08ea 0429     		cmp	r1, #4
 4655 08ec 46D8     		bhi	.L215
 4656 08ee 8B00     		lsl	r3, r1, #2
 4657 08f0 344A     		ldr	r2, .L343+64
 4658 08f2 D358     		ldr	r3, [r2, r3]
 4659 08f4 9F46     		mov	pc, r3
 4660              		.section	.rodata
 4661              		.align	2
 4662              	.L327:
 4663 043c F6080000 		.word	.L326
 4664 0440 FE080000 		.word	.L328
 4665 0444 06090000 		.word	.L329
 4666 0448 0E090000 		.word	.L330
 4667 044c 16090000 		.word	.L331
 4668              		.section	.text.Parser_UartData
 4669              	.L326:
1471:.\BLEApplication.c ****                             break;
 4670              		.loc 1 1471 0
 4671 08f6 3448     		ldr	r0, .L343+68
 4672 08f8 FFF7FEFF 		bl	puts
 4673              	.LVL639:
1472:.\BLEApplication.c ****                             case 1:
 4674              		.loc 1 1472 0
 4675 08fc 3EE0     		b	.L215
 4676              	.LVL640:
 4677              	.L328:
1474:.\BLEApplication.c ****                             break;
 4678              		.loc 1 1474 0
 4679 08fe 3348     		ldr	r0, .L343+72
 4680 0900 FFF7FEFF 		bl	puts
 4681              	.LVL641:
ARM GAS  C:\Users\Helon\AppData\Local\Temp\ccys0XsA.s 			page 132


1475:.\BLEApplication.c ****                             case 2:
 4682              		.loc 1 1475 0
 4683 0904 3AE0     		b	.L215
 4684              	.LVL642:
 4685              	.L329:
1477:.\BLEApplication.c ****                             break;
 4686              		.loc 1 1477 0
 4687 0906 3248     		ldr	r0, .L343+76
 4688 0908 FFF7FEFF 		bl	puts
 4689              	.LVL643:
1478:.\BLEApplication.c ****                             case 3:
 4690              		.loc 1 1478 0
 4691 090c 36E0     		b	.L215
 4692              	.LVL644:
 4693              	.L330:
1480:.\BLEApplication.c ****                             break;
 4694              		.loc 1 1480 0
 4695 090e 3148     		ldr	r0, .L343+80
 4696 0910 FFF7FEFF 		bl	puts
 4697              	.LVL645:
1481:.\BLEApplication.c ****                             case 4:
 4698              		.loc 1 1481 0
 4699 0914 32E0     		b	.L215
 4700              	.LVL646:
 4701              	.L331:
1483:.\BLEApplication.c ****                             break;
 4702              		.loc 1 1483 0
 4703 0916 3048     		ldr	r0, .L343+84
 4704 0918 FFF7FEFF 		bl	puts
 4705              	.LVL647:
1484:.\BLEApplication.c ****                         }
 4706              		.loc 1 1484 0
 4707 091c 2EE0     		b	.L215
 4708              	.LVL648:
 4709              	.L313:
1492:.\BLEApplication.c ****             }
 4710              		.loc 1 1492 0
 4711 091e 1C48     		ldr	r0, .L343+12
 4712 0920 FFF7FEFF 		bl	puts
 4713              	.LVL649:
 4714 0924 2AE0     		b	.L215
 4715              	.LVL650:
 4716              	.L239:
1496:.\BLEApplication.c ****             if(idx=='?')
 4717              		.loc 1 1496 0
 4718 0926 2B7A     		ldrb	r3, [r5, #8]
 4719              	.LVL651:
1497:.\BLEApplication.c ****             {
 4720              		.loc 1 1497 0
 4721 0928 3F2B     		cmp	r3, #63
 4722 092a 0BD1     		bne	.L332
1499:.\BLEApplication.c ****                     printf("+AUTH=<ENABLE>\r\n");
 4723              		.loc 1 1499 0
 4724 092c 154B     		ldr	r3, .L343
 4725              	.LVL652:
 4726 092e DB78     		ldrb	r3, [r3, #3]
 4727 0930 002B     		cmp	r3, #0
ARM GAS  C:\Users\Helon\AppData\Local\Temp\ccys0XsA.s 			page 133


 4728 0932 03D0     		beq	.L333
1500:.\BLEApplication.c ****                 else
 4729              		.loc 1 1500 0
 4730 0934 2948     		ldr	r0, .L343+88
 4731 0936 FFF7FEFF 		bl	puts
 4732              	.LVL653:
 4733 093a 1FE0     		b	.L215
 4734              	.LVL654:
 4735              	.L333:
1502:.\BLEApplication.c ****             }
 4736              		.loc 1 1502 0
 4737 093c 2848     		ldr	r0, .L343+92
 4738 093e FFF7FEFF 		bl	puts
 4739              	.LVL655:
 4740 0942 1BE0     		b	.L215
 4741              	.LVL656:
 4742              	.L332:
1504:.\BLEApplication.c ****             {
 4743              		.loc 1 1504 0
 4744 0944 312B     		cmp	r3, #49
 4745 0946 19D1     		bne	.L215
1506:.\BLEApplication.c ****                 {
 4746              		.loc 1 1506 0
 4747 0948 0E4B     		ldr	r3, .L343
 4748              	.LVL657:
 4749 094a DB78     		ldrb	r3, [r3, #3]
 4750 094c 002B     		cmp	r3, #0
 4751 094e 0ED1     		bne	.L334
1509:.\BLEApplication.c ****                     if(API_RESULT==CYBLE_ERROR_OK)
 4752              		.loc 1 1509 0
 4753 0950 244B     		ldr	r3, .L343+96
 4754 0952 1878     		ldrb	r0, [r3]
 4755 0954 2449     		ldr	r1, .L343+100
 4756 0956 FFF7FEFF 		bl	CyBle_GapAuthReq
 4757              	.LVL658:
1510:.\BLEApplication.c ****                     {
 4758              		.loc 1 1510 0
 4759 095a 0028     		cmp	r0, #0
 4760 095c 03D1     		bne	.L335
1512:.\BLEApplication.c ****                     }
 4761              		.loc 1 1512 0
 4762 095e 1648     		ldr	r0, .L343+52
 4763              	.LVL659:
 4764 0960 FFF7FEFF 		bl	puts
 4765              	.LVL660:
 4766 0964 0AE0     		b	.L215
 4767              	.LVL661:
 4768              	.L335:
1516:.\BLEApplication.c ****                     }
 4769              		.loc 1 1516 0
 4770 0966 1548     		ldr	r0, .L343+56
 4771              	.LVL662:
 4772 0968 FFF7FEFF 		bl	puts
 4773              	.LVL663:
 4774 096c 06E0     		b	.L215
 4775              	.LVL664:
 4776              	.L334:
ARM GAS  C:\Users\Helon\AppData\Local\Temp\ccys0XsA.s 			page 134


1521:.\BLEApplication.c ****                 }
 4777              		.loc 1 1521 0
 4778 096e 0848     		ldr	r0, .L343+12
 4779 0970 FFF7FEFF 		bl	puts
 4780              	.LVL665:
 4781 0974 02E0     		b	.L215
 4782              	.LVL666:
 4783              	.L217:
1528:.\BLEApplication.c ****         break;
 4784              		.loc 1 1528 0
 4785 0976 1D48     		ldr	r0, .L343+104
 4786              	.LVL667:
 4787 0978 FFF7FEFF 		bl	puts
 4788              	.LVL668:
 4789              	.L215:
1532:.\BLEApplication.c **** 
 4790              		.loc 1 1532 0
 4791 097c 32B0     		add	sp, sp, #200
 4792              		@ sp needed
 4793 097e 04BC     		pop	{r2}
 4794 0980 9046     		mov	r8, r2
 4795 0982 F0BD     		pop	{r4, r5, r6, r7, pc}
 4796              	.L344:
 4797              		.align	2
 4798              	.L343:
 4799 0984 00000000 		.word	.LANCHOR0
 4800 0988 A0000000 		.word	.LC24
 4801 098c B8000000 		.word	.LC26
 4802 0990 C0010000 		.word	.LC68
 4803 0994 00000000 		.word	cyBle_state
 4804 0998 E0030000 		.word	.L301
 4805 099c 34050000 		.word	.LC193
 4806 09a0 4C050000 		.word	.LC195
 4807 09a4 6C050000 		.word	.LC197
 4808 09a8 88050000 		.word	.LC199
 4809 09ac A4050000 		.word	.LC201
 4810 09b0 C0050000 		.word	.LC203
 4811 09b4 DC050000 		.word	.LC205
 4812 09b8 8C010000 		.word	.LC63
 4813 09bc 3C040000 		.word	.LC157
 4814 09c0 FC030000 		.word	.L315
 4815 09c4 3C040000 		.word	.L327
 4816 09c8 FC050000 		.word	.LC209
 4817 09cc 14060000 		.word	.LC211
 4818 09d0 2C060000 		.word	.LC213
 4819 09d4 44060000 		.word	.LC215
 4820 09d8 60060000 		.word	.LC217
 4821 09dc 7C060000 		.word	.LC219
 4822 09e0 8C060000 		.word	.LC221
 4823 09e4 00000000 		.word	cyBle_connHandle
 4824 09e8 00000000 		.word	cyBle_authInfo
 4825 09ec EC030000 		.word	.LC146
 4826              		.cfi_endproc
 4827              	.LFE43:
 4828              		.size	Parser_UartData, .-Parser_UartData
 4829              		.global	__aeabi_uidiv
 4830              		.section	.text.Master_Slave_UartHandler,"ax",%progbits
ARM GAS  C:\Users\Helon\AppData\Local\Temp\ccys0XsA.s 			page 135


 4831              		.align	2
 4832              		.global	Master_Slave_UartHandler
 4833              		.code	16
 4834              		.thumb_func
 4835              		.type	Master_Slave_UartHandler, %function
 4836              	Master_Slave_UartHandler:
 4837              	.LFB48:
1720:.\BLEApplication.c ****     uint8_t Uart_Char=0;
 4838              		.loc 1 1720 0
 4839              		.cfi_startproc
 4840              	.LVL669:
 4841 0000 F0B5     		push	{r4, r5, r6, r7, lr}
 4842              		.cfi_def_cfa_offset 20
 4843              		.cfi_offset 4, -20
 4844              		.cfi_offset 5, -16
 4845              		.cfi_offset 6, -12
 4846              		.cfi_offset 7, -8
 4847              		.cfi_offset 14, -4
 4848 0002 87B0     		sub	sp, sp, #28
 4849              		.cfi_def_cfa_offset 48
 4850 0004 00AF     		add	r7, sp, #0
 4851              		.cfi_def_cfa_register 7
 4852 0006 3860     		str	r0, [r7]
 4853 0008 6B46     		mov	r3, sp
 4854 000a 7B60     		str	r3, [r7, #4]
 4855              	.LVL670:
1725:.\BLEApplication.c ****     CYBLE_API_RESULT_T API_RESULT=0;
 4856              		.loc 1 1725 0
 4857 000c BB4B     		ldr	r3, .L374
 4858 000e 1B89     		ldrh	r3, [r3, #8]
 4859              	.LVL671:
 4860 0010 0433     		add	r3, r3, #4
 4861              	.LVL672:
 4862 0012 DB08     		lsr	r3, r3, #3
 4863              	.LVL673:
 4864 0014 DB00     		lsl	r3, r3, #3
 4865 0016 6A46     		mov	r2, sp
 4866 0018 D31A     		sub	r3, r2, r3
 4867 001a 9D46     		mov	sp, r3
 4868 001c 6C46     		mov	r4, sp
 4869              	.LVL674:
1731:.\BLEApplication.c ****     #ifdef  FLOW_CONTROL//Ê≠§Â§ÑÊúÄÂ•ΩÁΩÆ‰∏ÄGPIOÂè£‰∏∫‰ΩéÁîµÂπ≥ÂëäËØâÂèëÈÄÅÊñπÂÅúÊ≠¢ÂèëÈÄÅÊï∞ÊçÆ
 4870              		.loc 1 1731 0
 4871 001e FFF7FEFF 		bl	UART_SpiUartGetRxBufferSize
 4872              	.LVL675:
 4873 0022 061C     		mov	r6, r0
 4874 0024 85B2     		uxth	r5, r0
 4875              	.LVL676:
1733:.\BLEApplication.c ****         {
 4876              		.loc 1 1733 0
 4877 0026 B64B     		ldr	r3, .L374+4
 4878 0028 9D42     		cmp	r5, r3
 4879 002a 08D9     		bls	.L346
1735:.\BLEApplication.c ****             CTS_Write(CTS_ON);
 4880              		.loc 1 1735 0
 4881 002c B54A     		ldr	r2, .L374+8
 4882 002e 1368     		ldr	r3, [r2]
ARM GAS  C:\Users\Helon\AppData\Local\Temp\ccys0XsA.s 			page 136


 4883 0030 0421     		mov	r1, #4
 4884 0032 8B43     		bic	r3, r1
 4885 0034 1360     		str	r3, [r2]
1736:.\BLEApplication.c ****         }
 4886              		.loc 1 1736 0
 4887 0036 0020     		mov	r0, #0
 4888 0038 FFF7FEFF 		bl	CTS_Write
 4889              	.LVL677:
 4890 003c 07E0     		b	.L347
 4891              	.L346:
1740:.\BLEApplication.c ****             CTS_Write(CTS_OFF);
 4892              		.loc 1 1740 0
 4893 003e B14A     		ldr	r2, .L374+8
 4894 0040 1168     		ldr	r1, [r2]
 4895 0042 0423     		mov	r3, #4
 4896 0044 0B43     		orr	r3, r1
 4897 0046 1360     		str	r3, [r2]
1741:.\BLEApplication.c ****         }
 4898              		.loc 1 1741 0
 4899 0048 0120     		mov	r0, #1
 4900 004a FFF7FEFF 		bl	CTS_Write
 4901              	.LVL678:
 4902              	.L347:
1745:.\BLEApplication.c ****     {   
 4903              		.loc 1 1745 0
 4904 004e 002D     		cmp	r5, #0
 4905 0050 00D1     		bne	.LCB4587
 4906 0052 B4E0     		b	.L348	@long jump
 4907              	.LCB4587:
1745:.\BLEApplication.c ****     {   
 4908              		.loc 1 1745 0 is_stmt 0 discriminator 1
 4909 0054 AC4B     		ldr	r3, .L374+12
 4910 0056 5B7A     		ldrb	r3, [r3, #9]
 4911 0058 012B     		cmp	r3, #1
 4912 005a 00D0     		beq	.LCB4591
 4913 005c AFE0     		b	.L348	@long jump
 4914              	.LCB4591:
 4915 005e B6B2     		uxth	r6, r6
1747:.\BLEApplication.c ****         {
 4916              		.loc 1 1747 0 is_stmt 1
 4917 0060 A64B     		ldr	r3, .L374
 4918 0062 1B89     		ldrh	r3, [r3, #8]
 4919 0064 DA1E     		sub	r2, r3, #3
 4920 0066 9642     		cmp	r6, r2
 4921 0068 06DB     		blt	.L349
1749:.\BLEApplication.c ****             uartTxDataLength=negotiatedMtu-3;
 4922              		.loc 1 1749 0
 4923 006a A848     		ldr	r0, .L374+16
 4924 006c 7E22     		mov	r2, #126
 4925 006e A349     		ldr	r1, .L374
 4926 0070 8852     		strh	r0, [r1, r2]
1750:.\BLEApplication.c ****         }
 4927              		.loc 1 1750 0
 4928 0072 033B     		sub	r3, r3, #3
 4929 0074 9DB2     		uxth	r5, r3
 4930              	.LVL679:
 4931 0076 08E0     		b	.L350
ARM GAS  C:\Users\Helon\AppData\Local\Temp\ccys0XsA.s 			page 137


 4932              	.L349:
1754:.\BLEApplication.c ****             {
 4933              		.loc 1 1754 0
 4934 0078 A049     		ldr	r1, .L374
 4935 007a 7E22     		mov	r2, #126
 4936 007c 8B5A     		ldrh	r3, [r1, r2]
 4937 007e 013B     		sub	r3, r3, #1
 4938 0080 9BB2     		uxth	r3, r3
 4939 0082 8B52     		strh	r3, [r1, r2]
 4940 0084 002B     		cmp	r3, #0
 4941 0086 00D0     		beq	.L350
1760:.\BLEApplication.c ****             }
 4942              		.loc 1 1760 0
 4943 0088 0025     		mov	r5, #0
 4944              	.LVL680:
 4945              	.L350:
1763:.\BLEApplication.c ****         {
 4946              		.loc 1 1763 0
 4947 008a 002D     		cmp	r5, #0
 4948 008c 00D1     		bne	.LCB4627
 4949 008e 30E1     		b	.L351	@long jump
 4950              	.LCB4627:
1765:.\BLEApplication.c ****             for(index=0;index<uartTxDataLength;index++)//‰∏çÁÆ°ÊòØ‰∏ªÊú∫ËøòÊòØ‰ªéÊú∫ÔºåÂú®ÈÄè‰º†Ê®°
 4951              		.loc 1 1765 0
 4952 0090 9E49     		ldr	r1, .L374+16
 4953 0092 7E23     		mov	r3, #126
 4954 0094 994A     		ldr	r2, .L374
 4955 0096 D152     		strh	r1, [r2, r3]
 4956              	.LVL681:
1766:.\BLEApplication.c ****             {
 4957              		.loc 1 1766 0
 4958 0098 0026     		mov	r6, #0
 4959 009a 04E0     		b	.L352
 4960              	.LVL682:
 4961              	.L353:
1768:.\BLEApplication.c ****             }
 4962              		.loc 1 1768 0 discriminator 3
 4963 009c FFF7FEFF 		bl	UART_UartGetByte
 4964              	.LVL683:
 4965 00a0 A055     		strb	r0, [r4, r6]
1766:.\BLEApplication.c ****             {
 4966              		.loc 1 1766 0 discriminator 3
 4967 00a2 0136     		add	r6, r6, #1
 4968              	.LVL684:
 4969 00a4 F6B2     		uxtb	r6, r6
 4970              	.LVL685:
 4971              	.L352:
1766:.\BLEApplication.c ****             {
 4972              		.loc 1 1766 0 is_stmt 0 discriminator 1
 4973 00a6 B3B2     		uxth	r3, r6
 4974 00a8 AB42     		cmp	r3, r5
 4975 00aa F7D3     		bcc	.L353
1770:.\BLEApplication.c ****             {
 4976              		.loc 1 1770 0 is_stmt 1
 4977 00ac 9848     		ldr	r0, .L374+20
 4978 00ae 211C     		mov	r1, r4
 4979 00b0 0B22     		mov	r2, #11
ARM GAS  C:\Users\Helon\AppData\Local\Temp\ccys0XsA.s 			page 138


 4980 00b2 FFF7FEFF 		bl	memcmp
 4981              	.LVL686:
 4982 00b6 0028     		cmp	r0, #0
 4983 00b8 3AD1     		bne	.L354
1772:.\BLEApplication.c ****                 {
 4984              		.loc 1 1772 0
 4985 00ba 3B68     		ldr	r3, [r7]
 4986 00bc 012B     		cmp	r3, #1
 4987 00be 23D1     		bne	.L355
1774:.\BLEApplication.c ****                     writeRequestData.attrHandle=CYBLE_TROUGHPUT_SERVICE_CUSTOM_CHARACTERISTIC_CLIEN
 4988              		.loc 1 1774 0
 4989 00c0 9449     		ldr	r1, .L374+24
 4990 00c2 0023     		mov	r3, #0
 4991 00c4 0A68     		ldr	r2, [r1]
 4992 00c6 1370     		strb	r3, [r2]
1775:.\BLEApplication.c ****                     API_RESULT=CyBle_GattcWriteCharacteristicValue(cyBle_connHandle, &writeRequestD
 4993              		.loc 1 1775 0
 4994 00c8 0F33     		add	r3, r3, #15
 4995 00ca 0B81     		strh	r3, [r1, #8]
1776:.\BLEApplication.c ****                     if(CYBLE_ERROR_OK==API_RESULT)
 4996              		.loc 1 1776 0
 4997 00cc 924A     		ldr	r2, .L374+28
 4998 00ce 1378     		ldrb	r3, [r2]
 4999 00d0 5078     		ldrb	r0, [r2, #1]
 5000 00d2 0002     		lsl	r0, r0, #8
 5001 00d4 1843     		orr	r0, r3
 5002 00d6 FFF7FEFF 		bl	CyBle_GattcWriteCharacteristicValue
 5003              	.LVL687:
1777:.\BLEApplication.c ****                     {
 5004              		.loc 1 1777 0
 5005 00da 0028     		cmp	r0, #0
 5006 00dc 00D0     		beq	.LCB4683
 5007 00de 08E1     		b	.L351	@long jump
 5008              	.LCB4683:
1779:.\BLEApplication.c ****                         Buffer_Length=0;
 5009              		.loc 1 1779 0
 5010 00e0 8949     		ldr	r1, .L374+12
 5011 00e2 0023     		mov	r3, #0
 5012 00e4 4B72     		strb	r3, [r1, #9]
1780:.\BLEApplication.c ****                         memset(RX_BUFFER,0,sizeof(RX_BUFFER));
 5013              		.loc 1 1780 0
 5014 00e6 4B76     		strb	r3, [r1, #25]
1781:.\BLEApplication.c ****                         printf("+MODE=<AT_COMMAND_MODE>\r\n");
 5015              		.loc 1 1781 0
 5016 00e8 CB61     		str	r3, [r1, #28]
 5017 00ea 0B62     		str	r3, [r1, #32]
 5018 00ec 4B62     		str	r3, [r1, #36]
 5019 00ee 8B62     		str	r3, [r1, #40]
 5020 00f0 CB62     		str	r3, [r1, #44]
 5021 00f2 0B63     		str	r3, [r1, #48]
 5022 00f4 4B63     		str	r3, [r1, #52]
 5023 00f6 8B63     		str	r3, [r1, #56]
 5024 00f8 CB63     		str	r3, [r1, #60]
 5025 00fa 0B64     		str	r3, [r1, #64]
 5026 00fc 4B64     		str	r3, [r1, #68]
 5027 00fe 8B64     		str	r3, [r1, #72]
1782:.\BLEApplication.c ****                     }
ARM GAS  C:\Users\Helon\AppData\Local\Temp\ccys0XsA.s 			page 139


 5028              		.loc 1 1782 0
 5029 0100 8648     		ldr	r0, .L374+32
 5030              	.LVL688:
 5031 0102 FFF7FEFF 		bl	puts
 5032              	.LVL689:
 5033 0106 F4E0     		b	.L351
 5034              	.LVL690:
 5035              	.L355:
1787:.\BLEApplication.c ****                     Buffer_Length=0;
 5036              		.loc 1 1787 0
 5037 0108 7F49     		ldr	r1, .L374+12
 5038 010a 0023     		mov	r3, #0
 5039 010c 4B72     		strb	r3, [r1, #9]
1788:.\BLEApplication.c ****                     memset(RX_BUFFER,0,sizeof(RX_BUFFER));
 5040              		.loc 1 1788 0
 5041 010e 4B76     		strb	r3, [r1, #25]
1789:.\BLEApplication.c ****                     printf("+MODE=<AT_COMMAND_MODE>\r\n");
 5042              		.loc 1 1789 0
 5043 0110 CB61     		str	r3, [r1, #28]
 5044 0112 0B62     		str	r3, [r1, #32]
 5045 0114 4B62     		str	r3, [r1, #36]
 5046 0116 8B62     		str	r3, [r1, #40]
 5047 0118 CB62     		str	r3, [r1, #44]
 5048 011a 0B63     		str	r3, [r1, #48]
 5049 011c 4B63     		str	r3, [r1, #52]
 5050 011e 8B63     		str	r3, [r1, #56]
 5051 0120 CB63     		str	r3, [r1, #60]
 5052 0122 0B64     		str	r3, [r1, #64]
 5053 0124 4B64     		str	r3, [r1, #68]
 5054 0126 8B64     		str	r3, [r1, #72]
1790:.\BLEApplication.c ****                 }
 5055              		.loc 1 1790 0
 5056 0128 7C48     		ldr	r0, .L374+32
 5057 012a FFF7FEFF 		bl	puts
 5058              	.LVL691:
 5059 012e E0E0     		b	.L351
 5060              	.L354:
1794:.\BLEApplication.c ****             {
 5061              		.loc 1 1794 0
 5062 0130 7B48     		ldr	r0, .L374+36
 5063 0132 211C     		mov	r1, r4
 5064 0134 0B22     		mov	r2, #11
 5065 0136 FFF7FEFF 		bl	memcmp
 5066              	.LVL692:
 5067 013a 0028     		cmp	r0, #0
 5068 013c 12D1     		bne	.L356
1796:.\BLEApplication.c ****                 memset(RX_BUFFER,0,sizeof(RX_BUFFER));
 5069              		.loc 1 1796 0
 5070 013e 7249     		ldr	r1, .L374+12
 5071 0140 0023     		mov	r3, #0
 5072 0142 4B76     		strb	r3, [r1, #25]
1797:.\BLEApplication.c ****                 printf("+MODE=<THROUGHT_MODE>\r\n");
 5073              		.loc 1 1797 0
 5074 0144 CB61     		str	r3, [r1, #28]
 5075 0146 0B62     		str	r3, [r1, #32]
 5076 0148 4B62     		str	r3, [r1, #36]
 5077 014a 8B62     		str	r3, [r1, #40]
ARM GAS  C:\Users\Helon\AppData\Local\Temp\ccys0XsA.s 			page 140


 5078 014c CB62     		str	r3, [r1, #44]
 5079 014e 0B63     		str	r3, [r1, #48]
 5080 0150 4B63     		str	r3, [r1, #52]
 5081 0152 8B63     		str	r3, [r1, #56]
 5082 0154 CB63     		str	r3, [r1, #60]
 5083 0156 0B64     		str	r3, [r1, #64]
 5084 0158 4B64     		str	r3, [r1, #68]
 5085 015a 8B64     		str	r3, [r1, #72]
1798:.\BLEApplication.c ****                 return;
 5086              		.loc 1 1798 0
 5087 015c 7148     		ldr	r0, .L374+40
 5088 015e FFF7FEFF 		bl	puts
 5089              	.LVL693:
1799:.\BLEApplication.c ****             }
 5090              		.loc 1 1799 0
 5091 0162 C6E0     		b	.L351
 5092              	.L356:
1801:.\BLEApplication.c ****             {
 5093              		.loc 1 1801 0
 5094 0164 3B68     		ldr	r3, [r7]
 5095 0166 002B     		cmp	r3, #0
 5096 0168 1BD1     		bne	.L357
 5097              	.L358:
1803:.\BLEApplication.c ****                 uartTxDataNtf.value.val  = uartTxData;
 5098              		.loc 1 1803 0 discriminator 1
 5099 016a 6F4B     		ldr	r3, .L374+44
 5100 016c 1B78     		ldrb	r3, [r3]
 5101 016e 002B     		cmp	r3, #0
 5102 0170 FBD1     		bne	.L358
1804:.\BLEApplication.c ****                 uartTxDataNtf.value.len  = uartTxDataLength;
 5103              		.loc 1 1804 0
 5104 0172 FC60     		str	r4, [r7, #12]
1805:.\BLEApplication.c ****                 uartTxDataNtf.attrHandle = CYBLE_TROUGHPUT_SERVICE_CUSTOM_CHARACTERISTIC_CHAR_HANDL
 5105              		.loc 1 1805 0
 5106 0174 3D82     		strh	r5, [r7, #16]
1806:.\BLEApplication.c **** //                #ifdef FLOW_CONTROL
 5107              		.loc 1 1806 0
 5108 0176 0E33     		add	r3, r3, #14
 5109 0178 BB82     		strh	r3, [r7, #20]
 5110              	.LVL694:
 5111              	.L359:
1812:.\BLEApplication.c ****                     CyBle_ProcessEvents();
 5112              		.loc 1 1812 0 discriminator 2
 5113 017a 674A     		ldr	r2, .L374+28
 5114 017c 1378     		ldrb	r3, [r2]
 5115 017e 5078     		ldrb	r0, [r2, #1]
 5116 0180 0002     		lsl	r0, r0, #8
 5117 0182 1843     		orr	r0, r3
 5118 0184 0C23     		mov	r3, #12
 5119 0186 F918     		add	r1, r7, r3
 5120 0188 FFF7FEFF 		bl	CyBle_GattsNotification
 5121              	.LVL695:
 5122 018c 041C     		mov	r4, r0
 5123              	.LVL696:
1813:.\BLEApplication.c ****                 }
 5124              		.loc 1 1813 0 discriminator 2
 5125 018e FFF7FEFF 		bl	CyBle_ProcessEvents
ARM GAS  C:\Users\Helon\AppData\Local\Temp\ccys0XsA.s 			page 141


 5126              	.LVL697:
1815:.\BLEApplication.c **** //                testCount+=uartTxDataLength;
 5127              		.loc 1 1815 0 discriminator 2
 5128 0192 002C     		cmp	r4, #0
 5129 0194 00D1     		bne	.LCB4795
 5130 0196 ACE0     		b	.L351	@long jump
 5131              	.LCB4795:
1815:.\BLEApplication.c **** //                testCount+=uartTxDataLength;
 5132              		.loc 1 1815 0 is_stmt 0 discriminator 1
 5133 0198 644B     		ldr	r3, .L374+48
 5134 019a 1B78     		ldrb	r3, [r3]
 5135 019c 022B     		cmp	r3, #2
 5136 019e ECD0     		beq	.L359
 5137 01a0 A7E0     		b	.L351
 5138              	.LVL698:
 5139              	.L357:
1821:.\BLEApplication.c ****                 #endif
 5140              		.loc 1 1821 0 is_stmt 1
 5141 01a2 584A     		ldr	r2, .L374+8
 5142 01a4 1368     		ldr	r3, [r2]
 5143 01a6 0421     		mov	r1, #4
 5144 01a8 8B43     		bic	r3, r1
 5145 01aa 1360     		str	r3, [r2]
 5146              	.L360:
1823:.\BLEApplication.c ****                 SendData_toSlave(uartTxData,uartTxDataLength);
 5147              		.loc 1 1823 0 discriminator 1
 5148 01ac 5E4B     		ldr	r3, .L374+44
 5149 01ae 1B78     		ldrb	r3, [r3]
 5150 01b0 002B     		cmp	r3, #0
 5151 01b2 FBD1     		bne	.L360
1824:.\BLEApplication.c ****             }
 5152              		.loc 1 1824 0
 5153 01b4 201C     		mov	r0, r4
 5154 01b6 291C     		mov	r1, r5
 5155 01b8 FFF7FEFF 		bl	SendData_toSlave
 5156              	.LVL699:
 5157 01bc 99E0     		b	.L351
 5158              	.LVL700:
 5159              	.L348:
1829:.\BLEApplication.c ****     {   
 5160              		.loc 1 1829 0
 5161 01be 002D     		cmp	r5, #0
 5162 01c0 70D0     		beq	.L361
1831:.\BLEApplication.c ****         if(KEYBOARD)
 5163              		.loc 1 1831 0
 5164 01c2 514B     		ldr	r3, .L374+12
 5165 01c4 0121     		mov	r1, #1
 5166 01c6 4D22     		mov	r2, #77
 5167 01c8 9954     		strb	r1, [r3, r2]
1832:.\BLEApplication.c ****         {
 5168              		.loc 1 1832 0
 5169 01ca 1B7C     		ldrb	r3, [r3, #16]
 5170 01cc 002B     		cmp	r3, #0
 5171 01ce 3FD0     		beq	.L362
1834:.\BLEApplication.c ****         /*Set the passkey to zero before receiving New passkey */
 5172              		.loc 1 1834 0
 5173 01d0 0022     		mov	r2, #0
ARM GAS  C:\Users\Helon\AppData\Local\Temp\ccys0XsA.s 			page 142


 5174 01d2 4D4B     		ldr	r3, .L374+12
 5175 01d4 1A74     		strb	r2, [r3, #16]
 5176              	.LVL701:
1840:.\BLEApplication.c ****             {
 5177              		.loc 1 1840 0
 5178 01d6 0026     		mov	r6, #0
1837:.\BLEApplication.c ****             
 5179              		.loc 1 1837 0
 5180 01d8 554C     		ldr	r4, .L374+52
 5181              	.LVL702:
1836:.\BLEApplication.c ****             pow = 100000ul;
 5182              		.loc 1 1836 0
 5183 01da 0025     		mov	r5, #0
 5184              	.LVL703:
1840:.\BLEApplication.c ****             {
 5185              		.loc 1 1840 0
 5186 01dc 18E0     		b	.L363
 5187              	.LVL704:
 5188              	.L364:
1842:.\BLEApplication.c ****                 
 5189              		.loc 1 1842 0 discriminator 1
 5190 01de FFF7FEFF 		bl	UART_UartGetChar
 5191              	.LVL705:
 5192 01e2 C3B2     		uxtb	r3, r0
 5193              	.LVL706:
 5194 01e4 002B     		cmp	r3, #0
 5195 01e6 FAD0     		beq	.L364
1845:.\BLEApplication.c ****                 {
 5196              		.loc 1 1845 0
 5197 01e8 303B     		sub	r3, r3, #48
 5198              	.LVL707:
 5199 01ea 092B     		cmp	r3, #9
 5200 01ec 0CD8     		bhi	.L365
 5201 01ee FF23     		mov	r3, #255
 5202              	.LVL708:
 5203 01f0 1840     		and	r0, r3
 5204              	.LVL709:
1847:.\BLEApplication.c ****                     pow /= 10u;
 5205              		.loc 1 1847 0
 5206 01f2 3038     		sub	r0, r0, #48
 5207 01f4 6043     		mul	r0, r4
 5208 01f6 2D18     		add	r5, r5, r0
 5209              	.LVL710:
1848:.\BLEApplication.c **** //                    UART_UartPutChar(Uart_Char); 
 5210              		.loc 1 1848 0
 5211 01f8 201C     		mov	r0, r4
 5212 01fa 0A21     		mov	r1, #10
 5213 01fc FFF7FEFF 		bl	__aeabi_uidiv
 5214              	.LVL711:
 5215 0200 041C     		mov	r4, r0
 5216              	.LVL712:
1840:.\BLEApplication.c ****             {
 5217              		.loc 1 1840 0
 5218 0202 0136     		add	r6, r6, #1
 5219              	.LVL713:
 5220 0204 F6B2     		uxtb	r6, r6
 5221              	.LVL714:
ARM GAS  C:\Users\Helon\AppData\Local\Temp\ccys0XsA.s 			page 143


 5222 0206 03E0     		b	.L363
 5223              	.LVL715:
 5224              	.L365:
1853:.\BLEApplication.c ****                     break;
 5225              		.loc 1 1853 0
 5226 0208 4A48     		ldr	r0, .L374+56
 5227 020a FFF7FEFF 		bl	puts
 5228              	.LVL716:
1854:.\BLEApplication.c ****                 }
 5229              		.loc 1 1854 0
 5230 020e 01E0     		b	.L366
 5231              	.LVL717:
 5232              	.L363:
1840:.\BLEApplication.c ****             {
 5233              		.loc 1 1840 0 discriminator 1
 5234 0210 052E     		cmp	r6, #5
 5235 0212 E4D9     		bls	.L364
 5236              	.L366:
1858:.\BLEApplication.c ****             /*Check the result of CyBle_GapAuthPassKeyReply*/
 5237              		.loc 1 1858 0
 5238 0214 404B     		ldr	r3, .L374+28
 5239 0216 1878     		ldrb	r0, [r3]
 5240 0218 291C     		mov	r1, r5
 5241 021a 0122     		mov	r2, #1
 5242 021c FFF7FEFF 		bl	CyBle_GapAuthPassKeyReply
 5243              	.LVL718:
1860:.\BLEApplication.c ****             {
 5244              		.loc 1 1860 0
 5245 0220 0128     		cmp	r0, #1
 5246 0222 03D1     		bne	.L367
1862:.\BLEApplication.c ****             }
 5247              		.loc 1 1862 0
 5248 0224 4448     		ldr	r0, .L374+60
 5249              	.LVL719:
 5250 0226 FFF7FEFF 		bl	puts
 5251              	.LVL720:
 5252 022a 5FE0     		b	.L368
 5253              	.LVL721:
 5254              	.L367:
1864:.\BLEApplication.c ****             {
 5255              		.loc 1 1864 0
 5256 022c 0328     		cmp	r0, #3
 5257 022e 03D1     		bne	.L369
1866:.\BLEApplication.c ****             }
 5258              		.loc 1 1866 0
 5259 0230 4248     		ldr	r0, .L374+64
 5260              	.LVL722:
 5261 0232 FFF7FEFF 		bl	puts
 5262              	.LVL723:
 5263 0236 59E0     		b	.L368
 5264              	.LVL724:
 5265              	.L369:
1868:.\BLEApplication.c ****             {
 5266              		.loc 1 1868 0
 5267 0238 0728     		cmp	r0, #7
 5268 023a 03D1     		bne	.L370
1870:.\BLEApplication.c ****             }
ARM GAS  C:\Users\Helon\AppData\Local\Temp\ccys0XsA.s 			page 144


 5269              		.loc 1 1870 0
 5270 023c 4048     		ldr	r0, .L374+68
 5271              	.LVL725:
 5272 023e FFF7FEFF 		bl	puts
 5273              	.LVL726:
 5274 0242 53E0     		b	.L368
 5275              	.LVL727:
 5276              	.L370:
1872:.\BLEApplication.c ****             {
 5277              		.loc 1 1872 0
 5278 0244 0028     		cmp	r0, #0
 5279 0246 51D1     		bne	.L368
1874:.\BLEApplication.c ****             }
 5280              		.loc 1 1874 0
 5281 0248 3E48     		ldr	r0, .L374+72
 5282              	.LVL728:
 5283 024a FFF7FEFF 		bl	puts
 5284              	.LVL729:
 5285 024e 4DE0     		b	.L368
 5286              	.LVL730:
 5287              	.L362:
1879:.\BLEApplication.c ****             if('\n'!=Uart_Char)
 5288              		.loc 1 1879 0
 5289 0250 FFF7FEFF 		bl	UART_UartGetByte
 5290              	.LVL731:
 5291 0254 C0B2     		uxtb	r0, r0
 5292              	.LVL732:
1880:.\BLEApplication.c ****             {
 5293              		.loc 1 1880 0
 5294 0256 0A28     		cmp	r0, #10
 5295 0258 06D0     		beq	.L371
1889:.\BLEApplication.c ****                     Buffer_Length++;
 5296              		.loc 1 1889 0
 5297 025a 2B4A     		ldr	r2, .L374+12
 5298 025c 537E     		ldrb	r3, [r2, #25]
 5299 025e D118     		add	r1, r2, r3
 5300 0260 0877     		strb	r0, [r1, #28]
1890:.\BLEApplication.c ****     //            }                      
 5301              		.loc 1 1890 0
 5302 0262 0133     		add	r3, r3, #1
 5303 0264 5376     		strb	r3, [r2, #25]
 5304 0266 41E0     		b	.L368
 5305              	.L371:
1895:.\BLEApplication.c ****                 RxFlag=OVER;
 5306              		.loc 1 1895 0
 5307 0268 2849     		ldr	r1, .L374+16
 5308 026a 7E23     		mov	r3, #126
 5309 026c 234A     		ldr	r2, .L374
 5310 026e D152     		strh	r1, [r2, r3]
1896:.\BLEApplication.c ****             //‰∏≤Âè£Êé•Êî∂ÁöÑÊï∞ÊçÆÈïøÂ∫¶Ê∏ÖÈõ∂,‰ª•‰æø‰∏ã‰∏ÄÊù°ÂëΩ‰ª§ËøáÊù•Êó∂ËøòÊòØÂ≠òÊîæÂú®Êï∞ÁªÑ
 5311              		.loc 1 1896 0
 5312 0270 254D     		ldr	r5, .L374+12
 5313              	.LVL733:
 5314 0272 0024     		mov	r4, #0
 5315              	.LVL734:
 5316 0274 313B     		sub	r3, r3, #49
 5317 0276 EC54     		strb	r4, [r5, r3]
ARM GAS  C:\Users\Helon\AppData\Local\Temp\ccys0XsA.s 			page 145


1898:.\BLEApplication.c ****                 Parser_UartData((char*)RX_BUFFER);
 5318              		.loc 1 1898 0
 5319 0278 6B7E     		ldrb	r3, [r5, #25]
 5320 027a EB18     		add	r3, r5, r3
 5321 027c 1877     		strb	r0, [r3, #28]
1899:.\BLEApplication.c ****                 Buffer_Length=0;
 5322              		.loc 1 1899 0
 5323 027e 2E1C     		mov	r6, r5
 5324 0280 1C36     		add	r6, r6, #28
 5325 0282 301C     		mov	r0, r6
 5326              	.LVL735:
 5327 0284 FFF7FEFF 		bl	Parser_UartData
 5328              	.LVL736:
1900:.\BLEApplication.c ****                 memset(RX_BUFFER,0,sizeof(RX_BUFFER));
 5329              		.loc 1 1900 0
 5330 0288 6C76     		strb	r4, [r5, #25]
1901:.\BLEApplication.c ****     //            if(CommandMode==THROUGHT_MODE)
 5331              		.loc 1 1901 0
 5332 028a EC61     		str	r4, [r5, #28]
 5333 028c 7460     		str	r4, [r6, #4]
 5334 028e B460     		str	r4, [r6, #8]
 5335 0290 F460     		str	r4, [r6, #12]
 5336 0292 3461     		str	r4, [r6, #16]
 5337 0294 7461     		str	r4, [r6, #20]
 5338 0296 B461     		str	r4, [r6, #24]
 5339 0298 F461     		str	r4, [r6, #28]
 5340 029a 3462     		str	r4, [r6, #32]
 5341 029c 7462     		str	r4, [r6, #36]
 5342 029e B462     		str	r4, [r6, #40]
 5343 02a0 F462     		str	r4, [r6, #44]
 5344 02a2 23E0     		b	.L368
 5345              	.LVL737:
 5346              	.L361:
1922:.\BLEApplication.c ****         {
 5347              		.loc 1 1922 0
 5348 02a4 4D23     		mov	r3, #77
 5349 02a6 184A     		ldr	r2, .L374+12
 5350 02a8 D35C     		ldrb	r3, [r2, r3]
 5351 02aa 002B     		cmp	r3, #0
 5352 02ac 1ED0     		beq	.L368
1924:.\BLEApplication.c ****             {
 5353              		.loc 1 1924 0
 5354 02ae 1349     		ldr	r1, .L374
 5355 02b0 7E22     		mov	r2, #126
 5356 02b2 8B5A     		ldrh	r3, [r1, r2]
 5357 02b4 013B     		sub	r3, r3, #1
 5358 02b6 9BB2     		uxth	r3, r3
 5359 02b8 8B52     		strh	r3, [r1, r2]
 5360 02ba 002B     		cmp	r3, #0
 5361 02bc 16D1     		bne	.L368
1926:.\BLEApplication.c ****                 uartIdleCount=UART_IDLE_TIMEOUT;
 5362              		.loc 1 1926 0
 5363 02be 1249     		ldr	r1, .L374+12
 5364 02c0 313A     		sub	r2, r2, #49
 5365 02c2 8B54     		strb	r3, [r1, r2]
1927:.\BLEApplication.c ****                 Buffer_Length=0;
 5366              		.loc 1 1927 0
ARM GAS  C:\Users\Helon\AppData\Local\Temp\ccys0XsA.s 			page 146


 5367 02c4 114C     		ldr	r4, .L374+16
 5368              	.LVL738:
 5369 02c6 3132     		add	r2, r2, #49
 5370 02c8 0C48     		ldr	r0, .L374
 5371 02ca 8452     		strh	r4, [r0, r2]
1928:.\BLEApplication.c ****                 memset(RX_BUFFER,0,sizeof(RX_BUFFER));
 5372              		.loc 1 1928 0
 5373 02cc 4B76     		strb	r3, [r1, #25]
1929:.\BLEApplication.c ****                 printf("AT+ERR=5\r\n");//Ë°®Á§∫Ê≤°ÊúâËØ•ATÂëΩ‰ª§
 5374              		.loc 1 1929 0
 5375 02ce CB61     		str	r3, [r1, #28]
 5376 02d0 0B62     		str	r3, [r1, #32]
 5377 02d2 4B62     		str	r3, [r1, #36]
 5378 02d4 8B62     		str	r3, [r1, #40]
 5379 02d6 CB62     		str	r3, [r1, #44]
 5380 02d8 0B63     		str	r3, [r1, #48]
 5381 02da 4B63     		str	r3, [r1, #52]
 5382 02dc 8B63     		str	r3, [r1, #56]
 5383 02de CB63     		str	r3, [r1, #60]
 5384 02e0 0B64     		str	r3, [r1, #64]
 5385 02e2 4B64     		str	r3, [r1, #68]
 5386 02e4 8B64     		str	r3, [r1, #72]
1930:.\BLEApplication.c ****                 /*uartTxDataLength remains unchanged */;
 5387              		.loc 1 1930 0
 5388 02e6 1848     		ldr	r0, .L374+76
 5389 02e8 FFF7FEFF 		bl	puts
 5390              	.LVL739:
 5391              	.L368:
 5392 02ec 7B68     		ldr	r3, [r7, #4]
 5393 02ee 9D46     		mov	sp, r3
 5394              	.LVL740:
 5395 02f0 01E0     		b	.L345
 5396              	.LVL741:
 5397              	.L351:
1792:.\BLEApplication.c ****             }  
 5398              		.loc 1 1792 0
 5399 02f2 7B68     		ldr	r3, [r7, #4]
 5400 02f4 9D46     		mov	sp, r3
 5401              	.LVL742:
 5402              	.L345:
1935:.\BLEApplication.c **** 
 5403              		.loc 1 1935 0
 5404 02f6 BD46     		mov	sp, r7
 5405 02f8 07B0     		add	sp, sp, #28
 5406              		@ sp needed
 5407 02fa F0BD     		pop	{r4, r5, r6, r7, pc}
 5408              	.L375:
 5409              		.align	2
 5410              	.L374:
 5411 02fc 00000000 		.word	.LANCHOR1
 5412 0300 FF030000 		.word	1023
 5413 0304 C80F2440 		.word	1076105160
 5414 0308 00000000 		.word	.LANCHOR0
 5415 030c 581B0000 		.word	7000
 5416 0310 A0060000 		.word	.LC226
 5417 0314 00000000 		.word	writeRequestData
 5418 0318 00000000 		.word	cyBle_connHandle
ARM GAS  C:\Users\Helon\AppData\Local\Temp\ccys0XsA.s 			page 147


 5419 031c B8000000 		.word	.LC26
 5420 0320 AC060000 		.word	.LC231
 5421 0324 A0000000 		.word	.LC24
 5422 0328 00000000 		.word	cyBle_busyStatus
 5423 032c 00000000 		.word	cyBle_state
 5424 0330 A0860100 		.word	100000
 5425 0334 B8060000 		.word	.LC236
 5426 0338 CC060000 		.word	.LC238
 5427 033c EC060000 		.word	.LC240
 5428 0340 14070000 		.word	.LC242
 5429 0344 34070000 		.word	.LC244
 5430 0348 EC030000 		.word	.LC146
 5431              		.cfi_endproc
 5432              	.LFE48:
 5433              		.size	Master_Slave_UartHandler, .-Master_Slave_UartHandler
 5434              		.section	.text._write,"ax",%progbits
 5435              		.align	2
 5436              		.global	_write
 5437              		.code	16
 5438              		.thumb_func
 5439              		.type	_write, %function
 5440              	_write:
 5441              	.LFB53:
2404:.\BLEApplication.c **** /******************************************************************************
2405:.\BLEApplication.c **** * Function Name: PrintfÂáΩÊï∞ÈáçÊò†Â∞Ñ
2406:.\BLEApplication.c **** ***************************************************************************//**
2407:.\BLEApplication.c **** * 
2408:.\BLEApplication.c **** *  ÈáçÂÜô_write()ÂáΩÊï∞Ôºå‰∏∫‰∫Ü‰ΩøËÉΩPrintfÂáΩÊï∞ÊâìÂç∞‰∏≤Âè£‰ø°ÊÅØ
2409:.\BLEApplication.c **** * 
2410:.\BLEApplication.c **** * \return
2411:.\BLEApplication.c **** *  None
2412:.\BLEApplication.c **** * 
2413:.\BLEApplication.c **** ******************************************************************************/
2414:.\BLEApplication.c **** #if defined(__ARMCC_VERSION)
2415:.\BLEApplication.c **** /* For MDK/RVDS compiler revise fputc function for printf functionality */
2416:.\BLEApplication.c **** struct __FILE
2417:.\BLEApplication.c **** {
2418:.\BLEApplication.c ****     int handle;
2419:.\BLEApplication.c **** };
2420:.\BLEApplication.c **** enum
2421:.\BLEApplication.c **** {
2422:.\BLEApplication.c ****     STDIN_HANDLE,
2423:.\BLEApplication.c ****     STDOUT_HANDLE,
2424:.\BLEApplication.c ****     STDERR_HANDLE
2425:.\BLEApplication.c **** };
2426:.\BLEApplication.c **** FILE __stdin = {STDIN_HANDLE};
2427:.\BLEApplication.c **** FILE __stdout = {STDOUT_HANDLE};
2428:.\BLEApplication.c **** FILE __stderr = {STDERR_HANDLE};
2429:.\BLEApplication.c **** int fputc(int ch, FILE *file)
2430:.\BLEApplication.c **** {
2431:.\BLEApplication.c ****     int ret = EOF;
2432:.\BLEApplication.c ****     switch( file->handle )
2433:.\BLEApplication.c ****     {
2434:.\BLEApplication.c ****         case STDOUT_HANDLE:
2435:.\BLEApplication.c ****             UART_DEB_UartPutChar(ch);
2436:.\BLEApplication.c ****             ret = ch ;
2437:.\BLEApplication.c ****             break ;
ARM GAS  C:\Users\Helon\AppData\Local\Temp\ccys0XsA.s 			page 148


2438:.\BLEApplication.c ****         case STDERR_HANDLE:
2439:.\BLEApplication.c ****             ret = ch ;
2440:.\BLEApplication.c ****             break ;
2441:.\BLEApplication.c ****         default:
2442:.\BLEApplication.c ****             file = file;
2443:.\BLEApplication.c ****             break ;
2444:.\BLEApplication.c ****     }
2445:.\BLEApplication.c ****     return ret ;
2446:.\BLEApplication.c **** }
2447:.\BLEApplication.c **** #elif defined (__ICCARM__)      /* IAR */
2448:.\BLEApplication.c **** /* For IAR compiler revise __write() function for printf functionality */
2449:.\BLEApplication.c **** size_t __write(int handle, const unsigned char * buffer, size_t size)
2450:.\BLEApplication.c **** {
2451:.\BLEApplication.c ****     size_t nChars = 0;
2452:.\BLEApplication.c ****     if (buffer == 0)
2453:.\BLEApplication.c ****     {
2454:.\BLEApplication.c ****         /*
2455:.\BLEApplication.c ****          * This means that we should flush internal buffers.  Since we
2456:.\BLEApplication.c ****          * don't we just return.  (Remember, "handle" == -1 means that all
2457:.\BLEApplication.c ****          * handles should be flushed.)
2458:.\BLEApplication.c ****          */
2459:.\BLEApplication.c ****         return (0);
2460:.\BLEApplication.c ****     }
2461:.\BLEApplication.c ****     for (/* Empty */; size != 0; --size)
2462:.\BLEApplication.c ****     {
2463:.\BLEApplication.c ****         UART_DEB_UartPutChar(*buffer++);
2464:.\BLEApplication.c ****         ++nChars;
2465:.\BLEApplication.c ****     }
2466:.\BLEApplication.c ****     return (nChars);
2467:.\BLEApplication.c **** }
2468:.\BLEApplication.c **** #else  /* (__GNUC__)  GCC */
2469:.\BLEApplication.c **** /* For GCC compiler revise _write() function for printf functionality */
2470:.\BLEApplication.c **** int _write(int file, char *ptr, int len)
2471:.\BLEApplication.c **** {
 5442              		.loc 1 2471 0
 5443              		.cfi_startproc
 5444              	.LVL743:
 5445 0000 70B5     		push	{r4, r5, r6, lr}
 5446              		.cfi_def_cfa_offset 16
 5447              		.cfi_offset 4, -16
 5448              		.cfi_offset 5, -12
 5449              		.cfi_offset 6, -8
 5450              		.cfi_offset 14, -4
 5451 0002 161C     		mov	r6, r2
 5452              	.LVL744:
2472:.\BLEApplication.c ****     int i;
2473:.\BLEApplication.c ****     file = file;
2474:.\BLEApplication.c ****     for (i = 0; i < len; i++)
 5453              		.loc 1 2474 0
 5454 0004 0024     		mov	r4, #0
 5455 0006 05E0     		b	.L377
 5456              	.LVL745:
 5457              	.L378:
2475:.\BLEApplication.c ****     {
2476:.\BLEApplication.c ****         UART_UartPutChar(*ptr++);//ËøôÈáåÊõø‰ª£ÊàêUARTÁöÑÂèëÈÄÅÂçïÂ≠óËäÇÁöÑÂáΩÊï∞Âç≥ÂèØ
 5458              		.loc 1 2476 0 discriminator 3
 5459 0008 4D1C     		add	r5, r1, #1
ARM GAS  C:\Users\Helon\AppData\Local\Temp\ccys0XsA.s 			page 149


 5460              	.LVL746:
 5461 000a 0878     		ldrb	r0, [r1]
 5462 000c FFF7FEFF 		bl	UART_SpiUartWriteTxData
 5463              	.LVL747:
2474:.\BLEApplication.c ****     {
 5464              		.loc 1 2474 0 discriminator 3
 5465 0010 0134     		add	r4, r4, #1
 5466              	.LVL748:
 5467              		.loc 1 2476 0 discriminator 3
 5468 0012 291C     		mov	r1, r5
 5469              	.LVL749:
 5470              	.L377:
2474:.\BLEApplication.c ****     {
 5471              		.loc 1 2474 0 discriminator 1
 5472 0014 B442     		cmp	r4, r6
 5473 0016 F7DB     		blt	.L378
2477:.\BLEApplication.c ****     }
2478:.\BLEApplication.c ****     return len;
2479:.\BLEApplication.c **** }
 5474              		.loc 1 2479 0
 5475 0018 301C     		mov	r0, r6
 5476              		@ sp needed
 5477              	.LVL750:
 5478              	.LVL751:
 5479 001a 70BD     		pop	{r4, r5, r6, pc}
 5480              		.cfi_endproc
 5481              	.LFE53:
 5482              		.size	_write, .-_write
 5483              		.global	Baud_rate_idx
 5484              		.global	STOP_SCAN_FLAG
 5485              		.global	StringArry
 5486              		.global	readRequestData
 5487              		.comm	writeRequestData,12,4
 5488              		.global	connParam
 5489              		.global	cccdNotifFlagSetStruct
 5490              		.global	cccdNotifEnabledValue
 5491              		.global	_10sIsOver
 5492              		.comm	DeviceAddr,7,4
 5493              		.global	AUTHFLAG
 5494              		.global	KEYBOARD
 5495              		.comm	ConnParam,8,4
 5496              		.global	iocapability
 5497              		.global	testCount
 5498              		.global	CommandMode
 5499              		.global	negotiatedMtu
 5500              		.comm	buffer,20,4
 5501              		.global	Role
 5502              		.global	totalByteCounter
 5503              		.global	charNotificationEnabled
 5504              		.global	TroughtTest_Flag
 5505              		.global	MTU_REQ_FLAG
 5506              		.global	Conn_or_Disconn_Idx
 5507              		.comm	Conn_Or_Disconn_Info,37,4
 5508              		.global	RxFlag
 5509              		.global	rx_isover
 5510              		.global	Buffer_Length
 5511              		.global	RX_BUFFER
ARM GAS  C:\Users\Helon\AppData\Local\Temp\ccys0XsA.s 			page 150


 5512              		.global	LowPower_EN
 5513              		.comm	configUart,112,4
 5514              		.data
 5515              		.align	2
 5516              		.set	.LANCHOR1,. + 0
 5517              		.type	connParam, %object
 5518              		.size	connParam, 8
 5519              	connParam:
 5520 0000 1000     		.short	16
 5521 0002 1000     		.short	16
 5522 0004 0000     		.short	0
 5523 0006 E803     		.short	1000
 5524              		.type	negotiatedMtu, %object
 5525              		.size	negotiatedMtu, 2
 5526              	negotiatedMtu:
 5527 0008 1700     		.short	23
 5528              		.type	LowPower_EN, %object
 5529              		.size	LowPower_EN, 1
 5530              	LowPower_EN:
 5531 000a 01       		.byte	1
 5532 000b 00       		.space	1
 5533              		.type	cccdNotifFlagSetStruct, %object
 5534              		.size	cccdNotifFlagSetStruct, 8
 5535              	cccdNotifFlagSetStruct:
 5536 000c 00000000 		.word	cccdNotifEnabledValue
 5537 0010 0200     		.short	2
 5538 0012 0000     		.short	0
 5539              		.type	StringArry, %object
 5540              		.size	StringArry, 104
 5541              	StringArry:
 5542 0014 4C070000 		.word	.LC248
 5543 0018 58070000 		.word	.LC249
 5544 001c 64070000 		.word	.LC250
 5545 0020 70070000 		.word	.LC251
 5546 0024 78070000 		.word	.LC252
 5547 0028 84070000 		.word	.LC253
 5548 002c 8C070000 		.word	.LC254
 5549 0030 94070000 		.word	.LC255
 5550 0034 9C070000 		.word	.LC256
 5551 0038 A4070000 		.word	.LC257
 5552 003c AC070000 		.word	.LC258
 5553 0040 B8070000 		.word	.LC259
 5554 0044 C0070000 		.word	.LC260
 5555 0048 C8070000 		.word	.LC261
 5556 004c D4070000 		.word	.LC262
 5557 0050 E0070000 		.word	.LC263
 5558 0054 EC070000 		.word	.LC264
 5559 0058 F4070000 		.word	.LC265
 5560 005c FC070000 		.word	.LC266
 5561 0060 0C080000 		.word	.LC267
 5562 0064 10080000 		.word	.LC268
 5563 0068 1C080000 		.word	.LC269
 5564 006c 28080000 		.word	.LC270
 5565 0070 34080000 		.word	.LC271
 5566 0074 3C080000 		.word	.LC272
 5567 0078 44080000 		.word	.LC273
 5568              		.type	Baud_rate_idx, %object
ARM GAS  C:\Users\Helon\AppData\Local\Temp\ccys0XsA.s 			page 151


 5569              		.size	Baud_rate_idx, 1
 5570              	Baud_rate_idx:
 5571 007c 37       		.byte	55
 5572 007d 00       		.space	1
 5573              		.type	uartIdleCount.7943, %object
 5574              		.size	uartIdleCount.7943, 2
 5575              	uartIdleCount.7943:
 5576 007e 581B     		.short	7000
 5577              		.type	readRequestData, %object
 5578              		.size	readRequestData, 2
 5579              	readRequestData:
 5580 0080 0F00     		.short	15
 5581 0082 0000     		.space	2
 5582              		.type	cccdNotifEnabledValue, %object
 5583              		.size	cccdNotifEnabledValue, 2
 5584              	cccdNotifEnabledValue:
 5585 0084 01       		.byte	1
 5586 0085 00       		.byte	0
 5587              		.type	MTU_REQ_FLAG, %object
 5588              		.size	MTU_REQ_FLAG, 1
 5589              	MTU_REQ_FLAG:
 5590 0086 01       		.byte	1
 5591 0087 00       		.section	.rodata.str1.4,"aMS",%progbits,1
 5592              		.align	2
 5593              	.LC1:
 5594 0000 424C4520 		.ascii	"BLE is Ready\015\000"
 5594      69732052 
 5594      65616479 
 5594      0D00
 5595 000e 0000     		.space	2
 5596              	.LC4:
 5597 0010 2B534341 		.ascii	"+SCAN_STOP\015\000"
 5597      4E5F5354 
 5597      4F500D00 
 5598              	.LC6:
 5599 001c 2B534341 		.ascii	"+SCAN_CMP\015\000"
 5599      4E5F434D 
 5599      500D00
 5600 0027 00       		.space	1
 5601              	.LC9:
 5602 0028 2B434F4E 		.ascii	"+CONN_EVT=OK\015\000"
 5602      4E5F4556 
 5602      543D4F4B 
 5602      0D00
 5603 0036 0000     		.space	2
 5604              	.LC13:
 5605 0038 2B434F4E 		.ascii	"+CONN_EVT=<%d,OK>\015\012\000"
 5605      4E5F4556 
 5605      543D3C25 
 5605      642C4F4B 
 5605      3E0D0A00 
 5606              	.LC15:
 5607 004c 2B555044 		.ascii	"+UPDATECONN_EVT=OK\015\000"
 5607      41544543 
 5607      4F4E4E5F 
 5607      4556543D 
 5607      4F4B0D00 
ARM GAS  C:\Users\Helon\AppData\Local\Temp\ccys0XsA.s 			page 152


 5608              	.LC17:
 5609 0060 6D747520 		.ascii	"mtu is %d\015\012\000"
 5609      69732025 
 5609      640D0A00 
 5610              	.LC20:
 5611 006c 2B444953 		.ascii	"+DISCONN_EVT=<0x%02X>\015\012\000"
 5611      434F4E4E 
 5611      5F455654 
 5611      3D3C3078 
 5611      25303258 
 5612              	.LC22:
 5613 0084 2B444953 		.ascii	"+DISCONN_EVT=<%d,0x%02X>\015\012\000"
 5613      434F4E4E 
 5613      5F455654 
 5613      3D3C2564 
 5613      2C307825 
 5614 009f 00       		.space	1
 5615              	.LC24:
 5616 00a0 2B4D4F44 		.ascii	"+MODE=<THROUGHT_MODE>\015\000"
 5616      453D3C54 
 5616      48524F55 
 5616      4748545F 
 5616      4D4F4445 
 5617 00b7 00       		.space	1
 5618              	.LC26:
 5619 00b8 2B4D4F44 		.ascii	"+MODE=<AT_COMMAND_MODE>\015\000"
 5619      453D3C41 
 5619      545F434F 
 5619      4D4D414E 
 5619      445F4D4F 
 5620 00d1 000000   		.space	3
 5621              	.LC28:
 5622 00d4 2B444953 		.ascii	"+DIS_EVT=<0x%02X%02X,0x%02X%02X>\015\012\000"
 5622      5F455654 
 5622      3D3C3078 
 5622      25303258 
 5622      25303258 
 5623 00f7 00       		.space	1
 5624              	.LC31:
 5625 00f8 2B415554 		.ascii	"+AUTHKEY=<%lu>\015\012\000"
 5625      484B4559 
 5625      3D3C256C 
 5625      753E0D0A 
 5625      00
 5626 0109 000000   		.space	3
 5627              	.LC33:
 5628 010c 506C6561 		.ascii	"Please Input PassKey:\015\000"
 5628      73652049 
 5628      6E707574 
 5628      20506173 
 5628      734B6579 
 5629 0123 00       		.space	1
 5630              	.LC35:
 5631 0124 2B415554 		.ascii	"+AUTH=OK\015\000"
 5631      483D4F4B 
 5631      0D00
 5632 012e 0000     		.space	2
ARM GAS  C:\Users\Helon\AppData\Local\Temp\ccys0XsA.s 			page 153


 5633              	.LC37:
 5634 0130 41542B45 		.ascii	"AT+ERR=%d\015\012\000"
 5634      52523D25 
 5634      640D0A00 
 5635              	.LC41:
 5636 013c 53656E64 		.ascii	"Send Compelete!\015\000"
 5636      20436F6D 
 5636      70656C65 
 5636      7465210D 
 5636      00
 5637 014d 000000   		.space	3
 5638              	.LC49:
 5639 0150 41540D0A 		.ascii	"AT\015\012\000"
 5639      00
 5640 0155 000000   		.space	3
 5641              	.LC53:
 5642 0158 53656E64 		.ascii	"SendNotification is %d\015\012\000"
 5642      4E6F7469 
 5642      66696361 
 5642      74696F6E 
 5642      20697320 
 5643 0171 000000   		.space	3
 5644              	.LC60:
 5645 0174 41542B45 		.ascii	"AT+ERR=<%d,0x%02X>\015\012\000"
 5645      52523D3C 
 5645      25642C30 
 5645      78253032 
 5645      583E0D0A 
 5646 0189 000000   		.space	3
 5647              	.LC63:
 5648 018c 41542B4F 		.ascii	"AT+OK\015\000"
 5648      4B0D00
 5649 0193 00       		.space	1
 5650              	.LC66:
 5651 0194 2B494E51 		.ascii	"+INQ_CONN:<%d,0x%02X%02X%02X%02X%02X%02X>\015\012\000"
 5651      5F434F4E 
 5651      4E3A3C25 
 5651      642C3078 
 5651      25303258 
 5652              	.LC68:
 5653 01c0 41542B45 		.ascii	"AT+ERR=3\015\000"
 5653      52523D33 
 5653      0D00
 5654 01ca 0000     		.space	2
 5655              	.LC70:
 5656 01cc 41542B45 		.ascii	"AT+ERR=4\015\000"
 5656      52523D34 
 5656      0D00
 5657 01d6 0000     		.space	2
 5658              	.LC73:
 5659 01d8 41542B42 		.ascii	"AT+BAUD=<1200>\015\000"
 5659      4155443D 
 5659      3C313230 
 5659      303E0D00 
 5660              	.LC75:
 5661 01e8 4F4B0D00 		.ascii	"OK\015\000"
 5662              	.LC78:
ARM GAS  C:\Users\Helon\AppData\Local\Temp\ccys0XsA.s 			page 154


 5663 01ec 41542B42 		.ascii	"AT+BAUD=<2400>\015\000"
 5663      4155443D 
 5663      3C323430 
 5663      303E0D00 
 5664              	.LC80:
 5665 01fc 41542B42 		.ascii	"AT+BAUD=<4800>\015\000"
 5665      4155443D 
 5665      3C343830 
 5665      303E0D00 
 5666              	.LC82:
 5667 020c 41542B42 		.ascii	"AT+BAUD=<9600>\015\000"
 5667      4155443D 
 5667      3C393630 
 5667      303E0D00 
 5668              	.LC84:
 5669 021c 41542B42 		.ascii	"AT+BAUD=<19200>\015\000"
 5669      4155443D 
 5669      3C313932 
 5669      30303E0D 
 5669      00
 5670 022d 000000   		.space	3
 5671              	.LC86:
 5672 0230 41542B42 		.ascii	"AT+BAUD=<38400>\015\000"
 5672      4155443D 
 5672      3C333834 
 5672      30303E0D 
 5672      00
 5673 0241 000000   		.space	3
 5674              	.LC88:
 5675 0244 41542B42 		.ascii	"AT+BAUD=<57600>\015\000"
 5675      4155443D 
 5675      3C353736 
 5675      30303E0D 
 5675      00
 5676 0255 000000   		.space	3
 5677              	.LC90:
 5678 0258 41542B42 		.ascii	"AT+BAUD=<115200>\015\000"
 5678      4155443D 
 5678      3C313135 
 5678      3230303E 
 5678      0D00
 5679 026a 0000     		.space	2
 5680              	.LC92:
 5681 026c 41542B42 		.ascii	"AT+BAUD=<230400>\015\000"
 5681      4155443D 
 5681      3C323330 
 5681      3430303E 
 5681      0D00
 5682 027e 0000     		.space	2
 5683              	.LC94:
 5684 0280 41542B42 		.ascii	"AT+BAUD=<460800>\015\000"
 5684      4155443D 
 5684      3C343630 
 5684      3830303E 
 5684      0D00
 5685 0292 0000     		.space	2
 5686              	.LC96:
ARM GAS  C:\Users\Helon\AppData\Local\Temp\ccys0XsA.s 			page 155


 5687 0294 41542B42 		.ascii	"AT+BAUD=<921600>\015\000"
 5687      4155443D 
 5687      3C393231 
 5687      3630303E 
 5687      0D00
 5688 02a6 0000     		.space	2
 5689              	.LC99:
 5690 02a8 2B424155 		.ascii	"+BAUD:<1200>\015\000"
 5690      443A3C31 
 5690      3230303E 
 5690      0D00
 5691 02b6 0000     		.space	2
 5692              	.LC101:
 5693 02b8 2B424155 		.ascii	"+BAUD:<2400>\015\000"
 5693      443A3C32 
 5693      3430303E 
 5693      0D00
 5694 02c6 0000     		.space	2
 5695              	.LC103:
 5696 02c8 2B424155 		.ascii	"+BAUD:<4800>\015\000"
 5696      443A3C34 
 5696      3830303E 
 5696      0D00
 5697 02d6 0000     		.space	2
 5698              	.LC105:
 5699 02d8 2B424155 		.ascii	"+BAUD:<9600>\015\000"
 5699      443A3C39 
 5699      3630303E 
 5699      0D00
 5700 02e6 0000     		.space	2
 5701              	.LC107:
 5702 02e8 2B424155 		.ascii	"+BAUD:<19200>\015\000"
 5702      443A3C31 
 5702      39323030 
 5702      3E0D00
 5703 02f7 00       		.space	1
 5704              	.LC109:
 5705 02f8 2B424155 		.ascii	"+BAUD:<38400>\015\000"
 5705      443A3C33 
 5705      38343030 
 5705      3E0D00
 5706 0307 00       		.space	1
 5707              	.LC111:
 5708 0308 2B424155 		.ascii	"+BAUD:<57600>\015\000"
 5708      443A3C35 
 5708      37363030 
 5708      3E0D00
 5709 0317 00       		.space	1
 5710              	.LC113:
 5711 0318 2B424155 		.ascii	"+BAUD:<115200>\015\000"
 5711      443A3C31 
 5711      31353230 
 5711      303E0D00 
 5712              	.LC115:
 5713 0328 2B424155 		.ascii	"+BAUD:<230400>\015\000"
 5713      443A3C32 
 5713      33303430 
ARM GAS  C:\Users\Helon\AppData\Local\Temp\ccys0XsA.s 			page 156


 5713      303E0D00 
 5714              	.LC117:
 5715 0338 2B424155 		.ascii	"+BAUD:<460800>\015\000"
 5715      443A3C34 
 5715      36303830 
 5715      303E0D00 
 5716              	.LC119:
 5717 0348 2B424155 		.ascii	"+BAUD:<921600>\015\000"
 5717      443A3C39 
 5717      32313630 
 5717      303E0D00 
 5718              	.LC124:
 5719 0358 2B545850 		.ascii	"+TXP:<-18dBm>\015\000"
 5719      3A3C2D31 
 5719      3864426D 
 5719      3E0D00
 5720 0367 00       		.space	1
 5721              	.LC126:
 5722 0368 2B545850 		.ascii	"+TXP:<-12dBm>\015\000"
 5722      3A3C2D31 
 5722      3264426D 
 5722      3E0D00
 5723 0377 00       		.space	1
 5724              	.LC128:
 5725 0378 2B545850 		.ascii	"+TXP:<-6dBm>\015\000"
 5725      3A3C2D36 
 5725      64426D3E 
 5725      0D00
 5726 0386 0000     		.space	2
 5727              	.LC130:
 5728 0388 2B545850 		.ascii	"+TXP:<-3dBm>\015\000"
 5728      3A3C2D33 
 5728      64426D3E 
 5728      0D00
 5729 0396 0000     		.space	2
 5730              	.LC132:
 5731 0398 2B545850 		.ascii	"+TXP:<-2dBm>\015\000"
 5731      3A3C2D32 
 5731      64426D3E 
 5731      0D00
 5732 03a6 0000     		.space	2
 5733              	.LC134:
 5734 03a8 2B545850 		.ascii	"+TXP:<-1dBm>\015\000"
 5734      3A3C2D31 
 5734      64426D3E 
 5734      0D00
 5735 03b6 0000     		.space	2
 5736              	.LC136:
 5737 03b8 2B545850 		.ascii	"+TXP:<0dBm>\015\000"
 5737      3A3C3064 
 5737      426D3E0D 
 5737      00
 5738 03c5 000000   		.space	3
 5739              	.LC138:
 5740 03c8 2B545850 		.ascii	"+TXP:<3dBm>\015\000"
 5740      3A3C3364 
 5740      426D3E0D 
ARM GAS  C:\Users\Helon\AppData\Local\Temp\ccys0XsA.s 			page 157


 5740      00
 5741 03d5 000000   		.space	3
 5742              	.LC144:
 5743 03d8 2B564552 		.ascii	"+VERSION=Ver1.4\015\000"
 5743      53494F4E 
 5743      3D566572 
 5743      312E340D 
 5743      00
 5744 03e9 000000   		.space	3
 5745              	.LC146:
 5746 03ec 41542B45 		.ascii	"AT+ERR=5\015\000"
 5746      52523D35 
 5746      0D00
 5747 03f6 0000     		.space	2
 5748              	.LC149:
 5749 03f8 2B4C4144 		.ascii	"+LADDR:<0x%02X%02X%02X%02X%02X%02X>\015\012\000"
 5749      44523A3C 
 5749      30782530 
 5749      32582530 
 5749      32582530 
 5750 041e 0000     		.space	2
 5751              	.LC152:
 5752 0420 2B4E414D 		.ascii	"+NAME=<%s>\015\012\000"
 5752      453D3C25 
 5752      733E0D0A 
 5752      00
 5753 042d 000000   		.space	3
 5754              	.LC154:
 5755 0430 41542B45 		.ascii	"AT+ERR=6\015\000"
 5755      52523D36 
 5755      0D00
 5756 043a 0000     		.space	2
 5757              	.LC157:
 5758 043c 41542B45 		.ascii	"AT+ERR=2\015\000"
 5758      52523D32 
 5758      0D00
 5759 0446 0000     		.space	2
 5760              	.LC162:
 5761 0448 2B414456 		.ascii	"+ADVD=<0x\000"
 5761      443D3C30 
 5761      7800
 5762 0452 0000     		.space	2
 5763              	.LC164:
 5764 0454 25303258 		.ascii	"%02X\000"
 5764      00
 5765 0459 000000   		.space	3
 5766              	.LC166:
 5767 045c 3E0D00   		.ascii	">\015\000"
 5768 045f 00       		.space	1
 5769              	.LC168:
 5770 0460 2B414456 		.ascii	"+ADVI=<MIN=%hdms,MAX=%hdms,TIMEOUT=%hus>\015\012\000"
 5770      493D3C4D 
 5770      494E3D25 
 5770      68646D73 
 5770      2C4D4158 
 5771 048b 00       		.space	1
 5772              	.LC171:
ARM GAS  C:\Users\Helon\AppData\Local\Temp\ccys0XsA.s 			page 158


 5773 048c 2B434F4E 		.ascii	"+CONNI=<CONNINTV=0x%04X,CONNTO=0x%04X,CONNLATENCY=0"
 5773      4E493D3C 
 5773      434F4E4E 
 5773      494E5456 
 5773      3D307825 
 5774 04bf 78253034 		.ascii	"x%04X>\015\012\000"
 5774      583E0D0A 
 5774      00
 5775              	.LC175:
 5776 04c8 2B524F4C 		.ascii	"+ROLE:<Peripheral>\015\000"
 5776      453A3C50 
 5776      65726970 
 5776      68657261 
 5776      6C3E0D00 
 5777              	.LC177:
 5778 04dc 2B524F4C 		.ascii	"+ROLE:<Central>\015\000"
 5778      453A3C43 
 5778      656E7472 
 5778      616C3E0D 
 5778      00
 5779 04ed 000000   		.space	3
 5780              	.LC180:
 5781 04f0 2B494E51 		.ascii	"+INQ_SCAN:<%d,0x%02X%02X%02X%02X%02X%02X>\015\012\000"
 5781      5F534341 
 5781      4E3A3C25 
 5781      642C3078 
 5781      25303258 
 5782              	.LC185:
 5783 051c 2B525353 		.ascii	"+RSSI:<%ddBm>\015\012\000"
 5783      493A3C25 
 5783      6464426D 
 5783      3E0D0A00 
 5784              	.LC187:
 5785 052c 256C640D 		.ascii	"%ld\015\012\000"
 5785      0A00
 5786 0532 0000     		.space	2
 5787              	.LC193:
 5788 0534 2B535441 		.ascii	"+STAUS=<STATE_STOPPED>\015\000"
 5788      55533D3C 
 5788      53544154 
 5788      455F5354 
 5788      4F505045 
 5789              	.LC195:
 5790 054c 2B535441 		.ascii	"+STAUS=<STATE_INITIALIZING>\015\000"
 5790      55533D3C 
 5790      53544154 
 5790      455F494E 
 5790      49544941 
 5791 0569 000000   		.space	3
 5792              	.LC197:
 5793 056c 2B535441 		.ascii	"+STAUS=<STATE_CONNECTED>\015\000"
 5793      55533D3C 
 5793      53544154 
 5793      455F434F 
 5793      4E4E4543 
 5794 0586 0000     		.space	2
 5795              	.LC199:
ARM GAS  C:\Users\Helon\AppData\Local\Temp\ccys0XsA.s 			page 159


 5796 0588 2B535441 		.ascii	"+STAUS=<STATE_ADVERTISING>\015\000"
 5796      55533D3C 
 5796      53544154 
 5796      455F4144 
 5796      56455254 
 5797              	.LC201:
 5798 05a4 2B535441 		.ascii	"+STAUS=<STATE_SCANNING>\015\000"
 5798      55533D3C 
 5798      53544154 
 5798      455F5343 
 5798      414E4E49 
 5799 05bd 000000   		.space	3
 5800              	.LC203:
 5801 05c0 2B535441 		.ascii	"+STAUS=<STATE_CONNECTING>\015\000"
 5801      55533D3C 
 5801      53544154 
 5801      455F434F 
 5801      4E4E4543 
 5802 05db 00       		.space	1
 5803              	.LC205:
 5804 05dc 2B535441 		.ascii	"+STAUS=<STATE_DISCONNECTED>\015\000"
 5804      55533D3C 
 5804      53544154 
 5804      455F4449 
 5804      53434F4E 
 5805 05f9 000000   		.space	3
 5806              	.LC209:
 5807 05fc 2B494F43 		.ascii	"+IOCAP=<DISPLAY_ONLY>\015\000"
 5807      41503D3C 
 5807      44495350 
 5807      4C41595F 
 5807      4F4E4C59 
 5808 0613 00       		.space	1
 5809              	.LC211:
 5810 0614 2B494F43 		.ascii	"+IOCAP=<DISPLAY_YESNO>\015\000"
 5810      41503D3C 
 5810      44495350 
 5810      4C41595F 
 5810      5945534E 
 5811              	.LC213:
 5812 062c 2B494F43 		.ascii	"+IOCAP=<KEYBOARD_ONLY>\015\000"
 5812      41503D3C 
 5812      4B455942 
 5812      4F415244 
 5812      5F4F4E4C 
 5813              	.LC215:
 5814 0644 2B494F43 		.ascii	"+IOCAP=<NOINPUT_NOOUTPUT>\015\000"
 5814      41503D3C 
 5814      4E4F494E 
 5814      5055545F 
 5814      4E4F4F55 
 5815 065f 00       		.space	1
 5816              	.LC217:
 5817 0660 2B494F43 		.ascii	"+IOCAP=<KEYBOARD_DISPLAY>\015\000"
 5817      41503D3C 
 5817      4B455942 
 5817      4F415244 
ARM GAS  C:\Users\Helon\AppData\Local\Temp\ccys0XsA.s 			page 160


 5817      5F444953 
 5818 067b 00       		.space	1
 5819              	.LC219:
 5820 067c 2B415554 		.ascii	"+AUTH=<ENABLE>\015\000"
 5820      483D3C45 
 5820      4E41424C 
 5820      453E0D00 
 5821              	.LC221:
 5822 068c 2B415554 		.ascii	"+AUTH=<DISABLE>\015\000"
 5822      483D3C44 
 5822      49534142 
 5822      4C453E0D 
 5822      00
 5823 069d 000000   		.space	3
 5824              	.LC226:
 5825 06a0 41542B4E 		.ascii	"AT+NOTIFY=0\000"
 5825      4F544946 
 5825      593D3000 
 5826              	.LC231:
 5827 06ac 41542B4E 		.ascii	"AT+NOTIFY=?\000"
 5827      4F544946 
 5827      593D3F00 
 5828              	.LC236:
 5829 06b8 2B415554 		.ascii	"+AUTHKEY=<INVALID>\015\000"
 5829      484B4559 
 5829      3D3C494E 
 5829      56414C49 
 5829      443E0D00 
 5830              	.LC238:
 5831 06cc 4359424C 		.ascii	"CYBLE_ERROR_INVALID_PARAMETER \015\000"
 5831      455F4552 
 5831      524F525F 
 5831      494E5641 
 5831      4C49445F 
 5832              	.LC240:
 5833 06ec 4359424C 		.ascii	"CYBLE_ERROR_MEMORY_ALLOCATION_FAILED\015\000"
 5833      455F4552 
 5833      524F525F 
 5833      4D454D4F 
 5833      52595F41 
 5834 0712 0000     		.space	2
 5835              	.LC242:
 5836 0714 4359424C 		.ascii	"CYBLE_ERROR_NO_DEVICE_ENTITY\015\000"
 5836      455F4552 
 5836      524F525F 
 5836      4E4F5F44 
 5836      45564943 
 5837 0732 0000     		.space	2
 5838              	.LC244:
 5839 0734 2B415554 		.ascii	"+AUTHKEY=<SUCCESFULLY>\015\000"
 5839      484B4559 
 5839      3D3C5355 
 5839      43434553 
 5839      46554C4C 
 5840              	.LC248:
 5841 074c 41542B52 		.ascii	"AT+RESET\000"
 5841      45534554 
ARM GAS  C:\Users\Helon\AppData\Local\Temp\ccys0XsA.s 			page 161


 5841      00
 5842 0755 000000   		.space	3
 5843              	.LC249:
 5844 0758 41542B52 		.ascii	"AT+REFAC\000"
 5844      45464143 
 5844      00
 5845 0761 000000   		.space	3
 5846              	.LC250:
 5847 0764 41542B56 		.ascii	"AT+VERSION\000"
 5847      45525349 
 5847      4F4E00
 5848 076f 00       		.space	1
 5849              	.LC251:
 5850 0770 41542B42 		.ascii	"AT+BAUD\000"
 5850      41554400 
 5851              	.LC252:
 5852 0778 41542B4C 		.ascii	"AT+LADDR\000"
 5852      41444452 
 5852      00
 5853 0781 000000   		.space	3
 5854              	.LC253:
 5855 0784 41542B4E 		.ascii	"AT+NAME\000"
 5855      414D4500 
 5856              	.LC254:
 5857 078c 41542B43 		.ascii	"AT+CPIN\000"
 5857      50494E00 
 5858              	.LC255:
 5859 0794 41542B54 		.ascii	"AT+TXP\000"
 5859      585000
 5860 079b 00       		.space	1
 5861              	.LC256:
 5862 079c 41542B41 		.ascii	"AT+ADVD\000"
 5862      44564400 
 5863              	.LC257:
 5864 07a4 41542B41 		.ascii	"AT+ADVI\000"
 5864      44564900 
 5865              	.LC258:
 5866 07ac 41542B43 		.ascii	"AT+CONNI\000"
 5866      4F4E4E49 
 5866      00
 5867 07b5 000000   		.space	3
 5868              	.LC259:
 5869 07b8 41542B52 		.ascii	"AT+ROLE\000"
 5869      4F4C4500 
 5870              	.LC260:
 5871 07c0 41542B53 		.ascii	"AT+SCAN\000"
 5871      43414E00 
 5872              	.LC261:
 5873 07c8 41542B43 		.ascii	"AT+CONNT\000"
 5873      4F4E4E54 
 5873      00
 5874 07d1 000000   		.space	3
 5875              	.LC262:
 5876 07d4 41542B44 		.ascii	"AT+DISCONN\000"
 5876      4953434F 
 5876      4E4E00
 5877 07df 00       		.space	1
ARM GAS  C:\Users\Helon\AppData\Local\Temp\ccys0XsA.s 			page 162


 5878              	.LC263:
 5879 07e0 41542B4C 		.ascii	"AT+LOGIN\000"
 5879      4F47494E 
 5879      00
 5880 07e9 000000   		.space	3
 5881              	.LC264:
 5882 07ec 41542B54 		.ascii	"AT+TX\000"
 5882      5800
 5883 07f2 0000     		.space	2
 5884              	.LC265:
 5885 07f4 41542B52 		.ascii	"AT+RSSI\000"
 5885      53534900 
 5886              	.LC266:
 5887 07fc 41542B44 		.ascii	"AT+DISALLCHAR\000"
 5887      4953414C 
 5887      4C434841 
 5887      5200
 5888 080a 0000     		.space	2
 5889              	.LC267:
 5890 080c 415400   		.ascii	"AT\000"
 5891 080f 00       		.space	1
 5892              	.LC268:
 5893 0810 41542B53 		.ascii	"AT+SPEED\000"
 5893      50454544 
 5893      00
 5894 0819 000000   		.space	3
 5895              	.LC269:
 5896 081c 41542B4E 		.ascii	"AT+NOTIFY\000"
 5896      4F544946 
 5896      5900
 5897 0826 0000     		.space	2
 5898              	.LC270:
 5899 0828 41542B53 		.ascii	"AT+STAUS\000"
 5899      54415553 
 5899      00
 5900 0831 000000   		.space	3
 5901              	.LC271:
 5902 0834 41542B41 		.ascii	"AT+ADVS\000"
 5902      44565300 
 5903              	.LC272:
 5904 083c 41542B41 		.ascii	"AT+AUTH\000"
 5904      55544800 
 5905              	.LC273:
 5906 0844 41542B49 		.ascii	"AT+IOCAP\000"
 5906      4F434150 
 5906      00
 5907 084d 000000   		.bss
 5908              		.align	2
 5909              		.set	.LANCHOR0,. + 0
 5910              		.type	STOP_SCAN_FLAG, %object
 5911              		.size	STOP_SCAN_FLAG, 1
 5912              	STOP_SCAN_FLAG:
 5913 0000 00       		.space	1
 5914              		.type	Role, %object
 5915              		.size	Role, 1
 5916              	Role:
 5917 0001 00       		.space	1
ARM GAS  C:\Users\Helon\AppData\Local\Temp\ccys0XsA.s 			page 163


 5918              		.type	Conn_or_Disconn_Idx, %object
 5919              		.size	Conn_or_Disconn_Idx, 1
 5920              	Conn_or_Disconn_Idx:
 5921 0002 00       		.space	1
 5922              		.type	AUTHFLAG, %object
 5923              		.size	AUTHFLAG, 1
 5924              	AUTHFLAG:
 5925 0003 00       		.space	1
 5926              		.type	testCount, %object
 5927              		.size	testCount, 4
 5928              	testCount:
 5929 0004 00000000 		.space	4
 5930              		.type	charNotificationEnabled, %object
 5931              		.size	charNotificationEnabled, 1
 5932              	charNotificationEnabled:
 5933 0008 00       		.space	1
 5934              		.type	CommandMode, %object
 5935              		.size	CommandMode, 1
 5936              	CommandMode:
 5937 0009 00       		.space	1
 5938              		.type	TroughtTest_Flag, %object
 5939              		.size	TroughtTest_Flag, 1
 5940              	TroughtTest_Flag:
 5941 000a 00       		.space	1
 5942 000b 00       		.space	1
 5943              		.type	totalByteCounter, %object
 5944              		.size	totalByteCounter, 4
 5945              	totalByteCounter:
 5946 000c 00000000 		.space	4
 5947              		.type	KEYBOARD, %object
 5948              		.size	KEYBOARD, 1
 5949              	KEYBOARD:
 5950 0010 00       		.space	1
 5951              		.type	_10sIsOver, %object
 5952              		.size	_10sIsOver, 1
 5953              	_10sIsOver:
 5954 0011 00       		.space	1
 5955 0012 0000     		.space	2
 5956              		.type	timercount.7917, %object
 5957              		.size	timercount.7917, 4
 5958              	timercount.7917:
 5959 0014 00000000 		.space	4
 5960              		.type	rx_isover, %object
 5961              		.size	rx_isover, 1
 5962              	rx_isover:
 5963 0018 00       		.space	1
 5964              		.type	Buffer_Length, %object
 5965              		.size	Buffer_Length, 1
 5966              	Buffer_Length:
 5967 0019 00       		.space	1
 5968 001a 0000     		.space	2
 5969              		.type	RX_BUFFER, %object
 5970              		.size	RX_BUFFER, 48
 5971              	RX_BUFFER:
 5972 001c 00000000 		.space	48
 5972      00000000 
 5972      00000000 
ARM GAS  C:\Users\Helon\AppData\Local\Temp\ccys0XsA.s 			page 164


 5972      00000000 
 5972      00000000 
 5973              		.type	iocapability, %object
 5974              		.size	iocapability, 1
 5975              	iocapability:
 5976 004c 00       		.space	1
 5977              		.type	RxFlag, %object
 5978              		.size	RxFlag, 1
 5979              	RxFlag:
 5980 004d 00       		.space	1
 5981 004e 0000     		.text
 5982              	.Letext0:
 5983              		.file 2 "c:\\program files (x86)\\cypress\\psoc creator\\3.3\\psoc creator\\import\\gnu\\arm\\4.9.
 5984              		.file 3 "c:\\program files (x86)\\cypress\\psoc creator\\3.3\\psoc creator\\import\\gnu\\arm\\4.9.
 5985              		.file 4 "Generated_Source\\PSoC4/cytypes.h"
 5986              		.file 5 "c:\\program files (x86)\\cypress\\psoc creator\\3.3\\psoc creator\\import\\gnu\\arm\\4.9.
 5987              		.file 6 "Generated_Source\\PSoC4/BLE_Stack.h"
 5988              		.file 7 "Generated_Source\\PSoC4/BLE_StackHostMain.h"
 5989              		.file 8 "Generated_Source\\PSoC4/BLE_StackGap.h"
 5990              		.file 9 "Generated_Source\\PSoC4/BLE_StackGatt.h"
 5991              		.file 10 "Generated_Source\\PSoC4/BLE_StackGattServer.h"
 5992              		.file 11 "Generated_Source\\PSoC4/BLE_StackGattClient.h"
 5993              		.file 12 "Generated_Source\\PSoC4/BLE.h"
 5994              		.file 13 "Generated_Source\\PSoC4/BLE_eventHandler.h"
 5995              		.file 14 "Generated_Source\\PSoC4/UART_SPI_UART.h"
 5996              		.file 15 ".\\BLEApplication.h"
 5997              		.file 16 ".\\BLEClient.h"
 5998              		.file 17 "c:\\program files (x86)\\cypress\\psoc creator\\3.3\\psoc creator\\import\\gnu\\arm\\4.9
 5999              		.file 18 "Generated_Source\\PSoC4/BLE_StackL2cap.h"
 6000              		.file 19 "c:\\program files (x86)\\cypress\\psoc creator\\3.3\\psoc creator\\import\\gnu\\arm\\4.9
 6001              		.file 20 "Generated_Source\\PSoC4/Timer.h"
 6002              		.file 21 "Generated_Source\\PSoC4/Status_LED.h"
 6003              		.file 22 "Generated_Source\\PSoC4/UART.h"
 6004              		.file 23 "Generated_Source\\PSoC4/cyPm.h"
 6005              		.file 24 "Generated_Source\\PSoC4/CyLib.h"
 6006              		.file 25 "Generated_Source\\PSoC4/UART_RX_WAKEUP_IRQ.h"
 6007              		.file 26 "Generated_Source\\PSoC4/UART_rx_wake.h"
 6008              		.file 27 "Generated_Source\\PSoC4/Connected_LED.h"
 6009              		.file 28 "Generated_Source\\PSoC4/CTS.h"
 6010              		.file 29 "Generated_Source\\PSoC4/TimerInterrupt.h"
 6011              		.file 30 "c:\\program files (x86)\\cypress\\psoc creator\\3.3\\psoc creator\\import\\gnu\\arm\\4.9
 6012              		.file 31 "c:\\program files (x86)\\cypress\\psoc creator\\3.3\\psoc creator\\import\\gnu\\arm\\4.9
 6013              		.file 32 ".\\WriteUserSFlash.h"
 6014              		.file 33 "<built-in>"
 6015              		.section	.debug_info,"",%progbits
 6016              	.Ldebug_info0:
 6017 0000 0F3E0000 		.4byte	0x3e0f
 6018 0004 0400     		.2byte	0x4
 6019 0006 00000000 		.4byte	.Ldebug_abbrev0
 6020 000a 04       		.byte	0x4
 6021 000b 01       		.uleb128 0x1
 6022 000c D91F0000 		.4byte	.LASF749
 6023 0010 01       		.byte	0x1
 6024 0011 0A400000 		.4byte	.LASF750
 6025 0015 171A0000 		.4byte	.LASF751
 6026 0019 00000000 		.4byte	.Ldebug_ranges0+0
 6027 001d 00000000 		.4byte	0
ARM GAS  C:\Users\Helon\AppData\Local\Temp\ccys0XsA.s 			page 165


 6028 0021 00000000 		.4byte	.Ldebug_line0
 6029 0025 02       		.uleb128 0x2
 6030 0026 E7300000 		.4byte	.LASF0
 6031 002a 02       		.byte	0x2
 6032 002b 1B       		.byte	0x1b
 6033 002c 30000000 		.4byte	0x30
 6034 0030 03       		.uleb128 0x3
 6035 0031 01       		.byte	0x1
 6036 0032 06       		.byte	0x6
 6037 0033 1F0F0000 		.4byte	.LASF2
 6038 0037 02       		.uleb128 0x2
 6039 0038 D1090000 		.4byte	.LASF1
 6040 003c 02       		.byte	0x2
 6041 003d 1D       		.byte	0x1d
 6042 003e 42000000 		.4byte	0x42
 6043 0042 03       		.uleb128 0x3
 6044 0043 01       		.byte	0x1
 6045 0044 08       		.byte	0x8
 6046 0045 D9100000 		.4byte	.LASF3
 6047 0049 02       		.uleb128 0x2
 6048 004a 45350000 		.4byte	.LASF4
 6049 004e 02       		.byte	0x2
 6050 004f 29       		.byte	0x29
 6051 0050 54000000 		.4byte	0x54
 6052 0054 03       		.uleb128 0x3
 6053 0055 02       		.byte	0x2
 6054 0056 05       		.byte	0x5
 6055 0057 5C3A0000 		.4byte	.LASF5
 6056 005b 02       		.uleb128 0x2
 6057 005c EE140000 		.4byte	.LASF6
 6058 0060 02       		.byte	0x2
 6059 0061 2B       		.byte	0x2b
 6060 0062 66000000 		.4byte	0x66
 6061 0066 03       		.uleb128 0x3
 6062 0067 02       		.byte	0x2
 6063 0068 07       		.byte	0x7
 6064 0069 E2420000 		.4byte	.LASF7
 6065 006d 03       		.uleb128 0x3
 6066 006e 04       		.byte	0x4
 6067 006f 05       		.byte	0x5
 6068 0070 A20B0000 		.4byte	.LASF8
 6069 0074 02       		.uleb128 0x2
 6070 0075 4D230000 		.4byte	.LASF9
 6071 0079 02       		.byte	0x2
 6072 007a 41       		.byte	0x41
 6073 007b 7F000000 		.4byte	0x7f
 6074 007f 03       		.uleb128 0x3
 6075 0080 04       		.byte	0x4
 6076 0081 07       		.byte	0x7
 6077 0082 5D1E0000 		.4byte	.LASF10
 6078 0086 03       		.uleb128 0x3
 6079 0087 08       		.byte	0x8
 6080 0088 05       		.byte	0x5
 6081 0089 CD230000 		.4byte	.LASF11
 6082 008d 03       		.uleb128 0x3
 6083 008e 08       		.byte	0x8
 6084 008f 07       		.byte	0x7
ARM GAS  C:\Users\Helon\AppData\Local\Temp\ccys0XsA.s 			page 166


 6085 0090 7D310000 		.4byte	.LASF12
 6086 0094 04       		.uleb128 0x4
 6087 0095 04       		.byte	0x4
 6088 0096 05       		.byte	0x5
 6089 0097 696E7400 		.ascii	"int\000"
 6090 009b 03       		.uleb128 0x3
 6091 009c 04       		.byte	0x4
 6092 009d 07       		.byte	0x7
 6093 009e BE280000 		.4byte	.LASF13
 6094 00a2 02       		.uleb128 0x2
 6095 00a3 2D000000 		.4byte	.LASF14
 6096 00a7 03       		.byte	0x3
 6097 00a8 14       		.byte	0x14
 6098 00a9 25000000 		.4byte	0x25
 6099 00ad 02       		.uleb128 0x2
 6100 00ae 710F0000 		.4byte	.LASF15
 6101 00b2 03       		.byte	0x3
 6102 00b3 15       		.byte	0x15
 6103 00b4 37000000 		.4byte	0x37
 6104 00b8 02       		.uleb128 0x2
 6105 00b9 6E3B0000 		.4byte	.LASF16
 6106 00bd 03       		.byte	0x3
 6107 00be 20       		.byte	0x20
 6108 00bf 49000000 		.4byte	0x49
 6109 00c3 02       		.uleb128 0x2
 6110 00c4 E0310000 		.4byte	.LASF17
 6111 00c8 03       		.byte	0x3
 6112 00c9 21       		.byte	0x21
 6113 00ca 5B000000 		.4byte	0x5b
 6114 00ce 02       		.uleb128 0x2
 6115 00cf 43410000 		.4byte	.LASF18
 6116 00d3 03       		.byte	0x3
 6117 00d4 2D       		.byte	0x2d
 6118 00d5 74000000 		.4byte	0x74
 6119 00d9 02       		.uleb128 0x2
 6120 00da BF390000 		.4byte	.LASF19
 6121 00de 04       		.byte	0x4
 6122 00df C2       		.byte	0xc2
 6123 00e0 42000000 		.4byte	0x42
 6124 00e4 02       		.uleb128 0x2
 6125 00e5 5F460000 		.4byte	.LASF20
 6126 00e9 04       		.byte	0x4
 6127 00ea C3       		.byte	0xc3
 6128 00eb 66000000 		.4byte	0x66
 6129 00ef 02       		.uleb128 0x2
 6130 00f0 57030000 		.4byte	.LASF21
 6131 00f4 04       		.byte	0x4
 6132 00f5 C4       		.byte	0xc4
 6133 00f6 7F000000 		.4byte	0x7f
 6134 00fa 02       		.uleb128 0x2
 6135 00fb 50080000 		.4byte	.LASF22
 6136 00ff 04       		.byte	0x4
 6137 0100 C5       		.byte	0xc5
 6138 0101 30000000 		.4byte	0x30
 6139 0105 03       		.uleb128 0x3
 6140 0106 04       		.byte	0x4
 6141 0107 04       		.byte	0x4
ARM GAS  C:\Users\Helon\AppData\Local\Temp\ccys0XsA.s 			page 167


 6142 0108 33270000 		.4byte	.LASF23
 6143 010c 03       		.uleb128 0x3
 6144 010d 08       		.byte	0x8
 6145 010e 04       		.byte	0x4
 6146 010f 17250000 		.4byte	.LASF24
 6147 0113 02       		.uleb128 0x2
 6148 0114 66060000 		.4byte	.LASF25
 6149 0118 04       		.byte	0x4
 6150 0119 D3       		.byte	0xd3
 6151 011a 1E010000 		.4byte	0x11e
 6152 011e 03       		.uleb128 0x3
 6153 011f 01       		.byte	0x1
 6154 0120 08       		.byte	0x8
 6155 0121 F8130000 		.4byte	.LASF26
 6156 0125 05       		.uleb128 0x5
 6157 0126 D9000000 		.4byte	0xd9
 6158 012a 06       		.uleb128 0x6
 6159 012b E9310000 		.4byte	.LASF27
 6160 012f 04       		.byte	0x4
 6161 0130 6E01     		.2byte	0x16e
 6162 0132 36010000 		.4byte	0x136
 6163 0136 05       		.uleb128 0x5
 6164 0137 EF000000 		.4byte	0xef
 6165 013b 06       		.uleb128 0x6
 6166 013c 4F300000 		.4byte	.LASF28
 6167 0140 04       		.byte	0x4
 6168 0141 7E01     		.2byte	0x17e
 6169 0143 47010000 		.4byte	0x147
 6170 0147 07       		.uleb128 0x7
 6171 0148 04       		.byte	0x4
 6172 0149 4D010000 		.4byte	0x14d
 6173 014d 08       		.uleb128 0x8
 6174 014e 02       		.uleb128 0x2
 6175 014f 88000000 		.4byte	.LASF29
 6176 0153 05       		.byte	0x5
 6177 0154 D4       		.byte	0xd4
 6178 0155 9B000000 		.4byte	0x9b
 6179 0159 03       		.uleb128 0x3
 6180 015a 04       		.byte	0x4
 6181 015b 07       		.byte	0x7
 6182 015c 8F000000 		.4byte	.LASF30
 6183 0160 09       		.uleb128 0x9
 6184 0161 04       		.byte	0x4
 6185 0162 07       		.uleb128 0x7
 6186 0163 04       		.byte	0x4
 6187 0164 1E010000 		.4byte	0x11e
 6188 0168 07       		.uleb128 0x7
 6189 0169 04       		.byte	0x4
 6190 016a 6E010000 		.4byte	0x16e
 6191 016e 0A       		.uleb128 0xa
 6192 016f 1E010000 		.4byte	0x11e
 6193 0173 0B       		.uleb128 0xb
 6194 0174 01       		.byte	0x1
 6195 0175 06       		.byte	0x6
 6196 0176 A4       		.byte	0xa4
 6197 0177 F8020000 		.4byte	0x2f8
 6198 017b 0C       		.uleb128 0xc
ARM GAS  C:\Users\Helon\AppData\Local\Temp\ccys0XsA.s 			page 168


 6199 017c 9E140000 		.4byte	.LASF31
 6200 0180 00       		.sleb128 0
 6201 0181 0C       		.uleb128 0xc
 6202 0182 460C0000 		.4byte	.LASF32
 6203 0186 01       		.sleb128 1
 6204 0187 0C       		.uleb128 0xc
 6205 0188 9C310000 		.4byte	.LASF33
 6206 018c 02       		.sleb128 2
 6207 018d 0C       		.uleb128 0xc
 6208 018e 03100000 		.4byte	.LASF34
 6209 0192 03       		.sleb128 3
 6210 0193 0C       		.uleb128 0xc
 6211 0194 49440000 		.4byte	.LASF35
 6212 0198 04       		.sleb128 4
 6213 0199 0C       		.uleb128 0xc
 6214 019a 74200000 		.4byte	.LASF36
 6215 019e 05       		.sleb128 5
 6216 019f 0C       		.uleb128 0xc
 6217 01a0 CA3C0000 		.4byte	.LASF37
 6218 01a4 20       		.sleb128 32
 6219 01a5 0C       		.uleb128 0xc
 6220 01a6 39080000 		.4byte	.LASF38
 6221 01aa 21       		.sleb128 33
 6222 01ab 0C       		.uleb128 0xc
 6223 01ac 79220000 		.4byte	.LASF39
 6224 01b0 22       		.sleb128 34
 6225 01b1 0C       		.uleb128 0xc
 6226 01b2 F72B0000 		.4byte	.LASF40
 6227 01b6 23       		.sleb128 35
 6228 01b7 0C       		.uleb128 0xc
 6229 01b8 D31C0000 		.4byte	.LASF41
 6230 01bc 24       		.sleb128 36
 6231 01bd 0C       		.uleb128 0xc
 6232 01be 221D0000 		.4byte	.LASF42
 6233 01c2 25       		.sleb128 37
 6234 01c3 0C       		.uleb128 0xc
 6235 01c4 F3380000 		.4byte	.LASF43
 6236 01c8 26       		.sleb128 38
 6237 01c9 0C       		.uleb128 0xc
 6238 01ca B0020000 		.4byte	.LASF44
 6239 01ce 27       		.sleb128 39
 6240 01cf 0C       		.uleb128 0xc
 6241 01d0 B4450000 		.4byte	.LASF45
 6242 01d4 28       		.sleb128 40
 6243 01d5 0C       		.uleb128 0xc
 6244 01d6 F62E0000 		.4byte	.LASF46
 6245 01da 29       		.sleb128 41
 6246 01db 0C       		.uleb128 0xc
 6247 01dc 35210000 		.4byte	.LASF47
 6248 01e0 2A       		.sleb128 42
 6249 01e1 0C       		.uleb128 0xc
 6250 01e2 C32A0000 		.4byte	.LASF48
 6251 01e6 2B       		.sleb128 43
 6252 01e7 0C       		.uleb128 0xc
 6253 01e8 AB410000 		.4byte	.LASF49
 6254 01ec 2C       		.sleb128 44
 6255 01ed 0C       		.uleb128 0xc
ARM GAS  C:\Users\Helon\AppData\Local\Temp\ccys0XsA.s 			page 169


 6256 01ee 763B0000 		.4byte	.LASF50
 6257 01f2 C000     		.sleb128 64
 6258 01f4 0C       		.uleb128 0xc
 6259 01f5 00030000 		.4byte	.LASF51
 6260 01f9 C100     		.sleb128 65
 6261 01fb 0C       		.uleb128 0xc
 6262 01fc 76440000 		.4byte	.LASF52
 6263 0200 C200     		.sleb128 66
 6264 0202 0C       		.uleb128 0xc
 6265 0203 C12F0000 		.4byte	.LASF53
 6266 0207 C300     		.sleb128 67
 6267 0209 0C       		.uleb128 0xc
 6268 020a E7100000 		.4byte	.LASF54
 6269 020e C400     		.sleb128 68
 6270 0210 0C       		.uleb128 0xc
 6271 0211 7B100000 		.4byte	.LASF55
 6272 0215 C500     		.sleb128 69
 6273 0217 0C       		.uleb128 0xc
 6274 0218 AA360000 		.4byte	.LASF56
 6275 021c C600     		.sleb128 70
 6276 021e 0C       		.uleb128 0xc
 6277 021f 8C360000 		.4byte	.LASF57
 6278 0223 C700     		.sleb128 71
 6279 0225 0C       		.uleb128 0xc
 6280 0226 67130000 		.4byte	.LASF58
 6281 022a C800     		.sleb128 72
 6282 022c 0C       		.uleb128 0xc
 6283 022d 802C0000 		.4byte	.LASF59
 6284 0231 C900     		.sleb128 73
 6285 0233 0C       		.uleb128 0xc
 6286 0234 24150000 		.4byte	.LASF60
 6287 0238 CA00     		.sleb128 74
 6288 023a 0C       		.uleb128 0xc
 6289 023b 34140000 		.4byte	.LASF61
 6290 023f CB00     		.sleb128 75
 6291 0241 0C       		.uleb128 0xc
 6292 0242 3C2B0000 		.4byte	.LASF62
 6293 0246 CC00     		.sleb128 76
 6294 0248 0C       		.uleb128 0xc
 6295 0249 10380000 		.4byte	.LASF63
 6296 024d CD00     		.sleb128 77
 6297 024f 0C       		.uleb128 0xc
 6298 0250 410B0000 		.4byte	.LASF64
 6299 0254 CE00     		.sleb128 78
 6300 0256 0C       		.uleb128 0xc
 6301 0257 CB280000 		.4byte	.LASF65
 6302 025b CF00     		.sleb128 79
 6303 025d 0C       		.uleb128 0xc
 6304 025e AB3C0000 		.4byte	.LASF66
 6305 0262 D000     		.sleb128 80
 6306 0264 0C       		.uleb128 0xc
 6307 0265 88150000 		.4byte	.LASF67
 6308 0269 D100     		.sleb128 81
 6309 026b 0C       		.uleb128 0xc
 6310 026c 18080000 		.4byte	.LASF68
 6311 0270 D200     		.sleb128 82
 6312 0272 0C       		.uleb128 0xc
ARM GAS  C:\Users\Helon\AppData\Local\Temp\ccys0XsA.s 			page 170


 6313 0273 A5400000 		.4byte	.LASF69
 6314 0277 D300     		.sleb128 83
 6315 0279 0C       		.uleb128 0xc
 6316 027a F6450000 		.4byte	.LASF70
 6317 027e D400     		.sleb128 84
 6318 0280 0C       		.uleb128 0xc
 6319 0281 6F2B0000 		.4byte	.LASF71
 6320 0285 D500     		.sleb128 85
 6321 0287 0C       		.uleb128 0xc
 6322 0288 60160000 		.4byte	.LASF72
 6323 028c D600     		.sleb128 86
 6324 028e 0C       		.uleb128 0xc
 6325 028f DF270000 		.4byte	.LASF73
 6326 0293 D700     		.sleb128 87
 6327 0295 0C       		.uleb128 0xc
 6328 0296 2B420000 		.4byte	.LASF74
 6329 029a F000     		.sleb128 112
 6330 029c 0C       		.uleb128 0xc
 6331 029d 641B0000 		.4byte	.LASF75
 6332 02a1 F100     		.sleb128 113
 6333 02a3 0C       		.uleb128 0xc
 6334 02a4 850E0000 		.4byte	.LASF76
 6335 02a8 F200     		.sleb128 114
 6336 02aa 0C       		.uleb128 0xc
 6337 02ab 8D3C0000 		.4byte	.LASF77
 6338 02af F300     		.sleb128 115
 6339 02b1 0C       		.uleb128 0xc
 6340 02b2 E72C0000 		.4byte	.LASF78
 6341 02b6 F400     		.sleb128 116
 6342 02b8 0C       		.uleb128 0xc
 6343 02b9 DC210000 		.4byte	.LASF79
 6344 02bd F500     		.sleb128 117
 6345 02bf 0C       		.uleb128 0xc
 6346 02c0 46130000 		.4byte	.LASF80
 6347 02c4 F600     		.sleb128 118
 6348 02c6 0C       		.uleb128 0xc
 6349 02c7 5F320000 		.4byte	.LASF81
 6350 02cb F700     		.sleb128 119
 6351 02cd 0C       		.uleb128 0xc
 6352 02ce 6C060000 		.4byte	.LASF82
 6353 02d2 F800     		.sleb128 120
 6354 02d4 0C       		.uleb128 0xc
 6355 02d5 27120000 		.4byte	.LASF83
 6356 02d9 F900     		.sleb128 121
 6357 02db 0C       		.uleb128 0xc
 6358 02dc DA440000 		.4byte	.LASF84
 6359 02e0 FA00     		.sleb128 122
 6360 02e2 0C       		.uleb128 0xc
 6361 02e3 63250000 		.4byte	.LASF85
 6362 02e7 FA01     		.sleb128 250
 6363 02e9 0C       		.uleb128 0xc
 6364 02ea 643F0000 		.4byte	.LASF86
 6365 02ee FB01     		.sleb128 251
 6366 02f0 0C       		.uleb128 0xc
 6367 02f1 B52A0000 		.4byte	.LASF87
 6368 02f5 FF01     		.sleb128 255
 6369 02f7 00       		.byte	0
ARM GAS  C:\Users\Helon\AppData\Local\Temp\ccys0XsA.s 			page 171


 6370 02f8 0D       		.uleb128 0xd
 6371 02f9 02       		.byte	0x2
 6372 02fa 06       		.byte	0x6
 6373 02fb 0C02     		.2byte	0x20c
 6374 02fd AF030000 		.4byte	0x3af
 6375 0301 0C       		.uleb128 0xc
 6376 0302 36100000 		.4byte	.LASF88
 6377 0306 00       		.sleb128 0
 6378 0307 0C       		.uleb128 0xc
 6379 0308 8E170000 		.4byte	.LASF89
 6380 030c 01       		.sleb128 1
 6381 030d 0C       		.uleb128 0xc
 6382 030e 23440000 		.4byte	.LASF90
 6383 0312 02       		.sleb128 2
 6384 0313 0C       		.uleb128 0xc
 6385 0314 92190000 		.4byte	.LASF91
 6386 0318 03       		.sleb128 3
 6387 0319 0C       		.uleb128 0xc
 6388 031a CF1D0000 		.4byte	.LASF92
 6389 031e 04       		.sleb128 4
 6390 031f 0C       		.uleb128 0xc
 6391 0320 B2240000 		.4byte	.LASF93
 6392 0324 05       		.sleb128 5
 6393 0325 0C       		.uleb128 0xc
 6394 0326 BA3E0000 		.4byte	.LASF94
 6395 032a 06       		.sleb128 6
 6396 032b 0C       		.uleb128 0xc
 6397 032c F9140000 		.4byte	.LASF95
 6398 0330 07       		.sleb128 7
 6399 0331 0C       		.uleb128 0xc
 6400 0332 B4260000 		.4byte	.LASF96
 6401 0336 08       		.sleb128 8
 6402 0337 0C       		.uleb128 0xc
 6403 0338 6A3D0000 		.4byte	.LASF97
 6404 033c 09       		.sleb128 9
 6405 033d 0C       		.uleb128 0xc
 6406 033e A1460000 		.4byte	.LASF98
 6407 0342 0A       		.sleb128 10
 6408 0343 0C       		.uleb128 0xc
 6409 0344 AB080000 		.4byte	.LASF99
 6410 0348 0B       		.sleb128 11
 6411 0349 0C       		.uleb128 0xc
 6412 034a 2C410000 		.4byte	.LASF100
 6413 034e 0C       		.sleb128 12
 6414 034f 0C       		.uleb128 0xc
 6415 0350 202A0000 		.4byte	.LASF101
 6416 0354 0D       		.sleb128 13
 6417 0355 0C       		.uleb128 0xc
 6418 0356 AA1F0000 		.4byte	.LASF102
 6419 035a 0E       		.sleb128 14
 6420 035b 0C       		.uleb128 0xc
 6421 035c 8D240000 		.4byte	.LASF103
 6422 0360 0F       		.sleb128 15
 6423 0361 0C       		.uleb128 0xc
 6424 0362 A1050000 		.4byte	.LASF104
 6425 0366 10       		.sleb128 16
 6426 0367 0C       		.uleb128 0xc
ARM GAS  C:\Users\Helon\AppData\Local\Temp\ccys0XsA.s 			page 172


 6427 0368 7F260000 		.4byte	.LASF105
 6428 036c 11       		.sleb128 17
 6429 036d 0C       		.uleb128 0xc
 6430 036e 590C0000 		.4byte	.LASF106
 6431 0372 12       		.sleb128 18
 6432 0373 0C       		.uleb128 0xc
 6433 0374 F70E0000 		.4byte	.LASF107
 6434 0378 13       		.sleb128 19
 6435 0379 0C       		.uleb128 0xc
 6436 037a 1E250000 		.4byte	.LASF108
 6437 037e 27       		.sleb128 39
 6438 037f 0C       		.uleb128 0xc
 6439 0380 94270000 		.4byte	.LASF109
 6440 0384 28       		.sleb128 40
 6441 0385 0C       		.uleb128 0xc
 6442 0386 E9050000 		.4byte	.LASF110
 6443 038a 29       		.sleb128 41
 6444 038b 0C       		.uleb128 0xc
 6445 038c 311B0000 		.4byte	.LASF111
 6446 0390 FF01     		.sleb128 255
 6447 0392 0C       		.uleb128 0xc
 6448 0393 362C0000 		.4byte	.LASF112
 6449 0397 8002     		.sleb128 256
 6450 0399 0C       		.uleb128 0xc
 6451 039a 1D2C0000 		.4byte	.LASF113
 6452 039e 8102     		.sleb128 257
 6453 03a0 0C       		.uleb128 0xc
 6454 03a1 500D0000 		.4byte	.LASF114
 6455 03a5 8202     		.sleb128 258
 6456 03a7 0C       		.uleb128 0xc
 6457 03a8 16320000 		.4byte	.LASF115
 6458 03ac 8302     		.sleb128 259
 6459 03ae 00       		.byte	0
 6460 03af 06       		.uleb128 0x6
 6461 03b0 833F0000 		.4byte	.LASF116
 6462 03b4 06       		.byte	0x6
 6463 03b5 6902     		.2byte	0x269
 6464 03b7 F8020000 		.4byte	0x2f8
 6465 03bb 0D       		.uleb128 0xd
 6466 03bc 01       		.byte	0x1
 6467 03bd 06       		.byte	0x6
 6468 03be 6D02     		.2byte	0x26d
 6469 03c0 E4030000 		.4byte	0x3e4
 6470 03c4 0C       		.uleb128 0xc
 6471 03c5 F0300000 		.4byte	.LASF117
 6472 03c9 01       		.sleb128 1
 6473 03ca 0C       		.uleb128 0xc
 6474 03cb F5110000 		.4byte	.LASF118
 6475 03cf 02       		.sleb128 2
 6476 03d0 0C       		.uleb128 0xc
 6477 03d1 FC230000 		.4byte	.LASF119
 6478 03d5 03       		.sleb128 3
 6479 03d6 0C       		.uleb128 0xc
 6480 03d7 163F0000 		.4byte	.LASF120
 6481 03db 04       		.sleb128 4
 6482 03dc 0C       		.uleb128 0xc
 6483 03dd 8B1C0000 		.4byte	.LASF121
ARM GAS  C:\Users\Helon\AppData\Local\Temp\ccys0XsA.s 			page 173


 6484 03e1 FF01     		.sleb128 255
 6485 03e3 00       		.byte	0
 6486 03e4 06       		.uleb128 0x6
 6487 03e5 C3130000 		.4byte	.LASF122
 6488 03e9 06       		.byte	0x6
 6489 03ea 8902     		.2byte	0x289
 6490 03ec BB030000 		.4byte	0x3bb
 6491 03f0 0D       		.uleb128 0xd
 6492 03f1 01       		.byte	0x1
 6493 03f2 06       		.byte	0x6
 6494 03f3 8D02     		.2byte	0x28d
 6495 03f5 2B040000 		.4byte	0x42b
 6496 03f9 0C       		.uleb128 0xc
 6497 03fa C6120000 		.4byte	.LASF123
 6498 03fe 01       		.sleb128 1
 6499 03ff 0C       		.uleb128 0xc
 6500 0400 8A0D0000 		.4byte	.LASF124
 6501 0404 02       		.sleb128 2
 6502 0405 0C       		.uleb128 0xc
 6503 0406 AC0C0000 		.4byte	.LASF125
 6504 040a 03       		.sleb128 3
 6505 040b 0C       		.uleb128 0xc
 6506 040c 3E030000 		.4byte	.LASF126
 6507 0410 04       		.sleb128 4
 6508 0411 0C       		.uleb128 0xc
 6509 0412 863E0000 		.4byte	.LASF127
 6510 0416 05       		.sleb128 5
 6511 0417 0C       		.uleb128 0xc
 6512 0418 14470000 		.4byte	.LASF128
 6513 041c 06       		.sleb128 6
 6514 041d 0C       		.uleb128 0xc
 6515 041e A1030000 		.4byte	.LASF129
 6516 0422 07       		.sleb128 7
 6517 0423 0C       		.uleb128 0xc
 6518 0424 CB3F0000 		.4byte	.LASF130
 6519 0428 FF01     		.sleb128 255
 6520 042a 00       		.byte	0
 6521 042b 06       		.uleb128 0x6
 6522 042c 591D0000 		.4byte	.LASF131
 6523 0430 06       		.byte	0x6
 6524 0431 9602     		.2byte	0x296
 6525 0433 F0030000 		.4byte	0x3f0
 6526 0437 0D       		.uleb128 0xd
 6527 0438 01       		.byte	0x1
 6528 0439 06       		.byte	0x6
 6529 043a 9A02     		.2byte	0x29a
 6530 043c 77040000 		.4byte	0x477
 6531 0440 0C       		.uleb128 0xc
 6532 0441 2B0F0000 		.4byte	.LASF132
 6533 0445 01       		.sleb128 1
 6534 0446 0C       		.uleb128 0xc
 6535 0447 6F0A0000 		.4byte	.LASF133
 6536 044b 02       		.sleb128 2
 6537 044c 0C       		.uleb128 0xc
 6538 044d D62D0000 		.4byte	.LASF134
 6539 0451 03       		.sleb128 3
 6540 0452 0C       		.uleb128 0xc
ARM GAS  C:\Users\Helon\AppData\Local\Temp\ccys0XsA.s 			page 174


 6541 0453 60090000 		.4byte	.LASF135
 6542 0457 04       		.sleb128 4
 6543 0458 0C       		.uleb128 0xc
 6544 0459 FD130000 		.4byte	.LASF136
 6545 045d 05       		.sleb128 5
 6546 045e 0C       		.uleb128 0xc
 6547 045f A21E0000 		.4byte	.LASF137
 6548 0463 06       		.sleb128 6
 6549 0464 0C       		.uleb128 0xc
 6550 0465 D43E0000 		.4byte	.LASF138
 6551 0469 07       		.sleb128 7
 6552 046a 0C       		.uleb128 0xc
 6553 046b 461E0000 		.4byte	.LASF139
 6554 046f 08       		.sleb128 8
 6555 0470 0C       		.uleb128 0xc
 6556 0471 A9250000 		.4byte	.LASF140
 6557 0475 09       		.sleb128 9
 6558 0476 00       		.byte	0
 6559 0477 06       		.uleb128 0x6
 6560 0478 A7220000 		.4byte	.LASF141
 6561 047c 06       		.byte	0x6
 6562 047d B102     		.2byte	0x2b1
 6563 047f 37040000 		.4byte	0x437
 6564 0483 0D       		.uleb128 0xd
 6565 0484 01       		.byte	0x1
 6566 0485 06       		.byte	0x6
 6567 0486 B502     		.2byte	0x2b5
 6568 0488 9F040000 		.4byte	0x49f
 6569 048c 0C       		.uleb128 0xc
 6570 048d 2C3F0000 		.4byte	.LASF142
 6571 0491 00       		.sleb128 0
 6572 0492 0C       		.uleb128 0xc
 6573 0493 6D290000 		.4byte	.LASF143
 6574 0497 01       		.sleb128 1
 6575 0498 0C       		.uleb128 0xc
 6576 0499 0C420000 		.4byte	.LASF144
 6577 049d 02       		.sleb128 2
 6578 049e 00       		.byte	0
 6579 049f 06       		.uleb128 0x6
 6580 04a0 45100000 		.4byte	.LASF145
 6581 04a4 06       		.byte	0x6
 6582 04a5 BC02     		.2byte	0x2bc
 6583 04a7 83040000 		.4byte	0x483
 6584 04ab 0E       		.uleb128 0xe
 6585 04ac 02       		.byte	0x2
 6586 04ad 06       		.byte	0x6
 6587 04ae BF02     		.2byte	0x2bf
 6588 04b0 CF040000 		.4byte	0x4cf
 6589 04b4 0F       		.uleb128 0xf
 6590 04b5 3C040000 		.4byte	.LASF146
 6591 04b9 06       		.byte	0x6
 6592 04ba C202     		.2byte	0x2c2
 6593 04bc 77040000 		.4byte	0x477
 6594 04c0 00       		.byte	0
 6595 04c1 0F       		.uleb128 0xf
 6596 04c2 EB0D0000 		.4byte	.LASF147
 6597 04c6 06       		.byte	0x6
ARM GAS  C:\Users\Helon\AppData\Local\Temp\ccys0XsA.s 			page 175


 6598 04c7 C402     		.2byte	0x2c4
 6599 04c9 9F040000 		.4byte	0x49f
 6600 04cd 01       		.byte	0x1
 6601 04ce 00       		.byte	0
 6602 04cf 06       		.uleb128 0x6
 6603 04d0 F4410000 		.4byte	.LASF148
 6604 04d4 06       		.byte	0x6
 6605 04d5 C502     		.2byte	0x2c5
 6606 04d7 AB040000 		.4byte	0x4ab
 6607 04db 0E       		.uleb128 0xe
 6608 04dc 07       		.byte	0x7
 6609 04dd 06       		.byte	0x6
 6610 04de 0503     		.2byte	0x305
 6611 04e0 FF040000 		.4byte	0x4ff
 6612 04e4 0F       		.uleb128 0xf
 6613 04e5 1C3E0000 		.4byte	.LASF149
 6614 04e9 06       		.byte	0x6
 6615 04ea 0803     		.2byte	0x308
 6616 04ec FF040000 		.4byte	0x4ff
 6617 04f0 00       		.byte	0
 6618 04f1 0F       		.uleb128 0xf
 6619 04f2 E9060000 		.4byte	.LASF150
 6620 04f6 06       		.byte	0x6
 6621 04f7 0A03     		.2byte	0x30a
 6622 04f9 D9000000 		.4byte	0xd9
 6623 04fd 06       		.byte	0x6
 6624 04fe 00       		.byte	0
 6625 04ff 10       		.uleb128 0x10
 6626 0500 D9000000 		.4byte	0xd9
 6627 0504 0F050000 		.4byte	0x50f
 6628 0508 11       		.uleb128 0x11
 6629 0509 59010000 		.4byte	0x159
 6630 050d 05       		.byte	0x5
 6631 050e 00       		.byte	0
 6632 050f 06       		.uleb128 0x6
 6633 0510 38340000 		.4byte	.LASF151
 6634 0514 06       		.byte	0x6
 6635 0515 0B03     		.2byte	0x30b
 6636 0517 DB040000 		.4byte	0x4db
 6637 051b 0B       		.uleb128 0xb
 6638 051c 01       		.byte	0x1
 6639 051d 07       		.byte	0x7
 6640 051e 4B       		.byte	0x4b
 6641 051f 3C050000 		.4byte	0x53c
 6642 0523 0C       		.uleb128 0xc
 6643 0524 BF340000 		.4byte	.LASF152
 6644 0528 01       		.sleb128 1
 6645 0529 0C       		.uleb128 0xc
 6646 052a B3330000 		.4byte	.LASF153
 6647 052e 02       		.sleb128 2
 6648 052f 0C       		.uleb128 0xc
 6649 0530 A2440000 		.4byte	.LASF154
 6650 0534 03       		.sleb128 3
 6651 0535 0C       		.uleb128 0xc
 6652 0536 2C360000 		.4byte	.LASF155
 6653 053a 04       		.sleb128 4
 6654 053b 00       		.byte	0
ARM GAS  C:\Users\Helon\AppData\Local\Temp\ccys0XsA.s 			page 176


 6655 053c 0B       		.uleb128 0xb
 6656 053d 01       		.byte	0x1
 6657 053e 08       		.byte	0x8
 6658 053f 90       		.byte	0x90
 6659 0540 63050000 		.4byte	0x563
 6660 0544 0C       		.uleb128 0xc
 6661 0545 B6430000 		.4byte	.LASF156
 6662 0549 00       		.sleb128 0
 6663 054a 0C       		.uleb128 0xc
 6664 054b 992C0000 		.4byte	.LASF157
 6665 054f 01       		.sleb128 1
 6666 0550 0C       		.uleb128 0xc
 6667 0551 693C0000 		.4byte	.LASF158
 6668 0555 02       		.sleb128 2
 6669 0556 0C       		.uleb128 0xc
 6670 0557 500E0000 		.4byte	.LASF159
 6671 055b 03       		.sleb128 3
 6672 055c 0C       		.uleb128 0xc
 6673 055d 2E190000 		.4byte	.LASF160
 6674 0561 04       		.sleb128 4
 6675 0562 00       		.byte	0
 6676 0563 02       		.uleb128 0x2
 6677 0564 0C2B0000 		.4byte	.LASF161
 6678 0568 08       		.byte	0x8
 6679 0569 A0       		.byte	0xa0
 6680 056a 3C050000 		.4byte	0x53c
 6681 056e 0B       		.uleb128 0xb
 6682 056f 01       		.byte	0x1
 6683 0570 08       		.byte	0x8
 6684 0571 A4       		.byte	0xa4
 6685 0572 95050000 		.4byte	0x595
 6686 0576 0C       		.uleb128 0xc
 6687 0577 830B0000 		.4byte	.LASF162
 6688 057b 00       		.sleb128 0
 6689 057c 0C       		.uleb128 0xc
 6690 057d C5330000 		.4byte	.LASF163
 6691 0581 01       		.sleb128 1
 6692 0582 0C       		.uleb128 0xc
 6693 0583 C73A0000 		.4byte	.LASF164
 6694 0587 02       		.sleb128 2
 6695 0588 0C       		.uleb128 0xc
 6696 0589 290A0000 		.4byte	.LASF165
 6697 058d 03       		.sleb128 3
 6698 058e 0C       		.uleb128 0xc
 6699 058f 68000000 		.4byte	.LASF166
 6700 0593 04       		.sleb128 4
 6701 0594 00       		.byte	0
 6702 0595 02       		.uleb128 0x2
 6703 0596 A33E0000 		.4byte	.LASF167
 6704 059a 08       		.byte	0x8
 6705 059b B4       		.byte	0xb4
 6706 059c 6E050000 		.4byte	0x56e
 6707 05a0 0B       		.uleb128 0xb
 6708 05a1 01       		.byte	0x1
 6709 05a2 08       		.byte	0x8
 6710 05a3 D2       		.byte	0xd2
 6711 05a4 C7050000 		.4byte	0x5c7
ARM GAS  C:\Users\Helon\AppData\Local\Temp\ccys0XsA.s 			page 177


 6712 05a8 0C       		.uleb128 0xc
 6713 05a9 02090000 		.4byte	.LASF168
 6714 05ad 00       		.sleb128 0
 6715 05ae 0C       		.uleb128 0xc
 6716 05af 58410000 		.4byte	.LASF169
 6717 05b3 01       		.sleb128 1
 6718 05b4 0C       		.uleb128 0xc
 6719 05b5 69140000 		.4byte	.LASF170
 6720 05b9 02       		.sleb128 2
 6721 05ba 0C       		.uleb128 0xc
 6722 05bb CF020000 		.4byte	.LASF171
 6723 05bf 03       		.sleb128 3
 6724 05c0 0C       		.uleb128 0xc
 6725 05c1 903B0000 		.4byte	.LASF172
 6726 05c5 04       		.sleb128 4
 6727 05c6 00       		.byte	0
 6728 05c7 02       		.uleb128 0x2
 6729 05c8 8F030000 		.4byte	.LASF173
 6730 05cc 08       		.byte	0x8
 6731 05cd E4       		.byte	0xe4
 6732 05ce A0050000 		.4byte	0x5a0
 6733 05d2 0B       		.uleb128 0xb
 6734 05d3 01       		.byte	0x1
 6735 05d4 08       		.byte	0x8
 6736 05d5 E8       		.byte	0xe8
 6737 05d6 29060000 		.4byte	0x629
 6738 05da 0C       		.uleb128 0xc
 6739 05db DC2E0000 		.4byte	.LASF174
 6740 05df 00       		.sleb128 0
 6741 05e0 0C       		.uleb128 0xc
 6742 05e1 EE090000 		.4byte	.LASF175
 6743 05e5 01       		.sleb128 1
 6744 05e6 0C       		.uleb128 0xc
 6745 05e7 0F300000 		.4byte	.LASF176
 6746 05eb 02       		.sleb128 2
 6747 05ec 0C       		.uleb128 0xc
 6748 05ed 191F0000 		.4byte	.LASF177
 6749 05f1 03       		.sleb128 3
 6750 05f2 0C       		.uleb128 0xc
 6751 05f3 230D0000 		.4byte	.LASF178
 6752 05f7 04       		.sleb128 4
 6753 05f8 0C       		.uleb128 0xc
 6754 05f9 CE350000 		.4byte	.LASF179
 6755 05fd 05       		.sleb128 5
 6756 05fe 0C       		.uleb128 0xc
 6757 05ff 6F230000 		.4byte	.LASF180
 6758 0603 06       		.sleb128 6
 6759 0604 0C       		.uleb128 0xc
 6760 0605 EE1E0000 		.4byte	.LASF181
 6761 0609 07       		.sleb128 7
 6762 060a 0C       		.uleb128 0xc
 6763 060b 7F070000 		.4byte	.LASF182
 6764 060f 08       		.sleb128 8
 6765 0610 0C       		.uleb128 0xc
 6766 0611 B5210000 		.4byte	.LASF183
 6767 0615 09       		.sleb128 9
 6768 0616 0C       		.uleb128 0xc
ARM GAS  C:\Users\Helon\AppData\Local\Temp\ccys0XsA.s 			page 178


 6769 0617 8D120000 		.4byte	.LASF184
 6770 061b 0A       		.sleb128 10
 6771 061c 0C       		.uleb128 0xc
 6772 061d 31070000 		.4byte	.LASF185
 6773 0621 15       		.sleb128 21
 6774 0622 0C       		.uleb128 0xc
 6775 0623 8A1B0000 		.4byte	.LASF186
 6776 0627 18       		.sleb128 24
 6777 0628 00       		.byte	0
 6778 0629 06       		.uleb128 0x6
 6779 062a 1D2B0000 		.4byte	.LASF187
 6780 062e 08       		.byte	0x8
 6781 062f 1401     		.2byte	0x114
 6782 0631 D2050000 		.4byte	0x5d2
 6783 0635 0E       		.uleb128 0xe
 6784 0636 04       		.byte	0x4
 6785 0637 08       		.byte	0x8
 6786 0638 2D01     		.2byte	0x12d
 6787 063a 73060000 		.4byte	0x673
 6788 063e 0F       		.uleb128 0xf
 6789 063f 183A0000 		.4byte	.LASF188
 6790 0643 08       		.byte	0x8
 6791 0644 3601     		.2byte	0x136
 6792 0646 D9000000 		.4byte	0xd9
 6793 064a 00       		.byte	0
 6794 064b 0F       		.uleb128 0xf
 6795 064c 98280000 		.4byte	.LASF189
 6796 0650 08       		.byte	0x8
 6797 0651 3C01     		.2byte	0x13c
 6798 0653 D9000000 		.4byte	0xd9
 6799 0657 01       		.byte	0x1
 6800 0658 0F       		.uleb128 0xf
 6801 0659 1C010000 		.4byte	.LASF190
 6802 065d 08       		.byte	0x8
 6803 065e 4201     		.2byte	0x142
 6804 0660 D9000000 		.4byte	0xd9
 6805 0664 02       		.byte	0x2
 6806 0665 0F       		.uleb128 0xf
 6807 0666 663A0000 		.4byte	.LASF191
 6808 066a 08       		.byte	0x8
 6809 066b 4601     		.2byte	0x146
 6810 066d 29060000 		.4byte	0x629
 6811 0671 03       		.byte	0x3
 6812 0672 00       		.byte	0
 6813 0673 06       		.uleb128 0x6
 6814 0674 53140000 		.4byte	.LASF192
 6815 0678 08       		.byte	0x8
 6816 0679 4801     		.2byte	0x148
 6817 067b 35060000 		.4byte	0x635
 6818 067f 10       		.uleb128 0x10
 6819 0680 0F050000 		.4byte	0x50f
 6820 0684 8F060000 		.4byte	0x68f
 6821 0688 11       		.uleb128 0x11
 6822 0689 59010000 		.4byte	0x159
 6823 068d 03       		.byte	0x3
 6824 068e 00       		.byte	0
 6825 068f 0E       		.uleb128 0xe
ARM GAS  C:\Users\Helon\AppData\Local\Temp\ccys0XsA.s 			page 179


 6826 0690 10       		.byte	0x10
 6827 0691 08       		.byte	0x8
 6828 0692 6E01     		.2byte	0x16e
 6829 0694 01070000 		.4byte	0x701
 6830 0698 0F       		.uleb128 0xf
 6831 0699 4A120000 		.4byte	.LASF193
 6832 069d 08       		.byte	0x8
 6833 069e 7401     		.2byte	0x174
 6834 06a0 E4000000 		.4byte	0xe4
 6835 06a4 00       		.byte	0
 6836 06a5 0F       		.uleb128 0xf
 6837 06a6 93470000 		.4byte	.LASF194
 6838 06aa 08       		.byte	0x8
 6839 06ab 7A01     		.2byte	0x17a
 6840 06ad E4000000 		.4byte	0xe4
 6841 06b1 02       		.byte	0x2
 6842 06b2 0F       		.uleb128 0xf
 6843 06b3 941D0000 		.4byte	.LASF195
 6844 06b7 08       		.byte	0x8
 6845 06b8 8301     		.2byte	0x183
 6846 06ba 63050000 		.4byte	0x563
 6847 06be 04       		.byte	0x4
 6848 06bf 0F       		.uleb128 0xf
 6849 06c0 95460000 		.4byte	.LASF196
 6850 06c4 08       		.byte	0x8
 6851 06c5 8901     		.2byte	0x189
 6852 06c7 D9000000 		.4byte	0xd9
 6853 06cb 05       		.byte	0x5
 6854 06cc 0F       		.uleb128 0xf
 6855 06cd 13260000 		.4byte	.LASF197
 6856 06d1 08       		.byte	0x8
 6857 06d2 9001     		.2byte	0x190
 6858 06d4 D9000000 		.4byte	0xd9
 6859 06d8 06       		.byte	0x6
 6860 06d9 0F       		.uleb128 0xf
 6861 06da 2E430000 		.4byte	.LASF198
 6862 06de 08       		.byte	0x8
 6863 06df 9601     		.2byte	0x196
 6864 06e1 FF040000 		.4byte	0x4ff
 6865 06e5 07       		.byte	0x7
 6866 06e6 0F       		.uleb128 0xf
 6867 06e7 59430000 		.4byte	.LASF199
 6868 06eb 08       		.byte	0x8
 6869 06ec 9E01     		.2byte	0x19e
 6870 06ee D9000000 		.4byte	0xd9
 6871 06f2 0D       		.byte	0xd
 6872 06f3 0F       		.uleb128 0xf
 6873 06f4 EF1C0000 		.4byte	.LASF200
 6874 06f8 08       		.byte	0x8
 6875 06f9 AA01     		.2byte	0x1aa
 6876 06fb D9000000 		.4byte	0xd9
 6877 06ff 0E       		.byte	0xe
 6878 0700 00       		.byte	0
 6879 0701 06       		.uleb128 0x6
 6880 0702 9F1C0000 		.4byte	.LASF201
 6881 0706 08       		.byte	0x8
 6882 0707 AC01     		.2byte	0x1ac
ARM GAS  C:\Users\Helon\AppData\Local\Temp\ccys0XsA.s 			page 180


 6883 0709 8F060000 		.4byte	0x68f
 6884 070d 0E       		.uleb128 0xe
 6885 070e 20       		.byte	0x20
 6886 070f 08       		.byte	0x8
 6887 0710 AF01     		.2byte	0x1af
 6888 0712 31070000 		.4byte	0x731
 6889 0716 0F       		.uleb128 0xf
 6890 0717 602B0000 		.4byte	.LASF202
 6891 071b 08       		.byte	0x8
 6892 071c B201     		.2byte	0x1b2
 6893 071e 31070000 		.4byte	0x731
 6894 0722 00       		.byte	0
 6895 0723 0F       		.uleb128 0xf
 6896 0724 7A350000 		.4byte	.LASF203
 6897 0728 08       		.byte	0x8
 6898 0729 B501     		.2byte	0x1b5
 6899 072b D9000000 		.4byte	0xd9
 6900 072f 1F       		.byte	0x1f
 6901 0730 00       		.byte	0
 6902 0731 10       		.uleb128 0x10
 6903 0732 D9000000 		.4byte	0xd9
 6904 0736 41070000 		.4byte	0x741
 6905 073a 11       		.uleb128 0x11
 6906 073b 59010000 		.4byte	0x159
 6907 073f 1E       		.byte	0x1e
 6908 0740 00       		.byte	0
 6909 0741 06       		.uleb128 0x6
 6910 0742 DF120000 		.4byte	.LASF204
 6911 0746 08       		.byte	0x8
 6912 0747 B701     		.2byte	0x1b7
 6913 0749 0D070000 		.4byte	0x70d
 6914 074d 0E       		.uleb128 0xe
 6915 074e 20       		.byte	0x20
 6916 074f 08       		.byte	0x8
 6917 0750 BA01     		.2byte	0x1ba
 6918 0752 71070000 		.4byte	0x771
 6919 0756 0F       		.uleb128 0xf
 6920 0757 7C000000 		.4byte	.LASF205
 6921 075b 08       		.byte	0x8
 6922 075c BE01     		.2byte	0x1be
 6923 075e 31070000 		.4byte	0x731
 6924 0762 00       		.byte	0
 6925 0763 0F       		.uleb128 0xf
 6926 0764 F13A0000 		.4byte	.LASF206
 6927 0768 08       		.byte	0x8
 6928 0769 C101     		.2byte	0x1c1
 6929 076b D9000000 		.4byte	0xd9
 6930 076f 1F       		.byte	0x1f
 6931 0770 00       		.byte	0
 6932 0771 06       		.uleb128 0x6
 6933 0772 1B390000 		.4byte	.LASF207
 6934 0776 08       		.byte	0x8
 6935 0777 C301     		.2byte	0x1c3
 6936 0779 4D070000 		.4byte	0x74d
 6937 077d 0E       		.uleb128 0xe
 6938 077e 14       		.byte	0x14
 6939 077f 08       		.byte	0x8
ARM GAS  C:\Users\Helon\AppData\Local\Temp\ccys0XsA.s 			page 181


 6940 0780 C601     		.2byte	0x1c6
 6941 0782 C8070000 		.4byte	0x7c8
 6942 0786 0F       		.uleb128 0xf
 6943 0787 20050000 		.4byte	.LASF208
 6944 078b 08       		.byte	0x8
 6945 078c CE01     		.2byte	0x1ce
 6946 078e D9000000 		.4byte	0xd9
 6947 0792 00       		.byte	0
 6948 0793 0F       		.uleb128 0xf
 6949 0794 84240000 		.4byte	.LASF209
 6950 0798 08       		.byte	0x8
 6951 0799 D101     		.2byte	0x1d1
 6952 079b C8070000 		.4byte	0x7c8
 6953 079f 04       		.byte	0x4
 6954 07a0 0F       		.uleb128 0xf
 6955 07a1 602B0000 		.4byte	.LASF202
 6956 07a5 08       		.byte	0x8
 6957 07a6 D301     		.2byte	0x1d3
 6958 07a8 CE070000 		.4byte	0x7ce
 6959 07ac 08       		.byte	0x8
 6960 07ad 0F       		.uleb128 0xf
 6961 07ae 7C000000 		.4byte	.LASF205
 6962 07b2 08       		.byte	0x8
 6963 07b3 D501     		.2byte	0x1d5
 6964 07b5 D4070000 		.4byte	0x7d4
 6965 07b9 0C       		.byte	0xc
 6966 07ba 0F       		.uleb128 0xf
 6967 07bb A32D0000 		.4byte	.LASF210
 6968 07bf 08       		.byte	0x8
 6969 07c0 DF01     		.2byte	0x1df
 6970 07c2 E4000000 		.4byte	0xe4
 6971 07c6 10       		.byte	0x10
 6972 07c7 00       		.byte	0
 6973 07c8 07       		.uleb128 0x7
 6974 07c9 04       		.byte	0x4
 6975 07ca 01070000 		.4byte	0x701
 6976 07ce 07       		.uleb128 0x7
 6977 07cf 04       		.byte	0x4
 6978 07d0 41070000 		.4byte	0x741
 6979 07d4 07       		.uleb128 0x7
 6980 07d5 04       		.byte	0x4
 6981 07d6 71070000 		.4byte	0x771
 6982 07da 06       		.uleb128 0x6
 6983 07db 3D360000 		.4byte	.LASF211
 6984 07df 08       		.byte	0x8
 6985 07e0 E101     		.2byte	0x1e1
 6986 07e2 7D070000 		.4byte	0x77d
 6987 07e6 0E       		.uleb128 0xe
 6988 07e7 14       		.byte	0x14
 6989 07e8 08       		.byte	0x8
 6990 07e9 6802     		.2byte	0x268
 6991 07eb 3E080000 		.4byte	0x83e
 6992 07ef 0F       		.uleb128 0xf
 6993 07f0 9B400000 		.4byte	.LASF212
 6994 07f4 08       		.byte	0x8
 6995 07f5 7102     		.2byte	0x271
 6996 07f7 95050000 		.4byte	0x595
ARM GAS  C:\Users\Helon\AppData\Local\Temp\ccys0XsA.s 			page 182


 6997 07fb 00       		.byte	0
 6998 07fc 0F       		.uleb128 0xf
 6999 07fd 423D0000 		.4byte	.LASF213
 7000 0801 08       		.byte	0x8
 7001 0802 7702     		.2byte	0x277
 7002 0804 D9000000 		.4byte	0xd9
 7003 0808 01       		.byte	0x1
 7004 0809 0F       		.uleb128 0xf
 7005 080a 70100000 		.4byte	.LASF214
 7006 080e 08       		.byte	0x8
 7007 080f 7B02     		.2byte	0x27b
 7008 0811 3E080000 		.4byte	0x83e
 7009 0815 04       		.byte	0x4
 7010 0816 0F       		.uleb128 0xf
 7011 0817 F20B0000 		.4byte	.LASF215
 7012 081b 08       		.byte	0x8
 7013 081c 7E02     		.2byte	0x27e
 7014 081e D9000000 		.4byte	0xd9
 7015 0822 08       		.byte	0x8
 7016 0823 0F       		.uleb128 0xf
 7017 0824 93450000 		.4byte	.LASF216
 7018 0828 08       		.byte	0x8
 7019 0829 8102     		.2byte	0x281
 7020 082b 3E080000 		.4byte	0x83e
 7021 082f 0C       		.byte	0xc
 7022 0830 0F       		.uleb128 0xf
 7023 0831 3F450000 		.4byte	.LASF217
 7024 0835 08       		.byte	0x8
 7025 0836 8602     		.2byte	0x286
 7026 0838 FA000000 		.4byte	0xfa
 7027 083c 10       		.byte	0x10
 7028 083d 00       		.byte	0
 7029 083e 07       		.uleb128 0x7
 7030 083f 04       		.byte	0x4
 7031 0840 D9000000 		.4byte	0xd9
 7032 0844 06       		.uleb128 0x6
 7033 0845 47460000 		.4byte	.LASF218
 7034 0849 08       		.byte	0x8
 7035 084a 8802     		.2byte	0x288
 7036 084c E6070000 		.4byte	0x7e6
 7037 0850 0E       		.uleb128 0xe
 7038 0851 08       		.byte	0x8
 7039 0852 08       		.byte	0x8
 7040 0853 9602     		.2byte	0x296
 7041 0855 8E080000 		.4byte	0x88e
 7042 0859 0F       		.uleb128 0xf
 7043 085a 7E0D0000 		.4byte	.LASF219
 7044 085e 08       		.byte	0x8
 7045 085f 9D02     		.2byte	0x29d
 7046 0861 E4000000 		.4byte	0xe4
 7047 0865 00       		.byte	0
 7048 0866 0F       		.uleb128 0xf
 7049 0867 87420000 		.4byte	.LASF220
 7050 086b 08       		.byte	0x8
 7051 086c A402     		.2byte	0x2a4
 7052 086e E4000000 		.4byte	0xe4
 7053 0872 02       		.byte	0x2
ARM GAS  C:\Users\Helon\AppData\Local\Temp\ccys0XsA.s 			page 183


 7054 0873 0F       		.uleb128 0xf
 7055 0874 4C410000 		.4byte	.LASF221
 7056 0878 08       		.byte	0x8
 7057 0879 A902     		.2byte	0x2a9
 7058 087b E4000000 		.4byte	0xe4
 7059 087f 04       		.byte	0x4
 7060 0880 0F       		.uleb128 0xf
 7061 0881 94440000 		.4byte	.LASF222
 7062 0885 08       		.byte	0x8
 7063 0886 AF02     		.2byte	0x2af
 7064 0888 E4000000 		.4byte	0xe4
 7065 088c 06       		.byte	0x6
 7066 088d 00       		.byte	0
 7067 088e 06       		.uleb128 0x6
 7068 088f 6D1D0000 		.4byte	.LASF223
 7069 0893 08       		.byte	0x8
 7070 0894 B102     		.2byte	0x2b1
 7071 0896 50080000 		.4byte	0x850
 7072 089a 0E       		.uleb128 0xe
 7073 089b 08       		.byte	0x8
 7074 089c 08       		.byte	0x8
 7075 089d B402     		.2byte	0x2b4
 7076 089f D8080000 		.4byte	0x8d8
 7077 08a3 0F       		.uleb128 0xf
 7078 08a4 9B1E0000 		.4byte	.LASF224
 7079 08a8 08       		.byte	0x8
 7080 08a9 B802     		.2byte	0x2b8
 7081 08ab D9000000 		.4byte	0xd9
 7082 08af 00       		.byte	0
 7083 08b0 0F       		.uleb128 0xf
 7084 08b1 D9420000 		.4byte	.LASF225
 7085 08b5 08       		.byte	0x8
 7086 08b6 BE02     		.2byte	0x2be
 7087 08b8 E4000000 		.4byte	0xe4
 7088 08bc 02       		.byte	0x2
 7089 08bd 0F       		.uleb128 0xf
 7090 08be 4C410000 		.4byte	.LASF221
 7091 08c2 08       		.byte	0x8
 7092 08c3 C302     		.2byte	0x2c3
 7093 08c5 E4000000 		.4byte	0xe4
 7094 08c9 04       		.byte	0x4
 7095 08ca 0F       		.uleb128 0xf
 7096 08cb 94440000 		.4byte	.LASF222
 7097 08cf 08       		.byte	0x8
 7098 08d0 C902     		.2byte	0x2c9
 7099 08d2 E4000000 		.4byte	0xe4
 7100 08d6 06       		.byte	0x6
 7101 08d7 00       		.byte	0
 7102 08d8 06       		.uleb128 0x6
 7103 08d9 03310000 		.4byte	.LASF226
 7104 08dd 08       		.byte	0x8
 7105 08de CB02     		.2byte	0x2cb
 7106 08e0 9A080000 		.4byte	0x89a
 7107 08e4 06       		.uleb128 0x6
 7108 08e5 30320000 		.4byte	.LASF227
 7109 08e9 09       		.byte	0x9
 7110 08ea 8801     		.2byte	0x188
ARM GAS  C:\Users\Helon\AppData\Local\Temp\ccys0XsA.s 			page 184


 7111 08ec E4000000 		.4byte	0xe4
 7112 08f0 0E       		.uleb128 0xe
 7113 08f1 02       		.byte	0x2
 7114 08f2 09       		.byte	0x9
 7115 08f3 9201     		.2byte	0x192
 7116 08f5 14090000 		.4byte	0x914
 7117 08f9 0F       		.uleb128 0xf
 7118 08fa 9E090000 		.4byte	.LASF228
 7119 08fe 09       		.byte	0x9
 7120 08ff 9901     		.2byte	0x199
 7121 0901 D9000000 		.4byte	0xd9
 7122 0905 00       		.byte	0
 7123 0906 0F       		.uleb128 0xf
 7124 0907 1D440000 		.4byte	.LASF229
 7125 090b 09       		.byte	0x9
 7126 090c 9F01     		.2byte	0x19f
 7127 090e D9000000 		.4byte	0xd9
 7128 0912 01       		.byte	0x1
 7129 0913 00       		.byte	0
 7130 0914 06       		.uleb128 0x6
 7131 0915 7D080000 		.4byte	.LASF230
 7132 0919 09       		.byte	0x9
 7133 091a A101     		.2byte	0x1a1
 7134 091c F0080000 		.4byte	0x8f0
 7135 0920 0E       		.uleb128 0xe
 7136 0921 08       		.byte	0x8
 7137 0922 09       		.byte	0x9
 7138 0923 BD01     		.2byte	0x1bd
 7139 0925 51090000 		.4byte	0x951
 7140 0929 12       		.uleb128 0x12
 7141 092a 76616C00 		.ascii	"val\000"
 7142 092e 09       		.byte	0x9
 7143 092f C001     		.2byte	0x1c0
 7144 0931 3E080000 		.4byte	0x83e
 7145 0935 00       		.byte	0
 7146 0936 12       		.uleb128 0x12
 7147 0937 6C656E00 		.ascii	"len\000"
 7148 093b 09       		.byte	0x9
 7149 093c C301     		.2byte	0x1c3
 7150 093e E4000000 		.4byte	0xe4
 7151 0942 04       		.byte	0x4
 7152 0943 0F       		.uleb128 0xf
 7153 0944 4F430000 		.4byte	.LASF231
 7154 0948 09       		.byte	0x9
 7155 0949 CA01     		.2byte	0x1ca
 7156 094b E4000000 		.4byte	0xe4
 7157 094f 06       		.byte	0x6
 7158 0950 00       		.byte	0
 7159 0951 06       		.uleb128 0x6
 7160 0952 99060000 		.4byte	.LASF232
 7161 0956 09       		.byte	0x9
 7162 0957 CC01     		.2byte	0x1cc
 7163 0959 20090000 		.4byte	0x920
 7164 095d 0E       		.uleb128 0xe
 7165 095e 0C       		.byte	0xc
 7166 095f 09       		.byte	0x9
 7167 0960 CF01     		.2byte	0x1cf
ARM GAS  C:\Users\Helon\AppData\Local\Temp\ccys0XsA.s 			page 185


 7168 0962 81090000 		.4byte	0x981
 7169 0966 0F       		.uleb128 0xf
 7170 0967 A1320000 		.4byte	.LASF233
 7171 096b 09       		.byte	0x9
 7172 096c D201     		.2byte	0x1d2
 7173 096e 51090000 		.4byte	0x951
 7174 0972 00       		.byte	0
 7175 0973 0F       		.uleb128 0xf
 7176 0974 4D280000 		.4byte	.LASF234
 7177 0978 09       		.byte	0x9
 7178 0979 D501     		.2byte	0x1d5
 7179 097b E4080000 		.4byte	0x8e4
 7180 097f 08       		.byte	0x8
 7181 0980 00       		.byte	0
 7182 0981 06       		.uleb128 0x6
 7183 0982 A80D0000 		.4byte	.LASF235
 7184 0986 09       		.byte	0x9
 7185 0987 D701     		.2byte	0x1d7
 7186 0989 5D090000 		.4byte	0x95d
 7187 098d 0E       		.uleb128 0xe
 7188 098e 04       		.byte	0x4
 7189 098f 09       		.byte	0x9
 7190 0990 DA01     		.2byte	0x1da
 7191 0992 B1090000 		.4byte	0x9b1
 7192 0996 0F       		.uleb128 0xf
 7193 0997 B71C0000 		.4byte	.LASF236
 7194 099b 09       		.byte	0x9
 7195 099c DD01     		.2byte	0x1dd
 7196 099e E4080000 		.4byte	0x8e4
 7197 09a2 00       		.byte	0
 7198 09a3 0F       		.uleb128 0xf
 7199 09a4 D43D0000 		.4byte	.LASF237
 7200 09a8 09       		.byte	0x9
 7201 09a9 E001     		.2byte	0x1e0
 7202 09ab E4080000 		.4byte	0x8e4
 7203 09af 02       		.byte	0x2
 7204 09b0 00       		.byte	0
 7205 09b1 06       		.uleb128 0x6
 7206 09b2 B13B0000 		.4byte	.LASF238
 7207 09b6 09       		.byte	0x9
 7208 09b7 E201     		.2byte	0x1e2
 7209 09b9 8D090000 		.4byte	0x98d
 7210 09bd 0E       		.uleb128 0xe
 7211 09be 04       		.byte	0x4
 7212 09bf 09       		.byte	0x9
 7213 09c0 E501     		.2byte	0x1e5
 7214 09c2 E1090000 		.4byte	0x9e1
 7215 09c6 0F       		.uleb128 0xf
 7216 09c7 3A350000 		.4byte	.LASF239
 7217 09cb 09       		.byte	0x9
 7218 09cc E801     		.2byte	0x1e8
 7219 09ce 14090000 		.4byte	0x914
 7220 09d2 00       		.byte	0
 7221 09d3 12       		.uleb128 0x12
 7222 09d4 6D747500 		.ascii	"mtu\000"
 7223 09d8 09       		.byte	0x9
 7224 09d9 EB01     		.2byte	0x1eb
ARM GAS  C:\Users\Helon\AppData\Local\Temp\ccys0XsA.s 			page 186


 7225 09db E4000000 		.4byte	0xe4
 7226 09df 02       		.byte	0x2
 7227 09e0 00       		.byte	0
 7228 09e1 06       		.uleb128 0x6
 7229 09e2 29110000 		.4byte	.LASF240
 7230 09e6 09       		.byte	0x9
 7231 09e7 ED01     		.2byte	0x1ed
 7232 09e9 BD090000 		.4byte	0x9bd
 7233 09ed 02       		.uleb128 0x2
 7234 09ee BA000000 		.4byte	.LASF241
 7235 09f2 0A       		.byte	0xa
 7236 09f3 34       		.byte	0x34
 7237 09f4 81090000 		.4byte	0x981
 7238 09f8 13       		.uleb128 0x13
 7239 09f9 10       		.byte	0x10
 7240 09fa 0A       		.byte	0xa
 7241 09fb 8A       		.byte	0x8a
 7242 09fc 190A0000 		.4byte	0xa19
 7243 0a00 14       		.uleb128 0x14
 7244 0a01 3A350000 		.4byte	.LASF239
 7245 0a05 0A       		.byte	0xa
 7246 0a06 8D       		.byte	0x8d
 7247 0a07 14090000 		.4byte	0x914
 7248 0a0b 00       		.byte	0
 7249 0a0c 14       		.uleb128 0x14
 7250 0a0d FA340000 		.4byte	.LASF242
 7251 0a11 0A       		.byte	0xa
 7252 0a12 90       		.byte	0x90
 7253 0a13 81090000 		.4byte	0x981
 7254 0a17 04       		.byte	0x4
 7255 0a18 00       		.byte	0
 7256 0a19 02       		.uleb128 0x2
 7257 0a1a A0280000 		.4byte	.LASF243
 7258 0a1e 0A       		.byte	0xa
 7259 0a1f 92       		.byte	0x92
 7260 0a20 F8090000 		.4byte	0x9f8
 7261 0a24 02       		.uleb128 0x2
 7262 0a25 40400000 		.4byte	.LASF244
 7263 0a29 0B       		.byte	0xb
 7264 0a2a 4F       		.byte	0x4f
 7265 0a2b B1090000 		.4byte	0x9b1
 7266 0a2f 02       		.uleb128 0x2
 7267 0a30 2A0B0000 		.4byte	.LASF245
 7268 0a34 0B       		.byte	0xb
 7269 0a35 55       		.byte	0x55
 7270 0a36 E4080000 		.4byte	0x8e4
 7271 0a3a 02       		.uleb128 0x2
 7272 0a3b A9300000 		.4byte	.LASF246
 7273 0a3f 0B       		.byte	0xb
 7274 0a40 74       		.byte	0x74
 7275 0a41 81090000 		.4byte	0x981
 7276 0a45 02       		.uleb128 0x2
 7277 0a46 A10E0000 		.4byte	.LASF247
 7278 0a4a 0B       		.byte	0xb
 7279 0a4b 77       		.byte	0x77
 7280 0a4c 81090000 		.4byte	0x981
 7281 0a50 13       		.uleb128 0x13
ARM GAS  C:\Users\Helon\AppData\Local\Temp\ccys0XsA.s 			page 187


 7282 0a51 10       		.byte	0x10
 7283 0a52 0B       		.byte	0xb
 7284 0a53 88       		.byte	0x88
 7285 0a54 710A0000 		.4byte	0xa71
 7286 0a58 14       		.uleb128 0x14
 7287 0a59 3A350000 		.4byte	.LASF239
 7288 0a5d 0B       		.byte	0xb
 7289 0a5e 8B       		.byte	0x8b
 7290 0a5f 14090000 		.4byte	0x914
 7291 0a63 00       		.byte	0
 7292 0a64 14       		.uleb128 0x14
 7293 0a65 FA340000 		.4byte	.LASF242
 7294 0a69 0B       		.byte	0xb
 7295 0a6a 8E       		.byte	0x8e
 7296 0a6b 81090000 		.4byte	0x981
 7297 0a6f 04       		.byte	0x4
 7298 0a70 00       		.byte	0
 7299 0a71 02       		.uleb128 0x2
 7300 0a72 CB150000 		.4byte	.LASF248
 7301 0a76 0B       		.byte	0xb
 7302 0a77 90       		.byte	0x90
 7303 0a78 500A0000 		.4byte	0xa50
 7304 0a7c 13       		.uleb128 0x13
 7305 0a7d 08       		.byte	0x8
 7306 0a7e 0B       		.byte	0xb
 7307 0a7f C0       		.byte	0xc0
 7308 0a80 9D0A0000 		.4byte	0xa9d
 7309 0a84 14       		.uleb128 0x14
 7310 0a85 B02A0000 		.4byte	.LASF249
 7311 0a89 0B       		.byte	0xb
 7312 0a8a C4       		.byte	0xc4
 7313 0a8b 3E080000 		.4byte	0x83e
 7314 0a8f 00       		.byte	0
 7315 0a90 14       		.uleb128 0x14
 7316 0a91 C31C0000 		.4byte	.LASF250
 7317 0a95 0B       		.byte	0xb
 7318 0a96 C7       		.byte	0xc7
 7319 0a97 E4000000 		.4byte	0xe4
 7320 0a9b 04       		.byte	0x4
 7321 0a9c 00       		.byte	0
 7322 0a9d 02       		.uleb128 0x2
 7323 0a9e 96110000 		.4byte	.LASF251
 7324 0aa2 0B       		.byte	0xb
 7325 0aa3 C9       		.byte	0xc9
 7326 0aa4 7C0A0000 		.4byte	0xa7c
 7327 0aa8 13       		.uleb128 0x13
 7328 0aa9 10       		.byte	0x10
 7329 0aaa 0B       		.byte	0xb
 7330 0aab CC       		.byte	0xcc
 7331 0aac D50A0000 		.4byte	0xad5
 7332 0ab0 14       		.uleb128 0x14
 7333 0ab1 3A350000 		.4byte	.LASF239
 7334 0ab5 0B       		.byte	0xb
 7335 0ab6 CF       		.byte	0xcf
 7336 0ab7 14090000 		.4byte	0x914
 7337 0abb 00       		.byte	0
 7338 0abc 14       		.uleb128 0x14
ARM GAS  C:\Users\Helon\AppData\Local\Temp\ccys0XsA.s 			page 188


 7339 0abd F6310000 		.4byte	.LASF252
 7340 0ac1 0B       		.byte	0xb
 7341 0ac2 D2       		.byte	0xd2
 7342 0ac3 9D0A0000 		.4byte	0xa9d
 7343 0ac7 04       		.byte	0x4
 7344 0ac8 14       		.uleb128 0x14
 7345 0ac9 1A3C0000 		.4byte	.LASF253
 7346 0acd 0B       		.byte	0xb
 7347 0ace D5       		.byte	0xd5
 7348 0acf D9000000 		.4byte	0xd9
 7349 0ad3 0C       		.byte	0xc
 7350 0ad4 00       		.byte	0
 7351 0ad5 02       		.uleb128 0x2
 7352 0ad6 F12D0000 		.4byte	.LASF254
 7353 0ada 0B       		.byte	0xb
 7354 0adb D7       		.byte	0xd7
 7355 0adc A80A0000 		.4byte	0xaa8
 7356 0ae0 06       		.uleb128 0x6
 7357 0ae1 C3070000 		.4byte	.LASF255
 7358 0ae5 0C       		.byte	0xc
 7359 0ae6 4101     		.2byte	0x141
 7360 0ae8 EC0A0000 		.4byte	0xaec
 7361 0aec 07       		.uleb128 0x7
 7362 0aed 04       		.byte	0x4
 7363 0aee F20A0000 		.4byte	0xaf2
 7364 0af2 15       		.uleb128 0x15
 7365 0af3 020B0000 		.4byte	0xb02
 7366 0af7 16       		.uleb128 0x16
 7367 0af8 EF000000 		.4byte	0xef
 7368 0afc 16       		.uleb128 0x16
 7369 0afd 60010000 		.4byte	0x160
 7370 0b01 00       		.byte	0
 7371 0b02 0B       		.uleb128 0xb
 7372 0b03 02       		.byte	0x2
 7373 0b04 0D       		.byte	0xd
 7374 0b05 9D       		.byte	0x9d
 7375 0b06 F7110000 		.4byte	0x11f7
 7376 0b0a 0C       		.uleb128 0xc
 7377 0b0b E8290000 		.4byte	.LASF256
 7378 0b0f 8002     		.sleb128 256
 7379 0b11 0C       		.uleb128 0xc
 7380 0b12 0D450000 		.4byte	.LASF257
 7381 0b16 8102     		.sleb128 257
 7382 0b18 0C       		.uleb128 0xc
 7383 0b19 FA0B0000 		.4byte	.LASF258
 7384 0b1d 8202     		.sleb128 258
 7385 0b1f 0C       		.uleb128 0xc
 7386 0b20 B4440000 		.4byte	.LASF259
 7387 0b24 8302     		.sleb128 259
 7388 0b26 0C       		.uleb128 0xc
 7389 0b27 5A310000 		.4byte	.LASF260
 7390 0b2b 8402     		.sleb128 260
 7391 0b2d 0C       		.uleb128 0xc
 7392 0b2e A33A0000 		.4byte	.LASF261
 7393 0b32 8502     		.sleb128 261
 7394 0b34 0C       		.uleb128 0xc
 7395 0b35 72120000 		.4byte	.LASF262
ARM GAS  C:\Users\Helon\AppData\Local\Temp\ccys0XsA.s 			page 189


 7396 0b39 8602     		.sleb128 262
 7397 0b3b 0C       		.uleb128 0xc
 7398 0b3c B90E0000 		.4byte	.LASF263
 7399 0b40 8702     		.sleb128 263
 7400 0b42 0C       		.uleb128 0xc
 7401 0b43 AE420000 		.4byte	.LASF264
 7402 0b47 8802     		.sleb128 264
 7403 0b49 0C       		.uleb128 0xc
 7404 0b4a 1A060000 		.4byte	.LASF265
 7405 0b4e 8902     		.sleb128 265
 7406 0b50 0C       		.uleb128 0xc
 7407 0b51 BA040000 		.4byte	.LASF266
 7408 0b55 8A02     		.sleb128 266
 7409 0b57 0C       		.uleb128 0xc
 7410 0b58 E2330000 		.4byte	.LASF267
 7411 0b5c 8B02     		.sleb128 267
 7412 0b5e 0C       		.uleb128 0xc
 7413 0b5f 34240000 		.4byte	.LASF268
 7414 0b63 8C02     		.sleb128 268
 7415 0b65 0C       		.uleb128 0xc
 7416 0b66 7F2F0000 		.4byte	.LASF269
 7417 0b6a 8D02     		.sleb128 269
 7418 0b6c 0C       		.uleb128 0xc
 7419 0b6d 92040000 		.4byte	.LASF270
 7420 0b71 8E02     		.sleb128 270
 7421 0b73 0C       		.uleb128 0xc
 7422 0b74 81250000 		.4byte	.LASF271
 7423 0b78 8F02     		.sleb128 271
 7424 0b7a 0C       		.uleb128 0xc
 7425 0b7b 55080000 		.4byte	.LASF272
 7426 0b7f 9002     		.sleb128 272
 7427 0b81 0C       		.uleb128 0xc
 7428 0b82 1D400000 		.4byte	.LASF273
 7429 0b86 9102     		.sleb128 273
 7430 0b88 0C       		.uleb128 0xc
 7431 0b89 8E130000 		.4byte	.LASF274
 7432 0b8d 9202     		.sleb128 274
 7433 0b8f 0C       		.uleb128 0xc
 7434 0b90 08350000 		.4byte	.LASF275
 7435 0b94 9302     		.sleb128 275
 7436 0b96 0C       		.uleb128 0xc
 7437 0b97 67430000 		.4byte	.LASF276
 7438 0b9b 9402     		.sleb128 276
 7439 0b9d 0C       		.uleb128 0xc
 7440 0b9e 5A390000 		.4byte	.LASF277
 7441 0ba2 9502     		.sleb128 277
 7442 0ba4 0C       		.uleb128 0xc
 7443 0ba5 AB0B0000 		.4byte	.LASF278
 7444 0ba9 9602     		.sleb128 278
 7445 0bab 0C       		.uleb128 0xc
 7446 0bac 71460000 		.4byte	.LASF279
 7447 0bb0 9702     		.sleb128 279
 7448 0bb2 0C       		.uleb128 0xc
 7449 0bb3 08280000 		.4byte	.LASF280
 7450 0bb7 9802     		.sleb128 280
 7451 0bb9 0C       		.uleb128 0xc
 7452 0bba D1170000 		.4byte	.LASF281
ARM GAS  C:\Users\Helon\AppData\Local\Temp\ccys0XsA.s 			page 190


 7453 0bbe 9902     		.sleb128 281
 7454 0bc0 0C       		.uleb128 0xc
 7455 0bc1 FB3B0000 		.4byte	.LASF282
 7456 0bc5 9A02     		.sleb128 282
 7457 0bc7 0C       		.uleb128 0xc
 7458 0bc8 E82A0000 		.4byte	.LASF283
 7459 0bcc 9B02     		.sleb128 283
 7460 0bce 0C       		.uleb128 0xc
 7461 0bcf E53F0000 		.4byte	.LASF284
 7462 0bd3 9C02     		.sleb128 284
 7463 0bd5 0C       		.uleb128 0xc
 7464 0bd6 473C0000 		.4byte	.LASF285
 7465 0bda 9D02     		.sleb128 285
 7466 0bdc 0C       		.uleb128 0xc
 7467 0bdd 98450000 		.4byte	.LASF286
 7468 0be1 9E02     		.sleb128 286
 7469 0be3 0C       		.uleb128 0xc
 7470 0be4 651F0000 		.4byte	.LASF287
 7471 0be8 9F02     		.sleb128 287
 7472 0bea 0C       		.uleb128 0xc
 7473 0beb B61B0000 		.4byte	.LASF288
 7474 0bef A002     		.sleb128 288
 7475 0bf1 0C       		.uleb128 0xc
 7476 0bf2 4D050000 		.4byte	.LASF289
 7477 0bf6 A102     		.sleb128 289
 7478 0bf8 0C       		.uleb128 0xc
 7479 0bf9 F3240000 		.4byte	.LASF290
 7480 0bfd A202     		.sleb128 290
 7481 0bff 0C       		.uleb128 0xc
 7482 0c00 90200000 		.4byte	.LASF291
 7483 0c04 A302     		.sleb128 291
 7484 0c06 0C       		.uleb128 0xc
 7485 0c07 55350000 		.4byte	.LASF292
 7486 0c0b A402     		.sleb128 292
 7487 0c0d 0C       		.uleb128 0xc
 7488 0c0e C02E0000 		.4byte	.LASF293
 7489 0c12 A502     		.sleb128 293
 7490 0c14 0C       		.uleb128 0xc
 7491 0c15 DE3D0000 		.4byte	.LASF294
 7492 0c19 A602     		.sleb128 294
 7493 0c1b 0C       		.uleb128 0xc
 7494 0c1c BB0F0000 		.4byte	.LASF295
 7495 0c20 A702     		.sleb128 295
 7496 0c22 0C       		.uleb128 0xc
 7497 0c23 C70D0000 		.4byte	.LASF296
 7498 0c27 A802     		.sleb128 296
 7499 0c29 0C       		.uleb128 0xc
 7500 0c2a 7F050000 		.4byte	.LASF297
 7501 0c2e A902     		.sleb128 297
 7502 0c30 0C       		.uleb128 0xc
 7503 0c31 2E3B0000 		.4byte	.LASF298
 7504 0c35 AA02     		.sleb128 298
 7505 0c37 0C       		.uleb128 0xc
 7506 0c38 FE030000 		.4byte	.LASF299
 7507 0c3c AB02     		.sleb128 299
 7508 0c3e 0C       		.uleb128 0xc
 7509 0c3f 22040000 		.4byte	.LASF300
ARM GAS  C:\Users\Helon\AppData\Local\Temp\ccys0XsA.s 			page 191


 7510 0c43 AC02     		.sleb128 300
 7511 0c45 0C       		.uleb128 0xc
 7512 0c46 98000000 		.4byte	.LASF301
 7513 0c4a AD02     		.sleb128 301
 7514 0c4c 0C       		.uleb128 0xc
 7515 0c4d 7E320000 		.4byte	.LASF302
 7516 0c51 AE02     		.sleb128 302
 7517 0c53 0C       		.uleb128 0xc
 7518 0c54 44450000 		.4byte	.LASF303
 7519 0c58 AF02     		.sleb128 303
 7520 0c5a 0C       		.uleb128 0xc
 7521 0c5b 5D070000 		.4byte	.LASF304
 7522 0c5f B002     		.sleb128 304
 7523 0c61 0C       		.uleb128 0xc
 7524 0c62 3F290000 		.4byte	.LASF305
 7525 0c66 B102     		.sleb128 305
 7526 0c68 0C       		.uleb128 0xc
 7527 0c69 C2010000 		.4byte	.LASF306
 7528 0c6d B202     		.sleb128 306
 7529 0c6f 0C       		.uleb128 0xc
 7530 0c70 50170000 		.4byte	.LASF307
 7531 0c74 B302     		.sleb128 307
 7532 0c76 0C       		.uleb128 0xc
 7533 0c77 622A0000 		.4byte	.LASF308
 7534 0c7b B402     		.sleb128 308
 7535 0c7d 0C       		.uleb128 0xc
 7536 0c7e A01A0000 		.4byte	.LASF309
 7537 0c82 B502     		.sleb128 309
 7538 0c84 0C       		.uleb128 0xc
 7539 0c85 A7070000 		.4byte	.LASF310
 7540 0c89 B602     		.sleb128 310
 7541 0c8b 0C       		.uleb128 0xc
 7542 0c8c 8E020000 		.4byte	.LASF311
 7543 0c90 B702     		.sleb128 311
 7544 0c92 0C       		.uleb128 0xc
 7545 0c93 4C0A0000 		.4byte	.LASF312
 7546 0c97 B802     		.sleb128 312
 7547 0c99 0C       		.uleb128 0xc
 7548 0c9a C3320000 		.4byte	.LASF313
 7549 0c9e B902     		.sleb128 313
 7550 0ca0 0C       		.uleb128 0xc
 7551 0ca1 843A0000 		.4byte	.LASF314
 7552 0ca5 BA02     		.sleb128 314
 7553 0ca7 0C       		.uleb128 0xc
 7554 0ca8 2B090000 		.4byte	.LASF315
 7555 0cac BB02     		.sleb128 315
 7556 0cae 0C       		.uleb128 0xc
 7557 0caf 052D0000 		.4byte	.LASF316
 7558 0cb3 BC02     		.sleb128 316
 7559 0cb5 0C       		.uleb128 0xc
 7560 0cb6 413F0000 		.4byte	.LASF317
 7561 0cba BD02     		.sleb128 317
 7562 0cbc 0C       		.uleb128 0xc
 7563 0cbd D0240000 		.4byte	.LASF318
 7564 0cc1 BE02     		.sleb128 318
 7565 0cc3 0C       		.uleb128 0xc
 7566 0cc4 963F0000 		.4byte	.LASF319
ARM GAS  C:\Users\Helon\AppData\Local\Temp\ccys0XsA.s 			page 192


 7567 0cc8 BF02     		.sleb128 319
 7568 0cca 0C       		.uleb128 0xc
 7569 0ccb AC090000 		.4byte	.LASF320
 7570 0ccf C002     		.sleb128 320
 7571 0cd1 0C       		.uleb128 0xc
 7572 0cd2 B12D0000 		.4byte	.LASF321
 7573 0cd6 C102     		.sleb128 321
 7574 0cd8 0C       		.uleb128 0xc
 7575 0cd9 51420000 		.4byte	.LASF322
 7576 0cdd C202     		.sleb128 322
 7577 0cdf 0C       		.uleb128 0xc
 7578 0ce0 5C400000 		.4byte	.LASF323
 7579 0ce4 C302     		.sleb128 323
 7580 0ce6 0C       		.uleb128 0xc
 7581 0ce7 DE000000 		.4byte	.LASF324
 7582 0ceb C402     		.sleb128 324
 7583 0ced 0C       		.uleb128 0xc
 7584 0cee 513B0000 		.4byte	.LASF325
 7585 0cf2 C502     		.sleb128 325
 7586 0cf4 0C       		.uleb128 0xc
 7587 0cf5 5E210000 		.4byte	.LASF326
 7588 0cf9 C602     		.sleb128 326
 7589 0cfb 0C       		.uleb128 0xc
 7590 0cfc 77390000 		.4byte	.LASF327
 7591 0d00 C702     		.sleb128 327
 7592 0d02 0C       		.uleb128 0xc
 7593 0d03 F1360000 		.4byte	.LASF328
 7594 0d07 C802     		.sleb128 328
 7595 0d09 0C       		.uleb128 0xc
 7596 0d0a 39020000 		.4byte	.LASF329
 7597 0d0e C902     		.sleb128 329
 7598 0d10 0C       		.uleb128 0xc
 7599 0d11 AA350000 		.4byte	.LASF330
 7600 0d15 CA02     		.sleb128 330
 7601 0d17 0C       		.uleb128 0xc
 7602 0d18 45110000 		.4byte	.LASF331
 7603 0d1c CB02     		.sleb128 331
 7604 0d1e 0C       		.uleb128 0xc
 7605 0d1f D20A0000 		.4byte	.LASF332
 7606 0d23 CC02     		.sleb128 332
 7607 0d25 0C       		.uleb128 0xc
 7608 0d26 AF0A0000 		.4byte	.LASF333
 7609 0d2a CD02     		.sleb128 333
 7610 0d2c 0C       		.uleb128 0xc
 7611 0d2d 05110000 		.4byte	.LASF334
 7612 0d31 CE02     		.sleb128 334
 7613 0d33 0C       		.uleb128 0xc
 7614 0d34 F5220000 		.4byte	.LASF335
 7615 0d38 CF02     		.sleb128 335
 7616 0d3a 0C       		.uleb128 0xc
 7617 0d3b DC430000 		.4byte	.LASF336
 7618 0d3f D002     		.sleb128 336
 7619 0d41 0C       		.uleb128 0xc
 7620 0d42 82160000 		.4byte	.LASF337
 7621 0d46 D102     		.sleb128 337
 7622 0d48 0C       		.uleb128 0xc
 7623 0d49 A7320000 		.4byte	.LASF338
ARM GAS  C:\Users\Helon\AppData\Local\Temp\ccys0XsA.s 			page 193


 7624 0d4d D202     		.sleb128 338
 7625 0d4f 0C       		.uleb128 0xc
 7626 0d50 91080000 		.4byte	.LASF339
 7627 0d54 D302     		.sleb128 339
 7628 0d56 0C       		.uleb128 0xc
 7629 0d57 A0010000 		.4byte	.LASF340
 7630 0d5b D402     		.sleb128 340
 7631 0d5d 0C       		.uleb128 0xc
 7632 0d5e 06210000 		.4byte	.LASF341
 7633 0d62 D502     		.sleb128 341
 7634 0d64 0C       		.uleb128 0xc
 7635 0d65 F9000000 		.4byte	.LASF342
 7636 0d69 D602     		.sleb128 342
 7637 0d6b 0C       		.uleb128 0xc
 7638 0d6c 5F0B0000 		.4byte	.LASF343
 7639 0d70 D702     		.sleb128 343
 7640 0d72 0C       		.uleb128 0xc
 7641 0d73 C6400000 		.4byte	.LASF344
 7642 0d77 D802     		.sleb128 344
 7643 0d79 0C       		.uleb128 0xc
 7644 0d7a EB190000 		.4byte	.LASF345
 7645 0d7e D902     		.sleb128 345
 7646 0d80 0C       		.uleb128 0xc
 7647 0d81 A1180000 		.4byte	.LASF346
 7648 0d85 DA02     		.sleb128 346
 7649 0d87 0C       		.uleb128 0xc
 7650 0d88 AC060000 		.4byte	.LASF347
 7651 0d8c DB02     		.sleb128 347
 7652 0d8e 0C       		.uleb128 0xc
 7653 0d8f EB3E0000 		.4byte	.LASF348
 7654 0d93 DC02     		.sleb128 348
 7655 0d95 0C       		.uleb128 0xc
 7656 0d96 57260000 		.4byte	.LASF349
 7657 0d9a DD02     		.sleb128 349
 7658 0d9c 0C       		.uleb128 0xc
 7659 0d9d 14220000 		.4byte	.LASF350
 7660 0da1 DE02     		.sleb128 350
 7661 0da3 0C       		.uleb128 0xc
 7662 0da4 CB080000 		.4byte	.LASF351
 7663 0da8 DF02     		.sleb128 351
 7664 0daa 0C       		.uleb128 0xc
 7665 0dab D4070000 		.4byte	.LASF352
 7666 0daf E002     		.sleb128 352
 7667 0db1 0C       		.uleb128 0xc
 7668 0db2 F4010000 		.4byte	.LASF353
 7669 0db6 E102     		.sleb128 353
 7670 0db8 0C       		.uleb128 0xc
 7671 0db9 0F270000 		.4byte	.LASF354
 7672 0dbd E202     		.sleb128 354
 7673 0dbf 0C       		.uleb128 0xc
 7674 0dc0 23460000 		.4byte	.LASF355
 7675 0dc4 E302     		.sleb128 355
 7676 0dc6 0C       		.uleb128 0xc
 7677 0dc7 141C0000 		.4byte	.LASF356
 7678 0dcb E402     		.sleb128 356
 7679 0dcd 0C       		.uleb128 0xc
 7680 0dce C7180000 		.4byte	.LASF357
ARM GAS  C:\Users\Helon\AppData\Local\Temp\ccys0XsA.s 			page 194


 7681 0dd2 E502     		.sleb128 357
 7682 0dd4 0C       		.uleb128 0xc
 7683 0dd5 F8280000 		.4byte	.LASF358
 7684 0dd9 E602     		.sleb128 358
 7685 0ddb 0C       		.uleb128 0xc
 7686 0ddc EE3C0000 		.4byte	.LASF359
 7687 0de0 E702     		.sleb128 359
 7688 0de2 0C       		.uleb128 0xc
 7689 0de3 51330000 		.4byte	.LASF360
 7690 0de7 E802     		.sleb128 360
 7691 0de9 0C       		.uleb128 0xc
 7692 0dea 70040000 		.4byte	.LASF361
 7693 0dee E902     		.sleb128 361
 7694 0df0 0C       		.uleb128 0xc
 7695 0df1 AE310000 		.4byte	.LASF362
 7696 0df5 EA02     		.sleb128 362
 7697 0df7 0C       		.uleb128 0xc
 7698 0df8 9C1D0000 		.4byte	.LASF363
 7699 0dfc EB02     		.sleb128 363
 7700 0dfe 0C       		.uleb128 0xc
 7701 0dff C8200000 		.4byte	.LASF364
 7702 0e03 EC02     		.sleb128 364
 7703 0e05 0C       		.uleb128 0xc
 7704 0e06 C52C0000 		.4byte	.LASF365
 7705 0e0a ED02     		.sleb128 365
 7706 0e0c 0C       		.uleb128 0xc
 7707 0e0d 2A380000 		.4byte	.LASF366
 7708 0e11 EE02     		.sleb128 366
 7709 0e13 0C       		.uleb128 0xc
 7710 0e14 CE160000 		.4byte	.LASF367
 7711 0e18 EF02     		.sleb128 367
 7712 0e1a 0C       		.uleb128 0xc
 7713 0e1b ED260000 		.4byte	.LASF368
 7714 0e1f F002     		.sleb128 368
 7715 0e21 0C       		.uleb128 0xc
 7716 0e22 40250000 		.4byte	.LASF369
 7717 0e26 F102     		.sleb128 369
 7718 0e28 0C       		.uleb128 0xc
 7719 0e29 C1290000 		.4byte	.LASF370
 7720 0e2d F202     		.sleb128 370
 7721 0e2f 0C       		.uleb128 0xc
 7722 0e30 F6370000 		.4byte	.LASF371
 7723 0e34 F302     		.sleb128 371
 7724 0e36 0C       		.uleb128 0xc
 7725 0e37 491C0000 		.4byte	.LASF372
 7726 0e3b F402     		.sleb128 372
 7727 0e3d 0C       		.uleb128 0xc
 7728 0e3e D2260000 		.4byte	.LASF373
 7729 0e42 F502     		.sleb128 373
 7730 0e44 0C       		.uleb128 0xc
 7731 0e45 78270000 		.4byte	.LASF374
 7732 0e49 F602     		.sleb128 374
 7733 0e4b 0C       		.uleb128 0xc
 7734 0e4c B7170000 		.4byte	.LASF375
 7735 0e50 F702     		.sleb128 375
 7736 0e52 0C       		.uleb128 0xc
 7737 0e53 110E0000 		.4byte	.LASF376
ARM GAS  C:\Users\Helon\AppData\Local\Temp\ccys0XsA.s 			page 195


 7738 0e57 F802     		.sleb128 376
 7739 0e59 0C       		.uleb128 0xc
 7740 0e5a D03B0000 		.4byte	.LASF377
 7741 0e5e F902     		.sleb128 377
 7742 0e60 0C       		.uleb128 0xc
 7743 0e61 FF1C0000 		.4byte	.LASF378
 7744 0e65 FA02     		.sleb128 378
 7745 0e67 0C       		.uleb128 0xc
 7746 0e68 C40C0000 		.4byte	.LASF379
 7747 0e6c FB02     		.sleb128 379
 7748 0e6e 0C       		.uleb128 0xc
 7749 0e6f 253C0000 		.4byte	.LASF380
 7750 0e73 FC02     		.sleb128 380
 7751 0e75 0C       		.uleb128 0xc
 7752 0e76 90330000 		.4byte	.LASF381
 7753 0e7a FD02     		.sleb128 381
 7754 0e7c 0C       		.uleb128 0xc
 7755 0e7d 9B390000 		.4byte	.LASF382
 7756 0e81 FE02     		.sleb128 382
 7757 0e83 0C       		.uleb128 0xc
 7758 0e84 55240000 		.4byte	.LASF383
 7759 0e88 FF02     		.sleb128 383
 7760 0e8a 0C       		.uleb128 0xc
 7761 0e8b 5E020000 		.4byte	.LASF384
 7762 0e8f 8003     		.sleb128 384
 7763 0e91 0C       		.uleb128 0xc
 7764 0e92 652D0000 		.4byte	.LASF385
 7765 0e96 8103     		.sleb128 385
 7766 0e98 0C       		.uleb128 0xc
 7767 0e99 9C430000 		.4byte	.LASF386
 7768 0e9d 8203     		.sleb128 386
 7769 0e9f 0C       		.uleb128 0xc
 7770 0ea0 003E0000 		.4byte	.LASF387
 7771 0ea4 8303     		.sleb128 387
 7772 0ea6 0C       		.uleb128 0xc
 7773 0ea7 6E380000 		.4byte	.LASF388
 7774 0eab 8403     		.sleb128 388
 7775 0ead 0C       		.uleb128 0xc
 7776 0eae 1B030000 		.4byte	.LASF389
 7777 0eb2 8503     		.sleb128 389
 7778 0eb4 0C       		.uleb128 0xc
 7779 0eb5 CB140000 		.4byte	.LASF390
 7780 0eb9 8603     		.sleb128 390
 7781 0ebb 0C       		.uleb128 0xc
 7782 0ebc 77400000 		.4byte	.LASF391
 7783 0ec0 8703     		.sleb128 391
 7784 0ec2 0C       		.uleb128 0xc
 7785 0ec3 4A470000 		.4byte	.LASF392
 7786 0ec7 8803     		.sleb128 392
 7787 0ec9 0C       		.uleb128 0xc
 7788 0eca B9270000 		.4byte	.LASF393
 7789 0ece 8903     		.sleb128 393
 7790 0ed0 0C       		.uleb128 0xc
 7791 0ed1 D6450000 		.4byte	.LASF394
 7792 0ed5 8A03     		.sleb128 394
 7793 0ed7 0C       		.uleb128 0xc
 7794 0ed8 56270000 		.4byte	.LASF395
ARM GAS  C:\Users\Helon\AppData\Local\Temp\ccys0XsA.s 			page 196


 7795 0edc 8B03     		.sleb128 395
 7796 0ede 0C       		.uleb128 0xc
 7797 0edf DF0E0000 		.4byte	.LASF396
 7798 0ee3 8C03     		.sleb128 396
 7799 0ee5 0C       		.uleb128 0xc
 7800 0ee6 3C1D0000 		.4byte	.LASF397
 7801 0eea 8D03     		.sleb128 397
 7802 0eec 0C       		.uleb128 0xc
 7803 0eed CC1A0000 		.4byte	.LASF398
 7804 0ef1 8E03     		.sleb128 398
 7805 0ef3 0C       		.uleb128 0xc
 7806 0ef4 330E0000 		.4byte	.LASF399
 7807 0ef8 8F03     		.sleb128 399
 7808 0efa 0C       		.uleb128 0xc
 7809 0efb 1C370000 		.4byte	.LASF400
 7810 0eff 9003     		.sleb128 400
 7811 0f01 0C       		.uleb128 0xc
 7812 0f02 221E0000 		.4byte	.LASF401
 7813 0f06 9103     		.sleb128 401
 7814 0f08 0C       		.uleb128 0xc
 7815 0f09 7A2E0000 		.4byte	.LASF402
 7816 0f0d 9203     		.sleb128 402
 7817 0f0f 0C       		.uleb128 0xc
 7818 0f10 85350000 		.4byte	.LASF403
 7819 0f14 9303     		.sleb128 403
 7820 0f16 0C       		.uleb128 0xc
 7821 0f17 A9160000 		.4byte	.LASF404
 7822 0f1b 9403     		.sleb128 404
 7823 0f1d 0C       		.uleb128 0xc
 7824 0f1e 46180000 		.4byte	.LASF405
 7825 0f22 9503     		.sleb128 405
 7826 0f24 0C       		.uleb128 0xc
 7827 0f25 C3470000 		.4byte	.LASF406
 7828 0f29 9603     		.sleb128 406
 7829 0f2b 0C       		.uleb128 0xc
 7830 0f2c 132E0000 		.4byte	.LASF407
 7831 0f30 9703     		.sleb128 407
 7832 0f32 0C       		.uleb128 0xc
 7833 0f33 9E2E0000 		.4byte	.LASF408
 7834 0f37 9803     		.sleb128 408
 7835 0f39 0C       		.uleb128 0xc
 7836 0f3a 4C340000 		.4byte	.LASF409
 7837 0f3e 9903     		.sleb128 409
 7838 0f40 0C       		.uleb128 0xc
 7839 0f41 B7190000 		.4byte	.LASF410
 7840 0f45 9A03     		.sleb128 410
 7841 0f47 0C       		.uleb128 0xc
 7842 0f48 B8370000 		.4byte	.LASF411
 7843 0f4c 9B03     		.sleb128 411
 7844 0f4e 0C       		.uleb128 0xc
 7845 0f4f FF0C0000 		.4byte	.LASF412
 7846 0f53 9C03     		.sleb128 412
 7847 0f55 0C       		.uleb128 0xc
 7848 0f56 43000000 		.4byte	.LASF413
 7849 0f5a 9D03     		.sleb128 413
 7850 0f5c 0C       		.uleb128 0xc
 7851 0f5d 7F3D0000 		.4byte	.LASF414
ARM GAS  C:\Users\Helon\AppData\Local\Temp\ccys0XsA.s 			page 197


 7852 0f61 9E03     		.sleb128 414
 7853 0f63 0C       		.uleb128 0xc
 7854 0f64 42150000 		.4byte	.LASF415
 7855 0f68 9F03     		.sleb128 415
 7856 0f6a 0C       		.uleb128 0xc
 7857 0f6b 6F470000 		.4byte	.LASF416
 7858 0f6f A003     		.sleb128 416
 7859 0f71 0C       		.uleb128 0xc
 7860 0f72 CF050000 		.4byte	.LASF417
 7861 0f76 A103     		.sleb128 417
 7862 0f78 0C       		.uleb128 0xc
 7863 0f79 B1230000 		.4byte	.LASF418
 7864 0f7d A203     		.sleb128 418
 7865 0f7f 0C       		.uleb128 0xc
 7866 0f80 30470000 		.4byte	.LASF419
 7867 0f84 A303     		.sleb128 419
 7868 0f86 0C       		.uleb128 0xc
 7869 0f87 C5390000 		.4byte	.LASF420
 7870 0f8b A403     		.sleb128 420
 7871 0f8d 0C       		.uleb128 0xc
 7872 0f8e 8D2A0000 		.4byte	.LASF421
 7873 0f92 A503     		.sleb128 421
 7874 0f94 0C       		.uleb128 0xc
 7875 0f95 282D0000 		.4byte	.LASF422
 7876 0f99 A603     		.sleb128 422
 7877 0f9b 0C       		.uleb128 0xc
 7878 0f9c 87410000 		.4byte	.LASF423
 7879 0fa0 A703     		.sleb128 423
 7880 0fa2 0C       		.uleb128 0xc
 7881 0fa3 6F1E0000 		.4byte	.LASF424
 7882 0fa7 A803     		.sleb128 424
 7883 0fa9 0C       		.uleb128 0xc
 7884 0faa 74190000 		.4byte	.LASF425
 7885 0fae A903     		.sleb128 425
 7886 0fb0 0C       		.uleb128 0xc
 7887 0fb1 35260000 		.4byte	.LASF426
 7888 0fb5 AA03     		.sleb128 426
 7889 0fb7 0C       		.uleb128 0xc
 7890 0fb8 633E0000 		.4byte	.LASF427
 7891 0fbc AB03     		.sleb128 427
 7892 0fbe 0C       		.uleb128 0xc
 7893 0fbf 16340000 		.4byte	.LASF428
 7894 0fc3 AC03     		.sleb128 428
 7895 0fc5 0C       		.uleb128 0xc
 7896 0fc6 4D040000 		.4byte	.LASF429
 7897 0fca AD03     		.sleb128 429
 7898 0fcc 0C       		.uleb128 0xc
 7899 0fcd 5C300000 		.4byte	.LASF430
 7900 0fd1 AE03     		.sleb128 430
 7901 0fd3 0C       		.uleb128 0xc
 7902 0fd4 F40A0000 		.4byte	.LASF431
 7903 0fd8 AF03     		.sleb128 431
 7904 0fda 0C       		.uleb128 0xc
 7905 0fdb D0220000 		.4byte	.LASF432
 7906 0fdf B003     		.sleb128 432
 7907 0fe1 0C       		.uleb128 0xc
 7908 0fe2 DC370000 		.4byte	.LASF433
ARM GAS  C:\Users\Helon\AppData\Local\Temp\ccys0XsA.s 			page 198


 7909 0fe6 B103     		.sleb128 433
 7910 0fe8 0C       		.uleb128 0xc
 7911 0fe9 CF060000 		.4byte	.LASF434
 7912 0fed B203     		.sleb128 434
 7913 0fef 0C       		.uleb128 0xc
 7914 0ff0 16330000 		.4byte	.LASF435
 7915 0ff4 B303     		.sleb128 435
 7916 0ff6 0C       		.uleb128 0xc
 7917 0ff7 C5300000 		.4byte	.LASF436
 7918 0ffb B403     		.sleb128 436
 7919 0ffd 0C       		.uleb128 0xc
 7920 0ffe 411B0000 		.4byte	.LASF437
 7921 1002 B503     		.sleb128 437
 7922 1004 0C       		.uleb128 0xc
 7923 1005 871F0000 		.4byte	.LASF438
 7924 1009 B603     		.sleb128 438
 7925 100b 0C       		.uleb128 0xc
 7926 100c EF250000 		.4byte	.LASF439
 7927 1010 B703     		.sleb128 439
 7928 1012 0C       		.uleb128 0xc
 7929 1013 4B2F0000 		.4byte	.LASF440
 7930 1017 B803     		.sleb128 440
 7931 1019 0C       		.uleb128 0xc
 7932 101a D5340000 		.4byte	.LASF441
 7933 101e B903     		.sleb128 441
 7934 1020 0C       		.uleb128 0xc
 7935 1021 CB360000 		.4byte	.LASF442
 7936 1025 BA03     		.sleb128 442
 7937 1027 0C       		.uleb128 0xc
 7938 1028 EB200000 		.4byte	.LASF443
 7939 102c BB03     		.sleb128 443
 7940 102e 0C       		.uleb128 0xc
 7941 102f 452A0000 		.4byte	.LASF444
 7942 1033 BC03     		.sleb128 444
 7943 1035 0C       		.uleb128 0xc
 7944 1036 0E070000 		.4byte	.LASF445
 7945 103a BD03     		.sleb128 445
 7946 103c 0C       		.uleb128 0xc
 7947 103d CE0B0000 		.4byte	.LASF446
 7948 1041 BE03     		.sleb128 446
 7949 1043 0C       		.uleb128 0xc
 7950 1044 30160000 		.4byte	.LASF447
 7951 1048 BF03     		.sleb128 447
 7952 104a 0C       		.uleb128 0xc
 7953 104b 213A0000 		.4byte	.LASF448
 7954 104f C003     		.sleb128 448
 7955 1051 0C       		.uleb128 0xc
 7956 1052 BB460000 		.4byte	.LASF449
 7957 1056 C103     		.sleb128 449
 7958 1058 0C       		.uleb128 0xc
 7959 1059 F21D0000 		.4byte	.LASF450
 7960 105d C203     		.sleb128 450
 7961 105f 0C       		.uleb128 0xc
 7962 1060 B6100000 		.4byte	.LASF451
 7963 1064 C303     		.sleb128 451
 7964 1066 0C       		.uleb128 0xc
 7965 1067 EB180000 		.4byte	.LASF452
ARM GAS  C:\Users\Helon\AppData\Local\Temp\ccys0XsA.s 			page 199


 7966 106b C403     		.sleb128 452
 7967 106d 0C       		.uleb128 0xc
 7968 106e 2F2E0000 		.4byte	.LASF453
 7969 1072 C503     		.sleb128 453
 7970 1074 0C       		.uleb128 0xc
 7971 1075 E1040000 		.4byte	.LASF454
 7972 1079 C603     		.sleb128 454
 7973 107b 0C       		.uleb128 0xc
 7974 107c BA380000 		.4byte	.LASF455
 7975 1080 C703     		.sleb128 455
 7976 1082 0C       		.uleb128 0xc
 7977 1083 7B110000 		.4byte	.LASF456
 7978 1087 C803     		.sleb128 456
 7979 1089 0C       		.uleb128 0xc
 7980 108a 56220000 		.4byte	.LASF457
 7981 108e C903     		.sleb128 457
 7982 1090 0C       		.uleb128 0xc
 7983 1091 07180000 		.4byte	.LASF458
 7984 1095 CA03     		.sleb128 458
 7985 1097 0C       		.uleb128 0xc
 7986 1098 EA400000 		.4byte	.LASF459
 7987 109c CB03     		.sleb128 459
 7988 109e 0C       		.uleb128 0xc
 7989 109f D9030000 		.4byte	.LASF460
 7990 10a3 CC03     		.sleb128 460
 7991 10a5 0C       		.uleb128 0xc
 7992 10a6 25010000 		.4byte	.LASF461
 7993 10aa CD03     		.sleb128 461
 7994 10ac 0C       		.uleb128 0xc
 7995 10ad 65150000 		.4byte	.LASF462
 7996 10b1 CE03     		.sleb128 462
 7997 10b3 0C       		.uleb128 0xc
 7998 10b4 0C130000 		.4byte	.LASF463
 7999 10b8 CF03     		.sleb128 463
 8000 10ba 0C       		.uleb128 0xc
 8001 10bb 83290000 		.4byte	.LASF464
 8002 10bf D003     		.sleb128 464
 8003 10c1 0C       		.uleb128 0xc
 8004 10c2 233E0000 		.4byte	.LASF465
 8005 10c6 D103     		.sleb128 465
 8006 10c8 0C       		.uleb128 0xc
 8007 10c9 39270000 		.4byte	.LASF466
 8008 10cd D203     		.sleb128 466
 8009 10cf 0C       		.uleb128 0xc
 8010 10d0 94370000 		.4byte	.LASF467
 8011 10d4 D303     		.sleb128 467
 8012 10d6 0C       		.uleb128 0xc
 8013 10d7 D3130000 		.4byte	.LASF468
 8014 10db D403     		.sleb128 468
 8015 10dd 0C       		.uleb128 0xc
 8016 10de 29050000 		.4byte	.LASF469
 8017 10e2 D503     		.sleb128 469
 8018 10e4 0C       		.uleb128 0xc
 8019 10e5 6F370000 		.4byte	.LASF470
 8020 10e9 D603     		.sleb128 470
 8021 10eb 0C       		.uleb128 0xc
 8022 10ec 18140000 		.4byte	.LASF471
ARM GAS  C:\Users\Helon\AppData\Local\Temp\ccys0XsA.s 			page 200


 8023 10f0 D703     		.sleb128 471
 8024 10f2 0C       		.uleb128 0xc
 8025 10f3 12240000 		.4byte	.LASF472
 8026 10f7 D803     		.sleb128 472
 8027 10f9 0C       		.uleb128 0xc
 8028 10fa 09360000 		.4byte	.LASF473
 8029 10fe D903     		.sleb128 473
 8030 1100 0C       		.uleb128 0xc
 8031 1101 78180000 		.4byte	.LASF474
 8032 1105 DA03     		.sleb128 474
 8033 1107 0C       		.uleb128 0xc
 8034 1108 083D0000 		.4byte	.LASF475
 8035 110c DB03     		.sleb128 475
 8036 110e 0C       		.uleb128 0xc
 8037 110f 0D160000 		.4byte	.LASF476
 8038 1113 DC03     		.sleb128 476
 8039 1115 0C       		.uleb128 0xc
 8040 1116 132F0000 		.4byte	.LASF477
 8041 111a DD03     		.sleb128 477
 8042 111c 0C       		.uleb128 0xc
 8043 111d DF2F0000 		.4byte	.LASF478
 8044 1121 DE03     		.sleb128 478
 8045 1123 0C       		.uleb128 0xc
 8046 1124 D91B0000 		.4byte	.LASF479
 8047 1128 DF03     		.sleb128 479
 8048 112a 0C       		.uleb128 0xc
 8049 112b 671C0000 		.4byte	.LASF480
 8050 112f E003     		.sleb128 480
 8051 1131 0C       		.uleb128 0xc
 8052 1132 79450000 		.4byte	.LASF481
 8053 1136 E103     		.sleb128 481
 8054 1138 0C       		.uleb128 0xc
 8055 1139 E8080000 		.4byte	.LASF482
 8056 113d E203     		.sleb128 482
 8057 113f 0C       		.uleb128 0xc
 8058 1140 58280000 		.4byte	.LASF483
 8059 1144 E303     		.sleb128 483
 8060 1146 0C       		.uleb128 0xc
 8061 1147 1D290000 		.4byte	.LASF484
 8062 114b E403     		.sleb128 484
 8063 114d 0C       		.uleb128 0xc
 8064 114e A02B0000 		.4byte	.LASF485
 8065 1152 E503     		.sleb128 485
 8066 1154 0C       		.uleb128 0xc
 8067 1155 B13D0000 		.4byte	.LASF486
 8068 1159 E603     		.sleb128 486
 8069 115b 0C       		.uleb128 0xc
 8070 115c FC040000 		.4byte	.LASF487
 8071 1160 E703     		.sleb128 487
 8072 1162 0C       		.uleb128 0xc
 8073 1163 6E360000 		.4byte	.LASF488
 8074 1167 E803     		.sleb128 488
 8075 1169 0C       		.uleb128 0xc
 8076 116a BE250000 		.4byte	.LASF489
 8077 116e E903     		.sleb128 489
 8078 1170 0C       		.uleb128 0xc
 8079 1171 F3160000 		.4byte	.LASF490
ARM GAS  C:\Users\Helon\AppData\Local\Temp\ccys0XsA.s 			page 201


 8080 1175 EA03     		.sleb128 490
 8081 1177 0C       		.uleb128 0xc
 8082 1178 CB1E0000 		.4byte	.LASF491
 8083 117c EB03     		.sleb128 491
 8084 117e 0C       		.uleb128 0xc
 8085 117f 7F2D0000 		.4byte	.LASF492
 8086 1183 EC03     		.sleb128 492
 8087 1185 0C       		.uleb128 0xc
 8088 1186 9E470000 		.4byte	.LASF493
 8089 118a ED03     		.sleb128 493
 8090 118c 0C       		.uleb128 0xc
 8091 118d 59190000 		.4byte	.LASF494
 8092 1191 EE03     		.sleb128 494
 8093 1193 0C       		.uleb128 0xc
 8094 1194 5B010000 		.4byte	.LASF495
 8095 1198 EF03     		.sleb128 495
 8096 119a 0C       		.uleb128 0xc
 8097 119b D12B0000 		.4byte	.LASF496
 8098 119f F003     		.sleb128 496
 8099 11a1 0C       		.uleb128 0xc
 8100 11a2 74280000 		.4byte	.LASF497
 8101 11a6 F103     		.sleb128 497
 8102 11a8 0C       		.uleb128 0xc
 8103 11a9 0E1B0000 		.4byte	.LASF498
 8104 11ad F203     		.sleb128 498
 8105 11af 0C       		.uleb128 0xc
 8106 11b0 36390000 		.4byte	.LASF499
 8107 11b4 F303     		.sleb128 499
 8108 11b6 0C       		.uleb128 0xc
 8109 11b7 CF410000 		.4byte	.LASF500
 8110 11bb F403     		.sleb128 500
 8111 11bd 0C       		.uleb128 0xc
 8112 11be 7E010000 		.4byte	.LASF501
 8113 11c2 F503     		.sleb128 501
 8114 11c4 0C       		.uleb128 0xc
 8115 11c5 86300000 		.4byte	.LASF502
 8116 11c9 F603     		.sleb128 502
 8117 11cb 0C       		.uleb128 0xc
 8118 11cc A7150000 		.4byte	.LASF503
 8119 11d0 F703     		.sleb128 503
 8120 11d2 0C       		.uleb128 0xc
 8121 11d3 74170000 		.4byte	.LASF504
 8122 11d7 F803     		.sleb128 504
 8123 11d9 0C       		.uleb128 0xc
 8124 11da E0460000 		.4byte	.LASF505
 8125 11de F903     		.sleb128 505
 8126 11e0 0C       		.uleb128 0xc
 8127 11e1 BB110000 		.4byte	.LASF506
 8128 11e5 FA03     		.sleb128 506
 8129 11e7 0C       		.uleb128 0xc
 8130 11e8 970F0000 		.4byte	.LASF507
 8131 11ec FB03     		.sleb128 507
 8132 11ee 0C       		.uleb128 0xc
 8133 11ef 4B2D0000 		.4byte	.LASF508
 8134 11f3 80C003   		.sleb128 57344
 8135 11f6 00       		.byte	0
 8136 11f7 0D       		.uleb128 0xd
ARM GAS  C:\Users\Helon\AppData\Local\Temp\ccys0XsA.s 			page 202


 8137 11f8 01       		.byte	0x1
 8138 11f9 0D       		.byte	0xd
 8139 11fa 3707     		.2byte	0x737
 8140 11fc 2B120000 		.4byte	0x122b
 8141 1200 0C       		.uleb128 0xc
 8142 1201 A2100000 		.4byte	.LASF509
 8143 1205 00       		.sleb128 0
 8144 1206 0C       		.uleb128 0xc
 8145 1207 81210000 		.4byte	.LASF510
 8146 120b 01       		.sleb128 1
 8147 120c 0C       		.uleb128 0xc
 8148 120d 39430000 		.4byte	.LASF511
 8149 1211 02       		.sleb128 2
 8150 1212 0C       		.uleb128 0xc
 8151 1213 86090000 		.4byte	.LASF512
 8152 1217 03       		.sleb128 3
 8153 1218 0C       		.uleb128 0xc
 8154 1219 05060000 		.4byte	.LASF513
 8155 121d 04       		.sleb128 4
 8156 121e 0C       		.uleb128 0xc
 8157 121f 87140000 		.4byte	.LASF514
 8158 1223 05       		.sleb128 5
 8159 1224 0C       		.uleb128 0xc
 8160 1225 55380000 		.4byte	.LASF515
 8161 1229 06       		.sleb128 6
 8162 122a 00       		.byte	0
 8163 122b 06       		.uleb128 0x6
 8164 122c 30310000 		.4byte	.LASF516
 8165 1230 0D       		.byte	0xd
 8166 1231 4507     		.2byte	0x745
 8167 1233 F7110000 		.4byte	0x11f7
 8168 1237 0E       		.uleb128 0xe
 8169 1238 70       		.byte	0x70
 8170 1239 0E       		.byte	0xe
 8171 123a 2501     		.2byte	0x125
 8172 123c D4130000 		.4byte	0x13d4
 8173 1240 0F       		.uleb128 0xf
 8174 1241 9E3A0000 		.4byte	.LASF517
 8175 1245 0E       		.byte	0xe
 8176 1246 2701     		.2byte	0x127
 8177 1248 EF000000 		.4byte	0xef
 8178 124c 00       		.byte	0
 8179 124d 0F       		.uleb128 0xf
 8180 124e 8F060000 		.4byte	.LASF518
 8181 1252 0E       		.byte	0xe
 8182 1253 2801     		.2byte	0x128
 8183 1255 EF000000 		.4byte	0xef
 8184 1259 04       		.byte	0x4
 8185 125a 0F       		.uleb128 0xf
 8186 125b 811A0000 		.4byte	.LASF519
 8187 125f 0E       		.byte	0xe
 8188 1260 2901     		.2byte	0x129
 8189 1262 EF000000 		.4byte	0xef
 8190 1266 08       		.byte	0x8
 8191 1267 0F       		.uleb128 0xf
 8192 1268 C81D0000 		.4byte	.LASF520
 8193 126c 0E       		.byte	0xe
ARM GAS  C:\Users\Helon\AppData\Local\Temp\ccys0XsA.s 			page 203


 8194 126d 2A01     		.2byte	0x12a
 8195 126f EF000000 		.4byte	0xef
 8196 1273 0C       		.byte	0xc
 8197 1274 0F       		.uleb128 0xf
 8198 1275 4A370000 		.4byte	.LASF521
 8199 1279 0E       		.byte	0xe
 8200 127a 2B01     		.2byte	0x12b
 8201 127c EF000000 		.4byte	0xef
 8202 1280 10       		.byte	0x10
 8203 1281 0F       		.uleb128 0xf
 8204 1282 3F370000 		.4byte	.LASF522
 8205 1286 0E       		.byte	0xe
 8206 1287 2C01     		.2byte	0x12c
 8207 1289 EF000000 		.4byte	0xef
 8208 128d 14       		.byte	0x14
 8209 128e 0F       		.uleb128 0xf
 8210 128f 4C320000 		.4byte	.LASF523
 8211 1293 0E       		.byte	0xe
 8212 1294 2D01     		.2byte	0x12d
 8213 1296 EF000000 		.4byte	0xef
 8214 129a 18       		.byte	0x18
 8215 129b 0F       		.uleb128 0xf
 8216 129c 4D090000 		.4byte	.LASF524
 8217 12a0 0E       		.byte	0xe
 8218 12a1 2E01     		.2byte	0x12e
 8219 12a3 EF000000 		.4byte	0xef
 8220 12a7 1C       		.byte	0x1c
 8221 12a8 0F       		.uleb128 0xf
 8222 12a9 B3130000 		.4byte	.LASF525
 8223 12ad 0E       		.byte	0xe
 8224 12ae 2F01     		.2byte	0x12f
 8225 12b0 EF000000 		.4byte	0xef
 8226 12b4 20       		.byte	0x20
 8227 12b5 0F       		.uleb128 0xf
 8228 12b6 68450000 		.4byte	.LASF526
 8229 12ba 0E       		.byte	0xe
 8230 12bb 3001     		.2byte	0x130
 8231 12bd EF000000 		.4byte	0xef
 8232 12c1 24       		.byte	0x24
 8233 12c2 0F       		.uleb128 0xf
 8234 12c3 06320000 		.4byte	.LASF527
 8235 12c7 0E       		.byte	0xe
 8236 12c8 3101     		.2byte	0x131
 8237 12ca EF000000 		.4byte	0xef
 8238 12ce 28       		.byte	0x28
 8239 12cf 0F       		.uleb128 0xf
 8240 12d0 FE440000 		.4byte	.LASF528
 8241 12d4 0E       		.byte	0xe
 8242 12d5 3201     		.2byte	0x132
 8243 12d7 EF000000 		.4byte	0xef
 8244 12db 2C       		.byte	0x2c
 8245 12dc 0F       		.uleb128 0xf
 8246 12dd F1230000 		.4byte	.LASF529
 8247 12e1 0E       		.byte	0xe
 8248 12e2 3301     		.2byte	0x133
 8249 12e4 EF000000 		.4byte	0xef
 8250 12e8 30       		.byte	0x30
ARM GAS  C:\Users\Helon\AppData\Local\Temp\ccys0XsA.s 			page 204


 8251 12e9 0F       		.uleb128 0xf
 8252 12ea 54060000 		.4byte	.LASF530
 8253 12ee 0E       		.byte	0xe
 8254 12ef 3401     		.2byte	0x134
 8255 12f1 EF000000 		.4byte	0xef
 8256 12f5 34       		.byte	0x34
 8257 12f6 0F       		.uleb128 0xf
 8258 12f7 8B1D0000 		.4byte	.LASF531
 8259 12fb 0E       		.byte	0xe
 8260 12fc 3501     		.2byte	0x135
 8261 12fe 3E080000 		.4byte	0x83e
 8262 1302 38       		.byte	0x38
 8263 1303 0F       		.uleb128 0xf
 8264 1304 932B0000 		.4byte	.LASF532
 8265 1308 0E       		.byte	0xe
 8266 1309 3601     		.2byte	0x136
 8267 130b EF000000 		.4byte	0xef
 8268 130f 3C       		.byte	0x3c
 8269 1310 0F       		.uleb128 0xf
 8270 1311 00000000 		.4byte	.LASF533
 8271 1315 0E       		.byte	0xe
 8272 1316 3701     		.2byte	0x137
 8273 1318 3E080000 		.4byte	0x83e
 8274 131c 40       		.byte	0x40
 8275 131d 0F       		.uleb128 0xf
 8276 131e 2F450000 		.4byte	.LASF534
 8277 1322 0E       		.byte	0xe
 8278 1323 3801     		.2byte	0x138
 8279 1325 EF000000 		.4byte	0xef
 8280 1329 44       		.byte	0x44
 8281 132a 0F       		.uleb128 0xf
 8282 132b 3B300000 		.4byte	.LASF535
 8283 132f 0E       		.byte	0xe
 8284 1330 3901     		.2byte	0x139
 8285 1332 EF000000 		.4byte	0xef
 8286 1336 48       		.byte	0x48
 8287 1337 0F       		.uleb128 0xf
 8288 1338 16150000 		.4byte	.LASF536
 8289 133c 0E       		.byte	0xe
 8290 133d 3A01     		.2byte	0x13a
 8291 133f EF000000 		.4byte	0xef
 8292 1343 4C       		.byte	0x4c
 8293 1344 0F       		.uleb128 0xf
 8294 1345 3B230000 		.4byte	.LASF537
 8295 1349 0E       		.byte	0xe
 8296 134a 3B01     		.2byte	0x13b
 8297 134c EF000000 		.4byte	0xef
 8298 1350 50       		.byte	0x50
 8299 1351 0F       		.uleb128 0xf
 8300 1352 F9350000 		.4byte	.LASF538
 8301 1356 0E       		.byte	0xe
 8302 1357 3C01     		.2byte	0x13c
 8303 1359 EF000000 		.4byte	0xef
 8304 135d 54       		.byte	0x54
 8305 135e 0F       		.uleb128 0xf
 8306 135f 08080000 		.4byte	.LASF539
 8307 1363 0E       		.byte	0xe
ARM GAS  C:\Users\Helon\AppData\Local\Temp\ccys0XsA.s 			page 205


 8308 1364 3D01     		.2byte	0x13d
 8309 1366 EF000000 		.4byte	0xef
 8310 136a 58       		.byte	0x58
 8311 136b 0F       		.uleb128 0xf
 8312 136c B2290000 		.4byte	.LASF540
 8313 1370 0E       		.byte	0xe
 8314 1371 3E01     		.2byte	0x13e
 8315 1373 EF000000 		.4byte	0xef
 8316 1377 5C       		.byte	0x5c
 8317 1378 0F       		.uleb128 0xf
 8318 1379 3A170000 		.4byte	.LASF541
 8319 137d 0E       		.byte	0xe
 8320 137e 3F01     		.2byte	0x13f
 8321 1380 EF000000 		.4byte	0xef
 8322 1384 60       		.byte	0x60
 8323 1385 0F       		.uleb128 0xf
 8324 1386 61100000 		.4byte	.LASF542
 8325 138a 0E       		.byte	0xe
 8326 138b 4001     		.2byte	0x140
 8327 138d EF000000 		.4byte	0xef
 8328 1391 64       		.byte	0x64
 8329 1392 0F       		.uleb128 0xf
 8330 1393 34000000 		.4byte	.LASF543
 8331 1397 0E       		.byte	0xe
 8332 1398 4101     		.2byte	0x141
 8333 139a D9000000 		.4byte	0xd9
 8334 139e 68       		.byte	0x68
 8335 139f 0F       		.uleb128 0xf
 8336 13a0 491F0000 		.4byte	.LASF544
 8337 13a4 0E       		.byte	0xe
 8338 13a5 4201     		.2byte	0x142
 8339 13a7 D9000000 		.4byte	0xd9
 8340 13ab 69       		.byte	0x69
 8341 13ac 0F       		.uleb128 0xf
 8342 13ad A2420000 		.4byte	.LASF545
 8343 13b1 0E       		.byte	0xe
 8344 13b2 4301     		.2byte	0x143
 8345 13b4 D9000000 		.4byte	0xd9
 8346 13b8 6A       		.byte	0x6a
 8347 13b9 0F       		.uleb128 0xf
 8348 13ba 0E440000 		.4byte	.LASF546
 8349 13be 0E       		.byte	0xe
 8350 13bf 4401     		.2byte	0x144
 8351 13c1 D9000000 		.4byte	0xd9
 8352 13c5 6B       		.byte	0x6b
 8353 13c6 0F       		.uleb128 0xf
 8354 13c7 E9110000 		.4byte	.LASF547
 8355 13cb 0E       		.byte	0xe
 8356 13cc 4501     		.2byte	0x145
 8357 13ce D9000000 		.4byte	0xd9
 8358 13d2 6C       		.byte	0x6c
 8359 13d3 00       		.byte	0
 8360 13d4 06       		.uleb128 0x6
 8361 13d5 FE1B0000 		.4byte	.LASF548
 8362 13d9 0E       		.byte	0xe
 8363 13da 4601     		.2byte	0x146
 8364 13dc 37120000 		.4byte	0x1237
ARM GAS  C:\Users\Helon\AppData\Local\Temp\ccys0XsA.s 			page 206


 8365 13e0 0B       		.uleb128 0xb
 8366 13e1 01       		.byte	0x1
 8367 13e2 0F       		.byte	0xf
 8368 13e3 7E       		.byte	0x7e
 8369 13e4 84140000 		.4byte	0x1484
 8370 13e8 0C       		.uleb128 0xc
 8371 13e9 4F350000 		.4byte	.LASF549
 8372 13ed 00       		.sleb128 0
 8373 13ee 0C       		.uleb128 0xc
 8374 13ef 02470000 		.4byte	.LASF550
 8375 13f3 01       		.sleb128 1
 8376 13f4 0C       		.uleb128 0xc
 8377 13f5 F33B0000 		.4byte	.LASF551
 8378 13f9 02       		.sleb128 2
 8379 13fa 0C       		.uleb128 0xc
 8380 13fb 35170000 		.4byte	.LASF552
 8381 13ff 03       		.sleb128 3
 8382 1400 0C       		.uleb128 0xc
 8383 1401 872A0000 		.4byte	.LASF553
 8384 1405 04       		.sleb128 4
 8385 1406 0C       		.uleb128 0xc
 8386 1407 A7090000 		.4byte	.LASF554
 8387 140b 05       		.sleb128 5
 8388 140c 0C       		.uleb128 0xc
 8389 140d F6170000 		.4byte	.LASF555
 8390 1411 06       		.sleb128 6
 8391 1412 17       		.uleb128 0x17
 8392 1413 54585000 		.ascii	"TXP\000"
 8393 1417 07       		.sleb128 7
 8394 1418 0C       		.uleb128 0xc
 8395 1419 09000000 		.4byte	.LASF556
 8396 141d 08       		.sleb128 8
 8397 141e 0C       		.uleb128 0xc
 8398 141f 26090000 		.4byte	.LASF557
 8399 1423 09       		.sleb128 9
 8400 1424 0C       		.uleb128 0xc
 8401 1425 E22A0000 		.4byte	.LASF558
 8402 1429 0A       		.sleb128 10
 8403 142a 0C       		.uleb128 0xc
 8404 142b D4420000 		.4byte	.LASF559
 8405 142f 0B       		.sleb128 11
 8406 1430 0C       		.uleb128 0xc
 8407 1431 B11B0000 		.4byte	.LASF560
 8408 1435 0C       		.sleb128 12
 8409 1436 0C       		.uleb128 0xc
 8410 1437 283B0000 		.4byte	.LASF561
 8411 143b 0D       		.sleb128 13
 8412 143c 0C       		.uleb128 0xc
 8413 143d 0F190000 		.4byte	.LASF562
 8414 1441 0E       		.sleb128 14
 8415 1442 0C       		.uleb128 0xc
 8416 1443 D31F0000 		.4byte	.LASF563
 8417 1447 0F       		.sleb128 15
 8418 1448 17       		.uleb128 0x17
 8419 1449 545800   		.ascii	"TX\000"
 8420 144c 10       		.sleb128 16
 8421 144d 0C       		.uleb128 0xc
ARM GAS  C:\Users\Helon\AppData\Local\Temp\ccys0XsA.s 			page 207


 8422 144e E3250000 		.4byte	.LASF564
 8423 1452 11       		.sleb128 17
 8424 1453 0C       		.uleb128 0xc
 8425 1454 90380000 		.4byte	.LASF565
 8426 1458 12       		.sleb128 18
 8427 1459 17       		.uleb128 0x17
 8428 145a 5F415400 		.ascii	"_AT\000"
 8429 145e 13       		.sleb128 19
 8430 145f 0C       		.uleb128 0xc
 8431 1460 4A170000 		.4byte	.LASF566
 8432 1464 14       		.sleb128 20
 8433 1465 0C       		.uleb128 0xc
 8434 1466 EF310000 		.4byte	.LASF567
 8435 146a 15       		.sleb128 21
 8436 146b 0C       		.uleb128 0xc
 8437 146c 79050000 		.4byte	.LASF568
 8438 1470 16       		.sleb128 22
 8439 1471 0C       		.uleb128 0xc
 8440 1472 D9000000 		.4byte	.LASF569
 8441 1476 17       		.sleb128 23
 8442 1477 0C       		.uleb128 0xc
 8443 1478 573A0000 		.4byte	.LASF570
 8444 147c 18       		.sleb128 24
 8445 147d 0C       		.uleb128 0xc
 8446 147e 452F0000 		.4byte	.LASF571
 8447 1482 19       		.sleb128 25
 8448 1483 00       		.byte	0
 8449 1484 13       		.uleb128 0x13
 8450 1485 25       		.byte	0x25
 8451 1486 0F       		.byte	0xf
 8452 1487 B8       		.byte	0xb8
 8453 1488 BD140000 		.4byte	0x14bd
 8454 148c 14       		.uleb128 0x14
 8455 148d 08470000 		.4byte	.LASF572
 8456 1491 0F       		.byte	0xf
 8457 1492 BB       		.byte	0xbb
 8458 1493 BD140000 		.4byte	0x14bd
 8459 1497 00       		.byte	0
 8460 1498 14       		.uleb128 0x14
 8461 1499 FB170000 		.4byte	.LASF573
 8462 149d 0F       		.byte	0xf
 8463 149e BC       		.byte	0xbc
 8464 149f BD140000 		.4byte	0x14bd
 8465 14a3 04       		.byte	0x4
 8466 14a4 14       		.uleb128 0x14
 8467 14a5 391C0000 		.4byte	.LASF574
 8468 14a9 0F       		.byte	0xf
 8469 14aa BE       		.byte	0xbe
 8470 14ab AD000000 		.4byte	0xad
 8471 14af 08       		.byte	0x8
 8472 14b0 14       		.uleb128 0x14
 8473 14b1 EC2B0000 		.4byte	.LASF575
 8474 14b5 0F       		.byte	0xf
 8475 14b6 C0       		.byte	0xc0
 8476 14b7 7F060000 		.4byte	0x67f
 8477 14bb 09       		.byte	0x9
 8478 14bc 00       		.byte	0
ARM GAS  C:\Users\Helon\AppData\Local\Temp\ccys0XsA.s 			page 208


 8479 14bd 10       		.uleb128 0x10
 8480 14be AD000000 		.4byte	0xad
 8481 14c2 CD140000 		.4byte	0x14cd
 8482 14c6 11       		.uleb128 0x11
 8483 14c7 59010000 		.4byte	0x159
 8484 14cb 03       		.byte	0x3
 8485 14cc 00       		.byte	0
 8486 14cd 02       		.uleb128 0x2
 8487 14ce 2B180000 		.4byte	.LASF576
 8488 14d2 0F       		.byte	0xf
 8489 14d3 C1       		.byte	0xc1
 8490 14d4 84140000 		.4byte	0x1484
 8491 14d8 13       		.uleb128 0x13
 8492 14d9 1E       		.byte	0x1e
 8493 14da 10       		.byte	0x10
 8494 14db 25       		.byte	0x25
 8495 14dc 1D150000 		.4byte	0x151d
 8496 14e0 14       		.uleb128 0x14
 8497 14e1 77420000 		.4byte	.LASF577
 8498 14e5 10       		.byte	0x10
 8499 14e6 27       		.byte	0x27
 8500 14e7 0F050000 		.4byte	0x50f
 8501 14eb 00       		.byte	0
 8502 14ec 18       		.uleb128 0x18
 8503 14ed 69647800 		.ascii	"idx\000"
 8504 14f1 10       		.byte	0x10
 8505 14f2 28       		.byte	0x28
 8506 14f3 AD000000 		.4byte	0xad
 8507 14f7 07       		.byte	0x7
 8508 14f8 14       		.uleb128 0x14
 8509 14f9 3F450000 		.4byte	.LASF217
 8510 14fd 10       		.byte	0x10
 8511 14fe 29       		.byte	0x29
 8512 14ff A2000000 		.4byte	0xa2
 8513 1503 08       		.byte	0x8
 8514 1504 14       		.uleb128 0x14
 8515 1505 7B090000 		.4byte	.LASF578
 8516 1509 10       		.byte	0x10
 8517 150a 2A       		.byte	0x2a
 8518 150b 1D150000 		.4byte	0x151d
 8519 150f 09       		.byte	0x9
 8520 1510 14       		.uleb128 0x14
 8521 1511 4B060000 		.4byte	.LASF579
 8522 1515 10       		.byte	0x10
 8523 1516 2C       		.byte	0x2c
 8524 1517 AD000000 		.4byte	0xad
 8525 151b 1D       		.byte	0x1d
 8526 151c 00       		.byte	0
 8527 151d 10       		.uleb128 0x10
 8528 151e A2000000 		.4byte	0xa2
 8529 1522 2D150000 		.4byte	0x152d
 8530 1526 11       		.uleb128 0x11
 8531 1527 59010000 		.4byte	0x159
 8532 152b 13       		.byte	0x13
 8533 152c 00       		.byte	0
 8534 152d 02       		.uleb128 0x2
 8535 152e 2F220000 		.4byte	.LASF580
ARM GAS  C:\Users\Helon\AppData\Local\Temp\ccys0XsA.s 			page 209


 8536 1532 10       		.byte	0x10
 8537 1533 2D       		.byte	0x2d
 8538 1534 D8140000 		.4byte	0x14d8
 8539 1538 19       		.uleb128 0x19
 8540 1539 FC1A0000 		.4byte	.LASF587
 8541 153d 01       		.byte	0x1
 8542 153e 60       		.byte	0x60
 8543 153f 00000000 		.4byte	.LFB35
 8544 1543 E8020000 		.4byte	.LFE35-.LFB35
 8545 1547 01       		.uleb128 0x1
 8546 1548 9C       		.byte	0x9c
 8547 1549 0E180000 		.4byte	0x180e
 8548 154d 1A       		.uleb128 0x1a
 8549 154e 22410000 		.4byte	.LASF581
 8550 1552 01       		.byte	0x1
 8551 1553 60       		.byte	0x60
 8552 1554 EF000000 		.4byte	0xef
 8553 1558 00000000 		.4byte	.LLST0
 8554 155c 1A       		.uleb128 0x1a
 8555 155d 83020000 		.4byte	.LASF582
 8556 1561 01       		.byte	0x1
 8557 1562 60       		.byte	0x60
 8558 1563 60010000 		.4byte	0x160
 8559 1567 21000000 		.4byte	.LLST1
 8560 156b 1B       		.uleb128 0x1b
 8561 156c 2E350000 		.4byte	.LASF583
 8562 1570 01       		.byte	0x1
 8563 1571 62       		.byte	0x62
 8564 1572 44080000 		.4byte	0x844
 8565 1576 02       		.uleb128 0x2
 8566 1577 91       		.byte	0x91
 8567 1578 5C       		.sleb128 -36
 8568 1579 1B       		.uleb128 0x1b
 8569 157a DA190000 		.4byte	.LASF584
 8570 157e 01       		.byte	0x1
 8571 157f 64       		.byte	0x64
 8572 1580 D50A0000 		.4byte	0xad5
 8573 1584 02       		.uleb128 0x2
 8574 1585 91       		.byte	0x91
 8575 1586 4C       		.sleb128 -52
 8576 1587 1C       		.uleb128 0x1c
 8577 1588 6900     		.ascii	"i\000"
 8578 158a 01       		.byte	0x1
 8579 158b 65       		.byte	0x65
 8580 158c AD000000 		.4byte	0xad
 8581 1590 16020000 		.4byte	.LLST2
 8582 1594 1D       		.uleb128 0x1d
 8583 1595 6F340000 		.4byte	.LASF585
 8584 1599 01       		.byte	0x1
 8585 159a 66       		.byte	0x66
 8586 159b 0E180000 		.4byte	0x180e
 8587 159f A7020000 		.4byte	.LLST3
 8588 15a3 1B       		.uleb128 0x1b
 8589 15a4 62290000 		.4byte	.LASF586
 8590 15a8 01       		.byte	0x1
 8591 15a9 67       		.byte	0x67
 8592 15aa 190A0000 		.4byte	0xa19
ARM GAS  C:\Users\Helon\AppData\Local\Temp\ccys0XsA.s 			page 210


 8593 15ae 03       		.uleb128 0x3
 8594 15af 91       		.byte	0x91
 8595 15b0 BC7F     		.sleb128 -68
 8596 15b2 1E       		.uleb128 0x1e
 8597 15b3 1A000000 		.4byte	.LVL3
 8598 15b7 B5380000 		.4byte	0x38b5
 8599 15bb C9150000 		.4byte	0x15c9
 8600 15bf 1F       		.uleb128 0x1f
 8601 15c0 01       		.uleb128 0x1
 8602 15c1 50       		.byte	0x50
 8603 15c2 05       		.uleb128 0x5
 8604 15c3 03       		.byte	0x3
 8605 15c4 00000000 		.4byte	.LC1
 8606 15c8 00       		.byte	0
 8607 15c9 20       		.uleb128 0x20
 8608 15ca 1E000000 		.4byte	.LVL4
 8609 15ce CE380000 		.4byte	0x38ce
 8610 15d2 1E       		.uleb128 0x1e
 8611 15d3 44000000 		.4byte	.LVL8
 8612 15d7 DA380000 		.4byte	0x38da
 8613 15db E6150000 		.4byte	0x15e6
 8614 15df 1F       		.uleb128 0x1f
 8615 15e0 01       		.uleb128 0x1
 8616 15e1 50       		.byte	0x50
 8617 15e2 02       		.uleb128 0x2
 8618 15e3 91       		.byte	0x91
 8619 15e4 5C       		.sleb128 -36
 8620 15e5 00       		.byte	0
 8621 15e6 1E       		.uleb128 0x1e
 8622 15e7 5C000000 		.4byte	.LVL10
 8623 15eb B5380000 		.4byte	0x38b5
 8624 15ef FD150000 		.4byte	0x15fd
 8625 15f3 1F       		.uleb128 0x1f
 8626 15f4 01       		.uleb128 0x1
 8627 15f5 50       		.byte	0x50
 8628 15f6 05       		.uleb128 0x5
 8629 15f7 03       		.byte	0x3
 8630 15f8 10000000 		.4byte	.LC4
 8631 15fc 00       		.byte	0
 8632 15fd 20       		.uleb128 0x20
 8633 15fe 6A000000 		.4byte	.LVL12
 8634 1602 F1380000 		.4byte	0x38f1
 8635 1606 1E       		.uleb128 0x1e
 8636 1607 70000000 		.4byte	.LVL13
 8637 160b B5380000 		.4byte	0x38b5
 8638 160f 1D160000 		.4byte	0x161d
 8639 1613 1F       		.uleb128 0x1f
 8640 1614 01       		.uleb128 0x1
 8641 1615 50       		.byte	0x50
 8642 1616 05       		.uleb128 0x5
 8643 1617 03       		.byte	0x3
 8644 1618 1C000000 		.4byte	.LC6
 8645 161c 00       		.byte	0
 8646 161d 1E       		.uleb128 0x1e
 8647 161e 7A000000 		.4byte	.LVL15
 8648 1622 F9380000 		.4byte	0x38f9
 8649 1626 39160000 		.4byte	0x1639
ARM GAS  C:\Users\Helon\AppData\Local\Temp\ccys0XsA.s 			page 211


 8650 162a 1F       		.uleb128 0x1f
 8651 162b 01       		.uleb128 0x1
 8652 162c 52       		.byte	0x52
 8653 162d 01       		.uleb128 0x1
 8654 162e 38       		.byte	0x38
 8655 162f 1F       		.uleb128 0x1f
 8656 1630 01       		.uleb128 0x1
 8657 1631 50       		.byte	0x50
 8658 1632 05       		.uleb128 0x5
 8659 1633 03       		.byte	0x3
 8660 1634 00000000 		.4byte	ConnParam
 8661 1638 00       		.byte	0
 8662 1639 1E       		.uleb128 0x1e
 8663 163a 88000000 		.4byte	.LVL16
 8664 163e B5380000 		.4byte	0x38b5
 8665 1642 50160000 		.4byte	0x1650
 8666 1646 1F       		.uleb128 0x1f
 8667 1647 01       		.uleb128 0x1
 8668 1648 50       		.byte	0x50
 8669 1649 05       		.uleb128 0x5
 8670 164a 03       		.byte	0x3
 8671 164b 28000000 		.4byte	.LC9
 8672 164f 00       		.byte	0
 8673 1650 1E       		.uleb128 0x1e
 8674 1651 92000000 		.4byte	.LVL17
 8675 1655 1D390000 		.4byte	0x391d
 8676 1659 67160000 		.4byte	0x1667
 8677 165d 1F       		.uleb128 0x1f
 8678 165e 01       		.uleb128 0x1
 8679 165f 51       		.byte	0x51
 8680 1660 05       		.uleb128 0x5
 8681 1661 03       		.byte	0x3
 8682 1662 00000000 		.4byte	.LANCHOR1
 8683 1666 00       		.byte	0
 8684 1667 1E       		.uleb128 0x1e
 8685 1668 9E000000 		.4byte	.LVL18
 8686 166c 3E390000 		.4byte	0x393e
 8687 1670 7E160000 		.4byte	0x167e
 8688 1674 1F       		.uleb128 0x1f
 8689 1675 01       		.uleb128 0x1
 8690 1676 50       		.byte	0x50
 8691 1677 05       		.uleb128 0x5
 8692 1678 03       		.byte	0x3
 8693 1679 38000000 		.4byte	.LC13
 8694 167d 00       		.byte	0
 8695 167e 1E       		.uleb128 0x1e
 8696 167f A8000000 		.4byte	.LVL20
 8697 1683 54390000 		.4byte	0x3954
 8698 1687 95160000 		.4byte	0x1695
 8699 168b 1F       		.uleb128 0x1f
 8700 168c 01       		.uleb128 0x1
 8701 168d 51       		.byte	0x51
 8702 168e 05       		.uleb128 0x5
 8703 168f 03       		.byte	0x3
 8704 1690 00000000 		.4byte	.LANCHOR1
 8705 1694 00       		.byte	0
 8706 1695 1E       		.uleb128 0x1e
ARM GAS  C:\Users\Helon\AppData\Local\Temp\ccys0XsA.s 			page 212


 8707 1696 B6000000 		.4byte	.LVL21
 8708 169a 6F390000 		.4byte	0x396f
 8709 169e A9160000 		.4byte	0x16a9
 8710 16a2 1F       		.uleb128 0x1f
 8711 16a3 01       		.uleb128 0x1
 8712 16a4 51       		.byte	0x51
 8713 16a5 02       		.uleb128 0x2
 8714 16a6 08       		.byte	0x8
 8715 16a7 33       		.byte	0x33
 8716 16a8 00       		.byte	0
 8717 16a9 1E       		.uleb128 0x1e
 8718 16aa C0000000 		.4byte	.LVL23
 8719 16ae F9380000 		.4byte	0x38f9
 8720 16b2 C5160000 		.4byte	0x16c5
 8721 16b6 1F       		.uleb128 0x1f
 8722 16b7 01       		.uleb128 0x1
 8723 16b8 52       		.byte	0x52
 8724 16b9 01       		.uleb128 0x1
 8725 16ba 38       		.byte	0x38
 8726 16bb 1F       		.uleb128 0x1f
 8727 16bc 01       		.uleb128 0x1
 8728 16bd 50       		.byte	0x50
 8729 16be 05       		.uleb128 0x5
 8730 16bf 03       		.byte	0x3
 8731 16c0 00000000 		.4byte	ConnParam
 8732 16c4 00       		.byte	0
 8733 16c5 1E       		.uleb128 0x1e
 8734 16c6 C6000000 		.4byte	.LVL24
 8735 16ca B5380000 		.4byte	0x38b5
 8736 16ce DC160000 		.4byte	0x16dc
 8737 16d2 1F       		.uleb128 0x1f
 8738 16d3 01       		.uleb128 0x1
 8739 16d4 50       		.byte	0x50
 8740 16d5 05       		.uleb128 0x5
 8741 16d6 03       		.byte	0x3
 8742 16d7 4C000000 		.4byte	.LC15
 8743 16db 00       		.byte	0
 8744 16dc 1E       		.uleb128 0x1e
 8745 16dd D4000000 		.4byte	.LVL27
 8746 16e1 3E390000 		.4byte	0x393e
 8747 16e5 F3160000 		.4byte	0x16f3
 8748 16e9 1F       		.uleb128 0x1f
 8749 16ea 01       		.uleb128 0x1
 8750 16eb 50       		.byte	0x50
 8751 16ec 05       		.uleb128 0x5
 8752 16ed 03       		.byte	0x3
 8753 16ee 60000000 		.4byte	.LC17
 8754 16f2 00       		.byte	0
 8755 16f3 1E       		.uleb128 0x1e
 8756 16f4 E6000000 		.4byte	.LVL30
 8757 16f8 8A390000 		.4byte	0x398a
 8758 16fc 07170000 		.4byte	0x1707
 8759 1700 1F       		.uleb128 0x1f
 8760 1701 01       		.uleb128 0x1
 8761 1702 51       		.byte	0x51
 8762 1703 02       		.uleb128 0x2
 8763 1704 08       		.byte	0x8
ARM GAS  C:\Users\Helon\AppData\Local\Temp\ccys0XsA.s 			page 213


 8764 1705 33       		.byte	0x33
 8765 1706 00       		.byte	0
 8766 1707 1E       		.uleb128 0x1e
 8767 1708 02010000 		.4byte	.LVL31
 8768 170c 3E390000 		.4byte	0x393e
 8769 1710 1E170000 		.4byte	0x171e
 8770 1714 1F       		.uleb128 0x1f
 8771 1715 01       		.uleb128 0x1
 8772 1716 50       		.byte	0x50
 8773 1717 05       		.uleb128 0x5
 8774 1718 03       		.byte	0x3
 8775 1719 60000000 		.4byte	.LC17
 8776 171d 00       		.byte	0
 8777 171e 1E       		.uleb128 0x1e
 8778 171f 24010000 		.4byte	.LVL34
 8779 1723 3E390000 		.4byte	0x393e
 8780 1727 35170000 		.4byte	0x1735
 8781 172b 1F       		.uleb128 0x1f
 8782 172c 01       		.uleb128 0x1
 8783 172d 50       		.byte	0x50
 8784 172e 05       		.uleb128 0x5
 8785 172f 03       		.byte	0x3
 8786 1730 6C000000 		.4byte	.LC20
 8787 1734 00       		.byte	0
 8788 1735 1E       		.uleb128 0x1e
 8789 1736 32010000 		.4byte	.LVL35
 8790 173a 3E390000 		.4byte	0x393e
 8791 173e 4C170000 		.4byte	0x174c
 8792 1742 1F       		.uleb128 0x1f
 8793 1743 01       		.uleb128 0x1
 8794 1744 50       		.byte	0x50
 8795 1745 05       		.uleb128 0x5
 8796 1746 03       		.byte	0x3
 8797 1747 84000000 		.4byte	.LC22
 8798 174b 00       		.byte	0
 8799 174c 20       		.uleb128 0x20
 8800 174d 36010000 		.4byte	.LVL36
 8801 1751 CE380000 		.4byte	0x38ce
 8802 1755 20       		.uleb128 0x20
 8803 1756 80010000 		.4byte	.LVL41
 8804 175a A5390000 		.4byte	0x39a5
 8805 175e 1E       		.uleb128 0x1e
 8806 175f A6010000 		.4byte	.LVL45
 8807 1763 B5380000 		.4byte	0x38b5
 8808 1767 75170000 		.4byte	0x1775
 8809 176b 1F       		.uleb128 0x1f
 8810 176c 01       		.uleb128 0x1
 8811 176d 50       		.byte	0x50
 8812 176e 05       		.uleb128 0x5
 8813 176f 03       		.byte	0x3
 8814 1770 A0000000 		.4byte	.LC24
 8815 1774 00       		.byte	0
 8816 1775 1E       		.uleb128 0x1e
 8817 1776 B4010000 		.4byte	.LVL46
 8818 177a B5380000 		.4byte	0x38b5
 8819 177e 8C170000 		.4byte	0x178c
 8820 1782 1F       		.uleb128 0x1f
ARM GAS  C:\Users\Helon\AppData\Local\Temp\ccys0XsA.s 			page 214


 8821 1783 01       		.uleb128 0x1
 8822 1784 50       		.byte	0x50
 8823 1785 05       		.uleb128 0x5
 8824 1786 03       		.byte	0x3
 8825 1787 B8000000 		.4byte	.LC26
 8826 178b 00       		.byte	0
 8827 178c 20       		.uleb128 0x20
 8828 178d F2010000 		.4byte	.LVL53
 8829 1791 A5390000 		.4byte	0x39a5
 8830 1795 1E       		.uleb128 0x1e
 8831 1796 28020000 		.4byte	.LVL62
 8832 179a 3E390000 		.4byte	0x393e
 8833 179e AC170000 		.4byte	0x17ac
 8834 17a2 1F       		.uleb128 0x1f
 8835 17a3 01       		.uleb128 0x1
 8836 17a4 50       		.byte	0x50
 8837 17a5 05       		.uleb128 0x5
 8838 17a6 03       		.byte	0x3
 8839 17a7 D4000000 		.4byte	.LC28
 8840 17ab 00       		.byte	0
 8841 17ac 20       		.uleb128 0x20
 8842 17ad 4A020000 		.4byte	.LVL67
 8843 17b1 B7390000 		.4byte	0x39b7
 8844 17b5 1E       		.uleb128 0x1e
 8845 17b6 54020000 		.4byte	.LVL70
 8846 17ba 3E390000 		.4byte	0x393e
 8847 17be CC170000 		.4byte	0x17cc
 8848 17c2 1F       		.uleb128 0x1f
 8849 17c3 01       		.uleb128 0x1
 8850 17c4 50       		.byte	0x50
 8851 17c5 05       		.uleb128 0x5
 8852 17c6 03       		.byte	0x3
 8853 17c7 F8000000 		.4byte	.LC31
 8854 17cb 00       		.byte	0
 8855 17cc 1E       		.uleb128 0x1e
 8856 17cd 62020000 		.4byte	.LVL72
 8857 17d1 B5380000 		.4byte	0x38b5
 8858 17d5 E3170000 		.4byte	0x17e3
 8859 17d9 1F       		.uleb128 0x1f
 8860 17da 01       		.uleb128 0x1
 8861 17db 50       		.byte	0x50
 8862 17dc 05       		.uleb128 0x5
 8863 17dd 03       		.byte	0x3
 8864 17de 0C010000 		.4byte	.LC33
 8865 17e2 00       		.byte	0
 8866 17e3 1E       		.uleb128 0x1e
 8867 17e4 6A020000 		.4byte	.LVL74
 8868 17e8 B5380000 		.4byte	0x38b5
 8869 17ec FA170000 		.4byte	0x17fa
 8870 17f0 1F       		.uleb128 0x1f
 8871 17f1 01       		.uleb128 0x1
 8872 17f2 50       		.byte	0x50
 8873 17f3 05       		.uleb128 0x5
 8874 17f4 03       		.byte	0x3
 8875 17f5 24010000 		.4byte	.LC35
 8876 17f9 00       		.byte	0
 8877 17fa 21       		.uleb128 0x21
ARM GAS  C:\Users\Helon\AppData\Local\Temp\ccys0XsA.s 			page 215


 8878 17fb 7A020000 		.4byte	.LVL77
 8879 17ff 3E390000 		.4byte	0x393e
 8880 1803 1F       		.uleb128 0x1f
 8881 1804 01       		.uleb128 0x1
 8882 1805 50       		.byte	0x50
 8883 1806 05       		.uleb128 0x5
 8884 1807 03       		.byte	0x3
 8885 1808 30010000 		.4byte	.LC37
 8886 180c 00       		.byte	0
 8887 180d 00       		.byte	0
 8888 180e 07       		.uleb128 0x7
 8889 180f 04       		.byte	0x4
 8890 1810 710A0000 		.4byte	0xa71
 8891 1814 22       		.uleb128 0x22
 8892 1815 C11A0000 		.4byte	.LASF588
 8893 1819 01       		.byte	0x1
 8894 181a 4506     		.2byte	0x645
 8895 181c 00000000 		.4byte	.LFB45
 8896 1820 3C000000 		.4byte	.LFE45-.LFB45
 8897 1824 01       		.uleb128 0x1
 8898 1825 9C       		.byte	0x9c
 8899 1826 6C180000 		.4byte	0x186c
 8900 182a 23       		.uleb128 0x23
 8901 182b 801C0000 		.4byte	.LASF589
 8902 182f 01       		.byte	0x1
 8903 1830 4906     		.2byte	0x649
 8904 1832 EF000000 		.4byte	0xef
 8905 1836 05       		.uleb128 0x5
 8906 1837 03       		.byte	0x3
 8907 1838 14000000 		.4byte	timercount.7917
 8908 183c 1E       		.uleb128 0x1e
 8909 183d 08000000 		.4byte	.LVL79
 8910 1841 D8390000 		.4byte	0x39d8
 8911 1845 4F180000 		.4byte	0x184f
 8912 1849 1F       		.uleb128 0x1f
 8913 184a 01       		.uleb128 0x1
 8914 184b 50       		.byte	0x50
 8915 184c 01       		.uleb128 0x1
 8916 184d 31       		.byte	0x31
 8917 184e 00       		.byte	0
 8918 184f 20       		.uleb128 0x20
 8919 1850 24000000 		.4byte	.LVL80
 8920 1854 EA390000 		.4byte	0x39ea
 8921 1858 21       		.uleb128 0x21
 8922 1859 2C000000 		.4byte	.LVL81
 8923 185d B5380000 		.4byte	0x38b5
 8924 1861 1F       		.uleb128 0x1f
 8925 1862 01       		.uleb128 0x1
 8926 1863 50       		.byte	0x50
 8927 1864 05       		.uleb128 0x5
 8928 1865 03       		.byte	0x3
 8929 1866 3C010000 		.4byte	.LC41
 8930 186a 00       		.byte	0
 8931 186b 00       		.byte	0
 8932 186c 22       		.uleb128 0x22
 8933 186d 17020000 		.4byte	.LASF590
 8934 1871 01       		.byte	0x1
ARM GAS  C:\Users\Helon\AppData\Local\Temp\ccys0XsA.s 			page 216


 8935 1872 B801     		.2byte	0x1b8
 8936 1874 00000000 		.4byte	.LFB36
 8937 1878 80000000 		.4byte	.LFE36-.LFB36
 8938 187c 01       		.uleb128 0x1
 8939 187d 9C       		.byte	0x9c
 8940 187e 40190000 		.4byte	0x1940
 8941 1882 24       		.uleb128 0x24
 8942 1883 AB210000 		.4byte	.LASF591
 8943 1887 01       		.byte	0x1
 8944 1888 BB01     		.2byte	0x1bb
 8945 188a E4030000 		.4byte	0x3e4
 8946 188e F1020000 		.4byte	.LLST4
 8947 1892 24       		.uleb128 0x24
 8948 1893 AC170000 		.4byte	.LASF592
 8949 1897 01       		.byte	0x1
 8950 1898 BC01     		.2byte	0x1bc
 8951 189a 2B040000 		.4byte	0x42b
 8952 189e 0F030000 		.4byte	.LLST5
 8953 18a2 1E       		.uleb128 0x1e
 8954 18a3 08000000 		.4byte	.LVL82
 8955 18a7 F2390000 		.4byte	0x39f2
 8956 18ab B5180000 		.4byte	0x18b5
 8957 18af 1F       		.uleb128 0x1f
 8958 18b0 01       		.uleb128 0x1
 8959 18b1 50       		.byte	0x50
 8960 18b2 01       		.uleb128 0x1
 8961 18b3 33       		.byte	0x33
 8962 18b4 00       		.byte	0
 8963 18b5 20       		.uleb128 0x20
 8964 18b6 10000000 		.4byte	.LVL84
 8965 18ba 083A0000 		.4byte	0x3a08
 8966 18be 1E       		.uleb128 0x1e
 8967 18bf 22000000 		.4byte	.LVL86
 8968 18c3 143A0000 		.4byte	0x3a14
 8969 18c7 D1180000 		.4byte	0x18d1
 8970 18cb 1F       		.uleb128 0x1f
 8971 18cc 01       		.uleb128 0x1
 8972 18cd 50       		.byte	0x50
 8973 18ce 01       		.uleb128 0x1
 8974 18cf 30       		.byte	0x30
 8975 18d0 00       		.byte	0
 8976 18d1 20       		.uleb128 0x20
 8977 18d2 26000000 		.4byte	.LVL87
 8978 18d6 CE380000 		.4byte	0x38ce
 8979 18da 20       		.uleb128 0x20
 8980 18db 3E000000 		.4byte	.LVL88
 8981 18df 253A0000 		.4byte	0x3a25
 8982 18e3 20       		.uleb128 0x20
 8983 18e4 42000000 		.4byte	.LVL89
 8984 18e8 2C3A0000 		.4byte	0x3a2c
 8985 18ec 20       		.uleb128 0x20
 8986 18ed 46000000 		.4byte	.LVL90
 8987 18f1 333A0000 		.4byte	0x3a33
 8988 18f5 1E       		.uleb128 0x1e
 8989 18f6 4C000000 		.4byte	.LVL91
 8990 18fa 3A3A0000 		.4byte	0x3a3a
 8991 18fe 08190000 		.4byte	0x1908
ARM GAS  C:\Users\Helon\AppData\Local\Temp\ccys0XsA.s 			page 217


 8992 1902 1F       		.uleb128 0x1f
 8993 1903 01       		.uleb128 0x1
 8994 1904 50       		.byte	0x50
 8995 1905 01       		.uleb128 0x1
 8996 1906 35       		.byte	0x35
 8997 1907 00       		.byte	0
 8998 1908 20       		.uleb128 0x20
 8999 1909 50000000 		.4byte	.LVL92
 9000 190d 4B3A0000 		.4byte	0x3a4b
 9001 1911 20       		.uleb128 0x20
 9002 1912 54000000 		.4byte	.LVL93
 9003 1916 533A0000 		.4byte	0x3a53
 9004 191a 20       		.uleb128 0x20
 9005 191b 58000000 		.4byte	.LVL94
 9006 191f 5A3A0000 		.4byte	0x3a5a
 9007 1923 1E       		.uleb128 0x1e
 9008 1924 64000000 		.4byte	.LVL95
 9009 1928 143A0000 		.4byte	0x3a14
 9010 192c 36190000 		.4byte	0x1936
 9011 1930 1F       		.uleb128 0x1f
 9012 1931 01       		.uleb128 0x1
 9013 1932 50       		.byte	0x50
 9014 1933 01       		.uleb128 0x1
 9015 1934 31       		.byte	0x31
 9016 1935 00       		.byte	0
 9017 1936 20       		.uleb128 0x20
 9018 1937 72000000 		.4byte	.LVL97
 9019 193b 653A0000 		.4byte	0x3a65
 9020 193f 00       		.byte	0
 9021 1940 25       		.uleb128 0x25
 9022 1941 531F0000 		.4byte	.LASF593
 9023 1945 01       		.byte	0x1
 9024 1946 F901     		.2byte	0x1f9
 9025 1948 00000000 		.4byte	.LFB37
 9026 194c 02000000 		.4byte	.LFE37-.LFB37
 9027 1950 01       		.uleb128 0x1
 9028 1951 9C       		.byte	0x9c
 9029 1952 25       		.uleb128 0x25
 9030 1953 1C3B0000 		.4byte	.LASF594
 9031 1957 01       		.byte	0x1
 9032 1958 1102     		.2byte	0x211
 9033 195a 00000000 		.4byte	.LFB38
 9034 195e 24000000 		.4byte	.LFE38-.LFB38
 9035 1962 01       		.uleb128 0x1
 9036 1963 9C       		.byte	0x9c
 9037 1964 25       		.uleb128 0x25
 9038 1965 93420000 		.4byte	.LASF595
 9039 1969 01       		.byte	0x1
 9040 196a 5E02     		.2byte	0x25e
 9041 196c 00000000 		.4byte	.LFB40
 9042 1970 02000000 		.4byte	.LFE40-.LFB40
 9043 1974 01       		.uleb128 0x1
 9044 1975 9C       		.byte	0x9c
 9045 1976 22       		.uleb128 0x22
 9046 1977 033A0000 		.4byte	.LASF596
 9047 197b 01       		.byte	0x1
 9048 197c 8502     		.2byte	0x285
ARM GAS  C:\Users\Helon\AppData\Local\Temp\ccys0XsA.s 			page 218


 9049 197e 00000000 		.4byte	.LFB41
 9050 1982 02000000 		.4byte	.LFE41-.LFB41
 9051 1986 01       		.uleb128 0x1
 9052 1987 9C       		.byte	0x9c
 9053 1988 9B190000 		.4byte	0x199b
 9054 198c 26       		.uleb128 0x26
 9055 198d 43330000 		.4byte	.LASF597
 9056 1991 01       		.byte	0x1
 9057 1992 8502     		.2byte	0x285
 9058 1994 CE000000 		.4byte	0xce
 9059 1998 01       		.uleb128 0x1
 9060 1999 50       		.byte	0x50
 9061 199a 00       		.byte	0
 9062 199b 22       		.uleb128 0x22
 9063 199c 67200000 		.4byte	.LASF598
 9064 19a0 01       		.byte	0x1
 9065 19a1 9C02     		.2byte	0x29c
 9066 19a3 00000000 		.4byte	.LFB42
 9067 19a7 1C000000 		.4byte	.LFE42-.LFB42
 9068 19ab 01       		.uleb128 0x1
 9069 19ac 9C       		.byte	0x9c
 9070 19ad FA190000 		.4byte	0x19fa
 9071 19b1 1E       		.uleb128 0x1e
 9072 19b2 08000000 		.4byte	.LVL100
 9073 19b6 6C3A0000 		.4byte	0x3a6c
 9074 19ba C4190000 		.4byte	0x19c4
 9075 19be 1F       		.uleb128 0x1f
 9076 19bf 01       		.uleb128 0x1
 9077 19c0 50       		.byte	0x50
 9078 19c1 01       		.uleb128 0x1
 9079 19c2 36       		.byte	0x36
 9080 19c3 00       		.byte	0
 9081 19c4 1E       		.uleb128 0x1e
 9082 19c5 0E000000 		.4byte	.LVL101
 9083 19c9 7D3A0000 		.4byte	0x3a7d
 9084 19cd D7190000 		.4byte	0x19d7
 9085 19d1 1F       		.uleb128 0x1f
 9086 19d2 01       		.uleb128 0x1
 9087 19d3 50       		.byte	0x50
 9088 19d4 01       		.uleb128 0x1
 9089 19d5 36       		.byte	0x36
 9090 19d6 00       		.byte	0
 9091 19d7 1E       		.uleb128 0x1e
 9092 19d8 14000000 		.4byte	.LVL102
 9093 19dc 143A0000 		.4byte	0x3a14
 9094 19e0 EA190000 		.4byte	0x19ea
 9095 19e4 1F       		.uleb128 0x1f
 9096 19e5 01       		.uleb128 0x1
 9097 19e6 50       		.byte	0x50
 9098 19e7 01       		.uleb128 0x1
 9099 19e8 31       		.byte	0x31
 9100 19e9 00       		.byte	0
 9101 19ea 21       		.uleb128 0x21
 9102 19eb 1A000000 		.4byte	.LVL103
 9103 19ef 8E3A0000 		.4byte	0x3a8e
 9104 19f3 1F       		.uleb128 0x1f
 9105 19f4 01       		.uleb128 0x1
ARM GAS  C:\Users\Helon\AppData\Local\Temp\ccys0XsA.s 			page 219


 9106 19f5 50       		.byte	0x50
 9107 19f6 01       		.uleb128 0x1
 9108 19f7 31       		.byte	0x31
 9109 19f8 00       		.byte	0
 9110 19f9 00       		.byte	0
 9111 19fa 22       		.uleb128 0x22
 9112 19fb 2C280000 		.4byte	.LASF599
 9113 19ff 01       		.byte	0x1
 9114 1a00 3602     		.2byte	0x236
 9115 1a02 00000000 		.4byte	.LFB39
 9116 1a06 48000000 		.4byte	.LFE39-.LFB39
 9117 1a0a 01       		.uleb128 0x1
 9118 1a0b 9C       		.byte	0x9c
 9119 1a0c 7C1A0000 		.4byte	0x1a7c
 9120 1a10 1E       		.uleb128 0x1e
 9121 1a11 08000000 		.4byte	.LVL104
 9122 1a15 9F3A0000 		.4byte	0x3a9f
 9123 1a19 231A0000 		.4byte	0x1a23
 9124 1a1d 1F       		.uleb128 0x1f
 9125 1a1e 01       		.uleb128 0x1
 9126 1a1f 50       		.byte	0x50
 9127 1a20 01       		.uleb128 0x1
 9128 1a21 36       		.byte	0x36
 9129 1a22 00       		.byte	0
 9130 1a23 1E       		.uleb128 0x1e
 9131 1a24 0E000000 		.4byte	.LVL105
 9132 1a28 B03A0000 		.4byte	0x3ab0
 9133 1a2c 361A0000 		.4byte	0x1a36
 9134 1a30 1F       		.uleb128 0x1f
 9135 1a31 01       		.uleb128 0x1
 9136 1a32 50       		.byte	0x50
 9137 1a33 01       		.uleb128 0x1
 9138 1a34 31       		.byte	0x31
 9139 1a35 00       		.byte	0
 9140 1a36 20       		.uleb128 0x20
 9141 1a37 20000000 		.4byte	.LVL106
 9142 1a3b C13A0000 		.4byte	0x3ac1
 9143 1a3f 1E       		.uleb128 0x1e
 9144 1a40 26000000 		.4byte	.LVL107
 9145 1a44 C93A0000 		.4byte	0x3ac9
 9146 1a48 561A0000 		.4byte	0x1a56
 9147 1a4c 1F       		.uleb128 0x1f
 9148 1a4d 01       		.uleb128 0x1
 9149 1a4e 50       		.byte	0x50
 9150 1a4f 05       		.uleb128 0x5
 9151 1a50 03       		.byte	0x3
 9152 1a51 00000000 		.4byte	MyTimerIsr
 9153 1a55 00       		.byte	0
 9154 1a56 20       		.uleb128 0x20
 9155 1a57 2A000000 		.4byte	.LVL108
 9156 1a5b DA3A0000 		.4byte	0x3ada
 9157 1a5f 20       		.uleb128 0x20
 9158 1a60 2E000000 		.4byte	.LVL109
 9159 1a64 9B190000 		.4byte	0x199b
 9160 1a68 21       		.uleb128 0x21
 9161 1a69 34000000 		.4byte	.LVL110
 9162 1a6d E13A0000 		.4byte	0x3ae1
ARM GAS  C:\Users\Helon\AppData\Local\Temp\ccys0XsA.s 			page 220


 9163 1a71 1F       		.uleb128 0x1f
 9164 1a72 01       		.uleb128 0x1
 9165 1a73 50       		.byte	0x50
 9166 1a74 05       		.uleb128 0x5
 9167 1a75 03       		.byte	0x3
 9168 1a76 00000000 		.4byte	StackEventHandler
 9169 1a7a 00       		.byte	0
 9170 1a7b 00       		.byte	0
 9171 1a7c 27       		.uleb128 0x27
 9172 1a7d DE0F0000 		.4byte	.LASF643
 9173 1a81 01       		.byte	0x1
 9174 1a82 0806     		.2byte	0x608
 9175 1a84 AD000000 		.4byte	0xad
 9176 1a88 00000000 		.4byte	.LFB44
 9177 1a8c 74000000 		.4byte	.LFE44-.LFB44
 9178 1a90 01       		.uleb128 0x1
 9179 1a91 9C       		.byte	0x9c
 9180 1a92 7A1B0000 		.4byte	0x1b7a
 9181 1a96 28       		.uleb128 0x28
 9182 1a97 40060000 		.4byte	.LASF600
 9183 1a9b 01       		.byte	0x1
 9184 1a9c 0806     		.2byte	0x608
 9185 1a9e 68010000 		.4byte	0x168
 9186 1aa2 2D030000 		.4byte	.LLST6
 9187 1aa6 24       		.uleb128 0x24
 9188 1aa7 0D430000 		.4byte	.LASF601
 9189 1aab 01       		.byte	0x1
 9190 1aac 0C06     		.2byte	0x60c
 9191 1aae AD000000 		.4byte	0xad
 9192 1ab2 8B030000 		.4byte	.LLST7
 9193 1ab6 29       		.uleb128 0x29
 9194 1ab7 6900     		.ascii	"i\000"
 9195 1ab9 01       		.byte	0x1
 9196 1aba 0C06     		.2byte	0x60c
 9197 1abc AD000000 		.4byte	0xad
 9198 1ac0 B7030000 		.4byte	.LLST8
 9199 1ac4 24       		.uleb128 0x24
 9200 1ac5 41220000 		.4byte	.LASF602
 9201 1ac9 01       		.byte	0x1
 9202 1aca 0C06     		.2byte	0x60c
 9203 1acc AD000000 		.4byte	0xad
 9204 1ad0 ED030000 		.4byte	.LLST9
 9205 1ad4 24       		.uleb128 0x24
 9206 1ad5 682B0000 		.4byte	.LASF603
 9207 1ad9 01       		.byte	0x1
 9208 1ada 1A06     		.2byte	0x61a
 9209 1adc 62010000 		.4byte	0x162
 9210 1ae0 0B040000 		.4byte	.LLST10
 9211 1ae4 1E       		.uleb128 0x1e
 9212 1ae5 0E000000 		.4byte	.LVL113
 9213 1ae9 F73A0000 		.4byte	0x3af7
 9214 1aed 011B0000 		.4byte	0x1b01
 9215 1af1 1F       		.uleb128 0x1f
 9216 1af2 01       		.uleb128 0x1
 9217 1af3 51       		.byte	0x51
 9218 1af4 05       		.uleb128 0x5
 9219 1af5 03       		.byte	0x3
ARM GAS  C:\Users\Helon\AppData\Local\Temp\ccys0XsA.s 			page 221


 9220 1af6 50010000 		.4byte	.LC49
 9221 1afa 1F       		.uleb128 0x1f
 9222 1afb 01       		.uleb128 0x1
 9223 1afc 50       		.byte	0x50
 9224 1afd 02       		.uleb128 0x2
 9225 1afe 74       		.byte	0x74
 9226 1aff 00       		.sleb128 0
 9227 1b00 00       		.byte	0
 9228 1b01 1E       		.uleb128 0x1e
 9229 1b02 1A000000 		.4byte	.LVL114
 9230 1b06 113B0000 		.4byte	0x3b11
 9231 1b0a 1B1B0000 		.4byte	0x1b1b
 9232 1b0e 1F       		.uleb128 0x1f
 9233 1b0f 01       		.uleb128 0x1
 9234 1b10 51       		.byte	0x51
 9235 1b11 02       		.uleb128 0x2
 9236 1b12 08       		.byte	0x8
 9237 1b13 3D       		.byte	0x3d
 9238 1b14 1F       		.uleb128 0x1f
 9239 1b15 01       		.uleb128 0x1
 9240 1b16 50       		.byte	0x50
 9241 1b17 02       		.uleb128 0x2
 9242 1b18 74       		.byte	0x74
 9243 1b19 00       		.sleb128 0
 9244 1b1a 00       		.byte	0
 9245 1b1b 1E       		.uleb128 0x1e
 9246 1b1c 2C000000 		.4byte	.LVL116
 9247 1b20 2B3B0000 		.4byte	0x3b2b
 9248 1b24 2F1B0000 		.4byte	0x1b2f
 9249 1b28 1F       		.uleb128 0x1f
 9250 1b29 01       		.uleb128 0x1
 9251 1b2a 50       		.byte	0x50
 9252 1b2b 02       		.uleb128 0x2
 9253 1b2c 75       		.byte	0x75
 9254 1b2d 00       		.sleb128 0
 9255 1b2e 00       		.byte	0
 9256 1b2f 1E       		.uleb128 0x1e
 9257 1b30 36000000 		.4byte	.LVL118
 9258 1b34 403B0000 		.4byte	0x3b40
 9259 1b38 4F1B0000 		.4byte	0x1b4f
 9260 1b3c 1F       		.uleb128 0x1f
 9261 1b3d 01       		.uleb128 0x1
 9262 1b3e 52       		.byte	0x52
 9263 1b3f 02       		.uleb128 0x2
 9264 1b40 75       		.byte	0x75
 9265 1b41 00       		.sleb128 0
 9266 1b42 1F       		.uleb128 0x1f
 9267 1b43 01       		.uleb128 0x1
 9268 1b44 51       		.byte	0x51
 9269 1b45 02       		.uleb128 0x2
 9270 1b46 74       		.byte	0x74
 9271 1b47 00       		.sleb128 0
 9272 1b48 1F       		.uleb128 0x1f
 9273 1b49 01       		.uleb128 0x1
 9274 1b4a 50       		.byte	0x50
 9275 1b4b 02       		.uleb128 0x2
 9276 1b4c 76       		.byte	0x76
ARM GAS  C:\Users\Helon\AppData\Local\Temp\ccys0XsA.s 			page 222


 9277 1b4d 00       		.sleb128 0
 9278 1b4e 00       		.byte	0
 9279 1b4f 1E       		.uleb128 0x1e
 9280 1b50 4A000000 		.4byte	.LVL121
 9281 1b54 5F3B0000 		.4byte	0x3b5f
 9282 1b58 691B0000 		.4byte	0x1b69
 9283 1b5c 1F       		.uleb128 0x1f
 9284 1b5d 01       		.uleb128 0x1
 9285 1b5e 52       		.byte	0x52
 9286 1b5f 02       		.uleb128 0x2
 9287 1b60 75       		.byte	0x75
 9288 1b61 00       		.sleb128 0
 9289 1b62 1F       		.uleb128 0x1f
 9290 1b63 01       		.uleb128 0x1
 9291 1b64 50       		.byte	0x50
 9292 1b65 02       		.uleb128 0x2
 9293 1b66 76       		.byte	0x76
 9294 1b67 00       		.sleb128 0
 9295 1b68 00       		.byte	0
 9296 1b69 21       		.uleb128 0x21
 9297 1b6a 5C000000 		.4byte	.LVL124
 9298 1b6e 7E3B0000 		.4byte	0x3b7e
 9299 1b72 1F       		.uleb128 0x1f
 9300 1b73 01       		.uleb128 0x1
 9301 1b74 50       		.byte	0x50
 9302 1b75 02       		.uleb128 0x2
 9303 1b76 76       		.byte	0x76
 9304 1b77 00       		.sleb128 0
 9305 1b78 00       		.byte	0
 9306 1b79 00       		.byte	0
 9307 1b7a 22       		.uleb128 0x22
 9308 1b7b A9380000 		.4byte	.LASF604
 9309 1b7f 01       		.byte	0x1
 9310 1b80 7506     		.2byte	0x675
 9311 1b82 00000000 		.4byte	.LFB46
 9312 1b86 34000000 		.4byte	.LFE46-.LFB46
 9313 1b8a 01       		.uleb128 0x1
 9314 1b8b 9C       		.byte	0x9c
 9315 1b8c F91B0000 		.4byte	0x1bf9
 9316 1b90 2A       		.uleb128 0x2a
 9317 1b91 76616C00 		.ascii	"val\000"
 9318 1b95 01       		.byte	0x1
 9319 1b96 7506     		.2byte	0x675
 9320 1b98 F91B0000 		.4byte	0x1bf9
 9321 1b9c 29040000 		.4byte	.LLST11
 9322 1ba0 2A       		.uleb128 0x2a
 9323 1ba1 6C656E00 		.ascii	"len\000"
 9324 1ba5 01       		.byte	0x1
 9325 1ba6 7506     		.2byte	0x675
 9326 1ba8 C3000000 		.4byte	0xc3
 9327 1bac 56040000 		.4byte	.LLST12
 9328 1bb0 2B       		.uleb128 0x2b
 9329 1bb1 E63A0000 		.4byte	.LASF605
 9330 1bb5 01       		.byte	0x1
 9331 1bb6 7906     		.2byte	0x679
 9332 1bb8 AF030000 		.4byte	0x3af
 9333 1bbc 00       		.byte	0
ARM GAS  C:\Users\Helon\AppData\Local\Temp\ccys0XsA.s 			page 223


 9334 1bbd 23       		.uleb128 0x23
 9335 1bbe BD220000 		.4byte	.LASF606
 9336 1bc2 01       		.byte	0x1
 9337 1bc3 8006     		.2byte	0x680
 9338 1bc5 ED090000 		.4byte	0x9ed
 9339 1bc9 02       		.uleb128 0x2
 9340 1bca 91       		.byte	0x91
 9341 1bcb 6C       		.sleb128 -20
 9342 1bcc 1E       		.uleb128 0x1e
 9343 1bcd 20000000 		.4byte	.LVL134
 9344 1bd1 8F3B0000 		.4byte	0x3b8f
 9345 1bd5 E01B0000 		.4byte	0x1be0
 9346 1bd9 1F       		.uleb128 0x1f
 9347 1bda 01       		.uleb128 0x1
 9348 1bdb 51       		.byte	0x51
 9349 1bdc 02       		.uleb128 0x2
 9350 1bdd 91       		.byte	0x91
 9351 1bde 6C       		.sleb128 -20
 9352 1bdf 00       		.byte	0
 9353 1be0 21       		.uleb128 0x21
 9354 1be1 28000000 		.4byte	.LVL135
 9355 1be5 3E390000 		.4byte	0x393e
 9356 1be9 1F       		.uleb128 0x1f
 9357 1bea 01       		.uleb128 0x1
 9358 1beb 51       		.byte	0x51
 9359 1bec 01       		.uleb128 0x1
 9360 1bed 30       		.byte	0x30
 9361 1bee 1F       		.uleb128 0x1f
 9362 1bef 01       		.uleb128 0x1
 9363 1bf0 50       		.byte	0x50
 9364 1bf1 05       		.uleb128 0x5
 9365 1bf2 03       		.byte	0x3
 9366 1bf3 58010000 		.4byte	.LC53
 9367 1bf7 00       		.byte	0
 9368 1bf8 00       		.byte	0
 9369 1bf9 07       		.uleb128 0x7
 9370 1bfa 04       		.byte	0x4
 9371 1bfb AD000000 		.4byte	0xad
 9372 1bff 22       		.uleb128 0x22
 9373 1c00 A3260000 		.4byte	.LASF607
 9374 1c04 01       		.byte	0x1
 9375 1c05 9806     		.2byte	0x698
 9376 1c07 00000000 		.4byte	.LFB47
 9377 1c0b 40000000 		.4byte	.LFE47-.LFB47
 9378 1c0f 01       		.uleb128 0x1
 9379 1c10 9C       		.byte	0x9c
 9380 1c11 741C0000 		.4byte	0x1c74
 9381 1c15 2A       		.uleb128 0x2a
 9382 1c16 76616C00 		.ascii	"val\000"
 9383 1c1a 01       		.byte	0x1
 9384 1c1b 9806     		.2byte	0x698
 9385 1c1d F91B0000 		.4byte	0x1bf9
 9386 1c21 77040000 		.4byte	.LLST13
 9387 1c25 2A       		.uleb128 0x2a
 9388 1c26 6C656E00 		.ascii	"len\000"
 9389 1c2a 01       		.byte	0x1
 9390 1c2b 9806     		.2byte	0x698
ARM GAS  C:\Users\Helon\AppData\Local\Temp\ccys0XsA.s 			page 224


 9391 1c2d C3000000 		.4byte	0xc3
 9392 1c31 96040000 		.4byte	.LLST14
 9393 1c35 24       		.uleb128 0x24
 9394 1c36 E63A0000 		.4byte	.LASF605
 9395 1c3a 01       		.byte	0x1
 9396 1c3b 9B06     		.2byte	0x69b
 9397 1c3d AF030000 		.4byte	0x3af
 9398 1c41 C1040000 		.4byte	.LLST15
 9399 1c45 23       		.uleb128 0x23
 9400 1c46 E7390000 		.4byte	.LASF608
 9401 1c4a 01       		.byte	0x1
 9402 1c4b 9C06     		.2byte	0x69c
 9403 1c4d 51090000 		.4byte	0x951
 9404 1c51 02       		.uleb128 0x2
 9405 1c52 91       		.byte	0x91
 9406 1c53 70       		.sleb128 -16
 9407 1c54 23       		.uleb128 0x23
 9408 1c55 B5120000 		.4byte	.LASF609
 9409 1c59 01       		.byte	0x1
 9410 1c5a A206     		.2byte	0x6a2
 9411 1c5c 450A0000 		.4byte	0xa45
 9412 1c60 02       		.uleb128 0x2
 9413 1c61 91       		.byte	0x91
 9414 1c62 64       		.sleb128 -28
 9415 1c63 21       		.uleb128 0x21
 9416 1c64 28000000 		.4byte	.LVL140
 9417 1c68 AF3B0000 		.4byte	0x3baf
 9418 1c6c 1F       		.uleb128 0x1f
 9419 1c6d 01       		.uleb128 0x1
 9420 1c6e 51       		.byte	0x51
 9421 1c6f 02       		.uleb128 0x2
 9422 1c70 91       		.byte	0x91
 9423 1c71 64       		.sleb128 -28
 9424 1c72 00       		.byte	0
 9425 1c73 00       		.byte	0
 9426 1c74 22       		.uleb128 0x22
 9427 1c75 602C0000 		.4byte	.LASF610
 9428 1c79 01       		.byte	0x1
 9429 1c7a 9B07     		.2byte	0x79b
 9430 1c7c 00000000 		.4byte	.LFB49
 9431 1c80 00020000 		.4byte	.LFE49-.LFB49
 9432 1c84 01       		.uleb128 0x1
 9433 1c85 9C       		.byte	0x9c
 9434 1c86 4F1E0000 		.4byte	0x1e4f
 9435 1c8a 2A       		.uleb128 0x2a
 9436 1c8b 69647800 		.ascii	"idx\000"
 9437 1c8f 01       		.byte	0x1
 9438 1c90 9B07     		.2byte	0x79b
 9439 1c92 AD000000 		.4byte	0xad
 9440 1c96 E0040000 		.4byte	.LLST16
 9441 1c9a 24       		.uleb128 0x24
 9442 1c9b E63A0000 		.4byte	.LASF605
 9443 1c9f 01       		.byte	0x1
 9444 1ca0 9D07     		.2byte	0x79d
 9445 1ca2 AF030000 		.4byte	0x3af
 9446 1ca6 B0050000 		.4byte	.LLST17
 9447 1caa 29       		.uleb128 0x29
ARM GAS  C:\Users\Helon\AppData\Local\Temp\ccys0XsA.s 			page 225


 9448 1cab 6900     		.ascii	"i\000"
 9449 1cad 01       		.byte	0x1
 9450 1cae 9E07     		.2byte	0x79e
 9451 1cb0 AD000000 		.4byte	0xad
 9452 1cb4 4C060000 		.4byte	.LLST18
 9453 1cb8 20       		.uleb128 0x20
 9454 1cb9 36000000 		.4byte	.LVL144
 9455 1cbd D03B0000 		.4byte	0x3bd0
 9456 1cc1 1E       		.uleb128 0x1e
 9457 1cc2 44000000 		.4byte	.LVL147
 9458 1cc6 3E390000 		.4byte	0x393e
 9459 1cca DE1C0000 		.4byte	0x1cde
 9460 1cce 1F       		.uleb128 0x1f
 9461 1ccf 01       		.uleb128 0x1
 9462 1cd0 51       		.byte	0x51
 9463 1cd1 02       		.uleb128 0x2
 9464 1cd2 74       		.byte	0x74
 9465 1cd3 50       		.sleb128 -48
 9466 1cd4 1F       		.uleb128 0x1f
 9467 1cd5 01       		.uleb128 0x1
 9468 1cd6 50       		.byte	0x50
 9469 1cd7 05       		.uleb128 0x5
 9470 1cd8 03       		.byte	0x3
 9471 1cd9 74010000 		.4byte	.LC60
 9472 1cdd 00       		.byte	0
 9473 1cde 1E       		.uleb128 0x1e
 9474 1cdf 74000000 		.4byte	.LVL150
 9475 1ce3 F9380000 		.4byte	0x38f9
 9476 1ce7 F11C0000 		.4byte	0x1cf1
 9477 1ceb 1F       		.uleb128 0x1f
 9478 1cec 01       		.uleb128 0x1
 9479 1ced 52       		.byte	0x52
 9480 1cee 01       		.uleb128 0x1
 9481 1cef 36       		.byte	0x36
 9482 1cf0 00       		.byte	0
 9483 1cf1 1E       		.uleb128 0x1e
 9484 1cf2 7A000000 		.4byte	.LVL151
 9485 1cf6 B5380000 		.4byte	0x38b5
 9486 1cfa 081D0000 		.4byte	0x1d08
 9487 1cfe 1F       		.uleb128 0x1f
 9488 1cff 01       		.uleb128 0x1
 9489 1d00 50       		.byte	0x50
 9490 1d01 05       		.uleb128 0x5
 9491 1d02 03       		.byte	0x3
 9492 1d03 8C010000 		.4byte	.LC63
 9493 1d07 00       		.byte	0
 9494 1d08 20       		.uleb128 0x20
 9495 1d09 8E000000 		.4byte	.LVL154
 9496 1d0d D03B0000 		.4byte	0x3bd0
 9497 1d11 1E       		.uleb128 0x1e
 9498 1d12 9C000000 		.4byte	.LVL157
 9499 1d16 3E390000 		.4byte	0x393e
 9500 1d1a 2E1D0000 		.4byte	0x1d2e
 9501 1d1e 1F       		.uleb128 0x1f
 9502 1d1f 01       		.uleb128 0x1
 9503 1d20 51       		.byte	0x51
 9504 1d21 02       		.uleb128 0x2
ARM GAS  C:\Users\Helon\AppData\Local\Temp\ccys0XsA.s 			page 226


 9505 1d22 74       		.byte	0x74
 9506 1d23 50       		.sleb128 -48
 9507 1d24 1F       		.uleb128 0x1f
 9508 1d25 01       		.uleb128 0x1
 9509 1d26 50       		.byte	0x50
 9510 1d27 05       		.uleb128 0x5
 9511 1d28 03       		.byte	0x3
 9512 1d29 74010000 		.4byte	.LC60
 9513 1d2d 00       		.byte	0
 9514 1d2e 1E       		.uleb128 0x1e
 9515 1d2f CC000000 		.4byte	.LVL160
 9516 1d33 F9380000 		.4byte	0x38f9
 9517 1d37 411D0000 		.4byte	0x1d41
 9518 1d3b 1F       		.uleb128 0x1f
 9519 1d3c 01       		.uleb128 0x1
 9520 1d3d 52       		.byte	0x52
 9521 1d3e 01       		.uleb128 0x1
 9522 1d3f 36       		.byte	0x36
 9523 1d40 00       		.byte	0
 9524 1d41 1E       		.uleb128 0x1e
 9525 1d42 D2000000 		.4byte	.LVL161
 9526 1d46 B5380000 		.4byte	0x38b5
 9527 1d4a 581D0000 		.4byte	0x1d58
 9528 1d4e 1F       		.uleb128 0x1f
 9529 1d4f 01       		.uleb128 0x1
 9530 1d50 50       		.byte	0x50
 9531 1d51 05       		.uleb128 0x5
 9532 1d52 03       		.byte	0x3
 9533 1d53 8C010000 		.4byte	.LC63
 9534 1d57 00       		.byte	0
 9535 1d58 20       		.uleb128 0x20
 9536 1d59 E6000000 		.4byte	.LVL164
 9537 1d5d D03B0000 		.4byte	0x3bd0
 9538 1d61 1E       		.uleb128 0x1e
 9539 1d62 F4000000 		.4byte	.LVL167
 9540 1d66 3E390000 		.4byte	0x393e
 9541 1d6a 7E1D0000 		.4byte	0x1d7e
 9542 1d6e 1F       		.uleb128 0x1f
 9543 1d6f 01       		.uleb128 0x1
 9544 1d70 51       		.byte	0x51
 9545 1d71 02       		.uleb128 0x2
 9546 1d72 74       		.byte	0x74
 9547 1d73 50       		.sleb128 -48
 9548 1d74 1F       		.uleb128 0x1f
 9549 1d75 01       		.uleb128 0x1
 9550 1d76 50       		.byte	0x50
 9551 1d77 05       		.uleb128 0x5
 9552 1d78 03       		.byte	0x3
 9553 1d79 74010000 		.4byte	.LC60
 9554 1d7d 00       		.byte	0
 9555 1d7e 1E       		.uleb128 0x1e
 9556 1d7f 24010000 		.4byte	.LVL170
 9557 1d83 F9380000 		.4byte	0x38f9
 9558 1d87 911D0000 		.4byte	0x1d91
 9559 1d8b 1F       		.uleb128 0x1f
 9560 1d8c 01       		.uleb128 0x1
 9561 1d8d 52       		.byte	0x52
ARM GAS  C:\Users\Helon\AppData\Local\Temp\ccys0XsA.s 			page 227


 9562 1d8e 01       		.uleb128 0x1
 9563 1d8f 36       		.byte	0x36
 9564 1d90 00       		.byte	0
 9565 1d91 1E       		.uleb128 0x1e
 9566 1d92 2A010000 		.4byte	.LVL171
 9567 1d96 B5380000 		.4byte	0x38b5
 9568 1d9a A81D0000 		.4byte	0x1da8
 9569 1d9e 1F       		.uleb128 0x1f
 9570 1d9f 01       		.uleb128 0x1
 9571 1da0 50       		.byte	0x50
 9572 1da1 05       		.uleb128 0x5
 9573 1da2 03       		.byte	0x3
 9574 1da3 8C010000 		.4byte	.LC63
 9575 1da7 00       		.byte	0
 9576 1da8 20       		.uleb128 0x20
 9577 1da9 3E010000 		.4byte	.LVL174
 9578 1dad D03B0000 		.4byte	0x3bd0
 9579 1db1 1E       		.uleb128 0x1e
 9580 1db2 4C010000 		.4byte	.LVL177
 9581 1db6 3E390000 		.4byte	0x393e
 9582 1dba CE1D0000 		.4byte	0x1dce
 9583 1dbe 1F       		.uleb128 0x1f
 9584 1dbf 01       		.uleb128 0x1
 9585 1dc0 51       		.byte	0x51
 9586 1dc1 02       		.uleb128 0x2
 9587 1dc2 74       		.byte	0x74
 9588 1dc3 50       		.sleb128 -48
 9589 1dc4 1F       		.uleb128 0x1f
 9590 1dc5 01       		.uleb128 0x1
 9591 1dc6 50       		.byte	0x50
 9592 1dc7 05       		.uleb128 0x5
 9593 1dc8 03       		.byte	0x3
 9594 1dc9 74010000 		.4byte	.LC60
 9595 1dcd 00       		.byte	0
 9596 1dce 1E       		.uleb128 0x1e
 9597 1dcf 7C010000 		.4byte	.LVL180
 9598 1dd3 F9380000 		.4byte	0x38f9
 9599 1dd7 E11D0000 		.4byte	0x1de1
 9600 1ddb 1F       		.uleb128 0x1f
 9601 1ddc 01       		.uleb128 0x1
 9602 1ddd 52       		.byte	0x52
 9603 1dde 01       		.uleb128 0x1
 9604 1ddf 36       		.byte	0x36
 9605 1de0 00       		.byte	0
 9606 1de1 1E       		.uleb128 0x1e
 9607 1de2 82010000 		.4byte	.LVL181
 9608 1de6 B5380000 		.4byte	0x38b5
 9609 1dea F81D0000 		.4byte	0x1df8
 9610 1dee 1F       		.uleb128 0x1f
 9611 1def 01       		.uleb128 0x1
 9612 1df0 50       		.byte	0x50
 9613 1df1 05       		.uleb128 0x5
 9614 1df2 03       		.byte	0x3
 9615 1df3 8C010000 		.4byte	.LC63
 9616 1df7 00       		.byte	0
 9617 1df8 1E       		.uleb128 0x1e
 9618 1df9 B2010000 		.4byte	.LVL184
ARM GAS  C:\Users\Helon\AppData\Local\Temp\ccys0XsA.s 			page 228


 9619 1dfd 3E390000 		.4byte	0x393e
 9620 1e01 241E0000 		.4byte	0x1e24
 9621 1e05 1F       		.uleb128 0x1f
 9622 1e06 01       		.uleb128 0x1
 9623 1e07 50       		.byte	0x50
 9624 1e08 05       		.uleb128 0x5
 9625 1e09 03       		.byte	0x3
 9626 1e0a 94010000 		.4byte	.LC66
 9627 1e0e 1F       		.uleb128 0x1f
 9628 1e0f 02       		.uleb128 0x2
 9629 1e10 7D       		.byte	0x7d
 9630 1e11 08       		.sleb128 8
 9631 1e12 02       		.uleb128 0x2
 9632 1e13 75       		.byte	0x75
 9633 1e14 00       		.sleb128 0
 9634 1e15 1F       		.uleb128 0x1f
 9635 1e16 02       		.uleb128 0x2
 9636 1e17 7D       		.byte	0x7d
 9637 1e18 04       		.sleb128 4
 9638 1e19 02       		.uleb128 0x2
 9639 1e1a 76       		.byte	0x76
 9640 1e1b 00       		.sleb128 0
 9641 1e1c 1F       		.uleb128 0x1f
 9642 1e1d 02       		.uleb128 0x2
 9643 1e1e 7D       		.byte	0x7d
 9644 1e1f 00       		.sleb128 0
 9645 1e20 02       		.uleb128 0x2
 9646 1e21 77       		.byte	0x77
 9647 1e22 00       		.sleb128 0
 9648 1e23 00       		.byte	0
 9649 1e24 1E       		.uleb128 0x1e
 9650 1e25 CA010000 		.4byte	.LVL191
 9651 1e29 B5380000 		.4byte	0x38b5
 9652 1e2d 3B1E0000 		.4byte	0x1e3b
 9653 1e31 1F       		.uleb128 0x1f
 9654 1e32 01       		.uleb128 0x1
 9655 1e33 50       		.byte	0x50
 9656 1e34 05       		.uleb128 0x5
 9657 1e35 03       		.byte	0x3
 9658 1e36 C0010000 		.4byte	.LC68
 9659 1e3a 00       		.byte	0
 9660 1e3b 21       		.uleb128 0x21
 9661 1e3c D2010000 		.4byte	.LVL194
 9662 1e40 B5380000 		.4byte	0x38b5
 9663 1e44 1F       		.uleb128 0x1f
 9664 1e45 01       		.uleb128 0x1
 9665 1e46 50       		.byte	0x50
 9666 1e47 05       		.uleb128 0x5
 9667 1e48 03       		.byte	0x3
 9668 1e49 CC010000 		.4byte	.LC70
 9669 1e4d 00       		.byte	0
 9670 1e4e 00       		.byte	0
 9671 1e4f 22       		.uleb128 0x22
 9672 1e50 31130000 		.4byte	.LASF611
 9673 1e54 01       		.byte	0x1
 9674 1e55 0C08     		.2byte	0x80c
 9675 1e57 00000000 		.4byte	.LFB50
ARM GAS  C:\Users\Helon\AppData\Local\Temp\ccys0XsA.s 			page 229


 9676 1e5b E4030000 		.4byte	.LFE50-.LFB50
 9677 1e5f 01       		.uleb128 0x1
 9678 1e60 9C       		.byte	0x9c
 9679 1e61 33220000 		.4byte	0x2233
 9680 1e65 2A       		.uleb128 0x2a
 9681 1e66 69647800 		.ascii	"idx\000"
 9682 1e6a 01       		.byte	0x1
 9683 1e6b 0C08     		.2byte	0x80c
 9684 1e6d AD000000 		.4byte	0xad
 9685 1e71 99060000 		.4byte	.LLST19
 9686 1e75 1E       		.uleb128 0x1e
 9687 1e76 1E000000 		.4byte	.LVL197
 9688 1e7a B5380000 		.4byte	0x38b5
 9689 1e7e 8C1E0000 		.4byte	0x1e8c
 9690 1e82 1F       		.uleb128 0x1f
 9691 1e83 01       		.uleb128 0x1
 9692 1e84 50       		.byte	0x50
 9693 1e85 05       		.uleb128 0x5
 9694 1e86 03       		.byte	0x3
 9695 1e87 D8010000 		.4byte	.LC73
 9696 1e8b 00       		.byte	0
 9697 1e8c 1E       		.uleb128 0x1e
 9698 1e8d 24000000 		.4byte	.LVL198
 9699 1e91 B5380000 		.4byte	0x38b5
 9700 1e95 A31E0000 		.4byte	0x1ea3
 9701 1e99 1F       		.uleb128 0x1f
 9702 1e9a 01       		.uleb128 0x1
 9703 1e9b 50       		.byte	0x50
 9704 1e9c 05       		.uleb128 0x5
 9705 1e9d 03       		.byte	0x3
 9706 1e9e E8010000 		.4byte	.LC75
 9707 1ea2 00       		.byte	0
 9708 1ea3 20       		.uleb128 0x20
 9709 1ea4 28000000 		.4byte	.LVL199
 9710 1ea8 CE380000 		.4byte	0x38ce
 9711 1eac 1E       		.uleb128 0x1e
 9712 1ead 4A000000 		.4byte	.LVL202
 9713 1eb1 B5380000 		.4byte	0x38b5
 9714 1eb5 C31E0000 		.4byte	0x1ec3
 9715 1eb9 1F       		.uleb128 0x1f
 9716 1eba 01       		.uleb128 0x1
 9717 1ebb 50       		.byte	0x50
 9718 1ebc 05       		.uleb128 0x5
 9719 1ebd 03       		.byte	0x3
 9720 1ebe EC010000 		.4byte	.LC78
 9721 1ec2 00       		.byte	0
 9722 1ec3 1E       		.uleb128 0x1e
 9723 1ec4 50000000 		.4byte	.LVL203
 9724 1ec8 B5380000 		.4byte	0x38b5
 9725 1ecc DA1E0000 		.4byte	0x1eda
 9726 1ed0 1F       		.uleb128 0x1f
 9727 1ed1 01       		.uleb128 0x1
 9728 1ed2 50       		.byte	0x50
 9729 1ed3 05       		.uleb128 0x5
 9730 1ed4 03       		.byte	0x3
 9731 1ed5 E8010000 		.4byte	.LC75
 9732 1ed9 00       		.byte	0
ARM GAS  C:\Users\Helon\AppData\Local\Temp\ccys0XsA.s 			page 230


 9733 1eda 20       		.uleb128 0x20
 9734 1edb 54000000 		.4byte	.LVL204
 9735 1edf CE380000 		.4byte	0x38ce
 9736 1ee3 1E       		.uleb128 0x1e
 9737 1ee4 76000000 		.4byte	.LVL207
 9738 1ee8 B5380000 		.4byte	0x38b5
 9739 1eec FA1E0000 		.4byte	0x1efa
 9740 1ef0 1F       		.uleb128 0x1f
 9741 1ef1 01       		.uleb128 0x1
 9742 1ef2 50       		.byte	0x50
 9743 1ef3 05       		.uleb128 0x5
 9744 1ef4 03       		.byte	0x3
 9745 1ef5 FC010000 		.4byte	.LC80
 9746 1ef9 00       		.byte	0
 9747 1efa 1E       		.uleb128 0x1e
 9748 1efb 7C000000 		.4byte	.LVL208
 9749 1eff B5380000 		.4byte	0x38b5
 9750 1f03 111F0000 		.4byte	0x1f11
 9751 1f07 1F       		.uleb128 0x1f
 9752 1f08 01       		.uleb128 0x1
 9753 1f09 50       		.byte	0x50
 9754 1f0a 05       		.uleb128 0x5
 9755 1f0b 03       		.byte	0x3
 9756 1f0c E8010000 		.4byte	.LC75
 9757 1f10 00       		.byte	0
 9758 1f11 20       		.uleb128 0x20
 9759 1f12 80000000 		.4byte	.LVL209
 9760 1f16 CE380000 		.4byte	0x38ce
 9761 1f1a 1E       		.uleb128 0x1e
 9762 1f1b A2000000 		.4byte	.LVL212
 9763 1f1f B5380000 		.4byte	0x38b5
 9764 1f23 311F0000 		.4byte	0x1f31
 9765 1f27 1F       		.uleb128 0x1f
 9766 1f28 01       		.uleb128 0x1
 9767 1f29 50       		.byte	0x50
 9768 1f2a 05       		.uleb128 0x5
 9769 1f2b 03       		.byte	0x3
 9770 1f2c 0C020000 		.4byte	.LC82
 9771 1f30 00       		.byte	0
 9772 1f31 1E       		.uleb128 0x1e
 9773 1f32 A8000000 		.4byte	.LVL213
 9774 1f36 B5380000 		.4byte	0x38b5
 9775 1f3a 481F0000 		.4byte	0x1f48
 9776 1f3e 1F       		.uleb128 0x1f
 9777 1f3f 01       		.uleb128 0x1
 9778 1f40 50       		.byte	0x50
 9779 1f41 05       		.uleb128 0x5
 9780 1f42 03       		.byte	0x3
 9781 1f43 E8010000 		.4byte	.LC75
 9782 1f47 00       		.byte	0
 9783 1f48 20       		.uleb128 0x20
 9784 1f49 AC000000 		.4byte	.LVL214
 9785 1f4d CE380000 		.4byte	0x38ce
 9786 1f51 1E       		.uleb128 0x1e
 9787 1f52 CE000000 		.4byte	.LVL217
 9788 1f56 B5380000 		.4byte	0x38b5
 9789 1f5a 681F0000 		.4byte	0x1f68
ARM GAS  C:\Users\Helon\AppData\Local\Temp\ccys0XsA.s 			page 231


 9790 1f5e 1F       		.uleb128 0x1f
 9791 1f5f 01       		.uleb128 0x1
 9792 1f60 50       		.byte	0x50
 9793 1f61 05       		.uleb128 0x5
 9794 1f62 03       		.byte	0x3
 9795 1f63 1C020000 		.4byte	.LC84
 9796 1f67 00       		.byte	0
 9797 1f68 1E       		.uleb128 0x1e
 9798 1f69 D4000000 		.4byte	.LVL218
 9799 1f6d B5380000 		.4byte	0x38b5
 9800 1f71 7F1F0000 		.4byte	0x1f7f
 9801 1f75 1F       		.uleb128 0x1f
 9802 1f76 01       		.uleb128 0x1
 9803 1f77 50       		.byte	0x50
 9804 1f78 05       		.uleb128 0x5
 9805 1f79 03       		.byte	0x3
 9806 1f7a E8010000 		.4byte	.LC75
 9807 1f7e 00       		.byte	0
 9808 1f7f 20       		.uleb128 0x20
 9809 1f80 D8000000 		.4byte	.LVL219
 9810 1f84 CE380000 		.4byte	0x38ce
 9811 1f88 1E       		.uleb128 0x1e
 9812 1f89 FA000000 		.4byte	.LVL222
 9813 1f8d B5380000 		.4byte	0x38b5
 9814 1f91 9F1F0000 		.4byte	0x1f9f
 9815 1f95 1F       		.uleb128 0x1f
 9816 1f96 01       		.uleb128 0x1
 9817 1f97 50       		.byte	0x50
 9818 1f98 05       		.uleb128 0x5
 9819 1f99 03       		.byte	0x3
 9820 1f9a 30020000 		.4byte	.LC86
 9821 1f9e 00       		.byte	0
 9822 1f9f 1E       		.uleb128 0x1e
 9823 1fa0 00010000 		.4byte	.LVL223
 9824 1fa4 B5380000 		.4byte	0x38b5
 9825 1fa8 B61F0000 		.4byte	0x1fb6
 9826 1fac 1F       		.uleb128 0x1f
 9827 1fad 01       		.uleb128 0x1
 9828 1fae 50       		.byte	0x50
 9829 1faf 05       		.uleb128 0x5
 9830 1fb0 03       		.byte	0x3
 9831 1fb1 E8010000 		.4byte	.LC75
 9832 1fb5 00       		.byte	0
 9833 1fb6 20       		.uleb128 0x20
 9834 1fb7 04010000 		.4byte	.LVL224
 9835 1fbb CE380000 		.4byte	0x38ce
 9836 1fbf 1E       		.uleb128 0x1e
 9837 1fc0 26010000 		.4byte	.LVL227
 9838 1fc4 B5380000 		.4byte	0x38b5
 9839 1fc8 D61F0000 		.4byte	0x1fd6
 9840 1fcc 1F       		.uleb128 0x1f
 9841 1fcd 01       		.uleb128 0x1
 9842 1fce 50       		.byte	0x50
 9843 1fcf 05       		.uleb128 0x5
 9844 1fd0 03       		.byte	0x3
 9845 1fd1 44020000 		.4byte	.LC88
 9846 1fd5 00       		.byte	0
ARM GAS  C:\Users\Helon\AppData\Local\Temp\ccys0XsA.s 			page 232


 9847 1fd6 1E       		.uleb128 0x1e
 9848 1fd7 2C010000 		.4byte	.LVL228
 9849 1fdb B5380000 		.4byte	0x38b5
 9850 1fdf ED1F0000 		.4byte	0x1fed
 9851 1fe3 1F       		.uleb128 0x1f
 9852 1fe4 01       		.uleb128 0x1
 9853 1fe5 50       		.byte	0x50
 9854 1fe6 05       		.uleb128 0x5
 9855 1fe7 03       		.byte	0x3
 9856 1fe8 E8010000 		.4byte	.LC75
 9857 1fec 00       		.byte	0
 9858 1fed 20       		.uleb128 0x20
 9859 1fee 30010000 		.4byte	.LVL229
 9860 1ff2 CE380000 		.4byte	0x38ce
 9861 1ff6 1E       		.uleb128 0x1e
 9862 1ff7 52010000 		.4byte	.LVL232
 9863 1ffb B5380000 		.4byte	0x38b5
 9864 1fff 0D200000 		.4byte	0x200d
 9865 2003 1F       		.uleb128 0x1f
 9866 2004 01       		.uleb128 0x1
 9867 2005 50       		.byte	0x50
 9868 2006 05       		.uleb128 0x5
 9869 2007 03       		.byte	0x3
 9870 2008 58020000 		.4byte	.LC90
 9871 200c 00       		.byte	0
 9872 200d 1E       		.uleb128 0x1e
 9873 200e 58010000 		.4byte	.LVL233
 9874 2012 B5380000 		.4byte	0x38b5
 9875 2016 24200000 		.4byte	0x2024
 9876 201a 1F       		.uleb128 0x1f
 9877 201b 01       		.uleb128 0x1
 9878 201c 50       		.byte	0x50
 9879 201d 05       		.uleb128 0x5
 9880 201e 03       		.byte	0x3
 9881 201f E8010000 		.4byte	.LC75
 9882 2023 00       		.byte	0
 9883 2024 20       		.uleb128 0x20
 9884 2025 5C010000 		.4byte	.LVL234
 9885 2029 CE380000 		.4byte	0x38ce
 9886 202d 1E       		.uleb128 0x1e
 9887 202e 7E010000 		.4byte	.LVL237
 9888 2032 B5380000 		.4byte	0x38b5
 9889 2036 44200000 		.4byte	0x2044
 9890 203a 1F       		.uleb128 0x1f
 9891 203b 01       		.uleb128 0x1
 9892 203c 50       		.byte	0x50
 9893 203d 05       		.uleb128 0x5
 9894 203e 03       		.byte	0x3
 9895 203f 6C020000 		.4byte	.LC92
 9896 2043 00       		.byte	0
 9897 2044 1E       		.uleb128 0x1e
 9898 2045 84010000 		.4byte	.LVL238
 9899 2049 B5380000 		.4byte	0x38b5
 9900 204d 5B200000 		.4byte	0x205b
 9901 2051 1F       		.uleb128 0x1f
 9902 2052 01       		.uleb128 0x1
 9903 2053 50       		.byte	0x50
ARM GAS  C:\Users\Helon\AppData\Local\Temp\ccys0XsA.s 			page 233


 9904 2054 05       		.uleb128 0x5
 9905 2055 03       		.byte	0x3
 9906 2056 E8010000 		.4byte	.LC75
 9907 205a 00       		.byte	0
 9908 205b 20       		.uleb128 0x20
 9909 205c 88010000 		.4byte	.LVL239
 9910 2060 CE380000 		.4byte	0x38ce
 9911 2064 1E       		.uleb128 0x1e
 9912 2065 AA010000 		.4byte	.LVL242
 9913 2069 B5380000 		.4byte	0x38b5
 9914 206d 7B200000 		.4byte	0x207b
 9915 2071 1F       		.uleb128 0x1f
 9916 2072 01       		.uleb128 0x1
 9917 2073 50       		.byte	0x50
 9918 2074 05       		.uleb128 0x5
 9919 2075 03       		.byte	0x3
 9920 2076 80020000 		.4byte	.LC94
 9921 207a 00       		.byte	0
 9922 207b 1E       		.uleb128 0x1e
 9923 207c B0010000 		.4byte	.LVL243
 9924 2080 B5380000 		.4byte	0x38b5
 9925 2084 92200000 		.4byte	0x2092
 9926 2088 1F       		.uleb128 0x1f
 9927 2089 01       		.uleb128 0x1
 9928 208a 50       		.byte	0x50
 9929 208b 05       		.uleb128 0x5
 9930 208c 03       		.byte	0x3
 9931 208d E8010000 		.4byte	.LC75
 9932 2091 00       		.byte	0
 9933 2092 20       		.uleb128 0x20
 9934 2093 B4010000 		.4byte	.LVL244
 9935 2097 CE380000 		.4byte	0x38ce
 9936 209b 1E       		.uleb128 0x1e
 9937 209c D6010000 		.4byte	.LVL247
 9938 20a0 B5380000 		.4byte	0x38b5
 9939 20a4 B2200000 		.4byte	0x20b2
 9940 20a8 1F       		.uleb128 0x1f
 9941 20a9 01       		.uleb128 0x1
 9942 20aa 50       		.byte	0x50
 9943 20ab 05       		.uleb128 0x5
 9944 20ac 03       		.byte	0x3
 9945 20ad 94020000 		.4byte	.LC96
 9946 20b1 00       		.byte	0
 9947 20b2 1E       		.uleb128 0x1e
 9948 20b3 DC010000 		.4byte	.LVL248
 9949 20b7 B5380000 		.4byte	0x38b5
 9950 20bb C9200000 		.4byte	0x20c9
 9951 20bf 1F       		.uleb128 0x1f
 9952 20c0 01       		.uleb128 0x1
 9953 20c1 50       		.byte	0x50
 9954 20c2 05       		.uleb128 0x5
 9955 20c3 03       		.byte	0x3
 9956 20c4 E8010000 		.4byte	.LC75
 9957 20c8 00       		.byte	0
 9958 20c9 20       		.uleb128 0x20
 9959 20ca E0010000 		.4byte	.LVL249
 9960 20ce CE380000 		.4byte	0x38ce
ARM GAS  C:\Users\Helon\AppData\Local\Temp\ccys0XsA.s 			page 234


 9961 20d2 1E       		.uleb128 0x1e
 9962 20d3 1A020000 		.4byte	.LVL252
 9963 20d7 B5380000 		.4byte	0x38b5
 9964 20db E9200000 		.4byte	0x20e9
 9965 20df 1F       		.uleb128 0x1f
 9966 20e0 01       		.uleb128 0x1
 9967 20e1 50       		.byte	0x50
 9968 20e2 05       		.uleb128 0x5
 9969 20e3 03       		.byte	0x3
 9970 20e4 A8020000 		.4byte	.LC99
 9971 20e8 00       		.byte	0
 9972 20e9 20       		.uleb128 0x20
 9973 20ea 1E020000 		.4byte	.LVL253
 9974 20ee CE380000 		.4byte	0x38ce
 9975 20f2 1E       		.uleb128 0x1e
 9976 20f3 3A020000 		.4byte	.LVL256
 9977 20f7 B5380000 		.4byte	0x38b5
 9978 20fb 09210000 		.4byte	0x2109
 9979 20ff 1F       		.uleb128 0x1f
 9980 2100 01       		.uleb128 0x1
 9981 2101 50       		.byte	0x50
 9982 2102 05       		.uleb128 0x5
 9983 2103 03       		.byte	0x3
 9984 2104 B8020000 		.4byte	.LC101
 9985 2108 00       		.byte	0
 9986 2109 20       		.uleb128 0x20
 9987 210a 3E020000 		.4byte	.LVL257
 9988 210e CE380000 		.4byte	0x38ce
 9989 2112 1E       		.uleb128 0x1e
 9990 2113 5A020000 		.4byte	.LVL260
 9991 2117 B5380000 		.4byte	0x38b5
 9992 211b 29210000 		.4byte	0x2129
 9993 211f 1F       		.uleb128 0x1f
 9994 2120 01       		.uleb128 0x1
 9995 2121 50       		.byte	0x50
 9996 2122 05       		.uleb128 0x5
 9997 2123 03       		.byte	0x3
 9998 2124 C8020000 		.4byte	.LC103
 9999 2128 00       		.byte	0
 10000 2129 20       		.uleb128 0x20
 10001 212a 5E020000 		.4byte	.LVL261
 10002 212e CE380000 		.4byte	0x38ce
 10003 2132 1E       		.uleb128 0x1e
 10004 2133 7A020000 		.4byte	.LVL264
 10005 2137 B5380000 		.4byte	0x38b5
 10006 213b 49210000 		.4byte	0x2149
 10007 213f 1F       		.uleb128 0x1f
 10008 2140 01       		.uleb128 0x1
 10009 2141 50       		.byte	0x50
 10010 2142 05       		.uleb128 0x5
 10011 2143 03       		.byte	0x3
 10012 2144 D8020000 		.4byte	.LC105
 10013 2148 00       		.byte	0
 10014 2149 20       		.uleb128 0x20
 10015 214a 7E020000 		.4byte	.LVL265
 10016 214e CE380000 		.4byte	0x38ce
 10017 2152 1E       		.uleb128 0x1e
ARM GAS  C:\Users\Helon\AppData\Local\Temp\ccys0XsA.s 			page 235


 10018 2153 9A020000 		.4byte	.LVL268
 10019 2157 B5380000 		.4byte	0x38b5
 10020 215b 69210000 		.4byte	0x2169
 10021 215f 1F       		.uleb128 0x1f
 10022 2160 01       		.uleb128 0x1
 10023 2161 50       		.byte	0x50
 10024 2162 05       		.uleb128 0x5
 10025 2163 03       		.byte	0x3
 10026 2164 E8020000 		.4byte	.LC107
 10027 2168 00       		.byte	0
 10028 2169 20       		.uleb128 0x20
 10029 216a 9E020000 		.4byte	.LVL269
 10030 216e CE380000 		.4byte	0x38ce
 10031 2172 1E       		.uleb128 0x1e
 10032 2173 BA020000 		.4byte	.LVL272
 10033 2177 B5380000 		.4byte	0x38b5
 10034 217b 89210000 		.4byte	0x2189
 10035 217f 1F       		.uleb128 0x1f
 10036 2180 01       		.uleb128 0x1
 10037 2181 50       		.byte	0x50
 10038 2182 05       		.uleb128 0x5
 10039 2183 03       		.byte	0x3
 10040 2184 F8020000 		.4byte	.LC109
 10041 2188 00       		.byte	0
 10042 2189 20       		.uleb128 0x20
 10043 218a BE020000 		.4byte	.LVL273
 10044 218e CE380000 		.4byte	0x38ce
 10045 2192 1E       		.uleb128 0x1e
 10046 2193 DA020000 		.4byte	.LVL276
 10047 2197 B5380000 		.4byte	0x38b5
 10048 219b A9210000 		.4byte	0x21a9
 10049 219f 1F       		.uleb128 0x1f
 10050 21a0 01       		.uleb128 0x1
 10051 21a1 50       		.byte	0x50
 10052 21a2 05       		.uleb128 0x5
 10053 21a3 03       		.byte	0x3
 10054 21a4 08030000 		.4byte	.LC111
 10055 21a8 00       		.byte	0
 10056 21a9 20       		.uleb128 0x20
 10057 21aa DE020000 		.4byte	.LVL277
 10058 21ae CE380000 		.4byte	0x38ce
 10059 21b2 1E       		.uleb128 0x1e
 10060 21b3 FA020000 		.4byte	.LVL280
 10061 21b7 B5380000 		.4byte	0x38b5
 10062 21bb C9210000 		.4byte	0x21c9
 10063 21bf 1F       		.uleb128 0x1f
 10064 21c0 01       		.uleb128 0x1
 10065 21c1 50       		.byte	0x50
 10066 21c2 05       		.uleb128 0x5
 10067 21c3 03       		.byte	0x3
 10068 21c4 18030000 		.4byte	.LC113
 10069 21c8 00       		.byte	0
 10070 21c9 20       		.uleb128 0x20
 10071 21ca FE020000 		.4byte	.LVL281
 10072 21ce CE380000 		.4byte	0x38ce
 10073 21d2 1E       		.uleb128 0x1e
 10074 21d3 7A030000 		.4byte	.LVL284
ARM GAS  C:\Users\Helon\AppData\Local\Temp\ccys0XsA.s 			page 236


 10075 21d7 B5380000 		.4byte	0x38b5
 10076 21db E9210000 		.4byte	0x21e9
 10077 21df 1F       		.uleb128 0x1f
 10078 21e0 01       		.uleb128 0x1
 10079 21e1 50       		.byte	0x50
 10080 21e2 05       		.uleb128 0x5
 10081 21e3 03       		.byte	0x3
 10082 21e4 28030000 		.4byte	.LC115
 10083 21e8 00       		.byte	0
 10084 21e9 20       		.uleb128 0x20
 10085 21ea 7E030000 		.4byte	.LVL285
 10086 21ee CE380000 		.4byte	0x38ce
 10087 21f2 1E       		.uleb128 0x1e
 10088 21f3 9A030000 		.4byte	.LVL288
 10089 21f7 B5380000 		.4byte	0x38b5
 10090 21fb 09220000 		.4byte	0x2209
 10091 21ff 1F       		.uleb128 0x1f
 10092 2200 01       		.uleb128 0x1
 10093 2201 50       		.byte	0x50
 10094 2202 05       		.uleb128 0x5
 10095 2203 03       		.byte	0x3
 10096 2204 38030000 		.4byte	.LC117
 10097 2208 00       		.byte	0
 10098 2209 20       		.uleb128 0x20
 10099 220a 9E030000 		.4byte	.LVL289
 10100 220e CE380000 		.4byte	0x38ce
 10101 2212 1E       		.uleb128 0x1e
 10102 2213 BA030000 		.4byte	.LVL292
 10103 2217 B5380000 		.4byte	0x38b5
 10104 221b 29220000 		.4byte	0x2229
 10105 221f 1F       		.uleb128 0x1f
 10106 2220 01       		.uleb128 0x1
 10107 2221 50       		.byte	0x50
 10108 2222 05       		.uleb128 0x5
 10109 2223 03       		.byte	0x3
 10110 2224 48030000 		.4byte	.LC119
 10111 2228 00       		.byte	0
 10112 2229 20       		.uleb128 0x20
 10113 222a BE030000 		.4byte	.LVL293
 10114 222e CE380000 		.4byte	0x38ce
 10115 2232 00       		.byte	0
 10116 2233 22       		.uleb128 0x22
 10117 2234 3E310000 		.4byte	.LASF612
 10118 2238 01       		.byte	0x1
 10119 2239 BE08     		.2byte	0x8be
 10120 223b 00000000 		.4byte	.LFB51
 10121 223f 6C010000 		.4byte	.LFE51-.LFB51
 10122 2243 01       		.uleb128 0x1
 10123 2244 9C       		.byte	0x9c
 10124 2245 99240000 		.4byte	0x2499
 10125 2249 2A       		.uleb128 0x2a
 10126 224a 69647800 		.ascii	"idx\000"
 10127 224e 01       		.byte	0x1
 10128 224f BE08     		.2byte	0x8be
 10129 2251 AD000000 		.4byte	0xad
 10130 2255 C7080000 		.4byte	.LLST20
 10131 2259 23       		.uleb128 0x23
ARM GAS  C:\Users\Helon\AppData\Local\Temp\ccys0XsA.s 			page 237


 10132 225a 4A220000 		.4byte	.LASF613
 10133 225e 01       		.byte	0x1
 10134 225f C008     		.2byte	0x8c0
 10135 2261 CF040000 		.4byte	0x4cf
 10136 2265 02       		.uleb128 0x2
 10137 2266 91       		.byte	0x91
 10138 2267 74       		.sleb128 -12
 10139 2268 24       		.uleb128 0x24
 10140 2269 E63A0000 		.4byte	.LASF605
 10141 226d 01       		.byte	0x1
 10142 226e C108     		.2byte	0x8c1
 10143 2270 AF030000 		.4byte	0x3af
 10144 2274 61090000 		.4byte	.LLST21
 10145 2278 1E       		.uleb128 0x1e
 10146 2279 3A000000 		.4byte	.LVL297
 10147 227d F13B0000 		.4byte	0x3bf1
 10148 2281 8C220000 		.4byte	0x228c
 10149 2285 1F       		.uleb128 0x1f
 10150 2286 01       		.uleb128 0x1
 10151 2287 50       		.byte	0x50
 10152 2288 02       		.uleb128 0x2
 10153 2289 74       		.byte	0x74
 10154 228a 00       		.sleb128 0
 10155 228b 00       		.byte	0
 10156 228c 1E       		.uleb128 0x1e
 10157 228d 4E000000 		.4byte	.LVL300
 10158 2291 B5380000 		.4byte	0x38b5
 10159 2295 A3220000 		.4byte	0x22a3
 10160 2299 1F       		.uleb128 0x1f
 10161 229a 01       		.uleb128 0x1
 10162 229b 50       		.byte	0x50
 10163 229c 05       		.uleb128 0x5
 10164 229d 03       		.byte	0x3
 10165 229e 58030000 		.4byte	.LC124
 10166 22a2 00       		.byte	0
 10167 22a3 1E       		.uleb128 0x1e
 10168 22a4 56000000 		.4byte	.LVL302
 10169 22a8 B5380000 		.4byte	0x38b5
 10170 22ac BA220000 		.4byte	0x22ba
 10171 22b0 1F       		.uleb128 0x1f
 10172 22b1 01       		.uleb128 0x1
 10173 22b2 50       		.byte	0x50
 10174 22b3 05       		.uleb128 0x5
 10175 22b4 03       		.byte	0x3
 10176 22b5 68030000 		.4byte	.LC126
 10177 22b9 00       		.byte	0
 10178 22ba 1E       		.uleb128 0x1e
 10179 22bb 5E000000 		.4byte	.LVL304
 10180 22bf B5380000 		.4byte	0x38b5
 10181 22c3 D1220000 		.4byte	0x22d1
 10182 22c7 1F       		.uleb128 0x1f
 10183 22c8 01       		.uleb128 0x1
 10184 22c9 50       		.byte	0x50
 10185 22ca 05       		.uleb128 0x5
 10186 22cb 03       		.byte	0x3
 10187 22cc 78030000 		.4byte	.LC128
 10188 22d0 00       		.byte	0
ARM GAS  C:\Users\Helon\AppData\Local\Temp\ccys0XsA.s 			page 238


 10189 22d1 1E       		.uleb128 0x1e
 10190 22d2 66000000 		.4byte	.LVL306
 10191 22d6 B5380000 		.4byte	0x38b5
 10192 22da E8220000 		.4byte	0x22e8
 10193 22de 1F       		.uleb128 0x1f
 10194 22df 01       		.uleb128 0x1
 10195 22e0 50       		.byte	0x50
 10196 22e1 05       		.uleb128 0x5
 10197 22e2 03       		.byte	0x3
 10198 22e3 88030000 		.4byte	.LC130
 10199 22e7 00       		.byte	0
 10200 22e8 1E       		.uleb128 0x1e
 10201 22e9 6E000000 		.4byte	.LVL308
 10202 22ed B5380000 		.4byte	0x38b5
 10203 22f1 FF220000 		.4byte	0x22ff
 10204 22f5 1F       		.uleb128 0x1f
 10205 22f6 01       		.uleb128 0x1
 10206 22f7 50       		.byte	0x50
 10207 22f8 05       		.uleb128 0x5
 10208 22f9 03       		.byte	0x3
 10209 22fa 98030000 		.4byte	.LC132
 10210 22fe 00       		.byte	0
 10211 22ff 1E       		.uleb128 0x1e
 10212 2300 76000000 		.4byte	.LVL310
 10213 2304 B5380000 		.4byte	0x38b5
 10214 2308 16230000 		.4byte	0x2316
 10215 230c 1F       		.uleb128 0x1f
 10216 230d 01       		.uleb128 0x1
 10217 230e 50       		.byte	0x50
 10218 230f 05       		.uleb128 0x5
 10219 2310 03       		.byte	0x3
 10220 2311 A8030000 		.4byte	.LC134
 10221 2315 00       		.byte	0
 10222 2316 1E       		.uleb128 0x1e
 10223 2317 7E000000 		.4byte	.LVL312
 10224 231b B5380000 		.4byte	0x38b5
 10225 231f 2D230000 		.4byte	0x232d
 10226 2323 1F       		.uleb128 0x1f
 10227 2324 01       		.uleb128 0x1
 10228 2325 50       		.byte	0x50
 10229 2326 05       		.uleb128 0x5
 10230 2327 03       		.byte	0x3
 10231 2328 B8030000 		.4byte	.LC136
 10232 232c 00       		.byte	0
 10233 232d 1E       		.uleb128 0x1e
 10234 232e 86000000 		.4byte	.LVL314
 10235 2332 B5380000 		.4byte	0x38b5
 10236 2336 44230000 		.4byte	0x2344
 10237 233a 1F       		.uleb128 0x1f
 10238 233b 01       		.uleb128 0x1
 10239 233c 50       		.byte	0x50
 10240 233d 05       		.uleb128 0x5
 10241 233e 03       		.byte	0x3
 10242 233f C8030000 		.4byte	.LC138
 10243 2343 00       		.byte	0
 10244 2344 1E       		.uleb128 0x1e
 10245 2345 92000000 		.4byte	.LVL316
ARM GAS  C:\Users\Helon\AppData\Local\Temp\ccys0XsA.s 			page 239


 10246 2349 0D3C0000 		.4byte	0x3c0d
 10247 234d 58230000 		.4byte	0x2358
 10248 2351 1F       		.uleb128 0x1f
 10249 2352 01       		.uleb128 0x1
 10250 2353 50       		.byte	0x50
 10251 2354 02       		.uleb128 0x2
 10252 2355 91       		.byte	0x91
 10253 2356 74       		.sleb128 -12
 10254 2357 00       		.byte	0
 10255 2358 1E       		.uleb128 0x1e
 10256 2359 9C000000 		.4byte	.LVL318
 10257 235d B5380000 		.4byte	0x38b5
 10258 2361 6F230000 		.4byte	0x236f
 10259 2365 1F       		.uleb128 0x1f
 10260 2366 01       		.uleb128 0x1
 10261 2367 50       		.byte	0x50
 10262 2368 05       		.uleb128 0x5
 10263 2369 03       		.byte	0x3
 10264 236a 8C010000 		.4byte	.LC63
 10265 236e 00       		.byte	0
 10266 236f 1E       		.uleb128 0x1e
 10267 2370 A8000000 		.4byte	.LVL320
 10268 2374 0D3C0000 		.4byte	0x3c0d
 10269 2378 83230000 		.4byte	0x2383
 10270 237c 1F       		.uleb128 0x1f
 10271 237d 01       		.uleb128 0x1
 10272 237e 50       		.byte	0x50
 10273 237f 02       		.uleb128 0x2
 10274 2380 91       		.byte	0x91
 10275 2381 74       		.sleb128 -12
 10276 2382 00       		.byte	0
 10277 2383 1E       		.uleb128 0x1e
 10278 2384 B2000000 		.4byte	.LVL322
 10279 2388 B5380000 		.4byte	0x38b5
 10280 238c 9A230000 		.4byte	0x239a
 10281 2390 1F       		.uleb128 0x1f
 10282 2391 01       		.uleb128 0x1
 10283 2392 50       		.byte	0x50
 10284 2393 05       		.uleb128 0x5
 10285 2394 03       		.byte	0x3
 10286 2395 8C010000 		.4byte	.LC63
 10287 2399 00       		.byte	0
 10288 239a 1E       		.uleb128 0x1e
 10289 239b BE000000 		.4byte	.LVL324
 10290 239f 0D3C0000 		.4byte	0x3c0d
 10291 23a3 AE230000 		.4byte	0x23ae
 10292 23a7 1F       		.uleb128 0x1f
 10293 23a8 01       		.uleb128 0x1
 10294 23a9 50       		.byte	0x50
 10295 23aa 02       		.uleb128 0x2
 10296 23ab 91       		.byte	0x91
 10297 23ac 74       		.sleb128 -12
 10298 23ad 00       		.byte	0
 10299 23ae 1E       		.uleb128 0x1e
 10300 23af C8000000 		.4byte	.LVL326
 10301 23b3 B5380000 		.4byte	0x38b5
 10302 23b7 C5230000 		.4byte	0x23c5
ARM GAS  C:\Users\Helon\AppData\Local\Temp\ccys0XsA.s 			page 240


 10303 23bb 1F       		.uleb128 0x1f
 10304 23bc 01       		.uleb128 0x1
 10305 23bd 50       		.byte	0x50
 10306 23be 05       		.uleb128 0x5
 10307 23bf 03       		.byte	0x3
 10308 23c0 8C010000 		.4byte	.LC63
 10309 23c4 00       		.byte	0
 10310 23c5 1E       		.uleb128 0x1e
 10311 23c6 D4000000 		.4byte	.LVL328
 10312 23ca 0D3C0000 		.4byte	0x3c0d
 10313 23ce D9230000 		.4byte	0x23d9
 10314 23d2 1F       		.uleb128 0x1f
 10315 23d3 01       		.uleb128 0x1
 10316 23d4 50       		.byte	0x50
 10317 23d5 02       		.uleb128 0x2
 10318 23d6 91       		.byte	0x91
 10319 23d7 74       		.sleb128 -12
 10320 23d8 00       		.byte	0
 10321 23d9 1E       		.uleb128 0x1e
 10322 23da DE000000 		.4byte	.LVL330
 10323 23de B5380000 		.4byte	0x38b5
 10324 23e2 F0230000 		.4byte	0x23f0
 10325 23e6 1F       		.uleb128 0x1f
 10326 23e7 01       		.uleb128 0x1
 10327 23e8 50       		.byte	0x50
 10328 23e9 05       		.uleb128 0x5
 10329 23ea 03       		.byte	0x3
 10330 23eb 8C010000 		.4byte	.LC63
 10331 23ef 00       		.byte	0
 10332 23f0 1E       		.uleb128 0x1e
 10333 23f1 EA000000 		.4byte	.LVL332
 10334 23f5 0D3C0000 		.4byte	0x3c0d
 10335 23f9 04240000 		.4byte	0x2404
 10336 23fd 1F       		.uleb128 0x1f
 10337 23fe 01       		.uleb128 0x1
 10338 23ff 50       		.byte	0x50
 10339 2400 02       		.uleb128 0x2
 10340 2401 91       		.byte	0x91
 10341 2402 74       		.sleb128 -12
 10342 2403 00       		.byte	0
 10343 2404 1E       		.uleb128 0x1e
 10344 2405 F4000000 		.4byte	.LVL334
 10345 2409 B5380000 		.4byte	0x38b5
 10346 240d 1B240000 		.4byte	0x241b
 10347 2411 1F       		.uleb128 0x1f
 10348 2412 01       		.uleb128 0x1
 10349 2413 50       		.byte	0x50
 10350 2414 05       		.uleb128 0x5
 10351 2415 03       		.byte	0x3
 10352 2416 8C010000 		.4byte	.LC63
 10353 241a 00       		.byte	0
 10354 241b 1E       		.uleb128 0x1e
 10355 241c 00010000 		.4byte	.LVL336
 10356 2420 0D3C0000 		.4byte	0x3c0d
 10357 2424 2F240000 		.4byte	0x242f
 10358 2428 1F       		.uleb128 0x1f
 10359 2429 01       		.uleb128 0x1
ARM GAS  C:\Users\Helon\AppData\Local\Temp\ccys0XsA.s 			page 241


 10360 242a 50       		.byte	0x50
 10361 242b 02       		.uleb128 0x2
 10362 242c 91       		.byte	0x91
 10363 242d 74       		.sleb128 -12
 10364 242e 00       		.byte	0
 10365 242f 1E       		.uleb128 0x1e
 10366 2430 0A010000 		.4byte	.LVL338
 10367 2434 B5380000 		.4byte	0x38b5
 10368 2438 46240000 		.4byte	0x2446
 10369 243c 1F       		.uleb128 0x1f
 10370 243d 01       		.uleb128 0x1
 10371 243e 50       		.byte	0x50
 10372 243f 05       		.uleb128 0x5
 10373 2440 03       		.byte	0x3
 10374 2441 8C010000 		.4byte	.LC63
 10375 2445 00       		.byte	0
 10376 2446 1E       		.uleb128 0x1e
 10377 2447 16010000 		.4byte	.LVL340
 10378 244b 0D3C0000 		.4byte	0x3c0d
 10379 244f 5A240000 		.4byte	0x245a
 10380 2453 1F       		.uleb128 0x1f
 10381 2454 01       		.uleb128 0x1
 10382 2455 50       		.byte	0x50
 10383 2456 02       		.uleb128 0x2
 10384 2457 91       		.byte	0x91
 10385 2458 74       		.sleb128 -12
 10386 2459 00       		.byte	0
 10387 245a 1E       		.uleb128 0x1e
 10388 245b 20010000 		.4byte	.LVL342
 10389 245f B5380000 		.4byte	0x38b5
 10390 2463 71240000 		.4byte	0x2471
 10391 2467 1F       		.uleb128 0x1f
 10392 2468 01       		.uleb128 0x1
 10393 2469 50       		.byte	0x50
 10394 246a 05       		.uleb128 0x5
 10395 246b 03       		.byte	0x3
 10396 246c 8C010000 		.4byte	.LC63
 10397 2470 00       		.byte	0
 10398 2471 1E       		.uleb128 0x1e
 10399 2472 2C010000 		.4byte	.LVL344
 10400 2476 0D3C0000 		.4byte	0x3c0d
 10401 247a 85240000 		.4byte	0x2485
 10402 247e 1F       		.uleb128 0x1f
 10403 247f 01       		.uleb128 0x1
 10404 2480 50       		.byte	0x50
 10405 2481 02       		.uleb128 0x2
 10406 2482 91       		.byte	0x91
 10407 2483 74       		.sleb128 -12
 10408 2484 00       		.byte	0
 10409 2485 21       		.uleb128 0x21
 10410 2486 36010000 		.4byte	.LVL346
 10411 248a B5380000 		.4byte	0x38b5
 10412 248e 1F       		.uleb128 0x1f
 10413 248f 01       		.uleb128 0x1
 10414 2490 50       		.byte	0x50
 10415 2491 05       		.uleb128 0x5
 10416 2492 03       		.byte	0x3
ARM GAS  C:\Users\Helon\AppData\Local\Temp\ccys0XsA.s 			page 242


 10417 2493 8C010000 		.4byte	.LC63
 10418 2497 00       		.byte	0
 10419 2498 00       		.byte	0
 10420 2499 22       		.uleb128 0x22
 10421 249a EF0F0000 		.4byte	.LASF614
 10422 249e 01       		.byte	0x1
 10423 249f 4E09     		.2byte	0x94e
 10424 24a1 00000000 		.4byte	.LFB52
 10425 24a5 70000000 		.4byte	.LFE52-.LFB52
 10426 24a9 01       		.uleb128 0x1
 10427 24aa 9C       		.byte	0x9c
 10428 24ab 5E250000 		.4byte	0x255e
 10429 24af 28       		.uleb128 0x28
 10430 24b0 06160000 		.4byte	.LASF615
 10431 24b4 01       		.byte	0x1
 10432 24b5 4E09     		.2byte	0x94e
 10433 24b7 62010000 		.4byte	0x162
 10434 24bb 210A0000 		.4byte	.LLST22
 10435 24bf 26       		.uleb128 0x26
 10436 24c0 80300000 		.4byte	.LASF616
 10437 24c4 01       		.byte	0x1
 10438 24c5 4E09     		.2byte	0x94e
 10439 24c7 62010000 		.4byte	0x162
 10440 24cb 01       		.uleb128 0x1
 10441 24cc 51       		.byte	0x51
 10442 24cd 26       		.uleb128 0x26
 10443 24ce 5B160000 		.4byte	.LASF617
 10444 24d2 01       		.byte	0x1
 10445 24d3 4E09     		.2byte	0x94e
 10446 24d5 94000000 		.4byte	0x94
 10447 24d9 01       		.uleb128 0x1
 10448 24da 52       		.byte	0x52
 10449 24db 29       		.uleb128 0x29
 10450 24dc 683100   		.ascii	"h1\000"
 10451 24df 01       		.byte	0x1
 10452 24e0 5009     		.2byte	0x950
 10453 24e2 42000000 		.4byte	0x42
 10454 24e6 4D0A0000 		.4byte	.LLST23
 10455 24ea 29       		.uleb128 0x29
 10456 24eb 683200   		.ascii	"h2\000"
 10457 24ee 01       		.byte	0x1
 10458 24ef 5009     		.2byte	0x950
 10459 24f1 42000000 		.4byte	0x42
 10460 24f5 710A0000 		.4byte	.LLST24
 10461 24f9 29       		.uleb128 0x29
 10462 24fa 733100   		.ascii	"s1\000"
 10463 24fd 01       		.byte	0x1
 10464 24fe 5109     		.2byte	0x951
 10465 2500 42000000 		.4byte	0x42
 10466 2504 970A0000 		.4byte	.LLST25
 10467 2508 29       		.uleb128 0x29
 10468 2509 733200   		.ascii	"s2\000"
 10469 250c 01       		.byte	0x1
 10470 250d 5109     		.2byte	0x951
 10471 250f 42000000 		.4byte	0x42
 10472 2513 CF0A0000 		.4byte	.LLST26
 10473 2517 29       		.uleb128 0x29
ARM GAS  C:\Users\Helon\AppData\Local\Temp\ccys0XsA.s 			page 243


 10474 2518 6900     		.ascii	"i\000"
 10475 251a 01       		.byte	0x1
 10476 251b 5209     		.2byte	0x952
 10477 251d 94000000 		.4byte	0x94
 10478 2521 E20A0000 		.4byte	.LLST27
 10479 2525 2C       		.uleb128 0x2c
 10480 2526 14000000 		.4byte	.LBB2
 10481 252a 12000000 		.4byte	.LBE2-.LBB2
 10482 252e 43250000 		.4byte	0x2543
 10483 2532 29       		.uleb128 0x29
 10484 2533 5F5F7800 		.ascii	"__x\000"
 10485 2537 01       		.byte	0x1
 10486 2538 5909     		.2byte	0x959
 10487 253a 42000000 		.4byte	0x42
 10488 253e 010B0000 		.4byte	.LLST28
 10489 2542 00       		.byte	0
 10490 2543 2D       		.uleb128 0x2d
 10491 2544 38000000 		.4byte	.LBB3
 10492 2548 0E000000 		.4byte	.LBE3-.LBB3
 10493 254c 29       		.uleb128 0x29
 10494 254d 5F5F7800 		.ascii	"__x\000"
 10495 2551 01       		.byte	0x1
 10496 2552 5D09     		.2byte	0x95d
 10497 2554 42000000 		.4byte	0x42
 10498 2558 250B0000 		.4byte	.LLST29
 10499 255c 00       		.byte	0
 10500 255d 00       		.byte	0
 10501 255e 2E       		.uleb128 0x2e
 10502 255f 1E430000 		.4byte	.LASF618
 10503 2563 01       		.byte	0x1
 10504 2564 AE02     		.2byte	0x2ae
 10505 2566 00000000 		.4byte	.LFB43
 10506 256a F0090000 		.4byte	.LFE43-.LFB43
 10507 256e 01       		.uleb128 0x1
 10508 256f 9C       		.byte	0x9c
 10509 2570 A5320000 		.4byte	0x32a5
 10510 2574 28       		.uleb128 0x28
 10511 2575 40060000 		.4byte	.LASF600
 10512 2579 01       		.byte	0x1
 10513 257a AE02     		.2byte	0x2ae
 10514 257c 68010000 		.4byte	0x168
 10515 2580 4B0B0000 		.4byte	.LLST30
 10516 2584 24       		.uleb128 0x24
 10517 2585 FE430000 		.4byte	.LASF619
 10518 2589 01       		.byte	0x1
 10519 258a B202     		.2byte	0x2b2
 10520 258c AD000000 		.4byte	0xad
 10521 2590 250C0000 		.4byte	.LLST31
 10522 2594 29       		.uleb128 0x29
 10523 2595 6900     		.ascii	"i\000"
 10524 2597 01       		.byte	0x1
 10525 2598 B202     		.2byte	0x2b2
 10526 259a AD000000 		.4byte	0xad
 10527 259e 4F0C0000 		.4byte	.LLST32
 10528 25a2 29       		.uleb128 0x29
 10529 25a3 69647800 		.ascii	"idx\000"
 10530 25a7 01       		.byte	0x1
ARM GAS  C:\Users\Helon\AppData\Local\Temp\ccys0XsA.s 			page 244


 10531 25a8 B302     		.2byte	0x2b3
 10532 25aa AD000000 		.4byte	0xad
 10533 25ae 020D0000 		.4byte	.LLST33
 10534 25b2 24       		.uleb128 0x24
 10535 25b3 E8250000 		.4byte	.LASF620
 10536 25b7 01       		.byte	0x1
 10537 25b8 B402     		.2byte	0x2b4
 10538 25ba B8000000 		.4byte	0xb8
 10539 25be 41110000 		.4byte	.LLST34
 10540 25c2 24       		.uleb128 0x24
 10541 25c3 E6010000 		.4byte	.LASF621
 10542 25c7 01       		.byte	0x1
 10543 25c8 B402     		.2byte	0x2b4
 10544 25ca B8000000 		.4byte	0xb8
 10545 25ce 54110000 		.4byte	.LLST35
 10546 25d2 23       		.uleb128 0x23
 10547 25d3 9B1A0000 		.4byte	.LASF622
 10548 25d7 01       		.byte	0x1
 10549 25d8 B502     		.2byte	0x2b5
 10550 25da A5320000 		.4byte	0x32a5
 10551 25de 02       		.uleb128 0x2
 10552 25df 91       		.byte	0x91
 10553 25e0 4C       		.sleb128 -52
 10554 25e1 23       		.uleb128 0x23
 10555 25e2 67370000 		.4byte	.LASF623
 10556 25e6 01       		.byte	0x1
 10557 25e7 B602     		.2byte	0x2b6
 10558 25e9 B5320000 		.4byte	0x32b5
 10559 25ed 03       		.uleb128 0x3
 10560 25ee 91       		.byte	0x91
 10561 25ef AC7F     		.sleb128 -84
 10562 25f1 23       		.uleb128 0x23
 10563 25f2 84030000 		.4byte	.LASF624
 10564 25f6 01       		.byte	0x1
 10565 25f7 B702     		.2byte	0x2b7
 10566 25f9 C5320000 		.4byte	0x32c5
 10567 25fd 03       		.uleb128 0x3
 10568 25fe 91       		.byte	0x91
 10569 25ff EC7E     		.sleb128 -148
 10570 2601 23       		.uleb128 0x23
 10571 2602 76410000 		.4byte	.LASF625
 10572 2606 01       		.byte	0x1
 10573 2607 B802     		.2byte	0x2b8
 10574 2609 D5320000 		.4byte	0x32d5
 10575 260d 03       		.uleb128 0x3
 10576 260e 91       		.byte	0x91
 10577 260f E87E     		.sleb128 -152
 10578 2611 23       		.uleb128 0x23
 10579 2612 BD1E0000 		.4byte	.LASF626
 10580 2616 01       		.byte	0x1
 10581 2617 B902     		.2byte	0x2b9
 10582 2619 1E010000 		.4byte	0x11e
 10583 261d 03       		.uleb128 0x3
 10584 261e 91       		.byte	0x91
 10585 261f E77E     		.sleb128 -153
 10586 2621 23       		.uleb128 0x23
 10587 2622 8D1E0000 		.4byte	.LASF627
ARM GAS  C:\Users\Helon\AppData\Local\Temp\ccys0XsA.s 			page 245


 10588 2626 01       		.byte	0x1
 10589 2627 BA02     		.2byte	0x2ba
 10590 2629 D5320000 		.4byte	0x32d5
 10591 262d 03       		.uleb128 0x3
 10592 262e 91       		.byte	0x91
 10593 262f E47E     		.sleb128 -156
 10594 2631 23       		.uleb128 0x23
 10595 2632 572E0000 		.4byte	.LASF628
 10596 2636 01       		.byte	0x1
 10597 2637 BB02     		.2byte	0x2bb
 10598 2639 1E010000 		.4byte	0x11e
 10599 263d 03       		.uleb128 0x3
 10600 263e 91       		.byte	0x91
 10601 263f E37E     		.sleb128 -157
 10602 2641 23       		.uleb128 0x23
 10603 2642 6A110000 		.4byte	.LASF629
 10604 2646 01       		.byte	0x1
 10605 2647 BC02     		.2byte	0x2bc
 10606 2649 EF000000 		.4byte	0xef
 10607 264d 03       		.uleb128 0x3
 10608 264e 91       		.byte	0x91
 10609 264f DC7E     		.sleb128 -164
 10610 2651 23       		.uleb128 0x23
 10611 2652 410C0000 		.4byte	.LASF630
 10612 2656 01       		.byte	0x1
 10613 2657 BD02     		.2byte	0x2bd
 10614 2659 E5320000 		.4byte	0x32e5
 10615 265d 03       		.uleb128 0x3
 10616 265e 91       		.byte	0x91
 10617 265f DB7E     		.sleb128 -165
 10618 2661 24       		.uleb128 0x24
 10619 2662 E63A0000 		.4byte	.LASF605
 10620 2666 01       		.byte	0x1
 10621 2667 C002     		.2byte	0x2c0
 10622 2669 AF030000 		.4byte	0x3af
 10623 266d 72110000 		.4byte	.LLST36
 10624 2671 24       		.uleb128 0x24
 10625 2672 C01D0000 		.4byte	.LASF631
 10626 2676 01       		.byte	0x1
 10627 2677 C102     		.2byte	0x2c1
 10628 2679 AD000000 		.4byte	0xad
 10629 267d 1F130000 		.4byte	.LLST37
 10630 2681 23       		.uleb128 0x23
 10631 2682 78010000 		.4byte	.LASF632
 10632 2686 01       		.byte	0x1
 10633 2687 C202     		.2byte	0x2c2
 10634 2689 240A0000 		.4byte	0xa24
 10635 268d 03       		.uleb128 0x3
 10636 268e 91       		.byte	0x91
 10637 268f D47E     		.sleb128 -172
 10638 2691 23       		.uleb128 0x23
 10639 2692 A5230000 		.4byte	.LASF633
 10640 2696 01       		.byte	0x1
 10641 2697 C302     		.2byte	0x2c3
 10642 2699 41070000 		.4byte	0x741
 10643 269d 03       		.uleb128 0x3
 10644 269e 91       		.byte	0x91
ARM GAS  C:\Users\Helon\AppData\Local\Temp\ccys0XsA.s 			page 246


 10645 269f B47E     		.sleb128 -204
 10646 26a1 1E       		.uleb128 0x1e
 10647 26a2 46000000 		.4byte	.LVL368
 10648 26a6 233C0000 		.4byte	0x3c23
 10649 26aa C2260000 		.4byte	0x26c2
 10650 26ae 1F       		.uleb128 0x1f
 10651 26af 01       		.uleb128 0x1
 10652 26b0 52       		.byte	0x52
 10653 26b1 02       		.uleb128 0x2
 10654 26b2 08       		.byte	0x8
 10655 26b3 3E       		.byte	0x3e
 10656 26b4 1F       		.uleb128 0x1f
 10657 26b5 01       		.uleb128 0x1
 10658 26b6 51       		.byte	0x51
 10659 26b7 02       		.uleb128 0x2
 10660 26b8 74       		.byte	0x74
 10661 26b9 00       		.sleb128 0
 10662 26ba 1F       		.uleb128 0x1f
 10663 26bb 01       		.uleb128 0x1
 10664 26bc 50       		.byte	0x50
 10665 26bd 03       		.uleb128 0x3
 10666 26be 91       		.byte	0x91
 10667 26bf EC7E     		.sleb128 -148
 10668 26c1 00       		.byte	0
 10669 26c2 1E       		.uleb128 0x1e
 10670 26c3 68000000 		.4byte	.LVL370
 10671 26c7 7C1A0000 		.4byte	0x1a7c
 10672 26cb D6260000 		.4byte	0x26d6
 10673 26cf 1F       		.uleb128 0x1f
 10674 26d0 01       		.uleb128 0x1
 10675 26d1 50       		.byte	0x50
 10676 26d2 02       		.uleb128 0x2
 10677 26d3 75       		.byte	0x75
 10678 26d4 00       		.sleb128 0
 10679 26d5 00       		.byte	0
 10680 26d6 1E       		.uleb128 0x1e
 10681 26d7 7E000000 		.4byte	.LVL372
 10682 26db B5380000 		.4byte	0x38b5
 10683 26df ED260000 		.4byte	0x26ed
 10684 26e3 1F       		.uleb128 0x1f
 10685 26e4 01       		.uleb128 0x1
 10686 26e5 50       		.byte	0x50
 10687 26e6 05       		.uleb128 0x5
 10688 26e7 03       		.byte	0x3
 10689 26e8 8C010000 		.4byte	.LC63
 10690 26ec 00       		.byte	0
 10691 26ed 1E       		.uleb128 0x1e
 10692 26ee 88000000 		.4byte	.LVL373
 10693 26f2 B5380000 		.4byte	0x38b5
 10694 26f6 04270000 		.4byte	0x2704
 10695 26fa 1F       		.uleb128 0x1f
 10696 26fb 01       		.uleb128 0x1
 10697 26fc 50       		.byte	0x50
 10698 26fd 05       		.uleb128 0x5
 10699 26fe 03       		.byte	0x3
 10700 26ff 8C010000 		.4byte	.LC63
 10701 2703 00       		.byte	0
ARM GAS  C:\Users\Helon\AppData\Local\Temp\ccys0XsA.s 			page 247


 10702 2704 20       		.uleb128 0x20
 10703 2705 8C000000 		.4byte	.LVL374
 10704 2709 CE380000 		.4byte	0x38ce
 10705 270d 20       		.uleb128 0x20
 10706 270e A4000000 		.4byte	.LVL375
 10707 2712 403C0000 		.4byte	0x3c40
 10708 2716 1E       		.uleb128 0x1e
 10709 2717 B4000000 		.4byte	.LVL376
 10710 271b B5380000 		.4byte	0x38b5
 10711 271f 2D270000 		.4byte	0x272d
 10712 2723 1F       		.uleb128 0x1f
 10713 2724 01       		.uleb128 0x1
 10714 2725 50       		.byte	0x50
 10715 2726 05       		.uleb128 0x5
 10716 2727 03       		.byte	0x3
 10717 2728 D8030000 		.4byte	.LC144
 10718 272c 00       		.byte	0
 10719 272d 1E       		.uleb128 0x1e
 10720 272e BE000000 		.4byte	.LVL377
 10721 2732 B5380000 		.4byte	0x38b5
 10722 2736 44270000 		.4byte	0x2744
 10723 273a 1F       		.uleb128 0x1f
 10724 273b 01       		.uleb128 0x1
 10725 273c 50       		.byte	0x50
 10726 273d 05       		.uleb128 0x5
 10727 273e 03       		.byte	0x3
 10728 273f EC030000 		.4byte	.LC146
 10729 2743 00       		.byte	0
 10730 2744 1E       		.uleb128 0x1e
 10731 2745 CE000000 		.4byte	.LVL379
 10732 2749 473C0000 		.4byte	0x3c47
 10733 274d 5B270000 		.4byte	0x275b
 10734 2751 1F       		.uleb128 0x1f
 10735 2752 01       		.uleb128 0x1
 10736 2753 50       		.byte	0x50
 10737 2754 05       		.uleb128 0x5
 10738 2755 03       		.byte	0x3
 10739 2756 00000000 		.4byte	DeviceAddr
 10740 275a 00       		.byte	0
 10741 275b 1E       		.uleb128 0x1e
 10742 275c E8000000 		.4byte	.LVL381
 10743 2760 3E390000 		.4byte	0x393e
 10744 2764 80270000 		.4byte	0x2780
 10745 2768 1F       		.uleb128 0x1f
 10746 2769 01       		.uleb128 0x1
 10747 276a 50       		.byte	0x50
 10748 276b 05       		.uleb128 0x5
 10749 276c 03       		.byte	0x3
 10750 276d F8030000 		.4byte	.LC149
 10751 2771 1F       		.uleb128 0x1f
 10752 2772 02       		.uleb128 0x2
 10753 2773 7D       		.byte	0x7d
 10754 2774 04       		.sleb128 4
 10755 2775 02       		.uleb128 0x2
 10756 2776 74       		.byte	0x74
 10757 2777 00       		.sleb128 0
 10758 2778 1F       		.uleb128 0x1f
ARM GAS  C:\Users\Helon\AppData\Local\Temp\ccys0XsA.s 			page 248


 10759 2779 02       		.uleb128 0x2
 10760 277a 7D       		.byte	0x7d
 10761 277b 00       		.sleb128 0
 10762 277c 02       		.uleb128 0x2
 10763 277d 75       		.byte	0x75
 10764 277e 00       		.sleb128 0
 10765 277f 00       		.byte	0
 10766 2780 1E       		.uleb128 0x1e
 10767 2781 08010000 		.4byte	.LVL384
 10768 2785 633C0000 		.4byte	0x3c63
 10769 2789 94270000 		.4byte	0x2794
 10770 278d 1F       		.uleb128 0x1f
 10771 278e 01       		.uleb128 0x1
 10772 278f 50       		.byte	0x50
 10773 2790 02       		.uleb128 0x2
 10774 2791 91       		.byte	0x91
 10775 2792 4C       		.sleb128 -52
 10776 2793 00       		.byte	0
 10777 2794 1E       		.uleb128 0x1e
 10778 2795 10010000 		.4byte	.LVL385
 10779 2799 3E390000 		.4byte	0x393e
 10780 279d B1270000 		.4byte	0x27b1
 10781 27a1 1F       		.uleb128 0x1f
 10782 27a2 01       		.uleb128 0x1
 10783 27a3 51       		.byte	0x51
 10784 27a4 02       		.uleb128 0x2
 10785 27a5 91       		.byte	0x91
 10786 27a6 4C       		.sleb128 -52
 10787 27a7 1F       		.uleb128 0x1f
 10788 27a8 01       		.uleb128 0x1
 10789 27a9 50       		.byte	0x50
 10790 27aa 05       		.uleb128 0x5
 10791 27ab 03       		.byte	0x3
 10792 27ac 20040000 		.4byte	.LC152
 10793 27b0 00       		.byte	0
 10794 27b1 1E       		.uleb128 0x1e
 10795 27b2 1E010000 		.4byte	.LVL388
 10796 27b6 113B0000 		.4byte	0x3b11
 10797 27ba CB270000 		.4byte	0x27cb
 10798 27be 1F       		.uleb128 0x1f
 10799 27bf 01       		.uleb128 0x1
 10800 27c0 51       		.byte	0x51
 10801 27c1 02       		.uleb128 0x2
 10802 27c2 08       		.byte	0x8
 10803 27c3 3E       		.byte	0x3e
 10804 27c4 1F       		.uleb128 0x1f
 10805 27c5 01       		.uleb128 0x1
 10806 27c6 50       		.byte	0x50
 10807 27c7 02       		.uleb128 0x2
 10808 27c8 75       		.byte	0x75
 10809 27c9 00       		.sleb128 0
 10810 27ca 00       		.byte	0
 10811 27cb 1E       		.uleb128 0x1e
 10812 27cc 2A010000 		.4byte	.LVL389
 10813 27d0 B5380000 		.4byte	0x38b5
 10814 27d4 E2270000 		.4byte	0x27e2
 10815 27d8 1F       		.uleb128 0x1f
ARM GAS  C:\Users\Helon\AppData\Local\Temp\ccys0XsA.s 			page 249


 10816 27d9 01       		.uleb128 0x1
 10817 27da 50       		.byte	0x50
 10818 27db 05       		.uleb128 0x5
 10819 27dc 03       		.byte	0x3
 10820 27dd 30040000 		.4byte	.LC154
 10821 27e1 00       		.byte	0
 10822 27e2 20       		.uleb128 0x20
 10823 27e3 3A010000 		.4byte	.LVL390
 10824 27e7 7F3C0000 		.4byte	0x3c7f
 10825 27eb 1E       		.uleb128 0x1e
 10826 27ec 5C010000 		.4byte	.LVL391
 10827 27f0 F9380000 		.4byte	0x38f9
 10828 27f4 08280000 		.4byte	0x2808
 10829 27f8 1F       		.uleb128 0x1f
 10830 27f9 01       		.uleb128 0x1
 10831 27fa 51       		.byte	0x51
 10832 27fb 05       		.uleb128 0x5
 10833 27fc 03       		.byte	0x3
 10834 27fd 25000000 		.4byte	.LANCHOR0+37
 10835 2801 1F       		.uleb128 0x1f
 10836 2802 01       		.uleb128 0x1
 10837 2803 50       		.byte	0x50
 10838 2804 02       		.uleb128 0x2
 10839 2805 74       		.byte	0x74
 10840 2806 00       		.sleb128 0
 10841 2807 00       		.byte	0
 10842 2808 1E       		.uleb128 0x1e
 10843 2809 62010000 		.4byte	.LVL392
 10844 280d 873C0000 		.4byte	0x3c87
 10845 2811 1C280000 		.4byte	0x281c
 10846 2815 1F       		.uleb128 0x1f
 10847 2816 01       		.uleb128 0x1
 10848 2817 50       		.byte	0x50
 10849 2818 02       		.uleb128 0x2
 10850 2819 74       		.byte	0x74
 10851 281a 00       		.sleb128 0
 10852 281b 00       		.byte	0
 10853 281c 1E       		.uleb128 0x1e
 10854 281d 6C010000 		.4byte	.LVL394
 10855 2821 B5380000 		.4byte	0x38b5
 10856 2825 33280000 		.4byte	0x2833
 10857 2829 1F       		.uleb128 0x1f
 10858 282a 01       		.uleb128 0x1
 10859 282b 50       		.byte	0x50
 10860 282c 05       		.uleb128 0x5
 10861 282d 03       		.byte	0x3
 10862 282e 8C010000 		.4byte	.LC63
 10863 2832 00       		.byte	0
 10864 2833 1E       		.uleb128 0x1e
 10865 2834 76010000 		.4byte	.LVL397
 10866 2838 B5380000 		.4byte	0x38b5
 10867 283c 4A280000 		.4byte	0x284a
 10868 2840 1F       		.uleb128 0x1f
 10869 2841 01       		.uleb128 0x1
 10870 2842 50       		.byte	0x50
 10871 2843 05       		.uleb128 0x5
 10872 2844 03       		.byte	0x3
ARM GAS  C:\Users\Helon\AppData\Local\Temp\ccys0XsA.s 			page 250


 10873 2845 3C040000 		.4byte	.LC157
 10874 2849 00       		.byte	0
 10875 284a 1E       		.uleb128 0x1e
 10876 284b 80010000 		.4byte	.LVL399
 10877 284f B5380000 		.4byte	0x38b5
 10878 2853 61280000 		.4byte	0x2861
 10879 2857 1F       		.uleb128 0x1f
 10880 2858 01       		.uleb128 0x1
 10881 2859 50       		.byte	0x50
 10882 285a 05       		.uleb128 0x5
 10883 285b 03       		.byte	0x3
 10884 285c C0010000 		.4byte	.LC68
 10885 2860 00       		.byte	0
 10886 2861 1E       		.uleb128 0x1e
 10887 2862 8A010000 		.4byte	.LVL401
 10888 2866 B5380000 		.4byte	0x38b5
 10889 286a 78280000 		.4byte	0x2878
 10890 286e 1F       		.uleb128 0x1f
 10891 286f 01       		.uleb128 0x1
 10892 2870 50       		.byte	0x50
 10893 2871 05       		.uleb128 0x5
 10894 2872 03       		.byte	0x3
 10895 2873 CC010000 		.4byte	.LC70
 10896 2877 00       		.byte	0
 10897 2878 20       		.uleb128 0x20
 10898 2879 9C010000 		.4byte	.LVL404
 10899 287d 33220000 		.4byte	0x2233
 10900 2881 1E       		.uleb128 0x1e
 10901 2882 A4010000 		.4byte	.LVL407
 10902 2886 B5380000 		.4byte	0x38b5
 10903 288a 98280000 		.4byte	0x2898
 10904 288e 1F       		.uleb128 0x1f
 10905 288f 01       		.uleb128 0x1
 10906 2890 50       		.byte	0x50
 10907 2891 05       		.uleb128 0x5
 10908 2892 03       		.byte	0x3
 10909 2893 CC010000 		.4byte	.LC70
 10910 2897 00       		.byte	0
 10911 2898 1E       		.uleb128 0x1e
 10912 2899 E4010000 		.4byte	.LVL411
 10913 289d F9380000 		.4byte	0x38f9
 10914 28a1 B8280000 		.4byte	0x28b8
 10915 28a5 1F       		.uleb128 0x1f
 10916 28a6 01       		.uleb128 0x1
 10917 28a7 52       		.byte	0x52
 10918 28a8 01       		.uleb128 0x1
 10919 28a9 32       		.byte	0x32
 10920 28aa 1F       		.uleb128 0x1f
 10921 28ab 01       		.uleb128 0x1
 10922 28ac 51       		.byte	0x51
 10923 28ad 02       		.uleb128 0x2
 10924 28ae 75       		.byte	0x75
 10925 28af 09       		.sleb128 9
 10926 28b0 1F       		.uleb128 0x1f
 10927 28b1 01       		.uleb128 0x1
 10928 28b2 50       		.byte	0x50
 10929 28b3 03       		.uleb128 0x3
ARM GAS  C:\Users\Helon\AppData\Local\Temp\ccys0XsA.s 			page 251


 10930 28b4 91       		.byte	0x91
 10931 28b5 E87E     		.sleb128 -152
 10932 28b7 00       		.byte	0
 10933 28b8 1E       		.uleb128 0x1e
 10934 28b9 F2010000 		.4byte	.LVL412
 10935 28bd 99240000 		.4byte	0x2499
 10936 28c1 D8280000 		.4byte	0x28d8
 10937 28c5 1F       		.uleb128 0x1f
 10938 28c6 01       		.uleb128 0x1
 10939 28c7 52       		.byte	0x52
 10940 28c8 01       		.uleb128 0x1
 10941 28c9 31       		.byte	0x31
 10942 28ca 1F       		.uleb128 0x1f
 10943 28cb 01       		.uleb128 0x1
 10944 28cc 51       		.byte	0x51
 10945 28cd 03       		.uleb128 0x3
 10946 28ce 91       		.byte	0x91
 10947 28cf E87E     		.sleb128 -152
 10948 28d1 1F       		.uleb128 0x1f
 10949 28d2 01       		.uleb128 0x1
 10950 28d3 50       		.byte	0x50
 10951 28d4 02       		.uleb128 0x2
 10952 28d5 76       		.byte	0x76
 10953 28d6 00       		.sleb128 0
 10954 28d7 00       		.byte	0
 10955 28d8 1E       		.uleb128 0x1e
 10956 28d9 02020000 		.4byte	.LVL413
 10957 28dd F9380000 		.4byte	0x38f9
 10958 28e1 F3280000 		.4byte	0x28f3
 10959 28e5 1F       		.uleb128 0x1f
 10960 28e6 01       		.uleb128 0x1
 10961 28e7 51       		.byte	0x51
 10962 28e8 02       		.uleb128 0x2
 10963 28e9 75       		.byte	0x75
 10964 28ea 0C       		.sleb128 12
 10965 28eb 1F       		.uleb128 0x1f
 10966 28ec 01       		.uleb128 0x1
 10967 28ed 50       		.byte	0x50
 10968 28ee 03       		.uleb128 0x3
 10969 28ef 91       		.byte	0x91
 10970 28f0 EC7E     		.sleb128 -148
 10971 28f2 00       		.byte	0
 10972 28f3 1E       		.uleb128 0x1e
 10973 28f4 0C020000 		.4byte	.LVL414
 10974 28f8 99240000 		.4byte	0x2499
 10975 28fc 14290000 		.4byte	0x2914
 10976 2900 1F       		.uleb128 0x1f
 10977 2901 01       		.uleb128 0x1
 10978 2902 52       		.byte	0x52
 10979 2903 01       		.uleb128 0x1
 10980 2904 4F       		.byte	0x4f
 10981 2905 1F       		.uleb128 0x1f
 10982 2906 01       		.uleb128 0x1
 10983 2907 51       		.byte	0x51
 10984 2908 03       		.uleb128 0x3
 10985 2909 91       		.byte	0x91
 10986 290a EC7E     		.sleb128 -148
ARM GAS  C:\Users\Helon\AppData\Local\Temp\ccys0XsA.s 			page 252


 10987 290c 1F       		.uleb128 0x1f
 10988 290d 01       		.uleb128 0x1
 10989 290e 50       		.byte	0x50
 10990 290f 03       		.uleb128 0x3
 10991 2910 91       		.byte	0x91
 10992 2911 AC7F     		.sleb128 -84
 10993 2913 00       		.byte	0
 10994 2914 1E       		.uleb128 0x1e
 10995 2915 16020000 		.4byte	.LVL415
 10996 2919 F9380000 		.4byte	0x38f9
 10997 291d 2F290000 		.4byte	0x292f
 10998 2921 1F       		.uleb128 0x1f
 10999 2922 01       		.uleb128 0x1
 11000 2923 51       		.byte	0x51
 11001 2924 03       		.uleb128 0x3
 11002 2925 91       		.byte	0x91
 11003 2926 AC7F     		.sleb128 -84
 11004 2928 1F       		.uleb128 0x1f
 11005 2929 01       		.uleb128 0x1
 11006 292a 50       		.byte	0x50
 11007 292b 02       		.uleb128 0x2
 11008 292c 74       		.byte	0x74
 11009 292d 00       		.sleb128 0
 11010 292e 00       		.byte	0
 11011 292f 1E       		.uleb128 0x1e
 11012 2930 1E020000 		.4byte	.LVL416
 11013 2934 A83C0000 		.4byte	0x3ca8
 11014 2938 48290000 		.4byte	0x2948
 11015 293c 1F       		.uleb128 0x1f
 11016 293d 01       		.uleb128 0x1
 11017 293e 51       		.byte	0x51
 11018 293f 01       		.uleb128 0x1
 11019 2940 30       		.byte	0x30
 11020 2941 1F       		.uleb128 0x1f
 11021 2942 01       		.uleb128 0x1
 11022 2943 50       		.byte	0x50
 11023 2944 02       		.uleb128 0x2
 11024 2945 74       		.byte	0x74
 11025 2946 00       		.sleb128 0
 11026 2947 00       		.byte	0
 11027 2948 1E       		.uleb128 0x1e
 11028 2949 34020000 		.4byte	.LVL418
 11029 294d F9380000 		.4byte	0x38f9
 11030 2951 5D290000 		.4byte	0x295d
 11031 2955 1F       		.uleb128 0x1f
 11032 2956 01       		.uleb128 0x1
 11033 2957 51       		.byte	0x51
 11034 2958 03       		.uleb128 0x3
 11035 2959 91       		.byte	0x91
 11036 295a AC7F     		.sleb128 -84
 11037 295c 00       		.byte	0
 11038 295d 1E       		.uleb128 0x1e
 11039 295e 3A020000 		.4byte	.LVL419
 11040 2962 B5380000 		.4byte	0x38b5
 11041 2966 74290000 		.4byte	0x2974
 11042 296a 1F       		.uleb128 0x1f
 11043 296b 01       		.uleb128 0x1
ARM GAS  C:\Users\Helon\AppData\Local\Temp\ccys0XsA.s 			page 253


 11044 296c 50       		.byte	0x50
 11045 296d 05       		.uleb128 0x5
 11046 296e 03       		.byte	0x3
 11047 296f 8C010000 		.4byte	.LC63
 11048 2973 00       		.byte	0
 11049 2974 1E       		.uleb128 0x1e
 11050 2975 42020000 		.4byte	.LVL422
 11051 2979 B5380000 		.4byte	0x38b5
 11052 297d 8B290000 		.4byte	0x298b
 11053 2981 1F       		.uleb128 0x1f
 11054 2982 01       		.uleb128 0x1
 11055 2983 50       		.byte	0x50
 11056 2984 05       		.uleb128 0x5
 11057 2985 03       		.byte	0x3
 11058 2986 3C040000 		.4byte	.LC157
 11059 298a 00       		.byte	0
 11060 298b 1E       		.uleb128 0x1e
 11061 298c 4A020000 		.4byte	.LVL424
 11062 2990 3E390000 		.4byte	0x393e
 11063 2994 A2290000 		.4byte	0x29a2
 11064 2998 1F       		.uleb128 0x1f
 11065 2999 01       		.uleb128 0x1
 11066 299a 50       		.byte	0x50
 11067 299b 05       		.uleb128 0x5
 11068 299c 03       		.byte	0x3
 11069 299d 48040000 		.4byte	.LC162
 11070 29a1 00       		.byte	0
 11071 29a2 1E       		.uleb128 0x1e
 11072 29a3 56020000 		.4byte	.LVL426
 11073 29a7 3E390000 		.4byte	0x393e
 11074 29ab B9290000 		.4byte	0x29b9
 11075 29af 1F       		.uleb128 0x1f
 11076 29b0 01       		.uleb128 0x1
 11077 29b1 50       		.byte	0x50
 11078 29b2 05       		.uleb128 0x5
 11079 29b3 03       		.byte	0x3
 11080 29b4 54040000 		.4byte	.LC164
 11081 29b8 00       		.byte	0
 11082 29b9 1E       		.uleb128 0x1e
 11083 29ba 6A020000 		.4byte	.LVL429
 11084 29be B5380000 		.4byte	0x38b5
 11085 29c2 D0290000 		.4byte	0x29d0
 11086 29c6 1F       		.uleb128 0x1f
 11087 29c7 01       		.uleb128 0x1
 11088 29c8 50       		.byte	0x50
 11089 29c9 05       		.uleb128 0x5
 11090 29ca 03       		.byte	0x3
 11091 29cb 5C040000 		.4byte	.LC166
 11092 29cf 00       		.byte	0
 11093 29d0 1E       		.uleb128 0x1e
 11094 29d1 72020000 		.4byte	.LVL431
 11095 29d5 B5380000 		.4byte	0x38b5
 11096 29d9 E7290000 		.4byte	0x29e7
 11097 29dd 1F       		.uleb128 0x1f
 11098 29de 01       		.uleb128 0x1
 11099 29df 50       		.byte	0x50
 11100 29e0 05       		.uleb128 0x5
ARM GAS  C:\Users\Helon\AppData\Local\Temp\ccys0XsA.s 			page 254


 11101 29e1 03       		.byte	0x3
 11102 29e2 C0010000 		.4byte	.LC68
 11103 29e6 00       		.byte	0
 11104 29e7 1E       		.uleb128 0x1e
 11105 29e8 7A020000 		.4byte	.LVL433
 11106 29ec B5380000 		.4byte	0x38b5
 11107 29f0 FE290000 		.4byte	0x29fe
 11108 29f4 1F       		.uleb128 0x1f
 11109 29f5 01       		.uleb128 0x1
 11110 29f6 50       		.byte	0x50
 11111 29f7 05       		.uleb128 0x5
 11112 29f8 03       		.byte	0x3
 11113 29f9 CC010000 		.4byte	.LC70
 11114 29fd 00       		.byte	0
 11115 29fe 1E       		.uleb128 0x1e
 11116 29ff CE020000 		.4byte	.LVL445
 11117 2a03 3E390000 		.4byte	0x393e
 11118 2a07 1F2A0000 		.4byte	0x2a1f
 11119 2a0b 1F       		.uleb128 0x1f
 11120 2a0c 01       		.uleb128 0x1
 11121 2a0d 51       		.byte	0x51
 11122 2a0e 06       		.uleb128 0x6
 11123 2a0f 74       		.byte	0x74
 11124 2a10 00       		.sleb128 0
 11125 2a11 40       		.byte	0x40
 11126 2a12 24       		.byte	0x24
 11127 2a13 40       		.byte	0x40
 11128 2a14 26       		.byte	0x26
 11129 2a15 1F       		.uleb128 0x1f
 11130 2a16 01       		.uleb128 0x1
 11131 2a17 50       		.byte	0x50
 11132 2a18 05       		.uleb128 0x5
 11133 2a19 03       		.byte	0x3
 11134 2a1a 60040000 		.4byte	.LC168
 11135 2a1e 00       		.byte	0
 11136 2a1f 20       		.uleb128 0x20
 11137 2a20 D2020000 		.4byte	.LVL446
 11138 2a24 CE380000 		.4byte	0x38ce
 11139 2a28 1E       		.uleb128 0x1e
 11140 2a29 04030000 		.4byte	.LVL449
 11141 2a2d 99240000 		.4byte	0x2499
 11142 2a31 472A0000 		.4byte	0x2a47
 11143 2a35 1F       		.uleb128 0x1f
 11144 2a36 01       		.uleb128 0x1
 11145 2a37 52       		.byte	0x52
 11146 2a38 01       		.uleb128 0x1
 11147 2a39 31       		.byte	0x31
 11148 2a3a 1F       		.uleb128 0x1f
 11149 2a3b 01       		.uleb128 0x1
 11150 2a3c 51       		.byte	0x51
 11151 2a3d 02       		.uleb128 0x2
 11152 2a3e 74       		.byte	0x74
 11153 2a3f 00       		.sleb128 0
 11154 2a40 1F       		.uleb128 0x1f
 11155 2a41 01       		.uleb128 0x1
 11156 2a42 50       		.byte	0x50
 11157 2a43 02       		.uleb128 0x2
ARM GAS  C:\Users\Helon\AppData\Local\Temp\ccys0XsA.s 			page 255


 11158 2a44 76       		.byte	0x76
 11159 2a45 00       		.sleb128 0
 11160 2a46 00       		.byte	0
 11161 2a47 1E       		.uleb128 0x1e
 11162 2a48 1E030000 		.4byte	.LVL450
 11163 2a4c 99240000 		.4byte	0x2499
 11164 2a50 662A0000 		.4byte	0x2a66
 11165 2a54 1F       		.uleb128 0x1f
 11166 2a55 01       		.uleb128 0x1
 11167 2a56 52       		.byte	0x52
 11168 2a57 01       		.uleb128 0x1
 11169 2a58 31       		.byte	0x31
 11170 2a59 1F       		.uleb128 0x1f
 11171 2a5a 01       		.uleb128 0x1
 11172 2a5b 51       		.byte	0x51
 11173 2a5c 02       		.uleb128 0x2
 11174 2a5d 74       		.byte	0x74
 11175 2a5e 00       		.sleb128 0
 11176 2a5f 1F       		.uleb128 0x1f
 11177 2a60 01       		.uleb128 0x1
 11178 2a61 50       		.byte	0x50
 11179 2a62 02       		.uleb128 0x2
 11180 2a63 76       		.byte	0x76
 11181 2a64 00       		.sleb128 0
 11182 2a65 00       		.byte	0
 11183 2a66 1E       		.uleb128 0x1e
 11184 2a67 36030000 		.4byte	.LVL451
 11185 2a6b 99240000 		.4byte	0x2499
 11186 2a6f 852A0000 		.4byte	0x2a85
 11187 2a73 1F       		.uleb128 0x1f
 11188 2a74 01       		.uleb128 0x1
 11189 2a75 52       		.byte	0x52
 11190 2a76 01       		.uleb128 0x1
 11191 2a77 31       		.byte	0x31
 11192 2a78 1F       		.uleb128 0x1f
 11193 2a79 01       		.uleb128 0x1
 11194 2a7a 51       		.byte	0x51
 11195 2a7b 02       		.uleb128 0x2
 11196 2a7c 74       		.byte	0x74
 11197 2a7d 00       		.sleb128 0
 11198 2a7e 1F       		.uleb128 0x1f
 11199 2a7f 01       		.uleb128 0x1
 11200 2a80 50       		.byte	0x50
 11201 2a81 02       		.uleb128 0x2
 11202 2a82 76       		.byte	0x76
 11203 2a83 00       		.sleb128 0
 11204 2a84 00       		.byte	0
 11205 2a85 1E       		.uleb128 0x1e
 11206 2a86 40030000 		.4byte	.LVL452
 11207 2a8a B5380000 		.4byte	0x38b5
 11208 2a8e 9C2A0000 		.4byte	0x2a9c
 11209 2a92 1F       		.uleb128 0x1f
 11210 2a93 01       		.uleb128 0x1
 11211 2a94 50       		.byte	0x50
 11212 2a95 05       		.uleb128 0x5
 11213 2a96 03       		.byte	0x3
 11214 2a97 8C010000 		.4byte	.LC63
ARM GAS  C:\Users\Helon\AppData\Local\Temp\ccys0XsA.s 			page 256


 11215 2a9b 00       		.byte	0
 11216 2a9c 1E       		.uleb128 0x1e
 11217 2a9d 48030000 		.4byte	.LVL454
 11218 2aa1 B5380000 		.4byte	0x38b5
 11219 2aa5 B32A0000 		.4byte	0x2ab3
 11220 2aa9 1F       		.uleb128 0x1f
 11221 2aaa 01       		.uleb128 0x1
 11222 2aab 50       		.byte	0x50
 11223 2aac 05       		.uleb128 0x5
 11224 2aad 03       		.byte	0x3
 11225 2aae C0010000 		.4byte	.LC68
 11226 2ab2 00       		.byte	0
 11227 2ab3 1E       		.uleb128 0x1e
 11228 2ab4 50030000 		.4byte	.LVL456
 11229 2ab8 B5380000 		.4byte	0x38b5
 11230 2abc CA2A0000 		.4byte	0x2aca
 11231 2ac0 1F       		.uleb128 0x1f
 11232 2ac1 01       		.uleb128 0x1
 11233 2ac2 50       		.byte	0x50
 11234 2ac3 05       		.uleb128 0x5
 11235 2ac4 03       		.byte	0x3
 11236 2ac5 C0010000 		.4byte	.LC68
 11237 2ac9 00       		.byte	0
 11238 2aca 1E       		.uleb128 0x1e
 11239 2acb 58030000 		.4byte	.LVL458
 11240 2acf B5380000 		.4byte	0x38b5
 11241 2ad3 E12A0000 		.4byte	0x2ae1
 11242 2ad7 1F       		.uleb128 0x1f
 11243 2ad8 01       		.uleb128 0x1
 11244 2ad9 50       		.byte	0x50
 11245 2ada 05       		.uleb128 0x5
 11246 2adb 03       		.byte	0x3
 11247 2adc CC010000 		.4byte	.LC70
 11248 2ae0 00       		.byte	0
 11249 2ae1 1E       		.uleb128 0x1e
 11250 2ae2 7C030000 		.4byte	.LVL461
 11251 2ae6 3E390000 		.4byte	0x393e
 11252 2aea F82A0000 		.4byte	0x2af8
 11253 2aee 1F       		.uleb128 0x1f
 11254 2aef 01       		.uleb128 0x1
 11255 2af0 50       		.byte	0x50
 11256 2af1 05       		.uleb128 0x5
 11257 2af2 03       		.byte	0x3
 11258 2af3 8C040000 		.4byte	.LC171
 11259 2af7 00       		.byte	0
 11260 2af8 1E       		.uleb128 0x1e
 11261 2af9 84030000 		.4byte	.LVL463
 11262 2afd B5380000 		.4byte	0x38b5
 11263 2b01 0F2B0000 		.4byte	0x2b0f
 11264 2b05 1F       		.uleb128 0x1f
 11265 2b06 01       		.uleb128 0x1
 11266 2b07 50       		.byte	0x50
 11267 2b08 05       		.uleb128 0x5
 11268 2b09 03       		.byte	0x3
 11269 2b0a C0010000 		.4byte	.LC68
 11270 2b0e 00       		.byte	0
 11271 2b0f 1E       		.uleb128 0x1e
ARM GAS  C:\Users\Helon\AppData\Local\Temp\ccys0XsA.s 			page 257


 11272 2b10 00040000 		.4byte	.LVL466
 11273 2b14 99240000 		.4byte	0x2499
 11274 2b18 2E2B0000 		.4byte	0x2b2e
 11275 2b1c 1F       		.uleb128 0x1f
 11276 2b1d 01       		.uleb128 0x1
 11277 2b1e 52       		.byte	0x52
 11278 2b1f 01       		.uleb128 0x1
 11279 2b20 31       		.byte	0x31
 11280 2b21 1F       		.uleb128 0x1f
 11281 2b22 01       		.uleb128 0x1
 11282 2b23 51       		.byte	0x51
 11283 2b24 02       		.uleb128 0x2
 11284 2b25 74       		.byte	0x74
 11285 2b26 00       		.sleb128 0
 11286 2b27 1F       		.uleb128 0x1f
 11287 2b28 01       		.uleb128 0x1
 11288 2b29 50       		.byte	0x50
 11289 2b2a 02       		.uleb128 0x2
 11290 2b2b 76       		.byte	0x76
 11291 2b2c 00       		.sleb128 0
 11292 2b2d 00       		.byte	0
 11293 2b2e 1E       		.uleb128 0x1e
 11294 2b2f 18040000 		.4byte	.LVL467
 11295 2b33 99240000 		.4byte	0x2499
 11296 2b37 4D2B0000 		.4byte	0x2b4d
 11297 2b3b 1F       		.uleb128 0x1f
 11298 2b3c 01       		.uleb128 0x1
 11299 2b3d 52       		.byte	0x52
 11300 2b3e 01       		.uleb128 0x1
 11301 2b3f 31       		.byte	0x31
 11302 2b40 1F       		.uleb128 0x1f
 11303 2b41 01       		.uleb128 0x1
 11304 2b42 51       		.byte	0x51
 11305 2b43 02       		.uleb128 0x2
 11306 2b44 74       		.byte	0x74
 11307 2b45 00       		.sleb128 0
 11308 2b46 1F       		.uleb128 0x1f
 11309 2b47 01       		.uleb128 0x1
 11310 2b48 50       		.byte	0x50
 11311 2b49 02       		.uleb128 0x2
 11312 2b4a 76       		.byte	0x76
 11313 2b4b 00       		.sleb128 0
 11314 2b4c 00       		.byte	0
 11315 2b4d 1E       		.uleb128 0x1e
 11316 2b4e 26040000 		.4byte	.LVL468
 11317 2b52 54390000 		.4byte	0x3954
 11318 2b56 612B0000 		.4byte	0x2b61
 11319 2b5a 1F       		.uleb128 0x1f
 11320 2b5b 01       		.uleb128 0x1
 11321 2b5c 51       		.byte	0x51
 11322 2b5d 02       		.uleb128 0x2
 11323 2b5e 77       		.byte	0x77
 11324 2b5f 00       		.sleb128 0
 11325 2b60 00       		.byte	0
 11326 2b61 1E       		.uleb128 0x1e
 11327 2b62 30040000 		.4byte	.LVL470
 11328 2b66 B5380000 		.4byte	0x38b5
ARM GAS  C:\Users\Helon\AppData\Local\Temp\ccys0XsA.s 			page 258


 11329 2b6a 782B0000 		.4byte	0x2b78
 11330 2b6e 1F       		.uleb128 0x1f
 11331 2b6f 01       		.uleb128 0x1
 11332 2b70 50       		.byte	0x50
 11333 2b71 05       		.uleb128 0x5
 11334 2b72 03       		.byte	0x3
 11335 2b73 8C010000 		.4byte	.LC63
 11336 2b77 00       		.byte	0
 11337 2b78 1E       		.uleb128 0x1e
 11338 2b79 38040000 		.4byte	.LVL473
 11339 2b7d B5380000 		.4byte	0x38b5
 11340 2b81 8F2B0000 		.4byte	0x2b8f
 11341 2b85 1F       		.uleb128 0x1f
 11342 2b86 01       		.uleb128 0x1
 11343 2b87 50       		.byte	0x50
 11344 2b88 05       		.uleb128 0x5
 11345 2b89 03       		.byte	0x3
 11346 2b8a 3C040000 		.4byte	.LC157
 11347 2b8e 00       		.byte	0
 11348 2b8f 1E       		.uleb128 0x1e
 11349 2b90 40040000 		.4byte	.LVL475
 11350 2b94 B5380000 		.4byte	0x38b5
 11351 2b98 A62B0000 		.4byte	0x2ba6
 11352 2b9c 1F       		.uleb128 0x1f
 11353 2b9d 01       		.uleb128 0x1
 11354 2b9e 50       		.byte	0x50
 11355 2b9f 05       		.uleb128 0x5
 11356 2ba0 03       		.byte	0x3
 11357 2ba1 CC010000 		.4byte	.LC70
 11358 2ba5 00       		.byte	0
 11359 2ba6 1E       		.uleb128 0x1e
 11360 2ba7 62040000 		.4byte	.LVL479
 11361 2bab B5380000 		.4byte	0x38b5
 11362 2baf BD2B0000 		.4byte	0x2bbd
 11363 2bb3 1F       		.uleb128 0x1f
 11364 2bb4 01       		.uleb128 0x1
 11365 2bb5 50       		.byte	0x50
 11366 2bb6 05       		.uleb128 0x5
 11367 2bb7 03       		.byte	0x3
 11368 2bb8 C8040000 		.4byte	.LC175
 11369 2bbc 00       		.byte	0
 11370 2bbd 1E       		.uleb128 0x1e
 11371 2bbe 6A040000 		.4byte	.LVL481
 11372 2bc2 B5380000 		.4byte	0x38b5
 11373 2bc6 D42B0000 		.4byte	0x2bd4
 11374 2bca 1F       		.uleb128 0x1f
 11375 2bcb 01       		.uleb128 0x1
 11376 2bcc 50       		.byte	0x50
 11377 2bcd 05       		.uleb128 0x5
 11378 2bce 03       		.byte	0x3
 11379 2bcf DC040000 		.4byte	.LC177
 11380 2bd3 00       		.byte	0
 11381 2bd4 1E       		.uleb128 0x1e
 11382 2bd5 80040000 		.4byte	.LVL484
 11383 2bd9 C33C0000 		.4byte	0x3cc3
 11384 2bdd EF2B0000 		.4byte	0x2bef
 11385 2be1 1F       		.uleb128 0x1f
ARM GAS  C:\Users\Helon\AppData\Local\Temp\ccys0XsA.s 			page 259


 11386 2be2 01       		.uleb128 0x1
 11387 2be3 51       		.byte	0x51
 11388 2be4 03       		.uleb128 0x3
 11389 2be5 91       		.byte	0x91
 11390 2be6 DC7E     		.sleb128 -164
 11391 2be8 1F       		.uleb128 0x1f
 11392 2be9 01       		.uleb128 0x1
 11393 2bea 50       		.byte	0x50
 11394 2beb 02       		.uleb128 0x2
 11395 2bec 74       		.byte	0x74
 11396 2bed 00       		.sleb128 0
 11397 2bee 00       		.byte	0
 11398 2bef 20       		.uleb128 0x20
 11399 2bf0 8E040000 		.4byte	.LVL485
 11400 2bf4 F1380000 		.4byte	0x38f1
 11401 2bf8 1E       		.uleb128 0x1e
 11402 2bf9 94040000 		.4byte	.LVL486
 11403 2bfd E33C0000 		.4byte	0x3ce3
 11404 2c01 0C2C0000 		.4byte	0x2c0c
 11405 2c05 1F       		.uleb128 0x1f
 11406 2c06 01       		.uleb128 0x1
 11407 2c07 50       		.byte	0x50
 11408 2c08 02       		.uleb128 0x2
 11409 2c09 74       		.byte	0x74
 11410 2c0a 00       		.sleb128 0
 11411 2c0b 00       		.byte	0
 11412 2c0c 1E       		.uleb128 0x1e
 11413 2c0d A0040000 		.4byte	.LVL487
 11414 2c11 B5380000 		.4byte	0x38b5
 11415 2c15 232C0000 		.4byte	0x2c23
 11416 2c19 1F       		.uleb128 0x1f
 11417 2c1a 01       		.uleb128 0x1
 11418 2c1b 50       		.byte	0x50
 11419 2c1c 05       		.uleb128 0x5
 11420 2c1d 03       		.byte	0x3
 11421 2c1e 8C010000 		.4byte	.LC63
 11422 2c22 00       		.byte	0
 11423 2c23 1E       		.uleb128 0x1e
 11424 2c24 A8040000 		.4byte	.LVL489
 11425 2c28 B5380000 		.4byte	0x38b5
 11426 2c2c 3A2C0000 		.4byte	0x2c3a
 11427 2c30 1F       		.uleb128 0x1f
 11428 2c31 01       		.uleb128 0x1
 11429 2c32 50       		.byte	0x50
 11430 2c33 05       		.uleb128 0x5
 11431 2c34 03       		.byte	0x3
 11432 2c35 C0010000 		.4byte	.LC68
 11433 2c39 00       		.byte	0
 11434 2c3a 1E       		.uleb128 0x1e
 11435 2c3b BE040000 		.4byte	.LVL492
 11436 2c3f C33C0000 		.4byte	0x3cc3
 11437 2c43 552C0000 		.4byte	0x2c55
 11438 2c47 1F       		.uleb128 0x1f
 11439 2c48 01       		.uleb128 0x1
 11440 2c49 51       		.byte	0x51
 11441 2c4a 03       		.uleb128 0x3
 11442 2c4b 91       		.byte	0x91
ARM GAS  C:\Users\Helon\AppData\Local\Temp\ccys0XsA.s 			page 260


 11443 2c4c DC7E     		.sleb128 -164
 11444 2c4e 1F       		.uleb128 0x1f
 11445 2c4f 01       		.uleb128 0x1
 11446 2c50 50       		.byte	0x50
 11447 2c51 02       		.uleb128 0x2
 11448 2c52 74       		.byte	0x74
 11449 2c53 00       		.sleb128 0
 11450 2c54 00       		.byte	0
 11451 2c55 20       		.uleb128 0x20
 11452 2c56 CC040000 		.4byte	.LVL493
 11453 2c5a 7F3C0000 		.4byte	0x3c7f
 11454 2c5e 1E       		.uleb128 0x1e
 11455 2c5f D2040000 		.4byte	.LVL494
 11456 2c63 F93C0000 		.4byte	0x3cf9
 11457 2c67 722C0000 		.4byte	0x2c72
 11458 2c6b 1F       		.uleb128 0x1f
 11459 2c6c 01       		.uleb128 0x1
 11460 2c6d 50       		.byte	0x50
 11461 2c6e 02       		.uleb128 0x2
 11462 2c6f 74       		.byte	0x74
 11463 2c70 00       		.sleb128 0
 11464 2c71 00       		.byte	0
 11465 2c72 1E       		.uleb128 0x1e
 11466 2c73 DE040000 		.4byte	.LVL495
 11467 2c77 B5380000 		.4byte	0x38b5
 11468 2c7b 892C0000 		.4byte	0x2c89
 11469 2c7f 1F       		.uleb128 0x1f
 11470 2c80 01       		.uleb128 0x1
 11471 2c81 50       		.byte	0x50
 11472 2c82 05       		.uleb128 0x5
 11473 2c83 03       		.byte	0x3
 11474 2c84 8C010000 		.4byte	.LC63
 11475 2c88 00       		.byte	0
 11476 2c89 1E       		.uleb128 0x1e
 11477 2c8a E6040000 		.4byte	.LVL497
 11478 2c8e B5380000 		.4byte	0x38b5
 11479 2c92 A02C0000 		.4byte	0x2ca0
 11480 2c96 1F       		.uleb128 0x1f
 11481 2c97 01       		.uleb128 0x1
 11482 2c98 50       		.byte	0x50
 11483 2c99 05       		.uleb128 0x5
 11484 2c9a 03       		.byte	0x3
 11485 2c9b C0010000 		.4byte	.LC68
 11486 2c9f 00       		.byte	0
 11487 2ca0 1E       		.uleb128 0x1e
 11488 2ca1 06050000 		.4byte	.LVL499
 11489 2ca5 0F3D0000 		.4byte	0x3d0f
 11490 2ca9 B52C0000 		.4byte	0x2cb5
 11491 2cad 1F       		.uleb128 0x1f
 11492 2cae 01       		.uleb128 0x1
 11493 2caf 51       		.byte	0x51
 11494 2cb0 03       		.uleb128 0x3
 11495 2cb1 91       		.byte	0x91
 11496 2cb2 D47E     		.sleb128 -172
 11497 2cb4 00       		.byte	0
 11498 2cb5 1E       		.uleb128 0x1e
 11499 2cb6 0E050000 		.4byte	.LVL501
ARM GAS  C:\Users\Helon\AppData\Local\Temp\ccys0XsA.s 			page 261


 11500 2cba B5380000 		.4byte	0x38b5
 11501 2cbe CC2C0000 		.4byte	0x2ccc
 11502 2cc2 1F       		.uleb128 0x1f
 11503 2cc3 01       		.uleb128 0x1
 11504 2cc4 50       		.byte	0x50
 11505 2cc5 05       		.uleb128 0x5
 11506 2cc6 03       		.byte	0x3
 11507 2cc7 CC010000 		.4byte	.LC70
 11508 2ccb 00       		.byte	0
 11509 2ccc 20       		.uleb128 0x20
 11510 2ccd 2A050000 		.4byte	.LVL502
 11511 2cd1 303D0000 		.4byte	0x3d30
 11512 2cd5 1E       		.uleb128 0x1e
 11513 2cd6 30050000 		.4byte	.LVL503
 11514 2cda F93C0000 		.4byte	0x3cf9
 11515 2cde E92C0000 		.4byte	0x2ce9
 11516 2ce2 1F       		.uleb128 0x1f
 11517 2ce3 01       		.uleb128 0x1
 11518 2ce4 50       		.byte	0x50
 11519 2ce5 02       		.uleb128 0x2
 11520 2ce6 74       		.byte	0x74
 11521 2ce7 00       		.sleb128 0
 11522 2ce8 00       		.byte	0
 11523 2ce9 1E       		.uleb128 0x1e
 11524 2cea 3A050000 		.4byte	.LVL504
 11525 2cee B5380000 		.4byte	0x38b5
 11526 2cf2 002D0000 		.4byte	0x2d00
 11527 2cf6 1F       		.uleb128 0x1f
 11528 2cf7 01       		.uleb128 0x1
 11529 2cf8 50       		.byte	0x50
 11530 2cf9 05       		.uleb128 0x5
 11531 2cfa 03       		.byte	0x3
 11532 2cfb 8C010000 		.4byte	.LC63
 11533 2cff 00       		.byte	0
 11534 2d00 1E       		.uleb128 0x1e
 11535 2d01 42050000 		.4byte	.LVL505
 11536 2d05 B5380000 		.4byte	0x38b5
 11537 2d09 172D0000 		.4byte	0x2d17
 11538 2d0d 1F       		.uleb128 0x1f
 11539 2d0e 01       		.uleb128 0x1
 11540 2d0f 50       		.byte	0x50
 11541 2d10 05       		.uleb128 0x5
 11542 2d11 03       		.byte	0x3
 11543 2d12 3C040000 		.4byte	.LC157
 11544 2d16 00       		.byte	0
 11545 2d17 1E       		.uleb128 0x1e
 11546 2d18 4A050000 		.4byte	.LVL506
 11547 2d1c B5380000 		.4byte	0x38b5
 11548 2d20 2E2D0000 		.4byte	0x2d2e
 11549 2d24 1F       		.uleb128 0x1f
 11550 2d25 01       		.uleb128 0x1
 11551 2d26 50       		.byte	0x50
 11552 2d27 05       		.uleb128 0x5
 11553 2d28 03       		.byte	0x3
 11554 2d29 C0010000 		.4byte	.LC68
 11555 2d2d 00       		.byte	0
 11556 2d2e 20       		.uleb128 0x20
ARM GAS  C:\Users\Helon\AppData\Local\Temp\ccys0XsA.s 			page 262


 11557 2d2f 5C050000 		.4byte	.LVL507
 11558 2d33 303D0000 		.4byte	0x3d30
 11559 2d37 20       		.uleb128 0x20
 11560 2d38 60050000 		.4byte	.LVL508
 11561 2d3c F1380000 		.4byte	0x38f1
 11562 2d40 1E       		.uleb128 0x1e
 11563 2d41 6C050000 		.4byte	.LVL509
 11564 2d45 B5380000 		.4byte	0x38b5
 11565 2d49 572D0000 		.4byte	0x2d57
 11566 2d4d 1F       		.uleb128 0x1f
 11567 2d4e 01       		.uleb128 0x1
 11568 2d4f 50       		.byte	0x50
 11569 2d50 05       		.uleb128 0x5
 11570 2d51 03       		.byte	0x3
 11571 2d52 8C010000 		.4byte	.LC63
 11572 2d56 00       		.byte	0
 11573 2d57 1E       		.uleb128 0x1e
 11574 2d58 74050000 		.4byte	.LVL510
 11575 2d5c B5380000 		.4byte	0x38b5
 11576 2d60 6E2D0000 		.4byte	0x2d6e
 11577 2d64 1F       		.uleb128 0x1f
 11578 2d65 01       		.uleb128 0x1
 11579 2d66 50       		.byte	0x50
 11580 2d67 05       		.uleb128 0x5
 11581 2d68 03       		.byte	0x3
 11582 2d69 C0010000 		.4byte	.LC68
 11583 2d6d 00       		.byte	0
 11584 2d6e 1E       		.uleb128 0x1e
 11585 2d6f B0050000 		.4byte	.LVL512
 11586 2d73 3E390000 		.4byte	0x393e
 11587 2d77 9A2D0000 		.4byte	0x2d9a
 11588 2d7b 1F       		.uleb128 0x1f
 11589 2d7c 01       		.uleb128 0x1
 11590 2d7d 50       		.byte	0x50
 11591 2d7e 05       		.uleb128 0x5
 11592 2d7f 03       		.byte	0x3
 11593 2d80 F0040000 		.4byte	.LC180
 11594 2d84 1F       		.uleb128 0x1f
 11595 2d85 02       		.uleb128 0x2
 11596 2d86 7D       		.byte	0x7d
 11597 2d87 08       		.sleb128 8
 11598 2d88 02       		.uleb128 0x2
 11599 2d89 77       		.byte	0x77
 11600 2d8a 00       		.sleb128 0
 11601 2d8b 1F       		.uleb128 0x1f
 11602 2d8c 02       		.uleb128 0x2
 11603 2d8d 7D       		.byte	0x7d
 11604 2d8e 04       		.sleb128 4
 11605 2d8f 02       		.uleb128 0x2
 11606 2d90 75       		.byte	0x75
 11607 2d91 00       		.sleb128 0
 11608 2d92 1F       		.uleb128 0x1f
 11609 2d93 02       		.uleb128 0x2
 11610 2d94 7D       		.byte	0x7d
 11611 2d95 00       		.sleb128 0
 11612 2d96 02       		.uleb128 0x2
 11613 2d97 78       		.byte	0x78
ARM GAS  C:\Users\Helon\AppData\Local\Temp\ccys0XsA.s 			page 263


 11614 2d98 00       		.sleb128 0
 11615 2d99 00       		.byte	0
 11616 2d9a 1E       		.uleb128 0x1e
 11617 2d9b C8050000 		.4byte	.LVL518
 11618 2d9f B5380000 		.4byte	0x38b5
 11619 2da3 B12D0000 		.4byte	0x2db1
 11620 2da7 1F       		.uleb128 0x1f
 11621 2da8 01       		.uleb128 0x1
 11622 2da9 50       		.byte	0x50
 11623 2daa 05       		.uleb128 0x5
 11624 2dab 03       		.byte	0x3
 11625 2dac CC010000 		.4byte	.LC70
 11626 2db0 00       		.byte	0
 11627 2db1 20       		.uleb128 0x20
 11628 2db2 D8050000 		.4byte	.LVL520
 11629 2db6 741C0000 		.4byte	0x1c74
 11630 2dba 1E       		.uleb128 0x1e
 11631 2dbb E0050000 		.4byte	.LVL522
 11632 2dbf B5380000 		.4byte	0x38b5
 11633 2dc3 D12D0000 		.4byte	0x2dd1
 11634 2dc7 1F       		.uleb128 0x1f
 11635 2dc8 01       		.uleb128 0x1
 11636 2dc9 50       		.byte	0x50
 11637 2dca 05       		.uleb128 0x5
 11638 2dcb 03       		.byte	0x3
 11639 2dcc CC010000 		.4byte	.LC70
 11640 2dd0 00       		.byte	0
 11641 2dd1 20       		.uleb128 0x20
 11642 2dd2 FA050000 		.4byte	.LVL524
 11643 2dd6 373D0000 		.4byte	0x3d37
 11644 2dda 1E       		.uleb128 0x1e
 11645 2ddb 08060000 		.4byte	.LVL527
 11646 2ddf 3E390000 		.4byte	0x393e
 11647 2de3 F72D0000 		.4byte	0x2df7
 11648 2de7 1F       		.uleb128 0x1f
 11649 2de8 01       		.uleb128 0x1
 11650 2de9 51       		.byte	0x51
 11651 2dea 02       		.uleb128 0x2
 11652 2deb 74       		.byte	0x74
 11653 2dec 50       		.sleb128 -48
 11654 2ded 1F       		.uleb128 0x1f
 11655 2dee 01       		.uleb128 0x1
 11656 2def 50       		.byte	0x50
 11657 2df0 05       		.uleb128 0x5
 11658 2df1 03       		.byte	0x3
 11659 2df2 74010000 		.4byte	.LC60
 11660 2df6 00       		.byte	0
 11661 2df7 1E       		.uleb128 0x1e
 11662 2df8 54060000 		.4byte	.LVL539
 11663 2dfc B5380000 		.4byte	0x38b5
 11664 2e00 0E2E0000 		.4byte	0x2e0e
 11665 2e04 1F       		.uleb128 0x1f
 11666 2e05 01       		.uleb128 0x1
 11667 2e06 50       		.byte	0x50
 11668 2e07 05       		.uleb128 0x5
 11669 2e08 03       		.byte	0x3
 11670 2e09 8C010000 		.4byte	.LC63
ARM GAS  C:\Users\Helon\AppData\Local\Temp\ccys0XsA.s 			page 264


 11671 2e0d 00       		.byte	0
 11672 2e0e 1E       		.uleb128 0x1e
 11673 2e0f 5C060000 		.4byte	.LVL541
 11674 2e13 B5380000 		.4byte	0x38b5
 11675 2e17 252E0000 		.4byte	0x2e25
 11676 2e1b 1F       		.uleb128 0x1f
 11677 2e1c 01       		.uleb128 0x1
 11678 2e1d 50       		.byte	0x50
 11679 2e1e 05       		.uleb128 0x5
 11680 2e1f 03       		.byte	0x3
 11681 2e20 C0010000 		.4byte	.LC68
 11682 2e24 00       		.byte	0
 11683 2e25 20       		.uleb128 0x20
 11684 2e26 72060000 		.4byte	.LVL543
 11685 2e2a 4D3D0000 		.4byte	0x3d4d
 11686 2e2e 1E       		.uleb128 0x1e
 11687 2e2f 7A060000 		.4byte	.LVL544
 11688 2e33 3E390000 		.4byte	0x393e
 11689 2e37 452E0000 		.4byte	0x2e45
 11690 2e3b 1F       		.uleb128 0x1f
 11691 2e3c 01       		.uleb128 0x1
 11692 2e3d 50       		.byte	0x50
 11693 2e3e 05       		.uleb128 0x5
 11694 2e3f 03       		.byte	0x3
 11695 2e40 1C050000 		.4byte	.LC185
 11696 2e44 00       		.byte	0
 11697 2e45 1E       		.uleb128 0x1e
 11698 2e46 82060000 		.4byte	.LVL546
 11699 2e4a B5380000 		.4byte	0x38b5
 11700 2e4e 5C2E0000 		.4byte	0x2e5c
 11701 2e52 1F       		.uleb128 0x1f
 11702 2e53 01       		.uleb128 0x1
 11703 2e54 50       		.byte	0x50
 11704 2e55 05       		.uleb128 0x5
 11705 2e56 03       		.byte	0x3
 11706 2e57 C0010000 		.4byte	.LC68
 11707 2e5b 00       		.byte	0
 11708 2e5c 1E       		.uleb128 0x1e
 11709 2e5d 96060000 		.4byte	.LVL548
 11710 2e61 3E390000 		.4byte	0x393e
 11711 2e65 732E0000 		.4byte	0x2e73
 11712 2e69 1F       		.uleb128 0x1f
 11713 2e6a 01       		.uleb128 0x1
 11714 2e6b 50       		.byte	0x50
 11715 2e6c 05       		.uleb128 0x5
 11716 2e6d 03       		.byte	0x3
 11717 2e6e 2C050000 		.4byte	.LC187
 11718 2e72 00       		.byte	0
 11719 2e73 1E       		.uleb128 0x1e
 11720 2e74 D2060000 		.4byte	.LVL553
 11721 2e78 AF3B0000 		.4byte	0x3baf
 11722 2e7c 8A2E0000 		.4byte	0x2e8a
 11723 2e80 1F       		.uleb128 0x1f
 11724 2e81 01       		.uleb128 0x1
 11725 2e82 51       		.byte	0x51
 11726 2e83 05       		.uleb128 0x5
 11727 2e84 03       		.byte	0x3
ARM GAS  C:\Users\Helon\AppData\Local\Temp\ccys0XsA.s 			page 265


 11728 2e85 00000000 		.4byte	writeRequestData
 11729 2e89 00       		.byte	0
 11730 2e8a 1E       		.uleb128 0x1e
 11731 2e8b E4060000 		.4byte	.LVL555
 11732 2e8f B5380000 		.4byte	0x38b5
 11733 2e93 A12E0000 		.4byte	0x2ea1
 11734 2e97 1F       		.uleb128 0x1f
 11735 2e98 01       		.uleb128 0x1
 11736 2e99 50       		.byte	0x50
 11737 2e9a 05       		.uleb128 0x5
 11738 2e9b 03       		.byte	0x3
 11739 2e9c A0000000 		.4byte	.LC24
 11740 2ea0 00       		.byte	0
 11741 2ea1 1E       		.uleb128 0x1e
 11742 2ea2 EC060000 		.4byte	.LVL557
 11743 2ea6 B5380000 		.4byte	0x38b5
 11744 2eaa B82E0000 		.4byte	0x2eb8
 11745 2eae 1F       		.uleb128 0x1f
 11746 2eaf 01       		.uleb128 0x1
 11747 2eb0 50       		.byte	0x50
 11748 2eb1 05       		.uleb128 0x5
 11749 2eb2 03       		.byte	0x3
 11750 2eb3 B8000000 		.4byte	.LC26
 11751 2eb7 00       		.byte	0
 11752 2eb8 1E       		.uleb128 0x1e
 11753 2eb9 60070000 		.4byte	.LVL560
 11754 2ebd B5380000 		.4byte	0x38b5
 11755 2ec1 CF2E0000 		.4byte	0x2ecf
 11756 2ec5 1F       		.uleb128 0x1f
 11757 2ec6 01       		.uleb128 0x1
 11758 2ec7 50       		.byte	0x50
 11759 2ec8 05       		.uleb128 0x5
 11760 2ec9 03       		.byte	0x3
 11761 2eca A0000000 		.4byte	.LC24
 11762 2ece 00       		.byte	0
 11763 2ecf 1E       		.uleb128 0x1e
 11764 2ed0 68070000 		.4byte	.LVL562
 11765 2ed4 B5380000 		.4byte	0x38b5
 11766 2ed8 E62E0000 		.4byte	0x2ee6
 11767 2edc 1F       		.uleb128 0x1f
 11768 2edd 01       		.uleb128 0x1
 11769 2ede 50       		.byte	0x50
 11770 2edf 05       		.uleb128 0x5
 11771 2ee0 03       		.byte	0x3
 11772 2ee1 B8000000 		.4byte	.LC26
 11773 2ee5 00       		.byte	0
 11774 2ee6 1E       		.uleb128 0x1e
 11775 2ee7 70070000 		.4byte	.LVL564
 11776 2eeb B5380000 		.4byte	0x38b5
 11777 2eef FD2E0000 		.4byte	0x2efd
 11778 2ef3 1F       		.uleb128 0x1f
 11779 2ef4 01       		.uleb128 0x1
 11780 2ef5 50       		.byte	0x50
 11781 2ef6 05       		.uleb128 0x5
 11782 2ef7 03       		.byte	0x3
 11783 2ef8 C0010000 		.4byte	.LC68
 11784 2efc 00       		.byte	0
ARM GAS  C:\Users\Helon\AppData\Local\Temp\ccys0XsA.s 			page 266


 11785 2efd 1E       		.uleb128 0x1e
 11786 2efe 92070000 		.4byte	.LVL570
 11787 2f02 B5380000 		.4byte	0x38b5
 11788 2f06 142F0000 		.4byte	0x2f14
 11789 2f0a 1F       		.uleb128 0x1f
 11790 2f0b 01       		.uleb128 0x1
 11791 2f0c 50       		.byte	0x50
 11792 2f0d 05       		.uleb128 0x5
 11793 2f0e 03       		.byte	0x3
 11794 2f0f 34050000 		.4byte	.LC193
 11795 2f13 00       		.byte	0
 11796 2f14 1E       		.uleb128 0x1e
 11797 2f15 9A070000 		.4byte	.LVL572
 11798 2f19 B5380000 		.4byte	0x38b5
 11799 2f1d 2B2F0000 		.4byte	0x2f2b
 11800 2f21 1F       		.uleb128 0x1f
 11801 2f22 01       		.uleb128 0x1
 11802 2f23 50       		.byte	0x50
 11803 2f24 05       		.uleb128 0x5
 11804 2f25 03       		.byte	0x3
 11805 2f26 4C050000 		.4byte	.LC195
 11806 2f2a 00       		.byte	0
 11807 2f2b 1E       		.uleb128 0x1e
 11808 2f2c A2070000 		.4byte	.LVL574
 11809 2f30 B5380000 		.4byte	0x38b5
 11810 2f34 422F0000 		.4byte	0x2f42
 11811 2f38 1F       		.uleb128 0x1f
 11812 2f39 01       		.uleb128 0x1
 11813 2f3a 50       		.byte	0x50
 11814 2f3b 05       		.uleb128 0x5
 11815 2f3c 03       		.byte	0x3
 11816 2f3d 6C050000 		.4byte	.LC197
 11817 2f41 00       		.byte	0
 11818 2f42 1E       		.uleb128 0x1e
 11819 2f43 AA070000 		.4byte	.LVL576
 11820 2f47 B5380000 		.4byte	0x38b5
 11821 2f4b 592F0000 		.4byte	0x2f59
 11822 2f4f 1F       		.uleb128 0x1f
 11823 2f50 01       		.uleb128 0x1
 11824 2f51 50       		.byte	0x50
 11825 2f52 05       		.uleb128 0x5
 11826 2f53 03       		.byte	0x3
 11827 2f54 88050000 		.4byte	.LC199
 11828 2f58 00       		.byte	0
 11829 2f59 1E       		.uleb128 0x1e
 11830 2f5a B2070000 		.4byte	.LVL578
 11831 2f5e B5380000 		.4byte	0x38b5
 11832 2f62 702F0000 		.4byte	0x2f70
 11833 2f66 1F       		.uleb128 0x1f
 11834 2f67 01       		.uleb128 0x1
 11835 2f68 50       		.byte	0x50
 11836 2f69 05       		.uleb128 0x5
 11837 2f6a 03       		.byte	0x3
 11838 2f6b A4050000 		.4byte	.LC201
 11839 2f6f 00       		.byte	0
 11840 2f70 1E       		.uleb128 0x1e
 11841 2f71 BA070000 		.4byte	.LVL580
ARM GAS  C:\Users\Helon\AppData\Local\Temp\ccys0XsA.s 			page 267


 11842 2f75 B5380000 		.4byte	0x38b5
 11843 2f79 872F0000 		.4byte	0x2f87
 11844 2f7d 1F       		.uleb128 0x1f
 11845 2f7e 01       		.uleb128 0x1
 11846 2f7f 50       		.byte	0x50
 11847 2f80 05       		.uleb128 0x5
 11848 2f81 03       		.byte	0x3
 11849 2f82 C0050000 		.4byte	.LC203
 11850 2f86 00       		.byte	0
 11851 2f87 1E       		.uleb128 0x1e
 11852 2f88 C2070000 		.4byte	.LVL582
 11853 2f8c B5380000 		.4byte	0x38b5
 11854 2f90 9E2F0000 		.4byte	0x2f9e
 11855 2f94 1F       		.uleb128 0x1f
 11856 2f95 01       		.uleb128 0x1
 11857 2f96 50       		.byte	0x50
 11858 2f97 05       		.uleb128 0x5
 11859 2f98 03       		.byte	0x3
 11860 2f99 DC050000 		.4byte	.LC205
 11861 2f9d 00       		.byte	0
 11862 2f9e 1E       		.uleb128 0x1e
 11863 2f9f DC070000 		.4byte	.LVL585
 11864 2fa3 E33C0000 		.4byte	0x3ce3
 11865 2fa7 B22F0000 		.4byte	0x2fb2
 11866 2fab 1F       		.uleb128 0x1f
 11867 2fac 01       		.uleb128 0x1
 11868 2fad 50       		.byte	0x50
 11869 2fae 02       		.uleb128 0x2
 11870 2faf 74       		.byte	0x74
 11871 2fb0 00       		.sleb128 0
 11872 2fb1 00       		.byte	0
 11873 2fb2 1E       		.uleb128 0x1e
 11874 2fb3 E6070000 		.4byte	.LVL587
 11875 2fb7 B5380000 		.4byte	0x38b5
 11876 2fbb C92F0000 		.4byte	0x2fc9
 11877 2fbf 1F       		.uleb128 0x1f
 11878 2fc0 01       		.uleb128 0x1
 11879 2fc1 50       		.byte	0x50
 11880 2fc2 05       		.uleb128 0x5
 11881 2fc3 03       		.byte	0x3
 11882 2fc4 8C010000 		.4byte	.LC63
 11883 2fc8 00       		.byte	0
 11884 2fc9 1E       		.uleb128 0x1e
 11885 2fca EE070000 		.4byte	.LVL590
 11886 2fce B5380000 		.4byte	0x38b5
 11887 2fd2 E02F0000 		.4byte	0x2fe0
 11888 2fd6 1F       		.uleb128 0x1f
 11889 2fd7 01       		.uleb128 0x1
 11890 2fd8 50       		.byte	0x50
 11891 2fd9 05       		.uleb128 0x5
 11892 2fda 03       		.byte	0x3
 11893 2fdb 3C040000 		.4byte	.LC157
 11894 2fdf 00       		.byte	0
 11895 2fe0 1E       		.uleb128 0x1e
 11896 2fe1 F6070000 		.4byte	.LVL592
 11897 2fe5 B5380000 		.4byte	0x38b5
 11898 2fe9 F72F0000 		.4byte	0x2ff7
ARM GAS  C:\Users\Helon\AppData\Local\Temp\ccys0XsA.s 			page 268


 11899 2fed 1F       		.uleb128 0x1f
 11900 2fee 01       		.uleb128 0x1
 11901 2fef 50       		.byte	0x50
 11902 2ff0 05       		.uleb128 0x5
 11903 2ff1 03       		.byte	0x3
 11904 2ff2 C0010000 		.4byte	.LC68
 11905 2ff6 00       		.byte	0
 11906 2ff7 20       		.uleb128 0x20
 11907 2ff8 06080000 		.4byte	.LVL594
 11908 2ffc 7F3C0000 		.4byte	0x3c7f
 11909 3000 1E       		.uleb128 0x1e
 11910 3001 0C080000 		.4byte	.LVL595
 11911 3005 B5380000 		.4byte	0x38b5
 11912 3009 17300000 		.4byte	0x3017
 11913 300d 1F       		.uleb128 0x1f
 11914 300e 01       		.uleb128 0x1
 11915 300f 50       		.byte	0x50
 11916 3010 05       		.uleb128 0x5
 11917 3011 03       		.byte	0x3
 11918 3012 8C010000 		.4byte	.LC63
 11919 3016 00       		.byte	0
 11920 3017 1E       		.uleb128 0x1e
 11921 3018 14080000 		.4byte	.LVL597
 11922 301c B5380000 		.4byte	0x38b5
 11923 3020 2E300000 		.4byte	0x302e
 11924 3024 1F       		.uleb128 0x1f
 11925 3025 01       		.uleb128 0x1
 11926 3026 50       		.byte	0x50
 11927 3027 05       		.uleb128 0x5
 11928 3028 03       		.byte	0x3
 11929 3029 C0010000 		.4byte	.LC68
 11930 302d 00       		.byte	0
 11931 302e 1E       		.uleb128 0x1e
 11932 302f 1C080000 		.4byte	.LVL599
 11933 3033 B5380000 		.4byte	0x38b5
 11934 3037 45300000 		.4byte	0x3045
 11935 303b 1F       		.uleb128 0x1f
 11936 303c 01       		.uleb128 0x1
 11937 303d 50       		.byte	0x50
 11938 303e 05       		.uleb128 0x5
 11939 303f 03       		.byte	0x3
 11940 3040 C0010000 		.4byte	.LC68
 11941 3044 00       		.byte	0
 11942 3045 1E       		.uleb128 0x1e
 11943 3046 40080000 		.4byte	.LVL604
 11944 304a 593D0000 		.4byte	0x3d59
 11945 304e 59300000 		.4byte	0x3059
 11946 3052 1F       		.uleb128 0x1f
 11947 3053 01       		.uleb128 0x1
 11948 3054 50       		.byte	0x50
 11949 3055 02       		.uleb128 0x2
 11950 3056 74       		.byte	0x74
 11951 3057 00       		.sleb128 0
 11952 3058 00       		.byte	0
 11953 3059 1E       		.uleb128 0x1e
 11954 305a 4A080000 		.4byte	.LVL606
 11955 305e B5380000 		.4byte	0x38b5
ARM GAS  C:\Users\Helon\AppData\Local\Temp\ccys0XsA.s 			page 269


 11956 3062 70300000 		.4byte	0x3070
 11957 3066 1F       		.uleb128 0x1f
 11958 3067 01       		.uleb128 0x1
 11959 3068 50       		.byte	0x50
 11960 3069 05       		.uleb128 0x5
 11961 306a 03       		.byte	0x3
 11962 306b 8C010000 		.4byte	.LC63
 11963 306f 00       		.byte	0
 11964 3070 1E       		.uleb128 0x1e
 11965 3071 5A080000 		.4byte	.LVL609
 11966 3075 B5380000 		.4byte	0x38b5
 11967 3079 87300000 		.4byte	0x3087
 11968 307d 1F       		.uleb128 0x1f
 11969 307e 01       		.uleb128 0x1
 11970 307f 50       		.byte	0x50
 11971 3080 05       		.uleb128 0x5
 11972 3081 03       		.byte	0x3
 11973 3082 3C040000 		.4byte	.LC157
 11974 3086 00       		.byte	0
 11975 3087 1E       		.uleb128 0x1e
 11976 3088 62080000 		.4byte	.LVL611
 11977 308c 593D0000 		.4byte	0x3d59
 11978 3090 9A300000 		.4byte	0x309a
 11979 3094 1F       		.uleb128 0x1f
 11980 3095 01       		.uleb128 0x1
 11981 3096 50       		.byte	0x50
 11982 3097 01       		.uleb128 0x1
 11983 3098 31       		.byte	0x31
 11984 3099 00       		.byte	0
 11985 309a 1E       		.uleb128 0x1e
 11986 309b 6C080000 		.4byte	.LVL613
 11987 309f B5380000 		.4byte	0x38b5
 11988 30a3 B1300000 		.4byte	0x30b1
 11989 30a7 1F       		.uleb128 0x1f
 11990 30a8 01       		.uleb128 0x1
 11991 30a9 50       		.byte	0x50
 11992 30aa 05       		.uleb128 0x5
 11993 30ab 03       		.byte	0x3
 11994 30ac 8C010000 		.4byte	.LC63
 11995 30b0 00       		.byte	0
 11996 30b1 1E       		.uleb128 0x1e
 11997 30b2 7C080000 		.4byte	.LVL616
 11998 30b6 B5380000 		.4byte	0x38b5
 11999 30ba C8300000 		.4byte	0x30c8
 12000 30be 1F       		.uleb128 0x1f
 12001 30bf 01       		.uleb128 0x1
 12002 30c0 50       		.byte	0x50
 12003 30c1 05       		.uleb128 0x5
 12004 30c2 03       		.byte	0x3
 12005 30c3 3C040000 		.4byte	.LC157
 12006 30c7 00       		.byte	0
 12007 30c8 1E       		.uleb128 0x1e
 12008 30c9 84080000 		.4byte	.LVL618
 12009 30cd 593D0000 		.4byte	0x3d59
 12010 30d1 DB300000 		.4byte	0x30db
 12011 30d5 1F       		.uleb128 0x1f
 12012 30d6 01       		.uleb128 0x1
ARM GAS  C:\Users\Helon\AppData\Local\Temp\ccys0XsA.s 			page 270


 12013 30d7 50       		.byte	0x50
 12014 30d8 01       		.uleb128 0x1
 12015 30d9 32       		.byte	0x32
 12016 30da 00       		.byte	0
 12017 30db 1E       		.uleb128 0x1e
 12018 30dc 8E080000 		.4byte	.LVL620
 12019 30e0 B5380000 		.4byte	0x38b5
 12020 30e4 F2300000 		.4byte	0x30f2
 12021 30e8 1F       		.uleb128 0x1f
 12022 30e9 01       		.uleb128 0x1
 12023 30ea 50       		.byte	0x50
 12024 30eb 05       		.uleb128 0x5
 12025 30ec 03       		.byte	0x3
 12026 30ed 8C010000 		.4byte	.LC63
 12027 30f1 00       		.byte	0
 12028 30f2 1E       		.uleb128 0x1e
 12029 30f3 9E080000 		.4byte	.LVL623
 12030 30f7 B5380000 		.4byte	0x38b5
 12031 30fb 09310000 		.4byte	0x3109
 12032 30ff 1F       		.uleb128 0x1f
 12033 3100 01       		.uleb128 0x1
 12034 3101 50       		.byte	0x50
 12035 3102 05       		.uleb128 0x5
 12036 3103 03       		.byte	0x3
 12037 3104 3C040000 		.4byte	.LC157
 12038 3108 00       		.byte	0
 12039 3109 1E       		.uleb128 0x1e
 12040 310a A6080000 		.4byte	.LVL625
 12041 310e 593D0000 		.4byte	0x3d59
 12042 3112 1C310000 		.4byte	0x311c
 12043 3116 1F       		.uleb128 0x1f
 12044 3117 01       		.uleb128 0x1
 12045 3118 50       		.byte	0x50
 12046 3119 01       		.uleb128 0x1
 12047 311a 33       		.byte	0x33
 12048 311b 00       		.byte	0
 12049 311c 1E       		.uleb128 0x1e
 12050 311d B0080000 		.4byte	.LVL627
 12051 3121 B5380000 		.4byte	0x38b5
 12052 3125 33310000 		.4byte	0x3133
 12053 3129 1F       		.uleb128 0x1f
 12054 312a 01       		.uleb128 0x1
 12055 312b 50       		.byte	0x50
 12056 312c 05       		.uleb128 0x5
 12057 312d 03       		.byte	0x3
 12058 312e 8C010000 		.4byte	.LC63
 12059 3132 00       		.byte	0
 12060 3133 1E       		.uleb128 0x1e
 12061 3134 C0080000 		.4byte	.LVL630
 12062 3138 B5380000 		.4byte	0x38b5
 12063 313c 4A310000 		.4byte	0x314a
 12064 3140 1F       		.uleb128 0x1f
 12065 3141 01       		.uleb128 0x1
 12066 3142 50       		.byte	0x50
 12067 3143 05       		.uleb128 0x5
 12068 3144 03       		.byte	0x3
 12069 3145 3C040000 		.4byte	.LC157
ARM GAS  C:\Users\Helon\AppData\Local\Temp\ccys0XsA.s 			page 271


 12070 3149 00       		.byte	0
 12071 314a 1E       		.uleb128 0x1e
 12072 314b C8080000 		.4byte	.LVL632
 12073 314f 593D0000 		.4byte	0x3d59
 12074 3153 5D310000 		.4byte	0x315d
 12075 3157 1F       		.uleb128 0x1f
 12076 3158 01       		.uleb128 0x1
 12077 3159 50       		.byte	0x50
 12078 315a 01       		.uleb128 0x1
 12079 315b 34       		.byte	0x34
 12080 315c 00       		.byte	0
 12081 315d 1E       		.uleb128 0x1e
 12082 315e D2080000 		.4byte	.LVL634
 12083 3162 B5380000 		.4byte	0x38b5
 12084 3166 74310000 		.4byte	0x3174
 12085 316a 1F       		.uleb128 0x1f
 12086 316b 01       		.uleb128 0x1
 12087 316c 50       		.byte	0x50
 12088 316d 05       		.uleb128 0x5
 12089 316e 03       		.byte	0x3
 12090 316f 8C010000 		.4byte	.LC63
 12091 3173 00       		.byte	0
 12092 3174 1E       		.uleb128 0x1e
 12093 3175 E2080000 		.4byte	.LVL637
 12094 3179 B5380000 		.4byte	0x38b5
 12095 317d 8B310000 		.4byte	0x318b
 12096 3181 1F       		.uleb128 0x1f
 12097 3182 01       		.uleb128 0x1
 12098 3183 50       		.byte	0x50
 12099 3184 05       		.uleb128 0x5
 12100 3185 03       		.byte	0x3
 12101 3186 3C040000 		.4byte	.LC157
 12102 318a 00       		.byte	0
 12103 318b 1E       		.uleb128 0x1e
 12104 318c FC080000 		.4byte	.LVL639
 12105 3190 B5380000 		.4byte	0x38b5
 12106 3194 A2310000 		.4byte	0x31a2
 12107 3198 1F       		.uleb128 0x1f
 12108 3199 01       		.uleb128 0x1
 12109 319a 50       		.byte	0x50
 12110 319b 05       		.uleb128 0x5
 12111 319c 03       		.byte	0x3
 12112 319d FC050000 		.4byte	.LC209
 12113 31a1 00       		.byte	0
 12114 31a2 1E       		.uleb128 0x1e
 12115 31a3 04090000 		.4byte	.LVL641
 12116 31a7 B5380000 		.4byte	0x38b5
 12117 31ab B9310000 		.4byte	0x31b9
 12118 31af 1F       		.uleb128 0x1f
 12119 31b0 01       		.uleb128 0x1
 12120 31b1 50       		.byte	0x50
 12121 31b2 05       		.uleb128 0x5
 12122 31b3 03       		.byte	0x3
 12123 31b4 14060000 		.4byte	.LC211
 12124 31b8 00       		.byte	0
 12125 31b9 1E       		.uleb128 0x1e
 12126 31ba 0C090000 		.4byte	.LVL643
ARM GAS  C:\Users\Helon\AppData\Local\Temp\ccys0XsA.s 			page 272


 12127 31be B5380000 		.4byte	0x38b5
 12128 31c2 D0310000 		.4byte	0x31d0
 12129 31c6 1F       		.uleb128 0x1f
 12130 31c7 01       		.uleb128 0x1
 12131 31c8 50       		.byte	0x50
 12132 31c9 05       		.uleb128 0x5
 12133 31ca 03       		.byte	0x3
 12134 31cb 2C060000 		.4byte	.LC213
 12135 31cf 00       		.byte	0
 12136 31d0 1E       		.uleb128 0x1e
 12137 31d1 14090000 		.4byte	.LVL645
 12138 31d5 B5380000 		.4byte	0x38b5
 12139 31d9 E7310000 		.4byte	0x31e7
 12140 31dd 1F       		.uleb128 0x1f
 12141 31de 01       		.uleb128 0x1
 12142 31df 50       		.byte	0x50
 12143 31e0 05       		.uleb128 0x5
 12144 31e1 03       		.byte	0x3
 12145 31e2 44060000 		.4byte	.LC215
 12146 31e6 00       		.byte	0
 12147 31e7 1E       		.uleb128 0x1e
 12148 31e8 1C090000 		.4byte	.LVL647
 12149 31ec B5380000 		.4byte	0x38b5
 12150 31f0 FE310000 		.4byte	0x31fe
 12151 31f4 1F       		.uleb128 0x1f
 12152 31f5 01       		.uleb128 0x1
 12153 31f6 50       		.byte	0x50
 12154 31f7 05       		.uleb128 0x5
 12155 31f8 03       		.byte	0x3
 12156 31f9 60060000 		.4byte	.LC217
 12157 31fd 00       		.byte	0
 12158 31fe 1E       		.uleb128 0x1e
 12159 31ff 24090000 		.4byte	.LVL649
 12160 3203 B5380000 		.4byte	0x38b5
 12161 3207 15320000 		.4byte	0x3215
 12162 320b 1F       		.uleb128 0x1f
 12163 320c 01       		.uleb128 0x1
 12164 320d 50       		.byte	0x50
 12165 320e 05       		.uleb128 0x5
 12166 320f 03       		.byte	0x3
 12167 3210 C0010000 		.4byte	.LC68
 12168 3214 00       		.byte	0
 12169 3215 1E       		.uleb128 0x1e
 12170 3216 3A090000 		.4byte	.LVL653
 12171 321a B5380000 		.4byte	0x38b5
 12172 321e 2C320000 		.4byte	0x322c
 12173 3222 1F       		.uleb128 0x1f
 12174 3223 01       		.uleb128 0x1
 12175 3224 50       		.byte	0x50
 12176 3225 05       		.uleb128 0x5
 12177 3226 03       		.byte	0x3
 12178 3227 7C060000 		.4byte	.LC219
 12179 322b 00       		.byte	0
 12180 322c 1E       		.uleb128 0x1e
 12181 322d 42090000 		.4byte	.LVL655
 12182 3231 B5380000 		.4byte	0x38b5
 12183 3235 43320000 		.4byte	0x3243
ARM GAS  C:\Users\Helon\AppData\Local\Temp\ccys0XsA.s 			page 273


 12184 3239 1F       		.uleb128 0x1f
 12185 323a 01       		.uleb128 0x1
 12186 323b 50       		.byte	0x50
 12187 323c 05       		.uleb128 0x5
 12188 323d 03       		.byte	0x3
 12189 323e 8C060000 		.4byte	.LC221
 12190 3242 00       		.byte	0
 12191 3243 20       		.uleb128 0x20
 12192 3244 5A090000 		.4byte	.LVL658
 12193 3248 6F3D0000 		.4byte	0x3d6f
 12194 324c 1E       		.uleb128 0x1e
 12195 324d 64090000 		.4byte	.LVL660
 12196 3251 B5380000 		.4byte	0x38b5
 12197 3255 63320000 		.4byte	0x3263
 12198 3259 1F       		.uleb128 0x1f
 12199 325a 01       		.uleb128 0x1
 12200 325b 50       		.byte	0x50
 12201 325c 05       		.uleb128 0x5
 12202 325d 03       		.byte	0x3
 12203 325e 8C010000 		.4byte	.LC63
 12204 3262 00       		.byte	0
 12205 3263 1E       		.uleb128 0x1e
 12206 3264 6C090000 		.4byte	.LVL663
 12207 3268 B5380000 		.4byte	0x38b5
 12208 326c 7A320000 		.4byte	0x327a
 12209 3270 1F       		.uleb128 0x1f
 12210 3271 01       		.uleb128 0x1
 12211 3272 50       		.byte	0x50
 12212 3273 05       		.uleb128 0x5
 12213 3274 03       		.byte	0x3
 12214 3275 3C040000 		.4byte	.LC157
 12215 3279 00       		.byte	0
 12216 327a 1E       		.uleb128 0x1e
 12217 327b 74090000 		.4byte	.LVL665
 12218 327f B5380000 		.4byte	0x38b5
 12219 3283 91320000 		.4byte	0x3291
 12220 3287 1F       		.uleb128 0x1f
 12221 3288 01       		.uleb128 0x1
 12222 3289 50       		.byte	0x50
 12223 328a 05       		.uleb128 0x5
 12224 328b 03       		.byte	0x3
 12225 328c C0010000 		.4byte	.LC68
 12226 3290 00       		.byte	0
 12227 3291 21       		.uleb128 0x21
 12228 3292 7C090000 		.4byte	.LVL668
 12229 3296 B5380000 		.4byte	0x38b5
 12230 329a 1F       		.uleb128 0x1f
 12231 329b 01       		.uleb128 0x1
 12232 329c 50       		.byte	0x50
 12233 329d 05       		.uleb128 0x5
 12234 329e 03       		.byte	0x3
 12235 329f EC030000 		.4byte	.LC146
 12236 32a3 00       		.byte	0
 12237 32a4 00       		.byte	0
 12238 32a5 10       		.uleb128 0x10
 12239 32a6 13010000 		.4byte	0x113
 12240 32aa B5320000 		.4byte	0x32b5
ARM GAS  C:\Users\Helon\AppData\Local\Temp\ccys0XsA.s 			page 274


 12241 32ae 11       		.uleb128 0x11
 12242 32af 59010000 		.4byte	0x159
 12243 32b3 1A       		.byte	0x1a
 12244 32b4 00       		.byte	0
 12245 32b5 10       		.uleb128 0x10
 12246 32b6 1E010000 		.4byte	0x11e
 12247 32ba C5320000 		.4byte	0x32c5
 12248 32be 11       		.uleb128 0x11
 12249 32bf 59010000 		.4byte	0x159
 12250 32c3 1E       		.byte	0x1e
 12251 32c4 00       		.byte	0
 12252 32c5 10       		.uleb128 0x10
 12253 32c6 1E010000 		.4byte	0x11e
 12254 32ca D5320000 		.4byte	0x32d5
 12255 32ce 11       		.uleb128 0x11
 12256 32cf 59010000 		.4byte	0x159
 12257 32d3 3D       		.byte	0x3d
 12258 32d4 00       		.byte	0
 12259 32d5 10       		.uleb128 0x10
 12260 32d6 1E010000 		.4byte	0x11e
 12261 32da E5320000 		.4byte	0x32e5
 12262 32de 11       		.uleb128 0x11
 12263 32df 59010000 		.4byte	0x159
 12264 32e3 01       		.byte	0x1
 12265 32e4 00       		.byte	0
 12266 32e5 05       		.uleb128 0x5
 12267 32e6 AD000000 		.4byte	0xad
 12268 32ea 2E       		.uleb128 0x2e
 12269 32eb EF070000 		.4byte	.LASF634
 12270 32ef 01       		.byte	0x1
 12271 32f0 B706     		.2byte	0x6b7
 12272 32f2 00000000 		.4byte	.LFB48
 12273 32f6 4C030000 		.4byte	.LFE48-.LFB48
 12274 32fa 01       		.uleb128 0x1
 12275 32fb 9C       		.byte	0x9c
 12276 32fc 7F350000 		.4byte	0x357f
 12277 3300 28       		.uleb128 0x28
 12278 3301 6F200000 		.4byte	.LASF635
 12279 3305 01       		.byte	0x1
 12280 3306 B706     		.2byte	0x6b7
 12281 3308 AD000000 		.4byte	0xad
 12282 330c 4A130000 		.4byte	.LLST38
 12283 3310 24       		.uleb128 0x24
 12284 3311 181E0000 		.4byte	.LASF636
 12285 3315 01       		.byte	0x1
 12286 3316 B906     		.2byte	0x6b9
 12287 3318 AD000000 		.4byte	0xad
 12288 331c 6B130000 		.4byte	.LLST39
 12289 3320 24       		.uleb128 0x24
 12290 3321 41440000 		.4byte	.LASF637
 12291 3325 01       		.byte	0x1
 12292 3326 BA06     		.2byte	0x6ba
 12293 3328 EF000000 		.4byte	0xef
 12294 332c EA130000 		.4byte	.LLST40
 12295 3330 29       		.uleb128 0x29
 12296 3331 706F7700 		.ascii	"pow\000"
 12297 3335 01       		.byte	0x1
ARM GAS  C:\Users\Helon\AppData\Local\Temp\ccys0XsA.s 			page 275


 12298 3336 BB06     		.2byte	0x6bb
 12299 3338 EF000000 		.4byte	0xef
 12300 333c 21140000 		.4byte	.LLST41
 12301 3340 24       		.uleb128 0x24
 12302 3341 CD1C0000 		.4byte	.LASF638
 12303 3345 01       		.byte	0x1
 12304 3346 BC06     		.2byte	0x6bc
 12305 3348 D9000000 		.4byte	0xd9
 12306 334c 5A140000 		.4byte	.LLST42
 12307 3350 2F       		.uleb128 0x2f
 12308 3351 92350000 		.4byte	0x3592
 12309 3355 A6140000 		.4byte	.LLST43
 12310 3359 24       		.uleb128 0x24
 12311 335a 30230000 		.4byte	.LASF639
 12312 335e 01       		.byte	0x1
 12313 335f BD06     		.2byte	0x6bd
 12314 3361 7F350000 		.4byte	0x357f
 12315 3365 E0140000 		.4byte	.LLST44
 12316 3369 24       		.uleb128 0x24
 12317 336a E63A0000 		.4byte	.LASF605
 12318 336e 01       		.byte	0x1
 12319 336f BE06     		.2byte	0x6be
 12320 3371 AF030000 		.4byte	0x3af
 12321 3375 60150000 		.4byte	.LLST45
 12322 3379 24       		.uleb128 0x24
 12323 337a 32330000 		.4byte	.LASF640
 12324 337e 01       		.byte	0x1
 12325 337f BF06     		.2byte	0x6bf
 12326 3381 C3000000 		.4byte	0xc3
 12327 3385 DA150000 		.4byte	.LLST46
 12328 3389 23       		.uleb128 0x23
 12329 338a C32B0000 		.4byte	.LASF641
 12330 338e 01       		.byte	0x1
 12331 338f C006     		.2byte	0x6c0
 12332 3391 E4000000 		.4byte	0xe4
 12333 3395 05       		.uleb128 0x5
 12334 3396 03       		.byte	0x3
 12335 3397 7E000000 		.4byte	uartIdleCount.7943
 12336 339b 23       		.uleb128 0x23
 12337 339c 372F0000 		.4byte	.LASF642
 12338 33a0 01       		.byte	0x1
 12339 33a1 C206     		.2byte	0x6c2
 12340 33a3 ED090000 		.4byte	0x9ed
 12341 33a7 02       		.uleb128 0x2
 12342 33a8 91       		.byte	0x91
 12343 33a9 5C       		.sleb128 -36
 12344 33aa 20       		.uleb128 0x20
 12345 33ab 22000000 		.4byte	.LVL675
 12346 33af 8A3D0000 		.4byte	0x3d8a
 12347 33b3 1E       		.uleb128 0x1e
 12348 33b4 3C000000 		.4byte	.LVL677
 12349 33b8 B03A0000 		.4byte	0x3ab0
 12350 33bc C6330000 		.4byte	0x33c6
 12351 33c0 1F       		.uleb128 0x1f
 12352 33c1 01       		.uleb128 0x1
 12353 33c2 50       		.byte	0x50
 12354 33c3 01       		.uleb128 0x1
ARM GAS  C:\Users\Helon\AppData\Local\Temp\ccys0XsA.s 			page 276


 12355 33c4 30       		.byte	0x30
 12356 33c5 00       		.byte	0
 12357 33c6 1E       		.uleb128 0x1e
 12358 33c7 4E000000 		.4byte	.LVL678
 12359 33cb B03A0000 		.4byte	0x3ab0
 12360 33cf D9330000 		.4byte	0x33d9
 12361 33d3 1F       		.uleb128 0x1f
 12362 33d4 01       		.uleb128 0x1
 12363 33d5 50       		.byte	0x50
 12364 33d6 01       		.uleb128 0x1
 12365 33d7 31       		.byte	0x31
 12366 33d8 00       		.byte	0
 12367 33d9 20       		.uleb128 0x20
 12368 33da A0000000 		.4byte	.LVL683
 12369 33de 963D0000 		.4byte	0x3d96
 12370 33e2 1E       		.uleb128 0x1e
 12371 33e3 B6000000 		.4byte	.LVL686
 12372 33e7 A23D0000 		.4byte	0x3da2
 12373 33eb 04340000 		.4byte	0x3404
 12374 33ef 1F       		.uleb128 0x1f
 12375 33f0 01       		.uleb128 0x1
 12376 33f1 52       		.byte	0x52
 12377 33f2 01       		.uleb128 0x1
 12378 33f3 3B       		.byte	0x3b
 12379 33f4 1F       		.uleb128 0x1f
 12380 33f5 01       		.uleb128 0x1
 12381 33f6 51       		.byte	0x51
 12382 33f7 02       		.uleb128 0x2
 12383 33f8 74       		.byte	0x74
 12384 33f9 00       		.sleb128 0
 12385 33fa 1F       		.uleb128 0x1f
 12386 33fb 01       		.uleb128 0x1
 12387 33fc 50       		.byte	0x50
 12388 33fd 05       		.uleb128 0x5
 12389 33fe 03       		.byte	0x3
 12390 33ff A0060000 		.4byte	.LC226
 12391 3403 00       		.byte	0
 12392 3404 1E       		.uleb128 0x1e
 12393 3405 DA000000 		.4byte	.LVL687
 12394 3409 C13D0000 		.4byte	0x3dc1
 12395 340d 1B340000 		.4byte	0x341b
 12396 3411 1F       		.uleb128 0x1f
 12397 3412 01       		.uleb128 0x1
 12398 3413 51       		.byte	0x51
 12399 3414 05       		.uleb128 0x5
 12400 3415 03       		.byte	0x3
 12401 3416 00000000 		.4byte	writeRequestData
 12402 341a 00       		.byte	0
 12403 341b 1E       		.uleb128 0x1e
 12404 341c 06010000 		.4byte	.LVL689
 12405 3420 B5380000 		.4byte	0x38b5
 12406 3424 32340000 		.4byte	0x3432
 12407 3428 1F       		.uleb128 0x1f
 12408 3429 01       		.uleb128 0x1
 12409 342a 50       		.byte	0x50
 12410 342b 05       		.uleb128 0x5
 12411 342c 03       		.byte	0x3
ARM GAS  C:\Users\Helon\AppData\Local\Temp\ccys0XsA.s 			page 277


 12412 342d B8000000 		.4byte	.LC26
 12413 3431 00       		.byte	0
 12414 3432 1E       		.uleb128 0x1e
 12415 3433 2E010000 		.4byte	.LVL691
 12416 3437 B5380000 		.4byte	0x38b5
 12417 343b 49340000 		.4byte	0x3449
 12418 343f 1F       		.uleb128 0x1f
 12419 3440 01       		.uleb128 0x1
 12420 3441 50       		.byte	0x50
 12421 3442 05       		.uleb128 0x5
 12422 3443 03       		.byte	0x3
 12423 3444 B8000000 		.4byte	.LC26
 12424 3448 00       		.byte	0
 12425 3449 1E       		.uleb128 0x1e
 12426 344a 3A010000 		.4byte	.LVL692
 12427 344e A23D0000 		.4byte	0x3da2
 12428 3452 6B340000 		.4byte	0x346b
 12429 3456 1F       		.uleb128 0x1f
 12430 3457 01       		.uleb128 0x1
 12431 3458 52       		.byte	0x52
 12432 3459 01       		.uleb128 0x1
 12433 345a 3B       		.byte	0x3b
 12434 345b 1F       		.uleb128 0x1f
 12435 345c 01       		.uleb128 0x1
 12436 345d 51       		.byte	0x51
 12437 345e 02       		.uleb128 0x2
 12438 345f 74       		.byte	0x74
 12439 3460 00       		.sleb128 0
 12440 3461 1F       		.uleb128 0x1f
 12441 3462 01       		.uleb128 0x1
 12442 3463 50       		.byte	0x50
 12443 3464 05       		.uleb128 0x5
 12444 3465 03       		.byte	0x3
 12445 3466 AC060000 		.4byte	.LC231
 12446 346a 00       		.byte	0
 12447 346b 1E       		.uleb128 0x1e
 12448 346c 62010000 		.4byte	.LVL693
 12449 3470 B5380000 		.4byte	0x38b5
 12450 3474 82340000 		.4byte	0x3482
 12451 3478 1F       		.uleb128 0x1f
 12452 3479 01       		.uleb128 0x1
 12453 347a 50       		.byte	0x50
 12454 347b 05       		.uleb128 0x5
 12455 347c 03       		.byte	0x3
 12456 347d A0000000 		.4byte	.LC24
 12457 3481 00       		.byte	0
 12458 3482 1E       		.uleb128 0x1e
 12459 3483 8C010000 		.4byte	.LVL695
 12460 3487 8F3B0000 		.4byte	0x3b8f
 12461 348b 96340000 		.4byte	0x3496
 12462 348f 1F       		.uleb128 0x1f
 12463 3490 01       		.uleb128 0x1
 12464 3491 51       		.byte	0x51
 12465 3492 02       		.uleb128 0x2
 12466 3493 77       		.byte	0x77
 12467 3494 24       		.sleb128 36
 12468 3495 00       		.byte	0
ARM GAS  C:\Users\Helon\AppData\Local\Temp\ccys0XsA.s 			page 278


 12469 3496 20       		.uleb128 0x20
 12470 3497 92010000 		.4byte	.LVL697
 12471 349b E23D0000 		.4byte	0x3de2
 12472 349f 1E       		.uleb128 0x1e
 12473 34a0 BC010000 		.4byte	.LVL699
 12474 34a4 FF1B0000 		.4byte	0x1bff
 12475 34a8 B9340000 		.4byte	0x34b9
 12476 34ac 1F       		.uleb128 0x1f
 12477 34ad 01       		.uleb128 0x1
 12478 34ae 51       		.byte	0x51
 12479 34af 02       		.uleb128 0x2
 12480 34b0 75       		.byte	0x75
 12481 34b1 00       		.sleb128 0
 12482 34b2 1F       		.uleb128 0x1f
 12483 34b3 01       		.uleb128 0x1
 12484 34b4 50       		.byte	0x50
 12485 34b5 02       		.uleb128 0x2
 12486 34b6 74       		.byte	0x74
 12487 34b7 00       		.sleb128 0
 12488 34b8 00       		.byte	0
 12489 34b9 20       		.uleb128 0x20
 12490 34ba E2010000 		.4byte	.LVL705
 12491 34be EA3D0000 		.4byte	0x3dea
 12492 34c2 1E       		.uleb128 0x1e
 12493 34c3 0E020000 		.4byte	.LVL716
 12494 34c7 B5380000 		.4byte	0x38b5
 12495 34cb D9340000 		.4byte	0x34d9
 12496 34cf 1F       		.uleb128 0x1f
 12497 34d0 01       		.uleb128 0x1
 12498 34d1 50       		.byte	0x50
 12499 34d2 05       		.uleb128 0x5
 12500 34d3 03       		.byte	0x3
 12501 34d4 B8060000 		.4byte	.LC236
 12502 34d8 00       		.byte	0
 12503 34d9 1E       		.uleb128 0x1e
 12504 34da 20020000 		.4byte	.LVL718
 12505 34de F63D0000 		.4byte	0x3df6
 12506 34e2 F2340000 		.4byte	0x34f2
 12507 34e6 1F       		.uleb128 0x1f
 12508 34e7 01       		.uleb128 0x1
 12509 34e8 52       		.byte	0x52
 12510 34e9 01       		.uleb128 0x1
 12511 34ea 31       		.byte	0x31
 12512 34eb 1F       		.uleb128 0x1f
 12513 34ec 01       		.uleb128 0x1
 12514 34ed 51       		.byte	0x51
 12515 34ee 02       		.uleb128 0x2
 12516 34ef 75       		.byte	0x75
 12517 34f0 00       		.sleb128 0
 12518 34f1 00       		.byte	0
 12519 34f2 1E       		.uleb128 0x1e
 12520 34f3 2A020000 		.4byte	.LVL720
 12521 34f7 B5380000 		.4byte	0x38b5
 12522 34fb 09350000 		.4byte	0x3509
 12523 34ff 1F       		.uleb128 0x1f
 12524 3500 01       		.uleb128 0x1
 12525 3501 50       		.byte	0x50
ARM GAS  C:\Users\Helon\AppData\Local\Temp\ccys0XsA.s 			page 279


 12526 3502 05       		.uleb128 0x5
 12527 3503 03       		.byte	0x3
 12528 3504 CC060000 		.4byte	.LC238
 12529 3508 00       		.byte	0
 12530 3509 1E       		.uleb128 0x1e
 12531 350a 36020000 		.4byte	.LVL723
 12532 350e B5380000 		.4byte	0x38b5
 12533 3512 20350000 		.4byte	0x3520
 12534 3516 1F       		.uleb128 0x1f
 12535 3517 01       		.uleb128 0x1
 12536 3518 50       		.byte	0x50
 12537 3519 05       		.uleb128 0x5
 12538 351a 03       		.byte	0x3
 12539 351b EC060000 		.4byte	.LC240
 12540 351f 00       		.byte	0
 12541 3520 1E       		.uleb128 0x1e
 12542 3521 42020000 		.4byte	.LVL726
 12543 3525 B5380000 		.4byte	0x38b5
 12544 3529 37350000 		.4byte	0x3537
 12545 352d 1F       		.uleb128 0x1f
 12546 352e 01       		.uleb128 0x1
 12547 352f 50       		.byte	0x50
 12548 3530 05       		.uleb128 0x5
 12549 3531 03       		.byte	0x3
 12550 3532 14070000 		.4byte	.LC242
 12551 3536 00       		.byte	0
 12552 3537 1E       		.uleb128 0x1e
 12553 3538 4E020000 		.4byte	.LVL729
 12554 353c B5380000 		.4byte	0x38b5
 12555 3540 4E350000 		.4byte	0x354e
 12556 3544 1F       		.uleb128 0x1f
 12557 3545 01       		.uleb128 0x1
 12558 3546 50       		.byte	0x50
 12559 3547 05       		.uleb128 0x5
 12560 3548 03       		.byte	0x3
 12561 3549 34070000 		.4byte	.LC244
 12562 354d 00       		.byte	0
 12563 354e 20       		.uleb128 0x20
 12564 354f 54020000 		.4byte	.LVL731
 12565 3553 963D0000 		.4byte	0x3d96
 12566 3557 1E       		.uleb128 0x1e
 12567 3558 88020000 		.4byte	.LVL736
 12568 355c 5E250000 		.4byte	0x255e
 12569 3560 6B350000 		.4byte	0x356b
 12570 3564 1F       		.uleb128 0x1f
 12571 3565 01       		.uleb128 0x1
 12572 3566 50       		.byte	0x50
 12573 3567 02       		.uleb128 0x2
 12574 3568 76       		.byte	0x76
 12575 3569 00       		.sleb128 0
 12576 356a 00       		.byte	0
 12577 356b 21       		.uleb128 0x21
 12578 356c EC020000 		.4byte	.LVL739
 12579 3570 B5380000 		.4byte	0x38b5
 12580 3574 1F       		.uleb128 0x1f
 12581 3575 01       		.uleb128 0x1
 12582 3576 50       		.byte	0x50
ARM GAS  C:\Users\Helon\AppData\Local\Temp\ccys0XsA.s 			page 280


 12583 3577 05       		.uleb128 0x5
 12584 3578 03       		.byte	0x3
 12585 3579 EC030000 		.4byte	.LC146
 12586 357d 00       		.byte	0
 12587 357e 00       		.byte	0
 12588 357f 10       		.uleb128 0x10
 12589 3580 D9000000 		.4byte	0xd9
 12590 3584 92350000 		.4byte	0x3592
 12591 3588 30       		.uleb128 0x30
 12592 3589 59010000 		.4byte	0x159
 12593 358d 50330000 		.4byte	0x3350
 12594 3591 00       		.byte	0
 12595 3592 0A       		.uleb128 0xa
 12596 3593 59010000 		.4byte	0x159
 12597 3597 27       		.uleb128 0x27
 12598 3598 ED010000 		.4byte	.LASF644
 12599 359c 01       		.byte	0x1
 12600 359d A609     		.2byte	0x9a6
 12601 359f 94000000 		.4byte	0x94
 12602 35a3 00000000 		.4byte	.LFB53
 12603 35a7 1C000000 		.4byte	.LFE53-.LFB53
 12604 35ab 01       		.uleb128 0x1
 12605 35ac 9C       		.byte	0x9c
 12606 35ad F9350000 		.4byte	0x35f9
 12607 35b1 28       		.uleb128 0x28
 12608 35b2 9C180000 		.4byte	.LASF645
 12609 35b6 01       		.byte	0x1
 12610 35b7 A609     		.2byte	0x9a6
 12611 35b9 94000000 		.4byte	0x94
 12612 35bd 0E160000 		.4byte	.LLST47
 12613 35c1 2A       		.uleb128 0x2a
 12614 35c2 70747200 		.ascii	"ptr\000"
 12615 35c6 01       		.byte	0x1
 12616 35c7 A609     		.2byte	0x9a6
 12617 35c9 62010000 		.4byte	0x162
 12618 35cd 2F160000 		.4byte	.LLST48
 12619 35d1 2A       		.uleb128 0x2a
 12620 35d2 6C656E00 		.ascii	"len\000"
 12621 35d6 01       		.byte	0x1
 12622 35d7 A609     		.2byte	0x9a6
 12623 35d9 94000000 		.4byte	0x94
 12624 35dd 58160000 		.4byte	.LLST49
 12625 35e1 29       		.uleb128 0x29
 12626 35e2 6900     		.ascii	"i\000"
 12627 35e4 01       		.byte	0x1
 12628 35e5 A809     		.2byte	0x9a8
 12629 35e7 94000000 		.4byte	0x94
 12630 35eb 81160000 		.4byte	.LLST50
 12631 35ef 20       		.uleb128 0x20
 12632 35f0 10000000 		.4byte	.LVL747
 12633 35f4 A5390000 		.4byte	0x39a5
 12634 35f8 00       		.byte	0
 12635 35f9 31       		.uleb128 0x31
 12636 35fa 9B380000 		.4byte	.LASF646
 12637 35fe 11       		.byte	0x11
 12638 35ff 2D       		.byte	0x2d
 12639 3600 68010000 		.4byte	0x168
ARM GAS  C:\Users\Helon\AppData\Local\Temp\ccys0XsA.s 			page 281


 12640 3604 32       		.uleb128 0x32
 12641 3605 2A020000 		.4byte	.LASF647
 12642 3609 0C       		.byte	0xc
 12643 360a D601     		.2byte	0x1d6
 12644 360c 73060000 		.4byte	0x673
 12645 3610 32       		.uleb128 0x32
 12646 3611 2A3D0000 		.4byte	.LASF648
 12647 3615 0C       		.byte	0xc
 12648 3616 EA01     		.2byte	0x1ea
 12649 3618 DA070000 		.4byte	0x7da
 12650 361c 32       		.uleb128 0x32
 12651 361d 41280000 		.4byte	.LASF649
 12652 3621 0D       		.byte	0xd
 12653 3622 2C09     		.2byte	0x92c
 12654 3624 2B120000 		.4byte	0x122b
 12655 3628 32       		.uleb128 0x32
 12656 3629 463A0000 		.4byte	.LASF650
 12657 362d 0D       		.byte	0xd
 12658 362e 2D09     		.2byte	0x92d
 12659 3630 14090000 		.4byte	0x914
 12660 3634 32       		.uleb128 0x32
 12661 3635 BA3F0000 		.4byte	.LASF651
 12662 3639 0D       		.byte	0xd
 12663 363a 2E09     		.2byte	0x92e
 12664 363c 25010000 		.4byte	0x125
 12665 3640 31       		.uleb128 0x31
 12666 3641 4E310000 		.4byte	.LASF652
 12667 3645 01       		.byte	0x1
 12668 3646 16       		.byte	0x16
 12669 3647 AD000000 		.4byte	0xad
 12670 364b 10       		.uleb128 0x10
 12671 364c 2D150000 		.4byte	0x152d
 12672 3650 5B360000 		.4byte	0x365b
 12673 3654 11       		.uleb128 0x11
 12674 3655 59010000 		.4byte	0x159
 12675 3659 09       		.byte	0x9
 12676 365a 00       		.byte	0
 12677 365b 31       		.uleb128 0x31
 12678 365c 66460000 		.4byte	.LASF653
 12679 3660 01       		.byte	0x1
 12680 3661 17       		.byte	0x17
 12681 3662 4B360000 		.4byte	0x364b
 12682 3666 33       		.uleb128 0x33
 12683 3667 D7380000 		.4byte	.LASF654
 12684 366b 01       		.byte	0x1
 12685 366c 1C       		.byte	0x1c
 12686 366d D4130000 		.4byte	0x13d4
 12687 3671 05       		.uleb128 0x5
 12688 3672 03       		.byte	0x3
 12689 3673 00000000 		.4byte	configUart
 12690 3677 33       		.uleb128 0x33
 12691 3678 03300000 		.4byte	.LASF655
 12692 367c 01       		.byte	0x1
 12693 367d 1D       		.byte	0x1d
 12694 367e AD000000 		.4byte	0xad
 12695 3682 05       		.uleb128 0x5
 12696 3683 03       		.byte	0x3
ARM GAS  C:\Users\Helon\AppData\Local\Temp\ccys0XsA.s 			page 282


 12697 3684 00000000 		.4byte	LowPower_EN
 12698 3688 10       		.uleb128 0x10
 12699 3689 AD000000 		.4byte	0xad
 12700 368d 98360000 		.4byte	0x3698
 12701 3691 11       		.uleb128 0x11
 12702 3692 59010000 		.4byte	0x159
 12703 3696 2F       		.byte	0x2f
 12704 3697 00       		.byte	0
 12705 3698 33       		.uleb128 0x33
 12706 3699 87340000 		.4byte	.LASF656
 12707 369d 01       		.byte	0x1
 12708 369e 1E       		.byte	0x1e
 12709 369f 88360000 		.4byte	0x3688
 12710 36a3 05       		.uleb128 0x5
 12711 36a4 03       		.byte	0x3
 12712 36a5 00000000 		.4byte	RX_BUFFER
 12713 36a9 33       		.uleb128 0x33
 12714 36aa 6A180000 		.4byte	.LASF657
 12715 36ae 01       		.byte	0x1
 12716 36af 1F       		.byte	0x1f
 12717 36b0 AD000000 		.4byte	0xad
 12718 36b4 05       		.uleb128 0x5
 12719 36b5 03       		.byte	0x3
 12720 36b6 00000000 		.4byte	Buffer_Length
 12721 36ba 33       		.uleb128 0x33
 12722 36bb F50C0000 		.4byte	.LASF658
 12723 36bf 01       		.byte	0x1
 12724 36c0 20       		.byte	0x20
 12725 36c1 AD000000 		.4byte	0xad
 12726 36c5 05       		.uleb128 0x5
 12727 36c6 03       		.byte	0x3
 12728 36c7 00000000 		.4byte	rx_isover
 12729 36cb 33       		.uleb128 0x33
 12730 36cc 26000000 		.4byte	.LASF659
 12731 36d0 01       		.byte	0x1
 12732 36d1 21       		.byte	0x21
 12733 36d2 AD000000 		.4byte	0xad
 12734 36d6 05       		.uleb128 0x5
 12735 36d7 03       		.byte	0x3
 12736 36d8 00000000 		.4byte	RxFlag
 12737 36dc 33       		.uleb128 0x33
 12738 36dd 59360000 		.4byte	.LASF660
 12739 36e1 01       		.byte	0x1
 12740 36e2 22       		.byte	0x22
 12741 36e3 CD140000 		.4byte	0x14cd
 12742 36e7 05       		.uleb128 0x5
 12743 36e8 03       		.byte	0x3
 12744 36e9 00000000 		.4byte	Conn_Or_Disconn_Info
 12745 36ed 33       		.uleb128 0x33
 12746 36ee E7320000 		.4byte	.LASF661
 12747 36f2 01       		.byte	0x1
 12748 36f3 23       		.byte	0x23
 12749 36f4 AD000000 		.4byte	0xad
 12750 36f8 05       		.uleb128 0x5
 12751 36f9 03       		.byte	0x3
 12752 36fa 00000000 		.4byte	Conn_or_Disconn_Idx
 12753 36fe 33       		.uleb128 0x33
ARM GAS  C:\Users\Helon\AppData\Local\Temp\ccys0XsA.s 			page 283


 12754 36ff 9C160000 		.4byte	.LASF662
 12755 3703 01       		.byte	0x1
 12756 3704 26       		.byte	0x26
 12757 3705 AD000000 		.4byte	0xad
 12758 3709 05       		.uleb128 0x5
 12759 370a 03       		.byte	0x3
 12760 370b 00000000 		.4byte	MTU_REQ_FLAG
 12761 370f 33       		.uleb128 0x33
 12762 3710 6F2C0000 		.4byte	.LASF663
 12763 3714 01       		.byte	0x1
 12764 3715 27       		.byte	0x27
 12765 3716 AD000000 		.4byte	0xad
 12766 371a 05       		.uleb128 0x5
 12767 371b 03       		.byte	0x3
 12768 371c 00000000 		.4byte	TroughtTest_Flag
 12769 3720 33       		.uleb128 0x33
 12770 3721 F5420000 		.4byte	.LASF664
 12771 3725 01       		.byte	0x1
 12772 3726 28       		.byte	0x28
 12773 3727 AD000000 		.4byte	0xad
 12774 372b 05       		.uleb128 0x5
 12775 372c 03       		.byte	0x3
 12776 372d 00000000 		.4byte	charNotificationEnabled
 12777 3731 33       		.uleb128 0x33
 12778 3732 8A1A0000 		.4byte	.LASF665
 12779 3736 01       		.byte	0x1
 12780 3737 29       		.byte	0x29
 12781 3738 EF000000 		.4byte	0xef
 12782 373c 05       		.uleb128 0x5
 12783 373d 03       		.byte	0x3
 12784 373e 00000000 		.4byte	totalByteCounter
 12785 3742 33       		.uleb128 0x33
 12786 3743 6F200000 		.4byte	.LASF635
 12787 3747 01       		.byte	0x1
 12788 3748 2A       		.byte	0x2a
 12789 3749 AD000000 		.4byte	0xad
 12790 374d 05       		.uleb128 0x5
 12791 374e 03       		.byte	0x3
 12792 374f 00000000 		.4byte	Role
 12793 3753 10       		.uleb128 0x10
 12794 3754 D9000000 		.4byte	0xd9
 12795 3758 63370000 		.4byte	0x3763
 12796 375c 11       		.uleb128 0x11
 12797 375d 59010000 		.4byte	0x159
 12798 3761 13       		.byte	0x13
 12799 3762 00       		.byte	0
 12800 3763 33       		.uleb128 0x33
 12801 3764 BA1A0000 		.4byte	.LASF666
 12802 3768 01       		.byte	0x1
 12803 3769 2B       		.byte	0x2b
 12804 376a 53370000 		.4byte	0x3753
 12805 376e 05       		.uleb128 0x5
 12806 376f 03       		.byte	0x3
 12807 3770 00000000 		.4byte	buffer
 12808 3774 33       		.uleb128 0x33
 12809 3775 1C0C0000 		.4byte	.LASF667
 12810 3779 01       		.byte	0x1
ARM GAS  C:\Users\Helon\AppData\Local\Temp\ccys0XsA.s 			page 284


 12811 377a 2C       		.byte	0x2c
 12812 377b E4000000 		.4byte	0xe4
 12813 377f 05       		.uleb128 0x5
 12814 3780 03       		.byte	0x3
 12815 3781 00000000 		.4byte	negotiatedMtu
 12816 3785 33       		.uleb128 0x33
 12817 3786 0A330000 		.4byte	.LASF668
 12818 378a 01       		.byte	0x1
 12819 378b 2D       		.byte	0x2d
 12820 378c AD000000 		.4byte	0xad
 12821 3790 05       		.uleb128 0x5
 12822 3791 03       		.byte	0x3
 12823 3792 00000000 		.4byte	CommandMode
 12824 3796 33       		.uleb128 0x33
 12825 3797 9D220000 		.4byte	.LASF669
 12826 379b 01       		.byte	0x1
 12827 379c 2E       		.byte	0x2e
 12828 379d EF000000 		.4byte	0xef
 12829 37a1 05       		.uleb128 0x5
 12830 37a2 03       		.byte	0x3
 12831 37a3 00000000 		.4byte	testCount
 12832 37a7 33       		.uleb128 0x33
 12833 37a8 F6390000 		.4byte	.LASF670
 12834 37ac 01       		.byte	0x1
 12835 37ad 2F       		.byte	0x2f
 12836 37ae AD000000 		.4byte	0xad
 12837 37b2 05       		.uleb128 0x5
 12838 37b3 03       		.byte	0x3
 12839 37b4 00000000 		.4byte	iocapability
 12840 37b8 33       		.uleb128 0x33
 12841 37b9 562B0000 		.4byte	.LASF671
 12842 37bd 01       		.byte	0x1
 12843 37be 30       		.byte	0x30
 12844 37bf D8080000 		.4byte	0x8d8
 12845 37c3 05       		.uleb128 0x5
 12846 37c4 03       		.byte	0x3
 12847 37c5 00000000 		.4byte	ConnParam
 12848 37c9 33       		.uleb128 0x33
 12849 37ca 70050000 		.4byte	.LASF672
 12850 37ce 01       		.byte	0x1
 12851 37cf 31       		.byte	0x31
 12852 37d0 AD000000 		.4byte	0xad
 12853 37d4 05       		.uleb128 0x5
 12854 37d5 03       		.byte	0x3
 12855 37d6 00000000 		.4byte	KEYBOARD
 12856 37da 33       		.uleb128 0x33
 12857 37db A9290000 		.4byte	.LASF673
 12858 37df 01       		.byte	0x1
 12859 37e0 32       		.byte	0x32
 12860 37e1 AD000000 		.4byte	0xad
 12861 37e5 05       		.uleb128 0x5
 12862 37e6 03       		.byte	0x3
 12863 37e7 00000000 		.4byte	AUTHFLAG
 12864 37eb 33       		.uleb128 0x33
 12865 37ec EC2B0000 		.4byte	.LASF575
 12866 37f0 01       		.byte	0x1
 12867 37f1 3B       		.byte	0x3b
ARM GAS  C:\Users\Helon\AppData\Local\Temp\ccys0XsA.s 			page 285


 12868 37f2 0F050000 		.4byte	0x50f
 12869 37f6 05       		.uleb128 0x5
 12870 37f7 03       		.byte	0x3
 12871 37f8 00000000 		.4byte	DeviceAddr
 12872 37fc 33       		.uleb128 0x33
 12873 37fd 730D0000 		.4byte	.LASF674
 12874 3801 01       		.byte	0x1
 12875 3802 3C       		.byte	0x3c
 12876 3803 AD000000 		.4byte	0xad
 12877 3807 05       		.uleb128 0x5
 12878 3808 03       		.byte	0x3
 12879 3809 00000000 		.4byte	_10sIsOver
 12880 380d 10       		.uleb128 0x10
 12881 380e D9000000 		.4byte	0xd9
 12882 3812 1D380000 		.4byte	0x381d
 12883 3816 11       		.uleb128 0x11
 12884 3817 59010000 		.4byte	0x159
 12885 381b 01       		.byte	0x1
 12886 381c 00       		.byte	0
 12887 381d 33       		.uleb128 0x33
 12888 381e F6120000 		.4byte	.LASF675
 12889 3822 01       		.byte	0x1
 12890 3823 3D       		.byte	0x3d
 12891 3824 0D380000 		.4byte	0x380d
 12892 3828 05       		.uleb128 0x5
 12893 3829 03       		.byte	0x3
 12894 382a 00000000 		.4byte	cccdNotifEnabledValue
 12895 382e 33       		.uleb128 0x33
 12896 382f 2A0C0000 		.4byte	.LASF676
 12897 3833 01       		.byte	0x1
 12898 3834 3E       		.byte	0x3e
 12899 3835 51090000 		.4byte	0x951
 12900 3839 05       		.uleb128 0x5
 12901 383a 03       		.byte	0x3
 12902 383b 00000000 		.4byte	cccdNotifFlagSetStruct
 12903 383f 33       		.uleb128 0x33
 12904 3840 8D0F0000 		.4byte	.LASF677
 12905 3844 01       		.byte	0x1
 12906 3845 45       		.byte	0x45
 12907 3846 8E080000 		.4byte	0x88e
 12908 384a 05       		.uleb128 0x5
 12909 384b 03       		.byte	0x3
 12910 384c 00000000 		.4byte	connParam
 12911 3850 33       		.uleb128 0x33
 12912 3851 B5120000 		.4byte	.LASF609
 12913 3855 01       		.byte	0x1
 12914 3856 4B       		.byte	0x4b
 12915 3857 450A0000 		.4byte	0xa45
 12916 385b 05       		.uleb128 0x5
 12917 385c 03       		.byte	0x3
 12918 385d 00000000 		.4byte	writeRequestData
 12919 3861 33       		.uleb128 0x33
 12920 3862 A13D0000 		.4byte	.LASF678
 12921 3866 01       		.byte	0x1
 12922 3867 4C       		.byte	0x4c
 12923 3868 2F0A0000 		.4byte	0xa2f
 12924 386c 05       		.uleb128 0x5
ARM GAS  C:\Users\Helon\AppData\Local\Temp\ccys0XsA.s 			page 286


 12925 386d 03       		.byte	0x3
 12926 386e 00000000 		.4byte	readRequestData
 12927 3872 10       		.uleb128 0x10
 12928 3873 62010000 		.4byte	0x162
 12929 3877 82380000 		.4byte	0x3882
 12930 387b 11       		.uleb128 0x11
 12931 387c 59010000 		.4byte	0x159
 12932 3880 19       		.byte	0x19
 12933 3881 00       		.byte	0
 12934 3882 33       		.uleb128 0x33
 12935 3883 6D330000 		.4byte	.LASF679
 12936 3887 01       		.byte	0x1
 12937 3888 4E       		.byte	0x4e
 12938 3889 72380000 		.4byte	0x3872
 12939 388d 05       		.uleb128 0x5
 12940 388e 03       		.byte	0x3
 12941 388f 00000000 		.4byte	StringArry
 12942 3893 33       		.uleb128 0x33
 12943 3894 D1310000 		.4byte	.LASF680
 12944 3898 01       		.byte	0x1
 12945 3899 54       		.byte	0x54
 12946 389a AD000000 		.4byte	0xad
 12947 389e 05       		.uleb128 0x5
 12948 389f 03       		.byte	0x3
 12949 38a0 00000000 		.4byte	STOP_SCAN_FLAG
 12950 38a4 33       		.uleb128 0x33
 12951 38a5 EE1A0000 		.4byte	.LASF681
 12952 38a9 01       		.byte	0x1
 12953 38aa 55       		.byte	0x55
 12954 38ab AD000000 		.4byte	0xad
 12955 38af 05       		.uleb128 0x5
 12956 38b0 03       		.byte	0x3
 12957 38b1 00000000 		.4byte	Baud_rate_idx
 12958 38b5 34       		.uleb128 0x34
 12959 38b6 A12F0000 		.4byte	.LASF752
 12960 38ba 21       		.byte	0x21
 12961 38bb 00       		.byte	0
 12962 38bc 61060000 		.4byte	.LASF753
 12963 38c0 94000000 		.4byte	0x94
 12964 38c4 CE380000 		.4byte	0x38ce
 12965 38c8 16       		.uleb128 0x16
 12966 38c9 68010000 		.4byte	0x168
 12967 38cd 00       		.byte	0
 12968 38ce 35       		.uleb128 0x35
 12969 38cf F50D0000 		.4byte	.LASF695
 12970 38d3 0E       		.byte	0xe
 12971 38d4 8E01     		.2byte	0x18e
 12972 38d6 EF000000 		.4byte	0xef
 12973 38da 36       		.uleb128 0x36
 12974 38db 180B0000 		.4byte	.LASF682
 12975 38df 10       		.byte	0x10
 12976 38e0 1F       		.byte	0x1f
 12977 38e1 EB380000 		.4byte	0x38eb
 12978 38e5 16       		.uleb128 0x16
 12979 38e6 EB380000 		.4byte	0x38eb
 12980 38ea 00       		.byte	0
 12981 38eb 07       		.uleb128 0x7
ARM GAS  C:\Users\Helon\AppData\Local\Temp\ccys0XsA.s 			page 287


 12982 38ec 04       		.byte	0x4
 12983 38ed 44080000 		.4byte	0x844
 12984 38f1 37       		.uleb128 0x37
 12985 38f2 DB090000 		.4byte	.LASF692
 12986 38f6 0C       		.byte	0xc
 12987 38f7 BE01     		.2byte	0x1be
 12988 38f9 38       		.uleb128 0x38
 12989 38fa 0F3F0000 		.4byte	.LASF683
 12990 38fe 60010000 		.4byte	0x160
 12991 3902 16390000 		.4byte	0x3916
 12992 3906 16       		.uleb128 0x16
 12993 3907 60010000 		.4byte	0x160
 12994 390b 16       		.uleb128 0x16
 12995 390c 16390000 		.4byte	0x3916
 12996 3910 16       		.uleb128 0x16
 12997 3911 59010000 		.4byte	0x159
 12998 3915 00       		.byte	0
 12999 3916 07       		.uleb128 0x7
 13000 3917 04       		.byte	0x4
 13001 3918 1C390000 		.4byte	0x391c
 13002 391c 39       		.uleb128 0x39
 13003 391d 3A       		.uleb128 0x3a
 13004 391e 470F0000 		.4byte	.LASF684
 13005 3922 12       		.byte	0x12
 13006 3923 8302     		.2byte	0x283
 13007 3925 AF030000 		.4byte	0x3af
 13008 3929 38390000 		.4byte	0x3938
 13009 392d 16       		.uleb128 0x16
 13010 392e D9000000 		.4byte	0xd9
 13011 3932 16       		.uleb128 0x16
 13012 3933 38390000 		.4byte	0x3938
 13013 3937 00       		.byte	0
 13014 3938 07       		.uleb128 0x7
 13015 3939 04       		.byte	0x4
 13016 393a 8E080000 		.4byte	0x88e
 13017 393e 3B       		.uleb128 0x3b
 13018 393f 101A0000 		.4byte	.LASF685
 13019 3943 13       		.byte	0x13
 13020 3944 B2       		.byte	0xb2
 13021 3945 94000000 		.4byte	0x94
 13022 3949 54390000 		.4byte	0x3954
 13023 394d 16       		.uleb128 0x16
 13024 394e 68010000 		.4byte	0x168
 13025 3952 3C       		.uleb128 0x3c
 13026 3953 00       		.byte	0
 13027 3954 3A       		.uleb128 0x3a
 13028 3955 91340000 		.4byte	.LASF686
 13029 3959 08       		.byte	0x8
 13030 395a 1307     		.2byte	0x713
 13031 395c AF030000 		.4byte	0x3af
 13032 3960 6F390000 		.4byte	0x396f
 13033 3964 16       		.uleb128 0x16
 13034 3965 D9000000 		.4byte	0xd9
 13035 3969 16       		.uleb128 0x16
 13036 396a 38390000 		.4byte	0x3938
 13037 396e 00       		.byte	0
 13038 396f 3A       		.uleb128 0x3a
ARM GAS  C:\Users\Helon\AppData\Local\Temp\ccys0XsA.s 			page 288


 13039 3970 16230000 		.4byte	.LASF687
 13040 3974 0B       		.byte	0xb
 13041 3975 5601     		.2byte	0x156
 13042 3977 AF030000 		.4byte	0x3af
 13043 397b 8A390000 		.4byte	0x398a
 13044 397f 16       		.uleb128 0x16
 13045 3980 14090000 		.4byte	0x914
 13046 3984 16       		.uleb128 0x16
 13047 3985 E4000000 		.4byte	0xe4
 13048 3989 00       		.byte	0
 13049 398a 3A       		.uleb128 0x3a
 13050 398b 602E0000 		.4byte	.LASF688
 13051 398f 0A       		.byte	0xa
 13052 3990 6901     		.2byte	0x169
 13053 3992 AF030000 		.4byte	0x3af
 13054 3996 A5390000 		.4byte	0x39a5
 13055 399a 16       		.uleb128 0x16
 13056 399b 14090000 		.4byte	0x914
 13057 399f 16       		.uleb128 0x16
 13058 39a0 E4000000 		.4byte	0xe4
 13059 39a4 00       		.byte	0
 13060 39a5 3D       		.uleb128 0x3d
 13061 39a6 78330000 		.4byte	.LASF689
 13062 39aa 0E       		.byte	0xe
 13063 39ab 8C01     		.2byte	0x18c
 13064 39ad B7390000 		.4byte	0x39b7
 13065 39b1 16       		.uleb128 0x16
 13066 39b2 EF000000 		.4byte	0xef
 13067 39b6 00       		.byte	0
 13068 39b7 3A       		.uleb128 0x3a
 13069 39b8 58230000 		.4byte	.LASF690
 13070 39bc 08       		.byte	0x8
 13071 39bd 3F06     		.2byte	0x63f
 13072 39bf AF030000 		.4byte	0x3af
 13073 39c3 D2390000 		.4byte	0x39d2
 13074 39c7 16       		.uleb128 0x16
 13075 39c8 D9000000 		.4byte	0xd9
 13076 39cc 16       		.uleb128 0x16
 13077 39cd D2390000 		.4byte	0x39d2
 13078 39d1 00       		.byte	0
 13079 39d2 07       		.uleb128 0x7
 13080 39d3 04       		.byte	0x4
 13081 39d4 73060000 		.4byte	0x673
 13082 39d8 3D       		.uleb128 0x3d
 13083 39d9 0B2A0000 		.4byte	.LASF691
 13084 39dd 14       		.byte	0x14
 13085 39de 4601     		.2byte	0x146
 13086 39e0 EA390000 		.4byte	0x39ea
 13087 39e4 16       		.uleb128 0x16
 13088 39e5 EF000000 		.4byte	0xef
 13089 39e9 00       		.byte	0
 13090 39ea 37       		.uleb128 0x37
 13091 39eb 79240000 		.4byte	.LASF693
 13092 39ef 14       		.byte	0x14
 13093 39f0 3201     		.2byte	0x132
 13094 39f2 3A       		.uleb128 0x3a
 13095 39f3 FB320000 		.4byte	.LASF694
ARM GAS  C:\Users\Helon\AppData\Local\Temp\ccys0XsA.s 			page 289


 13096 39f7 06       		.byte	0x6
 13097 39f8 6B04     		.2byte	0x46b
 13098 39fa E4030000 		.4byte	0x3e4
 13099 39fe 083A0000 		.4byte	0x3a08
 13100 3a02 16       		.uleb128 0x16
 13101 3a03 E4030000 		.4byte	0x3e4
 13102 3a07 00       		.byte	0
 13103 3a08 35       		.uleb128 0x35
 13104 3a09 5E030000 		.4byte	.LASF696
 13105 3a0d 06       		.byte	0x6
 13106 3a0e B906     		.2byte	0x6b9
 13107 3a10 2B040000 		.4byte	0x42b
 13108 3a14 36       		.uleb128 0x36
 13109 3a15 9A210000 		.4byte	.LASF697
 13110 3a19 15       		.byte	0x15
 13111 3a1a 1D       		.byte	0x1d
 13112 3a1b 253A0000 		.4byte	0x3a25
 13113 3a1f 16       		.uleb128 0x16
 13114 3a20 D9000000 		.4byte	0xd9
 13115 3a24 00       		.byte	0
 13116 3a25 3E       		.uleb128 0x3e
 13117 3a26 7A0E0000 		.4byte	.LASF698
 13118 3a2a 16       		.byte	0x16
 13119 3a2b 6C       		.byte	0x6c
 13120 3a2c 3E       		.uleb128 0x3e
 13121 3a2d E2380000 		.4byte	.LASF699
 13122 3a31 17       		.byte	0x17
 13123 3a32 1D       		.byte	0x1d
 13124 3a33 3E       		.uleb128 0x3e
 13125 3a34 17460000 		.4byte	.LASF700
 13126 3a38 16       		.byte	0x16
 13127 3a39 6D       		.byte	0x6d
 13128 3a3a 36       		.uleb128 0x36
 13129 3a3b 94310000 		.4byte	.LASF701
 13130 3a3f 18       		.byte	0x18
 13131 3a40 57       		.byte	0x57
 13132 3a41 4B3A0000 		.4byte	0x3a4b
 13133 3a45 16       		.uleb128 0x16
 13134 3a46 EF000000 		.4byte	0xef
 13135 3a4a 00       		.byte	0
 13136 3a4b 37       		.uleb128 0x37
 13137 3a4c 1C100000 		.4byte	.LASF702
 13138 3a50 0E       		.byte	0xe
 13139 3a51 8701     		.2byte	0x187
 13140 3a53 3E       		.uleb128 0x3e
 13141 3a54 07120000 		.4byte	.LASF703
 13142 3a58 19       		.byte	0x19
 13143 3a59 28       		.byte	0x28
 13144 3a5a 3F       		.uleb128 0x3f
 13145 3a5b BD030000 		.4byte	.LASF704
 13146 3a5f 1A       		.byte	0x1a
 13147 3a60 21       		.byte	0x21
 13148 3a61 D9000000 		.4byte	0xd9
 13149 3a65 3E       		.uleb128 0x3e
 13150 3a66 E80C0000 		.4byte	.LASF705
 13151 3a6a 17       		.byte	0x17
 13152 3a6b 1C       		.byte	0x1c
ARM GAS  C:\Users\Helon\AppData\Local\Temp\ccys0XsA.s 			page 290


 13153 3a6c 36       		.uleb128 0x36
 13154 3a6d 4B3E0000 		.4byte	.LASF706
 13155 3a71 15       		.byte	0x15
 13156 3a72 1E       		.byte	0x1e
 13157 3a73 7D3A0000 		.4byte	0x3a7d
 13158 3a77 16       		.uleb128 0x16
 13159 3a78 D9000000 		.4byte	0xd9
 13160 3a7c 00       		.byte	0
 13161 3a7d 36       		.uleb128 0x36
 13162 3a7e 4F3D0000 		.4byte	.LASF707
 13163 3a82 1B       		.byte	0x1b
 13164 3a83 1E       		.byte	0x1e
 13165 3a84 8E3A0000 		.4byte	0x3a8e
 13166 3a88 16       		.uleb128 0x16
 13167 3a89 D9000000 		.4byte	0xd9
 13168 3a8d 00       		.byte	0
 13169 3a8e 36       		.uleb128 0x36
 13170 3a8f 0E410000 		.4byte	.LASF708
 13171 3a93 1B       		.byte	0x1b
 13172 3a94 1D       		.byte	0x1d
 13173 3a95 9F3A0000 		.4byte	0x3a9f
 13174 3a99 16       		.uleb128 0x16
 13175 3a9a D9000000 		.4byte	0xd9
 13176 3a9e 00       		.byte	0
 13177 3a9f 36       		.uleb128 0x36
 13178 3aa0 6E2F0000 		.4byte	.LASF709
 13179 3aa4 1C       		.byte	0x1c
 13180 3aa5 1E       		.byte	0x1e
 13181 3aa6 B03A0000 		.4byte	0x3ab0
 13182 3aaa 16       		.uleb128 0x16
 13183 3aab D9000000 		.4byte	0xd9
 13184 3aaf 00       		.byte	0
 13185 3ab0 36       		.uleb128 0x36
 13186 3ab1 21420000 		.4byte	.LASF710
 13187 3ab5 1C       		.byte	0x1c
 13188 3ab6 1D       		.byte	0x1d
 13189 3ab7 C13A0000 		.4byte	0x3ac1
 13190 3abb 16       		.uleb128 0x16
 13191 3abc D9000000 		.4byte	0xd9
 13192 3ac0 00       		.byte	0
 13193 3ac1 37       		.uleb128 0x37
 13194 3ac2 F80F0000 		.4byte	.LASF711
 13195 3ac6 14       		.byte	0x14
 13196 3ac7 2F01     		.2byte	0x12f
 13197 3ac9 36       		.uleb128 0x36
 13198 3aca 44010000 		.4byte	.LASF712
 13199 3ace 1D       		.byte	0x1d
 13200 3acf 18       		.byte	0x18
 13201 3ad0 DA3A0000 		.4byte	0x3ada
 13202 3ad4 16       		.uleb128 0x16
 13203 3ad5 3B010000 		.4byte	0x13b
 13204 3ad9 00       		.byte	0
 13205 3ada 3E       		.uleb128 0x3e
 13206 3adb DE110000 		.4byte	.LASF713
 13207 3adf 16       		.byte	0x16
 13208 3ae0 68       		.byte	0x68
 13209 3ae1 3A       		.uleb128 0x3a
ARM GAS  C:\Users\Helon\AppData\Local\Temp\ccys0XsA.s 			page 291


 13210 3ae2 29210000 		.4byte	.LASF714
 13211 3ae6 0C       		.byte	0xc
 13212 3ae7 A101     		.2byte	0x1a1
 13213 3ae9 AF030000 		.4byte	0x3af
 13214 3aed F73A0000 		.4byte	0x3af7
 13215 3af1 16       		.uleb128 0x16
 13216 3af2 E00A0000 		.4byte	0xae0
 13217 3af6 00       		.byte	0
 13218 3af7 3B       		.uleb128 0x3b
 13219 3af8 1F090000 		.4byte	.LASF715
 13220 3afc 1E       		.byte	0x1e
 13221 3afd 1C       		.byte	0x1c
 13222 3afe 94000000 		.4byte	0x94
 13223 3b02 113B0000 		.4byte	0x3b11
 13224 3b06 16       		.uleb128 0x16
 13225 3b07 68010000 		.4byte	0x168
 13226 3b0b 16       		.uleb128 0x16
 13227 3b0c 68010000 		.4byte	0x168
 13228 3b10 00       		.byte	0
 13229 3b11 3B       		.uleb128 0x3b
 13230 3b12 4E380000 		.4byte	.LASF716
 13231 3b16 1E       		.byte	0x1e
 13232 3b17 1B       		.byte	0x1b
 13233 3b18 62010000 		.4byte	0x162
 13234 3b1c 2B3B0000 		.4byte	0x3b2b
 13235 3b20 16       		.uleb128 0x16
 13236 3b21 68010000 		.4byte	0x168
 13237 3b25 16       		.uleb128 0x16
 13238 3b26 94000000 		.4byte	0x94
 13239 3b2a 00       		.byte	0
 13240 3b2b 3B       		.uleb128 0x3b
 13241 3b2c 15370000 		.4byte	.LASF717
 13242 3b30 1F       		.byte	0x1f
 13243 3b31 25       		.byte	0x25
 13244 3b32 60010000 		.4byte	0x160
 13245 3b36 403B0000 		.4byte	0x3b40
 13246 3b3a 16       		.uleb128 0x16
 13247 3b3b 4E010000 		.4byte	0x14e
 13248 3b3f 00       		.byte	0
 13249 3b40 3B       		.uleb128 0x3b
 13250 3b41 613C0000 		.4byte	.LASF718
 13251 3b45 1E       		.byte	0x1e
 13252 3b46 24       		.byte	0x24
 13253 3b47 62010000 		.4byte	0x162
 13254 3b4b 5F3B0000 		.4byte	0x3b5f
 13255 3b4f 16       		.uleb128 0x16
 13256 3b50 62010000 		.4byte	0x162
 13257 3b54 16       		.uleb128 0x16
 13258 3b55 68010000 		.4byte	0x168
 13259 3b59 16       		.uleb128 0x16
 13260 3b5a 4E010000 		.4byte	0x14e
 13261 3b5e 00       		.byte	0
 13262 3b5f 3B       		.uleb128 0x3b
 13263 3b60 A92D0000 		.4byte	.LASF719
 13264 3b64 1E       		.byte	0x1e
 13265 3b65 23       		.byte	0x23
 13266 3b66 94000000 		.4byte	0x94
ARM GAS  C:\Users\Helon\AppData\Local\Temp\ccys0XsA.s 			page 292


 13267 3b6a 7E3B0000 		.4byte	0x3b7e
 13268 3b6e 16       		.uleb128 0x16
 13269 3b6f 68010000 		.4byte	0x168
 13270 3b73 16       		.uleb128 0x16
 13271 3b74 68010000 		.4byte	0x168
 13272 3b78 16       		.uleb128 0x16
 13273 3b79 4E010000 		.4byte	0x14e
 13274 3b7d 00       		.byte	0
 13275 3b7e 36       		.uleb128 0x36
 13276 3b7f 82420000 		.4byte	.LASF720
 13277 3b83 1F       		.byte	0x1f
 13278 3b84 2D       		.byte	0x2d
 13279 3b85 8F3B0000 		.4byte	0x3b8f
 13280 3b89 16       		.uleb128 0x16
 13281 3b8a 60010000 		.4byte	0x160
 13282 3b8e 00       		.byte	0
 13283 3b8f 3B       		.uleb128 0x3b
 13284 3b90 5E440000 		.4byte	.LASF721
 13285 3b94 0A       		.byte	0xa
 13286 3b95 DF       		.byte	0xdf
 13287 3b96 AF030000 		.4byte	0x3af
 13288 3b9a A93B0000 		.4byte	0x3ba9
 13289 3b9e 16       		.uleb128 0x16
 13290 3b9f 14090000 		.4byte	0x914
 13291 3ba3 16       		.uleb128 0x16
 13292 3ba4 A93B0000 		.4byte	0x3ba9
 13293 3ba8 00       		.byte	0
 13294 3ba9 07       		.uleb128 0x7
 13295 3baa 04       		.byte	0x4
 13296 3bab ED090000 		.4byte	0x9ed
 13297 3baf 3A       		.uleb128 0x3a
 13298 3bb0 EE060000 		.4byte	.LASF722
 13299 3bb4 0B       		.byte	0xb
 13300 3bb5 6003     		.2byte	0x360
 13301 3bb7 AF030000 		.4byte	0x3af
 13302 3bbb CA3B0000 		.4byte	0x3bca
 13303 3bbf 16       		.uleb128 0x16
 13304 3bc0 14090000 		.4byte	0x914
 13305 3bc4 16       		.uleb128 0x16
 13306 3bc5 CA3B0000 		.4byte	0x3bca
 13307 3bc9 00       		.byte	0
 13308 3bca 07       		.uleb128 0x7
 13309 3bcb 04       		.byte	0x4
 13310 3bcc 3A0A0000 		.4byte	0xa3a
 13311 3bd0 3A       		.uleb128 0x3a
 13312 3bd1 0E000000 		.4byte	.LASF723
 13313 3bd5 0C       		.byte	0xc
 13314 3bd6 C201     		.2byte	0x1c2
 13315 3bd8 AF030000 		.4byte	0x3af
 13316 3bdc E63B0000 		.4byte	0x3be6
 13317 3be0 16       		.uleb128 0x16
 13318 3be1 E63B0000 		.4byte	0x3be6
 13319 3be5 00       		.byte	0
 13320 3be6 07       		.uleb128 0x7
 13321 3be7 04       		.byte	0x4
 13322 3be8 EC3B0000 		.4byte	0x3bec
 13323 3bec 0A       		.uleb128 0xa
ARM GAS  C:\Users\Helon\AppData\Local\Temp\ccys0XsA.s 			page 293


 13324 3bed 0F050000 		.4byte	0x50f
 13325 3bf1 3A       		.uleb128 0x3a
 13326 3bf2 F0150000 		.4byte	.LASF724
 13327 3bf6 06       		.byte	0x6
 13328 3bf7 1F05     		.2byte	0x51f
 13329 3bf9 AF030000 		.4byte	0x3af
 13330 3bfd 073C0000 		.4byte	0x3c07
 13331 3c01 16       		.uleb128 0x16
 13332 3c02 073C0000 		.4byte	0x3c07
 13333 3c06 00       		.byte	0
 13334 3c07 07       		.uleb128 0x7
 13335 3c08 04       		.byte	0x4
 13336 3c09 CF040000 		.4byte	0x4cf
 13337 3c0d 3A       		.uleb128 0x3a
 13338 3c0e DB230000 		.4byte	.LASF725
 13339 3c12 06       		.byte	0x6
 13340 3c13 4105     		.2byte	0x541
 13341 3c15 AF030000 		.4byte	0x3af
 13342 3c19 233C0000 		.4byte	0x3c23
 13343 3c1d 16       		.uleb128 0x16
 13344 3c1e 073C0000 		.4byte	0x3c07
 13345 3c22 00       		.byte	0
 13346 3c23 38       		.uleb128 0x38
 13347 3c24 B8340000 		.4byte	.LASF726
 13348 3c28 60010000 		.4byte	0x160
 13349 3c2c 403C0000 		.4byte	0x3c40
 13350 3c30 16       		.uleb128 0x16
 13351 3c31 60010000 		.4byte	0x160
 13352 3c35 16       		.uleb128 0x16
 13353 3c36 94000000 		.4byte	0x94
 13354 3c3a 16       		.uleb128 0x16
 13355 3c3b 59010000 		.4byte	0x159
 13356 3c3f 00       		.byte	0
 13357 3c40 3E       		.uleb128 0x3e
 13358 3c41 F0020000 		.4byte	.LASF727
 13359 3c45 18       		.byte	0x18
 13360 3c46 5D       		.byte	0x5d
 13361 3c47 3A       		.uleb128 0x3a
 13362 3c48 17190000 		.4byte	.LASF728
 13363 3c4c 06       		.byte	0x6
 13364 3c4d E504     		.2byte	0x4e5
 13365 3c4f AF030000 		.4byte	0x3af
 13366 3c53 5D3C0000 		.4byte	0x3c5d
 13367 3c57 16       		.uleb128 0x16
 13368 3c58 5D3C0000 		.4byte	0x3c5d
 13369 3c5c 00       		.byte	0
 13370 3c5d 07       		.uleb128 0x7
 13371 3c5e 04       		.byte	0x4
 13372 3c5f 0F050000 		.4byte	0x50f
 13373 3c63 3A       		.uleb128 0x3a
 13374 3c64 B5140000 		.4byte	.LASF729
 13375 3c68 0D       		.byte	0xd
 13376 3c69 6908     		.2byte	0x869
 13377 3c6b AF030000 		.4byte	0x3af
 13378 3c6f 793C0000 		.4byte	0x3c79
 13379 3c73 16       		.uleb128 0x16
 13380 3c74 793C0000 		.4byte	0x3c79
ARM GAS  C:\Users\Helon\AppData\Local\Temp\ccys0XsA.s 			page 294


 13381 3c78 00       		.byte	0
 13382 3c79 07       		.uleb128 0x7
 13383 3c7a 04       		.byte	0x4
 13384 3c7b 13010000 		.4byte	0x113
 13385 3c7f 37       		.uleb128 0x37
 13386 3c80 19170000 		.4byte	.LASF730
 13387 3c84 0C       		.byte	0xc
 13388 3c85 B101     		.2byte	0x1b1
 13389 3c87 3A       		.uleb128 0x3a
 13390 3c88 6E3A0000 		.4byte	.LASF731
 13391 3c8c 0D       		.byte	0xd
 13392 3c8d 6808     		.2byte	0x868
 13393 3c8f AF030000 		.4byte	0x3af
 13394 3c93 9D3C0000 		.4byte	0x3c9d
 13395 3c97 16       		.uleb128 0x16
 13396 3c98 9D3C0000 		.4byte	0x3c9d
 13397 3c9c 00       		.byte	0
 13398 3c9d 07       		.uleb128 0x7
 13399 3c9e 04       		.byte	0x4
 13400 3c9f A33C0000 		.4byte	0x3ca3
 13401 3ca3 0A       		.uleb128 0xa
 13402 3ca4 13010000 		.4byte	0x113
 13403 3ca8 3A       		.uleb128 0x3a
 13404 3ca9 FD210000 		.4byte	.LASF732
 13405 3cad 08       		.byte	0x8
 13406 3cae A107     		.2byte	0x7a1
 13407 3cb0 AF030000 		.4byte	0x3af
 13408 3cb4 C33C0000 		.4byte	0x3cc3
 13409 3cb8 16       		.uleb128 0x16
 13410 3cb9 CE070000 		.4byte	0x7ce
 13411 3cbd 16       		.uleb128 0x16
 13412 3cbe D4070000 		.4byte	0x7d4
 13413 3cc2 00       		.byte	0
 13414 3cc3 3B       		.uleb128 0x3b
 13415 3cc4 22260000 		.4byte	.LASF733
 13416 3cc8 20       		.byte	0x20
 13417 3cc9 32       		.byte	0x32
 13418 3cca EF000000 		.4byte	0xef
 13419 3cce DD3C0000 		.4byte	0x3cdd
 13420 3cd2 16       		.uleb128 0x16
 13421 3cd3 D9000000 		.4byte	0xd9
 13422 3cd7 16       		.uleb128 0x16
 13423 3cd8 DD3C0000 		.4byte	0x3cdd
 13424 3cdc 00       		.byte	0
 13425 3cdd 07       		.uleb128 0x7
 13426 3cde 04       		.byte	0x4
 13427 3cdf EF000000 		.4byte	0xef
 13428 3ce3 3A       		.uleb128 0x3a
 13429 3ce4 55120000 		.4byte	.LASF734
 13430 3ce8 0C       		.byte	0xc
 13431 3ce9 B001     		.2byte	0x1b0
 13432 3ceb AF030000 		.4byte	0x3af
 13433 3cef F93C0000 		.4byte	0x3cf9
 13434 3cf3 16       		.uleb128 0x16
 13435 3cf4 D9000000 		.4byte	0xd9
 13436 3cf8 00       		.byte	0
 13437 3cf9 3A       		.uleb128 0x3a
ARM GAS  C:\Users\Helon\AppData\Local\Temp\ccys0XsA.s 			page 295


 13438 3cfa 790F0000 		.4byte	.LASF735
 13439 3cfe 0C       		.byte	0xc
 13440 3cff BD01     		.2byte	0x1bd
 13441 3d01 AF030000 		.4byte	0x3af
 13442 3d05 0F3D0000 		.4byte	0x3d0f
 13443 3d09 16       		.uleb128 0x16
 13444 3d0a D9000000 		.4byte	0xd9
 13445 3d0e 00       		.byte	0
 13446 3d0f 3A       		.uleb128 0x3a
 13447 3d10 7C0C0000 		.4byte	.LASF736
 13448 3d14 0B       		.byte	0xb
 13449 3d15 8002     		.2byte	0x280
 13450 3d17 AF030000 		.4byte	0x3af
 13451 3d1b 2A3D0000 		.4byte	0x3d2a
 13452 3d1f 16       		.uleb128 0x16
 13453 3d20 14090000 		.4byte	0x914
 13454 3d24 16       		.uleb128 0x16
 13455 3d25 2A3D0000 		.4byte	0x3d2a
 13456 3d29 00       		.byte	0
 13457 3d2a 07       		.uleb128 0x7
 13458 3d2b 04       		.byte	0x4
 13459 3d2c 240A0000 		.4byte	0xa24
 13460 3d30 3E       		.uleb128 0x3e
 13461 3d31 03340000 		.4byte	.LASF737
 13462 3d35 10       		.byte	0x10
 13463 3d36 21       		.byte	0x21
 13464 3d37 3A       		.uleb128 0x3a
 13465 3d38 B4200000 		.4byte	.LASF738
 13466 3d3c 08       		.byte	0x8
 13467 3d3d DA04     		.2byte	0x4da
 13468 3d3f AF030000 		.4byte	0x3af
 13469 3d43 4D3D0000 		.4byte	0x3d4d
 13470 3d47 16       		.uleb128 0x16
 13471 3d48 D9000000 		.4byte	0xd9
 13472 3d4c 00       		.byte	0
 13473 3d4d 35       		.uleb128 0x35
 13474 3d4e EA280000 		.4byte	.LASF739
 13475 3d52 06       		.byte	0x6
 13476 3d53 FA04     		.2byte	0x4fa
 13477 3d55 FA000000 		.4byte	0xfa
 13478 3d59 3A       		.uleb128 0x3a
 13479 3d5a 72030000 		.4byte	.LASF740
 13480 3d5e 08       		.byte	0x8
 13481 3d5f 1A03     		.2byte	0x31a
 13482 3d61 AF030000 		.4byte	0x3af
 13483 3d65 6F3D0000 		.4byte	0x3d6f
 13484 3d69 16       		.uleb128 0x16
 13485 3d6a C7050000 		.4byte	0x5c7
 13486 3d6e 00       		.byte	0
 13487 3d6f 3A       		.uleb128 0x3a
 13488 3d70 4F2C0000 		.4byte	.LASF741
 13489 3d74 08       		.byte	0x8
 13490 3d75 EE05     		.2byte	0x5ee
 13491 3d77 AF030000 		.4byte	0x3af
 13492 3d7b 8A3D0000 		.4byte	0x3d8a
 13493 3d7f 16       		.uleb128 0x16
 13494 3d80 D9000000 		.4byte	0xd9
ARM GAS  C:\Users\Helon\AppData\Local\Temp\ccys0XsA.s 			page 296


 13495 3d84 16       		.uleb128 0x16
 13496 3d85 D2390000 		.4byte	0x39d2
 13497 3d89 00       		.byte	0
 13498 3d8a 35       		.uleb128 0x35
 13499 3d8b 003B0000 		.4byte	.LASF742
 13500 3d8f 0E       		.byte	0xe
 13501 3d90 8601     		.2byte	0x186
 13502 3d92 EF000000 		.4byte	0xef
 13503 3d96 35       		.uleb128 0x35
 13504 3d97 B02F0000 		.4byte	.LASF743
 13505 3d9b 0E       		.byte	0xe
 13506 3d9c 6B01     		.2byte	0x16b
 13507 3d9e EF000000 		.4byte	0xef
 13508 3da2 3B       		.uleb128 0x3b
 13509 3da3 54160000 		.4byte	.LASF744
 13510 3da7 1E       		.byte	0x1e
 13511 3da8 16       		.byte	0x16
 13512 3da9 94000000 		.4byte	0x94
 13513 3dad C13D0000 		.4byte	0x3dc1
 13514 3db1 16       		.uleb128 0x16
 13515 3db2 16390000 		.4byte	0x3916
 13516 3db6 16       		.uleb128 0x16
 13517 3db7 16390000 		.4byte	0x3916
 13518 3dbb 16       		.uleb128 0x16
 13519 3dbc 4E010000 		.4byte	0x14e
 13520 3dc0 00       		.byte	0
 13521 3dc1 3A       		.uleb128 0x3a
 13522 3dc2 8B0A0000 		.4byte	.LASF745
 13523 3dc6 0B       		.byte	0xb
 13524 3dc7 BD03     		.2byte	0x3bd
 13525 3dc9 AF030000 		.4byte	0x3af
 13526 3dcd DC3D0000 		.4byte	0x3ddc
 13527 3dd1 16       		.uleb128 0x16
 13528 3dd2 14090000 		.4byte	0x914
 13529 3dd6 16       		.uleb128 0x16
 13530 3dd7 DC3D0000 		.4byte	0x3ddc
 13531 3ddb 00       		.byte	0
 13532 3ddc 07       		.uleb128 0x7
 13533 3ddd 04       		.byte	0x4
 13534 3dde 450A0000 		.4byte	0xa45
 13535 3de2 37       		.uleb128 0x37
 13536 3de3 53370000 		.4byte	.LASF746
 13537 3de7 06       		.byte	0x6
 13538 3de8 A304     		.2byte	0x4a3
 13539 3dea 35       		.uleb128 0x35
 13540 3deb 180A0000 		.4byte	.LASF747
 13541 3def 0E       		.byte	0xe
 13542 3df0 6A01     		.2byte	0x16a
 13543 3df2 EF000000 		.4byte	0xef
 13544 3df6 40       		.uleb128 0x40
 13545 3df7 82430000 		.4byte	.LASF748
 13546 3dfb 08       		.byte	0x8
 13547 3dfc 6B06     		.2byte	0x66b
 13548 3dfe AF030000 		.4byte	0x3af
 13549 3e02 16       		.uleb128 0x16
 13550 3e03 D9000000 		.4byte	0xd9
 13551 3e07 16       		.uleb128 0x16
ARM GAS  C:\Users\Helon\AppData\Local\Temp\ccys0XsA.s 			page 297


 13552 3e08 EF000000 		.4byte	0xef
 13553 3e0c 16       		.uleb128 0x16
 13554 3e0d D9000000 		.4byte	0xd9
 13555 3e11 00       		.byte	0
 13556 3e12 00       		.byte	0
 13557              		.section	.debug_abbrev,"",%progbits
 13558              	.Ldebug_abbrev0:
 13559 0000 01       		.uleb128 0x1
 13560 0001 11       		.uleb128 0x11
 13561 0002 01       		.byte	0x1
 13562 0003 25       		.uleb128 0x25
 13563 0004 0E       		.uleb128 0xe
 13564 0005 13       		.uleb128 0x13
 13565 0006 0B       		.uleb128 0xb
 13566 0007 03       		.uleb128 0x3
 13567 0008 0E       		.uleb128 0xe
 13568 0009 1B       		.uleb128 0x1b
 13569 000a 0E       		.uleb128 0xe
 13570 000b 55       		.uleb128 0x55
 13571 000c 17       		.uleb128 0x17
 13572 000d 11       		.uleb128 0x11
 13573 000e 01       		.uleb128 0x1
 13574 000f 10       		.uleb128 0x10
 13575 0010 17       		.uleb128 0x17
 13576 0011 00       		.byte	0
 13577 0012 00       		.byte	0
 13578 0013 02       		.uleb128 0x2
 13579 0014 16       		.uleb128 0x16
 13580 0015 00       		.byte	0
 13581 0016 03       		.uleb128 0x3
 13582 0017 0E       		.uleb128 0xe
 13583 0018 3A       		.uleb128 0x3a
 13584 0019 0B       		.uleb128 0xb
 13585 001a 3B       		.uleb128 0x3b
 13586 001b 0B       		.uleb128 0xb
 13587 001c 49       		.uleb128 0x49
 13588 001d 13       		.uleb128 0x13
 13589 001e 00       		.byte	0
 13590 001f 00       		.byte	0
 13591 0020 03       		.uleb128 0x3
 13592 0021 24       		.uleb128 0x24
 13593 0022 00       		.byte	0
 13594 0023 0B       		.uleb128 0xb
 13595 0024 0B       		.uleb128 0xb
 13596 0025 3E       		.uleb128 0x3e
 13597 0026 0B       		.uleb128 0xb
 13598 0027 03       		.uleb128 0x3
 13599 0028 0E       		.uleb128 0xe
 13600 0029 00       		.byte	0
 13601 002a 00       		.byte	0
 13602 002b 04       		.uleb128 0x4
 13603 002c 24       		.uleb128 0x24
 13604 002d 00       		.byte	0
 13605 002e 0B       		.uleb128 0xb
 13606 002f 0B       		.uleb128 0xb
 13607 0030 3E       		.uleb128 0x3e
 13608 0031 0B       		.uleb128 0xb
ARM GAS  C:\Users\Helon\AppData\Local\Temp\ccys0XsA.s 			page 298


 13609 0032 03       		.uleb128 0x3
 13610 0033 08       		.uleb128 0x8
 13611 0034 00       		.byte	0
 13612 0035 00       		.byte	0
 13613 0036 05       		.uleb128 0x5
 13614 0037 35       		.uleb128 0x35
 13615 0038 00       		.byte	0
 13616 0039 49       		.uleb128 0x49
 13617 003a 13       		.uleb128 0x13
 13618 003b 00       		.byte	0
 13619 003c 00       		.byte	0
 13620 003d 06       		.uleb128 0x6
 13621 003e 16       		.uleb128 0x16
 13622 003f 00       		.byte	0
 13623 0040 03       		.uleb128 0x3
 13624 0041 0E       		.uleb128 0xe
 13625 0042 3A       		.uleb128 0x3a
 13626 0043 0B       		.uleb128 0xb
 13627 0044 3B       		.uleb128 0x3b
 13628 0045 05       		.uleb128 0x5
 13629 0046 49       		.uleb128 0x49
 13630 0047 13       		.uleb128 0x13
 13631 0048 00       		.byte	0
 13632 0049 00       		.byte	0
 13633 004a 07       		.uleb128 0x7
 13634 004b 0F       		.uleb128 0xf
 13635 004c 00       		.byte	0
 13636 004d 0B       		.uleb128 0xb
 13637 004e 0B       		.uleb128 0xb
 13638 004f 49       		.uleb128 0x49
 13639 0050 13       		.uleb128 0x13
 13640 0051 00       		.byte	0
 13641 0052 00       		.byte	0
 13642 0053 08       		.uleb128 0x8
 13643 0054 15       		.uleb128 0x15
 13644 0055 00       		.byte	0
 13645 0056 27       		.uleb128 0x27
 13646 0057 19       		.uleb128 0x19
 13647 0058 00       		.byte	0
 13648 0059 00       		.byte	0
 13649 005a 09       		.uleb128 0x9
 13650 005b 0F       		.uleb128 0xf
 13651 005c 00       		.byte	0
 13652 005d 0B       		.uleb128 0xb
 13653 005e 0B       		.uleb128 0xb
 13654 005f 00       		.byte	0
 13655 0060 00       		.byte	0
 13656 0061 0A       		.uleb128 0xa
 13657 0062 26       		.uleb128 0x26
 13658 0063 00       		.byte	0
 13659 0064 49       		.uleb128 0x49
 13660 0065 13       		.uleb128 0x13
 13661 0066 00       		.byte	0
 13662 0067 00       		.byte	0
 13663 0068 0B       		.uleb128 0xb
 13664 0069 04       		.uleb128 0x4
 13665 006a 01       		.byte	0x1
ARM GAS  C:\Users\Helon\AppData\Local\Temp\ccys0XsA.s 			page 299


 13666 006b 0B       		.uleb128 0xb
 13667 006c 0B       		.uleb128 0xb
 13668 006d 3A       		.uleb128 0x3a
 13669 006e 0B       		.uleb128 0xb
 13670 006f 3B       		.uleb128 0x3b
 13671 0070 0B       		.uleb128 0xb
 13672 0071 01       		.uleb128 0x1
 13673 0072 13       		.uleb128 0x13
 13674 0073 00       		.byte	0
 13675 0074 00       		.byte	0
 13676 0075 0C       		.uleb128 0xc
 13677 0076 28       		.uleb128 0x28
 13678 0077 00       		.byte	0
 13679 0078 03       		.uleb128 0x3
 13680 0079 0E       		.uleb128 0xe
 13681 007a 1C       		.uleb128 0x1c
 13682 007b 0D       		.uleb128 0xd
 13683 007c 00       		.byte	0
 13684 007d 00       		.byte	0
 13685 007e 0D       		.uleb128 0xd
 13686 007f 04       		.uleb128 0x4
 13687 0080 01       		.byte	0x1
 13688 0081 0B       		.uleb128 0xb
 13689 0082 0B       		.uleb128 0xb
 13690 0083 3A       		.uleb128 0x3a
 13691 0084 0B       		.uleb128 0xb
 13692 0085 3B       		.uleb128 0x3b
 13693 0086 05       		.uleb128 0x5
 13694 0087 01       		.uleb128 0x1
 13695 0088 13       		.uleb128 0x13
 13696 0089 00       		.byte	0
 13697 008a 00       		.byte	0
 13698 008b 0E       		.uleb128 0xe
 13699 008c 13       		.uleb128 0x13
 13700 008d 01       		.byte	0x1
 13701 008e 0B       		.uleb128 0xb
 13702 008f 0B       		.uleb128 0xb
 13703 0090 3A       		.uleb128 0x3a
 13704 0091 0B       		.uleb128 0xb
 13705 0092 3B       		.uleb128 0x3b
 13706 0093 05       		.uleb128 0x5
 13707 0094 01       		.uleb128 0x1
 13708 0095 13       		.uleb128 0x13
 13709 0096 00       		.byte	0
 13710 0097 00       		.byte	0
 13711 0098 0F       		.uleb128 0xf
 13712 0099 0D       		.uleb128 0xd
 13713 009a 00       		.byte	0
 13714 009b 03       		.uleb128 0x3
 13715 009c 0E       		.uleb128 0xe
 13716 009d 3A       		.uleb128 0x3a
 13717 009e 0B       		.uleb128 0xb
 13718 009f 3B       		.uleb128 0x3b
 13719 00a0 05       		.uleb128 0x5
 13720 00a1 49       		.uleb128 0x49
 13721 00a2 13       		.uleb128 0x13
 13722 00a3 38       		.uleb128 0x38
ARM GAS  C:\Users\Helon\AppData\Local\Temp\ccys0XsA.s 			page 300


 13723 00a4 0B       		.uleb128 0xb
 13724 00a5 00       		.byte	0
 13725 00a6 00       		.byte	0
 13726 00a7 10       		.uleb128 0x10
 13727 00a8 01       		.uleb128 0x1
 13728 00a9 01       		.byte	0x1
 13729 00aa 49       		.uleb128 0x49
 13730 00ab 13       		.uleb128 0x13
 13731 00ac 01       		.uleb128 0x1
 13732 00ad 13       		.uleb128 0x13
 13733 00ae 00       		.byte	0
 13734 00af 00       		.byte	0
 13735 00b0 11       		.uleb128 0x11
 13736 00b1 21       		.uleb128 0x21
 13737 00b2 00       		.byte	0
 13738 00b3 49       		.uleb128 0x49
 13739 00b4 13       		.uleb128 0x13
 13740 00b5 2F       		.uleb128 0x2f
 13741 00b6 0B       		.uleb128 0xb
 13742 00b7 00       		.byte	0
 13743 00b8 00       		.byte	0
 13744 00b9 12       		.uleb128 0x12
 13745 00ba 0D       		.uleb128 0xd
 13746 00bb 00       		.byte	0
 13747 00bc 03       		.uleb128 0x3
 13748 00bd 08       		.uleb128 0x8
 13749 00be 3A       		.uleb128 0x3a
 13750 00bf 0B       		.uleb128 0xb
 13751 00c0 3B       		.uleb128 0x3b
 13752 00c1 05       		.uleb128 0x5
 13753 00c2 49       		.uleb128 0x49
 13754 00c3 13       		.uleb128 0x13
 13755 00c4 38       		.uleb128 0x38
 13756 00c5 0B       		.uleb128 0xb
 13757 00c6 00       		.byte	0
 13758 00c7 00       		.byte	0
 13759 00c8 13       		.uleb128 0x13
 13760 00c9 13       		.uleb128 0x13
 13761 00ca 01       		.byte	0x1
 13762 00cb 0B       		.uleb128 0xb
 13763 00cc 0B       		.uleb128 0xb
 13764 00cd 3A       		.uleb128 0x3a
 13765 00ce 0B       		.uleb128 0xb
 13766 00cf 3B       		.uleb128 0x3b
 13767 00d0 0B       		.uleb128 0xb
 13768 00d1 01       		.uleb128 0x1
 13769 00d2 13       		.uleb128 0x13
 13770 00d3 00       		.byte	0
 13771 00d4 00       		.byte	0
 13772 00d5 14       		.uleb128 0x14
 13773 00d6 0D       		.uleb128 0xd
 13774 00d7 00       		.byte	0
 13775 00d8 03       		.uleb128 0x3
 13776 00d9 0E       		.uleb128 0xe
 13777 00da 3A       		.uleb128 0x3a
 13778 00db 0B       		.uleb128 0xb
 13779 00dc 3B       		.uleb128 0x3b
ARM GAS  C:\Users\Helon\AppData\Local\Temp\ccys0XsA.s 			page 301


 13780 00dd 0B       		.uleb128 0xb
 13781 00de 49       		.uleb128 0x49
 13782 00df 13       		.uleb128 0x13
 13783 00e0 38       		.uleb128 0x38
 13784 00e1 0B       		.uleb128 0xb
 13785 00e2 00       		.byte	0
 13786 00e3 00       		.byte	0
 13787 00e4 15       		.uleb128 0x15
 13788 00e5 15       		.uleb128 0x15
 13789 00e6 01       		.byte	0x1
 13790 00e7 27       		.uleb128 0x27
 13791 00e8 19       		.uleb128 0x19
 13792 00e9 01       		.uleb128 0x1
 13793 00ea 13       		.uleb128 0x13
 13794 00eb 00       		.byte	0
 13795 00ec 00       		.byte	0
 13796 00ed 16       		.uleb128 0x16
 13797 00ee 05       		.uleb128 0x5
 13798 00ef 00       		.byte	0
 13799 00f0 49       		.uleb128 0x49
 13800 00f1 13       		.uleb128 0x13
 13801 00f2 00       		.byte	0
 13802 00f3 00       		.byte	0
 13803 00f4 17       		.uleb128 0x17
 13804 00f5 28       		.uleb128 0x28
 13805 00f6 00       		.byte	0
 13806 00f7 03       		.uleb128 0x3
 13807 00f8 08       		.uleb128 0x8
 13808 00f9 1C       		.uleb128 0x1c
 13809 00fa 0D       		.uleb128 0xd
 13810 00fb 00       		.byte	0
 13811 00fc 00       		.byte	0
 13812 00fd 18       		.uleb128 0x18
 13813 00fe 0D       		.uleb128 0xd
 13814 00ff 00       		.byte	0
 13815 0100 03       		.uleb128 0x3
 13816 0101 08       		.uleb128 0x8
 13817 0102 3A       		.uleb128 0x3a
 13818 0103 0B       		.uleb128 0xb
 13819 0104 3B       		.uleb128 0x3b
 13820 0105 0B       		.uleb128 0xb
 13821 0106 49       		.uleb128 0x49
 13822 0107 13       		.uleb128 0x13
 13823 0108 38       		.uleb128 0x38
 13824 0109 0B       		.uleb128 0xb
 13825 010a 00       		.byte	0
 13826 010b 00       		.byte	0
 13827 010c 19       		.uleb128 0x19
 13828 010d 2E       		.uleb128 0x2e
 13829 010e 01       		.byte	0x1
 13830 010f 3F       		.uleb128 0x3f
 13831 0110 19       		.uleb128 0x19
 13832 0111 03       		.uleb128 0x3
 13833 0112 0E       		.uleb128 0xe
 13834 0113 3A       		.uleb128 0x3a
 13835 0114 0B       		.uleb128 0xb
 13836 0115 3B       		.uleb128 0x3b
ARM GAS  C:\Users\Helon\AppData\Local\Temp\ccys0XsA.s 			page 302


 13837 0116 0B       		.uleb128 0xb
 13838 0117 27       		.uleb128 0x27
 13839 0118 19       		.uleb128 0x19
 13840 0119 11       		.uleb128 0x11
 13841 011a 01       		.uleb128 0x1
 13842 011b 12       		.uleb128 0x12
 13843 011c 06       		.uleb128 0x6
 13844 011d 40       		.uleb128 0x40
 13845 011e 18       		.uleb128 0x18
 13846 011f 9742     		.uleb128 0x2117
 13847 0121 19       		.uleb128 0x19
 13848 0122 01       		.uleb128 0x1
 13849 0123 13       		.uleb128 0x13
 13850 0124 00       		.byte	0
 13851 0125 00       		.byte	0
 13852 0126 1A       		.uleb128 0x1a
 13853 0127 05       		.uleb128 0x5
 13854 0128 00       		.byte	0
 13855 0129 03       		.uleb128 0x3
 13856 012a 0E       		.uleb128 0xe
 13857 012b 3A       		.uleb128 0x3a
 13858 012c 0B       		.uleb128 0xb
 13859 012d 3B       		.uleb128 0x3b
 13860 012e 0B       		.uleb128 0xb
 13861 012f 49       		.uleb128 0x49
 13862 0130 13       		.uleb128 0x13
 13863 0131 02       		.uleb128 0x2
 13864 0132 17       		.uleb128 0x17
 13865 0133 00       		.byte	0
 13866 0134 00       		.byte	0
 13867 0135 1B       		.uleb128 0x1b
 13868 0136 34       		.uleb128 0x34
 13869 0137 00       		.byte	0
 13870 0138 03       		.uleb128 0x3
 13871 0139 0E       		.uleb128 0xe
 13872 013a 3A       		.uleb128 0x3a
 13873 013b 0B       		.uleb128 0xb
 13874 013c 3B       		.uleb128 0x3b
 13875 013d 0B       		.uleb128 0xb
 13876 013e 49       		.uleb128 0x49
 13877 013f 13       		.uleb128 0x13
 13878 0140 02       		.uleb128 0x2
 13879 0141 18       		.uleb128 0x18
 13880 0142 00       		.byte	0
 13881 0143 00       		.byte	0
 13882 0144 1C       		.uleb128 0x1c
 13883 0145 34       		.uleb128 0x34
 13884 0146 00       		.byte	0
 13885 0147 03       		.uleb128 0x3
 13886 0148 08       		.uleb128 0x8
 13887 0149 3A       		.uleb128 0x3a
 13888 014a 0B       		.uleb128 0xb
 13889 014b 3B       		.uleb128 0x3b
 13890 014c 0B       		.uleb128 0xb
 13891 014d 49       		.uleb128 0x49
 13892 014e 13       		.uleb128 0x13
 13893 014f 02       		.uleb128 0x2
ARM GAS  C:\Users\Helon\AppData\Local\Temp\ccys0XsA.s 			page 303


 13894 0150 17       		.uleb128 0x17
 13895 0151 00       		.byte	0
 13896 0152 00       		.byte	0
 13897 0153 1D       		.uleb128 0x1d
 13898 0154 34       		.uleb128 0x34
 13899 0155 00       		.byte	0
 13900 0156 03       		.uleb128 0x3
 13901 0157 0E       		.uleb128 0xe
 13902 0158 3A       		.uleb128 0x3a
 13903 0159 0B       		.uleb128 0xb
 13904 015a 3B       		.uleb128 0x3b
 13905 015b 0B       		.uleb128 0xb
 13906 015c 49       		.uleb128 0x49
 13907 015d 13       		.uleb128 0x13
 13908 015e 02       		.uleb128 0x2
 13909 015f 17       		.uleb128 0x17
 13910 0160 00       		.byte	0
 13911 0161 00       		.byte	0
 13912 0162 1E       		.uleb128 0x1e
 13913 0163 898201   		.uleb128 0x4109
 13914 0166 01       		.byte	0x1
 13915 0167 11       		.uleb128 0x11
 13916 0168 01       		.uleb128 0x1
 13917 0169 31       		.uleb128 0x31
 13918 016a 13       		.uleb128 0x13
 13919 016b 01       		.uleb128 0x1
 13920 016c 13       		.uleb128 0x13
 13921 016d 00       		.byte	0
 13922 016e 00       		.byte	0
 13923 016f 1F       		.uleb128 0x1f
 13924 0170 8A8201   		.uleb128 0x410a
 13925 0173 00       		.byte	0
 13926 0174 02       		.uleb128 0x2
 13927 0175 18       		.uleb128 0x18
 13928 0176 9142     		.uleb128 0x2111
 13929 0178 18       		.uleb128 0x18
 13930 0179 00       		.byte	0
 13931 017a 00       		.byte	0
 13932 017b 20       		.uleb128 0x20
 13933 017c 898201   		.uleb128 0x4109
 13934 017f 00       		.byte	0
 13935 0180 11       		.uleb128 0x11
 13936 0181 01       		.uleb128 0x1
 13937 0182 31       		.uleb128 0x31
 13938 0183 13       		.uleb128 0x13
 13939 0184 00       		.byte	0
 13940 0185 00       		.byte	0
 13941 0186 21       		.uleb128 0x21
 13942 0187 898201   		.uleb128 0x4109
 13943 018a 01       		.byte	0x1
 13944 018b 11       		.uleb128 0x11
 13945 018c 01       		.uleb128 0x1
 13946 018d 31       		.uleb128 0x31
 13947 018e 13       		.uleb128 0x13
 13948 018f 00       		.byte	0
 13949 0190 00       		.byte	0
 13950 0191 22       		.uleb128 0x22
ARM GAS  C:\Users\Helon\AppData\Local\Temp\ccys0XsA.s 			page 304


 13951 0192 2E       		.uleb128 0x2e
 13952 0193 01       		.byte	0x1
 13953 0194 3F       		.uleb128 0x3f
 13954 0195 19       		.uleb128 0x19
 13955 0196 03       		.uleb128 0x3
 13956 0197 0E       		.uleb128 0xe
 13957 0198 3A       		.uleb128 0x3a
 13958 0199 0B       		.uleb128 0xb
 13959 019a 3B       		.uleb128 0x3b
 13960 019b 05       		.uleb128 0x5
 13961 019c 27       		.uleb128 0x27
 13962 019d 19       		.uleb128 0x19
 13963 019e 11       		.uleb128 0x11
 13964 019f 01       		.uleb128 0x1
 13965 01a0 12       		.uleb128 0x12
 13966 01a1 06       		.uleb128 0x6
 13967 01a2 40       		.uleb128 0x40
 13968 01a3 18       		.uleb128 0x18
 13969 01a4 9742     		.uleb128 0x2117
 13970 01a6 19       		.uleb128 0x19
 13971 01a7 01       		.uleb128 0x1
 13972 01a8 13       		.uleb128 0x13
 13973 01a9 00       		.byte	0
 13974 01aa 00       		.byte	0
 13975 01ab 23       		.uleb128 0x23
 13976 01ac 34       		.uleb128 0x34
 13977 01ad 00       		.byte	0
 13978 01ae 03       		.uleb128 0x3
 13979 01af 0E       		.uleb128 0xe
 13980 01b0 3A       		.uleb128 0x3a
 13981 01b1 0B       		.uleb128 0xb
 13982 01b2 3B       		.uleb128 0x3b
 13983 01b3 05       		.uleb128 0x5
 13984 01b4 49       		.uleb128 0x49
 13985 01b5 13       		.uleb128 0x13
 13986 01b6 02       		.uleb128 0x2
 13987 01b7 18       		.uleb128 0x18
 13988 01b8 00       		.byte	0
 13989 01b9 00       		.byte	0
 13990 01ba 24       		.uleb128 0x24
 13991 01bb 34       		.uleb128 0x34
 13992 01bc 00       		.byte	0
 13993 01bd 03       		.uleb128 0x3
 13994 01be 0E       		.uleb128 0xe
 13995 01bf 3A       		.uleb128 0x3a
 13996 01c0 0B       		.uleb128 0xb
 13997 01c1 3B       		.uleb128 0x3b
 13998 01c2 05       		.uleb128 0x5
 13999 01c3 49       		.uleb128 0x49
 14000 01c4 13       		.uleb128 0x13
 14001 01c5 02       		.uleb128 0x2
 14002 01c6 17       		.uleb128 0x17
 14003 01c7 00       		.byte	0
 14004 01c8 00       		.byte	0
 14005 01c9 25       		.uleb128 0x25
 14006 01ca 2E       		.uleb128 0x2e
 14007 01cb 00       		.byte	0
ARM GAS  C:\Users\Helon\AppData\Local\Temp\ccys0XsA.s 			page 305


 14008 01cc 3F       		.uleb128 0x3f
 14009 01cd 19       		.uleb128 0x19
 14010 01ce 03       		.uleb128 0x3
 14011 01cf 0E       		.uleb128 0xe
 14012 01d0 3A       		.uleb128 0x3a
 14013 01d1 0B       		.uleb128 0xb
 14014 01d2 3B       		.uleb128 0x3b
 14015 01d3 05       		.uleb128 0x5
 14016 01d4 27       		.uleb128 0x27
 14017 01d5 19       		.uleb128 0x19
 14018 01d6 11       		.uleb128 0x11
 14019 01d7 01       		.uleb128 0x1
 14020 01d8 12       		.uleb128 0x12
 14021 01d9 06       		.uleb128 0x6
 14022 01da 40       		.uleb128 0x40
 14023 01db 18       		.uleb128 0x18
 14024 01dc 9742     		.uleb128 0x2117
 14025 01de 19       		.uleb128 0x19
 14026 01df 00       		.byte	0
 14027 01e0 00       		.byte	0
 14028 01e1 26       		.uleb128 0x26
 14029 01e2 05       		.uleb128 0x5
 14030 01e3 00       		.byte	0
 14031 01e4 03       		.uleb128 0x3
 14032 01e5 0E       		.uleb128 0xe
 14033 01e6 3A       		.uleb128 0x3a
 14034 01e7 0B       		.uleb128 0xb
 14035 01e8 3B       		.uleb128 0x3b
 14036 01e9 05       		.uleb128 0x5
 14037 01ea 49       		.uleb128 0x49
 14038 01eb 13       		.uleb128 0x13
 14039 01ec 02       		.uleb128 0x2
 14040 01ed 18       		.uleb128 0x18
 14041 01ee 00       		.byte	0
 14042 01ef 00       		.byte	0
 14043 01f0 27       		.uleb128 0x27
 14044 01f1 2E       		.uleb128 0x2e
 14045 01f2 01       		.byte	0x1
 14046 01f3 3F       		.uleb128 0x3f
 14047 01f4 19       		.uleb128 0x19
 14048 01f5 03       		.uleb128 0x3
 14049 01f6 0E       		.uleb128 0xe
 14050 01f7 3A       		.uleb128 0x3a
 14051 01f8 0B       		.uleb128 0xb
 14052 01f9 3B       		.uleb128 0x3b
 14053 01fa 05       		.uleb128 0x5
 14054 01fb 27       		.uleb128 0x27
 14055 01fc 19       		.uleb128 0x19
 14056 01fd 49       		.uleb128 0x49
 14057 01fe 13       		.uleb128 0x13
 14058 01ff 11       		.uleb128 0x11
 14059 0200 01       		.uleb128 0x1
 14060 0201 12       		.uleb128 0x12
 14061 0202 06       		.uleb128 0x6
 14062 0203 40       		.uleb128 0x40
 14063 0204 18       		.uleb128 0x18
 14064 0205 9742     		.uleb128 0x2117
ARM GAS  C:\Users\Helon\AppData\Local\Temp\ccys0XsA.s 			page 306


 14065 0207 19       		.uleb128 0x19
 14066 0208 01       		.uleb128 0x1
 14067 0209 13       		.uleb128 0x13
 14068 020a 00       		.byte	0
 14069 020b 00       		.byte	0
 14070 020c 28       		.uleb128 0x28
 14071 020d 05       		.uleb128 0x5
 14072 020e 00       		.byte	0
 14073 020f 03       		.uleb128 0x3
 14074 0210 0E       		.uleb128 0xe
 14075 0211 3A       		.uleb128 0x3a
 14076 0212 0B       		.uleb128 0xb
 14077 0213 3B       		.uleb128 0x3b
 14078 0214 05       		.uleb128 0x5
 14079 0215 49       		.uleb128 0x49
 14080 0216 13       		.uleb128 0x13
 14081 0217 02       		.uleb128 0x2
 14082 0218 17       		.uleb128 0x17
 14083 0219 00       		.byte	0
 14084 021a 00       		.byte	0
 14085 021b 29       		.uleb128 0x29
 14086 021c 34       		.uleb128 0x34
 14087 021d 00       		.byte	0
 14088 021e 03       		.uleb128 0x3
 14089 021f 08       		.uleb128 0x8
 14090 0220 3A       		.uleb128 0x3a
 14091 0221 0B       		.uleb128 0xb
 14092 0222 3B       		.uleb128 0x3b
 14093 0223 05       		.uleb128 0x5
 14094 0224 49       		.uleb128 0x49
 14095 0225 13       		.uleb128 0x13
 14096 0226 02       		.uleb128 0x2
 14097 0227 17       		.uleb128 0x17
 14098 0228 00       		.byte	0
 14099 0229 00       		.byte	0
 14100 022a 2A       		.uleb128 0x2a
 14101 022b 05       		.uleb128 0x5
 14102 022c 00       		.byte	0
 14103 022d 03       		.uleb128 0x3
 14104 022e 08       		.uleb128 0x8
 14105 022f 3A       		.uleb128 0x3a
 14106 0230 0B       		.uleb128 0xb
 14107 0231 3B       		.uleb128 0x3b
 14108 0232 05       		.uleb128 0x5
 14109 0233 49       		.uleb128 0x49
 14110 0234 13       		.uleb128 0x13
 14111 0235 02       		.uleb128 0x2
 14112 0236 17       		.uleb128 0x17
 14113 0237 00       		.byte	0
 14114 0238 00       		.byte	0
 14115 0239 2B       		.uleb128 0x2b
 14116 023a 34       		.uleb128 0x34
 14117 023b 00       		.byte	0
 14118 023c 03       		.uleb128 0x3
 14119 023d 0E       		.uleb128 0xe
 14120 023e 3A       		.uleb128 0x3a
 14121 023f 0B       		.uleb128 0xb
ARM GAS  C:\Users\Helon\AppData\Local\Temp\ccys0XsA.s 			page 307


 14122 0240 3B       		.uleb128 0x3b
 14123 0241 05       		.uleb128 0x5
 14124 0242 49       		.uleb128 0x49
 14125 0243 13       		.uleb128 0x13
 14126 0244 1C       		.uleb128 0x1c
 14127 0245 0B       		.uleb128 0xb
 14128 0246 00       		.byte	0
 14129 0247 00       		.byte	0
 14130 0248 2C       		.uleb128 0x2c
 14131 0249 0B       		.uleb128 0xb
 14132 024a 01       		.byte	0x1
 14133 024b 11       		.uleb128 0x11
 14134 024c 01       		.uleb128 0x1
 14135 024d 12       		.uleb128 0x12
 14136 024e 06       		.uleb128 0x6
 14137 024f 01       		.uleb128 0x1
 14138 0250 13       		.uleb128 0x13
 14139 0251 00       		.byte	0
 14140 0252 00       		.byte	0
 14141 0253 2D       		.uleb128 0x2d
 14142 0254 0B       		.uleb128 0xb
 14143 0255 01       		.byte	0x1
 14144 0256 11       		.uleb128 0x11
 14145 0257 01       		.uleb128 0x1
 14146 0258 12       		.uleb128 0x12
 14147 0259 06       		.uleb128 0x6
 14148 025a 00       		.byte	0
 14149 025b 00       		.byte	0
 14150 025c 2E       		.uleb128 0x2e
 14151 025d 2E       		.uleb128 0x2e
 14152 025e 01       		.byte	0x1
 14153 025f 3F       		.uleb128 0x3f
 14154 0260 19       		.uleb128 0x19
 14155 0261 03       		.uleb128 0x3
 14156 0262 0E       		.uleb128 0xe
 14157 0263 3A       		.uleb128 0x3a
 14158 0264 0B       		.uleb128 0xb
 14159 0265 3B       		.uleb128 0x3b
 14160 0266 05       		.uleb128 0x5
 14161 0267 27       		.uleb128 0x27
 14162 0268 19       		.uleb128 0x19
 14163 0269 11       		.uleb128 0x11
 14164 026a 01       		.uleb128 0x1
 14165 026b 12       		.uleb128 0x12
 14166 026c 06       		.uleb128 0x6
 14167 026d 40       		.uleb128 0x40
 14168 026e 18       		.uleb128 0x18
 14169 026f 9642     		.uleb128 0x2116
 14170 0271 19       		.uleb128 0x19
 14171 0272 01       		.uleb128 0x1
 14172 0273 13       		.uleb128 0x13
 14173 0274 00       		.byte	0
 14174 0275 00       		.byte	0
 14175 0276 2F       		.uleb128 0x2f
 14176 0277 34       		.uleb128 0x34
 14177 0278 00       		.byte	0
 14178 0279 34       		.uleb128 0x34
ARM GAS  C:\Users\Helon\AppData\Local\Temp\ccys0XsA.s 			page 308


 14179 027a 19       		.uleb128 0x19
 14180 027b 49       		.uleb128 0x49
 14181 027c 13       		.uleb128 0x13
 14182 027d 02       		.uleb128 0x2
 14183 027e 17       		.uleb128 0x17
 14184 027f 00       		.byte	0
 14185 0280 00       		.byte	0
 14186 0281 30       		.uleb128 0x30
 14187 0282 21       		.uleb128 0x21
 14188 0283 00       		.byte	0
 14189 0284 49       		.uleb128 0x49
 14190 0285 13       		.uleb128 0x13
 14191 0286 2F       		.uleb128 0x2f
 14192 0287 13       		.uleb128 0x13
 14193 0288 00       		.byte	0
 14194 0289 00       		.byte	0
 14195 028a 31       		.uleb128 0x31
 14196 028b 34       		.uleb128 0x34
 14197 028c 00       		.byte	0
 14198 028d 03       		.uleb128 0x3
 14199 028e 0E       		.uleb128 0xe
 14200 028f 3A       		.uleb128 0x3a
 14201 0290 0B       		.uleb128 0xb
 14202 0291 3B       		.uleb128 0x3b
 14203 0292 0B       		.uleb128 0xb
 14204 0293 49       		.uleb128 0x49
 14205 0294 13       		.uleb128 0x13
 14206 0295 3F       		.uleb128 0x3f
 14207 0296 19       		.uleb128 0x19
 14208 0297 3C       		.uleb128 0x3c
 14209 0298 19       		.uleb128 0x19
 14210 0299 00       		.byte	0
 14211 029a 00       		.byte	0
 14212 029b 32       		.uleb128 0x32
 14213 029c 34       		.uleb128 0x34
 14214 029d 00       		.byte	0
 14215 029e 03       		.uleb128 0x3
 14216 029f 0E       		.uleb128 0xe
 14217 02a0 3A       		.uleb128 0x3a
 14218 02a1 0B       		.uleb128 0xb
 14219 02a2 3B       		.uleb128 0x3b
 14220 02a3 05       		.uleb128 0x5
 14221 02a4 49       		.uleb128 0x49
 14222 02a5 13       		.uleb128 0x13
 14223 02a6 3F       		.uleb128 0x3f
 14224 02a7 19       		.uleb128 0x19
 14225 02a8 3C       		.uleb128 0x3c
 14226 02a9 19       		.uleb128 0x19
 14227 02aa 00       		.byte	0
 14228 02ab 00       		.byte	0
 14229 02ac 33       		.uleb128 0x33
 14230 02ad 34       		.uleb128 0x34
 14231 02ae 00       		.byte	0
 14232 02af 03       		.uleb128 0x3
 14233 02b0 0E       		.uleb128 0xe
 14234 02b1 3A       		.uleb128 0x3a
 14235 02b2 0B       		.uleb128 0xb
ARM GAS  C:\Users\Helon\AppData\Local\Temp\ccys0XsA.s 			page 309


 14236 02b3 3B       		.uleb128 0x3b
 14237 02b4 0B       		.uleb128 0xb
 14238 02b5 49       		.uleb128 0x49
 14239 02b6 13       		.uleb128 0x13
 14240 02b7 3F       		.uleb128 0x3f
 14241 02b8 19       		.uleb128 0x19
 14242 02b9 02       		.uleb128 0x2
 14243 02ba 18       		.uleb128 0x18
 14244 02bb 00       		.byte	0
 14245 02bc 00       		.byte	0
 14246 02bd 34       		.uleb128 0x34
 14247 02be 2E       		.uleb128 0x2e
 14248 02bf 01       		.byte	0x1
 14249 02c0 3F       		.uleb128 0x3f
 14250 02c1 19       		.uleb128 0x19
 14251 02c2 03       		.uleb128 0x3
 14252 02c3 0E       		.uleb128 0xe
 14253 02c4 3A       		.uleb128 0x3a
 14254 02c5 0B       		.uleb128 0xb
 14255 02c6 3B       		.uleb128 0x3b
 14256 02c7 0B       		.uleb128 0xb
 14257 02c8 6E       		.uleb128 0x6e
 14258 02c9 0E       		.uleb128 0xe
 14259 02ca 27       		.uleb128 0x27
 14260 02cb 19       		.uleb128 0x19
 14261 02cc 49       		.uleb128 0x49
 14262 02cd 13       		.uleb128 0x13
 14263 02ce 3C       		.uleb128 0x3c
 14264 02cf 19       		.uleb128 0x19
 14265 02d0 01       		.uleb128 0x1
 14266 02d1 13       		.uleb128 0x13
 14267 02d2 00       		.byte	0
 14268 02d3 00       		.byte	0
 14269 02d4 35       		.uleb128 0x35
 14270 02d5 2E       		.uleb128 0x2e
 14271 02d6 00       		.byte	0
 14272 02d7 3F       		.uleb128 0x3f
 14273 02d8 19       		.uleb128 0x19
 14274 02d9 03       		.uleb128 0x3
 14275 02da 0E       		.uleb128 0xe
 14276 02db 3A       		.uleb128 0x3a
 14277 02dc 0B       		.uleb128 0xb
 14278 02dd 3B       		.uleb128 0x3b
 14279 02de 05       		.uleb128 0x5
 14280 02df 27       		.uleb128 0x27
 14281 02e0 19       		.uleb128 0x19
 14282 02e1 49       		.uleb128 0x49
 14283 02e2 13       		.uleb128 0x13
 14284 02e3 3C       		.uleb128 0x3c
 14285 02e4 19       		.uleb128 0x19
 14286 02e5 00       		.byte	0
 14287 02e6 00       		.byte	0
 14288 02e7 36       		.uleb128 0x36
 14289 02e8 2E       		.uleb128 0x2e
 14290 02e9 01       		.byte	0x1
 14291 02ea 3F       		.uleb128 0x3f
 14292 02eb 19       		.uleb128 0x19
ARM GAS  C:\Users\Helon\AppData\Local\Temp\ccys0XsA.s 			page 310


 14293 02ec 03       		.uleb128 0x3
 14294 02ed 0E       		.uleb128 0xe
 14295 02ee 3A       		.uleb128 0x3a
 14296 02ef 0B       		.uleb128 0xb
 14297 02f0 3B       		.uleb128 0x3b
 14298 02f1 0B       		.uleb128 0xb
 14299 02f2 27       		.uleb128 0x27
 14300 02f3 19       		.uleb128 0x19
 14301 02f4 3C       		.uleb128 0x3c
 14302 02f5 19       		.uleb128 0x19
 14303 02f6 01       		.uleb128 0x1
 14304 02f7 13       		.uleb128 0x13
 14305 02f8 00       		.byte	0
 14306 02f9 00       		.byte	0
 14307 02fa 37       		.uleb128 0x37
 14308 02fb 2E       		.uleb128 0x2e
 14309 02fc 00       		.byte	0
 14310 02fd 3F       		.uleb128 0x3f
 14311 02fe 19       		.uleb128 0x19
 14312 02ff 03       		.uleb128 0x3
 14313 0300 0E       		.uleb128 0xe
 14314 0301 3A       		.uleb128 0x3a
 14315 0302 0B       		.uleb128 0xb
 14316 0303 3B       		.uleb128 0x3b
 14317 0304 05       		.uleb128 0x5
 14318 0305 27       		.uleb128 0x27
 14319 0306 19       		.uleb128 0x19
 14320 0307 3C       		.uleb128 0x3c
 14321 0308 19       		.uleb128 0x19
 14322 0309 00       		.byte	0
 14323 030a 00       		.byte	0
 14324 030b 38       		.uleb128 0x38
 14325 030c 2E       		.uleb128 0x2e
 14326 030d 01       		.byte	0x1
 14327 030e 3F       		.uleb128 0x3f
 14328 030f 19       		.uleb128 0x19
 14329 0310 03       		.uleb128 0x3
 14330 0311 0E       		.uleb128 0xe
 14331 0312 27       		.uleb128 0x27
 14332 0313 19       		.uleb128 0x19
 14333 0314 49       		.uleb128 0x49
 14334 0315 13       		.uleb128 0x13
 14335 0316 34       		.uleb128 0x34
 14336 0317 19       		.uleb128 0x19
 14337 0318 3C       		.uleb128 0x3c
 14338 0319 19       		.uleb128 0x19
 14339 031a 01       		.uleb128 0x1
 14340 031b 13       		.uleb128 0x13
 14341 031c 00       		.byte	0
 14342 031d 00       		.byte	0
 14343 031e 39       		.uleb128 0x39
 14344 031f 26       		.uleb128 0x26
 14345 0320 00       		.byte	0
 14346 0321 00       		.byte	0
 14347 0322 00       		.byte	0
 14348 0323 3A       		.uleb128 0x3a
 14349 0324 2E       		.uleb128 0x2e
ARM GAS  C:\Users\Helon\AppData\Local\Temp\ccys0XsA.s 			page 311


 14350 0325 01       		.byte	0x1
 14351 0326 3F       		.uleb128 0x3f
 14352 0327 19       		.uleb128 0x19
 14353 0328 03       		.uleb128 0x3
 14354 0329 0E       		.uleb128 0xe
 14355 032a 3A       		.uleb128 0x3a
 14356 032b 0B       		.uleb128 0xb
 14357 032c 3B       		.uleb128 0x3b
 14358 032d 05       		.uleb128 0x5
 14359 032e 27       		.uleb128 0x27
 14360 032f 19       		.uleb128 0x19
 14361 0330 49       		.uleb128 0x49
 14362 0331 13       		.uleb128 0x13
 14363 0332 3C       		.uleb128 0x3c
 14364 0333 19       		.uleb128 0x19
 14365 0334 01       		.uleb128 0x1
 14366 0335 13       		.uleb128 0x13
 14367 0336 00       		.byte	0
 14368 0337 00       		.byte	0
 14369 0338 3B       		.uleb128 0x3b
 14370 0339 2E       		.uleb128 0x2e
 14371 033a 01       		.byte	0x1
 14372 033b 3F       		.uleb128 0x3f
 14373 033c 19       		.uleb128 0x19
 14374 033d 03       		.uleb128 0x3
 14375 033e 0E       		.uleb128 0xe
 14376 033f 3A       		.uleb128 0x3a
 14377 0340 0B       		.uleb128 0xb
 14378 0341 3B       		.uleb128 0x3b
 14379 0342 0B       		.uleb128 0xb
 14380 0343 27       		.uleb128 0x27
 14381 0344 19       		.uleb128 0x19
 14382 0345 49       		.uleb128 0x49
 14383 0346 13       		.uleb128 0x13
 14384 0347 3C       		.uleb128 0x3c
 14385 0348 19       		.uleb128 0x19
 14386 0349 01       		.uleb128 0x1
 14387 034a 13       		.uleb128 0x13
 14388 034b 00       		.byte	0
 14389 034c 00       		.byte	0
 14390 034d 3C       		.uleb128 0x3c
 14391 034e 18       		.uleb128 0x18
 14392 034f 00       		.byte	0
 14393 0350 00       		.byte	0
 14394 0351 00       		.byte	0
 14395 0352 3D       		.uleb128 0x3d
 14396 0353 2E       		.uleb128 0x2e
 14397 0354 01       		.byte	0x1
 14398 0355 3F       		.uleb128 0x3f
 14399 0356 19       		.uleb128 0x19
 14400 0357 03       		.uleb128 0x3
 14401 0358 0E       		.uleb128 0xe
 14402 0359 3A       		.uleb128 0x3a
 14403 035a 0B       		.uleb128 0xb
 14404 035b 3B       		.uleb128 0x3b
 14405 035c 05       		.uleb128 0x5
 14406 035d 27       		.uleb128 0x27
ARM GAS  C:\Users\Helon\AppData\Local\Temp\ccys0XsA.s 			page 312


 14407 035e 19       		.uleb128 0x19
 14408 035f 3C       		.uleb128 0x3c
 14409 0360 19       		.uleb128 0x19
 14410 0361 01       		.uleb128 0x1
 14411 0362 13       		.uleb128 0x13
 14412 0363 00       		.byte	0
 14413 0364 00       		.byte	0
 14414 0365 3E       		.uleb128 0x3e
 14415 0366 2E       		.uleb128 0x2e
 14416 0367 00       		.byte	0
 14417 0368 3F       		.uleb128 0x3f
 14418 0369 19       		.uleb128 0x19
 14419 036a 03       		.uleb128 0x3
 14420 036b 0E       		.uleb128 0xe
 14421 036c 3A       		.uleb128 0x3a
 14422 036d 0B       		.uleb128 0xb
 14423 036e 3B       		.uleb128 0x3b
 14424 036f 0B       		.uleb128 0xb
 14425 0370 27       		.uleb128 0x27
 14426 0371 19       		.uleb128 0x19
 14427 0372 3C       		.uleb128 0x3c
 14428 0373 19       		.uleb128 0x19
 14429 0374 00       		.byte	0
 14430 0375 00       		.byte	0
 14431 0376 3F       		.uleb128 0x3f
 14432 0377 2E       		.uleb128 0x2e
 14433 0378 00       		.byte	0
 14434 0379 3F       		.uleb128 0x3f
 14435 037a 19       		.uleb128 0x19
 14436 037b 03       		.uleb128 0x3
 14437 037c 0E       		.uleb128 0xe
 14438 037d 3A       		.uleb128 0x3a
 14439 037e 0B       		.uleb128 0xb
 14440 037f 3B       		.uleb128 0x3b
 14441 0380 0B       		.uleb128 0xb
 14442 0381 27       		.uleb128 0x27
 14443 0382 19       		.uleb128 0x19
 14444 0383 49       		.uleb128 0x49
 14445 0384 13       		.uleb128 0x13
 14446 0385 3C       		.uleb128 0x3c
 14447 0386 19       		.uleb128 0x19
 14448 0387 00       		.byte	0
 14449 0388 00       		.byte	0
 14450 0389 40       		.uleb128 0x40
 14451 038a 2E       		.uleb128 0x2e
 14452 038b 01       		.byte	0x1
 14453 038c 3F       		.uleb128 0x3f
 14454 038d 19       		.uleb128 0x19
 14455 038e 03       		.uleb128 0x3
 14456 038f 0E       		.uleb128 0xe
 14457 0390 3A       		.uleb128 0x3a
 14458 0391 0B       		.uleb128 0xb
 14459 0392 3B       		.uleb128 0x3b
 14460 0393 05       		.uleb128 0x5
 14461 0394 27       		.uleb128 0x27
 14462 0395 19       		.uleb128 0x19
 14463 0396 49       		.uleb128 0x49
ARM GAS  C:\Users\Helon\AppData\Local\Temp\ccys0XsA.s 			page 313


 14464 0397 13       		.uleb128 0x13
 14465 0398 3C       		.uleb128 0x3c
 14466 0399 19       		.uleb128 0x19
 14467 039a 00       		.byte	0
 14468 039b 00       		.byte	0
 14469 039c 00       		.byte	0
 14470              		.section	.debug_loc,"",%progbits
 14471              	.Ldebug_loc0:
 14472              	.LLST0:
 14473 0000 00000000 		.4byte	.LVL0
 14474 0004 0E000000 		.4byte	.LVL2
 14475 0008 0100     		.2byte	0x1
 14476 000a 50       		.byte	0x50
 14477 000b 0E000000 		.4byte	.LVL2
 14478 000f E8020000 		.4byte	.LFE35
 14479 0013 0400     		.2byte	0x4
 14480 0015 F3       		.byte	0xf3
 14481 0016 01       		.uleb128 0x1
 14482 0017 50       		.byte	0x50
 14483 0018 9F       		.byte	0x9f
 14484 0019 00000000 		.4byte	0
 14485 001d 00000000 		.4byte	0
 14486              	.LLST1:
 14487 0021 00000000 		.4byte	.LVL0
 14488 0025 19000000 		.4byte	.LVL3-1
 14489 0029 0100     		.2byte	0x1
 14490 002b 51       		.byte	0x51
 14491 002c 19000000 		.4byte	.LVL3-1
 14492 0030 34000000 		.4byte	.LVL5
 14493 0034 0100     		.2byte	0x1
 14494 0036 54       		.byte	0x54
 14495 0037 34000000 		.4byte	.LVL5
 14496 003b 3C000000 		.4byte	.LVL6
 14497 003f 0100     		.2byte	0x1
 14498 0041 51       		.byte	0x51
 14499 0042 3C000000 		.4byte	.LVL6
 14500 0046 40000000 		.4byte	.LVL7
 14501 004a 0300     		.2byte	0x3
 14502 004c 74       		.byte	0x74
 14503 004d 74       		.sleb128 -12
 14504 004e 9F       		.byte	0x9f
 14505 004f 40000000 		.4byte	.LVL7
 14506 0053 46000000 		.4byte	.LVL9
 14507 0057 0300     		.2byte	0x3
 14508 0059 74       		.byte	0x74
 14509 005a 6C       		.sleb128 -20
 14510 005b 9F       		.byte	0x9f
 14511 005c 46000000 		.4byte	.LVL9
 14512 0060 5B000000 		.4byte	.LVL10-1
 14513 0064 0100     		.2byte	0x1
 14514 0066 51       		.byte	0x51
 14515 0067 5B000000 		.4byte	.LVL10-1
 14516 006b 5E000000 		.4byte	.LVL11
 14517 006f 0100     		.2byte	0x1
 14518 0071 54       		.byte	0x54
 14519 0072 5E000000 		.4byte	.LVL11
 14520 0076 69000000 		.4byte	.LVL12-1
ARM GAS  C:\Users\Helon\AppData\Local\Temp\ccys0XsA.s 			page 314


 14521 007a 0100     		.2byte	0x1
 14522 007c 51       		.byte	0x51
 14523 007d 69000000 		.4byte	.LVL12-1
 14524 0081 72000000 		.4byte	.LVL14
 14525 0085 0100     		.2byte	0x1
 14526 0087 54       		.byte	0x54
 14527 0088 72000000 		.4byte	.LVL14
 14528 008c 79000000 		.4byte	.LVL15-1
 14529 0090 0100     		.2byte	0x1
 14530 0092 51       		.byte	0x51
 14531 0093 79000000 		.4byte	.LVL15-1
 14532 0097 A0000000 		.4byte	.LVL19
 14533 009b 0100     		.2byte	0x1
 14534 009d 54       		.byte	0x54
 14535 009e A0000000 		.4byte	.LVL19
 14536 00a2 B8000000 		.4byte	.LVL22
 14537 00a6 0400     		.2byte	0x4
 14538 00a8 F3       		.byte	0xf3
 14539 00a9 01       		.uleb128 0x1
 14540 00aa 51       		.byte	0x51
 14541 00ab 9F       		.byte	0x9f
 14542 00ac B8000000 		.4byte	.LVL22
 14543 00b0 BF000000 		.4byte	.LVL23-1
 14544 00b4 0100     		.2byte	0x1
 14545 00b6 51       		.byte	0x51
 14546 00b7 BF000000 		.4byte	.LVL23-1
 14547 00bb C8000000 		.4byte	.LVL25
 14548 00bf 0100     		.2byte	0x1
 14549 00c1 54       		.byte	0x54
 14550 00c2 C8000000 		.4byte	.LVL25
 14551 00c6 CA000000 		.4byte	.LVL26
 14552 00ca 0100     		.2byte	0x1
 14553 00cc 51       		.byte	0x51
 14554 00cd CA000000 		.4byte	.LVL26
 14555 00d1 D6000000 		.4byte	.LVL28
 14556 00d5 0100     		.2byte	0x1
 14557 00d7 54       		.byte	0x54
 14558 00d8 D6000000 		.4byte	.LVL28
 14559 00dc E2000000 		.4byte	.LVL29
 14560 00e0 0100     		.2byte	0x1
 14561 00e2 51       		.byte	0x51
 14562 00e3 E2000000 		.4byte	.LVL29
 14563 00e7 04010000 		.4byte	.LVL32
 14564 00eb 0100     		.2byte	0x1
 14565 00ed 54       		.byte	0x54
 14566 00ee 04010000 		.4byte	.LVL32
 14567 00f2 0E010000 		.4byte	.LVL33
 14568 00f6 0100     		.2byte	0x1
 14569 00f8 51       		.byte	0x51
 14570 00f9 0E010000 		.4byte	.LVL33
 14571 00fd 58010000 		.4byte	.LVL37
 14572 0101 0100     		.2byte	0x1
 14573 0103 54       		.byte	0x54
 14574 0104 58010000 		.4byte	.LVL37
 14575 0108 5E010000 		.4byte	.LVL38
 14576 010c 0100     		.2byte	0x1
 14577 010e 51       		.byte	0x51
ARM GAS  C:\Users\Helon\AppData\Local\Temp\ccys0XsA.s 			page 315


 14578 010f 5E010000 		.4byte	.LVL38
 14579 0113 76010000 		.4byte	.LVL39
 14580 0117 0300     		.2byte	0x3
 14581 0119 74       		.byte	0x74
 14582 011a 74       		.sleb128 -12
 14583 011b 9F       		.byte	0x9f
 14584 011c 76010000 		.4byte	.LVL39
 14585 0120 B6010000 		.4byte	.LVL47
 14586 0124 0400     		.2byte	0x4
 14587 0126 F3       		.byte	0xf3
 14588 0127 01       		.uleb128 0x1
 14589 0128 51       		.byte	0x51
 14590 0129 9F       		.byte	0x9f
 14591 012a B6010000 		.4byte	.LVL47
 14592 012e D2010000 		.4byte	.LVL49
 14593 0132 0100     		.2byte	0x1
 14594 0134 51       		.byte	0x51
 14595 0135 D2010000 		.4byte	.LVL49
 14596 0139 DA010000 		.4byte	.LVL50
 14597 013d 0100     		.2byte	0x1
 14598 013f 54       		.byte	0x54
 14599 0140 DA010000 		.4byte	.LVL50
 14600 0144 EA010000 		.4byte	.LVL52
 14601 0148 0100     		.2byte	0x1
 14602 014a 51       		.byte	0x51
 14603 014b EA010000 		.4byte	.LVL52
 14604 014f F8010000 		.4byte	.LVL56
 14605 0153 0100     		.2byte	0x1
 14606 0155 54       		.byte	0x54
 14607 0156 F8010000 		.4byte	.LVL56
 14608 015a FA010000 		.4byte	.LVL57
 14609 015e 0100     		.2byte	0x1
 14610 0160 51       		.byte	0x51
 14611 0161 FA010000 		.4byte	.LVL57
 14612 0165 04020000 		.4byte	.LVL58
 14613 0169 0100     		.2byte	0x1
 14614 016b 54       		.byte	0x54
 14615 016c 04020000 		.4byte	.LVL58
 14616 0170 0A020000 		.4byte	.LVL59
 14617 0174 0100     		.2byte	0x1
 14618 0176 51       		.byte	0x51
 14619 0177 0A020000 		.4byte	.LVL59
 14620 017b 12020000 		.4byte	.LVL60
 14621 017f 0300     		.2byte	0x3
 14622 0181 74       		.byte	0x74
 14623 0182 74       		.sleb128 -12
 14624 0183 9F       		.byte	0x9f
 14625 0184 12020000 		.4byte	.LVL60
 14626 0188 38020000 		.4byte	.LVL65
 14627 018c 0400     		.2byte	0x4
 14628 018e F3       		.byte	0xf3
 14629 018f 01       		.uleb128 0x1
 14630 0190 51       		.byte	0x51
 14631 0191 9F       		.byte	0x9f
 14632 0192 38020000 		.4byte	.LVL65
 14633 0196 46020000 		.4byte	.LVL66
 14634 019a 0100     		.2byte	0x1
ARM GAS  C:\Users\Helon\AppData\Local\Temp\ccys0XsA.s 			page 316


 14635 019c 51       		.byte	0x51
 14636 019d 46020000 		.4byte	.LVL66
 14637 01a1 4C020000 		.4byte	.LVL68
 14638 01a5 0100     		.2byte	0x1
 14639 01a7 54       		.byte	0x54
 14640 01a8 4C020000 		.4byte	.LVL68
 14641 01ac 4E020000 		.4byte	.LVL69
 14642 01b0 0100     		.2byte	0x1
 14643 01b2 51       		.byte	0x51
 14644 01b3 4E020000 		.4byte	.LVL69
 14645 01b7 56020000 		.4byte	.LVL71
 14646 01bb 0100     		.2byte	0x1
 14647 01bd 54       		.byte	0x54
 14648 01be 56020000 		.4byte	.LVL71
 14649 01c2 61020000 		.4byte	.LVL72-1
 14650 01c6 0100     		.2byte	0x1
 14651 01c8 51       		.byte	0x51
 14652 01c9 61020000 		.4byte	.LVL72-1
 14653 01cd 64020000 		.4byte	.LVL73
 14654 01d1 0100     		.2byte	0x1
 14655 01d3 54       		.byte	0x54
 14656 01d4 64020000 		.4byte	.LVL73
 14657 01d8 69020000 		.4byte	.LVL74-1
 14658 01dc 0100     		.2byte	0x1
 14659 01de 51       		.byte	0x51
 14660 01df 69020000 		.4byte	.LVL74-1
 14661 01e3 72020000 		.4byte	.LVL75
 14662 01e7 0100     		.2byte	0x1
 14663 01e9 54       		.byte	0x54
 14664 01ea 72020000 		.4byte	.LVL75
 14665 01ee 74020000 		.4byte	.LVL76
 14666 01f2 0100     		.2byte	0x1
 14667 01f4 51       		.byte	0x51
 14668 01f5 74020000 		.4byte	.LVL76
 14669 01f9 80020000 		.4byte	.LVL78
 14670 01fd 0100     		.2byte	0x1
 14671 01ff 54       		.byte	0x54
 14672 0200 80020000 		.4byte	.LVL78
 14673 0204 E8020000 		.4byte	.LFE35
 14674 0208 0400     		.2byte	0x4
 14675 020a F3       		.byte	0xf3
 14676 020b 01       		.uleb128 0x1
 14677 020c 51       		.byte	0x51
 14678 020d 9F       		.byte	0x9f
 14679 020e 00000000 		.4byte	0
 14680 0212 00000000 		.4byte	0
 14681              	.LLST2:
 14682 0216 04000000 		.4byte	.LVL1
 14683 021a 78010000 		.4byte	.LVL40
 14684 021e 0200     		.2byte	0x2
 14685 0220 30       		.byte	0x30
 14686 0221 9F       		.byte	0x9f
 14687 0222 78010000 		.4byte	.LVL40
 14688 0226 82010000 		.4byte	.LVL42
 14689 022a 0100     		.2byte	0x1
 14690 022c 54       		.byte	0x54
 14691 022d 84010000 		.4byte	.LVL43
ARM GAS  C:\Users\Helon\AppData\Local\Temp\ccys0XsA.s 			page 317


 14692 0231 8A010000 		.4byte	.LVL44
 14693 0235 0100     		.2byte	0x1
 14694 0237 54       		.byte	0x54
 14695 0238 B6010000 		.4byte	.LVL47
 14696 023c EA010000 		.4byte	.LVL52
 14697 0240 0200     		.2byte	0x2
 14698 0242 30       		.byte	0x30
 14699 0243 9F       		.byte	0x9f
 14700 0244 EA010000 		.4byte	.LVL52
 14701 0248 F4010000 		.4byte	.LVL54
 14702 024c 0100     		.2byte	0x1
 14703 024e 55       		.byte	0x55
 14704 024f F6010000 		.4byte	.LVL55
 14705 0253 F8010000 		.4byte	.LVL56
 14706 0257 0100     		.2byte	0x1
 14707 0259 55       		.byte	0x55
 14708 025a F8010000 		.4byte	.LVL56
 14709 025e FA010000 		.4byte	.LVL57
 14710 0262 0200     		.2byte	0x2
 14711 0264 30       		.byte	0x30
 14712 0265 9F       		.byte	0x9f
 14713 0266 FA010000 		.4byte	.LVL57
 14714 026a 04020000 		.4byte	.LVL58
 14715 026e 0100     		.2byte	0x1
 14716 0270 55       		.byte	0x55
 14717 0271 04020000 		.4byte	.LVL58
 14718 0275 14020000 		.4byte	.LVL61
 14719 0279 0200     		.2byte	0x2
 14720 027b 30       		.byte	0x30
 14721 027c 9F       		.byte	0x9f
 14722 027d 14020000 		.4byte	.LVL61
 14723 0281 2A020000 		.4byte	.LVL63
 14724 0285 0100     		.2byte	0x1
 14725 0287 54       		.byte	0x54
 14726 0288 2C020000 		.4byte	.LVL64
 14727 028c 38020000 		.4byte	.LVL65
 14728 0290 0100     		.2byte	0x1
 14729 0292 54       		.byte	0x54
 14730 0293 38020000 		.4byte	.LVL65
 14731 0297 80020000 		.4byte	.LVL78
 14732 029b 0200     		.2byte	0x2
 14733 029d 30       		.byte	0x30
 14734 029e 9F       		.byte	0x9f
 14735 029f 00000000 		.4byte	0
 14736 02a3 00000000 		.4byte	0
 14737              	.LLST3:
 14738 02a7 C6010000 		.4byte	.LVL48
 14739 02ab D2010000 		.4byte	.LVL49
 14740 02af 0100     		.2byte	0x1
 14741 02b1 51       		.byte	0x51
 14742 02b2 D2010000 		.4byte	.LVL49
 14743 02b6 DA010000 		.4byte	.LVL50
 14744 02ba 0100     		.2byte	0x1
 14745 02bc 54       		.byte	0x54
 14746 02bd E2010000 		.4byte	.LVL51
 14747 02c1 EA010000 		.4byte	.LVL52
 14748 02c5 0100     		.2byte	0x1
ARM GAS  C:\Users\Helon\AppData\Local\Temp\ccys0XsA.s 			page 318


 14749 02c7 51       		.byte	0x51
 14750 02c8 EA010000 		.4byte	.LVL52
 14751 02cc F8010000 		.4byte	.LVL56
 14752 02d0 0100     		.2byte	0x1
 14753 02d2 54       		.byte	0x54
 14754 02d3 F8010000 		.4byte	.LVL56
 14755 02d7 FA010000 		.4byte	.LVL57
 14756 02db 0100     		.2byte	0x1
 14757 02dd 51       		.byte	0x51
 14758 02de FA010000 		.4byte	.LVL57
 14759 02e2 04020000 		.4byte	.LVL58
 14760 02e6 0100     		.2byte	0x1
 14761 02e8 54       		.byte	0x54
 14762 02e9 00000000 		.4byte	0
 14763 02ed 00000000 		.4byte	0
 14764              	.LLST4:
 14765 02f1 0A000000 		.4byte	.LVL83
 14766 02f5 0F000000 		.4byte	.LVL84-1
 14767 02f9 0100     		.2byte	0x1
 14768 02fb 50       		.byte	0x50
 14769 02fc 0F000000 		.4byte	.LVL84-1
 14770 0300 74000000 		.4byte	.LVL98
 14771 0304 0100     		.2byte	0x1
 14772 0306 54       		.byte	0x54
 14773 0307 00000000 		.4byte	0
 14774 030b 00000000 		.4byte	0
 14775              	.LLST5:
 14776 030f 10000000 		.4byte	.LVL84
 14777 0313 1E000000 		.4byte	.LVL85
 14778 0317 0100     		.2byte	0x1
 14779 0319 50       		.byte	0x50
 14780 031a 66000000 		.4byte	.LVL96
 14781 031e 71000000 		.4byte	.LVL97-1
 14782 0322 0100     		.2byte	0x1
 14783 0324 50       		.byte	0x50
 14784 0325 00000000 		.4byte	0
 14785 0329 00000000 		.4byte	0
 14786              	.LLST6:
 14787 032d 00000000 		.4byte	.LVL111
 14788 0331 0D000000 		.4byte	.LVL113-1
 14789 0335 0100     		.2byte	0x1
 14790 0337 50       		.byte	0x50
 14791 0338 0D000000 		.4byte	.LVL113-1
 14792 033c 38000000 		.4byte	.LVL119
 14793 0340 0100     		.2byte	0x1
 14794 0342 54       		.byte	0x54
 14795 0343 38000000 		.4byte	.LVL119
 14796 0347 60000000 		.4byte	.LVL125
 14797 034b 0400     		.2byte	0x4
 14798 034d F3       		.byte	0xf3
 14799 034e 01       		.uleb128 0x1
 14800 034f 50       		.byte	0x50
 14801 0350 9F       		.byte	0x9f
 14802 0351 60000000 		.4byte	.LVL125
 14803 0355 62000000 		.4byte	.LVL126
 14804 0359 0100     		.2byte	0x1
 14805 035b 50       		.byte	0x50
ARM GAS  C:\Users\Helon\AppData\Local\Temp\ccys0XsA.s 			page 319


 14806 035c 62000000 		.4byte	.LVL126
 14807 0360 64000000 		.4byte	.LVL127
 14808 0364 0400     		.2byte	0x4
 14809 0366 F3       		.byte	0xf3
 14810 0367 01       		.uleb128 0x1
 14811 0368 50       		.byte	0x50
 14812 0369 9F       		.byte	0x9f
 14813 036a 64000000 		.4byte	.LVL127
 14814 036e 6A000000 		.4byte	.LVL129
 14815 0372 0100     		.2byte	0x1
 14816 0374 54       		.byte	0x54
 14817 0375 6A000000 		.4byte	.LVL129
 14818 0379 74000000 		.4byte	.LFE44
 14819 037d 0400     		.2byte	0x4
 14820 037f F3       		.byte	0xf3
 14821 0380 01       		.uleb128 0x1
 14822 0381 50       		.byte	0x50
 14823 0382 9F       		.byte	0x9f
 14824 0383 00000000 		.4byte	0
 14825 0387 00000000 		.4byte	0
 14826              	.LLST7:
 14827 038b 08000000 		.4byte	.LVL112
 14828 038f 36000000 		.4byte	.LVL118
 14829 0393 0200     		.2byte	0x2
 14830 0395 30       		.byte	0x30
 14831 0396 9F       		.byte	0x9f
 14832 0397 36000000 		.4byte	.LVL118
 14833 039b 60000000 		.4byte	.LVL125
 14834 039f 0200     		.2byte	0x2
 14835 03a1 4A       		.byte	0x4a
 14836 03a2 9F       		.byte	0x9f
 14837 03a3 64000000 		.4byte	.LVL127
 14838 03a7 6A000000 		.4byte	.LVL129
 14839 03ab 0200     		.2byte	0x2
 14840 03ad 30       		.byte	0x30
 14841 03ae 9F       		.byte	0x9f
 14842 03af 00000000 		.4byte	0
 14843 03b3 00000000 		.4byte	0
 14844              	.LLST8:
 14845 03b7 08000000 		.4byte	.LVL112
 14846 03bb 3A000000 		.4byte	.LVL120
 14847 03bf 0200     		.2byte	0x2
 14848 03c1 30       		.byte	0x30
 14849 03c2 9F       		.byte	0x9f
 14850 03c3 3A000000 		.4byte	.LVL120
 14851 03c7 50000000 		.4byte	.LVL122
 14852 03cb 0100     		.2byte	0x1
 14853 03cd 54       		.byte	0x54
 14854 03ce 52000000 		.4byte	.LVL123
 14855 03d2 60000000 		.4byte	.LVL125
 14856 03d6 0100     		.2byte	0x1
 14857 03d8 54       		.byte	0x54
 14858 03d9 64000000 		.4byte	.LVL127
 14859 03dd 6A000000 		.4byte	.LVL129
 14860 03e1 0200     		.2byte	0x2
 14861 03e3 30       		.byte	0x30
 14862 03e4 9F       		.byte	0x9f
ARM GAS  C:\Users\Helon\AppData\Local\Temp\ccys0XsA.s 			page 320


 14863 03e5 00000000 		.4byte	0
 14864 03e9 00000000 		.4byte	0
 14865              	.LLST9:
 14866 03ed 1E000000 		.4byte	.LVL115
 14867 03f1 2B000000 		.4byte	.LVL116-1
 14868 03f5 0100     		.2byte	0x1
 14869 03f7 53       		.byte	0x53
 14870 03f8 68000000 		.4byte	.LVL128
 14871 03fc 6A000000 		.4byte	.LVL129
 14872 0400 0100     		.2byte	0x1
 14873 0402 53       		.byte	0x53
 14874 0403 00000000 		.4byte	0
 14875 0407 00000000 		.4byte	0
 14876              	.LLST10:
 14877 040b 2E000000 		.4byte	.LVL117
 14878 040f 35000000 		.4byte	.LVL118-1
 14879 0413 0100     		.2byte	0x1
 14880 0415 50       		.byte	0x50
 14881 0416 35000000 		.4byte	.LVL118-1
 14882 041a 60000000 		.4byte	.LVL125
 14883 041e 0100     		.2byte	0x1
 14884 0420 56       		.byte	0x56
 14885 0421 00000000 		.4byte	0
 14886 0425 00000000 		.4byte	0
 14887              	.LLST11:
 14888 0429 00000000 		.4byte	.LVL130
 14889 042d 16000000 		.4byte	.LVL133
 14890 0431 0100     		.2byte	0x1
 14891 0433 50       		.byte	0x50
 14892 0434 16000000 		.4byte	.LVL133
 14893 0438 1F000000 		.4byte	.LVL134-1
 14894 043c 0200     		.2byte	0x2
 14895 043e 73       		.byte	0x73
 14896 043f 00       		.sleb128 0
 14897 0440 1F000000 		.4byte	.LVL134-1
 14898 0444 34000000 		.4byte	.LFE46
 14899 0448 0400     		.2byte	0x4
 14900 044a F3       		.byte	0xf3
 14901 044b 01       		.uleb128 0x1
 14902 044c 50       		.byte	0x50
 14903 044d 9F       		.byte	0x9f
 14904 044e 00000000 		.4byte	0
 14905 0452 00000000 		.4byte	0
 14906              	.LLST12:
 14907 0456 00000000 		.4byte	.LVL130
 14908 045a 0E000000 		.4byte	.LVL132
 14909 045e 0100     		.2byte	0x1
 14910 0460 51       		.byte	0x51
 14911 0461 0E000000 		.4byte	.LVL132
 14912 0465 34000000 		.4byte	.LFE46
 14913 0469 0400     		.2byte	0x4
 14914 046b F3       		.byte	0xf3
 14915 046c 01       		.uleb128 0x1
 14916 046d 51       		.byte	0x51
 14917 046e 9F       		.byte	0x9f
 14918 046f 00000000 		.4byte	0
 14919 0473 00000000 		.4byte	0
ARM GAS  C:\Users\Helon\AppData\Local\Temp\ccys0XsA.s 			page 321


 14920              	.LLST13:
 14921 0477 00000000 		.4byte	.LVL136
 14922 047b 18000000 		.4byte	.LVL139
 14923 047f 0100     		.2byte	0x1
 14924 0481 50       		.byte	0x50
 14925 0482 18000000 		.4byte	.LVL139
 14926 0486 40000000 		.4byte	.LFE47
 14927 048a 0200     		.2byte	0x2
 14928 048c 91       		.byte	0x91
 14929 048d 70       		.sleb128 -16
 14930 048e 00000000 		.4byte	0
 14931 0492 00000000 		.4byte	0
 14932              	.LLST14:
 14933 0496 00000000 		.4byte	.LVL136
 14934 049a 12000000 		.4byte	.LVL138
 14935 049e 0100     		.2byte	0x1
 14936 04a0 51       		.byte	0x51
 14937 04a1 12000000 		.4byte	.LVL138
 14938 04a5 18000000 		.4byte	.LVL139
 14939 04a9 0200     		.2byte	0x2
 14940 04ab 73       		.byte	0x73
 14941 04ac 04       		.sleb128 4
 14942 04ad 18000000 		.4byte	.LVL139
 14943 04b1 40000000 		.4byte	.LFE47
 14944 04b5 0200     		.2byte	0x2
 14945 04b7 91       		.byte	0x91
 14946 04b8 74       		.sleb128 -12
 14947 04b9 00000000 		.4byte	0
 14948 04bd 00000000 		.4byte	0
 14949              	.LLST15:
 14950 04c1 04000000 		.4byte	.LVL137
 14951 04c5 18000000 		.4byte	.LVL139
 14952 04c9 0200     		.2byte	0x2
 14953 04cb 30       		.byte	0x30
 14954 04cc 9F       		.byte	0x9f
 14955 04cd 28000000 		.4byte	.LVL140
 14956 04d1 40000000 		.4byte	.LFE47
 14957 04d5 0100     		.2byte	0x1
 14958 04d7 50       		.byte	0x50
 14959 04d8 00000000 		.4byte	0
 14960 04dc 00000000 		.4byte	0
 14961              	.LLST16:
 14962 04e0 00000000 		.4byte	.LVL141
 14963 04e4 30000000 		.4byte	.LVL143
 14964 04e8 0100     		.2byte	0x1
 14965 04ea 50       		.byte	0x50
 14966 04eb 30000000 		.4byte	.LVL143
 14967 04ef 7C000000 		.4byte	.LVL152
 14968 04f3 0400     		.2byte	0x4
 14969 04f5 F3       		.byte	0xf3
 14970 04f6 01       		.uleb128 0x1
 14971 04f7 50       		.byte	0x50
 14972 04f8 9F       		.byte	0x9f
 14973 04f9 7C000000 		.4byte	.LVL152
 14974 04fd 88000000 		.4byte	.LVL153
 14975 0501 0100     		.2byte	0x1
 14976 0503 50       		.byte	0x50
ARM GAS  C:\Users\Helon\AppData\Local\Temp\ccys0XsA.s 			page 322


 14977 0504 88000000 		.4byte	.LVL153
 14978 0508 D4000000 		.4byte	.LVL162
 14979 050c 0400     		.2byte	0x4
 14980 050e F3       		.byte	0xf3
 14981 050f 01       		.uleb128 0x1
 14982 0510 50       		.byte	0x50
 14983 0511 9F       		.byte	0x9f
 14984 0512 D4000000 		.4byte	.LVL162
 14985 0516 E0000000 		.4byte	.LVL163
 14986 051a 0100     		.2byte	0x1
 14987 051c 50       		.byte	0x50
 14988 051d E0000000 		.4byte	.LVL163
 14989 0521 2C010000 		.4byte	.LVL172
 14990 0525 0400     		.2byte	0x4
 14991 0527 F3       		.byte	0xf3
 14992 0528 01       		.uleb128 0x1
 14993 0529 50       		.byte	0x50
 14994 052a 9F       		.byte	0x9f
 14995 052b 2C010000 		.4byte	.LVL172
 14996 052f 38010000 		.4byte	.LVL173
 14997 0533 0100     		.2byte	0x1
 14998 0535 50       		.byte	0x50
 14999 0536 38010000 		.4byte	.LVL173
 15000 053a 84010000 		.4byte	.LVL182
 15001 053e 0400     		.2byte	0x4
 15002 0540 F3       		.byte	0xf3
 15003 0541 01       		.uleb128 0x1
 15004 0542 50       		.byte	0x50
 15005 0543 9F       		.byte	0x9f
 15006 0544 84010000 		.4byte	.LVL182
 15007 0548 8E010000 		.4byte	.LVL183
 15008 054c 0100     		.2byte	0x1
 15009 054e 50       		.byte	0x50
 15010 054f 8E010000 		.4byte	.LVL183
 15011 0553 B8010000 		.4byte	.LVL187
 15012 0557 0400     		.2byte	0x4
 15013 0559 F3       		.byte	0xf3
 15014 055a 01       		.uleb128 0x1
 15015 055b 50       		.byte	0x50
 15016 055c 9F       		.byte	0x9f
 15017 055d B8010000 		.4byte	.LVL187
 15018 0561 BA010000 		.4byte	.LVL188
 15019 0565 0100     		.2byte	0x1
 15020 0567 50       		.byte	0x50
 15021 0568 BA010000 		.4byte	.LVL188
 15022 056c C4010000 		.4byte	.LVL189
 15023 0570 0400     		.2byte	0x4
 15024 0572 F3       		.byte	0xf3
 15025 0573 01       		.uleb128 0x1
 15026 0574 50       		.byte	0x50
 15027 0575 9F       		.byte	0x9f
 15028 0576 C4010000 		.4byte	.LVL189
 15029 057a C6010000 		.4byte	.LVL190
 15030 057e 0100     		.2byte	0x1
 15031 0580 50       		.byte	0x50
 15032 0581 C6010000 		.4byte	.LVL190
 15033 0585 CC010000 		.4byte	.LVL192
ARM GAS  C:\Users\Helon\AppData\Local\Temp\ccys0XsA.s 			page 323


 15034 0589 0400     		.2byte	0x4
 15035 058b F3       		.byte	0xf3
 15036 058c 01       		.uleb128 0x1
 15037 058d 50       		.byte	0x50
 15038 058e 9F       		.byte	0x9f
 15039 058f CC010000 		.4byte	.LVL192
 15040 0593 CE010000 		.4byte	.LVL193
 15041 0597 0100     		.2byte	0x1
 15042 0599 50       		.byte	0x50
 15043 059a CE010000 		.4byte	.LVL193
 15044 059e 00020000 		.4byte	.LFE49
 15045 05a2 0400     		.2byte	0x4
 15046 05a4 F3       		.byte	0xf3
 15047 05a5 01       		.uleb128 0x1
 15048 05a6 50       		.byte	0x50
 15049 05a7 9F       		.byte	0x9f
 15050 05a8 00000000 		.4byte	0
 15051 05ac 00000000 		.4byte	0
 15052              	.LLST17:
 15053 05b0 06000000 		.4byte	.LVL142
 15054 05b4 38000000 		.4byte	.LVL145
 15055 05b8 0200     		.2byte	0x2
 15056 05ba 30       		.byte	0x30
 15057 05bb 9F       		.byte	0x9f
 15058 05bc 38000000 		.4byte	.LVL145
 15059 05c0 40000000 		.4byte	.LVL146
 15060 05c4 0100     		.2byte	0x1
 15061 05c6 50       		.byte	0x50
 15062 05c7 46000000 		.4byte	.LVL148
 15063 05cb 48000000 		.4byte	.LVL149
 15064 05cf 0100     		.2byte	0x1
 15065 05d1 50       		.byte	0x50
 15066 05d2 7C000000 		.4byte	.LVL152
 15067 05d6 90000000 		.4byte	.LVL155
 15068 05da 0200     		.2byte	0x2
 15069 05dc 30       		.byte	0x30
 15070 05dd 9F       		.byte	0x9f
 15071 05de 90000000 		.4byte	.LVL155
 15072 05e2 98000000 		.4byte	.LVL156
 15073 05e6 0100     		.2byte	0x1
 15074 05e8 50       		.byte	0x50
 15075 05e9 9E000000 		.4byte	.LVL158
 15076 05ed A0000000 		.4byte	.LVL159
 15077 05f1 0100     		.2byte	0x1
 15078 05f3 50       		.byte	0x50
 15079 05f4 D4000000 		.4byte	.LVL162
 15080 05f8 E8000000 		.4byte	.LVL165
 15081 05fc 0200     		.2byte	0x2
 15082 05fe 30       		.byte	0x30
 15083 05ff 9F       		.byte	0x9f
 15084 0600 E8000000 		.4byte	.LVL165
 15085 0604 F0000000 		.4byte	.LVL166
 15086 0608 0100     		.2byte	0x1
 15087 060a 50       		.byte	0x50
 15088 060b F6000000 		.4byte	.LVL168
 15089 060f F8000000 		.4byte	.LVL169
 15090 0613 0100     		.2byte	0x1
ARM GAS  C:\Users\Helon\AppData\Local\Temp\ccys0XsA.s 			page 324


 15091 0615 50       		.byte	0x50
 15092 0616 2C010000 		.4byte	.LVL172
 15093 061a 40010000 		.4byte	.LVL175
 15094 061e 0200     		.2byte	0x2
 15095 0620 30       		.byte	0x30
 15096 0621 9F       		.byte	0x9f
 15097 0622 40010000 		.4byte	.LVL175
 15098 0626 48010000 		.4byte	.LVL176
 15099 062a 0100     		.2byte	0x1
 15100 062c 50       		.byte	0x50
 15101 062d 4E010000 		.4byte	.LVL178
 15102 0631 50010000 		.4byte	.LVL179
 15103 0635 0100     		.2byte	0x1
 15104 0637 50       		.byte	0x50
 15105 0638 84010000 		.4byte	.LVL182
 15106 063c D2010000 		.4byte	.LVL194
 15107 0640 0200     		.2byte	0x2
 15108 0642 30       		.byte	0x30
 15109 0643 9F       		.byte	0x9f
 15110 0644 00000000 		.4byte	0
 15111 0648 00000000 		.4byte	0
 15112              	.LLST18:
 15113 064c 06000000 		.4byte	.LVL142
 15114 0650 8E010000 		.4byte	.LVL183
 15115 0654 0200     		.2byte	0x2
 15116 0656 30       		.byte	0x30
 15117 0657 9F       		.byte	0x9f
 15118 0658 8E010000 		.4byte	.LVL183
 15119 065c B4010000 		.4byte	.LVL185
 15120 0660 0100     		.2byte	0x1
 15121 0662 54       		.byte	0x54
 15122 0663 B6010000 		.4byte	.LVL186
 15123 0667 B8010000 		.4byte	.LVL187
 15124 066b 0100     		.2byte	0x1
 15125 066d 54       		.byte	0x54
 15126 066e B8010000 		.4byte	.LVL187
 15127 0672 BA010000 		.4byte	.LVL188
 15128 0676 0200     		.2byte	0x2
 15129 0678 30       		.byte	0x30
 15130 0679 9F       		.byte	0x9f
 15131 067a BA010000 		.4byte	.LVL188
 15132 067e C4010000 		.4byte	.LVL189
 15133 0682 0100     		.2byte	0x1
 15134 0684 54       		.byte	0x54
 15135 0685 C4010000 		.4byte	.LVL189
 15136 0689 D2010000 		.4byte	.LVL194
 15137 068d 0200     		.2byte	0x2
 15138 068f 30       		.byte	0x30
 15139 0690 9F       		.byte	0x9f
 15140 0691 00000000 		.4byte	0
 15141 0695 00000000 		.4byte	0
 15142              	.LLST19:
 15143 0699 00000000 		.4byte	.LVL195
 15144 069d 1A000000 		.4byte	.LVL196
 15145 06a1 0100     		.2byte	0x1
 15146 06a3 50       		.byte	0x50
 15147 06a4 1A000000 		.4byte	.LVL196
ARM GAS  C:\Users\Helon\AppData\Local\Temp\ccys0XsA.s 			page 325


 15148 06a8 44000000 		.4byte	.LVL200
 15149 06ac 0400     		.2byte	0x4
 15150 06ae F3       		.byte	0xf3
 15151 06af 01       		.uleb128 0x1
 15152 06b0 50       		.byte	0x50
 15153 06b1 9F       		.byte	0x9f
 15154 06b2 44000000 		.4byte	.LVL200
 15155 06b6 46000000 		.4byte	.LVL201
 15156 06ba 0100     		.2byte	0x1
 15157 06bc 50       		.byte	0x50
 15158 06bd 46000000 		.4byte	.LVL201
 15159 06c1 70000000 		.4byte	.LVL205
 15160 06c5 0400     		.2byte	0x4
 15161 06c7 F3       		.byte	0xf3
 15162 06c8 01       		.uleb128 0x1
 15163 06c9 50       		.byte	0x50
 15164 06ca 9F       		.byte	0x9f
 15165 06cb 70000000 		.4byte	.LVL205
 15166 06cf 72000000 		.4byte	.LVL206
 15167 06d3 0100     		.2byte	0x1
 15168 06d5 50       		.byte	0x50
 15169 06d6 72000000 		.4byte	.LVL206
 15170 06da 9C000000 		.4byte	.LVL210
 15171 06de 0400     		.2byte	0x4
 15172 06e0 F3       		.byte	0xf3
 15173 06e1 01       		.uleb128 0x1
 15174 06e2 50       		.byte	0x50
 15175 06e3 9F       		.byte	0x9f
 15176 06e4 9C000000 		.4byte	.LVL210
 15177 06e8 9E000000 		.4byte	.LVL211
 15178 06ec 0100     		.2byte	0x1
 15179 06ee 50       		.byte	0x50
 15180 06ef 9E000000 		.4byte	.LVL211
 15181 06f3 C8000000 		.4byte	.LVL215
 15182 06f7 0400     		.2byte	0x4
 15183 06f9 F3       		.byte	0xf3
 15184 06fa 01       		.uleb128 0x1
 15185 06fb 50       		.byte	0x50
 15186 06fc 9F       		.byte	0x9f
 15187 06fd C8000000 		.4byte	.LVL215
 15188 0701 CA000000 		.4byte	.LVL216
 15189 0705 0100     		.2byte	0x1
 15190 0707 50       		.byte	0x50
 15191 0708 CA000000 		.4byte	.LVL216
 15192 070c F4000000 		.4byte	.LVL220
 15193 0710 0400     		.2byte	0x4
 15194 0712 F3       		.byte	0xf3
 15195 0713 01       		.uleb128 0x1
 15196 0714 50       		.byte	0x50
 15197 0715 9F       		.byte	0x9f
 15198 0716 F4000000 		.4byte	.LVL220
 15199 071a F6000000 		.4byte	.LVL221
 15200 071e 0100     		.2byte	0x1
 15201 0720 50       		.byte	0x50
 15202 0721 F6000000 		.4byte	.LVL221
 15203 0725 20010000 		.4byte	.LVL225
 15204 0729 0400     		.2byte	0x4
ARM GAS  C:\Users\Helon\AppData\Local\Temp\ccys0XsA.s 			page 326


 15205 072b F3       		.byte	0xf3
 15206 072c 01       		.uleb128 0x1
 15207 072d 50       		.byte	0x50
 15208 072e 9F       		.byte	0x9f
 15209 072f 20010000 		.4byte	.LVL225
 15210 0733 22010000 		.4byte	.LVL226
 15211 0737 0100     		.2byte	0x1
 15212 0739 50       		.byte	0x50
 15213 073a 22010000 		.4byte	.LVL226
 15214 073e 4C010000 		.4byte	.LVL230
 15215 0742 0400     		.2byte	0x4
 15216 0744 F3       		.byte	0xf3
 15217 0745 01       		.uleb128 0x1
 15218 0746 50       		.byte	0x50
 15219 0747 9F       		.byte	0x9f
 15220 0748 4C010000 		.4byte	.LVL230
 15221 074c 4E010000 		.4byte	.LVL231
 15222 0750 0100     		.2byte	0x1
 15223 0752 50       		.byte	0x50
 15224 0753 4E010000 		.4byte	.LVL231
 15225 0757 78010000 		.4byte	.LVL235
 15226 075b 0400     		.2byte	0x4
 15227 075d F3       		.byte	0xf3
 15228 075e 01       		.uleb128 0x1
 15229 075f 50       		.byte	0x50
 15230 0760 9F       		.byte	0x9f
 15231 0761 78010000 		.4byte	.LVL235
 15232 0765 7A010000 		.4byte	.LVL236
 15233 0769 0100     		.2byte	0x1
 15234 076b 50       		.byte	0x50
 15235 076c 7A010000 		.4byte	.LVL236
 15236 0770 A4010000 		.4byte	.LVL240
 15237 0774 0400     		.2byte	0x4
 15238 0776 F3       		.byte	0xf3
 15239 0777 01       		.uleb128 0x1
 15240 0778 50       		.byte	0x50
 15241 0779 9F       		.byte	0x9f
 15242 077a A4010000 		.4byte	.LVL240
 15243 077e A6010000 		.4byte	.LVL241
 15244 0782 0100     		.2byte	0x1
 15245 0784 50       		.byte	0x50
 15246 0785 A6010000 		.4byte	.LVL241
 15247 0789 D0010000 		.4byte	.LVL245
 15248 078d 0400     		.2byte	0x4
 15249 078f F3       		.byte	0xf3
 15250 0790 01       		.uleb128 0x1
 15251 0791 50       		.byte	0x50
 15252 0792 9F       		.byte	0x9f
 15253 0793 D0010000 		.4byte	.LVL245
 15254 0797 D2010000 		.4byte	.LVL246
 15255 079b 0100     		.2byte	0x1
 15256 079d 50       		.byte	0x50
 15257 079e D2010000 		.4byte	.LVL246
 15258 07a2 FC010000 		.4byte	.LVL250
 15259 07a6 0400     		.2byte	0x4
 15260 07a8 F3       		.byte	0xf3
 15261 07a9 01       		.uleb128 0x1
ARM GAS  C:\Users\Helon\AppData\Local\Temp\ccys0XsA.s 			page 327


 15262 07aa 50       		.byte	0x50
 15263 07ab 9F       		.byte	0x9f
 15264 07ac FC010000 		.4byte	.LVL250
 15265 07b0 16020000 		.4byte	.LVL251
 15266 07b4 0100     		.2byte	0x1
 15267 07b6 50       		.byte	0x50
 15268 07b7 16020000 		.4byte	.LVL251
 15269 07bb 34020000 		.4byte	.LVL254
 15270 07bf 0400     		.2byte	0x4
 15271 07c1 F3       		.byte	0xf3
 15272 07c2 01       		.uleb128 0x1
 15273 07c3 50       		.byte	0x50
 15274 07c4 9F       		.byte	0x9f
 15275 07c5 34020000 		.4byte	.LVL254
 15276 07c9 36020000 		.4byte	.LVL255
 15277 07cd 0100     		.2byte	0x1
 15278 07cf 50       		.byte	0x50
 15279 07d0 36020000 		.4byte	.LVL255
 15280 07d4 54020000 		.4byte	.LVL258
 15281 07d8 0400     		.2byte	0x4
 15282 07da F3       		.byte	0xf3
 15283 07db 01       		.uleb128 0x1
 15284 07dc 50       		.byte	0x50
 15285 07dd 9F       		.byte	0x9f
 15286 07de 54020000 		.4byte	.LVL258
 15287 07e2 56020000 		.4byte	.LVL259
 15288 07e6 0100     		.2byte	0x1
 15289 07e8 50       		.byte	0x50
 15290 07e9 56020000 		.4byte	.LVL259
 15291 07ed 74020000 		.4byte	.LVL262
 15292 07f1 0400     		.2byte	0x4
 15293 07f3 F3       		.byte	0xf3
 15294 07f4 01       		.uleb128 0x1
 15295 07f5 50       		.byte	0x50
 15296 07f6 9F       		.byte	0x9f
 15297 07f7 74020000 		.4byte	.LVL262
 15298 07fb 76020000 		.4byte	.LVL263
 15299 07ff 0100     		.2byte	0x1
 15300 0801 50       		.byte	0x50
 15301 0802 76020000 		.4byte	.LVL263
 15302 0806 94020000 		.4byte	.LVL266
 15303 080a 0400     		.2byte	0x4
 15304 080c F3       		.byte	0xf3
 15305 080d 01       		.uleb128 0x1
 15306 080e 50       		.byte	0x50
 15307 080f 9F       		.byte	0x9f
 15308 0810 94020000 		.4byte	.LVL266
 15309 0814 96020000 		.4byte	.LVL267
 15310 0818 0100     		.2byte	0x1
 15311 081a 50       		.byte	0x50
 15312 081b 96020000 		.4byte	.LVL267
 15313 081f B4020000 		.4byte	.LVL270
 15314 0823 0400     		.2byte	0x4
 15315 0825 F3       		.byte	0xf3
 15316 0826 01       		.uleb128 0x1
 15317 0827 50       		.byte	0x50
 15318 0828 9F       		.byte	0x9f
ARM GAS  C:\Users\Helon\AppData\Local\Temp\ccys0XsA.s 			page 328


 15319 0829 B4020000 		.4byte	.LVL270
 15320 082d B6020000 		.4byte	.LVL271
 15321 0831 0100     		.2byte	0x1
 15322 0833 50       		.byte	0x50
 15323 0834 B6020000 		.4byte	.LVL271
 15324 0838 D4020000 		.4byte	.LVL274
 15325 083c 0400     		.2byte	0x4
 15326 083e F3       		.byte	0xf3
 15327 083f 01       		.uleb128 0x1
 15328 0840 50       		.byte	0x50
 15329 0841 9F       		.byte	0x9f
 15330 0842 D4020000 		.4byte	.LVL274
 15331 0846 D6020000 		.4byte	.LVL275
 15332 084a 0100     		.2byte	0x1
 15333 084c 50       		.byte	0x50
 15334 084d D6020000 		.4byte	.LVL275
 15335 0851 F4020000 		.4byte	.LVL278
 15336 0855 0400     		.2byte	0x4
 15337 0857 F3       		.byte	0xf3
 15338 0858 01       		.uleb128 0x1
 15339 0859 50       		.byte	0x50
 15340 085a 9F       		.byte	0x9f
 15341 085b F4020000 		.4byte	.LVL278
 15342 085f F6020000 		.4byte	.LVL279
 15343 0863 0100     		.2byte	0x1
 15344 0865 50       		.byte	0x50
 15345 0866 F6020000 		.4byte	.LVL279
 15346 086a 74030000 		.4byte	.LVL282
 15347 086e 0400     		.2byte	0x4
 15348 0870 F3       		.byte	0xf3
 15349 0871 01       		.uleb128 0x1
 15350 0872 50       		.byte	0x50
 15351 0873 9F       		.byte	0x9f
 15352 0874 74030000 		.4byte	.LVL282
 15353 0878 76030000 		.4byte	.LVL283
 15354 087c 0100     		.2byte	0x1
 15355 087e 50       		.byte	0x50
 15356 087f 76030000 		.4byte	.LVL283
 15357 0883 94030000 		.4byte	.LVL286
 15358 0887 0400     		.2byte	0x4
 15359 0889 F3       		.byte	0xf3
 15360 088a 01       		.uleb128 0x1
 15361 088b 50       		.byte	0x50
 15362 088c 9F       		.byte	0x9f
 15363 088d 94030000 		.4byte	.LVL286
 15364 0891 96030000 		.4byte	.LVL287
 15365 0895 0100     		.2byte	0x1
 15366 0897 50       		.byte	0x50
 15367 0898 96030000 		.4byte	.LVL287
 15368 089c B4030000 		.4byte	.LVL290
 15369 08a0 0400     		.2byte	0x4
 15370 08a2 F3       		.byte	0xf3
 15371 08a3 01       		.uleb128 0x1
 15372 08a4 50       		.byte	0x50
 15373 08a5 9F       		.byte	0x9f
 15374 08a6 B4030000 		.4byte	.LVL290
 15375 08aa B6030000 		.4byte	.LVL291
ARM GAS  C:\Users\Helon\AppData\Local\Temp\ccys0XsA.s 			page 329


 15376 08ae 0100     		.2byte	0x1
 15377 08b0 50       		.byte	0x50
 15378 08b1 B6030000 		.4byte	.LVL291
 15379 08b5 E4030000 		.4byte	.LFE50
 15380 08b9 0400     		.2byte	0x4
 15381 08bb F3       		.byte	0xf3
 15382 08bc 01       		.uleb128 0x1
 15383 08bd 50       		.byte	0x50
 15384 08be 9F       		.byte	0x9f
 15385 08bf 00000000 		.4byte	0
 15386 08c3 00000000 		.4byte	0
 15387              	.LLST20:
 15388 08c7 00000000 		.4byte	.LVL294
 15389 08cb 22000000 		.4byte	.LVL296
 15390 08cf 0100     		.2byte	0x1
 15391 08d1 50       		.byte	0x50
 15392 08d2 22000000 		.4byte	.LVL296
 15393 08d6 3C000000 		.4byte	.LVL298
 15394 08da 0400     		.2byte	0x4
 15395 08dc F3       		.byte	0xf3
 15396 08dd 01       		.uleb128 0x1
 15397 08de 50       		.byte	0x50
 15398 08df 9F       		.byte	0x9f
 15399 08e0 3C000000 		.4byte	.LVL298
 15400 08e4 42000000 		.4byte	.LVL299
 15401 08e8 0100     		.2byte	0x1
 15402 08ea 53       		.byte	0x53
 15403 08eb 42000000 		.4byte	.LVL299
 15404 08ef 4D000000 		.4byte	.LVL300-1
 15405 08f3 0200     		.2byte	0x2
 15406 08f5 74       		.byte	0x74
 15407 08f6 00       		.sleb128 0
 15408 08f7 50000000 		.4byte	.LVL301
 15409 08fb 55000000 		.4byte	.LVL302-1
 15410 08ff 0200     		.2byte	0x2
 15411 0901 74       		.byte	0x74
 15412 0902 00       		.sleb128 0
 15413 0903 58000000 		.4byte	.LVL303
 15414 0907 5D000000 		.4byte	.LVL304-1
 15415 090b 0200     		.2byte	0x2
 15416 090d 74       		.byte	0x74
 15417 090e 00       		.sleb128 0
 15418 090f 60000000 		.4byte	.LVL305
 15419 0913 65000000 		.4byte	.LVL306-1
 15420 0917 0200     		.2byte	0x2
 15421 0919 74       		.byte	0x74
 15422 091a 00       		.sleb128 0
 15423 091b 68000000 		.4byte	.LVL307
 15424 091f 6D000000 		.4byte	.LVL308-1
 15425 0923 0200     		.2byte	0x2
 15426 0925 74       		.byte	0x74
 15427 0926 00       		.sleb128 0
 15428 0927 70000000 		.4byte	.LVL309
 15429 092b 75000000 		.4byte	.LVL310-1
 15430 092f 0200     		.2byte	0x2
 15431 0931 74       		.byte	0x74
 15432 0932 00       		.sleb128 0
ARM GAS  C:\Users\Helon\AppData\Local\Temp\ccys0XsA.s 			page 330


 15433 0933 78000000 		.4byte	.LVL311
 15434 0937 7D000000 		.4byte	.LVL312-1
 15435 093b 0200     		.2byte	0x2
 15436 093d 74       		.byte	0x74
 15437 093e 00       		.sleb128 0
 15438 093f 80000000 		.4byte	.LVL313
 15439 0943 85000000 		.4byte	.LVL314-1
 15440 0947 0200     		.2byte	0x2
 15441 0949 74       		.byte	0x74
 15442 094a 00       		.sleb128 0
 15443 094b 88000000 		.4byte	.LVL315
 15444 094f 36010000 		.4byte	.LVL346
 15445 0953 0400     		.2byte	0x4
 15446 0955 F3       		.byte	0xf3
 15447 0956 01       		.uleb128 0x1
 15448 0957 50       		.byte	0x50
 15449 0958 9F       		.byte	0x9f
 15450 0959 00000000 		.4byte	0
 15451 095d 00000000 		.4byte	0
 15452              	.LLST21:
 15453 0961 04000000 		.4byte	.LVL295
 15454 0965 92000000 		.4byte	.LVL316
 15455 0969 0200     		.2byte	0x2
 15456 096b 30       		.byte	0x30
 15457 096c 9F       		.byte	0x9f
 15458 096d 92000000 		.4byte	.LVL316
 15459 0971 98000000 		.4byte	.LVL317
 15460 0975 0100     		.2byte	0x1
 15461 0977 50       		.byte	0x50
 15462 0978 9E000000 		.4byte	.LVL319
 15463 097c A8000000 		.4byte	.LVL320
 15464 0980 0200     		.2byte	0x2
 15465 0982 30       		.byte	0x30
 15466 0983 9F       		.byte	0x9f
 15467 0984 A8000000 		.4byte	.LVL320
 15468 0988 AE000000 		.4byte	.LVL321
 15469 098c 0100     		.2byte	0x1
 15470 098e 50       		.byte	0x50
 15471 098f B4000000 		.4byte	.LVL323
 15472 0993 BE000000 		.4byte	.LVL324
 15473 0997 0200     		.2byte	0x2
 15474 0999 30       		.byte	0x30
 15475 099a 9F       		.byte	0x9f
 15476 099b BE000000 		.4byte	.LVL324
 15477 099f C4000000 		.4byte	.LVL325
 15478 09a3 0100     		.2byte	0x1
 15479 09a5 50       		.byte	0x50
 15480 09a6 CA000000 		.4byte	.LVL327
 15481 09aa D4000000 		.4byte	.LVL328
 15482 09ae 0200     		.2byte	0x2
 15483 09b0 30       		.byte	0x30
 15484 09b1 9F       		.byte	0x9f
 15485 09b2 D4000000 		.4byte	.LVL328
 15486 09b6 DA000000 		.4byte	.LVL329
 15487 09ba 0100     		.2byte	0x1
 15488 09bc 50       		.byte	0x50
 15489 09bd E0000000 		.4byte	.LVL331
ARM GAS  C:\Users\Helon\AppData\Local\Temp\ccys0XsA.s 			page 331


 15490 09c1 EA000000 		.4byte	.LVL332
 15491 09c5 0200     		.2byte	0x2
 15492 09c7 30       		.byte	0x30
 15493 09c8 9F       		.byte	0x9f
 15494 09c9 EA000000 		.4byte	.LVL332
 15495 09cd F0000000 		.4byte	.LVL333
 15496 09d1 0100     		.2byte	0x1
 15497 09d3 50       		.byte	0x50
 15498 09d4 F6000000 		.4byte	.LVL335
 15499 09d8 00010000 		.4byte	.LVL336
 15500 09dc 0200     		.2byte	0x2
 15501 09de 30       		.byte	0x30
 15502 09df 9F       		.byte	0x9f
 15503 09e0 00010000 		.4byte	.LVL336
 15504 09e4 06010000 		.4byte	.LVL337
 15505 09e8 0100     		.2byte	0x1
 15506 09ea 50       		.byte	0x50
 15507 09eb 0C010000 		.4byte	.LVL339
 15508 09ef 16010000 		.4byte	.LVL340
 15509 09f3 0200     		.2byte	0x2
 15510 09f5 30       		.byte	0x30
 15511 09f6 9F       		.byte	0x9f
 15512 09f7 16010000 		.4byte	.LVL340
 15513 09fb 1C010000 		.4byte	.LVL341
 15514 09ff 0100     		.2byte	0x1
 15515 0a01 50       		.byte	0x50
 15516 0a02 22010000 		.4byte	.LVL343
 15517 0a06 2C010000 		.4byte	.LVL344
 15518 0a0a 0200     		.2byte	0x2
 15519 0a0c 30       		.byte	0x30
 15520 0a0d 9F       		.byte	0x9f
 15521 0a0e 2C010000 		.4byte	.LVL344
 15522 0a12 32010000 		.4byte	.LVL345
 15523 0a16 0100     		.2byte	0x1
 15524 0a18 50       		.byte	0x50
 15525 0a19 00000000 		.4byte	0
 15526 0a1d 00000000 		.4byte	0
 15527              	.LLST22:
 15528 0a21 00000000 		.4byte	.LVL347
 15529 0a25 0C000000 		.4byte	.LVL349
 15530 0a29 0100     		.2byte	0x1
 15531 0a2b 50       		.byte	0x50
 15532 0a2c 0C000000 		.4byte	.LVL349
 15533 0a30 64000000 		.4byte	.LVL364
 15534 0a34 0100     		.2byte	0x1
 15535 0a36 58       		.byte	0x58
 15536 0a37 64000000 		.4byte	.LVL364
 15537 0a3b 70000000 		.4byte	.LFE52
 15538 0a3f 0400     		.2byte	0x4
 15539 0a41 F3       		.byte	0xf3
 15540 0a42 01       		.uleb128 0x1
 15541 0a43 50       		.byte	0x50
 15542 0a44 9F       		.byte	0x9f
 15543 0a45 00000000 		.4byte	0
 15544 0a49 00000000 		.4byte	0
 15545              	.LLST23:
 15546 0a4d 10000000 		.4byte	.LVL350
ARM GAS  C:\Users\Helon\AppData\Local\Temp\ccys0XsA.s 			page 332


 15547 0a51 26000000 		.4byte	.LVL352
 15548 0a55 0100     		.2byte	0x1
 15549 0a57 53       		.byte	0x53
 15550 0a58 26000000 		.4byte	.LVL352
 15551 0a5c 5E000000 		.4byte	.LVL361
 15552 0a60 0700     		.2byte	0x7
 15553 0a62 76       		.byte	0x76
 15554 0a63 00       		.sleb128 0
 15555 0a64 31       		.byte	0x31
 15556 0a65 24       		.byte	0x24
 15557 0a66 71       		.byte	0x71
 15558 0a67 00       		.sleb128 0
 15559 0a68 22       		.byte	0x22
 15560 0a69 00000000 		.4byte	0
 15561 0a6d 00000000 		.4byte	0
 15562              	.LLST24:
 15563 0a71 14000000 		.4byte	.LVL351
 15564 0a75 46000000 		.4byte	.LVL357
 15565 0a79 0100     		.2byte	0x1
 15566 0a7b 54       		.byte	0x54
 15567 0a7c 46000000 		.4byte	.LVL357
 15568 0a80 5E000000 		.4byte	.LVL361
 15569 0a84 0900     		.2byte	0x9
 15570 0a86 76       		.byte	0x76
 15571 0a87 00       		.sleb128 0
 15572 0a88 31       		.byte	0x31
 15573 0a89 24       		.byte	0x24
 15574 0a8a 71       		.byte	0x71
 15575 0a8b 00       		.sleb128 0
 15576 0a8c 22       		.byte	0x22
 15577 0a8d 23       		.byte	0x23
 15578 0a8e 01       		.uleb128 0x1
 15579 0a8f 00000000 		.4byte	0
 15580 0a93 00000000 		.4byte	0
 15581              	.LLST25:
 15582 0a97 2E000000 		.4byte	.LVL353
 15583 0a9b 34000000 		.4byte	.LVL354
 15584 0a9f 0100     		.2byte	0x1
 15585 0aa1 53       		.byte	0x53
 15586 0aa2 34000000 		.4byte	.LVL354
 15587 0aa6 36000000 		.4byte	.LVL355
 15588 0aaa 0300     		.2byte	0x3
 15589 0aac 73       		.byte	0x73
 15590 0aad 50       		.sleb128 -48
 15591 0aae 9F       		.byte	0x9f
 15592 0aaf 36000000 		.4byte	.LVL355
 15593 0ab3 38000000 		.4byte	.LVL356
 15594 0ab7 0300     		.2byte	0x3
 15595 0ab9 75       		.byte	0x75
 15596 0aba 50       		.sleb128 -48
 15597 0abb 9F       		.byte	0x9f
 15598 0abc 38000000 		.4byte	.LVL356
 15599 0ac0 58000000 		.4byte	.LVL360
 15600 0ac4 0100     		.2byte	0x1
 15601 0ac6 53       		.byte	0x53
 15602 0ac7 00000000 		.4byte	0
 15603 0acb 00000000 		.4byte	0
ARM GAS  C:\Users\Helon\AppData\Local\Temp\ccys0XsA.s 			page 333


 15604              	.LLST26:
 15605 0acf 4E000000 		.4byte	.LVL358
 15606 0ad3 60000000 		.4byte	.LVL362
 15607 0ad7 0100     		.2byte	0x1
 15608 0ad9 55       		.byte	0x55
 15609 0ada 00000000 		.4byte	0
 15610 0ade 00000000 		.4byte	0
 15611              	.LLST27:
 15612 0ae2 08000000 		.4byte	.LVL348
 15613 0ae6 0C000000 		.4byte	.LVL349
 15614 0aea 0200     		.2byte	0x2
 15615 0aec 30       		.byte	0x30
 15616 0aed 9F       		.byte	0x9f
 15617 0aee 0C000000 		.4byte	.LVL349
 15618 0af2 64000000 		.4byte	.LVL363
 15619 0af6 0100     		.2byte	0x1
 15620 0af8 56       		.byte	0x56
 15621 0af9 00000000 		.4byte	0
 15622 0afd 00000000 		.4byte	0
 15623              	.LLST28:
 15624 0b01 14000000 		.4byte	.LVL351
 15625 0b05 26000000 		.4byte	.LVL352
 15626 0b09 0100     		.2byte	0x1
 15627 0b0b 53       		.byte	0x53
 15628 0b0c 26000000 		.4byte	.LVL352
 15629 0b10 5E000000 		.4byte	.LVL361
 15630 0b14 0700     		.2byte	0x7
 15631 0b16 76       		.byte	0x76
 15632 0b17 00       		.sleb128 0
 15633 0b18 31       		.byte	0x31
 15634 0b19 24       		.byte	0x24
 15635 0b1a 71       		.byte	0x71
 15636 0b1b 00       		.sleb128 0
 15637 0b1c 22       		.byte	0x22
 15638 0b1d 00000000 		.4byte	0
 15639 0b21 00000000 		.4byte	0
 15640              	.LLST29:
 15641 0b25 38000000 		.4byte	.LVL356
 15642 0b29 46000000 		.4byte	.LVL357
 15643 0b2d 0100     		.2byte	0x1
 15644 0b2f 54       		.byte	0x54
 15645 0b30 46000000 		.4byte	.LVL357
 15646 0b34 5E000000 		.4byte	.LVL361
 15647 0b38 0900     		.2byte	0x9
 15648 0b3a 76       		.byte	0x76
 15649 0b3b 00       		.sleb128 0
 15650 0b3c 31       		.byte	0x31
 15651 0b3d 24       		.byte	0x24
 15652 0b3e 71       		.byte	0x71
 15653 0b3f 00       		.sleb128 0
 15654 0b40 22       		.byte	0x22
 15655 0b41 23       		.byte	0x23
 15656 0b42 01       		.uleb128 0x1
 15657 0b43 00000000 		.4byte	0
 15658 0b47 00000000 		.4byte	0
 15659              	.LLST30:
 15660 0b4b 00000000 		.4byte	.LVL365
ARM GAS  C:\Users\Helon\AppData\Local\Temp\ccys0XsA.s 			page 334


 15661 0b4f 3E000000 		.4byte	.LVL367
 15662 0b53 0100     		.2byte	0x1
 15663 0b55 50       		.byte	0x50
 15664 0b56 3E000000 		.4byte	.LVL367
 15665 0b5a D8000000 		.4byte	.LVL380
 15666 0b5e 0100     		.2byte	0x1
 15667 0b60 55       		.byte	0x55
 15668 0b61 D8000000 		.4byte	.LVL380
 15669 0b65 EC000000 		.4byte	.LVL382
 15670 0b69 0400     		.2byte	0x4
 15671 0b6b F3       		.byte	0xf3
 15672 0b6c 01       		.uleb128 0x1
 15673 0b6d 50       		.byte	0x50
 15674 0b6e 9F       		.byte	0x9f
 15675 0b6f EC000000 		.4byte	.LVL382
 15676 0b73 16010000 		.4byte	.LVL387
 15677 0b77 0100     		.2byte	0x1
 15678 0b79 55       		.byte	0x55
 15679 0b7a 16010000 		.4byte	.LVL387
 15680 0b7e 84010000 		.4byte	.LVL400
 15681 0b82 0300     		.2byte	0x3
 15682 0b84 75       		.byte	0x75
 15683 0b85 77       		.sleb128 -9
 15684 0b86 9F       		.byte	0x9f
 15685 0b87 84010000 		.4byte	.LVL400
 15686 0b8b 9A020000 		.4byte	.LVL436
 15687 0b8f 0100     		.2byte	0x1
 15688 0b91 55       		.byte	0x55
 15689 0b92 9A020000 		.4byte	.LVL436
 15690 0b96 E8020000 		.4byte	.LVL447
 15691 0b9a 0400     		.2byte	0x4
 15692 0b9c F3       		.byte	0xf3
 15693 0b9d 01       		.uleb128 0x1
 15694 0b9e 50       		.byte	0x50
 15695 0b9f 9F       		.byte	0x9f
 15696 0ba0 E8020000 		.4byte	.LVL447
 15697 0ba4 7E050000 		.4byte	.LVL511
 15698 0ba8 0100     		.2byte	0x1
 15699 0baa 55       		.byte	0x55
 15700 0bab 7E050000 		.4byte	.LVL511
 15701 0baf B6050000 		.4byte	.LVL515
 15702 0bb3 0400     		.2byte	0x4
 15703 0bb5 F3       		.byte	0xf3
 15704 0bb6 01       		.uleb128 0x1
 15705 0bb7 50       		.byte	0x50
 15706 0bb8 9F       		.byte	0x9f
 15707 0bb9 B6050000 		.4byte	.LVL515
 15708 0bbd B8050000 		.4byte	.LVL516
 15709 0bc1 0100     		.2byte	0x1
 15710 0bc3 55       		.byte	0x55
 15711 0bc4 B8050000 		.4byte	.LVL516
 15712 0bc8 C2050000 		.4byte	.LVL517
 15713 0bcc 0400     		.2byte	0x4
 15714 0bce F3       		.byte	0xf3
 15715 0bcf 01       		.uleb128 0x1
 15716 0bd0 50       		.byte	0x50
 15717 0bd1 9F       		.byte	0x9f
ARM GAS  C:\Users\Helon\AppData\Local\Temp\ccys0XsA.s 			page 335


 15718 0bd2 C2050000 		.4byte	.LVL517
 15719 0bd6 16060000 		.4byte	.LVL529
 15720 0bda 0100     		.2byte	0x1
 15721 0bdc 55       		.byte	0x55
 15722 0bdd 16060000 		.4byte	.LVL529
 15723 0be1 3E060000 		.4byte	.LVL533
 15724 0be5 0400     		.2byte	0x4
 15725 0be7 F3       		.byte	0xf3
 15726 0be8 01       		.uleb128 0x1
 15727 0be9 50       		.byte	0x50
 15728 0bea 9F       		.byte	0x9f
 15729 0beb 3E060000 		.4byte	.LVL533
 15730 0bef 4E060000 		.4byte	.LVL538
 15731 0bf3 0100     		.2byte	0x1
 15732 0bf5 55       		.byte	0x55
 15733 0bf6 4E060000 		.4byte	.LVL538
 15734 0bfa 56060000 		.4byte	.LVL540
 15735 0bfe 0400     		.2byte	0x4
 15736 0c00 F3       		.byte	0xf3
 15737 0c01 01       		.uleb128 0x1
 15738 0c02 50       		.byte	0x50
 15739 0c03 9F       		.byte	0x9f
 15740 0c04 56060000 		.4byte	.LVL540
 15741 0c08 7C090000 		.4byte	.LVL668
 15742 0c0c 0100     		.2byte	0x1
 15743 0c0e 55       		.byte	0x55
 15744 0c0f 7C090000 		.4byte	.LVL668
 15745 0c13 F0090000 		.4byte	.LFE43
 15746 0c17 0400     		.2byte	0x4
 15747 0c19 F3       		.byte	0xf3
 15748 0c1a 01       		.uleb128 0x1
 15749 0c1b 50       		.byte	0x50
 15750 0c1c 9F       		.byte	0x9f
 15751 0c1d 00000000 		.4byte	0
 15752 0c21 00000000 		.4byte	0
 15753              	.LLST31:
 15754 0c25 12000000 		.4byte	.LVL366
 15755 0c29 68000000 		.4byte	.LVL370
 15756 0c2d 0200     		.2byte	0x2
 15757 0c2f 30       		.byte	0x30
 15758 0c30 9F       		.byte	0x9f
 15759 0c31 68000000 		.4byte	.LVL370
 15760 0c35 72000000 		.4byte	.LVL371
 15761 0c39 0100     		.2byte	0x1
 15762 0c3b 50       		.byte	0x50
 15763 0c3c 76090000 		.4byte	.LVL666
 15764 0c40 78090000 		.4byte	.LVL667
 15765 0c44 0100     		.2byte	0x1
 15766 0c46 50       		.byte	0x50
 15767 0c47 00000000 		.4byte	0
 15768 0c4b 00000000 		.4byte	0
 15769              	.LLST32:
 15770 0c4f 12000000 		.4byte	.LVL366
 15771 0c53 4E020000 		.4byte	.LVL425
 15772 0c57 0200     		.2byte	0x2
 15773 0c59 30       		.byte	0x30
 15774 0c5a 9F       		.byte	0x9f
ARM GAS  C:\Users\Helon\AppData\Local\Temp\ccys0XsA.s 			page 336


 15775 0c5b 4E020000 		.4byte	.LVL425
 15776 0c5f 58020000 		.4byte	.LVL427
 15777 0c63 0100     		.2byte	0x1
 15778 0c65 54       		.byte	0x54
 15779 0c66 5A020000 		.4byte	.LVL428
 15780 0c6a 6C020000 		.4byte	.LVL430
 15781 0c6e 0100     		.2byte	0x1
 15782 0c70 54       		.byte	0x54
 15783 0c71 6C020000 		.4byte	.LVL430
 15784 0c75 7E050000 		.4byte	.LVL511
 15785 0c79 0200     		.2byte	0x2
 15786 0c7b 30       		.byte	0x30
 15787 0c7c 9F       		.byte	0x9f
 15788 0c7d 7E050000 		.4byte	.LVL511
 15789 0c81 B2050000 		.4byte	.LVL513
 15790 0c85 0100     		.2byte	0x1
 15791 0c87 54       		.byte	0x54
 15792 0c88 B4050000 		.4byte	.LVL514
 15793 0c8c B6050000 		.4byte	.LVL515
 15794 0c90 0100     		.2byte	0x1
 15795 0c92 54       		.byte	0x54
 15796 0c93 B6050000 		.4byte	.LVL515
 15797 0c97 B8050000 		.4byte	.LVL516
 15798 0c9b 0200     		.2byte	0x2
 15799 0c9d 30       		.byte	0x30
 15800 0c9e 9F       		.byte	0x9f
 15801 0c9f B8050000 		.4byte	.LVL516
 15802 0ca3 C2050000 		.4byte	.LVL517
 15803 0ca7 0100     		.2byte	0x1
 15804 0ca9 54       		.byte	0x54
 15805 0caa C2050000 		.4byte	.LVL517
 15806 0cae 0A060000 		.4byte	.LVL528
 15807 0cb2 0200     		.2byte	0x2
 15808 0cb4 30       		.byte	0x30
 15809 0cb5 9F       		.byte	0x9f
 15810 0cb6 0A060000 		.4byte	.LVL528
 15811 0cba 1C060000 		.4byte	.LVL530
 15812 0cbe 0100     		.2byte	0x1
 15813 0cc0 53       		.byte	0x53
 15814 0cc1 3E060000 		.4byte	.LVL533
 15815 0cc5 40060000 		.4byte	.LVL534
 15816 0cc9 0100     		.2byte	0x1
 15817 0ccb 53       		.byte	0x53
 15818 0ccc 42060000 		.4byte	.LVL535
 15819 0cd0 44060000 		.4byte	.LVL536
 15820 0cd4 0100     		.2byte	0x1
 15821 0cd6 53       		.byte	0x53
 15822 0cd7 44060000 		.4byte	.LVL536
 15823 0cdb 46060000 		.4byte	.LVL537
 15824 0cdf 0200     		.2byte	0x2
 15825 0ce1 30       		.byte	0x30
 15826 0ce2 9F       		.byte	0x9f
 15827 0ce3 46060000 		.4byte	.LVL537
 15828 0ce7 4E060000 		.4byte	.LVL538
 15829 0ceb 0100     		.2byte	0x1
 15830 0ced 53       		.byte	0x53
 15831 0cee 56060000 		.4byte	.LVL540
ARM GAS  C:\Users\Helon\AppData\Local\Temp\ccys0XsA.s 			page 337


 15832 0cf2 7C090000 		.4byte	.LVL668
 15833 0cf6 0200     		.2byte	0x2
 15834 0cf8 30       		.byte	0x30
 15835 0cf9 9F       		.byte	0x9f
 15836 0cfa 00000000 		.4byte	0
 15837 0cfe 00000000 		.4byte	0
 15838              	.LLST33:
 15839 0d02 12000000 		.4byte	.LVL366
 15840 0d06 C4000000 		.4byte	.LVL378
 15841 0d0a 0200     		.2byte	0x2
 15842 0d0c 30       		.byte	0x30
 15843 0d0d 9F       		.byte	0x9f
 15844 0d0e C4000000 		.4byte	.LVL378
 15845 0d12 CD000000 		.4byte	.LVL379-1
 15846 0d16 0100     		.2byte	0x1
 15847 0d18 53       		.byte	0x53
 15848 0d19 EC000000 		.4byte	.LVL382
 15849 0d1d EE000000 		.4byte	.LVL383
 15850 0d21 0200     		.2byte	0x2
 15851 0d23 30       		.byte	0x30
 15852 0d24 9F       		.byte	0x9f
 15853 0d25 EE000000 		.4byte	.LVL383
 15854 0d29 07010000 		.4byte	.LVL384-1
 15855 0d2d 0100     		.2byte	0x1
 15856 0d2f 53       		.byte	0x53
 15857 0d30 14010000 		.4byte	.LVL386
 15858 0d34 1D010000 		.4byte	.LVL388-1
 15859 0d38 0100     		.2byte	0x1
 15860 0d3a 53       		.byte	0x53
 15861 0d3b 84010000 		.4byte	.LVL400
 15862 0d3f 89010000 		.4byte	.LVL401-1
 15863 0d43 0100     		.2byte	0x1
 15864 0d45 53       		.byte	0x53
 15865 0d46 8E010000 		.4byte	.LVL402
 15866 0d4a 90010000 		.4byte	.LVL403
 15867 0d4e 0200     		.2byte	0x2
 15868 0d50 30       		.byte	0x30
 15869 0d51 9F       		.byte	0x9f
 15870 0d52 90010000 		.4byte	.LVL403
 15871 0d56 9B010000 		.4byte	.LVL404-1
 15872 0d5a 0100     		.2byte	0x1
 15873 0d5c 50       		.byte	0x50
 15874 0d5d 9E010000 		.4byte	.LVL405
 15875 0d61 A0010000 		.4byte	.LVL406
 15876 0d65 0100     		.2byte	0x1
 15877 0d67 50       		.byte	0x50
 15878 0d68 A0010000 		.4byte	.LVL406
 15879 0d6c A3010000 		.4byte	.LVL407-1
 15880 0d70 0200     		.2byte	0x2
 15881 0d72 75       		.byte	0x75
 15882 0d73 07       		.sleb128 7
 15883 0d74 A6010000 		.4byte	.LVL408
 15884 0d78 A8010000 		.4byte	.LVL409
 15885 0d7c 0200     		.2byte	0x2
 15886 0d7e 30       		.byte	0x30
 15887 0d7f 9F       		.byte	0x9f
 15888 0d80 A8010000 		.4byte	.LVL409
ARM GAS  C:\Users\Helon\AppData\Local\Temp\ccys0XsA.s 			page 338


 15889 0d84 E0010000 		.4byte	.LVL410
 15890 0d88 0100     		.2byte	0x1
 15891 0d8a 52       		.byte	0x52
 15892 0d8b 44020000 		.4byte	.LVL423
 15893 0d8f 49020000 		.4byte	.LVL424-1
 15894 0d93 0100     		.2byte	0x1
 15895 0d95 52       		.byte	0x52
 15896 0d96 6C020000 		.4byte	.LVL430
 15897 0d9a 71020000 		.4byte	.LVL431-1
 15898 0d9e 0100     		.2byte	0x1
 15899 0da0 52       		.byte	0x52
 15900 0da1 74020000 		.4byte	.LVL432
 15901 0da5 79020000 		.4byte	.LVL433-1
 15902 0da9 0100     		.2byte	0x1
 15903 0dab 52       		.byte	0x52
 15904 0dac 7C020000 		.4byte	.LVL434
 15905 0db0 86020000 		.4byte	.LVL435
 15906 0db4 0200     		.2byte	0x2
 15907 0db6 30       		.byte	0x30
 15908 0db7 9F       		.byte	0x9f
 15909 0db8 86020000 		.4byte	.LVL435
 15910 0dbc A1020000 		.4byte	.LVL437-1
 15911 0dc0 0100     		.2byte	0x1
 15912 0dc2 53       		.byte	0x53
 15913 0dc3 E8020000 		.4byte	.LVL447
 15914 0dc7 F0020000 		.4byte	.LVL448
 15915 0dcb 0100     		.2byte	0x1
 15916 0dcd 53       		.byte	0x53
 15917 0dce F0020000 		.4byte	.LVL448
 15918 0dd2 03030000 		.4byte	.LVL449-1
 15919 0dd6 0200     		.2byte	0x2
 15920 0dd8 75       		.byte	0x75
 15921 0dd9 08       		.sleb128 8
 15922 0dda 42030000 		.4byte	.LVL453
 15923 0dde 47030000 		.4byte	.LVL454-1
 15924 0de2 0100     		.2byte	0x1
 15925 0de4 53       		.byte	0x53
 15926 0de5 4A030000 		.4byte	.LVL455
 15927 0de9 4F030000 		.4byte	.LVL456-1
 15928 0ded 0100     		.2byte	0x1
 15929 0def 53       		.byte	0x53
 15930 0df0 52030000 		.4byte	.LVL457
 15931 0df4 5C030000 		.4byte	.LVL459
 15932 0df8 0200     		.2byte	0x2
 15933 0dfa 30       		.byte	0x30
 15934 0dfb 9F       		.byte	0x9f
 15935 0dfc 5C030000 		.4byte	.LVL459
 15936 0e00 68030000 		.4byte	.LVL460
 15937 0e04 0100     		.2byte	0x1
 15938 0e06 53       		.byte	0x53
 15939 0e07 68030000 		.4byte	.LVL460
 15940 0e0b 7B030000 		.4byte	.LVL461-1
 15941 0e0f 0200     		.2byte	0x2
 15942 0e11 75       		.byte	0x75
 15943 0e12 09       		.sleb128 9
 15944 0e13 7E030000 		.4byte	.LVL462
 15945 0e17 83030000 		.4byte	.LVL463-1
ARM GAS  C:\Users\Helon\AppData\Local\Temp\ccys0XsA.s 			page 339


 15946 0e1b 0200     		.2byte	0x2
 15947 0e1d 75       		.byte	0x75
 15948 0e1e 09       		.sleb128 9
 15949 0e1f E0030000 		.4byte	.LVL464
 15950 0e23 E2030000 		.4byte	.LVL465
 15951 0e27 0100     		.2byte	0x1
 15952 0e29 53       		.byte	0x53
 15953 0e2a E2030000 		.4byte	.LVL465
 15954 0e2e FF030000 		.4byte	.LVL466-1
 15955 0e32 0200     		.2byte	0x2
 15956 0e34 75       		.byte	0x75
 15957 0e35 09       		.sleb128 9
 15958 0e36 3A040000 		.4byte	.LVL474
 15959 0e3a 3F040000 		.4byte	.LVL475-1
 15960 0e3e 0200     		.2byte	0x2
 15961 0e40 75       		.byte	0x75
 15962 0e41 09       		.sleb128 9
 15963 0e42 42040000 		.4byte	.LVL476
 15964 0e46 44040000 		.4byte	.LVL477
 15965 0e4a 0200     		.2byte	0x2
 15966 0e4c 30       		.byte	0x30
 15967 0e4d 9F       		.byte	0x9f
 15968 0e4e 44040000 		.4byte	.LVL477
 15969 0e52 56040000 		.4byte	.LVL478
 15970 0e56 0100     		.2byte	0x1
 15971 0e58 53       		.byte	0x53
 15972 0e59 56040000 		.4byte	.LVL478
 15973 0e5d 61040000 		.4byte	.LVL479-1
 15974 0e61 0200     		.2byte	0x2
 15975 0e63 75       		.byte	0x75
 15976 0e64 08       		.sleb128 8
 15977 0e65 64040000 		.4byte	.LVL480
 15978 0e69 69040000 		.4byte	.LVL481-1
 15979 0e6d 0200     		.2byte	0x2
 15980 0e6f 75       		.byte	0x75
 15981 0e70 08       		.sleb128 8
 15982 0e71 6C040000 		.4byte	.LVL482
 15983 0e75 6E040000 		.4byte	.LVL483
 15984 0e79 0100     		.2byte	0x1
 15985 0e7b 53       		.byte	0x53
 15986 0e7c 6E040000 		.4byte	.LVL483
 15987 0e80 7F040000 		.4byte	.LVL484-1
 15988 0e84 0200     		.2byte	0x2
 15989 0e86 75       		.byte	0x75
 15990 0e87 08       		.sleb128 8
 15991 0e88 A2040000 		.4byte	.LVL488
 15992 0e8c A7040000 		.4byte	.LVL489-1
 15993 0e90 0200     		.2byte	0x2
 15994 0e92 75       		.byte	0x75
 15995 0e93 08       		.sleb128 8
 15996 0e94 AA040000 		.4byte	.LVL490
 15997 0e98 AC040000 		.4byte	.LVL491
 15998 0e9c 0100     		.2byte	0x1
 15999 0e9e 53       		.byte	0x53
 16000 0e9f AC040000 		.4byte	.LVL491
 16001 0ea3 BD040000 		.4byte	.LVL492-1
 16002 0ea7 0200     		.2byte	0x2
ARM GAS  C:\Users\Helon\AppData\Local\Temp\ccys0XsA.s 			page 340


 16003 0ea9 75       		.byte	0x75
 16004 0eaa 08       		.sleb128 8
 16005 0eab E0040000 		.4byte	.LVL496
 16006 0eaf E5040000 		.4byte	.LVL497-1
 16007 0eb3 0200     		.2byte	0x2
 16008 0eb5 75       		.byte	0x75
 16009 0eb6 08       		.sleb128 8
 16010 0eb7 E8040000 		.4byte	.LVL498
 16011 0ebb D4050000 		.4byte	.LVL519
 16012 0ebf 0200     		.2byte	0x2
 16013 0ec1 30       		.byte	0x30
 16014 0ec2 9F       		.byte	0x9f
 16015 0ec3 D4050000 		.4byte	.LVL519
 16016 0ec7 D7050000 		.4byte	.LVL520-1
 16017 0ecb 0100     		.2byte	0x1
 16018 0ecd 50       		.byte	0x50
 16019 0ece DA050000 		.4byte	.LVL521
 16020 0ed2 EC050000 		.4byte	.LVL523
 16021 0ed6 0200     		.2byte	0x2
 16022 0ed8 30       		.byte	0x30
 16023 0ed9 9F       		.byte	0x9f
 16024 0eda EC050000 		.4byte	.LVL523
 16025 0ede 34060000 		.4byte	.LVL531
 16026 0ee2 0100     		.2byte	0x1
 16027 0ee4 54       		.byte	0x54
 16028 0ee5 34060000 		.4byte	.LVL531
 16029 0ee9 36060000 		.4byte	.LVL532
 16030 0eed 0300     		.2byte	0x3
 16031 0eef 74       		.byte	0x74
 16032 0ef0 30       		.sleb128 48
 16033 0ef1 9F       		.byte	0x9f
 16034 0ef2 3E060000 		.4byte	.LVL533
 16035 0ef6 4E060000 		.4byte	.LVL538
 16036 0efa 0100     		.2byte	0x1
 16037 0efc 54       		.byte	0x54
 16038 0efd 56060000 		.4byte	.LVL540
 16039 0f01 68060000 		.4byte	.LVL542
 16040 0f05 0200     		.2byte	0x2
 16041 0f07 30       		.byte	0x30
 16042 0f08 9F       		.byte	0x9f
 16043 0f09 68060000 		.4byte	.LVL542
 16044 0f0d 71060000 		.4byte	.LVL543-1
 16045 0f11 0100     		.2byte	0x1
 16046 0f13 53       		.byte	0x53
 16047 0f14 7C060000 		.4byte	.LVL545
 16048 0f18 86060000 		.4byte	.LVL547
 16049 0f1c 0200     		.2byte	0x2
 16050 0f1e 30       		.byte	0x30
 16051 0f1f 9F       		.byte	0x9f
 16052 0f20 86060000 		.4byte	.LVL547
 16053 0f24 95060000 		.4byte	.LVL548-1
 16054 0f28 0100     		.2byte	0x1
 16055 0f2a 53       		.byte	0x53
 16056 0f2b 9C060000 		.4byte	.LVL549
 16057 0f2f 9E060000 		.4byte	.LVL550
 16058 0f33 0200     		.2byte	0x2
 16059 0f35 30       		.byte	0x30
ARM GAS  C:\Users\Helon\AppData\Local\Temp\ccys0XsA.s 			page 341


 16060 0f36 9F       		.byte	0x9f
 16061 0f37 9E060000 		.4byte	.LVL550
 16062 0f3b BE060000 		.4byte	.LVL551
 16063 0f3f 0100     		.2byte	0x1
 16064 0f41 52       		.byte	0x52
 16065 0f42 BE060000 		.4byte	.LVL551
 16066 0f46 C0060000 		.4byte	.LVL552
 16067 0f4a 0200     		.2byte	0x2
 16068 0f4c 75       		.byte	0x75
 16069 0f4d 0A       		.sleb128 10
 16070 0f4e E6060000 		.4byte	.LVL556
 16071 0f52 EB060000 		.4byte	.LVL557-1
 16072 0f56 0100     		.2byte	0x1
 16073 0f58 52       		.byte	0x52
 16074 0f59 EE060000 		.4byte	.LVL558
 16075 0f5d 56070000 		.4byte	.LVL559
 16076 0f61 0100     		.2byte	0x1
 16077 0f63 52       		.byte	0x52
 16078 0f64 56070000 		.4byte	.LVL559
 16079 0f68 5F070000 		.4byte	.LVL560-1
 16080 0f6c 0200     		.2byte	0x2
 16081 0f6e 75       		.byte	0x75
 16082 0f6f 0A       		.sleb128 10
 16083 0f70 62070000 		.4byte	.LVL561
 16084 0f74 67070000 		.4byte	.LVL562-1
 16085 0f78 0100     		.2byte	0x1
 16086 0f7a 52       		.byte	0x52
 16087 0f7b 6A070000 		.4byte	.LVL563
 16088 0f7f 6F070000 		.4byte	.LVL564-1
 16089 0f83 0100     		.2byte	0x1
 16090 0f85 52       		.byte	0x52
 16091 0f86 72070000 		.4byte	.LVL565
 16092 0f8a 74070000 		.4byte	.LVL566
 16093 0f8e 0200     		.2byte	0x2
 16094 0f90 30       		.byte	0x30
 16095 0f91 9F       		.byte	0x9f
 16096 0f92 74070000 		.4byte	.LVL566
 16097 0f96 7C070000 		.4byte	.LVL567
 16098 0f9a 0100     		.2byte	0x1
 16099 0f9c 53       		.byte	0x53
 16100 0f9d 7C070000 		.4byte	.LVL567
 16101 0fa1 91070000 		.4byte	.LVL570-1
 16102 0fa5 0200     		.2byte	0x2
 16103 0fa7 75       		.byte	0x75
 16104 0fa8 09       		.sleb128 9
 16105 0fa9 94070000 		.4byte	.LVL571
 16106 0fad 99070000 		.4byte	.LVL572-1
 16107 0fb1 0200     		.2byte	0x2
 16108 0fb3 75       		.byte	0x75
 16109 0fb4 09       		.sleb128 9
 16110 0fb5 9C070000 		.4byte	.LVL573
 16111 0fb9 A1070000 		.4byte	.LVL574-1
 16112 0fbd 0200     		.2byte	0x2
 16113 0fbf 75       		.byte	0x75
 16114 0fc0 09       		.sleb128 9
 16115 0fc1 A4070000 		.4byte	.LVL575
 16116 0fc5 A9070000 		.4byte	.LVL576-1
ARM GAS  C:\Users\Helon\AppData\Local\Temp\ccys0XsA.s 			page 342


 16117 0fc9 0200     		.2byte	0x2
 16118 0fcb 75       		.byte	0x75
 16119 0fcc 09       		.sleb128 9
 16120 0fcd AC070000 		.4byte	.LVL577
 16121 0fd1 B1070000 		.4byte	.LVL578-1
 16122 0fd5 0200     		.2byte	0x2
 16123 0fd7 75       		.byte	0x75
 16124 0fd8 09       		.sleb128 9
 16125 0fd9 B4070000 		.4byte	.LVL579
 16126 0fdd B9070000 		.4byte	.LVL580-1
 16127 0fe1 0200     		.2byte	0x2
 16128 0fe3 75       		.byte	0x75
 16129 0fe4 09       		.sleb128 9
 16130 0fe5 BC070000 		.4byte	.LVL581
 16131 0fe9 C1070000 		.4byte	.LVL582-1
 16132 0fed 0200     		.2byte	0x2
 16133 0fef 75       		.byte	0x75
 16134 0ff0 09       		.sleb128 9
 16135 0ff1 C4070000 		.4byte	.LVL583
 16136 0ff5 C6070000 		.4byte	.LVL584
 16137 0ff9 0200     		.2byte	0x2
 16138 0ffb 30       		.byte	0x30
 16139 0ffc 9F       		.byte	0x9f
 16140 0ffd C6070000 		.4byte	.LVL584
 16141 1001 DB070000 		.4byte	.LVL585-1
 16142 1005 0100     		.2byte	0x1
 16143 1007 52       		.byte	0x52
 16144 1008 F0070000 		.4byte	.LVL591
 16145 100c F5070000 		.4byte	.LVL592-1
 16146 1010 0100     		.2byte	0x1
 16147 1012 52       		.byte	0x52
 16148 1013 F8070000 		.4byte	.LVL593
 16149 1017 05080000 		.4byte	.LVL594-1
 16150 101b 0100     		.2byte	0x1
 16151 101d 52       		.byte	0x52
 16152 101e 0E080000 		.4byte	.LVL596
 16153 1022 13080000 		.4byte	.LVL597-1
 16154 1026 0100     		.2byte	0x1
 16155 1028 52       		.byte	0x52
 16156 1029 16080000 		.4byte	.LVL598
 16157 102d 1B080000 		.4byte	.LVL599-1
 16158 1031 0100     		.2byte	0x1
 16159 1033 52       		.byte	0x52
 16160 1034 1E080000 		.4byte	.LVL600
 16161 1038 20080000 		.4byte	.LVL601
 16162 103c 0200     		.2byte	0x2
 16163 103e 30       		.byte	0x30
 16164 103f 9F       		.byte	0x9f
 16165 1040 20080000 		.4byte	.LVL601
 16166 1044 2A080000 		.4byte	.LVL602
 16167 1048 0100     		.2byte	0x1
 16168 104a 53       		.byte	0x53
 16169 104b 2A080000 		.4byte	.LVL602
 16170 104f 34080000 		.4byte	.LVL603
 16171 1053 0300     		.2byte	0x3
 16172 1055 73       		.byte	0x73
 16173 1056 30       		.sleb128 48
ARM GAS  C:\Users\Helon\AppData\Local\Temp\ccys0XsA.s 			page 343


 16174 1057 9F       		.byte	0x9f
 16175 1058 34080000 		.4byte	.LVL603
 16176 105c 3F080000 		.4byte	.LVL604-1
 16177 1060 0200     		.2byte	0x2
 16178 1062 75       		.byte	0x75
 16179 1063 09       		.sleb128 9
 16180 1064 5C080000 		.4byte	.LVL610
 16181 1068 61080000 		.4byte	.LVL611-1
 16182 106c 0200     		.2byte	0x2
 16183 106e 75       		.byte	0x75
 16184 106f 09       		.sleb128 9
 16185 1070 7E080000 		.4byte	.LVL617
 16186 1074 83080000 		.4byte	.LVL618-1
 16187 1078 0200     		.2byte	0x2
 16188 107a 75       		.byte	0x75
 16189 107b 09       		.sleb128 9
 16190 107c A0080000 		.4byte	.LVL624
 16191 1080 A5080000 		.4byte	.LVL625-1
 16192 1084 0200     		.2byte	0x2
 16193 1086 75       		.byte	0x75
 16194 1087 09       		.sleb128 9
 16195 1088 C2080000 		.4byte	.LVL631
 16196 108c C7080000 		.4byte	.LVL632-1
 16197 1090 0200     		.2byte	0x2
 16198 1092 75       		.byte	0x75
 16199 1093 09       		.sleb128 9
 16200 1094 E4080000 		.4byte	.LVL638
 16201 1098 FB080000 		.4byte	.LVL639-1
 16202 109c 0200     		.2byte	0x2
 16203 109e 75       		.byte	0x75
 16204 109f 09       		.sleb128 9
 16205 10a0 FE080000 		.4byte	.LVL640
 16206 10a4 03090000 		.4byte	.LVL641-1
 16207 10a8 0200     		.2byte	0x2
 16208 10aa 75       		.byte	0x75
 16209 10ab 09       		.sleb128 9
 16210 10ac 06090000 		.4byte	.LVL642
 16211 10b0 0B090000 		.4byte	.LVL643-1
 16212 10b4 0200     		.2byte	0x2
 16213 10b6 75       		.byte	0x75
 16214 10b7 09       		.sleb128 9
 16215 10b8 0E090000 		.4byte	.LVL644
 16216 10bc 13090000 		.4byte	.LVL645-1
 16217 10c0 0200     		.2byte	0x2
 16218 10c2 75       		.byte	0x75
 16219 10c3 09       		.sleb128 9
 16220 10c4 16090000 		.4byte	.LVL646
 16221 10c8 1B090000 		.4byte	.LVL647-1
 16222 10cc 0200     		.2byte	0x2
 16223 10ce 75       		.byte	0x75
 16224 10cf 09       		.sleb128 9
 16225 10d0 1E090000 		.4byte	.LVL648
 16226 10d4 23090000 		.4byte	.LVL649-1
 16227 10d8 0100     		.2byte	0x1
 16228 10da 53       		.byte	0x53
 16229 10db 26090000 		.4byte	.LVL650
 16230 10df 28090000 		.4byte	.LVL651
ARM GAS  C:\Users\Helon\AppData\Local\Temp\ccys0XsA.s 			page 344


 16231 10e3 0200     		.2byte	0x2
 16232 10e5 30       		.byte	0x30
 16233 10e6 9F       		.byte	0x9f
 16234 10e7 28090000 		.4byte	.LVL651
 16235 10eb 2E090000 		.4byte	.LVL652
 16236 10ef 0100     		.2byte	0x1
 16237 10f1 53       		.byte	0x53
 16238 10f2 2E090000 		.4byte	.LVL652
 16239 10f6 39090000 		.4byte	.LVL653-1
 16240 10fa 0200     		.2byte	0x2
 16241 10fc 75       		.byte	0x75
 16242 10fd 08       		.sleb128 8
 16243 10fe 3C090000 		.4byte	.LVL654
 16244 1102 41090000 		.4byte	.LVL655-1
 16245 1106 0200     		.2byte	0x2
 16246 1108 75       		.byte	0x75
 16247 1109 08       		.sleb128 8
 16248 110a 44090000 		.4byte	.LVL656
 16249 110e 4A090000 		.4byte	.LVL657
 16250 1112 0100     		.2byte	0x1
 16251 1114 53       		.byte	0x53
 16252 1115 4A090000 		.4byte	.LVL657
 16253 1119 59090000 		.4byte	.LVL658-1
 16254 111d 0200     		.2byte	0x2
 16255 111f 75       		.byte	0x75
 16256 1120 08       		.sleb128 8
 16257 1121 6E090000 		.4byte	.LVL664
 16258 1125 73090000 		.4byte	.LVL665-1
 16259 1129 0200     		.2byte	0x2
 16260 112b 75       		.byte	0x75
 16261 112c 08       		.sleb128 8
 16262 112d 76090000 		.4byte	.LVL666
 16263 1131 7C090000 		.4byte	.LVL668
 16264 1135 0200     		.2byte	0x2
 16265 1137 30       		.byte	0x30
 16266 1138 9F       		.byte	0x9f
 16267 1139 00000000 		.4byte	0
 16268 113d 00000000 		.4byte	0
 16269              	.LLST34:
 16270 1141 B0020000 		.4byte	.LVL440
 16271 1145 E8020000 		.4byte	.LVL447
 16272 1149 0100     		.2byte	0x1
 16273 114b 54       		.byte	0x54
 16274 114c 00000000 		.4byte	0
 16275 1150 00000000 		.4byte	0
 16276              	.LLST35:
 16277 1154 C2020000 		.4byte	.LVL443
 16278 1158 CA020000 		.4byte	.LVL444
 16279 115c 0100     		.2byte	0x1
 16280 115e 50       		.byte	0x50
 16281 115f CA020000 		.4byte	.LVL444
 16282 1163 CD020000 		.4byte	.LVL445-1
 16283 1167 0100     		.2byte	0x1
 16284 1169 52       		.byte	0x52
 16285 116a 00000000 		.4byte	0
 16286 116e 00000000 		.4byte	0
 16287              	.LLST36:
ARM GAS  C:\Users\Helon\AppData\Local\Temp\ccys0XsA.s 			page 345


 16288 1172 62000000 		.4byte	.LVL369
 16289 1176 62010000 		.4byte	.LVL392
 16290 117a 0200     		.2byte	0x2
 16291 117c 30       		.byte	0x30
 16292 117d 9F       		.byte	0x9f
 16293 117e 62010000 		.4byte	.LVL392
 16294 1182 68010000 		.4byte	.LVL393
 16295 1186 0100     		.2byte	0x1
 16296 1188 50       		.byte	0x50
 16297 1189 70010000 		.4byte	.LVL395
 16298 118d 72010000 		.4byte	.LVL396
 16299 1191 0100     		.2byte	0x1
 16300 1193 50       		.byte	0x50
 16301 1194 7A010000 		.4byte	.LVL398
 16302 1198 1E020000 		.4byte	.LVL416
 16303 119c 0200     		.2byte	0x2
 16304 119e 30       		.byte	0x30
 16305 119f 9F       		.byte	0x9f
 16306 11a0 1E020000 		.4byte	.LVL416
 16307 11a4 26020000 		.4byte	.LVL417
 16308 11a8 0100     		.2byte	0x1
 16309 11aa 50       		.byte	0x50
 16310 11ab 3C020000 		.4byte	.LVL420
 16311 11af 3E020000 		.4byte	.LVL421
 16312 11b3 0100     		.2byte	0x1
 16313 11b5 50       		.byte	0x50
 16314 11b6 44020000 		.4byte	.LVL423
 16315 11ba 26040000 		.4byte	.LVL468
 16316 11be 0200     		.2byte	0x2
 16317 11c0 30       		.byte	0x30
 16318 11c1 9F       		.byte	0x9f
 16319 11c2 26040000 		.4byte	.LVL468
 16320 11c6 2C040000 		.4byte	.LVL469
 16321 11ca 0100     		.2byte	0x1
 16322 11cc 50       		.byte	0x50
 16323 11cd 32040000 		.4byte	.LVL471
 16324 11d1 34040000 		.4byte	.LVL472
 16325 11d5 0100     		.2byte	0x1
 16326 11d7 50       		.byte	0x50
 16327 11d8 3A040000 		.4byte	.LVL474
 16328 11dc 06050000 		.4byte	.LVL499
 16329 11e0 0200     		.2byte	0x2
 16330 11e2 30       		.byte	0x30
 16331 11e3 9F       		.byte	0x9f
 16332 11e4 08050000 		.4byte	.LVL500
 16333 11e8 FC050000 		.4byte	.LVL525
 16334 11ec 0200     		.2byte	0x2
 16335 11ee 30       		.byte	0x30
 16336 11ef 9F       		.byte	0x9f
 16337 11f0 FC050000 		.4byte	.LVL525
 16338 11f4 04060000 		.4byte	.LVL526
 16339 11f8 0100     		.2byte	0x1
 16340 11fa 50       		.byte	0x50
 16341 11fb 44060000 		.4byte	.LVL536
 16342 11ff 46060000 		.4byte	.LVL537
 16343 1203 0100     		.2byte	0x1
 16344 1205 50       		.byte	0x50
ARM GAS  C:\Users\Helon\AppData\Local\Temp\ccys0XsA.s 			page 346


 16345 1206 56060000 		.4byte	.LVL540
 16346 120a D2060000 		.4byte	.LVL553
 16347 120e 0200     		.2byte	0x2
 16348 1210 30       		.byte	0x30
 16349 1211 9F       		.byte	0x9f
 16350 1212 D2060000 		.4byte	.LVL553
 16351 1216 E0060000 		.4byte	.LVL554
 16352 121a 0100     		.2byte	0x1
 16353 121c 50       		.byte	0x50
 16354 121d E6060000 		.4byte	.LVL556
 16355 1221 DC070000 		.4byte	.LVL585
 16356 1225 0200     		.2byte	0x2
 16357 1227 30       		.byte	0x30
 16358 1228 9F       		.byte	0x9f
 16359 1229 DC070000 		.4byte	.LVL585
 16360 122d E2070000 		.4byte	.LVL586
 16361 1231 0100     		.2byte	0x1
 16362 1233 50       		.byte	0x50
 16363 1234 E8070000 		.4byte	.LVL588
 16364 1238 EA070000 		.4byte	.LVL589
 16365 123c 0100     		.2byte	0x1
 16366 123e 50       		.byte	0x50
 16367 123f F0070000 		.4byte	.LVL591
 16368 1243 40080000 		.4byte	.LVL604
 16369 1247 0200     		.2byte	0x2
 16370 1249 30       		.byte	0x30
 16371 124a 9F       		.byte	0x9f
 16372 124b 40080000 		.4byte	.LVL604
 16373 124f 46080000 		.4byte	.LVL605
 16374 1253 0100     		.2byte	0x1
 16375 1255 50       		.byte	0x50
 16376 1256 54080000 		.4byte	.LVL607
 16377 125a 56080000 		.4byte	.LVL608
 16378 125e 0100     		.2byte	0x1
 16379 1260 50       		.byte	0x50
 16380 1261 5C080000 		.4byte	.LVL610
 16381 1265 62080000 		.4byte	.LVL611
 16382 1269 0200     		.2byte	0x2
 16383 126b 30       		.byte	0x30
 16384 126c 9F       		.byte	0x9f
 16385 126d 62080000 		.4byte	.LVL611
 16386 1271 68080000 		.4byte	.LVL612
 16387 1275 0100     		.2byte	0x1
 16388 1277 50       		.byte	0x50
 16389 1278 76080000 		.4byte	.LVL614
 16390 127c 78080000 		.4byte	.LVL615
 16391 1280 0100     		.2byte	0x1
 16392 1282 50       		.byte	0x50
 16393 1283 7E080000 		.4byte	.LVL617
 16394 1287 84080000 		.4byte	.LVL618
 16395 128b 0200     		.2byte	0x2
 16396 128d 30       		.byte	0x30
 16397 128e 9F       		.byte	0x9f
 16398 128f 84080000 		.4byte	.LVL618
 16399 1293 8A080000 		.4byte	.LVL619
 16400 1297 0100     		.2byte	0x1
 16401 1299 50       		.byte	0x50
ARM GAS  C:\Users\Helon\AppData\Local\Temp\ccys0XsA.s 			page 347


 16402 129a 98080000 		.4byte	.LVL621
 16403 129e 9A080000 		.4byte	.LVL622
 16404 12a2 0100     		.2byte	0x1
 16405 12a4 50       		.byte	0x50
 16406 12a5 A0080000 		.4byte	.LVL624
 16407 12a9 A6080000 		.4byte	.LVL625
 16408 12ad 0200     		.2byte	0x2
 16409 12af 30       		.byte	0x30
 16410 12b0 9F       		.byte	0x9f
 16411 12b1 A6080000 		.4byte	.LVL625
 16412 12b5 AC080000 		.4byte	.LVL626
 16413 12b9 0100     		.2byte	0x1
 16414 12bb 50       		.byte	0x50
 16415 12bc BA080000 		.4byte	.LVL628
 16416 12c0 BC080000 		.4byte	.LVL629
 16417 12c4 0100     		.2byte	0x1
 16418 12c6 50       		.byte	0x50
 16419 12c7 C2080000 		.4byte	.LVL631
 16420 12cb C8080000 		.4byte	.LVL632
 16421 12cf 0200     		.2byte	0x2
 16422 12d1 30       		.byte	0x30
 16423 12d2 9F       		.byte	0x9f
 16424 12d3 C8080000 		.4byte	.LVL632
 16425 12d7 CE080000 		.4byte	.LVL633
 16426 12db 0100     		.2byte	0x1
 16427 12dd 50       		.byte	0x50
 16428 12de DC080000 		.4byte	.LVL635
 16429 12e2 DE080000 		.4byte	.LVL636
 16430 12e6 0100     		.2byte	0x1
 16431 12e8 50       		.byte	0x50
 16432 12e9 E4080000 		.4byte	.LVL638
 16433 12ed 5A090000 		.4byte	.LVL658
 16434 12f1 0200     		.2byte	0x2
 16435 12f3 30       		.byte	0x30
 16436 12f4 9F       		.byte	0x9f
 16437 12f5 5A090000 		.4byte	.LVL658
 16438 12f9 60090000 		.4byte	.LVL659
 16439 12fd 0100     		.2byte	0x1
 16440 12ff 50       		.byte	0x50
 16441 1300 66090000 		.4byte	.LVL661
 16442 1304 68090000 		.4byte	.LVL662
 16443 1308 0100     		.2byte	0x1
 16444 130a 50       		.byte	0x50
 16445 130b 6E090000 		.4byte	.LVL664
 16446 130f 7C090000 		.4byte	.LVL668
 16447 1313 0200     		.2byte	0x2
 16448 1315 30       		.byte	0x30
 16449 1316 9F       		.byte	0x9f
 16450 1317 00000000 		.4byte	0
 16451 131b 00000000 		.4byte	0
 16452              	.LLST37:
 16453 131f 62000000 		.4byte	.LVL369
 16454 1323 7E070000 		.4byte	.LVL568
 16455 1327 0200     		.2byte	0x2
 16456 1329 30       		.byte	0x30
 16457 132a 9F       		.byte	0x9f
 16458 132b 7E070000 		.4byte	.LVL568
ARM GAS  C:\Users\Helon\AppData\Local\Temp\ccys0XsA.s 			page 348


 16459 132f 86070000 		.4byte	.LVL569
 16460 1333 0100     		.2byte	0x1
 16461 1335 53       		.byte	0x53
 16462 1336 C4070000 		.4byte	.LVL583
 16463 133a 7C090000 		.4byte	.LVL668
 16464 133e 0200     		.2byte	0x2
 16465 1340 30       		.byte	0x30
 16466 1341 9F       		.byte	0x9f
 16467 1342 00000000 		.4byte	0
 16468 1346 00000000 		.4byte	0
 16469              	.LLST38:
 16470 134a 00000000 		.4byte	.LVL669
 16471 134e 21000000 		.4byte	.LVL675-1
 16472 1352 0100     		.2byte	0x1
 16473 1354 50       		.byte	0x50
 16474 1355 21000000 		.4byte	.LVL675-1
 16475 1359 4C030000 		.4byte	.LFE48
 16476 135d 0400     		.2byte	0x4
 16477 135f F3       		.byte	0xf3
 16478 1360 01       		.uleb128 0x1
 16479 1361 50       		.byte	0x50
 16480 1362 9F       		.byte	0x9f
 16481 1363 00000000 		.4byte	0
 16482 1367 00000000 		.4byte	0
 16483              	.LLST39:
 16484 136b 0C000000 		.4byte	.LVL670
 16485 136f DE010000 		.4byte	.LVL704
 16486 1373 0200     		.2byte	0x2
 16487 1375 30       		.byte	0x30
 16488 1376 9F       		.byte	0x9f
 16489 1377 E4010000 		.4byte	.LVL706
 16490 137b EA010000 		.4byte	.LVL707
 16491 137f 0100     		.2byte	0x1
 16492 1381 53       		.byte	0x53
 16493 1382 EA010000 		.4byte	.LVL707
 16494 1386 F0010000 		.4byte	.LVL708
 16495 138a 0300     		.2byte	0x3
 16496 138c 73       		.byte	0x73
 16497 138d 30       		.sleb128 48
 16498 138e 9F       		.byte	0x9f
 16499 138f F0010000 		.4byte	.LVL708
 16500 1393 F2010000 		.4byte	.LVL709
 16501 1397 0100     		.2byte	0x1
 16502 1399 50       		.byte	0x50
 16503 139a 08020000 		.4byte	.LVL715
 16504 139e 0D020000 		.4byte	.LVL716-1
 16505 13a2 0300     		.2byte	0x3
 16506 13a4 73       		.byte	0x73
 16507 13a5 30       		.sleb128 48
 16508 13a6 9F       		.byte	0x9f
 16509 13a7 50020000 		.4byte	.LVL730
 16510 13ab 56020000 		.4byte	.LVL732
 16511 13af 0200     		.2byte	0x2
 16512 13b1 30       		.byte	0x30
 16513 13b2 9F       		.byte	0x9f
 16514 13b3 56020000 		.4byte	.LVL732
 16515 13b7 84020000 		.4byte	.LVL735
ARM GAS  C:\Users\Helon\AppData\Local\Temp\ccys0XsA.s 			page 349


 16516 13bb 0100     		.2byte	0x1
 16517 13bd 50       		.byte	0x50
 16518 13be 84020000 		.4byte	.LVL735
 16519 13c2 87020000 		.4byte	.LVL736-1
 16520 13c6 0200     		.2byte	0x2
 16521 13c8 73       		.byte	0x73
 16522 13c9 1C       		.sleb128 28
 16523 13ca A4020000 		.4byte	.LVL737
 16524 13ce EC020000 		.4byte	.LVL739
 16525 13d2 0200     		.2byte	0x2
 16526 13d4 30       		.byte	0x30
 16527 13d5 9F       		.byte	0x9f
 16528 13d6 F2020000 		.4byte	.LVL741
 16529 13da F6020000 		.4byte	.LVL742
 16530 13de 0200     		.2byte	0x2
 16531 13e0 30       		.byte	0x30
 16532 13e1 9F       		.byte	0x9f
 16533 13e2 00000000 		.4byte	0
 16534 13e6 00000000 		.4byte	0
 16535              	.LLST40:
 16536 13ea 0C000000 		.4byte	.LVL670
 16537 13ee DE010000 		.4byte	.LVL704
 16538 13f2 0200     		.2byte	0x2
 16539 13f4 30       		.byte	0x30
 16540 13f5 9F       		.byte	0x9f
 16541 13f6 DE010000 		.4byte	.LVL704
 16542 13fa 50020000 		.4byte	.LVL730
 16543 13fe 0100     		.2byte	0x1
 16544 1400 55       		.byte	0x55
 16545 1401 50020000 		.4byte	.LVL730
 16546 1405 EC020000 		.4byte	.LVL739
 16547 1409 0200     		.2byte	0x2
 16548 140b 30       		.byte	0x30
 16549 140c 9F       		.byte	0x9f
 16550 140d F2020000 		.4byte	.LVL741
 16551 1411 F6020000 		.4byte	.LVL742
 16552 1415 0200     		.2byte	0x2
 16553 1417 30       		.byte	0x30
 16554 1418 9F       		.byte	0x9f
 16555 1419 00000000 		.4byte	0
 16556 141d 00000000 		.4byte	0
 16557              	.LLST41:
 16558 1421 D6010000 		.4byte	.LVL701
 16559 1425 DE010000 		.4byte	.LVL704
 16560 1429 0600     		.2byte	0x6
 16561 142b 0C       		.byte	0xc
 16562 142c A0860100 		.4byte	0x186a0
 16563 1430 9F       		.byte	0x9f
 16564 1431 DE010000 		.4byte	.LVL704
 16565 1435 02020000 		.4byte	.LVL712
 16566 1439 0100     		.2byte	0x1
 16567 143b 54       		.byte	0x54
 16568 143c 02020000 		.4byte	.LVL712
 16569 1440 08020000 		.4byte	.LVL715
 16570 1444 0100     		.2byte	0x1
 16571 1446 50       		.byte	0x50
 16572 1447 08020000 		.4byte	.LVL715
ARM GAS  C:\Users\Helon\AppData\Local\Temp\ccys0XsA.s 			page 350


 16573 144b 50020000 		.4byte	.LVL730
 16574 144f 0100     		.2byte	0x1
 16575 1451 54       		.byte	0x54
 16576 1452 00000000 		.4byte	0
 16577 1456 00000000 		.4byte	0
 16578              	.LLST42:
 16579 145a 98000000 		.4byte	.LVL681
 16580 145e 9C000000 		.4byte	.LVL682
 16581 1462 0200     		.2byte	0x2
 16582 1464 30       		.byte	0x30
 16583 1465 9F       		.byte	0x9f
 16584 1466 9C000000 		.4byte	.LVL682
 16585 146a A4000000 		.4byte	.LVL684
 16586 146e 0100     		.2byte	0x1
 16587 1470 56       		.byte	0x56
 16588 1471 A6000000 		.4byte	.LVL685
 16589 1475 BE010000 		.4byte	.LVL700
 16590 1479 0100     		.2byte	0x1
 16591 147b 56       		.byte	0x56
 16592 147c D6010000 		.4byte	.LVL701
 16593 1480 DE010000 		.4byte	.LVL704
 16594 1484 0200     		.2byte	0x2
 16595 1486 30       		.byte	0x30
 16596 1487 9F       		.byte	0x9f
 16597 1488 DE010000 		.4byte	.LVL704
 16598 148c 04020000 		.4byte	.LVL713
 16599 1490 0100     		.2byte	0x1
 16600 1492 56       		.byte	0x56
 16601 1493 06020000 		.4byte	.LVL714
 16602 1497 50020000 		.4byte	.LVL730
 16603 149b 0100     		.2byte	0x1
 16604 149d 56       		.byte	0x56
 16605 149e 00000000 		.4byte	0
 16606 14a2 00000000 		.4byte	0
 16607              	.LLST43:
 16608 14a6 10000000 		.4byte	.LVL671
 16609 14aa 12000000 		.4byte	.LVL672
 16610 14ae 0300     		.2byte	0x3
 16611 14b0 73       		.byte	0x73
 16612 14b1 7C       		.sleb128 -4
 16613 14b2 9F       		.byte	0x9f
 16614 14b3 12000000 		.4byte	.LVL672
 16615 14b7 14000000 		.4byte	.LVL673
 16616 14bb 0300     		.2byte	0x3
 16617 14bd 73       		.byte	0x73
 16618 14be 78       		.sleb128 -8
 16619 14bf 9F       		.byte	0x9f
 16620 14c0 14000000 		.4byte	.LVL673
 16621 14c4 21000000 		.4byte	.LVL675-1
 16622 14c8 0E00     		.2byte	0xe
 16623 14ca 03       		.byte	0x3
 16624 14cb 00000000 		.4byte	negotiatedMtu
 16625 14cf 94       		.byte	0x94
 16626 14d0 02       		.byte	0x2
 16627 14d1 0A       		.byte	0xa
 16628 14d2 FFFF     		.2byte	0xffff
 16629 14d4 1A       		.byte	0x1a
ARM GAS  C:\Users\Helon\AppData\Local\Temp\ccys0XsA.s 			page 351


 16630 14d5 34       		.byte	0x34
 16631 14d6 1C       		.byte	0x1c
 16632 14d7 9F       		.byte	0x9f
 16633 14d8 00000000 		.4byte	0
 16634 14dc 00000000 		.4byte	0
 16635              	.LLST44:
 16636 14e0 1E000000 		.4byte	.LVL674
 16637 14e4 21000000 		.4byte	.LVL675-1
 16638 14e8 0200     		.2byte	0x2
 16639 14ea 73       		.byte	0x73
 16640 14eb 00       		.sleb128 0
 16641 14ec 21000000 		.4byte	.LVL675-1
 16642 14f0 7A010000 		.4byte	.LVL694
 16643 14f4 0200     		.2byte	0x2
 16644 14f6 74       		.byte	0x74
 16645 14f7 00       		.sleb128 0
 16646 14f8 7A010000 		.4byte	.LVL694
 16647 14fc A2010000 		.4byte	.LVL698
 16648 1500 0200     		.2byte	0x2
 16649 1502 7D       		.byte	0x7d
 16650 1503 00       		.sleb128 0
 16651 1504 A2010000 		.4byte	.LVL698
 16652 1508 DA010000 		.4byte	.LVL702
 16653 150c 0200     		.2byte	0x2
 16654 150e 74       		.byte	0x74
 16655 150f 00       		.sleb128 0
 16656 1510 DA010000 		.4byte	.LVL702
 16657 1514 50020000 		.4byte	.LVL730
 16658 1518 0200     		.2byte	0x2
 16659 151a 7D       		.byte	0x7d
 16660 151b 00       		.sleb128 0
 16661 151c 50020000 		.4byte	.LVL730
 16662 1520 74020000 		.4byte	.LVL734
 16663 1524 0200     		.2byte	0x2
 16664 1526 74       		.byte	0x74
 16665 1527 00       		.sleb128 0
 16666 1528 74020000 		.4byte	.LVL734
 16667 152c A4020000 		.4byte	.LVL737
 16668 1530 0200     		.2byte	0x2
 16669 1532 7D       		.byte	0x7d
 16670 1533 00       		.sleb128 0
 16671 1534 A4020000 		.4byte	.LVL737
 16672 1538 C6020000 		.4byte	.LVL738
 16673 153c 0200     		.2byte	0x2
 16674 153e 74       		.byte	0x74
 16675 153f 00       		.sleb128 0
 16676 1540 C6020000 		.4byte	.LVL738
 16677 1544 F0020000 		.4byte	.LVL740
 16678 1548 0200     		.2byte	0x2
 16679 154a 7D       		.byte	0x7d
 16680 154b 00       		.sleb128 0
 16681 154c F2020000 		.4byte	.LVL741
 16682 1550 F6020000 		.4byte	.LVL742
 16683 1554 0200     		.2byte	0x2
 16684 1556 7D       		.byte	0x7d
 16685 1557 00       		.sleb128 0
 16686 1558 00000000 		.4byte	0
ARM GAS  C:\Users\Helon\AppData\Local\Temp\ccys0XsA.s 			page 352


 16687 155c 00000000 		.4byte	0
 16688              	.LLST45:
 16689 1560 1E000000 		.4byte	.LVL674
 16690 1564 DA000000 		.4byte	.LVL687
 16691 1568 0200     		.2byte	0x2
 16692 156a 30       		.byte	0x30
 16693 156b 9F       		.byte	0x9f
 16694 156c DA000000 		.4byte	.LVL687
 16695 1570 02010000 		.4byte	.LVL688
 16696 1574 0100     		.2byte	0x1
 16697 1576 50       		.byte	0x50
 16698 1577 08010000 		.4byte	.LVL690
 16699 157b 7A010000 		.4byte	.LVL694
 16700 157f 0200     		.2byte	0x2
 16701 1581 30       		.byte	0x30
 16702 1582 9F       		.byte	0x9f
 16703 1583 8E010000 		.4byte	.LVL696
 16704 1587 A2010000 		.4byte	.LVL698
 16705 158b 0100     		.2byte	0x1
 16706 158d 54       		.byte	0x54
 16707 158e A2010000 		.4byte	.LVL698
 16708 1592 20020000 		.4byte	.LVL718
 16709 1596 0200     		.2byte	0x2
 16710 1598 30       		.byte	0x30
 16711 1599 9F       		.byte	0x9f
 16712 159a 20020000 		.4byte	.LVL718
 16713 159e 26020000 		.4byte	.LVL719
 16714 15a2 0100     		.2byte	0x1
 16715 15a4 50       		.byte	0x50
 16716 15a5 2C020000 		.4byte	.LVL721
 16717 15a9 32020000 		.4byte	.LVL722
 16718 15ad 0100     		.2byte	0x1
 16719 15af 50       		.byte	0x50
 16720 15b0 38020000 		.4byte	.LVL724
 16721 15b4 3E020000 		.4byte	.LVL725
 16722 15b8 0100     		.2byte	0x1
 16723 15ba 50       		.byte	0x50
 16724 15bb 44020000 		.4byte	.LVL727
 16725 15bf 4A020000 		.4byte	.LVL728
 16726 15c3 0100     		.2byte	0x1
 16727 15c5 50       		.byte	0x50
 16728 15c6 50020000 		.4byte	.LVL730
 16729 15ca EC020000 		.4byte	.LVL739
 16730 15ce 0200     		.2byte	0x2
 16731 15d0 30       		.byte	0x30
 16732 15d1 9F       		.byte	0x9f
 16733 15d2 00000000 		.4byte	0
 16734 15d6 00000000 		.4byte	0
 16735              	.LLST46:
 16736 15da 26000000 		.4byte	.LVL676
 16737 15de DC010000 		.4byte	.LVL703
 16738 15e2 0100     		.2byte	0x1
 16739 15e4 55       		.byte	0x55
 16740 15e5 50020000 		.4byte	.LVL730
 16741 15e9 72020000 		.4byte	.LVL733
 16742 15ed 0100     		.2byte	0x1
 16743 15ef 55       		.byte	0x55
ARM GAS  C:\Users\Helon\AppData\Local\Temp\ccys0XsA.s 			page 353


 16744 15f0 A4020000 		.4byte	.LVL737
 16745 15f4 EC020000 		.4byte	.LVL739
 16746 15f8 0100     		.2byte	0x1
 16747 15fa 55       		.byte	0x55
 16748 15fb F2020000 		.4byte	.LVL741
 16749 15ff F6020000 		.4byte	.LVL742
 16750 1603 0100     		.2byte	0x1
 16751 1605 55       		.byte	0x55
 16752 1606 00000000 		.4byte	0
 16753 160a 00000000 		.4byte	0
 16754              	.LLST47:
 16755 160e 00000000 		.4byte	.LVL743
 16756 1612 08000000 		.4byte	.LVL745
 16757 1616 0100     		.2byte	0x1
 16758 1618 50       		.byte	0x50
 16759 1619 08000000 		.4byte	.LVL745
 16760 161d 1C000000 		.4byte	.LFE53
 16761 1621 0400     		.2byte	0x4
 16762 1623 F3       		.byte	0xf3
 16763 1624 01       		.uleb128 0x1
 16764 1625 50       		.byte	0x50
 16765 1626 9F       		.byte	0x9f
 16766 1627 00000000 		.4byte	0
 16767 162b 00000000 		.4byte	0
 16768              	.LLST48:
 16769 162f 00000000 		.4byte	.LVL743
 16770 1633 0A000000 		.4byte	.LVL746
 16771 1637 0100     		.2byte	0x1
 16772 1639 51       		.byte	0x51
 16773 163a 0A000000 		.4byte	.LVL746
 16774 163e 14000000 		.4byte	.LVL749
 16775 1642 0100     		.2byte	0x1
 16776 1644 55       		.byte	0x55
 16777 1645 14000000 		.4byte	.LVL749
 16778 1649 1C000000 		.4byte	.LFE53
 16779 164d 0100     		.2byte	0x1
 16780 164f 51       		.byte	0x51
 16781 1650 00000000 		.4byte	0
 16782 1654 00000000 		.4byte	0
 16783              	.LLST49:
 16784 1658 00000000 		.4byte	.LVL743
 16785 165c 08000000 		.4byte	.LVL745
 16786 1660 0100     		.2byte	0x1
 16787 1662 52       		.byte	0x52
 16788 1663 08000000 		.4byte	.LVL745
 16789 1667 1A000000 		.4byte	.LVL751
 16790 166b 0100     		.2byte	0x1
 16791 166d 56       		.byte	0x56
 16792 166e 1A000000 		.4byte	.LVL751
 16793 1672 1C000000 		.4byte	.LFE53
 16794 1676 0100     		.2byte	0x1
 16795 1678 50       		.byte	0x50
 16796 1679 00000000 		.4byte	0
 16797 167d 00000000 		.4byte	0
 16798              	.LLST50:
 16799 1681 04000000 		.4byte	.LVL744
 16800 1685 08000000 		.4byte	.LVL745
ARM GAS  C:\Users\Helon\AppData\Local\Temp\ccys0XsA.s 			page 354


 16801 1689 0200     		.2byte	0x2
 16802 168b 30       		.byte	0x30
 16803 168c 9F       		.byte	0x9f
 16804 168d 08000000 		.4byte	.LVL745
 16805 1691 1A000000 		.4byte	.LVL750
 16806 1695 0100     		.2byte	0x1
 16807 1697 54       		.byte	0x54
 16808 1698 00000000 		.4byte	0
 16809 169c 00000000 		.4byte	0
 16810              		.section	.debug_aranges,"",%progbits
 16811 0000 AC000000 		.4byte	0xac
 16812 0004 0200     		.2byte	0x2
 16813 0006 00000000 		.4byte	.Ldebug_info0
 16814 000a 04       		.byte	0x4
 16815 000b 00       		.byte	0
 16816 000c 0000     		.2byte	0
 16817 000e 0000     		.2byte	0
 16818 0010 00000000 		.4byte	.LFB35
 16819 0014 E8020000 		.4byte	.LFE35-.LFB35
 16820 0018 00000000 		.4byte	.LFB45
 16821 001c 3C000000 		.4byte	.LFE45-.LFB45
 16822 0020 00000000 		.4byte	.LFB36
 16823 0024 80000000 		.4byte	.LFE36-.LFB36
 16824 0028 00000000 		.4byte	.LFB37
 16825 002c 02000000 		.4byte	.LFE37-.LFB37
 16826 0030 00000000 		.4byte	.LFB38
 16827 0034 24000000 		.4byte	.LFE38-.LFB38
 16828 0038 00000000 		.4byte	.LFB40
 16829 003c 02000000 		.4byte	.LFE40-.LFB40
 16830 0040 00000000 		.4byte	.LFB41
 16831 0044 02000000 		.4byte	.LFE41-.LFB41
 16832 0048 00000000 		.4byte	.LFB42
 16833 004c 1C000000 		.4byte	.LFE42-.LFB42
 16834 0050 00000000 		.4byte	.LFB39
 16835 0054 48000000 		.4byte	.LFE39-.LFB39
 16836 0058 00000000 		.4byte	.LFB44
 16837 005c 74000000 		.4byte	.LFE44-.LFB44
 16838 0060 00000000 		.4byte	.LFB46
 16839 0064 34000000 		.4byte	.LFE46-.LFB46
 16840 0068 00000000 		.4byte	.LFB47
 16841 006c 40000000 		.4byte	.LFE47-.LFB47
 16842 0070 00000000 		.4byte	.LFB49
 16843 0074 00020000 		.4byte	.LFE49-.LFB49
 16844 0078 00000000 		.4byte	.LFB50
 16845 007c E4030000 		.4byte	.LFE50-.LFB50
 16846 0080 00000000 		.4byte	.LFB51
 16847 0084 6C010000 		.4byte	.LFE51-.LFB51
 16848 0088 00000000 		.4byte	.LFB52
 16849 008c 70000000 		.4byte	.LFE52-.LFB52
 16850 0090 00000000 		.4byte	.LFB43
 16851 0094 F0090000 		.4byte	.LFE43-.LFB43
 16852 0098 00000000 		.4byte	.LFB48
 16853 009c 4C030000 		.4byte	.LFE48-.LFB48
 16854 00a0 00000000 		.4byte	.LFB53
 16855 00a4 1C000000 		.4byte	.LFE53-.LFB53
 16856 00a8 00000000 		.4byte	0
 16857 00ac 00000000 		.4byte	0
ARM GAS  C:\Users\Helon\AppData\Local\Temp\ccys0XsA.s 			page 355


 16858              		.section	.debug_ranges,"",%progbits
 16859              	.Ldebug_ranges0:
 16860 0000 00000000 		.4byte	.LFB35
 16861 0004 E8020000 		.4byte	.LFE35
 16862 0008 00000000 		.4byte	.LFB45
 16863 000c 3C000000 		.4byte	.LFE45
 16864 0010 00000000 		.4byte	.LFB36
 16865 0014 80000000 		.4byte	.LFE36
 16866 0018 00000000 		.4byte	.LFB37
 16867 001c 02000000 		.4byte	.LFE37
 16868 0020 00000000 		.4byte	.LFB38
 16869 0024 24000000 		.4byte	.LFE38
 16870 0028 00000000 		.4byte	.LFB40
 16871 002c 02000000 		.4byte	.LFE40
 16872 0030 00000000 		.4byte	.LFB41
 16873 0034 02000000 		.4byte	.LFE41
 16874 0038 00000000 		.4byte	.LFB42
 16875 003c 1C000000 		.4byte	.LFE42
 16876 0040 00000000 		.4byte	.LFB39
 16877 0044 48000000 		.4byte	.LFE39
 16878 0048 00000000 		.4byte	.LFB44
 16879 004c 74000000 		.4byte	.LFE44
 16880 0050 00000000 		.4byte	.LFB46
 16881 0054 34000000 		.4byte	.LFE46
 16882 0058 00000000 		.4byte	.LFB47
 16883 005c 40000000 		.4byte	.LFE47
 16884 0060 00000000 		.4byte	.LFB49
 16885 0064 00020000 		.4byte	.LFE49
 16886 0068 00000000 		.4byte	.LFB50
 16887 006c E4030000 		.4byte	.LFE50
 16888 0070 00000000 		.4byte	.LFB51
 16889 0074 6C010000 		.4byte	.LFE51
 16890 0078 00000000 		.4byte	.LFB52
 16891 007c 70000000 		.4byte	.LFE52
 16892 0080 00000000 		.4byte	.LFB43
 16893 0084 F0090000 		.4byte	.LFE43
 16894 0088 00000000 		.4byte	.LFB48
 16895 008c 4C030000 		.4byte	.LFE48
 16896 0090 00000000 		.4byte	.LFB53
 16897 0094 1C000000 		.4byte	.LFE53
 16898 0098 00000000 		.4byte	0
 16899 009c 00000000 		.4byte	0
 16900              		.section	.debug_line,"",%progbits
 16901              	.Ldebug_line0:
 16902 0000 AB0A0000 		.section	.debug_str,"MS",%progbits,1
 16902      02009803 
 16902      00000201 
 16902      FB0E0D00 
 16902      01010101 
 16903              	.LASF533:
 16904 0000 74784275 		.ascii	"txBuffer\000"
 16904      66666572 
 16904      00
 16905              	.LASF556:
 16906 0009 41445644 		.ascii	"ADVD\000"
 16906      00
 16907              	.LASF723:
ARM GAS  C:\Users\Helon\AppData\Local\Temp\ccys0XsA.s 			page 356


 16908 000e 4379426C 		.ascii	"CyBle_GapcConnectDevice\000"
 16908      655F4761 
 16908      7063436F 
 16908      6E6E6563 
 16908      74446576 
 16909              	.LASF659:
 16910 0026 5278466C 		.ascii	"RxFlag\000"
 16910      616700
 16911              	.LASF14:
 16912 002d 696E7438 		.ascii	"int8_t\000"
 16912      5F7400
 16913              	.LASF543:
 16914 0034 656E6162 		.ascii	"enableByteMode\000"
 16914      6C654279 
 16914      74654D6F 
 16914      646500
 16915              	.LASF413:
 16916 0043 4359424C 		.ascii	"CYBLE_EVT_HTSS_NOTIFICATION_DISABLED\000"
 16916      455F4556 
 16916      545F4854 
 16916      53535F4E 
 16916      4F544946 
 16917              	.LASF166:
 16918 0068 4359424C 		.ascii	"CYBLE_GAPC_SCAN_RSP\000"
 16918      455F4741 
 16918      50435F53 
 16918      43414E5F 
 16918      52535000 
 16919              	.LASF205:
 16920 007c 7363616E 		.ascii	"scanRspData\000"
 16920      52737044 
 16920      61746100 
 16921              	.LASF29:
 16922 0088 73697A65 		.ascii	"size_t\000"
 16922      5F7400
 16923              	.LASF30:
 16924 008f 73697A65 		.ascii	"sizetype\000"
 16924      74797065 
 16924      00
 16925              	.LASF301:
 16926 0098 4359424C 		.ascii	"CYBLE_EVT_BCSC_READ_CHAR_RESPONSE\000"
 16926      455F4556 
 16926      545F4243 
 16926      53435F52 
 16926      4541445F 
 16927              	.LASF241:
 16928 00ba 4359424C 		.ascii	"CYBLE_GATTS_HANDLE_VALUE_NTF_T\000"
 16928      455F4741 
 16928      5454535F 
 16928      48414E44 
 16928      4C455F56 
 16929              	.LASF569:
 16930 00d9 41445653 		.ascii	"ADVS\000"
 16930      00
 16931              	.LASF324:
 16932 00de 4359424C 		.ascii	"CYBLE_EVT_CGMSC_INDICATION\000"
 16932      455F4556 
ARM GAS  C:\Users\Helon\AppData\Local\Temp\ccys0XsA.s 			page 357


 16932      545F4347 
 16932      4D53435F 
 16932      494E4449 
 16933              	.LASF342:
 16934 00f9 4359424C 		.ascii	"CYBLE_EVT_CPSC_READ_DESCR_RESPONSE\000"
 16934      455F4556 
 16934      545F4350 
 16934      53435F52 
 16934      4541445F 
 16935              	.LASF190:
 16936 011c 656B6579 		.ascii	"ekeySize\000"
 16936      53697A65 
 16936      00
 16937              	.LASF461:
 16938 0125 4359424C 		.ascii	"CYBLE_EVT_RTUSS_WRITE_CHAR_CMD\000"
 16938      455F4556 
 16938      545F5254 
 16938      5553535F 
 16938      57524954 
 16939              	.LASF712:
 16940 0144 54696D65 		.ascii	"TimerInterrupt_StartEx\000"
 16940      72496E74 
 16940      65727275 
 16940      70745F53 
 16940      74617274 
 16941              	.LASF495:
 16942 015b 4359424C 		.ascii	"CYBLE_EVT_WPTSC_NOTIFICATION\000"
 16942      455F4556 
 16942      545F5750 
 16942      5453435F 
 16942      4E4F5449 
 16943              	.LASF632:
 16944 0178 72616E67 		.ascii	"range\000"
 16944      6500
 16945              	.LASF501:
 16946 017e 4359424C 		.ascii	"CYBLE_EVT_WSSS_INDICATION_ENABLED\000"
 16946      455F4556 
 16946      545F5753 
 16946      53535F49 
 16946      4E444943 
 16947              	.LASF340:
 16948 01a0 4359424C 		.ascii	"CYBLE_EVT_CPSC_READ_CHAR_RESPONSE\000"
 16948      455F4556 
 16948      545F4350 
 16948      53435F52 
 16948      4541445F 
 16949              	.LASF306:
 16950 01c2 4359424C 		.ascii	"CYBLE_EVT_BLSS_INDICATION_CONFIRMED\000"
 16950      455F4556 
 16950      545F424C 
 16950      53535F49 
 16950      4E444943 
 16951              	.LASF621:
 16952 01e6 4164764D 		.ascii	"AdvMax\000"
 16952      617800
 16953              	.LASF644:
 16954 01ed 5F777269 		.ascii	"_write\000"
ARM GAS  C:\Users\Helon\AppData\Local\Temp\ccys0XsA.s 			page 358


 16954      746500
 16955              	.LASF353:
 16956 01f4 4359424C 		.ascii	"CYBLE_EVT_CSCSC_READ_CHAR_RESPONSE\000"
 16956      455F4556 
 16956      545F4353 
 16956      4353435F 
 16956      52454144 
 16957              	.LASF590:
 16958 0217 4C6F7750 		.ascii	"LowPowerManagement\000"
 16958      6F776572 
 16958      4D616E61 
 16958      67656D65 
 16958      6E7400
 16959              	.LASF647:
 16960 022a 6379426C 		.ascii	"cyBle_authInfo\000"
 16960      655F6175 
 16960      7468496E 
 16960      666F00
 16961              	.LASF329:
 16962 0239 4359424C 		.ascii	"CYBLE_EVT_CGMSC_WRITE_DESCR_RESPONSE\000"
 16962      455F4556 
 16962      545F4347 
 16962      4D53435F 
 16962      57524954 
 16963              	.LASF384:
 16964 025e 4359424C 		.ascii	"CYBLE_EVT_GLSS_NOTIFICATION_DISABLED\000"
 16964      455F4556 
 16964      545F474C 
 16964      53535F4E 
 16964      4F544946 
 16965              	.LASF582:
 16966 0283 6576656E 		.ascii	"eventParam\000"
 16966      74506172 
 16966      616D00
 16967              	.LASF311:
 16968 028e 4359424C 		.ascii	"CYBLE_EVT_BLSC_READ_CHAR_RESPONSE\000"
 16968      455F4556 
 16968      545F424C 
 16968      53435F52 
 16968      4541445F 
 16969              	.LASF44:
 16970 02b0 4359424C 		.ascii	"CYBLE_EVT_GAP_DEVICE_CONNECTED\000"
 16970      455F4556 
 16970      545F4741 
 16970      505F4445 
 16970      56494345 
 16971              	.LASF171:
 16972 02cf 4359424C 		.ascii	"CYBLE_GAP_IOCAP_NOINPUT_NOOUTPUT\000"
 16972      455F4741 
 16972      505F494F 
 16972      4341505F 
 16972      4E4F494E 
 16973              	.LASF727:
 16974 02f0 4379536F 		.ascii	"CySoftwareReset\000"
 16974      66747761 
 16974      72655265 
 16974      73657400 
ARM GAS  C:\Users\Helon\AppData\Local\Temp\ccys0XsA.s 			page 359


 16975              	.LASF51:
 16976 0300 4359424C 		.ascii	"CYBLE_EVT_GATT_CONNECT_IND\000"
 16976      455F4556 
 16976      545F4741 
 16976      54545F43 
 16976      4F4E4E45 
 16977              	.LASF389:
 16978 031b 4359424C 		.ascii	"CYBLE_EVT_GLSC_WRITE_CHAR_RESPONSE\000"
 16978      455F4556 
 16978      545F474C 
 16978      53435F57 
 16978      52495445 
 16979              	.LASF126:
 16980 033e 4359424C 		.ascii	"CYBLE_BLESS_STATE_ECO_ON\000"
 16980      455F424C 
 16980      4553535F 
 16980      53544154 
 16980      455F4543 
 16981              	.LASF21:
 16982 0357 75696E74 		.ascii	"uint32\000"
 16982      333200
 16983              	.LASF696:
 16984 035e 4379426C 		.ascii	"CyBle_GetBleSsState\000"
 16984      655F4765 
 16984      74426C65 
 16984      53735374 
 16984      61746500 
 16985              	.LASF740:
 16986 0372 4379426C 		.ascii	"CyBle_GapSetIoCap\000"
 16986      655F4761 
 16986      70536574 
 16986      496F4361 
 16986      7000
 16987              	.LASF624:
 16988 0384 53747241 		.ascii	"StrAdvData\000"
 16988      64764461 
 16988      746100
 16989              	.LASF173:
 16990 038f 4359424C 		.ascii	"CYBLE_GAP_IOCAP_T\000"
 16990      455F4741 
 16990      505F494F 
 16990      4341505F 
 16990      5400
 16991              	.LASF129:
 16992 03a1 4359424C 		.ascii	"CYBLE_BLESS_STATE_HIBERNATE\000"
 16992      455F424C 
 16992      4553535F 
 16992      53544154 
 16992      455F4849 
 16993              	.LASF704:
 16994 03bd 55415254 		.ascii	"UART_rx_wake_ClearInterrupt\000"
 16994      5F72785F 
 16994      77616B65 
 16994      5F436C65 
 16994      6172496E 
 16995              	.LASF460:
 16996 03d9 4359424C 		.ascii	"CYBLE_EVT_RSCSC_WRITE_DESCR_RESPONSE\000"
ARM GAS  C:\Users\Helon\AppData\Local\Temp\ccys0XsA.s 			page 360


 16996      455F4556 
 16996      545F5253 
 16996      4353435F 
 16996      57524954 
 16997              	.LASF299:
 16998 03fe 4359424C 		.ascii	"CYBLE_EVT_BCSS_INDICATION_CONFIRMED\000"
 16998      455F4556 
 16998      545F4243 
 16998      53535F49 
 16998      4E444943 
 16999              	.LASF300:
 17000 0422 4359424C 		.ascii	"CYBLE_EVT_BCSC_INDICATION\000"
 17000      455F4556 
 17000      545F4243 
 17000      53435F49 
 17000      4E444943 
 17001              	.LASF146:
 17002 043c 626C6550 		.ascii	"blePwrLevelInDbm\000"
 17002      77724C65 
 17002      76656C49 
 17002      6E44626D 
 17002      00
 17003              	.LASF429:
 17004 044d 4359424C 		.ascii	"CYBLE_EVT_LNSS_INDICATION_DISABLED\000"
 17004      455F4556 
 17004      545F4C4E 
 17004      53535F49 
 17004      4E444943 
 17005              	.LASF361:
 17006 0470 4359424C 		.ascii	"CYBLE_EVT_CTSC_READ_CHAR_RESPONSE\000"
 17006      455F4556 
 17006      545F4354 
 17006      53435F52 
 17006      4541445F 
 17007              	.LASF270:
 17008 0492 4359424C 		.ascii	"CYBLE_EVT_GATTC_SRVC_DISCOVERY_COMPLETE\000"
 17008      455F4556 
 17008      545F4741 
 17008      5454435F 
 17008      53525643 
 17009              	.LASF266:
 17010 04ba 4359424C 		.ascii	"CYBLE_EVT_GATTC_DESCR_DISCOVERY_FAILED\000"
 17010      455F4556 
 17010      545F4741 
 17010      5454435F 
 17010      44455343 
 17011              	.LASF454:
 17012 04e1 4359424C 		.ascii	"CYBLE_EVT_RSCSS_CHAR_WRITE\000"
 17012      455F4556 
 17012      545F5253 
 17012      4353535F 
 17012      43484152 
 17013              	.LASF487:
 17014 04fc 4359424C 		.ascii	"CYBLE_EVT_UDSC_WRITE_DESCR_RESPONSE\000"
 17014      455F4556 
 17014      545F5544 
 17014      53435F57 
ARM GAS  C:\Users\Helon\AppData\Local\Temp\ccys0XsA.s 			page 361


 17014      52495445 
 17015              	.LASF208:
 17016 0520 64697363 		.ascii	"discMode\000"
 17016      4D6F6465 
 17016      00
 17017              	.LASF469:
 17018 0529 4359424C 		.ascii	"CYBLE_EVT_TPSS_NOTIFICATION_ENABLED\000"
 17018      455F4556 
 17018      545F5450 
 17018      53535F4E 
 17018      4F544946 
 17019              	.LASF289:
 17020 054d 4359424C 		.ascii	"CYBLE_EVT_ANSC_READ_DESCR_RESPONSE\000"
 17020      455F4556 
 17020      545F414E 
 17020      53435F52 
 17020      4541445F 
 17021              	.LASF672:
 17022 0570 4B455942 		.ascii	"KEYBOARD\000"
 17022      4F415244 
 17022      00
 17023              	.LASF568:
 17024 0579 53544155 		.ascii	"STAUS\000"
 17024      5300
 17025              	.LASF297:
 17026 057f 4359424C 		.ascii	"CYBLE_EVT_BCSS_INDICATION_ENABLED\000"
 17026      455F4556 
 17026      545F4243 
 17026      53535F49 
 17026      4E444943 
 17027              	.LASF104:
 17028 05a1 4359424C 		.ascii	"CYBLE_ERROR_L2CAP_CONNECTION_ENTITY_NOT_FOUND\000"
 17028      455F4552 
 17028      524F525F 
 17028      4C324341 
 17028      505F434F 
 17029              	.LASF417:
 17030 05cf 4359424C 		.ascii	"CYBLE_EVT_HTSS_CHAR_WRITE\000"
 17030      455F4556 
 17030      545F4854 
 17030      53535F43 
 17030      4841525F 
 17031              	.LASF110:
 17032 05e9 4359424C 		.ascii	"CYBLE_ERROR_MIC_AUTH_FAILED\000"
 17032      455F4552 
 17032      524F525F 
 17032      4D49435F 
 17032      41555448 
 17033              	.LASF513:
 17034 0605 4359424C 		.ascii	"CYBLE_STATE_SCANNING\000"
 17034      455F5354 
 17034      4154455F 
 17034      5343414E 
 17034      4E494E47 
 17035              	.LASF265:
 17036 061a 4359424C 		.ascii	"CYBLE_EVT_GATTC_CHAR_DISCOVERY_FAILED\000"
 17036      455F4556 
ARM GAS  C:\Users\Helon\AppData\Local\Temp\ccys0XsA.s 			page 362


 17036      545F4741 
 17036      5454435F 
 17036      43484152 
 17037              	.LASF600:
 17038 0640 53657269 		.ascii	"SerialData\000"
 17038      616C4461 
 17038      746100
 17039              	.LASF579:
 17040 064b 5363616E 		.ascii	"ScanName\000"
 17040      4E616D65 
 17040      00
 17041              	.LASF530:
 17042 0654 72784275 		.ascii	"rxBufferSize\000"
 17042      66666572 
 17042      53697A65 
 17042      00
 17043              	.LASF753:
 17044 0661 70757473 		.ascii	"puts\000"
 17044      00
 17045              	.LASF25:
 17046 0666 63686172 		.ascii	"char8\000"
 17046      3800
 17047              	.LASF82:
 17048 066c 4359424C 		.ascii	"CYBLE_EVT_L2CAP_CBFC_RX_CREDIT_IND\000"
 17048      455F4556 
 17048      545F4C32 
 17048      4341505F 
 17048      43424643 
 17049              	.LASF518:
 17050 068f 64697265 		.ascii	"direction\000"
 17050      6374696F 
 17050      6E00
 17051              	.LASF232:
 17052 0699 4359424C 		.ascii	"CYBLE_GATT_VALUE_T\000"
 17052      455F4741 
 17052      54545F56 
 17052      414C5545 
 17052      5F5400
 17053              	.LASF347:
 17054 06ac 4359424C 		.ascii	"CYBLE_EVT_CSCSS_INDICATION_ENABLED\000"
 17054      455F4556 
 17054      545F4353 
 17054      4353535F 
 17054      494E4449 
 17055              	.LASF434:
 17056 06cf 4359424C 		.ascii	"CYBLE_EVT_LNSC_INDICATION\000"
 17056      455F4556 
 17056      545F4C4E 
 17056      53435F49 
 17056      4E444943 
 17057              	.LASF150:
 17058 06e9 74797065 		.ascii	"type\000"
 17058      00
 17059              	.LASF722:
 17060 06ee 4379426C 		.ascii	"CyBle_GattcWriteWithoutResponse\000"
 17060      655F4761 
 17060      74746357 
ARM GAS  C:\Users\Helon\AppData\Local\Temp\ccys0XsA.s 			page 363


 17060      72697465 
 17060      57697468 
 17061              	.LASF445:
 17062 070e 4359424C 		.ascii	"CYBLE_EVT_PASSC_READ_CHAR_RESPONSE\000"
 17062      455F4556 
 17062      545F5041 
 17062      5353435F 
 17062      52454144 
 17063              	.LASF185:
 17064 0731 4359424C 		.ascii	"CYBLE_GAP_AUTH_ERROR_AUTHENTICATION_TIMEOUT\000"
 17064      455F4741 
 17064      505F4155 
 17064      54485F45 
 17064      52524F52 
 17065              	.LASF304:
 17066 075d 4359424C 		.ascii	"CYBLE_EVT_BLSS_INDICATION_ENABLED\000"
 17066      455F4556 
 17066      545F424C 
 17066      53535F49 
 17066      4E444943 
 17067              	.LASF182:
 17068 077f 4359424C 		.ascii	"CYBLE_GAP_AUTH_ERROR_UNSPECIFIED_REASON\000"
 17068      455F4741 
 17068      505F4155 
 17068      54485F45 
 17068      52524F52 
 17069              	.LASF310:
 17070 07a7 4359424C 		.ascii	"CYBLE_EVT_BLSC_NOTIFICATION\000"
 17070      455F4556 
 17070      545F424C 
 17070      53435F4E 
 17070      4F544946 
 17071              	.LASF255:
 17072 07c3 4359424C 		.ascii	"CYBLE_CALLBACK_T\000"
 17072      455F4341 
 17072      4C4C4241 
 17072      434B5F54 
 17072      00
 17073              	.LASF352:
 17074 07d4 4359424C 		.ascii	"CYBLE_EVT_CSCSC_INDICATION\000"
 17074      455F4556 
 17074      545F4353 
 17074      4353435F 
 17074      494E4449 
 17075              	.LASF634:
 17076 07ef 4D617374 		.ascii	"Master_Slave_UartHandler\000"
 17076      65725F53 
 17076      6C617665 
 17076      5F556172 
 17076      7448616E 
 17077              	.LASF539:
 17078 0808 7278496E 		.ascii	"rxInterruptMask\000"
 17078      74657272 
 17078      7570744D 
 17078      61736B00 
 17079              	.LASF68:
 17080 0818 4359424C 		.ascii	"CYBLE_EVT_GATTC_HANDLE_VALUE_NTF\000"
ARM GAS  C:\Users\Helon\AppData\Local\Temp\ccys0XsA.s 			page 364


 17080      455F4556 
 17080      545F4741 
 17080      5454435F 
 17080      48414E44 
 17081              	.LASF38:
 17082 0839 4359424C 		.ascii	"CYBLE_EVT_GAP_AUTH_REQ\000"
 17082      455F4556 
 17082      545F4741 
 17082      505F4155 
 17082      54485F52 
 17083              	.LASF22:
 17084 0850 696E7438 		.ascii	"int8\000"
 17084      00
 17085              	.LASF272:
 17086 0855 4359424C 		.ascii	"CYBLE_EVT_GATTC_CHAR_DISCOVERY_COMPLETE\000"
 17086      455F4556 
 17086      545F4741 
 17086      5454435F 
 17086      43484152 
 17087              	.LASF230:
 17088 087d 4359424C 		.ascii	"CYBLE_CONN_HANDLE_T\000"
 17088      455F434F 
 17088      4E4E5F48 
 17088      414E444C 
 17088      455F5400 
 17089              	.LASF339:
 17090 0891 4359424C 		.ascii	"CYBLE_EVT_CPSC_INDICATION\000"
 17090      455F4556 
 17090      545F4350 
 17090      53435F49 
 17090      4E444943 
 17091              	.LASF99:
 17092 08ab 4359424C 		.ascii	"CYBLE_ERROR_BT_ON_NOT_COMPLETED\000"
 17092      455F4552 
 17092      524F525F 
 17092      42545F4F 
 17092      4E5F4E4F 
 17093              	.LASF351:
 17094 08cb 4359424C 		.ascii	"CYBLE_EVT_CSCSC_NOTIFICATION\000"
 17094      455F4556 
 17094      545F4353 
 17094      4353435F 
 17094      4E4F5449 
 17095              	.LASF482:
 17096 08e8 4359424C 		.ascii	"CYBLE_EVT_UDSC_INDICATION\000"
 17096      455F4556 
 17096      545F5544 
 17096      53435F49 
 17096      4E444943 
 17097              	.LASF168:
 17098 0902 4359424C 		.ascii	"CYBLE_GAP_IOCAP_DISPLAY_ONLY\000"
 17098      455F4741 
 17098      505F494F 
 17098      4341505F 
 17098      44495350 
 17099              	.LASF715:
 17100 091f 73747263 		.ascii	"strcmp\000"
ARM GAS  C:\Users\Helon\AppData\Local\Temp\ccys0XsA.s 			page 365


 17100      6D7000
 17101              	.LASF557:
 17102 0926 41445649 		.ascii	"ADVI\000"
 17102      00
 17103              	.LASF315:
 17104 092b 4359424C 		.ascii	"CYBLE_EVT_BMSC_READ_CHAR_RESPONSE\000"
 17104      455F4556 
 17104      545F424D 
 17104      53435F52 
 17104      4541445F 
 17105              	.LASF524:
 17106 094d 656E6162 		.ascii	"enableMedianFilter\000"
 17106      6C654D65 
 17106      6469616E 
 17106      46696C74 
 17106      657200
 17107              	.LASF135:
 17108 0960 4359424C 		.ascii	"CYBLE_LL_PWR_LVL_NEG_3_DBM\000"
 17108      455F4C4C 
 17108      5F505752 
 17108      5F4C564C 
 17108      5F4E4547 
 17109              	.LASF578:
 17110 097b 44657669 		.ascii	"DeviceName\000"
 17110      63654E61 
 17110      6D6500
 17111              	.LASF512:
 17112 0986 4359424C 		.ascii	"CYBLE_STATE_ADVERTISING\000"
 17112      455F5354 
 17112      4154455F 
 17112      41445645 
 17112      52544953 
 17113              	.LASF228:
 17114 099e 62644861 		.ascii	"bdHandle\000"
 17114      6E646C65 
 17114      00
 17115              	.LASF554:
 17116 09a7 4E414D45 		.ascii	"NAME\000"
 17116      00
 17117              	.LASF320:
 17118 09ac 4359424C 		.ascii	"CYBLE_EVT_CGMSS_INDICATION_CONFIRMED\000"
 17118      455F4556 
 17118      545F4347 
 17118      4D53535F 
 17118      494E4449 
 17119              	.LASF1:
 17120 09d1 5F5F7569 		.ascii	"__uint8_t\000"
 17120      6E74385F 
 17120      7400
 17121              	.LASF692:
 17122 09db 4379426C 		.ascii	"CyBle_GapcStopScan\000"
 17122      655F4761 
 17122      70635374 
 17122      6F705363 
 17122      616E00
 17123              	.LASF175:
 17124 09ee 4359424C 		.ascii	"CYBLE_GAP_AUTH_ERROR_PASSKEY_ENTRY_FAILED\000"
ARM GAS  C:\Users\Helon\AppData\Local\Temp\ccys0XsA.s 			page 366


 17124      455F4741 
 17124      505F4155 
 17124      54485F45 
 17124      52524F52 
 17125              	.LASF747:
 17126 0a18 55415254 		.ascii	"UART_UartGetChar\000"
 17126      5F556172 
 17126      74476574 
 17126      43686172 
 17126      00
 17127              	.LASF165:
 17128 0a29 4359424C 		.ascii	"CYBLE_GAPC_NON_CONN_UNDIRECTED_ADV\000"
 17128      455F4741 
 17128      50435F4E 
 17128      4F4E5F43 
 17128      4F4E4E5F 
 17129              	.LASF312:
 17130 0a4c 4359424C 		.ascii	"CYBLE_EVT_BLSC_READ_DESCR_RESPONSE\000"
 17130      455F4556 
 17130      545F424C 
 17130      53435F52 
 17130      4541445F 
 17131              	.LASF133:
 17132 0a6f 4359424C 		.ascii	"CYBLE_LL_PWR_LVL_NEG_12_DBM\000"
 17132      455F4C4C 
 17132      5F505752 
 17132      5F4C564C 
 17132      5F4E4547 
 17133              	.LASF745:
 17134 0a8b 4379426C 		.ascii	"CyBle_GattcWriteCharacteristicValue\000"
 17134      655F4761 
 17134      74746357 
 17134      72697465 
 17134      43686172 
 17135              	.LASF333:
 17136 0aaf 4359424C 		.ascii	"CYBLE_EVT_CPSS_INDICATION_DISABLED\000"
 17136      455F4556 
 17136      545F4350 
 17136      53535F49 
 17136      4E444943 
 17137              	.LASF332:
 17138 0ad2 4359424C 		.ascii	"CYBLE_EVT_CPSS_INDICATION_ENABLED\000"
 17138      455F4556 
 17138      545F4350 
 17138      53535F49 
 17138      4E444943 
 17139              	.LASF431:
 17140 0af4 4359424C 		.ascii	"CYBLE_EVT_LNSS_NOTIFICATION_ENABLED\000"
 17140      455F4556 
 17140      545F4C4E 
 17140      53535F4E 
 17140      4F544946 
 17141              	.LASF682:
 17142 0b18 48616E64 		.ascii	"HandleScanDevices\000"
 17142      6C655363 
 17142      616E4465 
 17142      76696365 
ARM GAS  C:\Users\Helon\AppData\Local\Temp\ccys0XsA.s 			page 367


 17142      7300
 17143              	.LASF245:
 17144 0b2a 4359424C 		.ascii	"CYBLE_GATTC_READ_REQ_T\000"
 17144      455F4741 
 17144      5454435F 
 17144      52454144 
 17144      5F524551 
 17145              	.LASF64:
 17146 0b41 4359424C 		.ascii	"CYBLE_EVT_GATTS_WRITE_CMD_REQ\000"
 17146      455F4556 
 17146      545F4741 
 17146      5454535F 
 17146      57524954 
 17147              	.LASF343:
 17148 0b5f 4359424C 		.ascii	"CYBLE_EVT_CPSC_WRITE_DESCR_RESPONSE\000"
 17148      455F4556 
 17148      545F4350 
 17148      53435F57 
 17148      52495445 
 17149              	.LASF162:
 17150 0b83 4359424C 		.ascii	"CYBLE_GAPC_CONN_UNDIRECTED_ADV\000"
 17150      455F4741 
 17150      50435F43 
 17150      4F4E4E5F 
 17150      554E4449 
 17151              	.LASF8:
 17152 0ba2 6C6F6E67 		.ascii	"long int\000"
 17152      20696E74 
 17152      00
 17153              	.LASF278:
 17154 0bab 4359424C 		.ascii	"CYBLE_EVT_ANCSC_READ_CHAR_RESPONSE\000"
 17154      455F4556 
 17154      545F414E 
 17154      4353435F 
 17154      52454144 
 17155              	.LASF446:
 17156 0bce 4359424C 		.ascii	"CYBLE_EVT_PASSC_WRITE_CHAR_RESPONSE\000"
 17156      455F4556 
 17156      545F5041 
 17156      5353435F 
 17156      57524954 
 17157              	.LASF215:
 17158 0bf2 64617461 		.ascii	"dataLen\000"
 17158      4C656E00 
 17159              	.LASF258:
 17160 0bfa 4359424C 		.ascii	"CYBLE_LONG_TERM_KEY_REQUEST_REPLY\000"
 17160      455F4C4F 
 17160      4E475F54 
 17160      45524D5F 
 17160      4B45595F 
 17161              	.LASF667:
 17162 0c1c 6E65676F 		.ascii	"negotiatedMtu\000"
 17162      74696174 
 17162      65644D74 
 17162      7500
 17163              	.LASF676:
 17164 0c2a 63636364 		.ascii	"cccdNotifFlagSetStruct\000"
ARM GAS  C:\Users\Helon\AppData\Local\Temp\ccys0XsA.s 			page 368


 17164      4E6F7469 
 17164      66466C61 
 17164      67536574 
 17164      53747275 
 17165              	.LASF630:
 17166 0c41 74657374 		.ascii	"test\000"
 17166      00
 17167              	.LASF32:
 17168 0c46 4359424C 		.ascii	"CYBLE_EVT_STACK_ON\000"
 17168      455F4556 
 17168      545F5354 
 17168      41434B5F 
 17168      4F4E00
 17169              	.LASF106:
 17170 0c59 4359424C 		.ascii	"CYBLE_ERROR_L2CAP_PSM_NOT_IN_RANGE\000"
 17170      455F4552 
 17170      524F525F 
 17170      4C324341 
 17170      505F5053 
 17171              	.LASF736:
 17172 0c7c 4379426C 		.ascii	"CyBle_GattcDiscoverAllCharacteristicDescriptors\000"
 17172      655F4761 
 17172      74746344 
 17172      6973636F 
 17172      76657241 
 17173              	.LASF125:
 17174 0cac 4359424C 		.ascii	"CYBLE_BLESS_STATE_SLEEP\000"
 17174      455F424C 
 17174      4553535F 
 17174      53544154 
 17174      455F534C 
 17175              	.LASF379:
 17176 0cc4 4359424C 		.ascii	"CYBLE_EVT_ESSC_WRITE_DESCR_RESPONSE\000"
 17176      455F4556 
 17176      545F4553 
 17176      53435F57 
 17176      52495445 
 17177              	.LASF705:
 17178 0ce8 43795379 		.ascii	"CySysPmSleep\000"
 17178      73506D53 
 17178      6C656570 
 17178      00
 17179              	.LASF658:
 17180 0cf5 72785F69 		.ascii	"rx_isover\000"
 17180      736F7665 
 17180      7200
 17181              	.LASF412:
 17182 0cff 4359424C 		.ascii	"CYBLE_EVT_HTSS_NOTIFICATION_ENABLED\000"
 17182      455F4556 
 17182      545F4854 
 17182      53535F4E 
 17182      4F544946 
 17183              	.LASF178:
 17184 0d23 4359424C 		.ascii	"CYBLE_GAP_AUTH_ERROR_CONFIRM_VALUE_NOT_MATCH\000"
 17184      455F4741 
 17184      505F4155 
 17184      54485F45 
ARM GAS  C:\Users\Helon\AppData\Local\Temp\ccys0XsA.s 			page 369


 17184      52524F52 
 17185              	.LASF114:
 17186 0d50 4359424C 		.ascii	"CYBLE_ERROR_CHAR_IS_NOT_DISCOVERED\000"
 17186      455F4552 
 17186      524F525F 
 17186      43484152 
 17186      5F49535F 
 17187              	.LASF674:
 17188 0d73 5F313073 		.ascii	"_10sIsOver\000"
 17188      49734F76 
 17188      657200
 17189              	.LASF219:
 17190 0d7e 636F6E6E 		.ascii	"connIntvMin\000"
 17190      496E7476 
 17190      4D696E00 
 17191              	.LASF124:
 17192 0d8a 4359424C 		.ascii	"CYBLE_BLESS_STATE_EVENT_CLOSE\000"
 17192      455F424C 
 17192      4553535F 
 17192      53544154 
 17192      455F4556 
 17193              	.LASF235:
 17194 0da8 4359424C 		.ascii	"CYBLE_GATT_HANDLE_VALUE_PAIR_T\000"
 17194      455F4741 
 17194      54545F48 
 17194      414E444C 
 17194      455F5641 
 17195              	.LASF296:
 17196 0dc7 4359424C 		.ascii	"CYBLE_EVT_BASC_WRITE_DESCR_RESPONSE\000"
 17196      455F4556 
 17196      545F4241 
 17196      53435F57 
 17196      52495445 
 17197              	.LASF147:
 17198 0deb 626C6553 		.ascii	"bleSsChId\000"
 17198      73436849 
 17198      6400
 17199              	.LASF695:
 17200 0df5 55415254 		.ascii	"UART_SpiUartGetTxBufferSize\000"
 17200      5F537069 
 17200      55617274 
 17200      47657454 
 17200      78427566 
 17201              	.LASF376:
 17202 0e11 4359424C 		.ascii	"CYBLE_EVT_ESSC_READ_CHAR_RESPONSE\000"
 17202      455F4556 
 17202      545F4553 
 17202      53435F52 
 17202      4541445F 
 17203              	.LASF399:
 17204 0e33 4359424C 		.ascii	"CYBLE_EVT_HIDSC_NOTIFICATION\000"
 17204      455F4556 
 17204      545F4849 
 17204      4453435F 
 17204      4E4F5449 
 17205              	.LASF159:
 17206 0e50 4359424C 		.ascii	"CYBLE_GAPP_NON_CONNECTABLE_UNDIRECTED_ADV\000"
ARM GAS  C:\Users\Helon\AppData\Local\Temp\ccys0XsA.s 			page 370


 17206      455F4741 
 17206      50505F4E 
 17206      4F4E5F43 
 17206      4F4E4E45 
 17207              	.LASF698:
 17208 0e7a 55415254 		.ascii	"UART_Sleep\000"
 17208      5F536C65 
 17208      657000
 17209              	.LASF76:
 17210 0e85 4359424C 		.ascii	"CYBLE_EVT_L2CAP_COMMAND_REJ\000"
 17210      455F4556 
 17210      545F4C32 
 17210      4341505F 
 17210      434F4D4D 
 17211              	.LASF247:
 17212 0ea1 4359424C 		.ascii	"CYBLE_GATTC_WRITE_REQ_T\000"
 17212      455F4741 
 17212      5454435F 
 17212      57524954 
 17212      455F5245 
 17213              	.LASF263:
 17214 0eb9 4359424C 		.ascii	"CYBLE_EVT_GATTC_SRVC_DISCOVERY_FAILED\000"
 17214      455F4556 
 17214      545F4741 
 17214      5454435F 
 17214      53525643 
 17215              	.LASF396:
 17216 0edf 4359424C 		.ascii	"CYBLE_EVT_HIDSS_SUSPEND\000"
 17216      455F4556 
 17216      545F4849 
 17216      4453535F 
 17216      53555350 
 17217              	.LASF107:
 17218 0ef7 4359424C 		.ascii	"CYBLE_ERROR_GATT_DB_INVALID_ATTR_HANDLE\000"
 17218      455F4552 
 17218      524F525F 
 17218      47415454 
 17218      5F44425F 
 17219              	.LASF2:
 17220 0f1f 7369676E 		.ascii	"signed char\000"
 17220      65642063 
 17220      68617200 
 17221              	.LASF132:
 17222 0f2b 4359424C 		.ascii	"CYBLE_LL_PWR_LVL_NEG_18_DBM\000"
 17222      455F4C4C 
 17222      5F505752 
 17222      5F4C564C 
 17222      5F4E4547 
 17223              	.LASF684:
 17224 0f47 4379426C 		.ascii	"CyBle_L2capLeConnectionParamUpdateRequest\000"
 17224      655F4C32 
 17224      6361704C 
 17224      65436F6E 
 17224      6E656374 
 17225              	.LASF15:
 17226 0f71 75696E74 		.ascii	"uint8_t\000"
 17226      385F7400 
ARM GAS  C:\Users\Helon\AppData\Local\Temp\ccys0XsA.s 			page 371


 17227              	.LASF735:
 17228 0f79 4379426C 		.ascii	"CyBle_GapcStartScan\000"
 17228      655F4761 
 17228      70635374 
 17228      61727453 
 17228      63616E00 
 17229              	.LASF677:
 17230 0f8d 636F6E6E 		.ascii	"connParam\000"
 17230      50617261 
 17230      6D00
 17231              	.LASF507:
 17232 0f97 4359424C 		.ascii	"CYBLE_EVT_WSSC_WRITE_DESCR_RESPONSE\000"
 17232      455F4556 
 17232      545F5753 
 17232      53435F57 
 17232      52495445 
 17233              	.LASF295:
 17234 0fbb 4359424C 		.ascii	"CYBLE_EVT_BASC_READ_DESCR_RESPONSE\000"
 17234      455F4556 
 17234      545F4241 
 17234      53435F52 
 17234      4541445F 
 17235              	.LASF643:
 17236 0fde 436F6D6D 		.ascii	"Command_Identify\000"
 17236      616E645F 
 17236      4964656E 
 17236      74696679 
 17236      00
 17237              	.LASF614:
 17238 0fef 53747254 		.ascii	"StrToHex\000"
 17238      6F486578 
 17238      00
 17239              	.LASF711:
 17240 0ff8 54696D65 		.ascii	"Timer_Init\000"
 17240      725F496E 
 17240      697400
 17241              	.LASF34:
 17242 1003 4359424C 		.ascii	"CYBLE_EVT_HARDWARE_ERROR\000"
 17242      455F4556 
 17242      545F4841 
 17242      52445741 
 17242      52455F45 
 17243              	.LASF702:
 17244 101c 55415254 		.ascii	"UART_SpiUartClearRxBuffer\000"
 17244      5F537069 
 17244      55617274 
 17244      436C6561 
 17244      72527842 
 17245              	.LASF88:
 17246 1036 4359424C 		.ascii	"CYBLE_ERROR_OK\000"
 17246      455F4552 
 17246      524F525F 
 17246      4F4B00
 17247              	.LASF145:
 17248 1045 4359424C 		.ascii	"CYBLE_BLESS_PHY_CH_GRP_ID_T\000"
 17248      455F424C 
 17248      4553535F 
ARM GAS  C:\Users\Helon\AppData\Local\Temp\ccys0XsA.s 			page 372


 17248      5048595F 
 17248      43485F47 
 17249              	.LASF542:
 17250 1061 74785472 		.ascii	"txTriggerLevel\000"
 17250      69676765 
 17250      724C6576 
 17250      656C00
 17251              	.LASF214:
 17252 1070 70656572 		.ascii	"peerBdAddr\000"
 17252      42644164 
 17252      647200
 17253              	.LASF55:
 17254 107b 4359424C 		.ascii	"CYBLE_EVT_GATTC_READ_BY_GROUP_TYPE_RSP\000"
 17254      455F4556 
 17254      545F4741 
 17254      5454435F 
 17254      52454144 
 17255              	.LASF509:
 17256 10a2 4359424C 		.ascii	"CYBLE_STATE_STOPPED\000"
 17256      455F5354 
 17256      4154455F 
 17256      53544F50 
 17256      50454400 
 17257              	.LASF451:
 17258 10b6 4359424C 		.ascii	"CYBLE_EVT_RSCSS_INDICATION_ENABLED\000"
 17258      455F4556 
 17258      545F5253 
 17258      4353535F 
 17258      494E4449 
 17259              	.LASF3:
 17260 10d9 756E7369 		.ascii	"unsigned char\000"
 17260      676E6564 
 17260      20636861 
 17260      7200
 17261              	.LASF54:
 17262 10e7 4359424C 		.ascii	"CYBLE_EVT_GATTC_XCHNG_MTU_RSP\000"
 17262      455F4556 
 17262      545F4741 
 17262      5454435F 
 17262      5843484E 
 17263              	.LASF334:
 17264 1105 4359424C 		.ascii	"CYBLE_EVT_CPSS_INDICATION_CONFIRMED\000"
 17264      455F4556 
 17264      545F4350 
 17264      53535F49 
 17264      4E444943 
 17265              	.LASF240:
 17266 1129 4359424C 		.ascii	"CYBLE_GATT_XCHG_MTU_PARAM_T\000"
 17266      455F4741 
 17266      54545F58 
 17266      4348475F 
 17266      4D54555F 
 17267              	.LASF331:
 17268 1145 4359424C 		.ascii	"CYBLE_EVT_CPSS_NOTIFICATION_DISABLED\000"
 17268      455F4556 
 17268      545F4350 
 17268      53535F4E 
ARM GAS  C:\Users\Helon\AppData\Local\Temp\ccys0XsA.s 			page 373


 17268      4F544946 
 17269              	.LASF629:
 17270 116a 57726974 		.ascii	"WriteDataToFlash\000"
 17270      65446174 
 17270      61546F46 
 17270      6C617368 
 17270      00
 17271              	.LASF456:
 17272 117b 4359424C 		.ascii	"CYBLE_EVT_RSCSC_INDICATION\000"
 17272      455F4556 
 17272      545F5253 
 17272      4353435F 
 17272      494E4449 
 17273              	.LASF251:
 17274 1196 4359424C 		.ascii	"CYBLE_GATTC_HANDLE_UUID_LIST_PARAM_T\000"
 17274      455F4741 
 17274      5454435F 
 17274      48414E44 
 17274      4C455F55 
 17275              	.LASF506:
 17276 11bb 4359424C 		.ascii	"CYBLE_EVT_WSSC_READ_DESCR_RESPONSE\000"
 17276      455F4556 
 17276      545F5753 
 17276      53435F52 
 17276      4541445F 
 17277              	.LASF713:
 17278 11de 55415254 		.ascii	"UART_Start\000"
 17278      5F537461 
 17278      727400
 17279              	.LASF547:
 17280 11e9 72747350 		.ascii	"rtsPolarity\000"
 17280      6F6C6172 
 17280      69747900 
 17281              	.LASF118:
 17282 11f5 4359424C 		.ascii	"CYBLE_BLESS_SLEEP\000"
 17282      455F424C 
 17282      4553535F 
 17282      534C4545 
 17282      5000
 17283              	.LASF703:
 17284 1207 55415254 		.ascii	"UART_RX_WAKEUP_IRQ_ClearPending\000"
 17284      5F52585F 
 17284      57414B45 
 17284      55505F49 
 17284      52515F43 
 17285              	.LASF83:
 17286 1227 4359424C 		.ascii	"CYBLE_EVT_L2CAP_CBFC_TX_CREDIT_IND\000"
 17286      455F4556 
 17286      545F4C32 
 17286      4341505F 
 17286      43424643 
 17287              	.LASF193:
 17288 124a 61647649 		.ascii	"advIntvMin\000"
 17288      6E74764D 
 17288      696E00
 17289              	.LASF734:
 17290 1255 4379426C 		.ascii	"CyBle_GappStartAdvertisement\000"
ARM GAS  C:\Users\Helon\AppData\Local\Temp\ccys0XsA.s 			page 374


 17290      655F4761 
 17290      70705374 
 17290      61727441 
 17290      64766572 
 17291              	.LASF262:
 17292 1272 4359424C 		.ascii	"CYBLE_EVT_GATTC_INDICATION\000"
 17292      455F4556 
 17292      545F4741 
 17292      5454435F 
 17292      494E4449 
 17293              	.LASF184:
 17294 128d 4359424C 		.ascii	"CYBLE_GAP_AUTH_ERROR_INVALID_PARAMETERS\000"
 17294      455F4741 
 17294      505F4155 
 17294      54485F45 
 17294      52524F52 
 17295              	.LASF609:
 17296 12b5 77726974 		.ascii	"writeRequestData\000"
 17296      65526571 
 17296      75657374 
 17296      44617461 
 17296      00
 17297              	.LASF123:
 17298 12c6 4359424C 		.ascii	"CYBLE_BLESS_STATE_ACTIVE\000"
 17298      455F424C 
 17298      4553535F 
 17298      53544154 
 17298      455F4143 
 17299              	.LASF204:
 17300 12df 4359424C 		.ascii	"CYBLE_GAPP_DISC_DATA_T\000"
 17300      455F4741 
 17300      50505F44 
 17300      4953435F 
 17300      44415441 
 17301              	.LASF675:
 17302 12f6 63636364 		.ascii	"cccdNotifEnabledValue\000"
 17302      4E6F7469 
 17302      66456E61 
 17302      626C6564 
 17302      56616C75 
 17303              	.LASF463:
 17304 130c 4359424C 		.ascii	"CYBLE_EVT_SCPSS_NOTIFICATION_ENABLED\000"
 17304      455F4556 
 17304      545F5343 
 17304      5053535F 
 17304      4E4F5449 
 17305              	.LASF611:
 17306 1331 55617274 		.ascii	"UartBuadRate_Handler\000"
 17306      42756164 
 17306      52617465 
 17306      5F48616E 
 17306      646C6572 
 17307              	.LASF80:
 17308 1346 4359424C 		.ascii	"CYBLE_EVT_L2CAP_CBFC_DISCONN_CNF\000"
 17308      455F4556 
 17308      545F4C32 
 17308      4341505F 
ARM GAS  C:\Users\Helon\AppData\Local\Temp\ccys0XsA.s 			page 375


 17308      43424643 
 17309              	.LASF58:
 17310 1367 4359424C 		.ascii	"CYBLE_EVT_GATTC_FIND_BY_TYPE_VALUE_RSP\000"
 17310      455F4556 
 17310      545F4741 
 17310      5454435F 
 17310      46494E44 
 17311              	.LASF274:
 17312 138e 4359424C 		.ascii	"CYBLE_EVT_ANCSS_NOTIFICATION_ENABLED\000"
 17312      455F4556 
 17312      545F414E 
 17312      4353535F 
 17312      4E4F5449 
 17313              	.LASF525:
 17314 13b3 656E6162 		.ascii	"enableRetryNack\000"
 17314      6C655265 
 17314      7472794E 
 17314      61636B00 
 17315              	.LASF122:
 17316 13c3 4359424C 		.ascii	"CYBLE_LP_MODE_T\000"
 17316      455F4C50 
 17316      5F4D4F44 
 17316      455F5400 
 17317              	.LASF468:
 17318 13d3 4359424C 		.ascii	"CYBLE_EVT_SCPSC_WRITE_DESCR_RESPONSE\000"
 17318      455F4556 
 17318      545F5343 
 17318      5053435F 
 17318      57524954 
 17319              	.LASF26:
 17320 13f8 63686172 		.ascii	"char\000"
 17320      00
 17321              	.LASF136:
 17322 13fd 4359424C 		.ascii	"CYBLE_LL_PWR_LVL_NEG_2_DBM\000"
 17322      455F4C4C 
 17322      5F505752 
 17322      5F4C564C 
 17322      5F4E4547 
 17323              	.LASF471:
 17324 1418 4359424C 		.ascii	"CYBLE_EVT_TPSC_NOTIFICATION\000"
 17324      455F4556 
 17324      545F5450 
 17324      53435F4E 
 17324      4F544946 
 17325              	.LASF61:
 17326 1434 4359424C 		.ascii	"CYBLE_EVT_GATTC_READ_MULTI_RSP\000"
 17326      455F4556 
 17326      545F4741 
 17326      5454435F 
 17326      52454144 
 17327              	.LASF192:
 17328 1453 4359424C 		.ascii	"CYBLE_GAP_AUTH_INFO_T\000"
 17328      455F4741 
 17328      505F4155 
 17328      54485F49 
 17328      4E464F5F 
 17329              	.LASF170:
ARM GAS  C:\Users\Helon\AppData\Local\Temp\ccys0XsA.s 			page 376


 17330 1469 4359424C 		.ascii	"CYBLE_GAP_IOCAP_KEYBOARD_ONLY\000"
 17330      455F4741 
 17330      505F494F 
 17330      4341505F 
 17330      4B455942 
 17331              	.LASF514:
 17332 1487 4359424C 		.ascii	"CYBLE_STATE_CONNECTING\000"
 17332      455F5354 
 17332      4154455F 
 17332      434F4E4E 
 17332      45435449 
 17333              	.LASF31:
 17334 149e 4359424C 		.ascii	"CYBLE_EVT_HOST_INVALID\000"
 17334      455F4556 
 17334      545F484F 
 17334      53545F49 
 17334      4E56414C 
 17335              	.LASF729:
 17336 14b5 4379426C 		.ascii	"CyBle_GapGetLocalName\000"
 17336      655F4761 
 17336      70476574 
 17336      4C6F6361 
 17336      6C4E616D 
 17337              	.LASF390:
 17338 14cb 4359424C 		.ascii	"CYBLE_EVT_GLSC_READ_DESCR_RESPONSE\000"
 17338      455F4556 
 17338      545F474C 
 17338      53435F52 
 17338      4541445F 
 17339              	.LASF6:
 17340 14ee 5F5F7569 		.ascii	"__uint16_t\000"
 17340      6E743136 
 17340      5F7400
 17341              	.LASF95:
 17342 14f9 4359424C 		.ascii	"CYBLE_ERROR_NO_DEVICE_ENTITY\000"
 17342      455F4552 
 17342      524F525F 
 17342      4E4F5F44 
 17342      45564943 
 17343              	.LASF536:
 17344 1516 6D756C74 		.ascii	"multiprocAddr\000"
 17344      6970726F 
 17344      63416464 
 17344      7200
 17345              	.LASF60:
 17346 1524 4359424C 		.ascii	"CYBLE_EVT_GATTC_READ_BLOB_RSP\000"
 17346      455F4556 
 17346      545F4741 
 17346      5454435F 
 17346      52454144 
 17347              	.LASF415:
 17348 1542 4359424C 		.ascii	"CYBLE_EVT_HTSS_INDICATION_DISABLED\000"
 17348      455F4556 
 17348      545F4854 
 17348      53535F49 
 17348      4E444943 
 17349              	.LASF462:
ARM GAS  C:\Users\Helon\AppData\Local\Temp\ccys0XsA.s 			page 377


 17350 1565 4359424C 		.ascii	"CYBLE_EVT_RTUSC_READ_CHAR_RESPONSE\000"
 17350      455F4556 
 17350      545F5254 
 17350      5553435F 
 17350      52454144 
 17351              	.LASF67:
 17352 1588 4359424C 		.ascii	"CYBLE_EVT_GATTC_EXEC_WRITE_RSP\000"
 17352      455F4556 
 17352      545F4741 
 17352      5454435F 
 17352      45584543 
 17353              	.LASF503:
 17354 15a7 4359424C 		.ascii	"CYBLE_EVT_WSSS_INDICATION_CONFIRMED\000"
 17354      455F4556 
 17354      545F5753 
 17354      53535F49 
 17354      4E444943 
 17355              	.LASF248:
 17356 15cb 4359424C 		.ascii	"CYBLE_GATTC_HANDLE_VALUE_NTF_PARAM_T\000"
 17356      455F4741 
 17356      5454435F 
 17356      48414E44 
 17356      4C455F56 
 17357              	.LASF724:
 17358 15f0 4379426C 		.ascii	"CyBle_GetTxPowerLevel\000"
 17358      655F4765 
 17358      74547850 
 17358      6F776572 
 17358      4C657665 
 17359              	.LASF615:
 17360 1606 70624465 		.ascii	"pbDest\000"
 17360      737400
 17361              	.LASF476:
 17362 160d 4359424C 		.ascii	"CYBLE_EVT_UDSS_INDICATION_DISABLED\000"
 17362      455F4556 
 17362      545F5544 
 17362      53535F49 
 17362      4E444943 
 17363              	.LASF447:
 17364 1630 4359424C 		.ascii	"CYBLE_EVT_PASSC_READ_DESCR_RESPONSE\000"
 17364      455F4556 
 17364      545F5041 
 17364      5353435F 
 17364      52454144 
 17365              	.LASF744:
 17366 1654 6D656D63 		.ascii	"memcmp\000"
 17366      6D7000
 17367              	.LASF617:
 17368 165b 6E4C656E 		.ascii	"nLen\000"
 17368      00
 17369              	.LASF72:
 17370 1660 4359424C 		.ascii	"CYBLE_EVT_GATTC_STOP_CMD_COMPLETE\000"
 17370      455F4556 
 17370      545F4741 
 17370      5454435F 
 17370      53544F50 
 17371              	.LASF337:
ARM GAS  C:\Users\Helon\AppData\Local\Temp\ccys0XsA.s 			page 378


 17372 1682 4359424C 		.ascii	"CYBLE_EVT_CPSS_CHAR_WRITE\000"
 17372      455F4556 
 17372      545F4350 
 17372      53535F43 
 17372      4841525F 
 17373              	.LASF662:
 17374 169c 4D54555F 		.ascii	"MTU_REQ_FLAG\000"
 17374      5245515F 
 17374      464C4147 
 17374      00
 17375              	.LASF404:
 17376 16a9 4359424C 		.ascii	"CYBLE_EVT_HRSS_ENERGY_EXPENDED_RESET\000"
 17376      455F4556 
 17376      545F4852 
 17376      53535F45 
 17376      4E455247 
 17377              	.LASF367:
 17378 16ce 4359424C 		.ascii	"CYBLE_EVT_ESSS_NOTIFICATION_DISABLED\000"
 17378      455F4556 
 17378      545F4553 
 17378      53535F4E 
 17378      4F544946 
 17379              	.LASF490:
 17380 16f3 4359424C 		.ascii	"CYBLE_EVT_WPTSS_NOTIFICATION_DISABLED\000"
 17380      455F4556 
 17380      545F5750 
 17380      5453535F 
 17380      4E4F5449 
 17381              	.LASF730:
 17382 1719 4379426C 		.ascii	"CyBle_GappStopAdvertisement\000"
 17382      655F4761 
 17382      70705374 
 17382      6F704164 
 17382      76657274 
 17383              	.LASF552:
 17384 1735 42415544 		.ascii	"BAUD\000"
 17384      00
 17385              	.LASF541:
 17386 173a 7478496E 		.ascii	"txInterruptMask\000"
 17386      74657272 
 17386      7570744D 
 17386      61736B00 
 17387              	.LASF566:
 17388 174a 53504545 		.ascii	"SPEED\000"
 17388      4400
 17389              	.LASF307:
 17390 1750 4359424C 		.ascii	"CYBLE_EVT_BLSS_NOTIFICATION_ENABLED\000"
 17390      455F4556 
 17390      545F424C 
 17390      53535F4E 
 17390      4F544946 
 17391              	.LASF504:
 17392 1774 4359424C 		.ascii	"CYBLE_EVT_WSSC_INDICATION\000"
 17392      455F4556 
 17392      545F5753 
 17392      53435F49 
 17392      4E444943 
ARM GAS  C:\Users\Helon\AppData\Local\Temp\ccys0XsA.s 			page 379


 17393              	.LASF89:
 17394 178e 4359424C 		.ascii	"CYBLE_ERROR_INVALID_PARAMETER\000"
 17394      455F4552 
 17394      524F525F 
 17394      494E5641 
 17394      4C49445F 
 17395              	.LASF592:
 17396 17ac 626C6573 		.ascii	"blessState\000"
 17396      73537461 
 17396      746500
 17397              	.LASF375:
 17398 17b7 4359424C 		.ascii	"CYBLE_EVT_ESSC_INDICATION\000"
 17398      455F4556 
 17398      545F4553 
 17398      53435F49 
 17398      4E444943 
 17399              	.LASF281:
 17400 17d1 4359424C 		.ascii	"CYBLE_EVT_ANCSC_WRITE_DESCR_RESPONSE\000"
 17400      455F4556 
 17400      545F414E 
 17400      4353435F 
 17400      57524954 
 17401              	.LASF555:
 17402 17f6 4350494E 		.ascii	"CPIN\000"
 17402      00
 17403              	.LASF573:
 17404 17fb 44697363 		.ascii	"Disconn_Idx\000"
 17404      6F6E6E5F 
 17404      49647800 
 17405              	.LASF458:
 17406 1807 4359424C 		.ascii	"CYBLE_EVT_RSCSC_WRITE_CHAR_RESPONSE\000"
 17406      455F4556 
 17406      545F5253 
 17406      4353435F 
 17406      57524954 
 17407              	.LASF576:
 17408 182b 4359424C 		.ascii	"CYBLE_CONN_OR_DISCONN_INFO\000"
 17408      455F434F 
 17408      4E4E5F4F 
 17408      525F4449 
 17408      53434F4E 
 17409              	.LASF405:
 17410 1846 4359424C 		.ascii	"CYBLE_EVT_HRSS_NOTIFICATION_ENABLED\000"
 17410      455F4556 
 17410      545F4852 
 17410      53535F4E 
 17410      4F544946 
 17411              	.LASF657:
 17412 186a 42756666 		.ascii	"Buffer_Length\000"
 17412      65725F4C 
 17412      656E6774 
 17412      6800
 17413              	.LASF474:
 17414 1878 4359424C 		.ascii	"CYBLE_EVT_TPSC_WRITE_DESCR_RESPONSE\000"
 17414      455F4556 
 17414      545F5450 
 17414      53435F57 
ARM GAS  C:\Users\Helon\AppData\Local\Temp\ccys0XsA.s 			page 380


 17414      52495445 
 17415              	.LASF645:
 17416 189c 66696C65 		.ascii	"file\000"
 17416      00
 17417              	.LASF346:
 17418 18a1 4359424C 		.ascii	"CYBLE_EVT_CSCSS_NOTIFICATION_DISABLED\000"
 17418      455F4556 
 17418      545F4353 
 17418      4353535F 
 17418      4E4F5449 
 17419              	.LASF357:
 17420 18c7 4359424C 		.ascii	"CYBLE_EVT_CTSS_NOTIFICATION_ENABLED\000"
 17420      455F4556 
 17420      545F4354 
 17420      53535F4E 
 17420      4F544946 
 17421              	.LASF452:
 17422 18eb 4359424C 		.ascii	"CYBLE_EVT_RSCSS_INDICATION_DISABLED\000"
 17422      455F4556 
 17422      545F5253 
 17422      4353535F 
 17422      494E4449 
 17423              	.LASF562:
 17424 190f 44495343 		.ascii	"DISCONN\000"
 17424      4F4E4E00 
 17425              	.LASF728:
 17426 1917 4379426C 		.ascii	"CyBle_GetDeviceAddress\000"
 17426      655F4765 
 17426      74446576 
 17426      69636541 
 17426      64647265 
 17427              	.LASF160:
 17428 192e 4359424C 		.ascii	"CYBLE_GAPP_CONNECTABLE_LOW_DC_DIRECTED_ADV\000"
 17428      455F4741 
 17428      50505F43 
 17428      4F4E4E45 
 17428      43544142 
 17429              	.LASF494:
 17430 1959 4359424C 		.ascii	"CYBLE_EVT_WPTSS_WRITE_CHAR\000"
 17430      455F4556 
 17430      545F5750 
 17430      5453535F 
 17430      57524954 
 17431              	.LASF425:
 17432 1974 4359424C 		.ascii	"CYBLE_EVT_LLSS_WRITE_CHAR_REQ\000"
 17432      455F4556 
 17432      545F4C4C 
 17432      53535F57 
 17432      52495445 
 17433              	.LASF91:
 17434 1992 4359424C 		.ascii	"CYBLE_ERROR_MEMORY_ALLOCATION_FAILED\000"
 17434      455F4552 
 17434      524F525F 
 17434      4D454D4F 
 17434      52595F41 
 17435              	.LASF410:
 17436 19b7 4359424C 		.ascii	"CYBLE_EVT_HRSC_READ_DESCR_RESPONSE\000"
ARM GAS  C:\Users\Helon\AppData\Local\Temp\ccys0XsA.s 			page 381


 17436      455F4556 
 17436      545F4852 
 17436      53435F52 
 17436      4541445F 
 17437              	.LASF584:
 17438 19da 44697341 		.ascii	"DisAllCharResult\000"
 17438      6C6C4368 
 17438      61725265 
 17438      73756C74 
 17438      00
 17439              	.LASF345:
 17440 19eb 4359424C 		.ascii	"CYBLE_EVT_CSCSS_NOTIFICATION_ENABLED\000"
 17440      455F4556 
 17440      545F4353 
 17440      4353535F 
 17440      4E4F5449 
 17441              	.LASF685:
 17442 1a10 7072696E 		.ascii	"printf\000"
 17442      746600
 17443              	.LASF751:
 17444 1a17 473A5C43 		.ascii	"G:\\Company\\Jetronic\\CYPRESS\\Customer\\Troughpur"
 17444      6F6D7061 
 17444      6E795C4A 
 17444      6574726F 
 17444      6E69635C 
 17445 1a45 5F43656E 		.ascii	"_Central_Peripheral_V2.9\\Troughput_Central_Periphe"
 17445      7472616C 
 17445      5F506572 
 17445      69706865 
 17445      72616C5F 
 17446 1a77 72616C2E 		.ascii	"ral.cydsn\000"
 17446      63796473 
 17446      6E00
 17447              	.LASF519:
 17448 1a81 64617461 		.ascii	"dataBits\000"
 17448      42697473 
 17448      00
 17449              	.LASF665:
 17450 1a8a 746F7461 		.ascii	"totalByteCounter\000"
 17450      6C427974 
 17450      65436F75 
 17450      6E746572 
 17450      00
 17451              	.LASF622:
 17452 1a9b 4E616D65 		.ascii	"Name\000"
 17452      00
 17453              	.LASF309:
 17454 1aa0 4359424C 		.ascii	"CYBLE_EVT_BLSC_INDICATION\000"
 17454      455F4556 
 17454      545F424C 
 17454      53435F49 
 17454      4E444943 
 17455              	.LASF666:
 17456 1aba 62756666 		.ascii	"buffer\000"
 17456      657200
 17457              	.LASF588:
 17458 1ac1 4D795469 		.ascii	"MyTimerIsr\000"
ARM GAS  C:\Users\Helon\AppData\Local\Temp\ccys0XsA.s 			page 382


 17458      6D657249 
 17458      737200
 17459              	.LASF398:
 17460 1acc 4359424C 		.ascii	"CYBLE_EVT_HIDSS_REPORT_CHAR_WRITE\000"
 17460      455F4556 
 17460      545F4849 
 17460      4453535F 
 17460      5245504F 
 17461              	.LASF681:
 17462 1aee 42617564 		.ascii	"Baud_rate_idx\000"
 17462      5F726174 
 17462      655F6964 
 17462      7800
 17463              	.LASF587:
 17464 1afc 53746163 		.ascii	"StackEventHandler\000"
 17464      6B457665 
 17464      6E744861 
 17464      6E646C65 
 17464      7200
 17465              	.LASF498:
 17466 1b0e 4359424C 		.ascii	"CYBLE_EVT_WPTSC_READ_CHAR_RESPONSE\000"
 17466      455F4556 
 17466      545F5750 
 17466      5453435F 
 17466      52454144 
 17467              	.LASF111:
 17468 1b31 4359424C 		.ascii	"CYBLE_ERROR_MAX\000"
 17468      455F4552 
 17468      524F525F 
 17468      4D415800 
 17469              	.LASF437:
 17470 1b41 4359424C 		.ascii	"CYBLE_EVT_LNSC_WRITE_CHAR_RESPONSE\000"
 17470      455F4556 
 17470      545F4C4E 
 17470      53435F57 
 17470      52495445 
 17471              	.LASF75:
 17472 1b64 4359424C 		.ascii	"CYBLE_EVT_L2CAP_CONN_PARAM_UPDATE_RSP\000"
 17472      455F4556 
 17472      545F4C32 
 17472      4341505F 
 17472      434F4E4E 
 17473              	.LASF186:
 17474 1b8a 4359424C 		.ascii	"CYBLE_GAP_AUTH_ERROR_LINK_DISCONNECTED\000"
 17474      455F4741 
 17474      505F4155 
 17474      54485F45 
 17474      52524F52 
 17475              	.LASF560:
 17476 1bb1 5343414E 		.ascii	"SCAN\000"
 17476      00
 17477              	.LASF288:
 17478 1bb6 4359424C 		.ascii	"CYBLE_EVT_ANSC_WRITE_CHAR_RESPONSE\000"
 17478      455F4556 
 17478      545F414E 
 17478      53435F57 
 17478      52495445 
ARM GAS  C:\Users\Helon\AppData\Local\Temp\ccys0XsA.s 			page 383


 17479              	.LASF479:
 17480 1bd9 4359424C 		.ascii	"CYBLE_EVT_UDSS_NOTIFICATION_DISABLED\000"
 17480      455F4556 
 17480      545F5544 
 17480      53535F4E 
 17480      4F544946 
 17481              	.LASF548:
 17482 1bfe 55415254 		.ascii	"UART_UART_INIT_STRUCT\000"
 17482      5F554152 
 17482      545F494E 
 17482      49545F53 
 17482      54525543 
 17483              	.LASF356:
 17484 1c14 4359424C 		.ascii	"CYBLE_EVT_CSCSC_WRITE_DESCR_RESPONSE\000"
 17484      455F4556 
 17484      545F4353 
 17484      4353435F 
 17484      57524954 
 17485              	.LASF574:
 17486 1c39 436F6E6E 		.ascii	"Connected_Count\000"
 17486      65637465 
 17486      645F436F 
 17486      756E7400 
 17487              	.LASF372:
 17488 1c49 4359424C 		.ascii	"CYBLE_EVT_ESSS_EXEC_WRITE_REQ\000"
 17488      455F4556 
 17488      545F4553 
 17488      53535F45 
 17488      5845435F 
 17489              	.LASF480:
 17490 1c67 4359424C 		.ascii	"CYBLE_EVT_UDSS_READ_CHAR\000"
 17490      455F4556 
 17490      545F5544 
 17490      53535F52 
 17490      4541445F 
 17491              	.LASF589:
 17492 1c80 74696D65 		.ascii	"timercount\000"
 17492      72636F75 
 17492      6E7400
 17493              	.LASF121:
 17494 1c8b 4359424C 		.ascii	"CYBLE_BLESS_INVALID\000"
 17494      455F424C 
 17494      4553535F 
 17494      494E5641 
 17494      4C494400 
 17495              	.LASF201:
 17496 1c9f 4359424C 		.ascii	"CYBLE_GAPP_DISC_PARAM_T\000"
 17496      455F4741 
 17496      50505F44 
 17496      4953435F 
 17496      50415241 
 17497              	.LASF236:
 17498 1cb7 73746172 		.ascii	"startHandle\000"
 17498      7448616E 
 17498      646C6500 
 17499              	.LASF250:
 17500 1cc3 62797465 		.ascii	"byteCount\000"
ARM GAS  C:\Users\Helon\AppData\Local\Temp\ccys0XsA.s 			page 384


 17500      436F756E 
 17500      7400
 17501              	.LASF638:
 17502 1ccd 696E6465 		.ascii	"index\000"
 17502      7800
 17503              	.LASF41:
 17504 1cd3 4359424C 		.ascii	"CYBLE_EVT_GAP_AUTH_COMPLETE\000"
 17504      455F4556 
 17504      545F4741 
 17504      505F4155 
 17504      54485F43 
 17505              	.LASF200:
 17506 1cef 61647646 		.ascii	"advFilterPolicy\000"
 17506      696C7465 
 17506      72506F6C 
 17506      69637900 
 17507              	.LASF378:
 17508 1cff 4359424C 		.ascii	"CYBLE_EVT_ESSC_READ_DESCR_RESPONSE\000"
 17508      455F4556 
 17508      545F4553 
 17508      53435F52 
 17508      4541445F 
 17509              	.LASF42:
 17510 1d22 4359424C 		.ascii	"CYBLE_EVT_GAP_AUTH_FAILED\000"
 17510      455F4556 
 17510      545F4741 
 17510      505F4155 
 17510      54485F46 
 17511              	.LASF397:
 17512 1d3c 4359424C 		.ascii	"CYBLE_EVT_HIDSS_EXIT_SUSPEND\000"
 17512      455F4556 
 17512      545F4849 
 17512      4453535F 
 17512      45584954 
 17513              	.LASF131:
 17514 1d59 4359424C 		.ascii	"CYBLE_BLESS_STATE_T\000"
 17514      455F424C 
 17514      4553535F 
 17514      53544154 
 17514      455F5400 
 17515              	.LASF223:
 17516 1d6d 4359424C 		.ascii	"CYBLE_GAP_CONN_UPDATE_PARAM_T\000"
 17516      455F4741 
 17516      505F434F 
 17516      4E4E5F55 
 17516      50444154 
 17517              	.LASF531:
 17518 1d8b 72784275 		.ascii	"rxBuffer\000"
 17518      66666572 
 17518      00
 17519              	.LASF195:
 17520 1d94 61647654 		.ascii	"advType\000"
 17520      79706500 
 17521              	.LASF363:
 17522 1d9c 4359424C 		.ascii	"CYBLE_EVT_CTSC_WRITE_DESCR_RESPONSE\000"
 17522      455F4556 
 17522      545F4354 
ARM GAS  C:\Users\Helon\AppData\Local\Temp\ccys0XsA.s 			page 385


 17522      53435F57 
 17522      52495445 
 17523              	.LASF631:
 17524 1dc0 53544155 		.ascii	"STAUS_T\000"
 17524      535F5400 
 17525              	.LASF520:
 17526 1dc8 70617269 		.ascii	"parity\000"
 17526      747900
 17527              	.LASF92:
 17528 1dcf 4359424C 		.ascii	"CYBLE_ERROR_INSUFFICIENT_RESOURCES\000"
 17528      455F4552 
 17528      524F525F 
 17528      494E5355 
 17528      46464943 
 17529              	.LASF450:
 17530 1df2 4359424C 		.ascii	"CYBLE_EVT_RSCSS_NOTIFICATION_DISABLED\000"
 17530      455F4556 
 17530      545F5253 
 17530      4353535F 
 17530      4E4F5449 
 17531              	.LASF636:
 17532 1e18 55617274 		.ascii	"Uart_Char\000"
 17532      5F436861 
 17532      7200
 17533              	.LASF401:
 17534 1e22 4359424C 		.ascii	"CYBLE_EVT_HIDSC_WRITE_CHAR_RESPONSE\000"
 17534      455F4556 
 17534      545F4849 
 17534      4453435F 
 17534      57524954 
 17535              	.LASF139:
 17536 1e46 4359424C 		.ascii	"CYBLE_LL_PWR_LVL_3_DBM\000"
 17536      455F4C4C 
 17536      5F505752 
 17536      5F4C564C 
 17536      5F335F44 
 17537              	.LASF10:
 17538 1e5d 6C6F6E67 		.ascii	"long unsigned int\000"
 17538      20756E73 
 17538      69676E65 
 17538      6420696E 
 17538      7400
 17539              	.LASF424:
 17540 1e6f 4359424C 		.ascii	"CYBLE_EVT_IASS_WRITE_CHAR_CMD\000"
 17540      455F4556 
 17540      545F4941 
 17540      53535F57 
 17540      52495445 
 17541              	.LASF627:
 17542 1e8d 41647650 		.ascii	"AdvParamArray\000"
 17542      6172616D 
 17542      41727261 
 17542      7900
 17543              	.LASF224:
 17544 1e9b 73746174 		.ascii	"status\000"
 17544      757300
 17545              	.LASF137:
ARM GAS  C:\Users\Helon\AppData\Local\Temp\ccys0XsA.s 			page 386


 17546 1ea2 4359424C 		.ascii	"CYBLE_LL_PWR_LVL_NEG_1_DBM\000"
 17546      455F4C4C 
 17546      5F505752 
 17546      5F4C564C 
 17546      5F4E4547 
 17547              	.LASF626:
 17548 1ebd 41647644 		.ascii	"AdvDataLength\000"
 17548      6174614C 
 17548      656E6774 
 17548      6800
 17549              	.LASF491:
 17550 1ecb 4359424C 		.ascii	"CYBLE_EVT_WPTSS_INDICATION_ENABLED\000"
 17550      455F4556 
 17550      545F5750 
 17550      5453535F 
 17550      494E4449 
 17551              	.LASF181:
 17552 1eee 4359424C 		.ascii	"CYBLE_GAP_AUTH_ERROR_COMMAND_NOT_SUPPORTED\000"
 17552      455F4741 
 17552      505F4155 
 17552      54485F45 
 17552      52524F52 
 17553              	.LASF177:
 17554 1f19 4359424C 		.ascii	"CYBLE_GAP_AUTH_ERROR_AUTHENTICATION_REQ_NOT_MET\000"
 17554      455F4741 
 17554      505F4155 
 17554      54485F45 
 17554      52524F52 
 17555              	.LASF544:
 17556 1f49 656E6162 		.ascii	"enableCts\000"
 17556      6C654374 
 17556      7300
 17557              	.LASF593:
 17558 1f53 4D595F49 		.ascii	"MY_ISR_USERBUTTON\000"
 17558      53525F55 
 17558      53455242 
 17558      5554544F 
 17558      4E00
 17559              	.LASF287:
 17560 1f65 4359424C 		.ascii	"CYBLE_EVT_ANSC_READ_CHAR_RESPONSE\000"
 17560      455F4556 
 17560      545F414E 
 17560      53435F52 
 17560      4541445F 
 17561              	.LASF438:
 17562 1f87 4359424C 		.ascii	"CYBLE_EVT_LNSC_READ_DESCR_RESPONSE\000"
 17562      455F4556 
 17562      545F4C4E 
 17562      53435F52 
 17562      4541445F 
 17563              	.LASF102:
 17564 1faa 4359424C 		.ascii	"CYBLE_ERROR_L2CAP_PSM_ALREADY_REGISTERED\000"
 17564      455F4552 
 17564      524F525F 
 17564      4C324341 
 17564      505F5053 
 17565              	.LASF563:
ARM GAS  C:\Users\Helon\AppData\Local\Temp\ccys0XsA.s 			page 387


 17566 1fd3 4C4F4749 		.ascii	"LOGIN\000"
 17566      4E00
 17567              	.LASF749:
 17568 1fd9 474E5520 		.ascii	"GNU C 4.9.3 20150303 (release) [ARM/embedded-4_9-br"
 17568      4320342E 
 17568      392E3320 
 17568      32303135 
 17568      30333033 
 17569 200c 616E6368 		.ascii	"anch revision 221220] -mcpu=cortex-m0 -mthumb -g -O"
 17569      20726576 
 17569      6973696F 
 17569      6E203232 
 17569      31323230 
 17570 203f 67202D66 		.ascii	"g -ffunction-sections -ffat-lto-objects\000"
 17570      66756E63 
 17570      74696F6E 
 17570      2D736563 
 17570      74696F6E 
 17571              	.LASF598:
 17572 2067 4C656449 		.ascii	"LedInit\000"
 17572      6E697400 
 17573              	.LASF635:
 17574 206f 526F6C65 		.ascii	"Role\000"
 17574      00
 17575              	.LASF36:
 17576 2074 4359424C 		.ascii	"CYBLE_EVT_STACK_BUSY_STATUS\000"
 17576      455F4556 
 17576      545F5354 
 17576      41434B5F 
 17576      42555359 
 17577              	.LASF291:
 17578 2090 4359424C 		.ascii	"CYBLE_EVT_BASS_NOTIFICATION_ENABLED\000"
 17578      455F4556 
 17578      545F4241 
 17578      53535F4E 
 17578      4F544946 
 17579              	.LASF738:
 17580 20b4 4379426C 		.ascii	"CyBle_GapDisconnect\000"
 17580      655F4761 
 17580      70446973 
 17580      636F6E6E 
 17580      65637400 
 17581              	.LASF364:
 17582 20c8 4359424C 		.ascii	"CYBLE_EVT_CTSC_WRITE_CHAR_RESPONSE\000"
 17582      455F4556 
 17582      545F4354 
 17582      53435F57 
 17582      52495445 
 17583              	.LASF443:
 17584 20eb 4359424C 		.ascii	"CYBLE_EVT_PASSS_WRITE_CHAR\000"
 17584      455F4556 
 17584      545F5041 
 17584      5353535F 
 17584      57524954 
 17585              	.LASF341:
 17586 2106 4359424C 		.ascii	"CYBLE_EVT_CPSC_WRITE_CHAR_RESPONSE\000"
 17586      455F4556 
ARM GAS  C:\Users\Helon\AppData\Local\Temp\ccys0XsA.s 			page 388


 17586      545F4350 
 17586      53435F57 
 17586      52495445 
 17587              	.LASF714:
 17588 2129 4379426C 		.ascii	"CyBle_Start\000"
 17588      655F5374 
 17588      61727400 
 17589              	.LASF47:
 17590 2135 4359424C 		.ascii	"CYBLE_EVT_GAP_CONNECTION_UPDATE_COMPLETE\000"
 17590      455F4556 
 17590      545F4741 
 17590      505F434F 
 17590      4E4E4543 
 17591              	.LASF326:
 17592 215e 4359424C 		.ascii	"CYBLE_EVT_CGMSC_READ_CHAR_RESPONSE\000"
 17592      455F4556 
 17592      545F4347 
 17592      4D53435F 
 17592      52454144 
 17593              	.LASF510:
 17594 2181 4359424C 		.ascii	"CYBLE_STATE_INITIALIZING\000"
 17594      455F5354 
 17594      4154455F 
 17594      494E4954 
 17594      49414C49 
 17595              	.LASF697:
 17596 219a 53746174 		.ascii	"Status_LED_Write\000"
 17596      75735F4C 
 17596      45445F57 
 17596      72697465 
 17596      00
 17597              	.LASF591:
 17598 21ab 736C6565 		.ascii	"sleepMode\000"
 17598      704D6F64 
 17598      6500
 17599              	.LASF183:
 17600 21b5 4359424C 		.ascii	"CYBLE_GAP_AUTH_ERROR_REPEATED_ATTEMPTS\000"
 17600      455F4741 
 17600      505F4155 
 17600      54485F45 
 17600      52524F52 
 17601              	.LASF79:
 17602 21dc 4359424C 		.ascii	"CYBLE_EVT_L2CAP_CBFC_DISCONN_IND\000"
 17602      455F4556 
 17602      545F4C32 
 17602      4341505F 
 17602      43424643 
 17603              	.LASF732:
 17604 21fd 4379426C 		.ascii	"CyBle_GapUpdateAdvData\000"
 17604      655F4761 
 17604      70557064 
 17604      61746541 
 17604      64764461 
 17605              	.LASF350:
 17606 2214 4359424C 		.ascii	"CYBLE_EVT_CSCSS_CHAR_WRITE\000"
 17606      455F4556 
 17606      545F4353 
ARM GAS  C:\Users\Helon\AppData\Local\Temp\ccys0XsA.s 			page 389


 17606      4353535F 
 17606      43484152 
 17607              	.LASF580:
 17608 222f 4359424C 		.ascii	"CYBLE_DEVICE_INFO\000"
 17608      455F4445 
 17608      56494345 
 17608      5F494E46 
 17608      4F00
 17609              	.LASF602:
 17610 2241 6C6F6361 		.ascii	"location\000"
 17610      74696F6E 
 17610      00
 17611              	.LASF613:
 17612 224a 626C6553 		.ascii	"bleSsPwrLvl\000"
 17612      73507772 
 17612      4C766C00 
 17613              	.LASF457:
 17614 2256 4359424C 		.ascii	"CYBLE_EVT_RSCSC_READ_CHAR_RESPONSE\000"
 17614      455F4556 
 17614      545F5253 
 17614      4353435F 
 17614      52454144 
 17615              	.LASF39:
 17616 2279 4359424C 		.ascii	"CYBLE_EVT_GAP_PASSKEY_ENTRY_REQUEST\000"
 17616      455F4556 
 17616      545F4741 
 17616      505F5041 
 17616      53534B45 
 17617              	.LASF669:
 17618 229d 74657374 		.ascii	"testCount\000"
 17618      436F756E 
 17618      7400
 17619              	.LASF141:
 17620 22a7 4359424C 		.ascii	"CYBLE_BLESS_PWR_LVL_T\000"
 17620      455F424C 
 17620      4553535F 
 17620      5057525F 
 17620      4C564C5F 
 17621              	.LASF606:
 17622 22bd 6E6F7469 		.ascii	"notificationPacket\000"
 17622      66696361 
 17622      74696F6E 
 17622      5061636B 
 17622      657400
 17623              	.LASF432:
 17624 22d0 4359424C 		.ascii	"CYBLE_EVT_LNSS_NOTIFICATION_DISABLED\000"
 17624      455F4556 
 17624      545F4C4E 
 17624      53535F4E 
 17624      4F544946 
 17625              	.LASF335:
 17626 22f5 4359424C 		.ascii	"CYBLE_EVT_CPSS_BROADCAST_ENABLED\000"
 17626      455F4556 
 17626      545F4350 
 17626      53535F42 
 17626      524F4144 
 17627              	.LASF687:
ARM GAS  C:\Users\Helon\AppData\Local\Temp\ccys0XsA.s 			page 390


 17628 2316 4379426C 		.ascii	"CyBle_GattcExchangeMtuReq\000"
 17628      655F4761 
 17628      74746345 
 17628      78636861 
 17628      6E67654D 
 17629              	.LASF639:
 17630 2330 75617274 		.ascii	"uartTxData\000"
 17630      54784461 
 17630      746100
 17631              	.LASF537:
 17632 233b 6D756C74 		.ascii	"multiprocAddrMask\000"
 17632      6970726F 
 17632      63416464 
 17632      724D6173 
 17632      6B00
 17633              	.LASF9:
 17634 234d 5F5F7569 		.ascii	"__uint32_t\000"
 17634      6E743332 
 17634      5F7400
 17635              	.LASF690:
 17636 2358 4379426C 		.ascii	"CyBle_GappAuthReqReply\000"
 17636      655F4761 
 17636      70704175 
 17636      74685265 
 17636      71526570 
 17637              	.LASF180:
 17638 236f 4359424C 		.ascii	"CYBLE_GAP_AUTH_ERROR_INSUFFICIENT_ENCRYPTION_KEY_SI"
 17638      455F4741 
 17638      505F4155 
 17638      54485F45 
 17638      52524F52 
 17639 23a2 5A4500   		.ascii	"ZE\000"
 17640              	.LASF633:
 17641 23a5 61647644 		.ascii	"advDiscData\000"
 17641      69736344 
 17641      61746100 
 17642              	.LASF418:
 17643 23b1 4359424C 		.ascii	"CYBLE_EVT_HTSC_NOTIFICATION\000"
 17643      455F4556 
 17643      545F4854 
 17643      53435F4E 
 17643      4F544946 
 17644              	.LASF11:
 17645 23cd 6C6F6E67 		.ascii	"long long int\000"
 17645      206C6F6E 
 17645      6720696E 
 17645      7400
 17646              	.LASF725:
 17647 23db 4379426C 		.ascii	"CyBle_SetTxPowerLevel\000"
 17647      655F5365 
 17647      74547850 
 17647      6F776572 
 17647      4C657665 
 17648              	.LASF529:
 17649 23f1 656E6162 		.ascii	"enableWake\000"
 17649      6C655761 
 17649      6B6500
ARM GAS  C:\Users\Helon\AppData\Local\Temp\ccys0XsA.s 			page 391


 17650              	.LASF119:
 17651 23fc 4359424C 		.ascii	"CYBLE_BLESS_DEEPSLEEP\000"
 17651      455F424C 
 17651      4553535F 
 17651      44454550 
 17651      534C4545 
 17652              	.LASF472:
 17653 2412 4359424C 		.ascii	"CYBLE_EVT_TPSC_READ_CHAR_RESPONSE\000"
 17653      455F4556 
 17653      545F5450 
 17653      53435F52 
 17653      4541445F 
 17654              	.LASF268:
 17655 2434 4359424C 		.ascii	"CYBLE_EVT_GATTC_CHAR_DUPLICATION\000"
 17655      455F4556 
 17655      545F4741 
 17655      5454435F 
 17655      43484152 
 17656              	.LASF383:
 17657 2455 4359424C 		.ascii	"CYBLE_EVT_GLSS_NOTIFICATION_ENABLED\000"
 17657      455F4556 
 17657      545F474C 
 17657      53535F4E 
 17657      4F544946 
 17658              	.LASF693:
 17659 2479 54696D65 		.ascii	"Timer_Stop\000"
 17659      725F5374 
 17659      6F7000
 17660              	.LASF209:
 17661 2484 61647650 		.ascii	"advParam\000"
 17661      6172616D 
 17661      00
 17662              	.LASF103:
 17663 248d 4359424C 		.ascii	"CYBLE_ERROR_L2CAP_PSM_NOT_REGISTERED\000"
 17663      455F4552 
 17663      524F525F 
 17663      4C324341 
 17663      505F5053 
 17664              	.LASF93:
 17665 24b2 4359424C 		.ascii	"CYBLE_ERROR_OOB_NOT_AVAILABLE\000"
 17665      455F4552 
 17665      524F525F 
 17665      4F4F425F 
 17665      4E4F545F 
 17666              	.LASF318:
 17667 24d0 4359424C 		.ascii	"CYBLE_EVT_CGMSS_INDICATION_ENABLED\000"
 17667      455F4556 
 17667      545F4347 
 17667      4D53535F 
 17667      494E4449 
 17668              	.LASF290:
 17669 24f3 4359424C 		.ascii	"CYBLE_EVT_ANSC_WRITE_DESCR_RESPONSE\000"
 17669      455F4556 
 17669      545F414E 
 17669      53435F57 
 17669      52495445 
 17670              	.LASF24:
ARM GAS  C:\Users\Helon\AppData\Local\Temp\ccys0XsA.s 			page 392


 17671 2517 646F7562 		.ascii	"double\000"
 17671      6C6500
 17672              	.LASF108:
 17673 251e 4359424C 		.ascii	"CYBLE_ERROR_DEVICE_ALREADY_EXISTS\000"
 17673      455F4552 
 17673      524F525F 
 17673      44455649 
 17673      43455F41 
 17674              	.LASF369:
 17675 2540 4359424C 		.ascii	"CYBLE_EVT_ESSS_INDICATION_DISABLED\000"
 17675      455F4556 
 17675      545F4553 
 17675      53535F49 
 17675      4E444943 
 17676              	.LASF85:
 17677 2563 4359424C 		.ascii	"CYBLE_EVT_PENDING_FLASH_WRITE\000"
 17677      455F4556 
 17677      545F5045 
 17677      4E44494E 
 17677      475F464C 
 17678              	.LASF271:
 17679 2581 4359424C 		.ascii	"CYBLE_EVT_GATTC_INCL_DISCOVERY_COMPLETE\000"
 17679      455F4556 
 17679      545F4741 
 17679      5454435F 
 17679      494E434C 
 17680              	.LASF140:
 17681 25a9 4359424C 		.ascii	"CYBLE_LL_PWR_LVL_MAX\000"
 17681      455F4C4C 
 17681      5F505752 
 17681      5F4C564C 
 17681      5F4D4158 
 17682              	.LASF489:
 17683 25be 4359424C 		.ascii	"CYBLE_EVT_WPTSS_NOTIFICATION_ENABLED\000"
 17683      455F4556 
 17683      545F5750 
 17683      5453535F 
 17683      4E4F5449 
 17684              	.LASF564:
 17685 25e3 52535349 		.ascii	"RSSI\000"
 17685      00
 17686              	.LASF620:
 17687 25e8 4164764D 		.ascii	"AdvMin\000"
 17687      696E00
 17688              	.LASF439:
 17689 25ef 4359424C 		.ascii	"CYBLE_EVT_LNSC_WRITE_DESCR_RESPONSE\000"
 17689      455F4556 
 17689      545F4C4E 
 17689      53435F57 
 17689      52495445 
 17690              	.LASF197:
 17691 2613 64697265 		.ascii	"directAddrType\000"
 17691      63744164 
 17691      64725479 
 17691      706500
 17692              	.LASF733:
 17693 2622 57726974 		.ascii	"WriteUserSFlashRow\000"
ARM GAS  C:\Users\Helon\AppData\Local\Temp\ccys0XsA.s 			page 393


 17693      65557365 
 17693      7253466C 
 17693      61736852 
 17693      6F7700
 17694              	.LASF426:
 17695 2635 4359424C 		.ascii	"CYBLE_EVT_LLSC_READ_CHAR_RESPONSE\000"
 17695      455F4556 
 17695      545F4C4C 
 17695      53435F52 
 17695      4541445F 
 17696              	.LASF349:
 17697 2657 4359424C 		.ascii	"CYBLE_EVT_CSCSS_INDICATION_CONFIRMATION\000"
 17697      455F4556 
 17697      545F4353 
 17697      4353535F 
 17697      494E4449 
 17698              	.LASF105:
 17699 267f 4359424C 		.ascii	"CYBLE_ERROR_L2CAP_CHANNEL_NOT_FOUND\000"
 17699      455F4552 
 17699      524F525F 
 17699      4C324341 
 17699      505F4348 
 17700              	.LASF607:
 17701 26a3 53656E64 		.ascii	"SendData_toSlave\000"
 17701      44617461 
 17701      5F746F53 
 17701      6C617665 
 17701      00
 17702              	.LASF96:
 17703 26b4 4359424C 		.ascii	"CYBLE_ERROR_REPEATED_ATTEMPTS\000"
 17703      455F4552 
 17703      524F525F 
 17703      52455045 
 17703      41544544 
 17704              	.LASF373:
 17705 26d2 4359424C 		.ascii	"CYBLE_EVT_ESSS_DESCR_WRITE\000"
 17705      455F4556 
 17705      545F4553 
 17705      53535F44 
 17705      45534352 
 17706              	.LASF368:
 17707 26ed 4359424C 		.ascii	"CYBLE_EVT_ESSS_INDICATION_ENABLED\000"
 17707      455F4556 
 17707      545F4553 
 17707      53535F49 
 17707      4E444943 
 17708              	.LASF354:
 17709 270f 4359424C 		.ascii	"CYBLE_EVT_CSCSC_WRITE_CHAR_RESPONSE\000"
 17709      455F4556 
 17709      545F4353 
 17709      4353435F 
 17709      57524954 
 17710              	.LASF23:
 17711 2733 666C6F61 		.ascii	"float\000"
 17711      7400
 17712              	.LASF466:
 17713 2739 4359424C 		.ascii	"CYBLE_EVT_SCPSC_NOTIFICATION\000"
ARM GAS  C:\Users\Helon\AppData\Local\Temp\ccys0XsA.s 			page 394


 17713      455F4556 
 17713      545F5343 
 17713      5053435F 
 17713      4E4F5449 
 17714              	.LASF395:
 17715 2756 4359424C 		.ascii	"CYBLE_EVT_HIDSS_REPORT_MODE_ENTER\000"
 17715      455F4556 
 17715      545F4849 
 17715      4453535F 
 17715      5245504F 
 17716              	.LASF374:
 17717 2778 4359424C 		.ascii	"CYBLE_EVT_ESSC_NOTIFICATION\000"
 17717      455F4556 
 17717      545F4553 
 17717      53435F4E 
 17717      4F544946 
 17718              	.LASF109:
 17719 2794 4359424C 		.ascii	"CYBLE_ERROR_FLASH_WRITE_NOT_PERMITED\000"
 17719      455F4552 
 17719      524F525F 
 17719      464C4153 
 17719      485F5752 
 17720              	.LASF393:
 17721 27b9 4359424C 		.ascii	"CYBLE_EVT_HIDSS_NOTIFICATION_DISABLED\000"
 17721      455F4556 
 17721      545F4849 
 17721      4453535F 
 17721      4E4F5449 
 17722              	.LASF73:
 17723 27df 4359424C 		.ascii	"CYBLE_EVT_GATTS_READ_CHAR_VAL_ACCESS_REQ\000"
 17723      455F4556 
 17723      545F4741 
 17723      5454535F 
 17723      52454144 
 17724              	.LASF280:
 17725 2808 4359424C 		.ascii	"CYBLE_EVT_ANCSC_READ_DESCR_RESPONSE\000"
 17725      455F4556 
 17725      545F414E 
 17725      4353435F 
 17725      52454144 
 17726              	.LASF599:
 17727 282c 53797374 		.ascii	"SystemInitialization\000"
 17727      656D496E 
 17727      69746961 
 17727      6C697A61 
 17727      74696F6E 
 17728              	.LASF649:
 17729 2841 6379426C 		.ascii	"cyBle_state\000"
 17729      655F7374 
 17729      61746500 
 17730              	.LASF234:
 17731 284d 61747472 		.ascii	"attrHandle\000"
 17731      48616E64 
 17731      6C6500
 17732              	.LASF483:
 17733 2858 4359424C 		.ascii	"CYBLE_EVT_UDSC_NOTIFICATION\000"
 17733      455F4556 
ARM GAS  C:\Users\Helon\AppData\Local\Temp\ccys0XsA.s 			page 395


 17733      545F5544 
 17733      53435F4E 
 17733      4F544946 
 17734              	.LASF497:
 17735 2874 4359424C 		.ascii	"CYBLE_EVT_WPTSC_WRITE_CHAR_RESPONSE\000"
 17735      455F4556 
 17735      545F5750 
 17735      5453435F 
 17735      57524954 
 17736              	.LASF189:
 17737 2898 626F6E64 		.ascii	"bonding\000"
 17737      696E6700 
 17738              	.LASF243:
 17739 28a0 4359424C 		.ascii	"CYBLE_GATTS_WRITE_REQ_PARAM_T\000"
 17739      455F4741 
 17739      5454535F 
 17739      57524954 
 17739      455F5245 
 17740              	.LASF13:
 17741 28be 756E7369 		.ascii	"unsigned int\000"
 17741      676E6564 
 17741      20696E74 
 17741      00
 17742              	.LASF65:
 17743 28cb 4359424C 		.ascii	"CYBLE_EVT_GATTS_PREP_WRITE_REQ\000"
 17743      455F4556 
 17743      545F4741 
 17743      5454535F 
 17743      50524550 
 17744              	.LASF739:
 17745 28ea 4379426C 		.ascii	"CyBle_GetRssi\000"
 17745      655F4765 
 17745      74527373 
 17745      6900
 17746              	.LASF358:
 17747 28f8 4359424C 		.ascii	"CYBLE_EVT_CTSS_NOTIFICATION_DISABLED\000"
 17747      455F4556 
 17747      545F4354 
 17747      53535F4E 
 17747      4F544946 
 17748              	.LASF484:
 17749 291d 4359424C 		.ascii	"CYBLE_EVT_UDSC_READ_CHAR_RESPONSE\000"
 17749      455F4556 
 17749      545F5544 
 17749      53435F52 
 17749      4541445F 
 17750              	.LASF305:
 17751 293f 4359424C 		.ascii	"CYBLE_EVT_BLSS_INDICATION_DISABLED\000"
 17751      455F4556 
 17751      545F424C 
 17751      53535F49 
 17751      4E444943 
 17752              	.LASF586:
 17753 2962 77726974 		.ascii	"writeParam\000"
 17753      65506172 
 17753      616D00
 17754              	.LASF143:
ARM GAS  C:\Users\Helon\AppData\Local\Temp\ccys0XsA.s 			page 396


 17755 296d 4359424C 		.ascii	"CYBLE_LL_CONN_CH_TYPE\000"
 17755      455F4C4C 
 17755      5F434F4E 
 17755      4E5F4348 
 17755      5F545950 
 17756              	.LASF464:
 17757 2983 4359424C 		.ascii	"CYBLE_EVT_SCPSS_NOTIFICATION_DISABLED\000"
 17757      455F4556 
 17757      545F5343 
 17757      5053535F 
 17757      4E4F5449 
 17758              	.LASF673:
 17759 29a9 41555448 		.ascii	"AUTHFLAG\000"
 17759      464C4147 
 17759      00
 17760              	.LASF540:
 17761 29b2 72785472 		.ascii	"rxTriggerLevel\000"
 17761      69676765 
 17761      724C6576 
 17761      656C00
 17762              	.LASF370:
 17763 29c1 4359424C 		.ascii	"CYBLE_EVT_ESSS_INDICATION_CONFIRMATION\000"
 17763      455F4556 
 17763      545F4553 
 17763      53535F49 
 17763      4E444943 
 17764              	.LASF256:
 17765 29e8 4359424C 		.ascii	"CYBLE_AUTHENTICATION_REQUEST_REPLY\000"
 17765      455F4155 
 17765      5448454E 
 17765      54494341 
 17765      54494F4E 
 17766              	.LASF691:
 17767 2a0b 54696D65 		.ascii	"Timer_ClearInterrupt\000"
 17767      725F436C 
 17767      65617249 
 17767      6E746572 
 17767      72757074 
 17768              	.LASF101:
 17769 2a20 4359424C 		.ascii	"CYBLE_ERROR_L2CAP_PSM_WRONG_ENCODING\000"
 17769      455F4552 
 17769      524F525F 
 17769      4C324341 
 17769      505F5053 
 17770              	.LASF444:
 17771 2a45 4359424C 		.ascii	"CYBLE_EVT_PASSC_NOTIFICATION\000"
 17771      455F4556 
 17771      545F5041 
 17771      5353435F 
 17771      4E4F5449 
 17772              	.LASF308:
 17773 2a62 4359424C 		.ascii	"CYBLE_EVT_BLSS_NOTIFICATION_DISABLED\000"
 17773      455F4556 
 17773      545F424C 
 17773      53535F4E 
 17773      4F544946 
 17774              	.LASF553:
ARM GAS  C:\Users\Helon\AppData\Local\Temp\ccys0XsA.s 			page 397


 17775 2a87 4C414444 		.ascii	"LADDR\000"
 17775      5200
 17776              	.LASF421:
 17777 2a8d 4359424C 		.ascii	"CYBLE_EVT_HTSC_WRITE_CHAR_RESPONSE\000"
 17777      455F4556 
 17777      545F4854 
 17777      53435F57 
 17777      52495445 
 17778              	.LASF249:
 17779 2ab0 6C697374 		.ascii	"list\000"
 17779      00
 17780              	.LASF87:
 17781 2ab5 4359424C 		.ascii	"CYBLE_EVT_MAX\000"
 17781      455F4556 
 17781      545F4D41 
 17781      5800
 17782              	.LASF48:
 17783 2ac3 4359424C 		.ascii	"CYBLE_EVT_GAPC_SCAN_START_STOP\000"
 17783      455F4556 
 17783      545F4741 
 17783      50435F53 
 17783      43414E5F 
 17784              	.LASF558:
 17785 2ae2 434F4E4E 		.ascii	"CONNI\000"
 17785      4900
 17786              	.LASF283:
 17787 2ae8 4359424C 		.ascii	"CYBLE_EVT_ANSS_NOTIFICATION_ENABLED\000"
 17787      455F4556 
 17787      545F414E 
 17787      53535F4E 
 17787      4F544946 
 17788              	.LASF161:
 17789 2b0c 4359424C 		.ascii	"CYBLE_GAPP_ADV_T\000"
 17789      455F4741 
 17789      50505F41 
 17789      44565F54 
 17789      00
 17790              	.LASF187:
 17791 2b1d 4359424C 		.ascii	"CYBLE_GAP_AUTH_FAILED_REASON_T\000"
 17791      455F4741 
 17791      505F4155 
 17791      54485F46 
 17791      41494C45 
 17792              	.LASF62:
 17793 2b3c 4359424C 		.ascii	"CYBLE_EVT_GATTS_WRITE_REQ\000"
 17793      455F4556 
 17793      545F4741 
 17793      5454535F 
 17793      57524954 
 17794              	.LASF671:
 17795 2b56 436F6E6E 		.ascii	"ConnParam\000"
 17795      50617261 
 17795      6D00
 17796              	.LASF202:
 17797 2b60 61647644 		.ascii	"advData\000"
 17797      61746100 
 17798              	.LASF603:
ARM GAS  C:\Users\Helon\AppData\Local\Temp\ccys0XsA.s 			page 398


 17799 2b68 53747269 		.ascii	"String\000"
 17799      6E6700
 17800              	.LASF71:
 17801 2b6f 4359424C 		.ascii	"CYBLE_EVT_GATTS_DATA_SIGNED_CMD_REQ\000"
 17801      455F4556 
 17801      545F4741 
 17801      5454535F 
 17801      44415441 
 17802              	.LASF532:
 17803 2b93 74784275 		.ascii	"txBufferSize\000"
 17803      66666572 
 17803      53697A65 
 17803      00
 17804              	.LASF485:
 17805 2ba0 4359424C 		.ascii	"CYBLE_EVT_UDSC_WRITE_CHAR_RESPONSE\000"
 17805      455F4556 
 17805      545F5544 
 17805      53435F57 
 17805      52495445 
 17806              	.LASF641:
 17807 2bc3 75617274 		.ascii	"uartIdleCount\000"
 17807      49646C65 
 17807      436F756E 
 17807      7400
 17808              	.LASF496:
 17809 2bd1 4359424C 		.ascii	"CYBLE_EVT_WPTSC_INDICATION\000"
 17809      455F4556 
 17809      545F5750 
 17809      5453435F 
 17809      494E4449 
 17810              	.LASF575:
 17811 2bec 44657669 		.ascii	"DeviceAddr\000"
 17811      63654164 
 17811      647200
 17812              	.LASF40:
 17813 2bf7 4359424C 		.ascii	"CYBLE_EVT_GAP_PASSKEY_DISPLAY_REQUEST\000"
 17813      455F4556 
 17813      545F4741 
 17813      505F5041 
 17813      53534B45 
 17814              	.LASF113:
 17815 2c1d 4359424C 		.ascii	"CYBLE_ERROR_IND_DISABLED\000"
 17815      455F4552 
 17815      524F525F 
 17815      494E445F 
 17815      44495341 
 17816              	.LASF112:
 17817 2c36 4359424C 		.ascii	"CYBLE_ERROR_NTF_DISABLED\000"
 17817      455F4552 
 17817      524F525F 
 17817      4E54465F 
 17817      44495341 
 17818              	.LASF741:
 17819 2c4f 4379426C 		.ascii	"CyBle_GapAuthReq\000"
 17819      655F4761 
 17819      70417574 
 17819      68526571 
ARM GAS  C:\Users\Helon\AppData\Local\Temp\ccys0XsA.s 			page 399


 17819      00
 17820              	.LASF610:
 17821 2c60 436F6E6E 		.ascii	"Connect_Device\000"
 17821      6563745F 
 17821      44657669 
 17821      636500
 17822              	.LASF663:
 17823 2c6f 54726F75 		.ascii	"TroughtTest_Flag\000"
 17823      67687454 
 17823      6573745F 
 17823      466C6167 
 17823      00
 17824              	.LASF59:
 17825 2c80 4359424C 		.ascii	"CYBLE_EVT_GATTC_READ_RSP\000"
 17825      455F4556 
 17825      545F4741 
 17825      5454435F 
 17825      52454144 
 17826              	.LASF157:
 17827 2c99 4359424C 		.ascii	"CYBLE_GAPP_CONNECTABLE_HIGH_DC_DIRECTED_ADV\000"
 17827      455F4741 
 17827      50505F43 
 17827      4F4E4E45 
 17827      43544142 
 17828              	.LASF365:
 17829 2cc5 4359424C 		.ascii	"CYBLE_EVT_DISC_READ_CHAR_RESPONSE\000"
 17829      455F4556 
 17829      545F4449 
 17829      53435F52 
 17829      4541445F 
 17830              	.LASF78:
 17831 2ce7 4359424C 		.ascii	"CYBLE_EVT_L2CAP_CBFC_CONN_CNF\000"
 17831      455F4556 
 17831      545F4C32 
 17831      4341505F 
 17831      43424643 
 17832              	.LASF316:
 17833 2d05 4359424C 		.ascii	"CYBLE_EVT_BMSC_WRITE_CHAR_RESPONSE\000"
 17833      455F4556 
 17833      545F424D 
 17833      53435F57 
 17833      52495445 
 17834              	.LASF422:
 17835 2d28 4359424C 		.ascii	"CYBLE_EVT_HTSC_READ_DESCR_RESPONSE\000"
 17835      455F4556 
 17835      545F4854 
 17835      53435F52 
 17835      4541445F 
 17836              	.LASF508:
 17837 2d4b 4359424C 		.ascii	"CYBLE_DEBUG_EVT_BLESS_INT\000"
 17837      455F4445 
 17837      4255475F 
 17837      4556545F 
 17837      424C4553 
 17838              	.LASF385:
 17839 2d65 4359424C 		.ascii	"CYBLE_EVT_GLSS_WRITE_CHAR\000"
 17839      455F4556 
ARM GAS  C:\Users\Helon\AppData\Local\Temp\ccys0XsA.s 			page 400


 17839      545F474C 
 17839      53535F57 
 17839      52495445 
 17840              	.LASF492:
 17841 2d7f 4359424C 		.ascii	"CYBLE_EVT_WPTSS_INDICATION_DISABLED\000"
 17841      455F4556 
 17841      545F5750 
 17841      5453535F 
 17841      494E4449 
 17842              	.LASF210:
 17843 2da3 61647654 		.ascii	"advTo\000"
 17843      6F00
 17844              	.LASF719:
 17845 2da9 7374726E 		.ascii	"strncmp\000"
 17845      636D7000 
 17846              	.LASF321:
 17847 2db1 4359424C 		.ascii	"CYBLE_EVT_CGMSS_NOTIFICATION_ENABLED\000"
 17847      455F4556 
 17847      545F4347 
 17847      4D53535F 
 17847      4E4F5449 
 17848              	.LASF134:
 17849 2dd6 4359424C 		.ascii	"CYBLE_LL_PWR_LVL_NEG_6_DBM\000"
 17849      455F4C4C 
 17849      5F505752 
 17849      5F4C564C 
 17849      5F4E4547 
 17850              	.LASF254:
 17851 2df1 4359424C 		.ascii	"CYBLE_GATTC_FIND_INFO_RSP_PARAM_T\000"
 17851      455F4741 
 17851      5454435F 
 17851      46494E44 
 17851      5F494E46 
 17852              	.LASF407:
 17853 2e13 4359424C 		.ascii	"CYBLE_EVT_HRSC_NOTIFICATION\000"
 17853      455F4556 
 17853      545F4852 
 17853      53435F4E 
 17853      4F544946 
 17854              	.LASF453:
 17855 2e2f 4359424C 		.ascii	"CYBLE_EVT_RSCSS_INDICATION_CONFIRMATION\000"
 17855      455F4556 
 17855      545F5253 
 17855      4353535F 
 17855      494E4449 
 17856              	.LASF628:
 17857 2e57 41647650 		.ascii	"AdvParam\000"
 17857      6172616D 
 17857      00
 17858              	.LASF688:
 17859 2e60 4379426C 		.ascii	"CyBle_GattsExchangeMtuRsp\000"
 17859      655F4761 
 17859      74747345 
 17859      78636861 
 17859      6E67654D 
 17860              	.LASF402:
 17861 2e7a 4359424C 		.ascii	"CYBLE_EVT_HIDSC_READ_DESCR_RESPONSE\000"
ARM GAS  C:\Users\Helon\AppData\Local\Temp\ccys0XsA.s 			page 401


 17861      455F4556 
 17861      545F4849 
 17861      4453435F 
 17861      52454144 
 17862              	.LASF408:
 17863 2e9e 4359424C 		.ascii	"CYBLE_EVT_HRSC_READ_CHAR_RESPONSE\000"
 17863      455F4556 
 17863      545F4852 
 17863      53435F52 
 17863      4541445F 
 17864              	.LASF293:
 17865 2ec0 4359424C 		.ascii	"CYBLE_EVT_BASC_NOTIFICATION\000"
 17865      455F4556 
 17865      545F4241 
 17865      53435F4E 
 17865      4F544946 
 17866              	.LASF174:
 17867 2edc 4359424C 		.ascii	"CYBLE_GAP_AUTH_ERROR_NONE\000"
 17867      455F4741 
 17867      505F4155 
 17867      54485F45 
 17867      52524F52 
 17868              	.LASF46:
 17869 2ef6 4359424C 		.ascii	"CYBLE_EVT_GAP_ENCRYPT_CHANGE\000"
 17869      455F4556 
 17869      545F4741 
 17869      505F454E 
 17869      43525950 
 17870              	.LASF477:
 17871 2f13 4359424C 		.ascii	"CYBLE_EVT_UDSS_INDICATION_CONFIRMED\000"
 17871      455F4556 
 17871      545F5544 
 17871      53535F49 
 17871      4E444943 
 17872              	.LASF642:
 17873 2f37 75617274 		.ascii	"uartTxDataNtf\000"
 17873      54784461 
 17873      74614E74 
 17873      6600
 17874              	.LASF571:
 17875 2f45 494F4341 		.ascii	"IOCAP\000"
 17875      5000
 17876              	.LASF440:
 17877 2f4b 4359424C 		.ascii	"CYBLE_EVT_NDCSC_READ_CHAR_RESPONSE\000"
 17877      455F4556 
 17877      545F4E44 
 17877      4353435F 
 17877      52454144 
 17878              	.LASF709:
 17879 2f6e 4354535F 		.ascii	"CTS_SetDriveMode\000"
 17879      53657444 
 17879      72697665 
 17879      4D6F6465 
 17879      00
 17880              	.LASF269:
 17881 2f7f 4359424C 		.ascii	"CYBLE_EVT_GATTC_DESCR_DUPLICATION\000"
 17881      455F4556 
ARM GAS  C:\Users\Helon\AppData\Local\Temp\ccys0XsA.s 			page 402


 17881      545F4741 
 17881      5454435F 
 17881      44455343 
 17882              	.LASF752:
 17883 2fa1 5F5F6275 		.ascii	"__builtin_puts\000"
 17883      696C7469 
 17883      6E5F7075 
 17883      747300
 17884              	.LASF743:
 17885 2fb0 55415254 		.ascii	"UART_UartGetByte\000"
 17885      5F556172 
 17885      74476574 
 17885      42797465 
 17885      00
 17886              	.LASF53:
 17887 2fc1 4359424C 		.ascii	"CYBLE_EVT_GATTS_XCNHG_MTU_REQ\000"
 17887      455F4556 
 17887      545F4741 
 17887      5454535F 
 17887      58434E48 
 17888              	.LASF478:
 17889 2fdf 4359424C 		.ascii	"CYBLE_EVT_UDSS_NOTIFICATION_ENABLED\000"
 17889      455F4556 
 17889      545F5544 
 17889      53535F4E 
 17889      4F544946 
 17890              	.LASF655:
 17891 3003 4C6F7750 		.ascii	"LowPower_EN\000"
 17891      6F776572 
 17891      5F454E00 
 17892              	.LASF176:
 17893 300f 4359424C 		.ascii	"CYBLE_GAP_AUTH_ERROR_OOB_DATA_NOT_AVAILABLE\000"
 17893      455F4741 
 17893      505F4155 
 17893      54485F45 
 17893      52524F52 
 17894              	.LASF535:
 17895 303b 6D756C74 		.ascii	"multiprocAcceptAddr\000"
 17895      6970726F 
 17895      63416363 
 17895      65707441 
 17895      64647200 
 17896              	.LASF28:
 17897 304f 63796973 		.ascii	"cyisraddress\000"
 17897      72616464 
 17897      72657373 
 17897      00
 17898              	.LASF430:
 17899 305c 4359424C 		.ascii	"CYBLE_EVT_LNSS_INDICATION_CONFIRMED\000"
 17899      455F4556 
 17899      545F4C4E 
 17899      53535F49 
 17899      4E444943 
 17900              	.LASF616:
 17901 3080 70625372 		.ascii	"pbSrc\000"
 17901      6300
 17902              	.LASF502:
ARM GAS  C:\Users\Helon\AppData\Local\Temp\ccys0XsA.s 			page 403


 17903 3086 4359424C 		.ascii	"CYBLE_EVT_WSSS_INDICATION_DISABLED\000"
 17903      455F4556 
 17903      545F5753 
 17903      53535F49 
 17903      4E444943 
 17904              	.LASF246:
 17905 30a9 4359424C 		.ascii	"CYBLE_GATTC_WRITE_CMD_REQ_T\000"
 17905      455F4741 
 17905      5454435F 
 17905      57524954 
 17905      455F434D 
 17906              	.LASF436:
 17907 30c5 4359424C 		.ascii	"CYBLE_EVT_LNSC_READ_CHAR_RESPONSE\000"
 17907      455F4556 
 17907      545F4C4E 
 17907      53435F52 
 17907      4541445F 
 17908              	.LASF0:
 17909 30e7 5F5F696E 		.ascii	"__int8_t\000"
 17909      74385F74 
 17909      00
 17910              	.LASF117:
 17911 30f0 4359424C 		.ascii	"CYBLE_BLESS_ACTIVE\000"
 17911      455F424C 
 17911      4553535F 
 17911      41435449 
 17911      564500
 17912              	.LASF226:
 17913 3103 4359424C 		.ascii	"CYBLE_GAP_CONN_PARAM_UPDATED_IN_CONTROLLER_T\000"
 17913      455F4741 
 17913      505F434F 
 17913      4E4E5F50 
 17913      4152414D 
 17914              	.LASF516:
 17915 3130 4359424C 		.ascii	"CYBLE_STATE_T\000"
 17915      455F5354 
 17915      4154455F 
 17915      5400
 17916              	.LASF612:
 17917 313e 5478506F 		.ascii	"TxPower_Handler\000"
 17917      7765725F 
 17917      48616E64 
 17917      6C657200 
 17918              	.LASF652:
 17919 314e 44657669 		.ascii	"DeviceCount\000"
 17919      6365436F 
 17919      756E7400 
 17920              	.LASF260:
 17921 315a 4359424C 		.ascii	"CYBLE_EVT_GATTS_INDICATION_ENABLED\000"
 17921      455F4556 
 17921      545F4741 
 17921      5454535F 
 17921      494E4449 
 17922              	.LASF12:
 17923 317d 6C6F6E67 		.ascii	"long long unsigned int\000"
 17923      206C6F6E 
 17923      6720756E 
ARM GAS  C:\Users\Helon\AppData\Local\Temp\ccys0XsA.s 			page 404


 17923      7369676E 
 17923      65642069 
 17924              	.LASF701:
 17925 3194 43794465 		.ascii	"CyDelay\000"
 17925      6C617900 
 17926              	.LASF33:
 17927 319c 4359424C 		.ascii	"CYBLE_EVT_TIMEOUT\000"
 17927      455F4556 
 17927      545F5449 
 17927      4D454F55 
 17927      5400
 17928              	.LASF362:
 17929 31ae 4359424C 		.ascii	"CYBLE_EVT_CTSC_READ_DESCR_RESPONSE\000"
 17929      455F4556 
 17929      545F4354 
 17929      53435F52 
 17929      4541445F 
 17930              	.LASF680:
 17931 31d1 53544F50 		.ascii	"STOP_SCAN_FLAG\000"
 17931      5F534341 
 17931      4E5F464C 
 17931      414700
 17932              	.LASF17:
 17933 31e0 75696E74 		.ascii	"uint16_t\000"
 17933      31365F74 
 17933      00
 17934              	.LASF27:
 17935 31e9 72656733 		.ascii	"reg32\000"
 17935      3200
 17936              	.LASF567:
 17937 31ef 4E4F5449 		.ascii	"NOTIFY\000"
 17937      465900
 17938              	.LASF252:
 17939 31f6 68616E64 		.ascii	"handleValueList\000"
 17939      6C655661 
 17939      6C75654C 
 17939      69737400 
 17940              	.LASF527:
 17941 3206 64726F70 		.ascii	"dropOnParityErr\000"
 17941      4F6E5061 
 17941      72697479 
 17941      45727200 
 17942              	.LASF115:
 17943 3216 4359424C 		.ascii	"CYBLE_ERROR_INVALID_STATE\000"
 17943      455F4552 
 17943      524F525F 
 17943      494E5641 
 17943      4C49445F 
 17944              	.LASF227:
 17945 3230 4359424C 		.ascii	"CYBLE_GATT_DB_ATTR_HANDLE_T\000"
 17945      455F4741 
 17945      54545F44 
 17945      425F4154 
 17945      54525F48 
 17946              	.LASF523:
 17947 324c 656E6162 		.ascii	"enableIrdaLowPower\000"
 17947      6C654972 
ARM GAS  C:\Users\Helon\AppData\Local\Temp\ccys0XsA.s 			page 405


 17947      64614C6F 
 17947      77506F77 
 17947      657200
 17948              	.LASF81:
 17949 325f 4359424C 		.ascii	"CYBLE_EVT_L2CAP_CBFC_DATA_READ\000"
 17949      455F4556 
 17949      545F4C32 
 17949      4341505F 
 17949      43424643 
 17950              	.LASF302:
 17951 327e 4359424C 		.ascii	"CYBLE_EVT_BCSC_READ_DESCR_RESPONSE\000"
 17951      455F4556 
 17951      545F4243 
 17951      53435F52 
 17951      4541445F 
 17952              	.LASF233:
 17953 32a1 76616C75 		.ascii	"value\000"
 17953      6500
 17954              	.LASF338:
 17955 32a7 4359424C 		.ascii	"CYBLE_EVT_CPSC_NOTIFICATION\000"
 17955      455F4556 
 17955      545F4350 
 17955      53435F4E 
 17955      4F544946 
 17956              	.LASF313:
 17957 32c3 4359424C 		.ascii	"CYBLE_EVT_BLSC_WRITE_DESCR_RESPONSE\000"
 17957      455F4556 
 17957      545F424C 
 17957      53435F57 
 17957      52495445 
 17958              	.LASF661:
 17959 32e7 436F6E6E 		.ascii	"Conn_or_Disconn_Idx\000"
 17959      5F6F725F 
 17959      44697363 
 17959      6F6E6E5F 
 17959      49647800 
 17960              	.LASF694:
 17961 32fb 4379426C 		.ascii	"CyBle_EnterLPM\000"
 17961      655F456E 
 17961      7465724C 
 17961      504D00
 17962              	.LASF668:
 17963 330a 436F6D6D 		.ascii	"CommandMode\000"
 17963      616E644D 
 17963      6F646500 
 17964              	.LASF435:
 17965 3316 4359424C 		.ascii	"CYBLE_EVT_LNSC_NOTIFICATION\000"
 17965      455F4556 
 17965      545F4C4E 
 17965      53435F4E 
 17965      4F544946 
 17966              	.LASF640:
 17967 3332 75617274 		.ascii	"uartTxDataLength\000"
 17967      54784461 
 17967      74614C65 
 17967      6E677468 
 17967      00
ARM GAS  C:\Users\Helon\AppData\Local\Temp\ccys0XsA.s 			page 406


 17968              	.LASF597:
 17969 3343 44495649 		.ascii	"DIVIDER_CLOCK\000"
 17969      4445525F 
 17969      434C4F43 
 17969      4B00
 17970              	.LASF360:
 17971 3351 4359424C 		.ascii	"CYBLE_EVT_CTSC_NOTIFICATION\000"
 17971      455F4556 
 17971      545F4354 
 17971      53435F4E 
 17971      4F544946 
 17972              	.LASF679:
 17973 336d 53747269 		.ascii	"StringArry\000"
 17973      6E674172 
 17973      727900
 17974              	.LASF689:
 17975 3378 55415254 		.ascii	"UART_SpiUartWriteTxData\000"
 17975      5F537069 
 17975      55617274 
 17975      57726974 
 17975      65547844 
 17976              	.LASF381:
 17977 3390 4359424C 		.ascii	"CYBLE_EVT_GLSS_INDICATION_DISABLED\000"
 17977      455F4556 
 17977      545F474C 
 17977      53535F49 
 17977      4E444943 
 17978              	.LASF153:
 17979 33b3 4359424C 		.ascii	"CYBLE_GAP_SCAN_TO\000"
 17979      455F4741 
 17979      505F5343 
 17979      414E5F54 
 17979      4F00
 17980              	.LASF163:
 17981 33c5 4359424C 		.ascii	"CYBLE_GAPC_CONN_DIRECTED_ADV\000"
 17981      455F4741 
 17981      50435F43 
 17981      4F4E4E5F 
 17981      44495245 
 17982              	.LASF267:
 17983 33e2 4359424C 		.ascii	"CYBLE_EVT_GATTC_SRVC_DUPLICATION\000"
 17983      455F4556 
 17983      545F4741 
 17983      5454435F 
 17983      53525643 
 17984              	.LASF737:
 17985 3403 5363616E 		.ascii	"ScanDeviceInfoInit\000"
 17985      44657669 
 17985      6365496E 
 17985      666F496E 
 17985      697400
 17986              	.LASF428:
 17987 3416 4359424C 		.ascii	"CYBLE_EVT_LNSS_INDICATION_ENABLED\000"
 17987      455F4556 
 17987      545F4C4E 
 17987      53535F49 
 17987      4E444943 
ARM GAS  C:\Users\Helon\AppData\Local\Temp\ccys0XsA.s 			page 407


 17988              	.LASF151:
 17989 3438 4359424C 		.ascii	"CYBLE_GAP_BD_ADDR_T\000"
 17989      455F4741 
 17989      505F4244 
 17989      5F414444 
 17989      525F5400 
 17990              	.LASF409:
 17991 344c 4359424C 		.ascii	"CYBLE_EVT_HRSC_WRITE_CHAR_RESPONSE\000"
 17991      455F4556 
 17991      545F4852 
 17991      53435F57 
 17991      52495445 
 17992              	.LASF585:
 17993 346f 68616E64 		.ascii	"handleValueNotification\000"
 17993      6C655661 
 17993      6C75654E 
 17993      6F746966 
 17993      69636174 
 17994              	.LASF656:
 17995 3487 52585F42 		.ascii	"RX_BUFFER\000"
 17995      55464645 
 17995      5200
 17996              	.LASF686:
 17997 3491 4379426C 		.ascii	"CyBle_GapcConnectionParamUpdateRequest\000"
 17997      655F4761 
 17997      7063436F 
 17997      6E6E6563 
 17997      74696F6E 
 17998              	.LASF726:
 17999 34b8 6D656D73 		.ascii	"memset\000"
 17999      657400
 18000              	.LASF152:
 18001 34bf 4359424C 		.ascii	"CYBLE_GAP_ADV_MODE_TO\000"
 18001      455F4741 
 18001      505F4144 
 18001      565F4D4F 
 18001      44455F54 
 18002              	.LASF441:
 18003 34d5 4359424C 		.ascii	"CYBLE_EVT_PASSS_NOTIFICATION_ENABLED\000"
 18003      455F4556 
 18003      545F5041 
 18003      5353535F 
 18003      4E4F5449 
 18004              	.LASF242:
 18005 34fa 68616E64 		.ascii	"handleValPair\000"
 18005      6C655661 
 18005      6C506169 
 18005      7200
 18006              	.LASF275:
 18007 3508 4359424C 		.ascii	"CYBLE_EVT_ANCSS_NOTIFICATION_DISABLED\000"
 18007      455F4556 
 18007      545F414E 
 18007      4353535F 
 18007      4E4F5449 
 18008              	.LASF583:
 18009 352e 5363616E 		.ascii	"Scan_Result\000"
 18009      5F526573 
ARM GAS  C:\Users\Helon\AppData\Local\Temp\ccys0XsA.s 			page 408


 18009      756C7400 
 18010              	.LASF239:
 18011 353a 636F6E6E 		.ascii	"connHandle\000"
 18011      48616E64 
 18011      6C6500
 18012              	.LASF4:
 18013 3545 5F5F696E 		.ascii	"__int16_t\000"
 18013      7431365F 
 18013      7400
 18014              	.LASF549:
 18015 354f 52455345 		.ascii	"RESET\000"
 18015      5400
 18016              	.LASF292:
 18017 3555 4359424C 		.ascii	"CYBLE_EVT_BASS_NOTIFICATION_DISABLED\000"
 18017      455F4556 
 18017      545F4241 
 18017      53535F4E 
 18017      4F544946 
 18018              	.LASF203:
 18019 357a 61647644 		.ascii	"advDataLen\000"
 18019      6174614C 
 18019      656E00
 18020              	.LASF403:
 18021 3585 4359424C 		.ascii	"CYBLE_EVT_HIDSC_WRITE_DESCR_RESPONSE\000"
 18021      455F4556 
 18021      545F4849 
 18021      4453435F 
 18021      57524954 
 18022              	.LASF330:
 18023 35aa 4359424C 		.ascii	"CYBLE_EVT_CPSS_NOTIFICATION_ENABLED\000"
 18023      455F4556 
 18023      545F4350 
 18023      53535F4E 
 18023      4F544946 
 18024              	.LASF179:
 18025 35ce 4359424C 		.ascii	"CYBLE_GAP_AUTH_ERROR_PAIRING_NOT_SUPPORTED\000"
 18025      455F4741 
 18025      505F4155 
 18025      54485F45 
 18025      52524F52 
 18026              	.LASF538:
 18027 35f9 656E6162 		.ascii	"enableInterrupt\000"
 18027      6C65496E 
 18027      74657272 
 18027      75707400 
 18028              	.LASF473:
 18029 3609 4359424C 		.ascii	"CYBLE_EVT_TPSC_READ_DESCR_RESPONSE\000"
 18029      455F4556 
 18029      545F5450 
 18029      53435F52 
 18029      4541445F 
 18030              	.LASF155:
 18031 362c 4359424C 		.ascii	"CYBLE_GENERIC_TO\000"
 18031      455F4745 
 18031      4E455249 
 18031      435F544F 
 18031      00
ARM GAS  C:\Users\Helon\AppData\Local\Temp\ccys0XsA.s 			page 409


 18032              	.LASF211:
 18033 363d 4359424C 		.ascii	"CYBLE_GAPP_DISC_MODE_INFO_T\000"
 18033      455F4741 
 18033      50505F44 
 18033      4953435F 
 18033      4D4F4445 
 18034              	.LASF660:
 18035 3659 436F6E6E 		.ascii	"Conn_Or_Disconn_Info\000"
 18035      5F4F725F 
 18035      44697363 
 18035      6F6E6E5F 
 18035      496E666F 
 18036              	.LASF488:
 18037 366e 4359424C 		.ascii	"CYBLE_EVT_UDSC_ERROR_RESPONSE\000"
 18037      455F4556 
 18037      545F5544 
 18037      53435F45 
 18037      52524F52 
 18038              	.LASF57:
 18039 368c 4359424C 		.ascii	"CYBLE_EVT_GATTC_FIND_INFO_RSP\000"
 18039      455F4556 
 18039      545F4741 
 18039      5454435F 
 18039      46494E44 
 18040              	.LASF56:
 18041 36aa 4359424C 		.ascii	"CYBLE_EVT_GATTC_READ_BY_TYPE_RSP\000"
 18041      455F4556 
 18041      545F4741 
 18041      5454435F 
 18041      52454144 
 18042              	.LASF442:
 18043 36cb 4359424C 		.ascii	"CYBLE_EVT_PASSS_NOTIFICATION_DISABLED\000"
 18043      455F4556 
 18043      545F5041 
 18043      5353535F 
 18043      4E4F5449 
 18044              	.LASF328:
 18045 36f1 4359424C 		.ascii	"CYBLE_EVT_CGMSC_READ_DESCR_RESPONSE\000"
 18045      455F4556 
 18045      545F4347 
 18045      4D53435F 
 18045      52454144 
 18046              	.LASF717:
 18047 3715 6D616C6C 		.ascii	"malloc\000"
 18047      6F6300
 18048              	.LASF400:
 18049 371c 4359424C 		.ascii	"CYBLE_EVT_HIDSC_READ_CHAR_RESPONSE\000"
 18049      455F4556 
 18049      545F4849 
 18049      4453435F 
 18049      52454144 
 18050              	.LASF522:
 18051 373f 6F766572 		.ascii	"oversample\000"
 18051      73616D70 
 18051      6C6500
 18052              	.LASF521:
 18053 374a 73746F70 		.ascii	"stopBits\000"
ARM GAS  C:\Users\Helon\AppData\Local\Temp\ccys0XsA.s 			page 410


 18053      42697473 
 18053      00
 18054              	.LASF746:
 18055 3753 4379426C 		.ascii	"CyBle_ProcessEvents\000"
 18055      655F5072 
 18055      6F636573 
 18055      73457665 
 18055      6E747300 
 18056              	.LASF623:
 18057 3767 41647644 		.ascii	"AdvData\000"
 18057      61746100 
 18058              	.LASF470:
 18059 376f 4359424C 		.ascii	"CYBLE_EVT_TPSS_NOTIFICATION_DISABLED\000"
 18059      455F4556 
 18059      545F5450 
 18059      53535F4E 
 18059      4F544946 
 18060              	.LASF467:
 18061 3794 4359424C 		.ascii	"CYBLE_EVT_SCPSC_READ_DESCR_RESPONSE\000"
 18061      455F4556 
 18061      545F5343 
 18061      5053435F 
 18061      52454144 
 18062              	.LASF411:
 18063 37b8 4359424C 		.ascii	"CYBLE_EVT_HRSC_WRITE_DESCR_RESPONSE\000"
 18063      455F4556 
 18063      545F4852 
 18063      53435F57 
 18063      52495445 
 18064              	.LASF433:
 18065 37dc 4359424C 		.ascii	"CYBLE_EVT_LNSS_WRITE_CHAR\000"
 18065      455F4556 
 18065      545F4C4E 
 18065      53535F57 
 18065      52495445 
 18066              	.LASF371:
 18067 37f6 4359424C 		.ascii	"CYBLE_EVT_ESSS_CHAR_WRITE\000"
 18067      455F4556 
 18067      545F4553 
 18067      53535F43 
 18067      4841525F 
 18068              	.LASF63:
 18069 3810 4359424C 		.ascii	"CYBLE_EVT_GATTC_WRITE_RSP\000"
 18069      455F4556 
 18069      545F4741 
 18069      5454435F 
 18069      57524954 
 18070              	.LASF366:
 18071 382a 4359424C 		.ascii	"CYBLE_EVT_ESSS_NOTIFICATION_ENABLED\000"
 18071      455F4556 
 18071      545F4553 
 18071      53535F4E 
 18071      4F544946 
 18072              	.LASF716:
 18073 384e 73747263 		.ascii	"strchr\000"
 18073      687200
 18074              	.LASF515:
ARM GAS  C:\Users\Helon\AppData\Local\Temp\ccys0XsA.s 			page 411


 18075 3855 4359424C 		.ascii	"CYBLE_STATE_DISCONNECTED\000"
 18075      455F5354 
 18075      4154455F 
 18075      44495343 
 18075      4F4E4E45 
 18076              	.LASF388:
 18077 386e 4359424C 		.ascii	"CYBLE_EVT_GLSC_READ_CHAR_RESPONSE\000"
 18077      455F4556 
 18077      545F474C 
 18077      53435F52 
 18077      4541445F 
 18078              	.LASF565:
 18079 3890 44495341 		.ascii	"DISALLCHAR\000"
 18079      4C4C4348 
 18079      415200
 18080              	.LASF646:
 18081 389b 5F5F6374 		.ascii	"__ctype_ptr__\000"
 18081      7970655F 
 18081      7074725F 
 18081      5F00
 18082              	.LASF604:
 18083 38a9 53656E64 		.ascii	"SendNotification\000"
 18083      4E6F7469 
 18083      66696361 
 18083      74696F6E 
 18083      00
 18084              	.LASF455:
 18085 38ba 4359424C 		.ascii	"CYBLE_EVT_RSCSC_NOTIFICATION\000"
 18085      455F4556 
 18085      545F5253 
 18085      4353435F 
 18085      4E4F5449 
 18086              	.LASF654:
 18087 38d7 636F6E66 		.ascii	"configUart\000"
 18087      69675561 
 18087      727400
 18088              	.LASF699:
 18089 38e2 43795379 		.ascii	"CySysPmDeepSleep\000"
 18089      73506D44 
 18089      65657053 
 18089      6C656570 
 18089      00
 18090              	.LASF43:
 18091 38f3 4359424C 		.ascii	"CYBLE_EVT_GAPP_ADVERTISEMENT_START_STOP\000"
 18091      455F4556 
 18091      545F4741 
 18091      50505F41 
 18091      44564552 
 18092              	.LASF207:
 18093 391b 4359424C 		.ascii	"CYBLE_GAPP_SCAN_RSP_DATA_T\000"
 18093      455F4741 
 18093      50505F53 
 18093      43414E5F 
 18093      5253505F 
 18094              	.LASF499:
 18095 3936 4359424C 		.ascii	"CYBLE_EVT_WPTSC_READ_DESCR_RESPONSE\000"
 18095      455F4556 
ARM GAS  C:\Users\Helon\AppData\Local\Temp\ccys0XsA.s 			page 412


 18095      545F5750 
 18095      5453435F 
 18095      52454144 
 18096              	.LASF277:
 18097 395a 4359424C 		.ascii	"CYBLE_EVT_ANCSC_NOTIFICATION\000"
 18097      455F4556 
 18097      545F414E 
 18097      4353435F 
 18097      4E4F5449 
 18098              	.LASF327:
 18099 3977 4359424C 		.ascii	"CYBLE_EVT_CGMSC_WRITE_CHAR_RESPONSE\000"
 18099      455F4556 
 18099      545F4347 
 18099      4D53435F 
 18099      57524954 
 18100              	.LASF382:
 18101 399b 4359424C 		.ascii	"CYBLE_EVT_GLSS_INDICATION_CONFIRMED\000"
 18101      455F4556 
 18101      545F474C 
 18101      53535F49 
 18101      4E444943 
 18102              	.LASF19:
 18103 39bf 75696E74 		.ascii	"uint8\000"
 18103      3800
 18104              	.LASF420:
 18105 39c5 4359424C 		.ascii	"CYBLE_EVT_HTSC_READ_CHAR_RESPONSE\000"
 18105      455F4556 
 18105      545F4854 
 18105      53435F52 
 18105      4541445F 
 18106              	.LASF608:
 18107 39e7 53656E64 		.ascii	"SendDataStruct\000"
 18107      44617461 
 18107      53747275 
 18107      637400
 18108              	.LASF670:
 18109 39f6 696F6361 		.ascii	"iocapability\000"
 18109      70616269 
 18109      6C697479 
 18109      00
 18110              	.LASF596:
 18111 3a03 53657455 		.ascii	"SetUartConfiguration\000"
 18111      61727443 
 18111      6F6E6669 
 18111      67757261 
 18111      74696F6E 
 18112              	.LASF188:
 18113 3a18 73656375 		.ascii	"security\000"
 18113      72697479 
 18113      00
 18114              	.LASF448:
 18115 3a21 4359424C 		.ascii	"CYBLE_EVT_PASSC_WRITE_DESCR_RESPONSE\000"
 18115      455F4556 
 18115      545F5041 
 18115      5353435F 
 18115      57524954 
 18116              	.LASF650:
ARM GAS  C:\Users\Helon\AppData\Local\Temp\ccys0XsA.s 			page 413


 18117 3a46 6379426C 		.ascii	"cyBle_connHandle\000"
 18117      655F636F 
 18117      6E6E4861 
 18117      6E646C65 
 18117      00
 18118              	.LASF570:
 18119 3a57 41555448 		.ascii	"AUTH\000"
 18119      00
 18120              	.LASF5:
 18121 3a5c 73686F72 		.ascii	"short int\000"
 18121      7420696E 
 18121      7400
 18122              	.LASF191:
 18123 3a66 61757468 		.ascii	"authErr\000"
 18123      45727200 
 18124              	.LASF731:
 18125 3a6e 4379426C 		.ascii	"CyBle_GapSetLocalName\000"
 18125      655F4761 
 18125      70536574 
 18125      4C6F6361 
 18125      6C4E616D 
 18126              	.LASF314:
 18127 3a84 4359424C 		.ascii	"CYBLE_EVT_BMSS_WRITE_CHAR\000"
 18127      455F4556 
 18127      545F424D 
 18127      53535F57 
 18127      52495445 
 18128              	.LASF517:
 18129 3a9e 6D6F6465 		.ascii	"mode\000"
 18129      00
 18130              	.LASF261:
 18131 3aa3 4359424C 		.ascii	"CYBLE_EVT_GATTS_INDICATION_DISABLED\000"
 18131      455F4556 
 18131      545F4741 
 18131      5454535F 
 18131      494E4449 
 18132              	.LASF164:
 18133 3ac7 4359424C 		.ascii	"CYBLE_GAPC_SCAN_UNDIRECTED_ADV\000"
 18133      455F4741 
 18133      50435F53 
 18133      43414E5F 
 18133      554E4449 
 18134              	.LASF605:
 18135 3ae6 4150495F 		.ascii	"API_RESULT\000"
 18135      52455355 
 18135      4C5400
 18136              	.LASF206:
 18137 3af1 7363616E 		.ascii	"scanRspDataLen\000"
 18137      52737044 
 18137      6174614C 
 18137      656E00
 18138              	.LASF742:
 18139 3b00 55415254 		.ascii	"UART_SpiUartGetRxBufferSize\000"
 18139      5F537069 
 18139      55617274 
 18139      47657452 
 18139      78427566 
ARM GAS  C:\Users\Helon\AppData\Local\Temp\ccys0XsA.s 			page 414


 18140              	.LASF594:
 18141 3b1c 4D795F49 		.ascii	"My_ISR_UART\000"
 18141      53525F55 
 18141      41525400 
 18142              	.LASF561:
 18143 3b28 434F4E4E 		.ascii	"CONNT\000"
 18143      5400
 18144              	.LASF298:
 18145 3b2e 4359424C 		.ascii	"CYBLE_EVT_BCSS_INDICATION_DISABLED\000"
 18145      455F4556 
 18145      545F4243 
 18145      53535F49 
 18145      4E444943 
 18146              	.LASF325:
 18147 3b51 4359424C 		.ascii	"CYBLE_EVT_CGMSC_NOTIFICATION\000"
 18147      455F4556 
 18147      545F4347 
 18147      4D53435F 
 18147      4E4F5449 
 18148              	.LASF16:
 18149 3b6e 696E7431 		.ascii	"int16_t\000"
 18149      365F7400 
 18150              	.LASF50:
 18151 3b76 4359424C 		.ascii	"CYBLE_EVT_GATTC_ERROR_RSP\000"
 18151      455F4556 
 18151      545F4741 
 18151      5454435F 
 18151      4552524F 
 18152              	.LASF172:
 18153 3b90 4359424C 		.ascii	"CYBLE_GAP_IOCAP_KEYBOARD_DISPLAY\000"
 18153      455F4741 
 18153      505F494F 
 18153      4341505F 
 18153      4B455942 
 18154              	.LASF238:
 18155 3bb1 4359424C 		.ascii	"CYBLE_GATT_ATTR_HANDLE_RANGE_T\000"
 18155      455F4741 
 18155      54545F41 
 18155      5454525F 
 18155      48414E44 
 18156              	.LASF377:
 18157 3bd0 4359424C 		.ascii	"CYBLE_EVT_ESSC_WRITE_CHAR_RESPONSE\000"
 18157      455F4556 
 18157      545F4553 
 18157      53435F57 
 18157      52495445 
 18158              	.LASF551:
 18159 3bf3 56455253 		.ascii	"VERSION\000"
 18159      494F4E00 
 18160              	.LASF282:
 18161 3bfb 4359424C 		.ascii	"CYBLE_EVT_ANCSC_ERROR_RESPONSE\000"
 18161      455F4556 
 18161      545F414E 
 18161      4353435F 
 18161      4552524F 
 18162              	.LASF253:
 18163 3c1a 75756964 		.ascii	"uuidFormat\000"
ARM GAS  C:\Users\Helon\AppData\Local\Temp\ccys0XsA.s 			page 415


 18163      466F726D 
 18163      617400
 18164              	.LASF380:
 18165 3c25 4359424C 		.ascii	"CYBLE_EVT_GLSS_INDICATION_ENABLED\000"
 18165      455F4556 
 18165      545F474C 
 18165      53535F49 
 18165      4E444943 
 18166              	.LASF285:
 18167 3c47 4359424C 		.ascii	"CYBLE_EVT_ANSS_CHAR_WRITE\000"
 18167      455F4556 
 18167      545F414E 
 18167      53535F43 
 18167      4841525F 
 18168              	.LASF718:
 18169 3c61 7374726E 		.ascii	"strncpy\000"
 18169      63707900 
 18170              	.LASF158:
 18171 3c69 4359424C 		.ascii	"CYBLE_GAPP_SCANNABLE_UNDIRECTED_ADV\000"
 18171      455F4741 
 18171      50505F53 
 18171      43414E4E 
 18171      41424C45 
 18172              	.LASF77:
 18173 3c8d 4359424C 		.ascii	"CYBLE_EVT_L2CAP_CBFC_CONN_IND\000"
 18173      455F4556 
 18173      545F4C32 
 18173      4341505F 
 18173      43424643 
 18174              	.LASF66:
 18175 3cab 4359424C 		.ascii	"CYBLE_EVT_GATTS_EXEC_WRITE_REQ\000"
 18175      455F4556 
 18175      545F4741 
 18175      5454535F 
 18175      45584543 
 18176              	.LASF37:
 18177 3cca 4359424C 		.ascii	"CYBLE_EVT_GAPC_SCAN_PROGRESS_RESULT\000"
 18177      455F4556 
 18177      545F4741 
 18177      50435F53 
 18177      43414E5F 
 18178              	.LASF359:
 18179 3cee 4359424C 		.ascii	"CYBLE_EVT_CTSS_CHAR_WRITE\000"
 18179      455F4556 
 18179      545F4354 
 18179      53535F43 
 18179      4841525F 
 18180              	.LASF475:
 18181 3d08 4359424C 		.ascii	"CYBLE_EVT_UDSS_INDICATION_ENABLED\000"
 18181      455F4556 
 18181      545F5544 
 18181      53535F49 
 18181      4E444943 
 18182              	.LASF648:
 18183 3d2a 6379426C 		.ascii	"cyBle_discoveryModeInfo\000"
 18183      655F6469 
 18183      73636F76 
ARM GAS  C:\Users\Helon\AppData\Local\Temp\ccys0XsA.s 			page 416


 18183      6572794D 
 18183      6F646549 
 18184              	.LASF213:
 18185 3d42 70656572 		.ascii	"peerAddrType\000"
 18185      41646472 
 18185      54797065 
 18185      00
 18186              	.LASF707:
 18187 3d4f 436F6E6E 		.ascii	"Connected_LED_SetDriveMode\000"
 18187      65637465 
 18187      645F4C45 
 18187      445F5365 
 18187      74447269 
 18188              	.LASF97:
 18189 3d6a 4359424C 		.ascii	"CYBLE_ERROR_GAP_ROLE\000"
 18189      455F4552 
 18189      524F525F 
 18189      4741505F 
 18189      524F4C45 
 18190              	.LASF414:
 18191 3d7f 4359424C 		.ascii	"CYBLE_EVT_HTSS_INDICATION_ENABLED\000"
 18191      455F4556 
 18191      545F4854 
 18191      53535F49 
 18191      4E444943 
 18192              	.LASF678:
 18193 3da1 72656164 		.ascii	"readRequestData\000"
 18193      52657175 
 18193      65737444 
 18193      61746100 
 18194              	.LASF486:
 18195 3db1 4359424C 		.ascii	"CYBLE_EVT_UDSC_READ_DESCR_RESPONSE\000"
 18195      455F4556 
 18195      545F5544 
 18195      53435F52 
 18195      4541445F 
 18196              	.LASF237:
 18197 3dd4 656E6448 		.ascii	"endHandle\000"
 18197      616E646C 
 18197      6500
 18198              	.LASF294:
 18199 3dde 4359424C 		.ascii	"CYBLE_EVT_BASC_READ_CHAR_RESPONSE\000"
 18199      455F4556 
 18199      545F4241 
 18199      53435F52 
 18199      4541445F 
 18200              	.LASF387:
 18201 3e00 4359424C 		.ascii	"CYBLE_EVT_GLSC_NOTIFICATION\000"
 18201      455F4556 
 18201      545F474C 
 18201      53435F4E 
 18201      4F544946 
 18202              	.LASF149:
 18203 3e1c 62644164 		.ascii	"bdAddr\000"
 18203      647200
 18204              	.LASF465:
 18205 3e23 4359424C 		.ascii	"CYBLE_EVT_SCPSS_SCAN_INT_WIN_CHAR_WRITE\000"
ARM GAS  C:\Users\Helon\AppData\Local\Temp\ccys0XsA.s 			page 417


 18205      455F4556 
 18205      545F5343 
 18205      5053535F 
 18205      5343414E 
 18206              	.LASF706:
 18207 3e4b 53746174 		.ascii	"Status_LED_SetDriveMode\000"
 18207      75735F4C 
 18207      45445F53 
 18207      65744472 
 18207      6976654D 
 18208              	.LASF427:
 18209 3e63 4359424C 		.ascii	"CYBLE_EVT_LLSC_WRITE_CHAR_RESPONSE\000"
 18209      455F4556 
 18209      545F4C4C 
 18209      53435F57 
 18209      52495445 
 18210              	.LASF127:
 18211 3e86 4359424C 		.ascii	"CYBLE_BLESS_STATE_ECO_STABLE\000"
 18211      455F424C 
 18211      4553535F 
 18211      53544154 
 18211      455F4543 
 18212              	.LASF167:
 18213 3ea3 4359424C 		.ascii	"CYBLE_GAPC_ADV_EVENT_T\000"
 18213      455F4741 
 18213      50435F41 
 18213      44565F45 
 18213      56454E54 
 18214              	.LASF94:
 18215 3eba 4359424C 		.ascii	"CYBLE_ERROR_NO_CONNECTION\000"
 18215      455F4552 
 18215      524F525F 
 18215      4E4F5F43 
 18215      4F4E4E45 
 18216              	.LASF138:
 18217 3ed4 4359424C 		.ascii	"CYBLE_LL_PWR_LVL_0_DBM\000"
 18217      455F4C4C 
 18217      5F505752 
 18217      5F4C564C 
 18217      5F305F44 
 18218              	.LASF348:
 18219 3eeb 4359424C 		.ascii	"CYBLE_EVT_CSCSS_INDICATION_DISABLED\000"
 18219      455F4556 
 18219      545F4353 
 18219      4353535F 
 18219      494E4449 
 18220              	.LASF683:
 18221 3f0f 6D656D63 		.ascii	"memcpy\000"
 18221      707900
 18222              	.LASF120:
 18223 3f16 4359424C 		.ascii	"CYBLE_BLESS_HIBERNATE\000"
 18223      455F424C 
 18223      4553535F 
 18223      48494245 
 18223      524E4154 
 18224              	.LASF142:
 18225 3f2c 4359424C 		.ascii	"CYBLE_LL_ADV_CH_TYPE\000"
ARM GAS  C:\Users\Helon\AppData\Local\Temp\ccys0XsA.s 			page 418


 18225      455F4C4C 
 18225      5F414456 
 18225      5F43485F 
 18225      54595045 
 18226              	.LASF317:
 18227 3f41 4359424C 		.ascii	"CYBLE_EVT_BMSC_READ_DESCR_RESPONSE\000"
 18227      455F4556 
 18227      545F424D 
 18227      53435F52 
 18227      4541445F 
 18228              	.LASF86:
 18229 3f64 4359424C 		.ascii	"CYBLE_EVT_LE_PING_AUTH_TIMEOUT\000"
 18229      455F4556 
 18229      545F4C45 
 18229      5F50494E 
 18229      475F4155 
 18230              	.LASF116:
 18231 3f83 4359424C 		.ascii	"CYBLE_API_RESULT_T\000"
 18231      455F4150 
 18231      495F5245 
 18231      53554C54 
 18231      5F5400
 18232              	.LASF319:
 18233 3f96 4359424C 		.ascii	"CYBLE_EVT_CGMSS_INDICATION_DISABLED\000"
 18233      455F4556 
 18233      545F4347 
 18233      4D53535F 
 18233      494E4449 
 18234              	.LASF651:
 18235 3fba 6379426C 		.ascii	"cyBle_busyStatus\000"
 18235      655F6275 
 18235      73795374 
 18235      61747573 
 18235      00
 18236              	.LASF130:
 18237 3fcb 4359424C 		.ascii	"CYBLE_BLESS_STATE_INVALID\000"
 18237      455F424C 
 18237      4553535F 
 18237      53544154 
 18237      455F494E 
 18238              	.LASF284:
 18239 3fe5 4359424C 		.ascii	"CYBLE_EVT_ANSS_NOTIFICATION_DISABLED\000"
 18239      455F4556 
 18239      545F414E 
 18239      53535F4E 
 18239      4F544946 
 18240              	.LASF750:
 18241 400a 2E5C424C 		.ascii	".\\BLEApplication.c\000"
 18241      45417070 
 18241      6C696361 
 18241      74696F6E 
 18241      2E6300
 18242              	.LASF273:
 18243 401d 4359424C 		.ascii	"CYBLE_EVT_GATTC_DISCOVERY_COMPLETE\000"
 18243      455F4556 
 18243      545F4741 
 18243      5454435F 
ARM GAS  C:\Users\Helon\AppData\Local\Temp\ccys0XsA.s 			page 419


 18243      44495343 
 18244              	.LASF244:
 18245 4040 4359424C 		.ascii	"CYBLE_GATTC_FIND_INFO_REQ_T\000"
 18245      455F4741 
 18245      5454435F 
 18245      46494E44 
 18245      5F494E46 
 18246              	.LASF323:
 18247 405c 4359424C 		.ascii	"CYBLE_EVT_CGMSS_WRITE_CHAR\000"
 18247      455F4556 
 18247      545F4347 
 18247      4D53535F 
 18247      57524954 
 18248              	.LASF391:
 18249 4077 4359424C 		.ascii	"CYBLE_EVT_GLSC_WRITE_DESCR_RESPONSE\000"
 18249      455F4556 
 18249      545F474C 
 18249      53435F57 
 18249      52495445 
 18250              	.LASF212:
 18251 409b 6576656E 		.ascii	"eventType\000"
 18251      74547970 
 18251      6500
 18252              	.LASF69:
 18253 40a5 4359424C 		.ascii	"CYBLE_EVT_GATTC_HANDLE_VALUE_IND\000"
 18253      455F4556 
 18253      545F4741 
 18253      5454435F 
 18253      48414E44 
 18254              	.LASF344:
 18255 40c6 4359424C 		.ascii	"CYBLE_EVT_CPSC_SCAN_PROGRESS_RESULT\000"
 18255      455F4556 
 18255      545F4350 
 18255      53435F53 
 18255      43414E5F 
 18256              	.LASF459:
 18257 40ea 4359424C 		.ascii	"CYBLE_EVT_RSCSC_READ_DESCR_RESPONSE\000"
 18257      455F4556 
 18257      545F5253 
 18257      4353435F 
 18257      52454144 
 18258              	.LASF708:
 18259 410e 436F6E6E 		.ascii	"Connected_LED_Write\000"
 18259      65637465 
 18259      645F4C45 
 18259      445F5772 
 18259      69746500 
 18260              	.LASF581:
 18261 4122 6576656E 		.ascii	"eventCode\000"
 18261      74436F64 
 18261      6500
 18262              	.LASF100:
 18263 412c 4359424C 		.ascii	"CYBLE_ERROR_SEC_FAILED\000"
 18263      455F4552 
 18263      524F525F 
 18263      5345435F 
 18263      4641494C 
ARM GAS  C:\Users\Helon\AppData\Local\Temp\ccys0XsA.s 			page 420


 18264              	.LASF18:
 18265 4143 75696E74 		.ascii	"uint32_t\000"
 18265      33325F74 
 18265      00
 18266              	.LASF221:
 18267 414c 636F6E6E 		.ascii	"connLatency\000"
 18267      4C617465 
 18267      6E637900 
 18268              	.LASF169:
 18269 4158 4359424C 		.ascii	"CYBLE_GAP_IOCAP_DISPLAY_YESNO\000"
 18269      455F4741 
 18269      505F494F 
 18269      4341505F 
 18269      44495350 
 18270              	.LASF625:
 18271 4176 53747241 		.ascii	"StrAdvDataLength\000"
 18271      64764461 
 18271      74614C65 
 18271      6E677468 
 18271      00
 18272              	.LASF423:
 18273 4187 4359424C 		.ascii	"CYBLE_EVT_HTSC_WRITE_DESCR_RESPONSE\000"
 18273      455F4556 
 18273      545F4854 
 18273      53435F57 
 18273      52495445 
 18274              	.LASF49:
 18275 41ab 4359424C 		.ascii	"CYBLE_EVT_GAP_KEYINFO_EXCHNGE_CMPLT\000"
 18275      455F4556 
 18275      545F4741 
 18275      505F4B45 
 18275      59494E46 
 18276              	.LASF500:
 18277 41cf 4359424C 		.ascii	"CYBLE_EVT_WPTSC_WRITE_DESCR_RESPONSE\000"
 18277      455F4556 
 18277      545F5750 
 18277      5453435F 
 18277      57524954 
 18278              	.LASF148:
 18279 41f4 4359424C 		.ascii	"CYBLE_BLESS_PWR_IN_DB_T\000"
 18279      455F424C 
 18279      4553535F 
 18279      5057525F 
 18279      494E5F44 
 18280              	.LASF144:
 18281 420c 4359424C 		.ascii	"CYBLE_LL_MAX_CH_TYPE\000"
 18281      455F4C4C 
 18281      5F4D4158 
 18281      5F43485F 
 18281      54595045 
 18282              	.LASF710:
 18283 4221 4354535F 		.ascii	"CTS_Write\000"
 18283      57726974 
 18283      6500
 18284              	.LASF74:
 18285 422b 4359424C 		.ascii	"CYBLE_EVT_L2CAP_CONN_PARAM_UPDATE_REQ\000"
 18285      455F4556 
ARM GAS  C:\Users\Helon\AppData\Local\Temp\ccys0XsA.s 			page 421


 18285      545F4C32 
 18285      4341505F 
 18285      434F4E4E 
 18286              	.LASF322:
 18287 4251 4359424C 		.ascii	"CYBLE_EVT_CGMSS_NOTIFICATION_DISABLED\000"
 18287      455F4556 
 18287      545F4347 
 18287      4D53535F 
 18287      4E4F5449 
 18288              	.LASF577:
 18289 4277 44657669 		.ascii	"DeviceList\000"
 18289      63654C69 
 18289      737400
 18290              	.LASF720:
 18291 4282 66726565 		.ascii	"free\000"
 18291      00
 18292              	.LASF220:
 18293 4287 636F6E6E 		.ascii	"connIntvMax\000"
 18293      496E7476 
 18293      4D617800 
 18294              	.LASF595:
 18295 4293 436F6E66 		.ascii	"ConfigUartInit\000"
 18295      69675561 
 18295      7274496E 
 18295      697400
 18296              	.LASF545:
 18297 42a2 63747350 		.ascii	"ctsPolarity\000"
 18297      6F6C6172 
 18297      69747900 
 18298              	.LASF264:
 18299 42ae 4359424C 		.ascii	"CYBLE_EVT_GATTC_INCL_DISCOVERY_FAILED\000"
 18299      455F4556 
 18299      545F4741 
 18299      5454435F 
 18299      494E434C 
 18300              	.LASF559:
 18301 42d4 524F4C45 		.ascii	"ROLE\000"
 18301      00
 18302              	.LASF225:
 18303 42d9 636F6E6E 		.ascii	"connIntv\000"
 18303      496E7476 
 18303      00
 18304              	.LASF7:
 18305 42e2 73686F72 		.ascii	"short unsigned int\000"
 18305      7420756E 
 18305      7369676E 
 18305      65642069 
 18305      6E7400
 18306              	.LASF664:
 18307 42f5 63686172 		.ascii	"charNotificationEnabled\000"
 18307      4E6F7469 
 18307      66696361 
 18307      74696F6E 
 18307      456E6162 
 18308              	.LASF601:
 18309 430d 53657269 		.ascii	"SerialArryLength\000"
 18309      616C4172 
ARM GAS  C:\Users\Helon\AppData\Local\Temp\ccys0XsA.s 			page 422


 18309      72794C65 
 18309      6E677468 
 18309      00
 18310              	.LASF618:
 18311 431e 50617273 		.ascii	"Parser_UartData\000"
 18311      65725F55 
 18311      61727444 
 18311      61746100 
 18312              	.LASF198:
 18313 432e 64697265 		.ascii	"directAddr\000"
 18313      63744164 
 18313      647200
 18314              	.LASF511:
 18315 4339 4359424C 		.ascii	"CYBLE_STATE_CONNECTED\000"
 18315      455F5354 
 18315      4154455F 
 18315      434F4E4E 
 18315      45435445 
 18316              	.LASF231:
 18317 434f 61637475 		.ascii	"actualLen\000"
 18317      616C4C65 
 18317      6E00
 18318              	.LASF199:
 18319 4359 61647643 		.ascii	"advChannelMap\000"
 18319      68616E6E 
 18319      656C4D61 
 18319      7000
 18320              	.LASF276:
 18321 4367 4359424C 		.ascii	"CYBLE_EVT_ANCSS_WRITE_CHAR\000"
 18321      455F4556 
 18321      545F414E 
 18321      4353535F 
 18321      57524954 
 18322              	.LASF748:
 18323 4382 4379426C 		.ascii	"CyBle_GapAuthPassKeyReply\000"
 18323      655F4761 
 18323      70417574 
 18323      68506173 
 18323      734B6579 
 18324              	.LASF386:
 18325 439c 4359424C 		.ascii	"CYBLE_EVT_GLSC_INDICATION\000"
 18325      455F4556 
 18325      545F474C 
 18325      53435F49 
 18325      4E444943 
 18326              	.LASF156:
 18327 43b6 4359424C 		.ascii	"CYBLE_GAPP_CONNECTABLE_UNDIRECTED_ADV\000"
 18327      455F4741 
 18327      50505F43 
 18327      4F4E4E45 
 18327      43544142 
 18328              	.LASF336:
 18329 43dc 4359424C 		.ascii	"CYBLE_EVT_CPSS_BROADCAST_DISABLED\000"
 18329      455F4556 
 18329      545F4350 
 18329      53535F42 
 18329      524F4144 
ARM GAS  C:\Users\Helon\AppData\Local\Temp\ccys0XsA.s 			page 423


 18330              	.LASF619:
 18331 43fe 41745F43 		.ascii	"At_Command_Idex\000"
 18331      6F6D6D61 
 18331      6E645F49 
 18331      64657800 
 18332              	.LASF546:
 18333 440e 72747352 		.ascii	"rtsRxFifoLevel\000"
 18333      78466966 
 18333      6F4C6576 
 18333      656C00
 18334              	.LASF229:
 18335 441d 61747449 		.ascii	"attId\000"
 18335      6400
 18336              	.LASF90:
 18337 4423 4359424C 		.ascii	"CYBLE_ERROR_INVALID_OPERATION\000"
 18337      455F4552 
 18337      524F525F 
 18337      494E5641 
 18337      4C49445F 
 18338              	.LASF637:
 18339 4441 70617373 		.ascii	"passkey\000"
 18339      6B657900 
 18340              	.LASF35:
 18341 4449 4359424C 		.ascii	"CYBLE_EVT_HCI_STATUS\000"
 18341      455F4556 
 18341      545F4843 
 18341      495F5354 
 18341      41545553 
 18342              	.LASF721:
 18343 445e 4379426C 		.ascii	"CyBle_GattsNotification\000"
 18343      655F4761 
 18343      7474734E 
 18343      6F746966 
 18343      69636174 
 18344              	.LASF52:
 18345 4476 4359424C 		.ascii	"CYBLE_EVT_GATT_DISCONNECT_IND\000"
 18345      455F4556 
 18345      545F4741 
 18345      54545F44 
 18345      4953434F 
 18346              	.LASF222:
 18347 4494 73757065 		.ascii	"supervisionTO\000"
 18347      72766973 
 18347      696F6E54 
 18347      4F00
 18348              	.LASF154:
 18349 44a2 4359424C 		.ascii	"CYBLE_GATT_RSP_TO\000"
 18349      455F4741 
 18349      54545F52 
 18349      53505F54 
 18349      4F00
 18350              	.LASF259:
 18351 44b4 4359424C 		.ascii	"CYBLE_KEY_EXCHANGE_INFO_REQUEST_REPLY\000"
 18351      455F4B45 
 18351      595F4558 
 18351      4348414E 
 18351      47455F49 
ARM GAS  C:\Users\Helon\AppData\Local\Temp\ccys0XsA.s 			page 424


 18352              	.LASF84:
 18353 44da 4359424C 		.ascii	"CYBLE_EVT_L2CAP_CBFC_DATA_WRITE_IND\000"
 18353      455F4556 
 18353      545F4C32 
 18353      4341505F 
 18353      43424643 
 18354              	.LASF528:
 18355 44fe 64726F70 		.ascii	"dropOnFrameErr\000"
 18355      4F6E4672 
 18355      616D6545 
 18355      727200
 18356              	.LASF257:
 18357 450d 4359424C 		.ascii	"CYBLE_PASSKEY_ENTRY_REQUEST_REPLY\000"
 18357      455F5041 
 18357      53534B45 
 18357      595F454E 
 18357      5452595F 
 18358              	.LASF534:
 18359 452f 656E6162 		.ascii	"enableMultiproc\000"
 18359      6C654D75 
 18359      6C746970 
 18359      726F6300 
 18360              	.LASF217:
 18361 453f 72737369 		.ascii	"rssi\000"
 18361      00
 18362              	.LASF303:
 18363 4544 4359424C 		.ascii	"CYBLE_EVT_BCSC_WRITE_DESCR_RESPONSE\000"
 18363      455F4556 
 18363      545F4243 
 18363      53435F57 
 18363      52495445 
 18364              	.LASF526:
 18365 4568 656E6162 		.ascii	"enableInvertedRx\000"
 18365      6C65496E 
 18365      76657274 
 18365      65645278 
 18365      00
 18366              	.LASF481:
 18367 4579 4359424C 		.ascii	"CYBLE_EVT_UDSS_WRITE_CHAR\000"
 18367      455F4556 
 18367      545F5544 
 18367      53535F57 
 18367      52495445 
 18368              	.LASF216:
 18369 4593 64617461 		.ascii	"data\000"
 18369      00
 18370              	.LASF286:
 18371 4598 4359424C 		.ascii	"CYBLE_EVT_ANSC_NOTIFICATION\000"
 18371      455F4556 
 18371      545F414E 
 18371      53435F4E 
 18371      4F544946 
 18372              	.LASF45:
 18373 45b4 4359424C 		.ascii	"CYBLE_EVT_GAP_DEVICE_DISCONNECTED\000"
 18373      455F4556 
 18373      545F4741 
 18373      505F4445 
ARM GAS  C:\Users\Helon\AppData\Local\Temp\ccys0XsA.s 			page 425


 18373      56494345 
 18374              	.LASF394:
 18375 45d6 4359424C 		.ascii	"CYBLE_EVT_HIDSS_BOOT_MODE_ENTER\000"
 18375      455F4556 
 18375      545F4849 
 18375      4453535F 
 18375      424F4F54 
 18376              	.LASF70:
 18377 45f6 4359424C 		.ascii	"CYBLE_EVT_GATTS_HANDLE_VALUE_CNF\000"
 18377      455F4556 
 18377      545F4741 
 18377      5454535F 
 18377      48414E44 
 18378              	.LASF700:
 18379 4617 55415254 		.ascii	"UART_Wakeup\000"
 18379      5F57616B 
 18379      65757000 
 18380              	.LASF355:
 18381 4623 4359424C 		.ascii	"CYBLE_EVT_CSCSC_READ_DESCR_RESPONSE\000"
 18381      455F4556 
 18381      545F4353 
 18381      4353435F 
 18381      52454144 
 18382              	.LASF218:
 18383 4647 4359424C 		.ascii	"CYBLE_GAPC_ADV_REPORT_T\000"
 18383      455F4741 
 18383      50435F41 
 18383      44565F52 
 18383      45504F52 
 18384              	.LASF20:
 18385 465f 75696E74 		.ascii	"uint16\000"
 18385      313600
 18386              	.LASF653:
 18387 4666 44657669 		.ascii	"DeviceInfo\000"
 18387      6365496E 
 18387      666F00
 18388              	.LASF279:
 18389 4671 4359424C 		.ascii	"CYBLE_EVT_ANCSC_WRITE_CHAR_RESPONSE\000"
 18389      455F4556 
 18389      545F414E 
 18389      4353435F 
 18389      57524954 
 18390              	.LASF196:
 18391 4695 6F776E41 		.ascii	"ownAddrType\000"
 18391      64647254 
 18391      79706500 
 18392              	.LASF98:
 18393 46a1 4359424C 		.ascii	"CYBLE_ERROR_TX_POWER_READ\000"
 18393      455F4552 
 18393      524F525F 
 18393      54585F50 
 18393      4F574552 
 18394              	.LASF449:
 18395 46bb 4359424C 		.ascii	"CYBLE_EVT_RSCSS_NOTIFICATION_ENABLED\000"
 18395      455F4556 
 18395      545F5253 
 18395      4353535F 
ARM GAS  C:\Users\Helon\AppData\Local\Temp\ccys0XsA.s 			page 426


 18395      4E4F5449 
 18396              	.LASF505:
 18397 46e0 4359424C 		.ascii	"CYBLE_EVT_WSSC_READ_CHAR_RESPONSE\000"
 18397      455F4556 
 18397      545F5753 
 18397      53435F52 
 18397      4541445F 
 18398              	.LASF550:
 18399 4702 52454641 		.ascii	"REFAC\000"
 18399      4300
 18400              	.LASF572:
 18401 4708 436F6E6E 		.ascii	"Connect_Idx\000"
 18401      6563745F 
 18401      49647800 
 18402              	.LASF128:
 18403 4714 4359424C 		.ascii	"CYBLE_BLESS_STATE_DEEPSLEEP\000"
 18403      455F424C 
 18403      4553535F 
 18403      53544154 
 18403      455F4445 
 18404              	.LASF419:
 18405 4730 4359424C 		.ascii	"CYBLE_EVT_HTSC_INDICATION\000"
 18405      455F4556 
 18405      545F4854 
 18405      53435F49 
 18405      4E444943 
 18406              	.LASF392:
 18407 474a 4359424C 		.ascii	"CYBLE_EVT_HIDSS_NOTIFICATION_ENABLED\000"
 18407      455F4556 
 18407      545F4849 
 18407      4453535F 
 18407      4E4F5449 
 18408              	.LASF416:
 18409 476f 4359424C 		.ascii	"CYBLE_EVT_HTSS_INDICATION_CONFIRMED\000"
 18409      455F4556 
 18409      545F4854 
 18409      53535F49 
 18409      4E444943 
 18410              	.LASF194:
 18411 4793 61647649 		.ascii	"advIntvMax\000"
 18411      6E74764D 
 18411      617800
 18412              	.LASF493:
 18413 479e 4359424C 		.ascii	"CYBLE_EVT_WPTSS_INDICATION_CONFIRMED\000"
 18413      455F4556 
 18413      545F5750 
 18413      5453535F 
 18413      494E4449 
 18414              	.LASF406:
 18415 47c3 4359424C 		.ascii	"CYBLE_EVT_HRSS_NOTIFICATION_DISABLED\000"
 18415      455F4556 
 18415      545F4852 
 18415      53535F4E 
 18415      4F544946 
 18416              		.ident	"GCC: (GNU Tools for ARM Embedded Processors) 4.9.3 20150303 (release) [ARM/embedded-4_9-br
