ARM GAS  C:\Users\Helon\AppData\Local\Temp\cckZyeCc.s 			page 1


   1              		.cpu cortex-m0
   2              		.fpu softvfp
   3              		.eabi_attribute 20, 1
   4              		.eabi_attribute 21, 1
   5              		.eabi_attribute 23, 3
   6              		.eabi_attribute 24, 1
   7              		.eabi_attribute 25, 1
   8              		.eabi_attribute 26, 1
   9              		.eabi_attribute 30, 1
  10              		.eabi_attribute 34, 0
  11              		.eabi_attribute 18, 4
  12              		.code	16
  13              		.file	"BLEApplication.c"
  14              		.text
  15              	.Ltext0:
  16              		.cfi_sections	.debug_frame
  17              		.section	.rodata.cst2,"aM",%progbits,2
  18              		.align	1
  19              	.LC40:
  20 0000 0002     		.short	512
  21              		.section	.text.StackEventHandler,"ax",%progbits
  22              		.align	2
  23              		.global	StackEventHandler
  24              		.code	16
  25              		.thumb_func
  26              		.type	StackEventHandler, %function
  27              	StackEventHandler:
  28              	.LFB35:
  29              		.file 1 ".\\BLEApplication.c"
   1:.\BLEApplication.c **** /* ========================================
   2:.\BLEApplication.c ****  *
   3:.\BLEApplication.c ****  * Copyright YOUR COMPANY, THE YEAR
   4:.\BLEApplication.c ****  * All Rights Reserved
   5:.\BLEApplication.c ****  * UNPUBLISHED, LICENSED SOFTWARE.
   6:.\BLEApplication.c ****  *
   7:.\BLEApplication.c ****  * CONFIDENTIAL AND PROPRIETARY INFORMATION
   8:.\BLEApplication.c ****  * WHICH IS THE PROPERTY OF your company.
   9:.\BLEApplication.c ****  *
  10:.\BLEApplication.c ****  * ========================================
  11:.\BLEApplication.c **** */
  12:.\BLEApplication.c **** #include<project.h>
  13:.\BLEApplication.c **** #include "BLEApplication.h"
  14:.\BLEApplication.c **** #include<stdio.h>
  15:.\BLEApplication.c **** #include "BLEClient.h"
  16:.\BLEApplication.c **** #include <malloc.h>
  17:.\BLEApplication.c **** /***************************************
  18:.\BLEApplication.c **** * Â§ñÈÉ®ÂÖ®Â±ÄÂèòÈáèÂ£∞Êòé
  19:.\BLEApplication.c **** ***************************************/
  20:.\BLEApplication.c **** extern uint8_t StartScan;
  21:.\BLEApplication.c **** extern uint8_t DeviceCount;
  22:.\BLEApplication.c **** extern CYBLE_DEVICE_INFO DeviceInfo[DeviceListCount];
  23:.\BLEApplication.c **** //extern uint8_t DeviceList[DeviceListCount];
  24:.\BLEApplication.c **** /***************************************
  25:.\BLEApplication.c **** * ÂÖ®Â±ÄÂèòÈáè
  26:.\BLEApplication.c **** ***************************************/
  27:.\BLEApplication.c **** UART_UART_INIT_STRUCT configUart;
  28:.\BLEApplication.c **** uint8_t LowPower_EN=TURE;
ARM GAS  C:\Users\Helon\AppData\Local\Temp\cckZyeCc.s 			page 2


  29:.\BLEApplication.c **** uint8_t RX_BUFFER[BUFFER_LENGHTH]={0};
  30:.\BLEApplication.c **** uint8_t Buffer_Length=0;
  31:.\BLEApplication.c **** uint8_t rx_isover=FALSE;
  32:.\BLEApplication.c **** CYBLE_CONN_OR_DISCONN_INFO Conn_Or_Disconn_Info;
  33:.\BLEApplication.c **** uint8_t Conn_or_Disconn_Idx=0;
  34:.\BLEApplication.c **** //uint8 bufferRx[UART_RX_BUFFER + 1u];     /* RX software buffer requires one extra entry for corre
  35:.\BLEApplication.c **** //uint8 bufferTx[UART_TX_BUFFER];           /* TX software buffer */ 
  36:.\BLEApplication.c **** uint8_t MTU_REQ_FLAG=TURE;
  37:.\BLEApplication.c **** uint8_t TroughtTest_Flag=FALSE;
  38:.\BLEApplication.c **** uint8_t charNotificationEnabled = FALSE;
  39:.\BLEApplication.c **** uint32 totalByteCounter = 0;
  40:.\BLEApplication.c **** uint8_t Role=Peripheral;//ÈªòËÆ§ÊòØPeripheral
  41:.\BLEApplication.c **** uint8 buffer[20];
  42:.\BLEApplication.c **** uint16 negotiatedMtu = DEFAULT_MTU_SIZE;
  43:.\BLEApplication.c **** uint8_t CommandMode=AT_COMMAND_MODE;
  44:.\BLEApplication.c **** uint32 testCount=0;
  45:.\BLEApplication.c **** uint8_t iocapability=CYBLE_GAP_IOCAP_NOINPUT_NOOUTPUT;
  46:.\BLEApplication.c **** CYBLE_GAP_CONN_PARAM_UPDATED_IN_CONTROLLER_T ConnParam;
  47:.\BLEApplication.c **** //CYBLE_GAPP_DISC_MODE_INFO_T updateadvparam;
  48:.\BLEApplication.c **** //uint8_t ExitThrought[]={
  49:.\BLEApplication.c **** //    0x11,0x24,0xFB,0x1E,0x1F,0x24,0x19,0x16,0x29};
  50:.\BLEApplication.c **** //CYBLE_CONN_HANDLE_T	connHandle=
  51:.\BLEApplication.c **** //{
  52:.\BLEApplication.c **** //    CYBLE_TROUGHPUT_SERVICE_CUSTOM_CHARACTERISTIC_CLIENT_CHARACTERISTIC_CONFIGURATION_DESC_HANDLE
  53:.\BLEApplication.c **** //    0x00
  54:.\BLEApplication.c **** //};
  55:.\BLEApplication.c **** CYBLE_GAP_BD_ADDR_T DeviceAddr;//Â≠òÊîæÊú¨Êú∫ÁöÑMACÂú∞ÂùÄ,‰∏çËÉΩÂÅö‰∏∫Â±ÄÈÉ®ÂèòÈáèÂê¶ÂàôËé∑ÂèñÁöÑÂú
  56:.\BLEApplication.c **** uint8_t _10sIsOver=FALSE;
  57:.\BLEApplication.c **** uint8 cccdNotifEnabledValue[] = {0x01, 0x00};
  58:.\BLEApplication.c **** CYBLE_GATT_VALUE_T cccdNotifFlagSetStruct =
  59:.\BLEApplication.c **** {
  60:.\BLEApplication.c ****     cccdNotifEnabledValue,
  61:.\BLEApplication.c ****     2,
  62:.\BLEApplication.c ****     0
  63:.\BLEApplication.c **** };
  64:.\BLEApplication.c **** //    Êõ¥Êñ∞ËøûÊé•Èó¥ÈöîÂèÇÊï∞ÔºåÊèêÈ´òÈÄè‰º†ÈÄüÁéáÔºå‰ΩÜ‰ºöÂ¢ûÂä†ÂäüËÄó
  65:.\BLEApplication.c **** CYBLE_GAP_CONN_UPDATE_PARAM_T connParam={
  66:.\BLEApplication.c ****     6,
  67:.\BLEApplication.c ****     6,
  68:.\BLEApplication.c ****     0,
  69:.\BLEApplication.c ****     1000
  70:.\BLEApplication.c **** };
  71:.\BLEApplication.c **** CYBLE_GATTC_WRITE_REQ_T writeRequestData;
  72:.\BLEApplication.c **** CYBLE_GATTC_READ_REQ_T readRequestData=CYBLE_TROUGHPUT_SERVICE_CUSTOM_CHARACTERISTIC_CLIENT_CHARACT
  73:.\BLEApplication.c **** //ATÂëΩ‰ª§ÂàóË°®
  74:.\BLEApplication.c **** char * StringArry[]={
  75:.\BLEApplication.c ****                      AT_RESET,AT_REFAC,AT_VERSION,AT_BAUD,AT_LADDR,AT_NAME,
  76:.\BLEApplication.c ****                      AT_CPIN,AT_TXP,AT_ADVD,AT_ADVI,AT_CONNI,AT_ROLE,AT_SCAN,
  77:.\BLEApplication.c ****                      AT_CONNT,AT_DISCONN,AT_LOGIN,AT_TX,AT_RSSI,AT_DISALLCHAR,
  78:.\BLEApplication.c ****                      AT,AT_SPEED,AT_NOTIFY,AT_STAUS,AT_ADVS,AT_NOTIFY,AT_AUTH,
  79:.\BLEApplication.c ****                      AT_IOCAP
  80:.\BLEApplication.c ****                     };
  81:.\BLEApplication.c **** uint8_t STOP_SCAN_FLAG=FALSE;
  82:.\BLEApplication.c **** uint8_t Baud_rate_idx='7';//ÈªòËÆ§ÊòØ115200
  83:.\BLEApplication.c **** /******************************************************************************
  84:.\BLEApplication.c **** * Function Name: StackEventHandler
  85:.\BLEApplication.c **** ***************************************************************************//**
ARM GAS  C:\Users\Helon\AppData\Local\Temp\cckZyeCc.s 			page 3


  86:.\BLEApplication.c **** * 
  87:.\BLEApplication.c **** *  Â§ÑÁêÜËìùÁâôÂçèËÆÆÊ†à‰∫ã‰ª∂
  88:.\BLEApplication.c **** * 
  89:.\BLEApplication.c **** * \return
  90:.\BLEApplication.c **** *  None
  91:.\BLEApplication.c **** * 
  92:.\BLEApplication.c **** ******************************************************************************/
  93:.\BLEApplication.c **** void StackEventHandler(uint32 eventCode, void *eventParam)
  94:.\BLEApplication.c **** {
  30              		.loc 1 94 0
  31              		.cfi_startproc
  32              	.LVL0:
  33 0000 70B5     		push	{r4, r5, r6, lr}
  34              		.cfi_def_cfa_offset 16
  35              		.cfi_offset 4, -16
  36              		.cfi_offset 5, -12
  37              		.cfi_offset 6, -8
  38              		.cfi_offset 14, -4
  39 0002 90B0     		sub	sp, sp, #64
  40              		.cfi_def_cfa_offset 80
  41              	.LVL1:
  95:.\BLEApplication.c ****     CYBLE_GAPC_ADV_REPORT_T	Scan_Result;
  96:.\BLEApplication.c **** //    CYBLE_API_RESULT_T API_RESULT=0;
  97:.\BLEApplication.c ****     CYBLE_GATTC_FIND_INFO_RSP_PARAM_T DisAllCharResult;  
  98:.\BLEApplication.c ****     uint8_t i=0;
  99:.\BLEApplication.c ****     CYBLE_GATTC_HANDLE_VALUE_NTF_PARAM_T * handleValueNotification;
 100:.\BLEApplication.c ****     CYBLE_GATTS_WRITE_REQ_PARAM_T writeParam;       
 101:.\BLEApplication.c **** //    CYBLE_GATTC_READ_RSP_PARAM_T readParam;
 102:.\BLEApplication.c ****     switch(eventCode)
  42              		.loc 1 102 0
  43 0004 5228     		cmp	r0, #82
  44 0006 00D9     		bls	.LCB16
  45 0008 23E1     		b	.L1	@long jump
  46              	.LCB16:
  47 000a 0C1C     		mov	r4, r1
  48 000c 8000     		lsl	r0, r0, #2
  49              	.LVL2:
  50 000e 924B     		ldr	r3, .L36
  51 0010 1B58     		ldr	r3, [r3, r0]
  52 0012 9F46     		mov	pc, r3
  53              		.section	.rodata
  54              		.align	2
  55              	.L4:
  56 0000 52020000 		.word	.L1
  57 0004 14000000 		.word	.L3
  58 0008 5E000000 		.word	.L5
  59 000c 52020000 		.word	.L1
  60 0010 52020000 		.word	.L1
  61 0014 52020000 		.word	.L1
  62 0018 52020000 		.word	.L1
  63 001c 52020000 		.word	.L1
  64 0020 52020000 		.word	.L1
  65 0024 52020000 		.word	.L1
  66 0028 52020000 		.word	.L1
  67 002c 52020000 		.word	.L1
  68 0030 52020000 		.word	.L1
  69 0034 52020000 		.word	.L1
ARM GAS  C:\Users\Helon\AppData\Local\Temp\cckZyeCc.s 			page 4


  70 0038 52020000 		.word	.L1
  71 003c 52020000 		.word	.L1
  72 0040 52020000 		.word	.L1
  73 0044 52020000 		.word	.L1
  74 0048 52020000 		.word	.L1
  75 004c 52020000 		.word	.L1
  76 0050 52020000 		.word	.L1
  77 0054 52020000 		.word	.L1
  78 0058 52020000 		.word	.L1
  79 005c 52020000 		.word	.L1
  80 0060 52020000 		.word	.L1
  81 0064 52020000 		.word	.L1
  82 0068 52020000 		.word	.L1
  83 006c 52020000 		.word	.L1
  84 0070 52020000 		.word	.L1
  85 0074 52020000 		.word	.L1
  86 0078 52020000 		.word	.L1
  87 007c 52020000 		.word	.L1
  88 0080 34000000 		.word	.L6
  89 0084 40020000 		.word	.L7
  90 0088 52020000 		.word	.L1
  91 008c 52020000 		.word	.L1
  92 0090 52020000 		.word	.L1
  93 0094 52020000 		.word	.L1
  94 0098 52020000 		.word	.L1
  95 009c 72000000 		.word	.L8
  96 00a0 EC000000 		.word	.L9
  97 00a4 52020000 		.word	.L1
  98 00a8 A2000000 		.word	.L10
  99 00ac 46000000 		.word	.L11
 100 00b0 52020000 		.word	.L1
 101 00b4 52020000 		.word	.L1
 102 00b8 52020000 		.word	.L1
 103 00bc 52020000 		.word	.L1
 104 00c0 52020000 		.word	.L1
 105 00c4 52020000 		.word	.L1
 106 00c8 52020000 		.word	.L1
 107 00cc 52020000 		.word	.L1
 108 00d0 52020000 		.word	.L1
 109 00d4 52020000 		.word	.L1
 110 00d8 52020000 		.word	.L1
 111 00dc 52020000 		.word	.L1
 112 00e0 52020000 		.word	.L1
 113 00e4 52020000 		.word	.L1
 114 00e8 52020000 		.word	.L1
 115 00ec 52020000 		.word	.L1
 116 00f0 52020000 		.word	.L1
 117 00f4 52020000 		.word	.L1
 118 00f8 52020000 		.word	.L1
 119 00fc 52020000 		.word	.L1
 120 0100 52020000 		.word	.L1
 121 0104 52020000 		.word	.L1
 122 0108 52020000 		.word	.L1
 123 010c D6000000 		.word	.L12
 124 0110 B2000000 		.word	.L13
 125 0114 52020000 		.word	.L1
 126 0118 52020000 		.word	.L1
ARM GAS  C:\Users\Helon\AppData\Local\Temp\cckZyeCc.s 			page 5


 127 011c 0C020000 		.word	.L14
 128 0120 52020000 		.word	.L1
 129 0124 52020000 		.word	.L1
 130 0128 52020000 		.word	.L1
 131 012c 52020000 		.word	.L1
 132 0130 52020000 		.word	.L1
 133 0134 9E010000 		.word	.L15
 134 0138 3A010000 		.word	.L16
 135 013c 52020000 		.word	.L1
 136 0140 52020000 		.word	.L1
 137 0144 52020000 		.word	.L1
 138 0148 B2010000 		.word	.L17
 139              		.section	.text.StackEventHandler
 140              	.L3:
 103:.\BLEApplication.c ****     {
 104:.\BLEApplication.c ****         case CYBLE_EVT_STACK_ON:
 105:.\BLEApplication.c ****             printf("BLE is Ready\r\n");
 141              		.loc 1 105 0
 142 0014 9148     		ldr	r0, .L36+4
 143 0016 FFF7FEFF 		bl	puts
 144              	.LVL3:
 145              	.L19:
 106:.\BLEApplication.c ****             while((UART_SpiUartGetTxBufferSize() + UART_GET_TX_FIFO_SR_VALID) != 0);//Á≠âÂæÖ‰∏≤Âè£Á
 146              		.loc 1 106 0 discriminator 5
 147 001a FFF7FEFF 		bl	UART_SpiUartGetTxBufferSize
 148              	.LVL4:
 149 001e 904B     		ldr	r3, .L36+8
 150 0020 1B68     		ldr	r3, [r3]
 151 0022 8022     		mov	r2, #128
 152 0024 1202     		lsl	r2, r2, #8
 153 0026 1340     		and	r3, r2
 154 0028 00D0     		beq	.L18
 155              		.loc 1 106 0 is_stmt 0
 156 002a 0123     		mov	r3, #1
 157              	.L18:
 158              		.loc 1 106 0 discriminator 4
 159 002c C318     		add	r3, r0, r3
 160 002e 002B     		cmp	r3, #0
 161 0030 F3D1     		bne	.L19
 162 0032 0EE1     		b	.L1
 163              	.LVL5:
 164              	.L6:
 107:.\BLEApplication.c **** //            StartScan=TRUE;            
 108:.\BLEApplication.c ****         break;
 109:.\BLEApplication.c ****         case CYBLE_EVT_GAPC_SCAN_PROGRESS_RESULT:
 110:.\BLEApplication.c ****             Scan_Result=*(CYBLE_GAPC_ADV_REPORT_T *)eventParam;
 165              		.loc 1 110 0 is_stmt 1
 166 0034 0BA8     		add	r0, sp, #44
 167 0036 031C     		mov	r3, r0
 168 0038 26CC     		ldmia	r4!, {r1, r2, r5}
 169 003a 26C3     		stmia	r3!, {r1, r2, r5}
 170              	.LVL6:
 171 003c 06CC     		ldmia	r4!, {r1, r2}
 172 003e 06C3     		stmia	r3!, {r1, r2}
 173              	.LVL7:
 111:.\BLEApplication.c ****             HandleScanDevices(&Scan_Result);               
 174              		.loc 1 111 0
ARM GAS  C:\Users\Helon\AppData\Local\Temp\cckZyeCc.s 			page 6


 175 0040 FFF7FEFF 		bl	HandleScanDevices
 176              	.LVL8:
 112:.\BLEApplication.c **** //            CyBle_GapcStopScan();
 113:.\BLEApplication.c ****         break;
 177              		.loc 1 113 0
 178 0044 05E1     		b	.L1
 179              	.LVL9:
 180              	.L11:
 114:.\BLEApplication.c ****         case CYBLE_EVT_GAPC_SCAN_START_STOP:
 115:.\BLEApplication.c ****             if(STOP_SCAN_FLAG)
 181              		.loc 1 115 0
 182 0046 874B     		ldr	r3, .L36+12
 183 0048 1B78     		ldrb	r3, [r3]
 184 004a 002B     		cmp	r3, #0
 185 004c 00D1     		bne	.LCB73
 186 004e 00E1     		b	.L1	@long jump
 187              	.LCB73:
 116:.\BLEApplication.c ****             {
 117:.\BLEApplication.c ****                 STOP_SCAN_FLAG=FALSE;             
 188              		.loc 1 117 0
 189 0050 0022     		mov	r2, #0
 190 0052 844B     		ldr	r3, .L36+12
 191 0054 1A70     		strb	r2, [r3]
 118:.\BLEApplication.c ****                 printf("+SCAN_STOP\r\n");
 192              		.loc 1 118 0
 193 0056 8448     		ldr	r0, .L36+16
 194 0058 FFF7FEFF 		bl	puts
 195              	.LVL10:
 196 005c F9E0     		b	.L1
 197              	.LVL11:
 198              	.L5:
 119:.\BLEApplication.c ****             }
 120:.\BLEApplication.c ****             
 121:.\BLEApplication.c ****         break;
 122:.\BLEApplication.c ****         //ÂΩìClientÊâ´ÊèèÂà∞ServerÁöÑDB‰πãÂêéÊâç‰ºöËß¶ÂèëËØ•‰∫ã‰ª∂ÔºåÂâçÊèêÊòØclientÂíåserverËøûÊé•
 123:.\BLEApplication.c ****         case CYBLE_EVT_GATTC_DISCOVERY_COMPLETE:
 124:.\BLEApplication.c ****             
 125:.\BLEApplication.c ****         break;        
 126:.\BLEApplication.c ****         case CYBLE_EVT_TIMEOUT:                         
 127:.\BLEApplication.c ****             if(*(uint8_t*)eventParam==CYBLE_GAP_SCAN_TO)
 199              		.loc 1 127 0
 200 005e 0B78     		ldrb	r3, [r1]
 201 0060 022B     		cmp	r3, #2
 202 0062 00D0     		beq	.LCB88
 203 0064 F5E0     		b	.L1	@long jump
 204              	.LCB88:
 128:.\BLEApplication.c ****             {   
 129:.\BLEApplication.c ****                 CyBle_GapcStopScan();
 205              		.loc 1 129 0
 206 0066 FFF7FEFF 		bl	CyBle_GapcStopScan
 207              	.LVL12:
 130:.\BLEApplication.c ****                 printf("+SCAN_CMP\r\n");                    
 208              		.loc 1 130 0
 209 006a 8048     		ldr	r0, .L36+20
 210 006c FFF7FEFF 		bl	puts
 211              	.LVL13:
 212 0070 EFE0     		b	.L1
ARM GAS  C:\Users\Helon\AppData\Local\Temp\cckZyeCc.s 			page 7


 213              	.LVL14:
 214              	.L8:
 131:.\BLEApplication.c ****             }
 132:.\BLEApplication.c ****             //ÂπøÊí≠Ë∂ÖÊó∂
 133:.\BLEApplication.c **** //            if(*(uint8_t*)eventParam==CYBLE_GAP_ADV_MODE_TO)
 134:.\BLEApplication.c **** //            {
 135:.\BLEApplication.c **** //                CyBle_GappStartAdvertisement(CYBLE_ADVERTISING_SLOW);
 136:.\BLEApplication.c **** //            }
 137:.\BLEApplication.c ****         break;
 138:.\BLEApplication.c ****         case CYBLE_EVT_GAPP_ADVERTISEMENT_START_STOP:
 139:.\BLEApplication.c **** //            if(CYBLE_STATE_ADVERTISING!=CyBle_GetState())
 140:.\BLEApplication.c **** //            {
 141:.\BLEApplication.c **** //                CyBle_GappStartAdvertisement(CYBLE_ADVERTISING_SLOW);
 142:.\BLEApplication.c **** //            }
 143:.\BLEApplication.c ****         break;
 144:.\BLEApplication.c ****         case CYBLE_EVT_GAP_DEVICE_CONNECTED:
 145:.\BLEApplication.c **** //            Ëé∑ÂèñËøûÊé•ÂèÇÊï∞‰ø°ÊÅØ
 146:.\BLEApplication.c ****             ConnParam=*(CYBLE_GAP_CONN_PARAM_UPDATED_IN_CONTROLLER_T *)eventParam;            
 215              		.loc 1 146 0
 216 0072 7F48     		ldr	r0, .L36+24
 217 0074 0822     		mov	r2, #8
 218 0076 FFF7FEFF 		bl	memcpy
 219              	.LVL15:
 147:.\BLEApplication.c ****             if(Role==Peripheral)
 220              		.loc 1 147 0
 221 007a 7E4B     		ldr	r3, .L36+28
 222 007c 1B78     		ldrb	r3, [r3]
 223 007e 012B     		cmp	r3, #1
 224 0080 03D1     		bne	.L20
 148:.\BLEApplication.c ****             {
 149:.\BLEApplication.c ****                 printf("+CONN_EVT=OK\r\n");
 225              		.loc 1 149 0
 226 0082 7D48     		ldr	r0, .L36+32
 227 0084 FFF7FEFF 		bl	puts
 228              	.LVL16:
 229 0088 E3E0     		b	.L1
 230              	.L20:
 150:.\BLEApplication.c ****             }
 151:.\BLEApplication.c ****             else
 152:.\BLEApplication.c ****             {
 153:.\BLEApplication.c ****                 printf("+CONN_EVT=<%d,OK>\r\n",Conn_or_Disconn_Idx);   
 231              		.loc 1 153 0
 232 008a 764B     		ldr	r3, .L36+12
 233 008c 5978     		ldrb	r1, [r3, #1]
 234 008e 7B48     		ldr	r0, .L36+36
 235 0090 FFF7FEFF 		bl	printf
 236              	.LVL17:
 154:.\BLEApplication.c **** //                ‰∏é‰ªéÊú∫ËøûÊé•ÊàêÂäüÂêéÔºå‰∏ªÊú∫ÂèëËµ∑ËøûÊé•Èó¥ÈöîÊõ¥Êñ∞ËØ∑Ê±Ç
 155:.\BLEApplication.c ****                 CyBle_GapcConnectionParamUpdateRequest(cyBle_connHandle.bdHandle,&connParam);      
 237              		.loc 1 155 0
 238 0094 7A4B     		ldr	r3, .L36+40
 239 0096 1878     		ldrb	r0, [r3]
 240 0098 7649     		ldr	r1, .L36+28
 241 009a 0431     		add	r1, r1, #4
 242 009c FFF7FEFF 		bl	CyBle_GapcConnectionParamUpdateRequest
 243              	.LVL18:
 244 00a0 D7E0     		b	.L1
ARM GAS  C:\Users\Helon\AppData\Local\Temp\cckZyeCc.s 			page 8


 245              	.LVL19:
 246              	.L10:
 156:.\BLEApplication.c ****             }
 157:.\BLEApplication.c **** //            //‰∏ªÊú∫ÂèëÈÄÅÁöÑMTU exchange request
 158:.\BLEApplication.c **** //            if(MTU_REQ_FLAG)
 159:.\BLEApplication.c **** //            {
 160:.\BLEApplication.c **** //                MTU_REQ_FLAG=FALSE;
 161:.\BLEApplication.c **** //                /* Initiate an MTU exchange request */
 162:.\BLEApplication.c **** //                CyBle_GattcExchangeMtuReq(cyBle_connHandle, CYBLE_GATT_MTU);
 163:.\BLEApplication.c **** //            }
 164:.\BLEApplication.c ****         break;
 165:.\BLEApplication.c ****         case CYBLE_EVT_GAP_CONNECTION_UPDATE_COMPLETE: 
 166:.\BLEApplication.c **** //            Ëé∑ÂèñËøûÊé•ÂèÇÊï∞‰ø°ÊÅØ
 167:.\BLEApplication.c ****             ConnParam=*(CYBLE_GAP_CONN_PARAM_UPDATED_IN_CONTROLLER_T *)eventParam;
 247              		.loc 1 167 0
 248 00a2 7348     		ldr	r0, .L36+24
 249 00a4 0822     		mov	r2, #8
 250 00a6 FFF7FEFF 		bl	memcpy
 251              	.LVL20:
 168:.\BLEApplication.c ****             printf("+UPDATECONN_EVT=OK\r\n");
 252              		.loc 1 168 0
 253 00aa 7648     		ldr	r0, .L36+44
 254 00ac FFF7FEFF 		bl	puts
 255              	.LVL21:
 169:.\BLEApplication.c **** //            if(Role==Central)
 170:.\BLEApplication.c **** //                Timer_Enable();
 171:.\BLEApplication.c ****         break;
 256              		.loc 1 171 0
 257 00b0 CFE0     		b	.L1
 258              	.LVL22:
 259              	.L13:
 172:.\BLEApplication.c **** //            ‰∏ªÊú∫Êé•Êî∂‰ªéÊú∫ÁöÑMTU‰∫§Êç¢ÂìçÂ∫î
 173:.\BLEApplication.c ****         case CYBLE_EVT_GATTC_XCHNG_MTU_RSP:
 174:.\BLEApplication.c ****             /* Enable notifications on the characteristic to get data from the 
 175:.\BLEApplication.c ****              * Server.
 176:.\BLEApplication.c ****              */
 177:.\BLEApplication.c **** //            TroughtTest_Flag=TURE;  
 178:.\BLEApplication.c **** //            UART_UartPutString("Calculating throughput. Please wait...\n\r");
 179:.\BLEApplication.c **** //            Timer_Enable();
 180:.\BLEApplication.c **** //            printf("'MTU Exchange Response' received from server device\r\n");
 181:.\BLEApplication.c ****             if(0x00==writeRequestData.value.val[0])
 260              		.loc 1 181 0
 261 00b2 754B     		ldr	r3, .L36+48
 262 00b4 1B68     		ldr	r3, [r3]
 263 00b6 1A78     		ldrb	r2, [r3]
 264 00b8 002A     		cmp	r2, #0
 265 00ba 01D1     		bne	.L21
 182:.\BLEApplication.c ****                 writeRequestData.value.val[0]=0x01;
 266              		.loc 1 182 0
 267 00bc 0132     		add	r2, r2, #1
 268 00be 1A70     		strb	r2, [r3]
 269              	.L21:
 183:.\BLEApplication.c ****             writeRequestData.attrHandle=CYBLE_TROUGHPUT_SERVICE_SPEEDTEST_CHAR_HANDLE;
 270              		.loc 1 183 0
 271 00c0 7149     		ldr	r1, .L36+48
 272              	.LVL23:
 273 00c2 1123     		mov	r3, #17
ARM GAS  C:\Users\Helon\AppData\Local\Temp\cckZyeCc.s 			page 9


 274 00c4 0B81     		strh	r3, [r1, #8]
 184:.\BLEApplication.c ****             CyBle_GattcWriteCharacteristicValue(cyBle_connHandle, &writeRequestData);   
 275              		.loc 1 184 0
 276 00c6 6E4A     		ldr	r2, .L36+40
 277 00c8 1378     		ldrb	r3, [r2]
 278 00ca 5078     		ldrb	r0, [r2, #1]
 279 00cc 0002     		lsl	r0, r0, #8
 280 00ce 1843     		orr	r0, r3
 281 00d0 FFF7FEFF 		bl	CyBle_GattcWriteCharacteristicValue
 282              	.LVL24:
 185:.\BLEApplication.c **** //            printf("Notify slave is %d",API_RESULT);
 186:.\BLEApplication.c **** //            while((UART_SpiUartGetTxBufferSize() + UART_GET_TX_FIFO_SR_VALID) != 0);//Á≠âÂæÖ‰∏≤Âè
 187:.\BLEApplication.c ****             break;
 283              		.loc 1 187 0
 284 00d4 BDE0     		b	.L1
 285              	.LVL25:
 286              	.L12:
 188:.\BLEApplication.c ****         /* GATT MTU exchange request - Update the negotiated MTU value */
 189:.\BLEApplication.c **** //            ÂÅö‰∏∫‰ªéÊú∫Êó∂Êé•Êî∂‰∏ªÊú∫ÂèëÈÄÅËøáÊù•ÁöÑMTU‰∫§Êç¢ËØ∑Ê±Ç
 190:.\BLEApplication.c ****         case CYBLE_EVT_GATTS_XCNHG_MTU_REQ:
 191:.\BLEApplication.c ****             negotiatedMtu = (((CYBLE_GATT_XCHG_MTU_PARAM_T *)eventParam)->mtu < CYBLE_GATT_MTU) ?
 287              		.loc 1 191 0
 288 00d6 4B88     		ldrh	r3, [r1, #2]
 289 00d8 1A1C     		add	r2, r3, #0
 290 00da 8021     		mov	r1, #128
 291              	.LVL26:
 292 00dc 8900     		lsl	r1, r1, #2
 293 00de 8B42     		cmp	r3, r1
 294 00e0 01D9     		bls	.L22
 295 00e2 6A4B     		ldr	r3, .L36+52
 296 00e4 1A88     		ldrh	r2, [r3]
 297              	.L22:
 298 00e6 634B     		ldr	r3, .L36+28
 299 00e8 9A81     		strh	r2, [r3, #12]
 192:.\BLEApplication.c ****                             ((CYBLE_GATT_XCHG_MTU_PARAM_T *)eventParam)->mtu : CYBLE_GATT_MTU;
 193:.\BLEApplication.c **** //            printf("'MTU Exchange Request' received from GATT client device\r\n");
 194:.\BLEApplication.c ****         break;
 300              		.loc 1 194 0
 301 00ea B2E0     		b	.L1
 302              	.LVL27:
 303              	.L9:
 195:.\BLEApplication.c ****         case CYBLE_EVT_GAP_DEVICE_DISCONNECTED:   
 196:.\BLEApplication.c ****             cyBle_discoveryModeInfo.advTo = CYBLE_FAST_ADV_TIMEOUT;
 304              		.loc 1 196 0
 305 00ec 684B     		ldr	r3, .L36+56
 306 00ee 1E22     		mov	r2, #30
 307 00f0 1A82     		strh	r2, [r3, #16]
 197:.\BLEApplication.c ****             cyBle_discoveryModeInfo.advParam->advIntvMin = CYBLE_FAST_ADV_INT_MIN;
 308              		.loc 1 197 0
 309 00f2 0232     		add	r2, r2, #2
 310 00f4 5968     		ldr	r1, [r3, #4]
 311              	.LVL28:
 312 00f6 0A80     		strh	r2, [r1]
 198:.\BLEApplication.c ****             cyBle_discoveryModeInfo.advParam->advIntvMax = CYBLE_FAST_ADV_INT_MAX;                 
 313              		.loc 1 198 0
 314 00f8 5B68     		ldr	r3, [r3, #4]
 315 00fa 5A80     		strh	r2, [r3, #2]
ARM GAS  C:\Users\Helon\AppData\Local\Temp\cckZyeCc.s 			page 10


 199:.\BLEApplication.c ****             if(Role==Peripheral)
 316              		.loc 1 199 0
 317 00fc 5D4B     		ldr	r3, .L36+28
 318 00fe 1B78     		ldrb	r3, [r3]
 319 0100 012B     		cmp	r3, #1
 320 0102 04D1     		bne	.L23
 200:.\BLEApplication.c ****             {
 201:.\BLEApplication.c ****                 printf("+DISCONN_EVT=<0x%02X>\r\n",*(uint8_t*)eventParam);
 321              		.loc 1 201 0
 322 0104 2178     		ldrb	r1, [r4]
 323 0106 6348     		ldr	r0, .L36+60
 324 0108 FFF7FEFF 		bl	printf
 325              	.LVL29:
 326 010c 05E0     		b	.L26
 327              	.L23:
 202:.\BLEApplication.c ****             }
 203:.\BLEApplication.c ****             else
 204:.\BLEApplication.c ****             {
 205:.\BLEApplication.c ****                printf("+DISCONN_EVT=<%d,0x%02X>\r\n",Conn_or_Disconn_Idx,*(uint8_t*)eventParam);
 328              		.loc 1 205 0
 329 010e 2278     		ldrb	r2, [r4]
 330 0110 544B     		ldr	r3, .L36+12
 331 0112 5978     		ldrb	r1, [r3, #1]
 332 0114 6048     		ldr	r0, .L36+64
 333 0116 FFF7FEFF 		bl	printf
 334              	.LVL30:
 335              	.L26:
 206:.\BLEApplication.c ****             }
 207:.\BLEApplication.c ****             while((UART_SpiUartGetTxBufferSize() + UART_GET_TX_FIFO_SR_VALID) != 0);//Á≠âÂæÖ‰∏≤Âè£Á
 336              		.loc 1 207 0 discriminator 5
 337 011a FFF7FEFF 		bl	UART_SpiUartGetTxBufferSize
 338              	.LVL31:
 339 011e 504B     		ldr	r3, .L36+8
 340 0120 1B68     		ldr	r3, [r3]
 341 0122 8022     		mov	r2, #128
 342 0124 1202     		lsl	r2, r2, #8
 343 0126 1340     		and	r3, r2
 344 0128 00D0     		beq	.L25
 345              		.loc 1 207 0 is_stmt 0
 346 012a 0123     		mov	r3, #1
 347              	.L25:
 348              		.loc 1 207 0 discriminator 4
 349 012c C318     		add	r3, r0, r3
 350 012e 002B     		cmp	r3, #0
 351 0130 F3D1     		bne	.L26
 208:.\BLEApplication.c ****             LowPower_EN=TURE;
 352              		.loc 1 208 0 is_stmt 1
 353 0132 0122     		mov	r2, #1
 354 0134 4F4B     		ldr	r3, .L36+28
 355 0136 9A73     		strb	r2, [r3, #14]
 209:.\BLEApplication.c ****         break;
 356              		.loc 1 209 0
 357 0138 8BE0     		b	.L1
 358              	.LVL32:
 359              	.L16:
 210:.\BLEApplication.c **** //            ‰ªéÊú∫Êé•Êî∂‰∏ªÊú∫ÁöÑÂÜôËØ∑Ê±ÇÔºåÂπ∂‰∏î‰ªéÊú∫‰∏çÈúÄË¶ÅÂÜôÂìçÂ∫î
 211:.\BLEApplication.c ****         case CYBLE_EVT_GATTS_WRITE_CMD_REQ:
ARM GAS  C:\Users\Helon\AppData\Local\Temp\cckZyeCc.s 			page 11


 212:.\BLEApplication.c ****             writeParam = *(CYBLE_GATTS_WRITE_REQ_PARAM_T *)eventParam;
 360              		.loc 1 212 0
 361 013a 03AB     		add	r3, sp, #12
 362 013c 07CC     		ldmia	r4!, {r0, r1, r2}
 363 013e 07C3     		stmia	r3!, {r0, r1, r2}
 364              	.LVL33:
 365 0140 2568     		ldr	r5, [r4]
 366 0142 1D60     		str	r5, [r3]
 213:.\BLEApplication.c ****             //Ëá™ÂÆö‰πâÊúçÂä°ÁöÑCUSTOM Characteristic
 214:.\BLEApplication.c ****             if(writeParam.handleValPair.attrHandle == 
 367              		.loc 1 214 0
 368 0144 ADB2     		uxth	r5, r5
 369 0146 0E2D     		cmp	r5, #14
 370 0148 13D1     		bne	.L27
 215:.\BLEApplication.c ****                CYBLE_TROUGHPUT_SERVICE_CUSTOM_CHARACTERISTIC_CHAR_HANDLE)
 216:.\BLEApplication.c ****             {
 217:.\BLEApplication.c ****                 testCount+=writeParam.handleValPair.value.len;    
 371              		.loc 1 217 0
 372 014a 03AB     		add	r3, sp, #12
 373 014c 1E89     		ldrh	r6, [r3, #8]
 374 014e 454A     		ldr	r2, .L36+12
 375 0150 5368     		ldr	r3, [r2, #4]
 376 0152 F318     		add	r3, r6, r3
 377 0154 5360     		str	r3, [r2, #4]
 218:.\BLEApplication.c **** //                printf("0x");
 219:.\BLEApplication.c **** //                UART_UartPutString("0x");
 220:.\BLEApplication.c ****                 for(i=0;i<writeParam.handleValPair.value.len;i++)
 378              		.loc 1 220 0
 379 0156 0024     		mov	r4, #0
 380              	.LVL34:
 381 0158 05E0     		b	.L28
 382              	.LVL35:
 383              	.L29:
 221:.\BLEApplication.c ****                 {                    
 222:.\BLEApplication.c **** //                    printf("%02X",writeParam.handleValPair.value.val[i]);
 223:.\BLEApplication.c ****                     UART_UartPutChar(writeParam.handleValPair.value.val[i]);
 384              		.loc 1 223 0 discriminator 3
 385 015a 049B     		ldr	r3, [sp, #16]
 386 015c 185D     		ldrb	r0, [r3, r4]
 387 015e FFF7FEFF 		bl	UART_SpiUartWriteTxData
 388              	.LVL36:
 220:.\BLEApplication.c ****                 {                    
 389              		.loc 1 220 0 discriminator 3
 390 0162 0134     		add	r4, r4, #1
 391              	.LVL37:
 392 0164 E4B2     		uxtb	r4, r4
 393              	.LVL38:
 394              	.L28:
 220:.\BLEApplication.c ****                 {                    
 395              		.loc 1 220 0 is_stmt 0 discriminator 1
 396 0166 A3B2     		uxth	r3, r4
 397 0168 9E42     		cmp	r6, r3
 398 016a F6D8     		bhi	.L29
 224:.\BLEApplication.c ****                 }   
 225:.\BLEApplication.c ****                 UART_UartPutString("\r\n");
 399              		.loc 1 225 0 is_stmt 1
 400 016c 4B48     		ldr	r0, .L36+68
ARM GAS  C:\Users\Helon\AppData\Local\Temp\cckZyeCc.s 			page 12


 401 016e FFF7FEFF 		bl	UART_UartPutString
 402              	.LVL39:
 403              	.L27:
 226:.\BLEApplication.c **** //                printf("\r\n");
 227:.\BLEApplication.c **** //                UART_SpiUartWriteTxData(testCount);
 228:.\BLEApplication.c **** //                printf("%ld\r\n",testCount);
 229:.\BLEApplication.c **** //                printf("+RX=<0x");
 230:.\BLEApplication.c **** //                for(i=0;i<writeParam.handleValPair.value.len;i++)
 231:.\BLEApplication.c **** //                {
 232:.\BLEApplication.c **** //                    printf("%02X",writeParam.handleValPair.value.val[i]);
 233:.\BLEApplication.c **** //                }
 234:.\BLEApplication.c **** //                printf(">\r\n");
 235:.\BLEApplication.c ****             } 
 236:.\BLEApplication.c ****              //Ëá™ÂÆö‰πâÊúçÂä°ÁöÑClient Characteristic
 237:.\BLEApplication.c ****             if(writeParam.handleValPair.attrHandle == 
 404              		.loc 1 237 0
 405 0172 0F2D     		cmp	r5, #15
 406 0174 6DD1     		bne	.L1
 238:.\BLEApplication.c ****                CYBLE_TROUGHPUT_SERVICE_CUSTOM_CHARACTERISTIC_CLIENT_CHARACTERISTIC_CONFIGURATION_DE
 239:.\BLEApplication.c ****             {
 240:.\BLEApplication.c ****                 charNotificationEnabled = writeParam.handleValPair.value.val[0];  
 407              		.loc 1 240 0
 408 0176 049B     		ldr	r3, [sp, #16]
 409 0178 1B78     		ldrb	r3, [r3]
 410 017a 3A4A     		ldr	r2, .L36+12
 411 017c 1372     		strb	r3, [r2, #8]
 241:.\BLEApplication.c ****                 if(charNotificationEnabled)
 412              		.loc 1 241 0
 413 017e 002B     		cmp	r3, #0
 414 0180 06D0     		beq	.L30
 242:.\BLEApplication.c ****                 {               
 243:.\BLEApplication.c ****                     CommandMode=THROUGHT_MODE;
 415              		.loc 1 243 0
 416 0182 0122     		mov	r2, #1
 417 0184 374B     		ldr	r3, .L36+12
 418 0186 5A72     		strb	r2, [r3, #9]
 244:.\BLEApplication.c ****                     printf("+MODE=<THROUGHT_MODE>\r\n");
 419              		.loc 1 244 0
 420 0188 4548     		ldr	r0, .L36+72
 421 018a FFF7FEFF 		bl	puts
 422              	.LVL40:
 423 018e 60E0     		b	.L1
 424              	.L30:
 245:.\BLEApplication.c ****                 }
 246:.\BLEApplication.c ****                 else
 247:.\BLEApplication.c ****                 {
 248:.\BLEApplication.c ****                     CommandMode=AT_COMMAND_MODE;
 425              		.loc 1 248 0
 426 0190 0022     		mov	r2, #0
 427 0192 344B     		ldr	r3, .L36+12
 428 0194 5A72     		strb	r2, [r3, #9]
 249:.\BLEApplication.c ****                     printf("+MODE=<AT_COMMAND_MODE>\r\n");
 429              		.loc 1 249 0
 430 0196 4348     		ldr	r0, .L36+76
 431 0198 FFF7FEFF 		bl	puts
 432              	.LVL41:
 433 019c 59E0     		b	.L1
ARM GAS  C:\Users\Helon\AppData\Local\Temp\cckZyeCc.s 			page 13


 434              	.LVL42:
 435              	.L15:
 250:.\BLEApplication.c ****                 }
 251:.\BLEApplication.c ****             }   
 252:.\BLEApplication.c ****         break;
 253:.\BLEApplication.c ****         /* Check if the Client Characteristic Configuration Descriptor is
 254:.\BLEApplication.c ****          * written to. Notification is enabled or disabled accordingly.
 255:.\BLEApplication.c ****         */
 256:.\BLEApplication.c **** //            ‰ªéÊú∫Êé•Êî∂‰∏ªÊú∫ÁöÑÂÜôËØ∑Ê±ÇÔºåÂπ∂‰∏î‰ªéÊú∫Ë¶ÅÊúâÂÜôÂìçÂ∫î
 257:.\BLEApplication.c ****         case CYBLE_EVT_GATTS_WRITE_REQ:
 258:.\BLEApplication.c **** //            writeParam = *(CYBLE_GATTS_WRITE_REQ_PARAM_T *)eventParam;
 259:.\BLEApplication.c **** //            //Ëá™ÂÆö‰πâÊúçÂä°ÁöÑCUSTOM Characteristic
 260:.\BLEApplication.c **** //            if(writeParam.handleValPair.attrHandle == 
 261:.\BLEApplication.c **** //               CYBLE_TROUGHPUT_SERVICE_CUSTOM_CHARACTERISTIC_CHAR_HANDLE)
 262:.\BLEApplication.c **** //            {
 263:.\BLEApplication.c **** //                testCount+=writeParam.handleValPair.value.len;
 264:.\BLEApplication.c **** ////                UART_SpiUartWriteTxData(testCount);
 265:.\BLEApplication.c **** ////                printf("%ld\r\n",testCount);
 266:.\BLEApplication.c **** ////                printf("+RX=<0x");
 267:.\BLEApplication.c **** ////                for(i=0;i<writeParam.handleValPair.value.len;i++)
 268:.\BLEApplication.c **** ////                {
 269:.\BLEApplication.c **** ////                    printf("%02X",writeParam.handleValPair.value.val[i]);
 270:.\BLEApplication.c **** ////                }
 271:.\BLEApplication.c **** ////                printf(">\r\n");
 272:.\BLEApplication.c **** //            } 
 273:.\BLEApplication.c **** //            //Ëá™ÂÆö‰πâÊúçÂä°ÁöÑClient Characteristic
 274:.\BLEApplication.c **** //            if(writeParam.handleValPair.attrHandle == 
 275:.\BLEApplication.c **** //               CYBLE_TROUGHPUT_SERVICE_CUSTOM_CHARACTERISTIC_CLIENT_CHARACTERISTIC_CONFIGURATION_
 276:.\BLEApplication.c **** //            {
 277:.\BLEApplication.c **** //                charNotificationEnabled = writeParam.handleValPair.value.val[0];  
 278:.\BLEApplication.c **** //                if(charNotificationEnabled)
 279:.\BLEApplication.c **** //                {               
 280:.\BLEApplication.c **** //                    CommandMode=THROUGHT_MODE;
 281:.\BLEApplication.c **** //                    printf("+MODE=<THROUGHT_MODE>\r\n");
 282:.\BLEApplication.c **** //                }
 283:.\BLEApplication.c **** //                else
 284:.\BLEApplication.c **** //                {
 285:.\BLEApplication.c **** //                    CommandMode=AT_COMMAND_MODE;
 286:.\BLEApplication.c **** //                    printf("+MODE=<AT_COMMAND_MODE>\r\n");
 287:.\BLEApplication.c **** //                }
 288:.\BLEApplication.c **** //            }   
 289:.\BLEApplication.c **** //            //Ëá™ÂÆö‰πâÊúçÂä°ÁöÑSPEEDTEST Characteristic
 290:.\BLEApplication.c **** //            if(writeParam.handleValPair.attrHandle == 
 291:.\BLEApplication.c **** //               CYBLE_TROUGHPUT_SERVICE_SPEEDTEST_CHAR_HANDLE)
 292:.\BLEApplication.c **** //            {
 293:.\BLEApplication.c **** //                TroughtTest_Flag = writeParam.handleValPair.value.val[0];                
 294:.\BLEApplication.c **** //            }               
 295:.\BLEApplication.c **** //            CyBle_GattsWriteRsp(cyBle_connHandle);
 296:.\BLEApplication.c ****         break;
 297:.\BLEApplication.c **** //        ÂÅö‰∏∫‰∏ªÊú∫Êó∂ÔºåÊé•Êî∂Âà∞‰ªéÊú∫ÁöÑÂÜôÂìçÂ∫î
 298:.\BLEApplication.c ****         case CYBLE_EVT_GATTC_WRITE_RSP:
 299:.\BLEApplication.c ****             /* Write response for the CCCD write; this means that the
 300:.\BLEApplication.c ****              * notifications are now enabled.
 301:.\BLEApplication.c ****              * Start timing measurements to calculate throughput.
 302:.\BLEApplication.c ****              */
 303:.\BLEApplication.c ****             if(TroughtTest_Flag)//‰ªÖ‰ªÖÂìçÂ∫îÊµãËØïÈÄè‰º†ÈÄüÁéáÊåá‰ª§,ÂÖ∂‰ªñÂÜôËØ∑Ê±Ç‰∏çÂìçÂ∫î
 436              		.loc 1 303 0
ARM GAS  C:\Users\Helon\AppData\Local\Temp\cckZyeCc.s 			page 14


 437 019e 314B     		ldr	r3, .L36+12
 438 01a0 9B7A     		ldrb	r3, [r3, #10]
 439 01a2 002B     		cmp	r3, #0
 440 01a4 55D0     		beq	.L1
 304:.\BLEApplication.c ****             {                
 305:.\BLEApplication.c **** //                TroughtTest_Flag=FALSE;
 306:.\BLEApplication.c ****                 UART_UartPutString("Calculating throughput. Please wait...\n\r");
 441              		.loc 1 306 0
 442 01a6 4048     		ldr	r0, .L36+80
 443 01a8 FFF7FEFF 		bl	UART_UartPutString
 444              	.LVL43:
 307:.\BLEApplication.c ****                 Timer_Enable();
 445              		.loc 1 307 0
 446 01ac FFF7FEFF 		bl	Timer_Enable
 447              	.LVL44:
 448 01b0 4FE0     		b	.L1
 449              	.LVL45:
 450              	.L17:
 308:.\BLEApplication.c ****             }
 309:.\BLEApplication.c ****         break;
 310:.\BLEApplication.c **** //        case CYBLE_EVT_GATTC_READ_RSP:
 311:.\BLEApplication.c **** //            readParam=*(CYBLE_GATTC_READ_RSP_PARAM_T*)eventParam;
 312:.\BLEApplication.c **** //            if((readParam.value.val[0]))
 313:.\BLEApplication.c **** //                printf("+NOTIFY=<ENABLE>\r\n");
 314:.\BLEApplication.c **** //            else
 315:.\BLEApplication.c **** //                printf("+NOTIFY=<DISABLE>\r\n");
 316:.\BLEApplication.c **** //        break;
 317:.\BLEApplication.c **** //        Êé•Êî∂‰ªéÊú∫ÂèëÈÄÅËøáÊù•ÁöÑÈÄè‰º†Êï∞ÊçÆ            
 318:.\BLEApplication.c ****         case CYBLE_EVT_GATTC_HANDLE_VALUE_NTF:
 319:.\BLEApplication.c ****             if(TroughtTest_Flag==TRUE)
 451              		.loc 1 319 0
 452 01b2 2C4B     		ldr	r3, .L36+12
 453 01b4 9B7A     		ldrb	r3, [r3, #10]
 454 01b6 012B     		cmp	r3, #1
 455 01b8 0DD1     		bne	.L31
 320:.\BLEApplication.c ****             {
 321:.\BLEApplication.c ****                 if(Central==Role)//‰ªÖÊµãËØïÈÄè‰º†ÈÄüÁéáÊó∂ÊúâÊïà
 456              		.loc 1 321 0
 457 01ba 2E4B     		ldr	r3, .L36+28
 458 01bc 1B78     		ldrb	r3, [r3]
 459 01be 002B     		cmp	r3, #0
 460 01c0 47D1     		bne	.L1
 461              	.LVL46:
 322:.\BLEApplication.c ****                 {
 323:.\BLEApplication.c ****                     handleValueNotification = (CYBLE_GATTC_HANDLE_VALUE_NTF_PARAM_T *)eventParam;
 324:.\BLEApplication.c ****                     if(handleValueNotification->handleValPair.attrHandle == 0x000E)//NotifyÊùÉÈôêÁö
 462              		.loc 1 324 0
 463 01c2 8B89     		ldrh	r3, [r1, #12]
 464 01c4 0E2B     		cmp	r3, #14
 465 01c6 44D1     		bne	.L1
 325:.\BLEApplication.c ****                     {
 326:.\BLEApplication.c ****         //                printf("Len is %d",handleValueNotification->handleValPair.value.len);
 327:.\BLEApplication.c ****                         totalByteCounter += handleValueNotification->handleValPair.value.len;
 466              		.loc 1 327 0
 467 01c8 0B89     		ldrh	r3, [r1, #8]
 468 01ca 264A     		ldr	r2, .L36+12
 469 01cc D168     		ldr	r1, [r2, #12]
ARM GAS  C:\Users\Helon\AppData\Local\Temp\cckZyeCc.s 			page 15


 470              	.LVL47:
 471 01ce 8C46     		mov	ip, r1
 472 01d0 6344     		add	r3, r3, ip
 473 01d2 D360     		str	r3, [r2, #12]
 474 01d4 3DE0     		b	.L1
 475              	.LVL48:
 476              	.L31:
 328:.\BLEApplication.c ****                     }
 329:.\BLEApplication.c ****     //                printf("ReceviceNotification\r\n");
 330:.\BLEApplication.c ****                 }
 331:.\BLEApplication.c ****             }
 332:.\BLEApplication.c ****             else
 333:.\BLEApplication.c ****             {
 334:.\BLEApplication.c ****                 if(Central==Role)//Êé•Êî∂‰ªéÊú∫ÂèëÈÄÅËøáÊù•ÁöÑÈÄè‰º†Êï∞ÊçÆ
 477              		.loc 1 334 0
 478 01d6 274B     		ldr	r3, .L36+28
 479 01d8 1B78     		ldrb	r3, [r3]
 480 01da 002B     		cmp	r3, #0
 481 01dc 39D1     		bne	.L1
 482              	.LVL49:
 335:.\BLEApplication.c ****                 {
 336:.\BLEApplication.c ****                     handleValueNotification = (CYBLE_GATTC_HANDLE_VALUE_NTF_PARAM_T *)eventParam;
 337:.\BLEApplication.c ****                     if(handleValueNotification->handleValPair.attrHandle == 0x000E)//NotifyÊùÉÈôêÁö
 483              		.loc 1 337 0
 484 01de 8B89     		ldrh	r3, [r1, #12]
 485 01e0 0E2B     		cmp	r3, #14
 486 01e2 36D1     		bne	.L1
 338:.\BLEApplication.c ****                     {
 339:.\BLEApplication.c ****         //                printf("Len is %d",handleValueNotification->handleValPair.value.len);
 340:.\BLEApplication.c ****     //                    totalByteCounter += handleValueNotification->handleValPair.value.len;
 341:.\BLEApplication.c ****     //                    printf("%ld\r\n",totalByteCounter);
 342:.\BLEApplication.c ****                         printf("+RX=<0x");
 487              		.loc 1 342 0
 488 01e4 3148     		ldr	r0, .L36+84
 489 01e6 FFF7FEFF 		bl	printf
 490              	.LVL50:
 343:.\BLEApplication.c ****                         for(i=0;i<handleValueNotification->handleValPair.value.len;i++)
 491              		.loc 1 343 0
 492 01ea 0025     		mov	r5, #0
 493 01ec 06E0     		b	.L32
 494              	.LVL51:
 495              	.L33:
 344:.\BLEApplication.c ****                         {
 345:.\BLEApplication.c ****                             printf("%02X",handleValueNotification->handleValPair.value.val[i]);
 496              		.loc 1 345 0 discriminator 3
 497 01ee 6368     		ldr	r3, [r4, #4]
 498 01f0 595D     		ldrb	r1, [r3, r5]
 499 01f2 2F48     		ldr	r0, .L36+88
 500 01f4 FFF7FEFF 		bl	printf
 501              	.LVL52:
 343:.\BLEApplication.c ****                         for(i=0;i<handleValueNotification->handleValPair.value.len;i++)
 502              		.loc 1 343 0 discriminator 3
 503 01f8 0135     		add	r5, r5, #1
 504              	.LVL53:
 505 01fa EDB2     		uxtb	r5, r5
 506              	.LVL54:
 507              	.L32:
ARM GAS  C:\Users\Helon\AppData\Local\Temp\cckZyeCc.s 			page 16


 343:.\BLEApplication.c ****                         for(i=0;i<handleValueNotification->handleValPair.value.len;i++)
 508              		.loc 1 343 0 is_stmt 0 discriminator 1
 509 01fc ABB2     		uxth	r3, r5
 510 01fe 2289     		ldrh	r2, [r4, #8]
 511 0200 9342     		cmp	r3, r2
 512 0202 F4D3     		bcc	.L33
 346:.\BLEApplication.c ****                         }
 347:.\BLEApplication.c ****                         printf(">\r\n");
 513              		.loc 1 347 0 is_stmt 1
 514 0204 2B48     		ldr	r0, .L36+92
 515 0206 FFF7FEFF 		bl	puts
 516              	.LVL55:
 517 020a 22E0     		b	.L1
 518              	.LVL56:
 519              	.L14:
 348:.\BLEApplication.c ****                     }
 349:.\BLEApplication.c ****                 }
 350:.\BLEApplication.c ****             }
 351:.\BLEApplication.c ****             break;
 352:.\BLEApplication.c **** //        case CYBLE_EVT_GATTC_READ_BY_TYPE_RSP:
 353:.\BLEApplication.c **** //            DisAllCharResult=*((CYBLE_GATTC_READ_BY_TYPE_RSP_PARAM_T*)eventParam);
 354:.\BLEApplication.c **** //            printf("characteristic declaration is 0x%04X\r\n",DisAllCharResult.connHandle.bdHandl
 355:.\BLEApplication.c **** //            printf("attrLen is %d\r\n",DisAllCharResult.attrData.attrLen);   
 356:.\BLEApplication.c **** //            for(i=0;i<DisAllCharResult.attrData.attrLen;)
 357:.\BLEApplication.c **** //            {
 358:.\BLEApplication.c **** //                printf("Attribute Handle is 0x%02X%02X\r\n",DisAllCharResult.attrData.attrValue[i
 359:.\BLEApplication.c **** //                printf("Properties is 0x%02X\r\n",DisAllCharResult.attrData.attrValue[i+2]); 
 360:.\BLEApplication.c **** //                printf("Pointer Handle is 0x%02X%02X\r\n",DisAllCharResult.attrData.attrValue[i+4
 361:.\BLEApplication.c **** //                printf("UUID is 0x%02X%02X\r\n",DisAllCharResult.attrData.attrValue[i+6],DisAllCh
 362:.\BLEApplication.c **** //                i+=7;
 363:.\BLEApplication.c **** //            }
 364:.\BLEApplication.c **** ////            printf("uuid16 is 0x%04X\r\n",DisAllCharResult.uuid.uuid16); 
 365:.\BLEApplication.c **** ////            printf("uuidFormat is 0x%04X\r\n",DisAllCharResult.uuidFormat); 
 366:.\BLEApplication.c **** ////            printf("valueHandle is 0x%04X\r\n",DisAllCharResult.valueHandle);            
 367:.\BLEApplication.c **** //        break;
 368:.\BLEApplication.c **** //        Êü•ÊâæServerÁöÑÊâÄÊúâÁâπÂæÅÂÄº
 369:.\BLEApplication.c ****         case CYBLE_EVT_GATTC_FIND_INFO_RSP:
 370:.\BLEApplication.c ****             DisAllCharResult=*((CYBLE_GATTC_FIND_INFO_RSP_PARAM_T *)eventParam);
 520              		.loc 1 370 0
 521 020c 07AB     		add	r3, sp, #28
 522 020e 07CC     		ldmia	r4!, {r0, r1, r2}
 523 0210 07C3     		stmia	r3!, {r0, r1, r2}
 524              	.LVL57:
 525 0212 1A1C     		mov	r2, r3
 526 0214 2368     		ldr	r3, [r4]
 527 0216 1360     		str	r3, [r2]
 371:.\BLEApplication.c **** //            printf("+DISALLCHAR=<0x%02X%02X,",);
 372:.\BLEApplication.c **** //            printf("connHandle is 0x%04X\r\n",DisAllCharResult.connHandle.bdHandle);
 373:.\BLEApplication.c **** //            printf("uuidFormat is %d\r\n",DisAllCharResult.uuidFormat);
 374:.\BLEApplication.c **** //            printf("byteCount is %d\r\n",DisAllCharResult.handleValueList.byteCount);
 375:.\BLEApplication.c ****             for(i=0;i<DisAllCharResult.handleValueList.byteCount;)
 528              		.loc 1 375 0
 529 0218 0024     		mov	r4, #0
 530              	.LVL58:
 531 021a 0BE0     		b	.L34
 532              	.LVL59:
 533              	.L35:
ARM GAS  C:\Users\Helon\AppData\Local\Temp\cckZyeCc.s 			page 17


 376:.\BLEApplication.c ****             {                
 377:.\BLEApplication.c ****                 printf("+DIS_EVT=<0x%02X%02X,0x%02X%02X>\r\n",
 378:.\BLEApplication.c ****                     DisAllCharResult.handleValueList.list[i+1],DisAllCharResult.handleValueList.lis
 534              		.loc 1 378 0
 535 021c 089B     		ldr	r3, [sp, #32]
 536 021e 1819     		add	r0, r3, r4
 537 0220 4178     		ldrb	r1, [r0, #1]
 538 0222 1A5D     		ldrb	r2, [r3, r4]
 379:.\BLEApplication.c ****                     DisAllCharResult.handleValueList.list[i+3],DisAllCharResult.handleValueList.lis
 539              		.loc 1 379 0
 540 0224 C378     		ldrb	r3, [r0, #3]
 541 0226 8078     		ldrb	r0, [r0, #2]
 377:.\BLEApplication.c ****                     DisAllCharResult.handleValueList.list[i+1],DisAllCharResult.handleValueList.lis
 542              		.loc 1 377 0
 543 0228 0090     		str	r0, [sp]
 544 022a 2348     		ldr	r0, .L36+96
 545 022c FFF7FEFF 		bl	printf
 546              	.LVL60:
 380:.\BLEApplication.c ****                 i=i+4;
 547              		.loc 1 380 0
 548 0230 0434     		add	r4, r4, #4
 549              	.LVL61:
 550 0232 E4B2     		uxtb	r4, r4
 551              	.LVL62:
 552              	.L34:
 375:.\BLEApplication.c ****             {                
 553              		.loc 1 375 0 discriminator 1
 554 0234 A3B2     		uxth	r3, r4
 555 0236 07AA     		add	r2, sp, #28
 556 0238 1289     		ldrh	r2, [r2, #8]
 557 023a 9342     		cmp	r3, r2
 558 023c EED3     		bcc	.L35
 559 023e 08E0     		b	.L1
 560              	.LVL63:
 561              	.L7:
 381:.\BLEApplication.c ****             }
 382:.\BLEApplication.c ****         break;
 383:.\BLEApplication.c ****         case CYBLE_EVT_GAP_AUTH_REQ:
 384:.\BLEApplication.c ****             if(Role==Peripheral)//‰ªéÊú∫Êé•Êî∂‰∏ªÊú∫ÂèëËµ∑ËÆ§ËØÅËØ∑Ê±Ç
 562              		.loc 1 384 0
 563 0240 0C4B     		ldr	r3, .L36+28
 564 0242 1B78     		ldrb	r3, [r3]
 565 0244 012B     		cmp	r3, #1
 566 0246 04D1     		bne	.L1
 385:.\BLEApplication.c ****             {
 386:.\BLEApplication.c ****                 CyBle_GappAuthReqReply(cyBle_connHandle.bdHandle,&cyBle_authInfo);
 567              		.loc 1 386 0
 568 0248 0D4B     		ldr	r3, .L36+40
 569 024a 1878     		ldrb	r0, [r3]
 570 024c 1B49     		ldr	r1, .L36+100
 571              	.LVL64:
 572 024e FFF7FEFF 		bl	CyBle_GappAuthReqReply
 573              	.LVL65:
 574              	.L1:
 387:.\BLEApplication.c ****             }
 388:.\BLEApplication.c ****             else
 389:.\BLEApplication.c ****             {
ARM GAS  C:\Users\Helon\AppData\Local\Temp\cckZyeCc.s 			page 18


 390:.\BLEApplication.c **** //                CyBle_GappAuthReq();
 391:.\BLEApplication.c ****             }
 392:.\BLEApplication.c ****         break;            
 393:.\BLEApplication.c ****         default:
 394:.\BLEApplication.c ****         break;
 395:.\BLEApplication.c ****     
 396:.\BLEApplication.c ****     }
 397:.\BLEApplication.c **** }
 575              		.loc 1 397 0
 576 0252 10B0     		add	sp, sp, #64
 577              		@ sp needed
 578 0254 70BD     		pop	{r4, r5, r6, pc}
 579              	.L37:
 580 0256 C046     		.align	2
 581              	.L36:
 582 0258 00000000 		.word	.L4
 583 025c 00000000 		.word	.LC1
 584 0260 08022440 		.word	1076101640
 585 0264 00000000 		.word	.LANCHOR0
 586 0268 10000000 		.word	.LC4
 587 026c 1C000000 		.word	.LC6
 588 0270 00000000 		.word	ConnParam
 589 0274 00000000 		.word	.LANCHOR1
 590 0278 28000000 		.word	.LC10
 591 027c 38000000 		.word	.LC12
 592 0280 00000000 		.word	cyBle_connHandle
 593 0284 4C000000 		.word	.LC15
 594 0288 00000000 		.word	writeRequestData
 595 028c 00000000 		.word	.LC40
 596 0290 00000000 		.word	cyBle_discoveryModeInfo
 597 0294 60000000 		.word	.LC19
 598 0298 78000000 		.word	.LC21
 599 029c 94000000 		.word	.LC23
 600 02a0 98000000 		.word	.LC25
 601 02a4 B0000000 		.word	.LC27
 602 02a8 CC000000 		.word	.LC29
 603 02ac F8000000 		.word	.LC31
 604 02b0 00010000 		.word	.LC33
 605 02b4 08010000 		.word	.LC35
 606 02b8 0C010000 		.word	.LC37
 607 02bc 00000000 		.word	cyBle_authInfo
 608              		.cfi_endproc
 609              	.LFE35:
 610              		.size	StackEventHandler, .-StackEventHandler
 611              		.section	.text.MY_ISR_USERBUTTON,"ax",%progbits
 612              		.align	2
 613              		.global	MY_ISR_USERBUTTON
 614              		.code	16
 615              		.thumb_func
 616              		.type	MY_ISR_USERBUTTON, %function
 617              	MY_ISR_USERBUTTON:
 618              	.LFB37:
 398:.\BLEApplication.c **** 
 399:.\BLEApplication.c **** 
 400:.\BLEApplication.c **** /******************************************************************************
 401:.\BLEApplication.c **** * Function Name: LowPowerManagement
 402:.\BLEApplication.c **** ***************************************************************************//**
ARM GAS  C:\Users\Helon\AppData\Local\Temp\cckZyeCc.s 			page 19


 403:.\BLEApplication.c **** * 
 404:.\BLEApplication.c **** *  BLE‰ΩéÂäüËÄóÁÆ°ÁêÜ
 405:.\BLEApplication.c **** * 
 406:.\BLEApplication.c **** * \return
 407:.\BLEApplication.c **** *  None
 408:.\BLEApplication.c **** * 
 409:.\BLEApplication.c **** ******************************************************************************/
 410:.\BLEApplication.c **** //uint8_t size=0,ch[10]={0},i=0;
 411:.\BLEApplication.c **** void LowPowerManagement(void)
 412:.\BLEApplication.c **** {
 413:.\BLEApplication.c ****     /* Local variable to store the status of BLESS Hardware block */
 414:.\BLEApplication.c **** 		CYBLE_LP_MODE_T sleepMode;
 415:.\BLEApplication.c **** 		CYBLE_BLESS_STATE_T blessState;
 416:.\BLEApplication.c **** 	
 417:.\BLEApplication.c **** 		/* Put BLESS into Deep Sleep and check the return status */
 418:.\BLEApplication.c **** 		sleepMode = CyBle_EnterLPM(CYBLE_BLESS_DEEPSLEEP);
 419:.\BLEApplication.c **** 		
 420:.\BLEApplication.c **** 		/* Disable global interrupt to prevent changes from any other interrupt ISR */
 421:.\BLEApplication.c **** 		CyGlobalIntDisable;
 422:.\BLEApplication.c **** 	
 423:.\BLEApplication.c **** 		/* Check the Status of BLESS */
 424:.\BLEApplication.c **** 		blessState = CyBle_GetBleSsState();
 425:.\BLEApplication.c **** 
 426:.\BLEApplication.c **** 		if(sleepMode == CYBLE_BLESS_DEEPSLEEP)
 427:.\BLEApplication.c **** 		{
 428:.\BLEApplication.c **** 		    /* If the ECO has started or the BLESS can go to Deep Sleep, then place CPU 
 429:.\BLEApplication.c **** 			* to Deep Sleep */
 430:.\BLEApplication.c **** 			if(blessState == CYBLE_BLESS_STATE_ECO_ON || blessState == CYBLE_BLESS_STATE_DEEPSLEEP)
 431:.\BLEApplication.c **** 		    {
 432:.\BLEApplication.c **** //                printf("Device is going into DeepSleep!\r\n");
 433:.\BLEApplication.c ****                 Status_LED_Write(LED_ON);             
 434:.\BLEApplication.c ****                 while((UART_SpiUartGetTxBufferSize() + UART_GET_TX_FIFO_SR_VALID) != 0);//Á≠âÂæÖ‰∏≤
 435:.\BLEApplication.c **** 		        CySysPmDeepSleep();
 436:.\BLEApplication.c **** //                CyDelay(10);                
 437:.\BLEApplication.c **** //                Âî§ÈÜíÂêé‰ΩøËÉΩ‰∏≤Âè£Êé•Êî∂‰∏≠Êñ≠
 438:.\BLEApplication.c **** //                  UART_SetCustomInterruptHandler(My_ISR_UART);            
 439:.\BLEApplication.c ****                 LowPower_EN=FALSE;
 440:.\BLEApplication.c ****                 Status_LED_Write(LED_OFF);  
 441:.\BLEApplication.c **** 
 442:.\BLEApplication.c **** 		 	}
 443:.\BLEApplication.c **** 		}
 444:.\BLEApplication.c **** 		else if(sleepMode == CYBLE_BLESS_SLEEP)
 445:.\BLEApplication.c **** 		{
 446:.\BLEApplication.c **** 		    if(blessState != CYBLE_BLESS_STATE_EVENT_CLOSE)
 447:.\BLEApplication.c **** 		    {
 448:.\BLEApplication.c **** 				/* If the BLESS hardware block cannot go to Deep Sleep and BLE Event has not 
 449:.\BLEApplication.c **** 				* closed yet, then place CPU to Sleep */ 
 450:.\BLEApplication.c **** 		        CySysPmSleep();  
 451:.\BLEApplication.c **** 		    }
 452:.\BLEApplication.c **** 		}
 453:.\BLEApplication.c **** 		/* Re-enable global interrupt mask after wakeup */
 454:.\BLEApplication.c **** 		CyGlobalIntEnable;           
 455:.\BLEApplication.c ****         
 456:.\BLEApplication.c **** }
 457:.\BLEApplication.c **** 
 458:.\BLEApplication.c **** /******************************************************************************
 459:.\BLEApplication.c **** * Function Name: MY_ISR_USERBUTTON
ARM GAS  C:\Users\Helon\AppData\Local\Temp\cckZyeCc.s 			page 20


 460:.\BLEApplication.c **** ***************************************************************************//**
 461:.\BLEApplication.c **** * 
 462:.\BLEApplication.c **** *  Âî§ÈÜíÊåâÈîÆ‰∏≠Êñ≠Â§ÑÁêÜÂáΩÊï∞
 463:.\BLEApplication.c **** * 
 464:.\BLEApplication.c **** * \return
 465:.\BLEApplication.c **** *  None
 466:.\BLEApplication.c **** * 
 467:.\BLEApplication.c **** ******************************************************************************/
 468:.\BLEApplication.c **** CY_ISR(MY_ISR_USERBUTTON)
 469:.\BLEApplication.c **** {
 619              		.loc 1 469 0
 620              		.cfi_startproc
 621 0000 08B5     		push	{r3, lr}
 622              		.cfi_def_cfa_offset 8
 623              		.cfi_offset 3, -8
 624              		.cfi_offset 14, -4
 470:.\BLEApplication.c ****     isr_UserButton_ClearPending();
 625              		.loc 1 470 0
 626 0002 FFF7FEFF 		bl	isr_UserButton_ClearPending
 627              	.LVL66:
 471:.\BLEApplication.c ****     UserButton_ClearInterrupt();
 628              		.loc 1 471 0
 629 0006 FFF7FEFF 		bl	UserButton_ClearInterrupt
 630              	.LVL67:
 472:.\BLEApplication.c **** //    Ê∏ÖÈô§‰∏≤Âè£Êé•Êî∂ÁºìÂÜ≤Âå∫,Èò≤Ê≠¢‰øÆÊîπ‰∫Ü‰∏≤Âè£Ê≥¢ÁâπÁéá‰πãÂêé,ÂèëÈÄÅÁ´ØÊú™ÂèäÊó∂Áõ∏Â∫îÁöÑÊ
 473:.\BLEApplication.c ****     memset(RX_BUFFER,0,sizeof(RX_BUFFER));
 631              		.loc 1 473 0
 632 000a 0C49     		ldr	r1, .L40
 633 000c 0023     		mov	r3, #0
 634 000e 0B61     		str	r3, [r1, #16]
 635 0010 4B61     		str	r3, [r1, #20]
 636 0012 8B61     		str	r3, [r1, #24]
 637 0014 CB61     		str	r3, [r1, #28]
 638 0016 0B62     		str	r3, [r1, #32]
 639 0018 4B62     		str	r3, [r1, #36]
 640 001a 8B62     		str	r3, [r1, #40]
 641 001c CB62     		str	r3, [r1, #44]
 642 001e 0B63     		str	r3, [r1, #48]
 643 0020 4B63     		str	r3, [r1, #52]
 644 0022 8B63     		str	r3, [r1, #56]
 645 0024 CB63     		str	r3, [r1, #60]
 474:.\BLEApplication.c ****     Buffer_Length=0;
 646              		.loc 1 474 0
 647 0026 4022     		mov	r2, #64
 648 0028 8B54     		strb	r3, [r1, r2]
 475:.\BLEApplication.c ****     if(Peripheral==Role)
 649              		.loc 1 475 0
 650 002a 054B     		ldr	r3, .L40+4
 651 002c 1B78     		ldrb	r3, [r3]
 652 002e 012B     		cmp	r3, #1
 653 0030 02D1     		bne	.L38
 476:.\BLEApplication.c ****     {
 477:.\BLEApplication.c ****         CyBle_GappStartAdvertisement(CYBLE_ADVERTISING_FAST);
 654              		.loc 1 477 0
 655 0032 0020     		mov	r0, #0
 656 0034 FFF7FEFF 		bl	CyBle_GappStartAdvertisement
 657              	.LVL68:
ARM GAS  C:\Users\Helon\AppData\Local\Temp\cckZyeCc.s 			page 21


 658              	.L38:
 478:.\BLEApplication.c ****     }
 479:.\BLEApplication.c **** //    StartScan=TRUE;
 480:.\BLEApplication.c **** //    printf("test!\r\n");
 481:.\BLEApplication.c **** }
 659              		.loc 1 481 0
 660              		@ sp needed
 661 0038 08BD     		pop	{r3, pc}
 662              	.L41:
 663 003a C046     		.align	2
 664              	.L40:
 665 003c 00000000 		.word	.LANCHOR0
 666 0040 00000000 		.word	.LANCHOR1
 667              		.cfi_endproc
 668              	.LFE37:
 669              		.size	MY_ISR_USERBUTTON, .-MY_ISR_USERBUTTON
 670              		.section	.text.MyTimerIsr,"ax",%progbits
 671              		.align	2
 672              		.global	MyTimerIsr
 673              		.code	16
 674              		.thumb_func
 675              		.type	MyTimerIsr, %function
 676              	MyTimerIsr:
 677              	.LFB45:
 482:.\BLEApplication.c **** /******************************************************************************
 483:.\BLEApplication.c **** * Function Name: My_ISR_UART
 484:.\BLEApplication.c **** ***************************************************************************//**
 485:.\BLEApplication.c **** * 
 486:.\BLEApplication.c **** *  ‰∏≤Âè£Êé•Êî∂‰∏≠Êñ≠Â§ÑÁêÜÂáΩÊï∞
 487:.\BLEApplication.c **** * 
 488:.\BLEApplication.c **** * \return
 489:.\BLEApplication.c **** *  None
 490:.\BLEApplication.c **** * 
 491:.\BLEApplication.c **** ******************************************************************************/
 492:.\BLEApplication.c **** CY_ISR(My_ISR_UART)
 493:.\BLEApplication.c **** {
 494:.\BLEApplication.c **** //    uint8_t rxdata;
 495:.\BLEApplication.c ****     if(UART_GetRxInterruptSourceMasked()&UART_INTR_RX_NOT_EMPTY)//Âà§Êñ≠Êé•Êî∂‰∏≠Êñ≠ÁöÑÁ±ªÂûã
 496:.\BLEApplication.c ****     {
 497:.\BLEApplication.c ****         rx_isover=TURE;
 498:.\BLEApplication.c ****         //ËØªÂèñ‰∏≤Âè£Êï∞ÊçÆ
 499:.\BLEApplication.c **** //        rxdata=UART_UartGetByte();
 500:.\BLEApplication.c **** //        if(rxdata!='\n')
 501:.\BLEApplication.c **** //        {
 502:.\BLEApplication.c **** //          RX_BUFFER[Buffer_Length]=rxdata;//ËØªÂèñ‰∏≤Âè£Êé•Êî∂ÁºìÂÜ≤Âå∫ÁöÑÊï∞ÊçÆ
 503:.\BLEApplication.c **** //          Buffer_Length++;
 504:.\BLEApplication.c **** //        }
 505:.\BLEApplication.c **** //        else
 506:.\BLEApplication.c **** //        {          
 507:.\BLEApplication.c **** //          RX_BUFFER[Buffer_Length]=rxdata;//ËØªÂèñ‰∏≤Âè£Êé•Êî∂ÁºìÂÜ≤Âå∫ÁöÑÊï∞ÊçÆ
 508:.\BLEApplication.c **** //          rx_isover=TURE;
 509:.\BLEApplication.c **** //        }
 510:.\BLEApplication.c ****     }
 511:.\BLEApplication.c **** //    UART_SpiUartClearRxBuffer();//Ê∏ÖÈô§‰∏≤Âè£Êé•Êî∂ÁºìÂÜ≤Âå∫
 512:.\BLEApplication.c **** //    UART_RX_WAKEUP_IRQ_ClearPending();
 513:.\BLEApplication.c **** //    UART_SCB_IRQ_ClearPending();
 514:.\BLEApplication.c **** //    UART_rx_wake_ClearInterrupt();    
ARM GAS  C:\Users\Helon\AppData\Local\Temp\cckZyeCc.s 			page 22


 515:.\BLEApplication.c ****     UART_ClearRxInterruptSource(UART_INTR_RX_NOT_EMPTY);
 516:.\BLEApplication.c ****   
 517:.\BLEApplication.c **** }
 518:.\BLEApplication.c **** 
 519:.\BLEApplication.c **** /******************************************************************************
 520:.\BLEApplication.c **** * Function Name: SystemInitialization
 521:.\BLEApplication.c **** ***************************************************************************//**
 522:.\BLEApplication.c **** * 
 523:.\BLEApplication.c **** *  BLEÂçèËÆÆÊ†à„ÄÅÂ§ñËÆæÂàùÂßãÂåñ
 524:.\BLEApplication.c **** * 
 525:.\BLEApplication.c **** * \return
 526:.\BLEApplication.c **** *  None
 527:.\BLEApplication.c **** * 
 528:.\BLEApplication.c **** ******************************************************************************/
 529:.\BLEApplication.c **** void SystemInitialization(void)
 530:.\BLEApplication.c **** {
 531:.\BLEApplication.c **** //    ÊµÅÊéßÂºïËÑöÁöÑÂàùÂßãÂåñ
 532:.\BLEApplication.c ****     CTS_SetDriveMode(CTS_DM_STRONG);//ÊµÅÊéßÂºïËÑöËÆæÁΩÆ‰∏∫Êé®ÊåΩËæìÂá∫
 533:.\BLEApplication.c ****     CTS_Write(CTS_OFF);//ÊµÅÊéßÊòØ‰ΩéÁîµÂπ≥ÊúâÊïà
 534:.\BLEApplication.c **** //    uint16_t counter;
 535:.\BLEApplication.c ****     //Â≠òÊîæNotifyÂÄºÁöÑÊï∞ÁªÑÂàùÂßãÂåñ
 536:.\BLEApplication.c **** //    for(counter = 0; counter < 20; counter++)
 537:.\BLEApplication.c **** //    {
 538:.\BLEApplication.c **** //        buffer[counter] = counter;
 539:.\BLEApplication.c **** //    }
 540:.\BLEApplication.c **** //    ÂàùÂßãÂåñÂÜôËØ∑Ê±ÇÊï∞ÊçÆ
 541:.\BLEApplication.c ****     writeRequestData.attrHandle=CYBLE_TROUGHPUT_SERVICE_CUSTOM_CHARACTERISTIC_CLIENT_CHARACTERISTIC
 542:.\BLEApplication.c ****     writeRequestData.value=cccdNotifFlagSetStruct;
 543:.\BLEApplication.c **** //    ÂàùÂßãÂåñÂπøÊí≠Èó¥ÈöîÂíåÂπøÂëäË∂ÖÊó∂Êó∂Èó¥
 544:.\BLEApplication.c **** //    updateadvparam.advParam->advIntvMin=CYBLE_FAST_ADV_INT_MIN;
 545:.\BLEApplication.c **** //    updateadvparam.advParam->advIntvMax=CYBLE_FAST_ADV_INT_MAX;
 546:.\BLEApplication.c **** //    updateadvparam.advTo=CYBLE_FAST_ADV_TIMEOUT;
 547:.\BLEApplication.c **** //    ConfigUartInit();
 548:.\BLEApplication.c **** //    SetUartConfiguration(BAUD_9600);    
 549:.\BLEApplication.c ****     Timer_Init();
 550:.\BLEApplication.c ****     TimerInterrupt_StartEx(MyTimerIsr);
 551:.\BLEApplication.c ****     UART_Start();
 552:.\BLEApplication.c ****   //    UART_SCB_IRQ_StartEx(My_ISR_UART);   
 553:.\BLEApplication.c ****     isr_UserButton_StartEx(MY_ISR_USERBUTTON);
 554:.\BLEApplication.c ****     LedInit();
 555:.\BLEApplication.c ****     CyBle_Start(StackEventHandler);
 556:.\BLEApplication.c ****     
 557:.\BLEApplication.c **** }
 558:.\BLEApplication.c **** 
 559:.\BLEApplication.c **** /******************************************************************************
 560:.\BLEApplication.c **** * Function Name: ConfigUartInit
 561:.\BLEApplication.c **** ***************************************************************************//**
 562:.\BLEApplication.c **** * 
 563:.\BLEApplication.c **** *  UARTÈÖçÁΩÆÂàùÂßãÂåñ
 564:.\BLEApplication.c **** * 
 565:.\BLEApplication.c **** * \return
 566:.\BLEApplication.c **** *  None   
 567:.\BLEApplication.c **** * 
 568:.\BLEApplication.c **** ******************************************************************************/
 569:.\BLEApplication.c **** void ConfigUartInit(void)
 570:.\BLEApplication.c **** {   
 571:.\BLEApplication.c **** //    configUart.mode=UART_UART_MODE_STD;         /* mode: Standard */ 
ARM GAS  C:\Users\Helon\AppData\Local\Temp\cckZyeCc.s 			page 23


 572:.\BLEApplication.c **** //    configUart.direction=UART_UART_TX_RX;       /* direction: RX + TX */ 
 573:.\BLEApplication.c **** //    configUart.dataBits=8;                      /* dataBits: 8 bits */
 574:.\BLEApplication.c **** //    configUart.parity=UART_UART_PARITY_NONE;    /* parity: None */
 575:.\BLEApplication.c **** //    configUart.stopBits=UART_UART_STOP_BITS_1;  /* stopBits: 1 bit */ 
 576:.\BLEApplication.c **** //    configUart.oversample=16;                   /* oversample: 16u */
 577:.\BLEApplication.c **** //    configUart.enableIrdaLowPower=0;            /* enableIrdaLowPower: disable */
 578:.\BLEApplication.c **** //    configUart.enableMedianFilter=1;            /* enableMedianFilter: enable */
 579:.\BLEApplication.c **** //    configUart.enableRetryNack=0;               /* enableRetryNack: disable */
 580:.\BLEApplication.c **** //    configUart.enableInvertedRx=0;              /* enableInvertedRx: disable */
 581:.\BLEApplication.c **** //    configUart.dropOnParityErr=0;               /* dropOnParityErr: disable */
 582:.\BLEApplication.c **** //    configUart.dropOnFrameErr=0;                /* dropOnFrameErr: disable */
 583:.\BLEApplication.c **** //    configUart.enableWake=0;                    /* enableWake: disable */
 584:.\BLEApplication.c **** //    configUart.rxBufferSize=UART_RX_BUFFER;   /* rxBufferSize: software buffer 10 bytes */
 585:.\BLEApplication.c **** //    configUart.rxBuffer=bufferRx;               /* rxBuffer: RX software buffer enable */ 
 586:.\BLEApplication.c **** //    configUart.txBufferSize=UART_TX_BUFFER;   /* txBufferSize: software buffer 10 bytes */
 587:.\BLEApplication.c **** //    configUart.txBuffer=bufferTx;               /* txBuffer: TX software buffer enable */
 588:.\BLEApplication.c **** //    configUart.enableMultiproc=0;               /* enableMultiproc: disable */
 589:.\BLEApplication.c **** //    configUart.multiprocAcceptAddr=0;           /* multiprocAcceptAddr: disable */ 
 590:.\BLEApplication.c **** //    configUart.multiprocAddr=0;                 /* multiprocAddr: N/A for this configuration */ 
 591:.\BLEApplication.c **** //    configUart.multiprocAddrMask=0;             /* multiprocAddrMask: N/A for this configuration 
 592:.\BLEApplication.c **** //    configUart.enableInterrupt=1;               /* enableInterrupt: enable to process software bu
 593:.\BLEApplication.c **** //    configUart.rxInterruptMask=UART_INTR_RX_NOT_EMPTY; /* rxInterruptMask: enable NOT_EMPTY for R
 594:.\BLEApplication.c **** //    configUart.rxTriggerLevel=0;               /* rxTriggerLevel: N/A for this configuration */ 
 595:.\BLEApplication.c **** //    configUart.txInterruptMask=0;              /* txInterruptMask: NOT_FULL is enabled when there
 596:.\BLEApplication.c **** //    configUart.txTriggerLevel=0;               /* txTriggerLevel: N/A for this configuration */ 
 597:.\BLEApplication.c **** }
 598:.\BLEApplication.c **** /******************************************************************************
 599:.\BLEApplication.c **** * Function Name: SetUartConfiguration
 600:.\BLEApplication.c **** ***************************************************************************//**
 601:.\BLEApplication.c **** * 
 602:.\BLEApplication.c **** *  ËÆæÁΩÆ‰∏≤Âè£ÈÖçÁΩÆ
 603:.\BLEApplication.c **** * \param  DIVIDER_CLOCK:ÈÖçÁΩÆÊ≥¢ÁâπÁéáÁöÑÊó∂ÈíüÂàÜÈ¢ëÔºå‰∏çÂêåÁöÑÈ¢ëÁéáÂàÜÈ¢ëÁ≥ªÁªü‰∏çÂêå„ÄÇ
 604:.\BLEApplication.c **** * \return
 605:.\BLEApplication.c **** *   CYRET_SUCCESS    //Successful
 606:.\BLEApplication.c **** *   CYRET_BAD_PARAM  //Uknowns operation mode - no actions 
 607:.\BLEApplication.c **** ******************************************************************************/
 608:.\BLEApplication.c **** void SetUartConfiguration(uint32_t DIVIDER_CLOCK) 
 609:.\BLEApplication.c **** {
 610:.\BLEApplication.c **** //    cystatus status = CYRET_SUCCESS; 
 611:.\BLEApplication.c **** //    UART_Stop();                    /* Disable component before configuration change */ 
 612:.\BLEApplication.c **** //    /* Change clock divider */
 613:.\BLEApplication.c **** //    UART_CLOCK_Stop();
 614:.\BLEApplication.c **** //    UART_CLOCK_SetFractionalDividerRegister(DIVIDER_CLOCK, 0u); 
 615:.\BLEApplication.c **** //    UART_CLOCK_Start();
 616:.\BLEApplication.c **** //    /* Configure to UART operation */ 
 617:.\BLEApplication.c **** //    UART_UartInit(&configUart);          
 618:.\BLEApplication.c **** //    UART_Start();                       /* Enable component after configuration change */     
 619:.\BLEApplication.c **** }
 620:.\BLEApplication.c **** 
 621:.\BLEApplication.c **** /******************************************************************************
 622:.\BLEApplication.c **** * Function Name: LedInit
 623:.\BLEApplication.c **** ***************************************************************************//**
 624:.\BLEApplication.c **** * 
 625:.\BLEApplication.c **** *  Áä∂ÊÄÅÁÅØÂàùÂßãÂåñ
 626:.\BLEApplication.c **** * 
 627:.\BLEApplication.c **** * \return
 628:.\BLEApplication.c **** *  None
ARM GAS  C:\Users\Helon\AppData\Local\Temp\cckZyeCc.s 			page 24


 629:.\BLEApplication.c **** * 
 630:.\BLEApplication.c **** ******************************************************************************/
 631:.\BLEApplication.c **** void LedInit(void)
 632:.\BLEApplication.c **** {
 633:.\BLEApplication.c ****     Status_LED_SetDriveMode(Status_LED_DM_STRONG);
 634:.\BLEApplication.c ****     Connected_LED_SetDriveMode(Connected_LED_DM_STRONG);
 635:.\BLEApplication.c ****     Status_LED_Write(LED_OFF);
 636:.\BLEApplication.c ****     Connected_LED_Write(LED_OFF);
 637:.\BLEApplication.c **** }
 638:.\BLEApplication.c **** 
 639:.\BLEApplication.c **** /******************************************************************************
 640:.\BLEApplication.c **** * Function Name: Parser_UartData
 641:.\BLEApplication.c **** ***************************************************************************//**
 642:.\BLEApplication.c **** * 
 643:.\BLEApplication.c **** *  Ëß£ÊûêÊé•Êî∂Âà∞ÁöÑ‰∏≤Âè£Êï∞ÊçÆ
 644:.\BLEApplication.c **** * \param  SerialData:ÊåáÂêëcharÂûãÁöÑÊåáÈíà
 645:.\BLEApplication.c **** * \return
 646:.\BLEApplication.c **** *  None
 647:.\BLEApplication.c **** * 
 648:.\BLEApplication.c **** ******************************************************************************/
 649:.\BLEApplication.c **** void Parser_UartData(const char* SerialData)
 650:.\BLEApplication.c **** {
 651:.\BLEApplication.c ****     if(NULL==SerialData)
 652:.\BLEApplication.c ****         return;
 653:.\BLEApplication.c ****     uint8_t At_Command_Idex=0,i=0;
 654:.\BLEApplication.c ****     uint8_t idx=0;    
 655:.\BLEApplication.c ****     int16_t AdvMin,AdvMax;
 656:.\BLEApplication.c ****     char8 Name[27]={0};
 657:.\BLEApplication.c ****     char AdvData[31]={0};
 658:.\BLEApplication.c ****     char StrAdvData[62]={0};
 659:.\BLEApplication.c ****     char StrAdvDataLength[2]={0};
 660:.\BLEApplication.c ****     char AdvDataLength=0;
 661:.\BLEApplication.c ****     char AdvParamArray[2]={0};
 662:.\BLEApplication.c ****     char AdvParam=0;
 663:.\BLEApplication.c **** //    double connintv=0;
 664:.\BLEApplication.c **** //    uint16 supervisionTO=0;
 665:.\BLEApplication.c ****     CYBLE_API_RESULT_T API_RESULT=0;
 666:.\BLEApplication.c ****     uint8_t STAUS_T=0;
 667:.\BLEApplication.c ****     CYBLE_GATTC_FIND_INFO_REQ_T range;    
 668:.\BLEApplication.c ****     CYBLE_GAPP_DISC_DATA_T advDiscData;
 669:.\BLEApplication.c **** //    CYBLE_CONN_HANDLE_T  connHandle; 
 670:.\BLEApplication.c **** //     uint8 bdHandle=0;
 671:.\BLEApplication.c ****     At_Command_Idex=Command_Identify(SerialData);
 672:.\BLEApplication.c ****     switch(At_Command_Idex)
 673:.\BLEApplication.c ****     {
 674:.\BLEApplication.c **** //        ÊµãËØï‰∏≤Âè£ÊòØÂê¶Ê≠£Â∏∏----‰∏ª‰ªéÊúâÊïà
 675:.\BLEApplication.c ****         case _AT:
 676:.\BLEApplication.c ****             printf("OK\r\n");
 677:.\BLEApplication.c ****         break;
 678:.\BLEApplication.c **** //        ËΩØÂ§ç‰Ωç----‰∏ª‰ªéÊúâÊïà
 679:.\BLEApplication.c ****         case RESET:
 680:.\BLEApplication.c ****             printf("AT+RESET=1\r\n");
 681:.\BLEApplication.c ****             printf("OK\r\n");
 682:.\BLEApplication.c ****             while((UART_SpiUartGetTxBufferSize() + UART_GET_TX_FIFO_SR_VALID) != 0);//Á≠âÂæÖ‰∏≤Âè£Á
 683:.\BLEApplication.c ****             CySoftwareReset();
 684:.\BLEApplication.c ****         break;
 685:.\BLEApplication.c ****         case REFAC:
ARM GAS  C:\Users\Helon\AppData\Local\Temp\cckZyeCc.s 			page 25


 686:.\BLEApplication.c ****         break;
 687:.\BLEApplication.c **** //         ÂΩìÂâçÂõ∫‰ª∂ÁâàÊú¨ÁöÑÊü•ËØ¢
 688:.\BLEApplication.c ****         case VERSION:
 689:.\BLEApplication.c ****             printf("+VERSION=Ver1.0\r\n");
 690:.\BLEApplication.c ****         break;
 691:.\BLEApplication.c **** //            ÊöÇÊó∂Êó†ÊïàÔºåÂõ∫ÂÆö‰∏∫9600ÁöÑÊ≥¢ÁâπÁéá
 692:.\BLEApplication.c ****         case BAUD:
 693:.\BLEApplication.c ****             idx=SerialData[8];             
 694:.\BLEApplication.c ****             UartBuadRate_Handler(idx);
 695:.\BLEApplication.c ****         break;
 696:.\BLEApplication.c **** //            MACÂú∞ÂùÄÊü•ËØ¢----‰∏ª‰ªéÊúâÊïà
 697:.\BLEApplication.c ****         case LADDR:
 698:.\BLEApplication.c ****             idx=SerialData[9]; 
 699:.\BLEApplication.c ****             if('?'==idx)
 700:.\BLEApplication.c ****                 CyBle_GetDeviceAddress(&DeviceAddr);
 701:.\BLEApplication.c ****                 printf("+LADDR:<0x%02X%02X%02X%02X%02X%02X>\r\n",                  
 702:.\BLEApplication.c ****                     DeviceAddr.bdAddr[5],
 703:.\BLEApplication.c ****                     DeviceAddr.bdAddr[4],
 704:.\BLEApplication.c ****                     DeviceAddr.bdAddr[3],
 705:.\BLEApplication.c ****                     DeviceAddr.bdAddr[2],
 706:.\BLEApplication.c ****                     DeviceAddr.bdAddr[1],
 707:.\BLEApplication.c ****                     DeviceAddr.bdAddr[0]                             
 708:.\BLEApplication.c ****                   );
 709:.\BLEApplication.c ****         break;
 710:.\BLEApplication.c **** //                ËÆæÂ§áÂêçÊü•ËØ¢Âèä‰øÆÊîπ---‰ªéÊú∫ÊúâÊïà
 711:.\BLEApplication.c ****         case NAME:
 712:.\BLEApplication.c ****              idx=SerialData[8];
 713:.\BLEApplication.c ****              if(Peripheral==Role)
 714:.\BLEApplication.c ****              {
 715:.\BLEApplication.c ****                 switch(idx)
 716:.\BLEApplication.c ****                 {
 717:.\BLEApplication.c ****                     case '?':
 718:.\BLEApplication.c ****                         CyBle_GapGetLocalName(Name);
 719:.\BLEApplication.c ****                         printf("+NAME=<%s>\r\n",Name);
 720:.\BLEApplication.c **** //                        free(Name);
 721:.\BLEApplication.c ****                     break;
 722:.\BLEApplication.c ****                     case '<':                        
 723:.\BLEApplication.c ****                         if((CYBLE_STATE_CONNECTED!=CyBle_GetState()))
 724:.\BLEApplication.c ****                         {
 725:.\BLEApplication.c ****                             CyBle_GappStopAdvertisement();
 726:.\BLEApplication.c ****                             memset(Name,0,sizeof(char8)*27);
 727:.\BLEApplication.c ****                             memcpy(Name,RX_BUFFER+9,Buffer_Length-11);
 728:.\BLEApplication.c ****                             CyBle_GapSetLocalName(Name); 
 729:.\BLEApplication.c **** //                            free(Name);
 730:.\BLEApplication.c ****                             CyBle_GappStartAdvertisement(CYBLE_ADVERTISING_FAST);
 731:.\BLEApplication.c ****                         }
 732:.\BLEApplication.c ****                         else
 733:.\BLEApplication.c ****                         {
 734:.\BLEApplication.c ****                             printf("+NAME=<INVALID>\r\n"); 
 735:.\BLEApplication.c ****                         }
 736:.\BLEApplication.c ****                     break;
 737:.\BLEApplication.c ****                 }                   
 738:.\BLEApplication.c ****              }
 739:.\BLEApplication.c ****             else
 740:.\BLEApplication.c ****             {
 741:.\BLEApplication.c ****                 printf("+NAME=<INVALID>\r\n"); 
 742:.\BLEApplication.c ****             }
ARM GAS  C:\Users\Helon\AppData\Local\Temp\cckZyeCc.s 			page 26


 743:.\BLEApplication.c ****                 
 744:.\BLEApplication.c ****         break;
 745:.\BLEApplication.c ****         case CPIN:
 746:.\BLEApplication.c ****         break;
 747:.\BLEApplication.c **** //            ÂèëÂ∞ÑÂäüÁéáÊü•ËØ¢Âèä‰øÆÊîπ----‰ªéÊú∫ÊúâÊïà
 748:.\BLEApplication.c ****         case TXP:
 749:.\BLEApplication.c ****             idx=SerialData[7];
 750:.\BLEApplication.c ****             if(Role==Peripheral)
 751:.\BLEApplication.c ****                 TxPower_Handler(idx);
 752:.\BLEApplication.c ****              else
 753:.\BLEApplication.c ****             {
 754:.\BLEApplication.c ****                 printf("+TXP=<INVALID>\r\n"); 
 755:.\BLEApplication.c ****             }
 756:.\BLEApplication.c ****         break;
 757:.\BLEApplication.c **** //            ÂπøÊí≠Êï∞ÊçÆÁöÑ‰øÆÊîπÂèäÊü•ËØ¢----‰ªéÊú∫ÊúâÊïà
 758:.\BLEApplication.c ****         case ADVD:
 759:.\BLEApplication.c ****             idx=SerialData[8];
 760:.\BLEApplication.c ****             if((Peripheral==Role)&&(CYBLE_STATE_ADVERTISING==CyBle_GetState()))
 761:.\BLEApplication.c ****             {
 762:.\BLEApplication.c ****                 switch(idx)
 763:.\BLEApplication.c ****                 {
 764:.\BLEApplication.c ****                     case '<':                        
 765:.\BLEApplication.c ****                         memset(advDiscData.advData,0,CYBLE_GAP_MAX_ADV_DATA_LEN);
 766:.\BLEApplication.c ****                         memcpy(StrAdvDataLength,SerialData+9,2);
 767:.\BLEApplication.c ****                         StrToHex(&AdvDataLength,StrAdvDataLength,1);
 768:.\BLEApplication.c ****                         advDiscData.advDataLen=AdvDataLength;
 769:.\BLEApplication.c ****                         memcpy(StrAdvData,SerialData+12,AdvDataLength*2);
 770:.\BLEApplication.c ****                         StrToHex(AdvData,StrAdvData,sizeof(StrAdvData)/sizeof(char)/2);
 771:.\BLEApplication.c ****                         memcpy(advDiscData.advData,AdvData,advDiscData.advDataLen);
 772:.\BLEApplication.c ****                         API_RESULT=CyBle_GapUpdateAdvData(&advDiscData,NULL);
 773:.\BLEApplication.c ****                         if(CYBLE_ERROR_OK==API_RESULT)
 774:.\BLEApplication.c ****                         {
 775:.\BLEApplication.c ****                             printf("+ADVD=<SUCCESS>\r\n");
 776:.\BLEApplication.c ****                             cyBle_discoveryModeInfo.advData->advDataLen=AdvDataLength;
 777:.\BLEApplication.c ****                             memcpy(cyBle_discoveryModeInfo.advData->advData,AdvData,AdvDataLength);
 778:.\BLEApplication.c ****                         }
 779:.\BLEApplication.c ****                     break;
 780:.\BLEApplication.c ****                     case '?':
 781:.\BLEApplication.c ****                         printf("+ADVD=<0x");
 782:.\BLEApplication.c ****                         for(i=0;i<cyBle_discoveryModeInfo.advData->advDataLen;i++)
 783:.\BLEApplication.c ****                         {
 784:.\BLEApplication.c ****                             printf("%02X",cyBle_discoveryModeInfo.advData->advData[i]);
 785:.\BLEApplication.c ****                         }
 786:.\BLEApplication.c ****                         printf(">\r\n");
 787:.\BLEApplication.c ****                     break;
 788:.\BLEApplication.c ****                 }
 789:.\BLEApplication.c ****             }
 790:.\BLEApplication.c ****             else
 791:.\BLEApplication.c ****             {
 792:.\BLEApplication.c ****                 printf("+ADVD=<INVALID>\r\n");
 793:.\BLEApplication.c ****             }
 794:.\BLEApplication.c ****         break;
 795:.\BLEApplication.c **** //            ÂπøÊí≠Èó¥ÈöîÁöÑ‰øÆÊîπÂèäÊü•ËØ¢----‰ªéÊú∫ÊúâÊïà
 796:.\BLEApplication.c ****         case ADVI:            
 797:.\BLEApplication.c ****             if((Role==Peripheral)&&(CYBLE_STATE_CONNECTED!=CyBle_GetState()))
 798:.\BLEApplication.c ****             {
 799:.\BLEApplication.c ****                 idx=SerialData[8];                
ARM GAS  C:\Users\Helon\AppData\Local\Temp\cckZyeCc.s 			page 27


 800:.\BLEApplication.c ****                 switch(idx)
 801:.\BLEApplication.c ****                 {
 802:.\BLEApplication.c ****                     case '?':
 803:.\BLEApplication.c ****                     AdvMin=(cyBle_discoveryModeInfo.advParam->advIntvMin)*0.625;
 804:.\BLEApplication.c ****                     AdvMax=(cyBle_discoveryModeInfo.advParam->advIntvMax)*0.625;                   
 805:.\BLEApplication.c ****                     printf("+ADVI=<MIN=%hdms,MAX=%hdms,TIMEOUT=%hus>\r\n",AdvMin,
 806:.\BLEApplication.c ****                     AdvMax,cyBle_discoveryModeInfo.advTo);
 807:.\BLEApplication.c ****                     while((UART_SpiUartGetTxBufferSize() + UART_GET_TX_FIFO_SR_VALID) != 0);//Á≠âÂæ
 808:.\BLEApplication.c ****                     break;
 809:.\BLEApplication.c ****                     case '<':
 810:.\BLEApplication.c **** //                    Âè™ÊúâÂÅúÊ≠¢ÂπøÊí≠‰∫Ü‰øÆÊîπÊâçÊúâÊïà
 811:.\BLEApplication.c ****                     if(CYBLE_STATE_ADVERTISING!=CyBle_GetState())
 812:.\BLEApplication.c ****                     {
 813:.\BLEApplication.c ****                      //              Ëé∑ÂèñAdvMinÂÄº
 814:.\BLEApplication.c ****                         AdvParamArray[0]=SerialData[9];
 815:.\BLEApplication.c ****                         AdvParamArray[1]=SerialData[10];
 816:.\BLEApplication.c ****                         StrToHex(&AdvParam,AdvParamArray,1);
 817:.\BLEApplication.c ****                         cyBle_discoveryModeInfo.advParam->advIntvMin=AdvParam;
 818:.\BLEApplication.c ****     //                    Ëé∑ÂèñAdvMaxÂÄº
 819:.\BLEApplication.c ****                         AdvParamArray[0]=SerialData[12];
 820:.\BLEApplication.c ****                         AdvParamArray[1]=SerialData[13];
 821:.\BLEApplication.c ****                         StrToHex(&AdvParam,AdvParamArray,1);
 822:.\BLEApplication.c ****                         cyBle_discoveryModeInfo.advParam->advIntvMax=AdvParam;
 823:.\BLEApplication.c ****     //                      Ëé∑ÂèñAdvToÂÄº
 824:.\BLEApplication.c ****                         AdvParamArray[0]=SerialData[15];
 825:.\BLEApplication.c ****                         AdvParamArray[1]=SerialData[16];
 826:.\BLEApplication.c ****                         StrToHex(&AdvParam,AdvParamArray,1);
 827:.\BLEApplication.c ****                         cyBle_discoveryModeInfo.advTo=AdvParam;
 828:.\BLEApplication.c ****                         printf("%s",SerialData);
 829:.\BLEApplication.c ****                         printf("OK\r\n");
 830:.\BLEApplication.c ****                     }
 831:.\BLEApplication.c ****                     else
 832:.\BLEApplication.c ****                     {
 833:.\BLEApplication.c ****                          printf("+ADVI=<INVALID>\r\n");
 834:.\BLEApplication.c ****                     }
 835:.\BLEApplication.c ****                     break;
 836:.\BLEApplication.c ****                 }                              
 837:.\BLEApplication.c ****             }
 838:.\BLEApplication.c ****             else
 839:.\BLEApplication.c ****             {
 840:.\BLEApplication.c ****                 printf("+ADVI=<INVALID>\r\n");
 841:.\BLEApplication.c ****             }
 842:.\BLEApplication.c ****             
 843:.\BLEApplication.c ****         break;
 844:.\BLEApplication.c **** //            ËøûÊé•Èó¥ÈöîÁöÑ‰øÆÊîπÂèäÊü•ËØ¢----‰∏ªÊú∫ÊúâÊïàÔºåÊü•ËØ¢Âàô‰∏ª‰ªéÊúâÊïà
 845:.\BLEApplication.c ****         case CONNI:  
 846:.\BLEApplication.c ****             idx=SerialData[9];
 847:.\BLEApplication.c ****             switch(idx)
 848:.\BLEApplication.c ****             {
 849:.\BLEApplication.c ****                 case '?':
 850:.\BLEApplication.c ****                 if(CYBLE_STATE_CONNECTED==CyBle_GetState())
 851:.\BLEApplication.c ****                 {
 852:.\BLEApplication.c **** //                    connintv=(ConnParam.connIntv)*1.25;
 853:.\BLEApplication.c **** //                    supervisionTO=(ConnParam.supervisionTO)*10;
 854:.\BLEApplication.c ****                     printf("+CONNI=<CONNINTV=0x%04X,CONNTO=0x%04X,CONNLATENCY=0x%04X>\r\n",ConnPara
 855:.\BLEApplication.c ****                     ConnParam.supervisionTO,ConnParam.connLatency);
 856:.\BLEApplication.c ****                 }
ARM GAS  C:\Users\Helon\AppData\Local\Temp\cckZyeCc.s 			page 28


 857:.\BLEApplication.c ****                 else
 858:.\BLEApplication.c ****                 {
 859:.\BLEApplication.c ****                     printf("+CONNI=<INVALID>\r\n");
 860:.\BLEApplication.c ****                 }
 861:.\BLEApplication.c ****                 break;
 862:.\BLEApplication.c ****                 case '<':
 863:.\BLEApplication.c **** //                Âè™Êúâ‰∏ªÊú∫ÂèØ‰ª•Êõ¥ÊîπËøûÊé•ÂèÇÊï∞
 864:.\BLEApplication.c ****                 if(Role==Central)
 865:.\BLEApplication.c ****                 {
 866:.\BLEApplication.c **** //                    Ëé∑ÂèñÊúÄÂ∞èËøûÊé•Èó¥Èöî
 867:.\BLEApplication.c ****                     AdvParamArray[0]=SerialData[10];
 868:.\BLEApplication.c ****                     AdvParamArray[1]=SerialData[11];
 869:.\BLEApplication.c ****                     StrToHex(&AdvParam,AdvParamArray,1);
 870:.\BLEApplication.c ****                     connParam.connIntvMin=AdvParam;
 871:.\BLEApplication.c **** //                    Ëé∑ÂèñÊúÄÂ§ßËøûÊé•Èó¥Èöî                    
 872:.\BLEApplication.c ****                     AdvParamArray[0]=SerialData[13];
 873:.\BLEApplication.c ****                     AdvParamArray[1]=SerialData[14];
 874:.\BLEApplication.c ****                     StrToHex(&AdvParam,AdvParamArray,1);
 875:.\BLEApplication.c ****                     connParam.connIntvMax=AdvParam;
 876:.\BLEApplication.c **** //                    ÂèëËµ∑ËøûÊé•Èó¥ÈöîÊõ¥Êñ∞ËØ∑Ê±Ç
 877:.\BLEApplication.c ****                     API_RESULT=CyBle_GapcConnectionParamUpdateRequest(cyBle_connHandle.bdHandle,&co
 878:.\BLEApplication.c ****                     if(CYBLE_ERROR_OK==API_RESULT)
 879:.\BLEApplication.c ****                     {
 880:.\BLEApplication.c ****                         printf("%s",SerialData);
 881:.\BLEApplication.c ****                         printf("OK\r\n");
 882:.\BLEApplication.c ****                     }
 883:.\BLEApplication.c ****                     else
 884:.\BLEApplication.c ****                     {
 885:.\BLEApplication.c ****                         printf("+CONNI=<FAIL>\r\n");
 886:.\BLEApplication.c ****                     }
 887:.\BLEApplication.c ****                     
 888:.\BLEApplication.c ****                 }
 889:.\BLEApplication.c ****                 else
 890:.\BLEApplication.c ****                 {
 891:.\BLEApplication.c ****                     printf("+CONNI=<INVALID>\r\n");
 892:.\BLEApplication.c ****                 }
 893:.\BLEApplication.c ****                 break;
 894:.\BLEApplication.c ****             }
 895:.\BLEApplication.c ****             
 896:.\BLEApplication.c ****         break;
 897:.\BLEApplication.c **** //              ‰∏ª‰ªé‰∏Ä‰ΩìÂàáÊç¢ÂëΩ‰ª§-----‰∏ª‰ªéÊúâÊïà
 898:.\BLEApplication.c ****         case ROLE:
 899:.\BLEApplication.c ****             idx=SerialData[8];
 900:.\BLEApplication.c ****             switch(idx)
 901:.\BLEApplication.c ****             {
 902:.\BLEApplication.c ****                 case '?':
 903:.\BLEApplication.c ****                     if(Peripheral==Role)
 904:.\BLEApplication.c ****                     {
 905:.\BLEApplication.c ****                         printf("+ROLE:<Peripheral>\r\n");
 906:.\BLEApplication.c ****                     }
 907:.\BLEApplication.c ****                     else
 908:.\BLEApplication.c ****                     {
 909:.\BLEApplication.c ****                         printf("+ROLE:<Central>\r\n");
 910:.\BLEApplication.c ****                     }
 911:.\BLEApplication.c ****                 break;
 912:.\BLEApplication.c **** //                    1Ôºö‰ªéÊú∫(Slave)
 913:.\BLEApplication.c ****                 case '1':
ARM GAS  C:\Users\Helon\AppData\Local\Temp\cckZyeCc.s 			page 29


 914:.\BLEApplication.c ****                     if(CYBLE_STATE_CONNECTED!=CyBle_GetState())
 915:.\BLEApplication.c ****                     {
 916:.\BLEApplication.c ****                         //ÂÅúÊ≠¢Êâ´Êèè
 917:.\BLEApplication.c ****                         CyBle_GapcStopScan();
 918:.\BLEApplication.c ****                         //ÂºÄÂßãÂπøÊí≠
 919:.\BLEApplication.c ****                         CyBle_GappStartAdvertisement(CYBLE_ADVERTISING_FAST);
 920:.\BLEApplication.c ****                         Role=Peripheral;
 921:.\BLEApplication.c ****                         printf("+ROLE:<Peripheral>\r\n");
 922:.\BLEApplication.c ****                         printf("OK\r\n");
 923:.\BLEApplication.c ****                     }                    
 924:.\BLEApplication.c ****                 break;
 925:.\BLEApplication.c **** //                     0Ôºö‰∏ªÊú∫(Master)
 926:.\BLEApplication.c ****                 case '0':
 927:.\BLEApplication.c ****                     if(CYBLE_STATE_CONNECTED!=CyBle_GetState())
 928:.\BLEApplication.c ****                     {
 929:.\BLEApplication.c **** //                        ÂÅúÊ≠¢ÂπøÊí≠
 930:.\BLEApplication.c ****                         CyBle_GappStopAdvertisement();
 931:.\BLEApplication.c **** //                        ÂºÄÂßãÊâ´Êèè
 932:.\BLEApplication.c ****                         CyBle_GapcStartScan(CYBLE_SCANNING_FAST);
 933:.\BLEApplication.c ****                         Role=Central;
 934:.\BLEApplication.c ****                         printf("+ROLE:<Central>\r\n");
 935:.\BLEApplication.c ****                         printf("OK\r\n");
 936:.\BLEApplication.c ****                     }
 937:.\BLEApplication.c ****                     
 938:.\BLEApplication.c ****                 break;
 939:.\BLEApplication.c ****             }
 940:.\BLEApplication.c ****         break;
 941:.\BLEApplication.c **** ////            Êü•ËØ¢ÊâÄÊúâÁöÑÁâπÂæÅÊèèËø∞Á¨¶----‰∏ªÊú∫ÊúâÊïà
 942:.\BLEApplication.c ****         case DISALLCHAR:
 943:.\BLEApplication.c ****             if(Role==Central)
 944:.\BLEApplication.c ****             {
 945:.\BLEApplication.c ****                 range.startHandle=0x0001;
 946:.\BLEApplication.c ****                 range.endHandle=0xFFFF;       
 947:.\BLEApplication.c ****                 API_RESULT=CyBle_GattcDiscoverAllCharacteristicDescriptors(cyBle_connHandle,&range)
 948:.\BLEApplication.c ****             }
 949:.\BLEApplication.c ****             else
 950:.\BLEApplication.c ****             {
 951:.\BLEApplication.c ****                 printf("+DISALLCHAR=<INVALID>\r\n");
 952:.\BLEApplication.c ****             }
 953:.\BLEApplication.c ****         break;
 954:.\BLEApplication.c **** //            Êâ´ÊèèÂë®Âõ¥ÁöÑBLEËÆæÂ§á----‰∏ªÊú∫ÊúâÊïà
 955:.\BLEApplication.c ****         case SCAN:
 956:.\BLEApplication.c ****             if(Role==Central)
 957:.\BLEApplication.c ****             {
 958:.\BLEApplication.c ****                 if(SerialData[8]=='1')
 959:.\BLEApplication.c ****                 {
 960:.\BLEApplication.c ****                     if(CYBLE_STATE_CONNECTED!=CyBle_GetState())
 961:.\BLEApplication.c ****                     {
 962:.\BLEApplication.c ****                         ScanDeviceInfoInit();
 963:.\BLEApplication.c ****                         CyBle_GapcStartScan(CYBLE_SCANNING_FAST);
 964:.\BLEApplication.c ****                     }
 965:.\BLEApplication.c ****                     
 966:.\BLEApplication.c ****                 }
 967:.\BLEApplication.c ****                 else if(SerialData[8]=='0')
 968:.\BLEApplication.c ****                 {
 969:.\BLEApplication.c ****                     if(CYBLE_STATE_SCANNING==CyBle_GetState())
 970:.\BLEApplication.c ****                     {
ARM GAS  C:\Users\Helon\AppData\Local\Temp\cckZyeCc.s 			page 30


 971:.\BLEApplication.c ****                         ScanDeviceInfoInit();
 972:.\BLEApplication.c ****                         CyBle_GapcStopScan();
 973:.\BLEApplication.c ****                         STOP_SCAN_FLAG=TRUE;
 974:.\BLEApplication.c ****                     }
 975:.\BLEApplication.c ****                 }
 976:.\BLEApplication.c ****                 else if(SerialData[8]=='?')
 977:.\BLEApplication.c ****                 {
 978:.\BLEApplication.c ****                     for(i=0;i<DeviceCount;i++)
 979:.\BLEApplication.c ****                     {
 980:.\BLEApplication.c ****                         printf("+INQ_SCAN:<%d,0x%02X%02X%02X%02X%02X%02X>\r\n",
 981:.\BLEApplication.c ****                         DeviceInfo[i].idx,
 982:.\BLEApplication.c ****                         DeviceInfo[i].DeviceList.bdAddr[5],
 983:.\BLEApplication.c ****                         DeviceInfo[i].DeviceList.bdAddr[4],
 984:.\BLEApplication.c ****                         DeviceInfo[i].DeviceList.bdAddr[3],
 985:.\BLEApplication.c ****                         DeviceInfo[i].DeviceList.bdAddr[2],
 986:.\BLEApplication.c ****                         DeviceInfo[i].DeviceList.bdAddr[1],
 987:.\BLEApplication.c ****                         DeviceInfo[i].DeviceList.bdAddr[0]                             
 988:.\BLEApplication.c ****                       );
 989:.\BLEApplication.c ****     //                  while((UART_SpiUartGetTxBufferSize() + UART_GET_TX_FIFO_SR_VALID) != 0);//Á
 990:.\BLEApplication.c ****                     }
 991:.\BLEApplication.c ****                 }
 992:.\BLEApplication.c ****             }
 993:.\BLEApplication.c ****             else
 994:.\BLEApplication.c ****             {
 995:.\BLEApplication.c ****                 printf("+SCAN=<INVALID>\r\n");
 996:.\BLEApplication.c ****             }
 997:.\BLEApplication.c ****         break;
 998:.\BLEApplication.c **** //            ËøûÊé•ÈÄâ‰∏≠ÁöÑBLEËÆæÂ§á-----‰∏ªÊú∫ÊúâÊïà
 999:.\BLEApplication.c ****         case CONNT:
1000:.\BLEApplication.c ****             if(Role==Central)
1001:.\BLEApplication.c ****             {
1002:.\BLEApplication.c ****                 idx=SerialData[9];
1003:.\BLEApplication.c ****                 Connect_Device(idx);      
1004:.\BLEApplication.c ****             }
1005:.\BLEApplication.c ****             else
1006:.\BLEApplication.c ****             {
1007:.\BLEApplication.c ****                 printf("+CONNT=<INVALID>\r\n");
1008:.\BLEApplication.c ****             }
1009:.\BLEApplication.c ****         break;
1010:.\BLEApplication.c **** //            Êñ≠ÂºÄËøûÊé•----‰∏ª‰ªéÊúâÊïà
1011:.\BLEApplication.c ****         case DISCONN:
1012:.\BLEApplication.c ****             if(CYBLE_STATE_CONNECTED==CyBle_GetState())
1013:.\BLEApplication.c ****             {
1014:.\BLEApplication.c ****                 idx=SerialData[11];
1015:.\BLEApplication.c ****                 switch(idx)
1016:.\BLEApplication.c ****                 {
1017:.\BLEApplication.c ****                     case '1':
1018:.\BLEApplication.c ****                         API_RESULT=CyBle_GapDisconnect(cyBle_connHandle.bdHandle);
1019:.\BLEApplication.c ****                         if(CYBLE_ERROR_OK!=API_RESULT)  
1020:.\BLEApplication.c ****                         {
1021:.\BLEApplication.c ****                             printf("+DISCONN_EVT=<%d,0x%02X>\r\n",idx-0x30,API_RESULT);            
1022:.\BLEApplication.c ****                         }
1023:.\BLEApplication.c ****                         else
1024:.\BLEApplication.c ****                         {
1025:.\BLEApplication.c ****                             //Êñ≠ÂºÄËøûÊé•ÂêéÔºåÂ∫îËØ•Ê∏ÖÁ©∫ËøûÊé•ÂàóË°®ÂØπÂ∫îÁöÑÂÜÖÂÆπ
1026:.\BLEApplication.c ****                             for(i=0;i<Conn_Or_Disconn_Info.Connected_Count;i++)
1027:.\BLEApplication.c ****                             {
ARM GAS  C:\Users\Helon\AppData\Local\Temp\cckZyeCc.s 			page 31


1028:.\BLEApplication.c ****                                 if(1==Conn_Or_Disconn_Info.Connect_Idx[i])
1029:.\BLEApplication.c ****                                 {
1030:.\BLEApplication.c ****                                     Conn_Or_Disconn_Info.Connected_Count--;
1031:.\BLEApplication.c ****                                     memset(Conn_Or_Disconn_Info.DeviceAddr[i].bdAddr,0,6);
1032:.\BLEApplication.c ****                                     Conn_Or_Disconn_Info.Connect_Idx[i]=0;
1033:.\BLEApplication.c ****                                     Conn_Or_Disconn_Info.Disconn_Idx[0]=idx-0x30;
1034:.\BLEApplication.c ****                                     Conn_or_Disconn_Idx=idx-0x30;
1035:.\BLEApplication.c ****                                     break;
1036:.\BLEApplication.c ****                                 }
1037:.\BLEApplication.c ****                             }
1038:.\BLEApplication.c ****                          
1039:.\BLEApplication.c ****                         }
1040:.\BLEApplication.c ****                     break;
1041:.\BLEApplication.c ****                     case '2':
1042:.\BLEApplication.c ****                     break;
1043:.\BLEApplication.c ****                     case '3':
1044:.\BLEApplication.c ****                     break;
1045:.\BLEApplication.c ****                     case '4':
1046:.\BLEApplication.c ****                     break;                    
1047:.\BLEApplication.c ****                 }
1048:.\BLEApplication.c ****             }
1049:.\BLEApplication.c ****             
1050:.\BLEApplication.c ****         break;
1051:.\BLEApplication.c ****         case LOGIN:
1052:.\BLEApplication.c ****         break;
1053:.\BLEApplication.c ****         case TX:
1054:.\BLEApplication.c ****         break;
1055:.\BLEApplication.c **** //            ‰∏ªÊú∫Êåá‰ª§ËØªÂèñ‰ªéÊú∫ÁöÑRSSI----‰∏ª‰ªéÊú∫ÊúâÊïà
1056:.\BLEApplication.c ****         case RSSI:
1057:.\BLEApplication.c ****             if(CYBLE_STATE_CONNECTED==CyBle_GetState())
1058:.\BLEApplication.c ****             {
1059:.\BLEApplication.c ****                 idx=SerialData[8];
1060:.\BLEApplication.c ****                 if(idx=='?')
1061:.\BLEApplication.c ****                     printf("+RSSI:<%ddBm>\r\n",CyBle_GetRssi());
1062:.\BLEApplication.c ****             }            
1063:.\BLEApplication.c ****         break;     
1064:.\BLEApplication.c **** //            ÈÄè‰º†ÈÄüÁéáÊµãËØï----‰∏ªÊúâÊïà
1065:.\BLEApplication.c ****         case SPEED:            
1066:.\BLEApplication.c ****             if(CYBLE_STATE_CONNECTED==CyBle_GetState()&&(Central==Role))//ÂΩì‰∏î‰ªÖÂΩìÊòØËøûÊé•Áä∂Ê
1067:.\BLEApplication.c ****             {
1068:.\BLEApplication.c ****                 idx=SerialData[9];
1069:.\BLEApplication.c **** //                MTU_REQ_FLAG=TRUE;                
1070:.\BLEApplication.c ****                 if('?'==idx)
1071:.\BLEApplication.c ****                 {                           
1072:.\BLEApplication.c ****                     printf("Test Start\r\n");
1073:.\BLEApplication.c ****                     Timer_Enable();
1074:.\BLEApplication.c ****                     //‰∏ªÊú∫ÂèëÈÄÅÁöÑMTU exchange request
1075:.\BLEApplication.c **** //                    if(MTU_REQ_FLAG^FALSE)
1076:.\BLEApplication.c **** //                    {
1077:.\BLEApplication.c **** //                        TroughtTest_Flag=TURE;                        
1078:.\BLEApplication.c **** //                        MTU_REQ_FLAG=FALSE;
1079:.\BLEApplication.c **** //                        API_RESULT=CyBle_GattcExchangeMtuReq(cyBle_connHandle, CYBLE_GATT_MTU);
1080:.\BLEApplication.c **** ////                        printf("GattcExchangeMtuReq is %d\r\n",API_RESULT);
1081:.\BLEApplication.c **** //                        break;
1082:.\BLEApplication.c **** //                    }
1083:.\BLEApplication.c **** //                    else
1084:.\BLEApplication.c **** //                    {
ARM GAS  C:\Users\Helon\AppData\Local\Temp\cckZyeCc.s 			page 32


1085:.\BLEApplication.c **** ////                        TroughtTest_Flag=TURE;
1086:.\BLEApplication.c **** ////                        charNotificationEnabled = TURE;
1087:.\BLEApplication.c **** //                        totalByteCounter=0;
1088:.\BLEApplication.c **** ////                        UART_UartPutString("Calculating throughput. Please wait...\n\r");
1089:.\BLEApplication.c **** ////                        Timer_Enable();
1090:.\BLEApplication.c **** //                        writeRequestData.value.val[0]=0x01;
1091:.\BLEApplication.c **** //                        writeRequestData.attrHandle=CYBLE_TROUGHPUT_SERVICE_SPEEDTEST_CHAR_HANDLE
1092:.\BLEApplication.c **** //                        API_RESULT=CyBle_GattcWriteCharacteristicValue(cyBle_connHandle, &writeRe
1093:.\BLEApplication.c **** //                        if(CYBLE_ERROR_OK==API_RESULT)
1094:.\BLEApplication.c **** //                        {
1095:.\BLEApplication.c **** //                            CyBle_ProcessEvents();
1096:.\BLEApplication.c **** //                        }                       
1097:.\BLEApplication.c **** //                        printf("CyBle_GattcWriteCharacteristicDescriptors is %d\r\n",API_RESULT);
1098:.\BLEApplication.c **** //                    }
1099:.\BLEApplication.c ****                 }    
1100:.\BLEApplication.c **** //            break;
1101:.\BLEApplication.c ****             }
1102:.\BLEApplication.c ****             else
1103:.\BLEApplication.c ****             {
1104:.\BLEApplication.c ****                 printf("%ld\r\n",testCount);
1105:.\BLEApplication.c ****                 testCount=0;
1106:.\BLEApplication.c ****             }
1107:.\BLEApplication.c ****         break;
1108:.\BLEApplication.c **** //            ‰ΩøËÉΩNotifyÂ±ûÊÄßÁöÑÁâπÂæÅÂÄº-----‰∏ªÊú∫ÊúâÊïàÔºå‰ΩÜÊòØ‰ªéÊú∫‰πüÂèØ‰ª•ÊúâÊïàÂè™ÊòØ‰∏
1109:.\BLEApplication.c ****         case NOTIFY:
1110:.\BLEApplication.c ****             idx=SerialData[10];
1111:.\BLEApplication.c ****             if((CYBLE_STATE_CONNECTED==CyBle_GetState())&&(Central==Role))//‰∏ªÊú∫Ê®°Âºè‰∏ã‰∏îÊòØAT
1112:.\BLEApplication.c ****             {                
1113:.\BLEApplication.c ****                 switch(idx)
1114:.\BLEApplication.c ****                 {
1115:.\BLEApplication.c **** //                    //ÂÖ≥Èó≠ÈÄè‰º†ÈÄöÈÅì,Âú®ÈÄè‰º†Ê®°Âºè‰∏ã‰∏ç‰ºöËøõÊù•ËøôÈáå
1116:.\BLEApplication.c **** //                    case '0':
1117:.\BLEApplication.c **** //                        writeRequestData.value.val[0]=0x00;
1118:.\BLEApplication.c **** //                        writeRequestData.attrHandle=CYBLE_TROUGHPUT_SERVICE_CUSTOM_CHARACTERISTIC
1119:.\BLEApplication.c **** //                        API_RESULT=CyBle_GattcWriteCharacteristicValue(cyBle_connHandle, &writeRe
1120:.\BLEApplication.c **** //                        if(CYBLE_ERROR_OK==API_RESULT)
1121:.\BLEApplication.c **** //                        {
1122:.\BLEApplication.c **** //                            CommandMode=AT_COMMAND_MODE;
1123:.\BLEApplication.c **** //                            printf("+MODE=<AT_COMMAND_MODE>\r\n");
1124:.\BLEApplication.c **** //                        }
1125:.\BLEApplication.c **** ////                        printf("CyBle_GattcWriteCharacteristicValue is %d\r\n",API_RESULT);
1126:.\BLEApplication.c **** //                    break;
1127:.\BLEApplication.c **** //                    ÊâìÂºÄÈÄè‰º†ÈÄöÈÅì
1128:.\BLEApplication.c ****                     case '1':
1129:.\BLEApplication.c ****                         writeRequestData.value.val[0]=0x01;
1130:.\BLEApplication.c ****                         writeRequestData.attrHandle=CYBLE_TROUGHPUT_SERVICE_CUSTOM_CHARACTERISTIC_C
1131:.\BLEApplication.c ****                         API_RESULT=CyBle_GattcWriteCharacteristicValue(cyBle_connHandle, &writeRequ
1132:.\BLEApplication.c ****                         if(CYBLE_ERROR_OK==API_RESULT)
1133:.\BLEApplication.c ****                         {
1134:.\BLEApplication.c ****                             CommandMode=THROUGHT_MODE;
1135:.\BLEApplication.c ****                             printf("+MODE=<THROUGHT_MODE>\r\n");
1136:.\BLEApplication.c ****                         }
1137:.\BLEApplication.c **** //                        printf("CyBle_GattcWriteCharacteristicValue is %d\r\n",API_RESULT);
1138:.\BLEApplication.c ****                     break;
1139:.\BLEApplication.c ****                     case '?'://‰∏ªÊú∫Ê®°Âºè‰∏ãÔºåËÉΩÊé•Êî∂Âà∞ËØ•ÂëΩ‰ª§Âàô‰∏ÄÂÆöÊòØATÂëΩ‰ª§Ê®°Âºè
1140:.\BLEApplication.c ****                         printf("+MODE=<AT_COMMAND_MODE>\r\n");                       
1141:.\BLEApplication.c ****                     break;
ARM GAS  C:\Users\Helon\AppData\Local\Temp\cckZyeCc.s 			page 33


1142:.\BLEApplication.c **** //                        API_RESULT=CyBle_GattcReadCharacteristicValue(cyBle_connHandle,readReques
1143:.\BLEApplication.c **** //                        printf("CyBle_GattcReadCharacteristicDescriptors is %d\r\n",API_RESULT); 
1144:.\BLEApplication.c ****                         
1145:.\BLEApplication.c **** //                    break;
1146:.\BLEApplication.c ****                 }
1147:.\BLEApplication.c ****             }
1148:.\BLEApplication.c ****             else if((CYBLE_STATE_CONNECTED==CyBle_GetState())&&(Peripheral==Role))//‰ªéÊú∫Ê®°Âºè‰∏ã
1149:.\BLEApplication.c ****             {
1150:.\BLEApplication.c ****                 switch(idx)
1151:.\BLEApplication.c ****                 {
1152:.\BLEApplication.c ****                     case '1'://‰ªéÊú∫Ê®°Âºè‰∏îATÂëΩ‰ª§Ê®°Âºè‰∏ãÔºåÊâìÂºÄ‰ªéÊú∫Áªô‰∏ªÊú∫ÁöÑÈÄè‰º†ÈÄö
1153:.\BLEApplication.c ****                         CommandMode=THROUGHT_MODE;
1154:.\BLEApplication.c ****                         printf("+MODE=<THROUGHT_MODE>\r\n");
1155:.\BLEApplication.c ****                     break;
1156:.\BLEApplication.c ****                     case '?'://‰ªéÊú∫Ê®°Âºè‰∏ãÔºåËÉΩÊé•Êî∂Âà∞ËØ•ÂëΩ‰ª§Âàô‰∏ÄÂÆöÊòØATÂëΩ‰ª§Ê®°Âºè
1157:.\BLEApplication.c ****                         printf("+MODE=<AT_COMMAND_MODE>\r\n");                       
1158:.\BLEApplication.c ****                     break;
1159:.\BLEApplication.c ****                 }
1160:.\BLEApplication.c **** //                printf("+NOTIFY=<INVALID>\r\n");
1161:.\BLEApplication.c ****             }
1162:.\BLEApplication.c ****             else
1163:.\BLEApplication.c ****             {
1164:.\BLEApplication.c ****                 printf("+NOTIFY=<INVALID>\r\n");
1165:.\BLEApplication.c ****             }
1166:.\BLEApplication.c ****         break;
1167:.\BLEApplication.c **** //            ÂΩìÂâçBLEËÆæÂ§áÁä∂ÊÄÅÊü•ËØ¢----‰∏ª‰ªéÊúâÊïà
1168:.\BLEApplication.c ****         case STAUS:
1169:.\BLEApplication.c ****             idx=SerialData[9];            
1170:.\BLEApplication.c ****             if(idx=='?')
1171:.\BLEApplication.c ****             {
1172:.\BLEApplication.c ****                 STAUS_T=CyBle_GetState();
1173:.\BLEApplication.c ****                 switch(STAUS_T)
1174:.\BLEApplication.c ****                 {
1175:.\BLEApplication.c ****                     case 0:
1176:.\BLEApplication.c ****                         printf("+STAUS=<STATE_STOPPED>\r\n");
1177:.\BLEApplication.c ****                     break;
1178:.\BLEApplication.c ****                     case 1:
1179:.\BLEApplication.c ****                         printf("+STAUS=<STATE_INITIALIZING>\r\n");
1180:.\BLEApplication.c ****                     break;
1181:.\BLEApplication.c ****                     case 2:
1182:.\BLEApplication.c ****                         printf("+STAUS=<STATE_CONNECTED>\r\n");
1183:.\BLEApplication.c ****                     break;
1184:.\BLEApplication.c ****                     case 3:
1185:.\BLEApplication.c ****                         printf("+STAUS=<STATE_ADVERTISING>\r\n");
1186:.\BLEApplication.c ****                     break;
1187:.\BLEApplication.c ****                     case 4:
1188:.\BLEApplication.c ****                         printf("+STAUS=<STATE_SCANNING>\r\n");
1189:.\BLEApplication.c ****                     break;
1190:.\BLEApplication.c ****                     case 5:
1191:.\BLEApplication.c ****                         printf("+STAUS=<STATE_CONNECTING>\r\n");
1192:.\BLEApplication.c ****                     break;
1193:.\BLEApplication.c ****                     case 6:
1194:.\BLEApplication.c ****                         printf("+STAUS=<STATE_DISCONNECTED>\r\n");
1195:.\BLEApplication.c ****                     break;
1196:.\BLEApplication.c ****                     default:
1197:.\BLEApplication.c ****                     break;
1198:.\BLEApplication.c ****                 }
ARM GAS  C:\Users\Helon\AppData\Local\Temp\cckZyeCc.s 			page 34


1199:.\BLEApplication.c ****             }
1200:.\BLEApplication.c ****         break;
1201:.\BLEApplication.c **** //            ÂπøÊí≠ÁöÑÊâìÂºÄ‰∏éÂÖ≥Èó≠-----‰ªéÊú∫ÊúâÊïà
1202:.\BLEApplication.c ****         case ADVS:            
1203:.\BLEApplication.c ****             idx=SerialData[8];            
1204:.\BLEApplication.c ****             if(CYBLE_STATE_CONNECTED!=CyBle_GetState())
1205:.\BLEApplication.c ****             {
1206:.\BLEApplication.c ****                 if(idx=='1')//ÂºÄÂßãÂπøÊí≠
1207:.\BLEApplication.c ****                 {
1208:.\BLEApplication.c ****                     if(CYBLE_STATE_ADVERTISING!=CyBle_GetState())
1209:.\BLEApplication.c ****                     {
1210:.\BLEApplication.c ****                         API_RESULT=CyBle_GappStartAdvertisement(CYBLE_ADVERTISING_FAST);
1211:.\BLEApplication.c ****                         if(CYBLE_ERROR_OK==API_RESULT)
1212:.\BLEApplication.c ****                         {
1213:.\BLEApplication.c ****                            printf("+ADV=<ENABLE>\r\n");
1214:.\BLEApplication.c ****                         }
1215:.\BLEApplication.c ****                     }
1216:.\BLEApplication.c ****                     else
1217:.\BLEApplication.c ****                     {
1218:.\BLEApplication.c ****                         printf("+ADV=<ENABLE>\r\n");
1219:.\BLEApplication.c ****                     }
1220:.\BLEApplication.c ****                 }
1221:.\BLEApplication.c ****                 else if(idx=='0')//ÂÖ≥Èó≠ÂπøÊí≠
1222:.\BLEApplication.c ****                 {
1223:.\BLEApplication.c ****                     if(CYBLE_STATE_ADVERTISING==CyBle_GetState())
1224:.\BLEApplication.c ****                     {
1225:.\BLEApplication.c ****                         CyBle_GappStopAdvertisement();
1226:.\BLEApplication.c ****                         printf("+ADV=<DISABLE>\r\n");                        
1227:.\BLEApplication.c ****                     }
1228:.\BLEApplication.c ****                     else
1229:.\BLEApplication.c ****                     {
1230:.\BLEApplication.c ****                         printf("+ADV=<DISABLE>\r\n");    
1231:.\BLEApplication.c ****                     }
1232:.\BLEApplication.c ****                 }
1233:.\BLEApplication.c ****             }
1234:.\BLEApplication.c ****             else
1235:.\BLEApplication.c ****             {
1236:.\BLEApplication.c ****                 printf("+ADV=<INVALID>\r\n"); 
1237:.\BLEApplication.c ****             }
1238:.\BLEApplication.c ****         break;
1239:.\BLEApplication.c **** //            ËÆæÁΩÆËÆæÂ§áIOÁöÑËÉΩÂäõ-----‰∏ª‰ªéÊúâÊïà
1240:.\BLEApplication.c ****         case IOCAP:
1241:.\BLEApplication.c ****             idx=SerialData[9];
1242:.\BLEApplication.c ****             switch(idx)
1243:.\BLEApplication.c ****             {
1244:.\BLEApplication.c ****                 case '0':
1245:.\BLEApplication.c ****                 API_RESULT=CyBle_GapSetIoCap(CYBLE_GAP_IOCAP_DISPLAY_ONLY);
1246:.\BLEApplication.c ****                 if(API_RESULT==CYBLE_ERROR_OK)
1247:.\BLEApplication.c ****                 {
1248:.\BLEApplication.c ****                     printf("+IOCAP=<DISPLAY_ONLY>\r\n");
1249:.\BLEApplication.c ****                     iocapability=CYBLE_GAP_IOCAP_DISPLAY_ONLY;
1250:.\BLEApplication.c ****                 }
1251:.\BLEApplication.c ****                 break;
1252:.\BLEApplication.c ****                 case '1':
1253:.\BLEApplication.c ****                 API_RESULT=CyBle_GapSetIoCap(CYBLE_GAP_IOCAP_DISPLAY_YESNO);
1254:.\BLEApplication.c ****                 if(API_RESULT==CYBLE_ERROR_OK)
1255:.\BLEApplication.c ****                 {
ARM GAS  C:\Users\Helon\AppData\Local\Temp\cckZyeCc.s 			page 35


1256:.\BLEApplication.c ****                     printf("+IOCAP=<DISPLAY_YESNO>\r\n");
1257:.\BLEApplication.c ****                     iocapability=CYBLE_GAP_IOCAP_DISPLAY_YESNO;
1258:.\BLEApplication.c ****                 }
1259:.\BLEApplication.c ****                 break;
1260:.\BLEApplication.c ****                 case '2':
1261:.\BLEApplication.c ****                 API_RESULT=CyBle_GapSetIoCap(CYBLE_GAP_IOCAP_KEYBOARD_ONLY);
1262:.\BLEApplication.c ****                 if(API_RESULT==CYBLE_ERROR_OK)
1263:.\BLEApplication.c ****                 {
1264:.\BLEApplication.c ****                     printf("+IOCAP=<KEYBOARD_ONLY>\r\n");
1265:.\BLEApplication.c ****                     iocapability=CYBLE_GAP_IOCAP_KEYBOARD_ONLY;
1266:.\BLEApplication.c ****                 }
1267:.\BLEApplication.c ****                 break;
1268:.\BLEApplication.c ****                 case '3':
1269:.\BLEApplication.c ****                 API_RESULT=CyBle_GapSetIoCap(CYBLE_GAP_IOCAP_NOINPUT_NOOUTPUT);
1270:.\BLEApplication.c ****                 if(API_RESULT==CYBLE_ERROR_OK)
1271:.\BLEApplication.c ****                 {
1272:.\BLEApplication.c ****                     printf("+IOCAP=<NOINPUT_NOOUTPUT>\r\n");
1273:.\BLEApplication.c ****                     iocapability=CYBLE_GAP_IOCAP_NOINPUT_NOOUTPUT;
1274:.\BLEApplication.c ****                 }
1275:.\BLEApplication.c ****                 break;
1276:.\BLEApplication.c ****                 case '4':
1277:.\BLEApplication.c ****                 API_RESULT=CyBle_GapSetIoCap(CYBLE_GAP_IOCAP_KEYBOARD_DISPLAY);
1278:.\BLEApplication.c ****                 if(API_RESULT==CYBLE_ERROR_OK)
1279:.\BLEApplication.c ****                 {
1280:.\BLEApplication.c ****                     printf("+IOCAP=<CYBLE_GAP_IOCAP_KEYBOARD_DISPLAY>\r\n");
1281:.\BLEApplication.c ****                     iocapability=CYBLE_GAP_IOCAP_KEYBOARD_DISPLAY;
1282:.\BLEApplication.c ****                 }
1283:.\BLEApplication.c ****                 break;
1284:.\BLEApplication.c ****                 case '?':
1285:.\BLEApplication.c ****                     switch(iocapability)
1286:.\BLEApplication.c ****                     {
1287:.\BLEApplication.c ****                         case 0:
1288:.\BLEApplication.c ****                             printf("+IOCAP=<DISPLAY_ONLY>\r\n");
1289:.\BLEApplication.c ****                         break;
1290:.\BLEApplication.c ****                         case 1:
1291:.\BLEApplication.c ****                             printf("+IOCAP=<DISPLAY_YESNO>\r\n");
1292:.\BLEApplication.c ****                         break;
1293:.\BLEApplication.c ****                         case 2:
1294:.\BLEApplication.c ****                             printf("+IOCAP=<KEYBOARD_ONLY>\r\n");
1295:.\BLEApplication.c ****                         break;
1296:.\BLEApplication.c ****                         case 3:
1297:.\BLEApplication.c ****                             printf("+IOCAP=<NOINPUT_NOOUTPUT>\r\n");
1298:.\BLEApplication.c ****                         break;
1299:.\BLEApplication.c ****                         case 4:
1300:.\BLEApplication.c ****                             printf("+IOCAP=<CYBLE_GAP_IOCAP_KEYBOARD_DISPLAY>\r\n");
1301:.\BLEApplication.c ****                         break;
1302:.\BLEApplication.c ****                     }
1303:.\BLEApplication.c ****                 break;
1304:.\BLEApplication.c **** 
1305:.\BLEApplication.c ****             }
1306:.\BLEApplication.c ****         break;
1307:.\BLEApplication.c ****         case AUTH:
1308:.\BLEApplication.c **** //             ÂèëÈÄÅËÆ§ËØÅËØ∑Ê±Ç
1309:.\BLEApplication.c ****              CyBle_GapAuthReq(cyBle_connHandle.bdHandle,&cyBle_authInfo); 
1310:.\BLEApplication.c ****         break;
1311:.\BLEApplication.c ****         default:
1312:.\BLEApplication.c ****         break;
ARM GAS  C:\Users\Helon\AppData\Local\Temp\cckZyeCc.s 			page 36


1313:.\BLEApplication.c ****     }
1314:.\BLEApplication.c ****         
1315:.\BLEApplication.c **** }
1316:.\BLEApplication.c **** 
1317:.\BLEApplication.c **** /******************************************************************************
1318:.\BLEApplication.c **** * Function Name: Command_Identify
1319:.\BLEApplication.c **** ***************************************************************************//**
1320:.\BLEApplication.c **** * 
1321:.\BLEApplication.c **** *  ËØÜÂà´ATÂëΩ‰ª§
1322:.\BLEApplication.c **** * \param  SerialData:ÊåáÂêëcharÂûãÁöÑÊåáÈíà
1323:.\BLEApplication.c **** * \return ËøîÂõûATÂëΩ‰ª§Âú®ATÂëΩ‰ª§ÂàóË°®‰∏≠ÁöÑÁ¥¢ÂºïÂÄº
1324:.\BLEApplication.c **** *  
1325:.\BLEApplication.c **** * 
1326:.\BLEApplication.c **** ******************************************************************************/
1327:.\BLEApplication.c **** uint8_t Command_Identify(const char* SerialData)
1328:.\BLEApplication.c **** {
1329:.\BLEApplication.c ****     if(NULL==SerialData)
1330:.\BLEApplication.c ****         return FALSE;
1331:.\BLEApplication.c ****     uint8_t SerialArryLength=0,i=0,location;    
1332:.\BLEApplication.c **** //    char String[20]={0};
1333:.\BLEApplication.c ****     if(0==strcmp(SerialData,"AT\r\n"))
1334:.\BLEApplication.c ****     {
1335:.\BLEApplication.c **** //        printf("OK\r\n");
1336:.\BLEApplication.c ****         return _AT;
1337:.\BLEApplication.c ****     }
1338:.\BLEApplication.c ****     //Ëé∑ÂèñATÂëΩ‰ª§Á≠âÂè∑ÁöÑ‰ΩçÁΩÆÔºåÂ¶Ç‚ÄúAT+RESET=1‚Äù‰∏≠‚Äú=‚ÄùÂè∑ÁöÑ‰ΩçÁΩÆÊòØ8.
1339:.\BLEApplication.c ****     location=strchr((char*)SerialData,'=')-SerialData;
1340:.\BLEApplication.c **** //    Âä®ÊÄÅÂàÜÈÖçÂ†ÜÁ©∫Èó¥
1341:.\BLEApplication.c ****     char* String=malloc(sizeof(char)*location);
1342:.\BLEApplication.c ****     //‰øùÂ≠òATÂëΩ‰ª§Á≠âÂè∑ÂâçÁöÑÊï∞ÊçÆ.
1343:.\BLEApplication.c ****     strncpy(String,SerialData,location);
1344:.\BLEApplication.c ****     SerialArryLength=sizeof(StringArry)/sizeof(StringArry[0]);   
1345:.\BLEApplication.c **** //    ÂåπÈÖçATÂëΩ‰ª§ÂàóË°®‰∏≠ATÂëΩ‰ª§ÁöÑ‰ΩçÁΩÆ
1346:.\BLEApplication.c ****     for(i=0;i<SerialArryLength;i++)
1347:.\BLEApplication.c ****     {
1348:.\BLEApplication.c ****         if(strncmp((char*)String,StringArry[i],location)==0)
1349:.\BLEApplication.c ****         {
1350:.\BLEApplication.c ****             break;
1351:.\BLEApplication.c ****         }
1352:.\BLEApplication.c **** //        printf("%s\r\n",StringArry[i]);
1353:.\BLEApplication.c **** //        printf("%d\r\n",strcmp((char*)String,StringArry[i]));
1354:.\BLEApplication.c ****     }
1355:.\BLEApplication.c **** //    ÈáäÊîæ‰πãÂâçÂàÜÈÖçÁöÑÂ†ÜÁ©∫Èó¥
1356:.\BLEApplication.c ****     free(String);
1357:.\BLEApplication.c ****     return i;
1358:.\BLEApplication.c **** }
1359:.\BLEApplication.c **** 
1360:.\BLEApplication.c **** /*******************************************************************************
1361:.\BLEApplication.c **** * Function Name: MyTimerIsr()
1362:.\BLEApplication.c **** ********************************************************************************
1363:.\BLEApplication.c **** * Summary:
1364:.\BLEApplication.c **** * Interrupt service routine for the timer block.
1365:.\BLEApplication.c **** *
1366:.\BLEApplication.c **** * Parameters:
1367:.\BLEApplication.c **** * None
1368:.\BLEApplication.c **** *
1369:.\BLEApplication.c **** * Return:
ARM GAS  C:\Users\Helon\AppData\Local\Temp\cckZyeCc.s 			page 37


1370:.\BLEApplication.c **** * None
1371:.\BLEApplication.c **** *
1372:.\BLEApplication.c **** * Theory:
1373:.\BLEApplication.c **** * The ISR is fired when the timer reaches terminal count. In the ISR, the total
1374:.\BLEApplication.c **** * number of bytes received until now is cached locally (to avoid any potential 
1375:.\BLEApplication.c **** * race conditions) and then the throughput is calculated from it.
1376:.\BLEApplication.c **** * Since the ISR fires 10 seconds after the timer is started, the total number
1377:.\BLEApplication.c **** * of bytes is divided by 10. The bytes are converted to kilobytes by dividing 
1378:.\BLEApplication.c **** * by 1024. It is then converted to kilo bits by multiplying the result by 8.
1379:.\BLEApplication.c **** *
1380:.\BLEApplication.c **** * Side Effects:
1381:.\BLEApplication.c **** * None
1382:.\BLEApplication.c **** *
1383:.\BLEApplication.c **** *******************************************************************************/
1384:.\BLEApplication.c **** CY_ISR(MyTimerIsr)
1385:.\BLEApplication.c **** {
 678              		.loc 1 1385 0
 679              		.cfi_startproc
 680 0000 38B5     		push	{r3, r4, r5, lr}
 681              		.cfi_def_cfa_offset 16
 682              		.cfi_offset 3, -16
 683              		.cfi_offset 4, -12
 684              		.cfi_offset 5, -8
 685              		.cfi_offset 14, -4
1386:.\BLEApplication.c **** //    uint32 cachedTotalByteCounter = totalByteCounter;
1387:.\BLEApplication.c **** //    uint32 throughput;
1388:.\BLEApplication.c ****     static uint32 timercount=0;
1389:.\BLEApplication.c ****     Timer_ClearInterrupt(Timer_INTR_MASK_TC);
 686              		.loc 1 1389 0
 687 0002 0120     		mov	r0, #1
 688 0004 FFF7FEFF 		bl	Timer_ClearInterrupt
 689              	.LVL69:
1390:.\BLEApplication.c ****     _10sIsOver=TURE;
 690              		.loc 1 1390 0
 691 0008 0A4A     		ldr	r2, .L44
 692 000a 0121     		mov	r1, #1
 693 000c 4123     		mov	r3, #65
 694 000e D154     		strb	r1, [r2, r3]
1391:.\BLEApplication.c ****     timercount++;
 695              		.loc 1 1391 0
 696 0010 536C     		ldr	r3, [r2, #68]
 697 0012 0133     		add	r3, r3, #1
 698 0014 5364     		str	r3, [r2, #68]
1392:.\BLEApplication.c ****     if(timercount==10001)
 699              		.loc 1 1392 0
 700 0016 084A     		ldr	r2, .L44+4
 701 0018 9342     		cmp	r3, r2
 702 001a 09D1     		bne	.L42
1393:.\BLEApplication.c ****     {
1394:.\BLEApplication.c ****         _10sIsOver=FALSE;
 703              		.loc 1 1394 0
 704 001c 054C     		ldr	r4, .L44
 705 001e 0025     		mov	r5, #0
 706 0020 4123     		mov	r3, #65
 707 0022 E554     		strb	r5, [r4, r3]
1395:.\BLEApplication.c ****         Timer_Stop();
 708              		.loc 1 1395 0
ARM GAS  C:\Users\Helon\AppData\Local\Temp\cckZyeCc.s 			page 38


 709 0024 FFF7FEFF 		bl	Timer_Stop
 710              	.LVL70:
1396:.\BLEApplication.c ****         timercount=0;
 711              		.loc 1 1396 0
 712 0028 6564     		str	r5, [r4, #68]
1397:.\BLEApplication.c ****         printf("Send Compelete!\r\n");
 713              		.loc 1 1397 0
 714 002a 0448     		ldr	r0, .L44+8
 715 002c FFF7FEFF 		bl	puts
 716              	.LVL71:
 717              	.L42:
1398:.\BLEApplication.c ****         
1399:.\BLEApplication.c ****     }
1400:.\BLEApplication.c **** //    charNotificationEnabled=FALSE;
1401:.\BLEApplication.c **** //    TroughtTest_Flag=FALSE;
1402:.\BLEApplication.c **** //    TroughtTest_Flag=FALSE;
1403:.\BLEApplication.c ****     /* Total bytes received in 10 seconds converted to Kilo bits per second */
1404:.\BLEApplication.c **** //    printf("totalByteCounter is %ld",totalByteCounter);
1405:.\BLEApplication.c **** //    while((UART_SpiUartGetTxBufferSize() + UART_GET_TX_FIFO_SR_VALID) != 0);//Á≠âÂæÖ‰∏≤Âè£ÁºìÂÜ≤Â
1406:.\BLEApplication.c **** //    throughput = (cachedTotalByteCounter >> 7) / 10;
1407:.\BLEApplication.c **** //    printf("\r\n+SPEED=<%ldkbps>\r\n",throughput);      
1408:.\BLEApplication.c **** //    CyBle_GattcWriteCharacteristicDescriptors(cyBle_connHandle, &writeRequestData);
1409:.\BLEApplication.c **** }
 718              		.loc 1 1409 0
 719              		@ sp needed
 720 0030 38BD     		pop	{r3, r4, r5, pc}
 721              	.L45:
 722 0032 C046     		.align	2
 723              	.L44:
 724 0034 00000000 		.word	.LANCHOR0
 725 0038 11270000 		.word	10001
 726 003c 30010000 		.word	.LC45
 727              		.cfi_endproc
 728              	.LFE45:
 729              		.size	MyTimerIsr, .-MyTimerIsr
 730              		.section	.text.LowPowerManagement,"ax",%progbits
 731              		.align	2
 732              		.global	LowPowerManagement
 733              		.code	16
 734              		.thumb_func
 735              		.type	LowPowerManagement, %function
 736              	LowPowerManagement:
 737              	.LFB36:
 412:.\BLEApplication.c ****     /* Local variable to store the status of BLESS Hardware block */
 738              		.loc 1 412 0
 739              		.cfi_startproc
 740 0000 10B5     		push	{r4, lr}
 741              		.cfi_def_cfa_offset 8
 742              		.cfi_offset 4, -8
 743              		.cfi_offset 14, -4
 418:.\BLEApplication.c **** 		
 744              		.loc 1 418 0
 745 0002 0320     		mov	r0, #3
 746 0004 FFF7FEFF 		bl	CyBle_EnterLPM
 747              	.LVL72:
 748 0008 041C     		mov	r4, r0
 749              	.LVL73:
ARM GAS  C:\Users\Helon\AppData\Local\Temp\cckZyeCc.s 			page 39


 421:.\BLEApplication.c **** 	
 750              		.loc 1 421 0
 751              	@ 421 ".\BLEApplication.c" 1
 752 000a 72B6     		CPSID   i
 753              	@ 0 "" 2
 424:.\BLEApplication.c **** 
 754              		.loc 1 424 0
 755              		.code	16
 756 000c FFF7FEFF 		bl	CyBle_GetBleSsState
 757              	.LVL74:
 426:.\BLEApplication.c **** 		{
 758              		.loc 1 426 0
 759 0010 032C     		cmp	r4, #3
 760 0012 1BD1     		bne	.L47
 430:.\BLEApplication.c **** 		    {
 761              		.loc 1 430 0
 762 0014 0428     		cmp	r0, #4
 763 0016 01D0     		beq	.L48
 430:.\BLEApplication.c **** 		    {
 764              		.loc 1 430 0 is_stmt 0 discriminator 1
 765 0018 0628     		cmp	r0, #6
 766 001a 1DD1     		bne	.L49
 767              	.L48:
 433:.\BLEApplication.c ****                 while((UART_SpiUartGetTxBufferSize() + UART_GET_TX_FIFO_SR_VALID) != 0);//Á≠âÂæÖ‰∏≤
 768              		.loc 1 433 0 is_stmt 1
 769 001c 0020     		mov	r0, #0
 770              	.LVL75:
 771 001e FFF7FEFF 		bl	Status_LED_Write
 772              	.LVL76:
 773              	.L51:
 434:.\BLEApplication.c **** 		        CySysPmDeepSleep();
 774              		.loc 1 434 0 discriminator 5
 775 0022 FFF7FEFF 		bl	UART_SpiUartGetTxBufferSize
 776              	.LVL77:
 777 0026 0D4B     		ldr	r3, .L52
 778 0028 1B68     		ldr	r3, [r3]
 779 002a 8022     		mov	r2, #128
 780 002c 1202     		lsl	r2, r2, #8
 781 002e 1340     		and	r3, r2
 782 0030 00D0     		beq	.L50
 434:.\BLEApplication.c **** 		        CySysPmDeepSleep();
 783              		.loc 1 434 0 is_stmt 0
 784 0032 0123     		mov	r3, #1
 785              	.L50:
 434:.\BLEApplication.c **** 		        CySysPmDeepSleep();
 786              		.loc 1 434 0 discriminator 4
 787 0034 C318     		add	r3, r0, r3
 788 0036 002B     		cmp	r3, #0
 789 0038 F3D1     		bne	.L51
 435:.\BLEApplication.c **** //                CyDelay(10);                
 790              		.loc 1 435 0 is_stmt 1
 791 003a FFF7FEFF 		bl	CySysPmDeepSleep
 792              	.LVL78:
 439:.\BLEApplication.c ****                 Status_LED_Write(LED_OFF);  
 793              		.loc 1 439 0
 794 003e 0022     		mov	r2, #0
 795 0040 074B     		ldr	r3, .L52+4
ARM GAS  C:\Users\Helon\AppData\Local\Temp\cckZyeCc.s 			page 40


 796 0042 9A73     		strb	r2, [r3, #14]
 440:.\BLEApplication.c **** 
 797              		.loc 1 440 0
 798 0044 0120     		mov	r0, #1
 799 0046 FFF7FEFF 		bl	Status_LED_Write
 800              	.LVL79:
 801 004a 05E0     		b	.L49
 802              	.LVL80:
 803              	.L47:
 444:.\BLEApplication.c **** 		{
 804              		.loc 1 444 0
 805 004c 022C     		cmp	r4, #2
 806 004e 03D1     		bne	.L49
 446:.\BLEApplication.c **** 		    {
 807              		.loc 1 446 0
 808 0050 0228     		cmp	r0, #2
 809 0052 01D0     		beq	.L49
 450:.\BLEApplication.c **** 		    }
 810              		.loc 1 450 0
 811 0054 FFF7FEFF 		bl	CySysPmSleep
 812              	.LVL81:
 813              	.L49:
 454:.\BLEApplication.c ****         
 814              		.loc 1 454 0
 815              	@ 454 ".\BLEApplication.c" 1
 816 0058 62B6     		CPSIE   i
 817              	@ 0 "" 2
 456:.\BLEApplication.c **** 
 818              		.loc 1 456 0
 819              		.code	16
 820              		@ sp needed
 821              	.LVL82:
 822 005a 10BD     		pop	{r4, pc}
 823              	.L53:
 824              		.align	2
 825              	.L52:
 826 005c 08022440 		.word	1076101640
 827 0060 00000000 		.word	.LANCHOR1
 828              		.cfi_endproc
 829              	.LFE36:
 830              		.size	LowPowerManagement, .-LowPowerManagement
 831              		.section	.text.My_ISR_UART,"ax",%progbits
 832              		.align	2
 833              		.global	My_ISR_UART
 834              		.code	16
 835              		.thumb_func
 836              		.type	My_ISR_UART, %function
 837              	My_ISR_UART:
 838              	.LFB38:
 493:.\BLEApplication.c **** //    uint8_t rxdata;
 839              		.loc 1 493 0
 840              		.cfi_startproc
 495:.\BLEApplication.c ****     {
 841              		.loc 1 495 0
 842 0000 054B     		ldr	r3, .L56
 843 0002 1B68     		ldr	r3, [r3]
 844 0004 5B07     		lsl	r3, r3, #29
ARM GAS  C:\Users\Helon\AppData\Local\Temp\cckZyeCc.s 			page 41


 845 0006 03D5     		bpl	.L55
 497:.\BLEApplication.c ****         //ËØªÂèñ‰∏≤Âè£Êï∞ÊçÆ
 846              		.loc 1 497 0
 847 0008 0121     		mov	r1, #1
 848 000a 4823     		mov	r3, #72
 849 000c 034A     		ldr	r2, .L56+4
 850 000e D154     		strb	r1, [r2, r3]
 851              	.L55:
 515:.\BLEApplication.c ****   
 852              		.loc 1 515 0
 853 0010 0422     		mov	r2, #4
 854 0012 034B     		ldr	r3, .L56+8
 855 0014 1A60     		str	r2, [r3]
 517:.\BLEApplication.c **** 
 856              		.loc 1 517 0
 857              		@ sp needed
 858 0016 7047     		bx	lr
 859              	.L57:
 860              		.align	2
 861              	.L56:
 862 0018 CC0F2440 		.word	1076105164
 863 001c 00000000 		.word	.LANCHOR0
 864 0020 C00F2440 		.word	1076105152
 865              		.cfi_endproc
 866              	.LFE38:
 867              		.size	My_ISR_UART, .-My_ISR_UART
 868              		.section	.text.ConfigUartInit,"ax",%progbits
 869              		.align	2
 870              		.global	ConfigUartInit
 871              		.code	16
 872              		.thumb_func
 873              		.type	ConfigUartInit, %function
 874              	ConfigUartInit:
 875              	.LFB40:
 570:.\BLEApplication.c **** //    configUart.mode=UART_UART_MODE_STD;         /* mode: Standard */ 
 876              		.loc 1 570 0
 877              		.cfi_startproc
 597:.\BLEApplication.c **** /******************************************************************************
 878              		.loc 1 597 0
 879              		@ sp needed
 880 0000 7047     		bx	lr
 881              		.cfi_endproc
 882              	.LFE40:
 883              		.size	ConfigUartInit, .-ConfigUartInit
 884 0002 C046     		.section	.text.SetUartConfiguration,"ax",%progbits
 885              		.align	2
 886              		.global	SetUartConfiguration
 887              		.code	16
 888              		.thumb_func
 889              		.type	SetUartConfiguration, %function
 890              	SetUartConfiguration:
 891              	.LFB41:
 609:.\BLEApplication.c **** //    cystatus status = CYRET_SUCCESS; 
 892              		.loc 1 609 0
 893              		.cfi_startproc
 894              	.LVL83:
 619:.\BLEApplication.c **** 
ARM GAS  C:\Users\Helon\AppData\Local\Temp\cckZyeCc.s 			page 42


 895              		.loc 1 619 0
 896              		@ sp needed
 897 0000 7047     		bx	lr
 898              		.cfi_endproc
 899              	.LFE41:
 900              		.size	SetUartConfiguration, .-SetUartConfiguration
 901 0002 C046     		.section	.text.LedInit,"ax",%progbits
 902              		.align	2
 903              		.global	LedInit
 904              		.code	16
 905              		.thumb_func
 906              		.type	LedInit, %function
 907              	LedInit:
 908              	.LFB42:
 632:.\BLEApplication.c ****     Status_LED_SetDriveMode(Status_LED_DM_STRONG);
 909              		.loc 1 632 0
 910              		.cfi_startproc
 911 0000 08B5     		push	{r3, lr}
 912              		.cfi_def_cfa_offset 8
 913              		.cfi_offset 3, -8
 914              		.cfi_offset 14, -4
 633:.\BLEApplication.c ****     Connected_LED_SetDriveMode(Connected_LED_DM_STRONG);
 915              		.loc 1 633 0
 916 0002 0620     		mov	r0, #6
 917 0004 FFF7FEFF 		bl	Status_LED_SetDriveMode
 918              	.LVL84:
 634:.\BLEApplication.c ****     Status_LED_Write(LED_OFF);
 919              		.loc 1 634 0
 920 0008 0620     		mov	r0, #6
 921 000a FFF7FEFF 		bl	Connected_LED_SetDriveMode
 922              	.LVL85:
 635:.\BLEApplication.c ****     Connected_LED_Write(LED_OFF);
 923              		.loc 1 635 0
 924 000e 0120     		mov	r0, #1
 925 0010 FFF7FEFF 		bl	Status_LED_Write
 926              	.LVL86:
 636:.\BLEApplication.c **** }
 927              		.loc 1 636 0
 928 0014 0120     		mov	r0, #1
 929 0016 FFF7FEFF 		bl	Connected_LED_Write
 930              	.LVL87:
 637:.\BLEApplication.c **** 
 931              		.loc 1 637 0
 932              		@ sp needed
 933 001a 08BD     		pop	{r3, pc}
 934              		.cfi_endproc
 935              	.LFE42:
 936              		.size	LedInit, .-LedInit
 937              		.section	.text.SystemInitialization,"ax",%progbits
 938              		.align	2
 939              		.global	SystemInitialization
 940              		.code	16
 941              		.thumb_func
 942              		.type	SystemInitialization, %function
 943              	SystemInitialization:
 944              	.LFB39:
 530:.\BLEApplication.c **** //    ÊµÅÊéßÂºïËÑöÁöÑÂàùÂßãÂåñ
ARM GAS  C:\Users\Helon\AppData\Local\Temp\cckZyeCc.s 			page 43


 945              		.loc 1 530 0
 946              		.cfi_startproc
 947 0000 08B5     		push	{r3, lr}
 948              		.cfi_def_cfa_offset 8
 949              		.cfi_offset 3, -8
 950              		.cfi_offset 14, -4
 532:.\BLEApplication.c ****     CTS_Write(CTS_OFF);//ÊµÅÊéßÊòØ‰ΩéÁîµÂπ≥ÊúâÊïà
 951              		.loc 1 532 0
 952 0002 0620     		mov	r0, #6
 953 0004 FFF7FEFF 		bl	CTS_SetDriveMode
 954              	.LVL88:
 533:.\BLEApplication.c **** //    uint16_t counter;
 955              		.loc 1 533 0
 956 0008 0120     		mov	r0, #1
 957 000a FFF7FEFF 		bl	CTS_Write
 958              	.LVL89:
 541:.\BLEApplication.c ****     writeRequestData.value=cccdNotifFlagSetStruct;
 959              		.loc 1 541 0
 960 000e 0B4A     		ldr	r2, .L62
 961 0010 0F23     		mov	r3, #15
 962 0012 1381     		strh	r3, [r2, #8]
 542:.\BLEApplication.c **** //    ÂàùÂßãÂåñÂπøÊí≠Èó¥ÈöîÂíåÂπøÂëäË∂ÖÊó∂Êó∂Èó¥
 963              		.loc 1 542 0
 964 0014 0A4B     		ldr	r3, .L62+4
 965 0016 1033     		add	r3, r3, #16
 966 0018 03CB     		ldmia	r3!, {r0, r1}
 967 001a 03C2     		stmia	r2!, {r0, r1}
 549:.\BLEApplication.c ****     TimerInterrupt_StartEx(MyTimerIsr);
 968              		.loc 1 549 0
 969 001c FFF7FEFF 		bl	Timer_Init
 970              	.LVL90:
 550:.\BLEApplication.c ****     UART_Start();
 971              		.loc 1 550 0
 972 0020 0848     		ldr	r0, .L62+8
 973 0022 FFF7FEFF 		bl	TimerInterrupt_StartEx
 974              	.LVL91:
 551:.\BLEApplication.c ****   //    UART_SCB_IRQ_StartEx(My_ISR_UART);   
 975              		.loc 1 551 0
 976 0026 FFF7FEFF 		bl	UART_Start
 977              	.LVL92:
 553:.\BLEApplication.c ****     LedInit();
 978              		.loc 1 553 0
 979 002a 0748     		ldr	r0, .L62+12
 980 002c FFF7FEFF 		bl	isr_UserButton_StartEx
 981              	.LVL93:
 554:.\BLEApplication.c ****     CyBle_Start(StackEventHandler);
 982              		.loc 1 554 0
 983 0030 FFF7FEFF 		bl	LedInit
 984              	.LVL94:
 555:.\BLEApplication.c ****     
 985              		.loc 1 555 0
 986 0034 0548     		ldr	r0, .L62+16
 987 0036 FFF7FEFF 		bl	CyBle_Start
 988              	.LVL95:
 557:.\BLEApplication.c **** 
 989              		.loc 1 557 0
 990              		@ sp needed
ARM GAS  C:\Users\Helon\AppData\Local\Temp\cckZyeCc.s 			page 44


 991 003a 08BD     		pop	{r3, pc}
 992              	.L63:
 993              		.align	2
 994              	.L62:
 995 003c 00000000 		.word	writeRequestData
 996 0040 00000000 		.word	.LANCHOR1
 997 0044 00000000 		.word	MyTimerIsr
 998 0048 00000000 		.word	MY_ISR_USERBUTTON
 999 004c 00000000 		.word	StackEventHandler
 1000              		.cfi_endproc
 1001              	.LFE39:
 1002              		.size	SystemInitialization, .-SystemInitialization
 1003              		.section	.text.Command_Identify,"ax",%progbits
 1004              		.align	2
 1005              		.global	Command_Identify
 1006              		.code	16
 1007              		.thumb_func
 1008              		.type	Command_Identify, %function
 1009              	Command_Identify:
 1010              	.LFB44:
1328:.\BLEApplication.c ****     if(NULL==SerialData)
 1011              		.loc 1 1328 0
 1012              		.cfi_startproc
 1013              	.LVL96:
 1014 0000 70B5     		push	{r4, r5, r6, lr}
 1015              		.cfi_def_cfa_offset 16
 1016              		.cfi_offset 4, -16
 1017              		.cfi_offset 5, -12
 1018              		.cfi_offset 6, -8
 1019              		.cfi_offset 14, -4
1329:.\BLEApplication.c ****         return FALSE;
 1020              		.loc 1 1329 0
 1021 0002 0028     		cmp	r0, #0
 1022 0004 29D0     		beq	.L69
 1023 0006 041C     		mov	r4, r0
 1024              	.LVL97:
1333:.\BLEApplication.c ****     {
 1025              		.loc 1 1333 0
 1026 0008 1649     		ldr	r1, .L71
 1027 000a FFF7FEFF 		bl	strcmp
 1028              	.LVL98:
 1029 000e 0028     		cmp	r0, #0
 1030 0010 25D0     		beq	.L70
1339:.\BLEApplication.c **** //    Âä®ÊÄÅÂàÜÈÖçÂ†ÜÁ©∫Èó¥
 1031              		.loc 1 1339 0
 1032 0012 201C     		mov	r0, r4
 1033 0014 3D21     		mov	r1, #61
 1034 0016 FFF7FEFF 		bl	strchr
 1035              	.LVL99:
 1036 001a 001B     		sub	r0, r0, r4
 1037              	.LVL100:
 1038 001c FF25     		mov	r5, #255
 1039 001e 0540     		and	r5, r0
1341:.\BLEApplication.c ****     //‰øùÂ≠òATÂëΩ‰ª§Á≠âÂè∑ÂâçÁöÑÊï∞ÊçÆ.
 1040              		.loc 1 1341 0
 1041 0020 281C     		mov	r0, r5
 1042              	.LVL101:
ARM GAS  C:\Users\Helon\AppData\Local\Temp\cckZyeCc.s 			page 45


 1043 0022 FFF7FEFF 		bl	malloc
 1044              	.LVL102:
 1045 0026 061C     		mov	r6, r0
 1046              	.LVL103:
1343:.\BLEApplication.c ****     SerialArryLength=sizeof(StringArry)/sizeof(StringArry[0]);   
 1047              		.loc 1 1343 0
 1048 0028 211C     		mov	r1, r4
 1049 002a 2A1C     		mov	r2, r5
 1050 002c FFF7FEFF 		bl	strncpy
 1051              	.LVL104:
1346:.\BLEApplication.c ****     {
 1052              		.loc 1 1346 0
 1053 0030 0024     		mov	r4, #0
 1054              	.LVL105:
 1055 0032 0BE0     		b	.L66
 1056              	.LVL106:
 1057              	.L68:
1348:.\BLEApplication.c ****         {
 1058              		.loc 1 1348 0
 1059 0034 A300     		lsl	r3, r4, #2
 1060 0036 0C4A     		ldr	r2, .L71+4
 1061 0038 D318     		add	r3, r2, r3
 1062 003a 9969     		ldr	r1, [r3, #24]
 1063 003c 301C     		mov	r0, r6
 1064 003e 2A1C     		mov	r2, r5
 1065 0040 FFF7FEFF 		bl	strncmp
 1066              	.LVL107:
 1067 0044 0028     		cmp	r0, #0
 1068 0046 03D0     		beq	.L67
1346:.\BLEApplication.c ****     {
 1069              		.loc 1 1346 0 discriminator 2
 1070 0048 0134     		add	r4, r4, #1
 1071              	.LVL108:
 1072 004a E4B2     		uxtb	r4, r4
 1073              	.LVL109:
 1074              	.L66:
1346:.\BLEApplication.c ****     {
 1075              		.loc 1 1346 0 is_stmt 0 discriminator 1
 1076 004c 1A2C     		cmp	r4, #26
 1077 004e F1D9     		bls	.L68
 1078              	.L67:
1356:.\BLEApplication.c ****     return i;
 1079              		.loc 1 1356 0 is_stmt 1
 1080 0050 301C     		mov	r0, r6
 1081 0052 FFF7FEFF 		bl	free
 1082              	.LVL110:
1357:.\BLEApplication.c **** }
 1083              		.loc 1 1357 0
 1084 0056 201C     		mov	r0, r4
 1085 0058 02E0     		b	.L65
 1086              	.LVL111:
 1087              	.L69:
1330:.\BLEApplication.c ****     uint8_t SerialArryLength=0,i=0,location;    
 1088              		.loc 1 1330 0
 1089 005a 0020     		mov	r0, #0
 1090              	.LVL112:
 1091 005c 00E0     		b	.L65
ARM GAS  C:\Users\Helon\AppData\Local\Temp\cckZyeCc.s 			page 46


 1092              	.LVL113:
 1093              	.L70:
1336:.\BLEApplication.c ****     }
 1094              		.loc 1 1336 0
 1095 005e 1320     		mov	r0, #19
 1096              	.LVL114:
 1097              	.L65:
1358:.\BLEApplication.c **** 
 1098              		.loc 1 1358 0
 1099              		@ sp needed
 1100 0060 70BD     		pop	{r4, r5, r6, pc}
 1101              	.L72:
 1102 0062 C046     		.align	2
 1103              	.L71:
 1104 0064 44010000 		.word	.LC54
 1105 0068 00000000 		.word	.LANCHOR1
 1106              		.cfi_endproc
 1107              	.LFE44:
 1108              		.size	Command_Identify, .-Command_Identify
 1109              		.section	.text.SendNotification,"ax",%progbits
 1110              		.align	2
 1111              		.global	SendNotification
 1112              		.code	16
 1113              		.thumb_func
 1114              		.type	SendNotification, %function
 1115              	SendNotification:
 1116              	.LFB46:
1410:.\BLEApplication.c **** 
1411:.\BLEApplication.c **** /*******************************************************************************
1412:.\BLEApplication.c **** * Function Name: SendNotification()
1413:.\BLEApplication.c **** ********************************************************************************
1414:.\BLEApplication.c **** * Summary:
1415:.\BLEApplication.c **** * This function creates a notification packet and sends it.
1416:.\BLEApplication.c **** *
1417:.\BLEApplication.c **** * Parameters:
1418:.\BLEApplication.c **** * None
1419:.\BLEApplication.c **** *
1420:.\BLEApplication.c **** * Return:
1421:.\BLEApplication.c **** * None
1422:.\BLEApplication.c **** *
1423:.\BLEApplication.c **** * Theory:
1424:.\BLEApplication.c **** * The function creates a notification packet for the custom characteristic and 
1425:.\BLEApplication.c **** * sends it over BLE. The amount of data sent for the characteristic is equal 
1426:.\BLEApplication.c **** * to (negotiated MTU size - 3) bytes.
1427:.\BLEApplication.c **** *
1428:.\BLEApplication.c **** * Side Effects:
1429:.\BLEApplication.c **** * None
1430:.\BLEApplication.c **** *
1431:.\BLEApplication.c **** *******************************************************************************/
1432:.\BLEApplication.c **** void SendNotification(uint8_t*val,uint16_t len)
1433:.\BLEApplication.c **** {
 1117              		.loc 1 1433 0
 1118              		.cfi_startproc
 1119              	.LVL115:
 1120 0000 00B5     		push	{lr}
 1121              		.cfi_def_cfa_offset 4
 1122              		.cfi_offset 14, -4
ARM GAS  C:\Users\Helon\AppData\Local\Temp\cckZyeCc.s 			page 47


 1123 0002 85B0     		sub	sp, sp, #20
 1124              		.cfi_def_cfa_offset 24
 1125              	.LVL116:
1434:.\BLEApplication.c **** //    uint8   index;
1435:.\BLEApplication.c **** //    uint8   uartTxData[negotiatedMtu - 3];
1436:.\BLEApplication.c ****     CYBLE_API_RESULT_T API_RESULT=0;
1437:.\BLEApplication.c **** //    uint16_t uartTxDataLength;
1438:.\BLEApplication.c **** //    static uint16 uartIdleCount = UART_IDLE_TIMEOUT;
1439:.\BLEApplication.c **** ////    Uart_Char=UART_UartGetChar();
1440:.\BLEApplication.c **** //    CYBLE_GATTS_HANDLE_VALUE_NTF_T      uartTxDataNtf;
1441:.\BLEApplication.c ****     
1442:.\BLEApplication.c ****     /* Create a new notification packet */
1443:.\BLEApplication.c ****     CYBLE_GATTS_HANDLE_VALUE_NTF_T notificationPacket;
1444:.\BLEApplication.c **** //    CYBLE_API_RESULT_T API_RESULT;
1445:.\BLEApplication.c ****     /* Update Notification packet with the data.
1446:.\BLEApplication.c ****      * Maximum data which can be sent is equal to (Negotiated MTU - 3) bytes.
1447:.\BLEApplication.c ****      */
1448:.\BLEApplication.c ****     notificationPacket.attrHandle = CYBLE_TROUGHPUT_SERVICE_CUSTOM_CHARACTERISTIC_CHAR_HANDLE;
 1126              		.loc 1 1448 0
 1127 0004 01AB     		add	r3, sp, #4
 1128 0006 0E22     		mov	r2, #14
 1129 0008 1A81     		strh	r2, [r3, #8]
1449:.\BLEApplication.c ****     notificationPacket.value.val = val;   
 1130              		.loc 1 1449 0
 1131 000a 0190     		str	r0, [sp, #4]
1450:.\BLEApplication.c ****     notificationPacket.value.len = len - 3;
 1132              		.loc 1 1450 0
 1133 000c 0339     		sub	r1, r1, #3
 1134              	.LVL117:
 1135 000e 9980     		strh	r1, [r3, #4]
1451:.\BLEApplication.c **** //    notificationPacket.value.actualLen=0x00;
1452:.\BLEApplication.c ****     /* Report data to BLE component */
1453:.\BLEApplication.c ****     CyBle_GattsNotification(cyBle_connHandle, &notificationPacket);
 1136              		.loc 1 1453 0
 1137 0010 0649     		ldr	r1, .L74
 1138 0012 0A78     		ldrb	r2, [r1]
 1139 0014 4878     		ldrb	r0, [r1, #1]
 1140              	.LVL118:
 1141 0016 0002     		lsl	r0, r0, #8
 1142 0018 1043     		orr	r0, r2
 1143 001a 191C     		mov	r1, r3
 1144 001c FFF7FEFF 		bl	CyBle_GattsNotification
 1145              	.LVL119:
1454:.\BLEApplication.c ****     printf("SendNotification is %d\r\n",API_RESULT);
 1146              		.loc 1 1454 0
 1147 0020 0348     		ldr	r0, .L74+4
 1148 0022 0021     		mov	r1, #0
 1149 0024 FFF7FEFF 		bl	printf
 1150              	.LVL120:
1455:.\BLEApplication.c **** }
 1151              		.loc 1 1455 0
 1152 0028 05B0     		add	sp, sp, #20
 1153              		@ sp needed
 1154 002a 00BD     		pop	{pc}
 1155              	.L75:
 1156              		.align	2
 1157              	.L74:
ARM GAS  C:\Users\Helon\AppData\Local\Temp\cckZyeCc.s 			page 48


 1158 002c 00000000 		.word	cyBle_connHandle
 1159 0030 4C010000 		.word	.LC58
 1160              		.cfi_endproc
 1161              	.LFE46:
 1162              		.size	SendNotification, .-SendNotification
 1163              		.section	.text.SendData_toSlave,"ax",%progbits
 1164              		.align	2
 1165              		.global	SendData_toSlave
 1166              		.code	16
 1167              		.thumb_func
 1168              		.type	SendData_toSlave, %function
 1169              	SendData_toSlave:
 1170              	.LFB47:
1456:.\BLEApplication.c **** /******************************************************************************
1457:.\BLEApplication.c **** * Function Name: SendData_toSlave
1458:.\BLEApplication.c **** ***************************************************************************//**
1459:.\BLEApplication.c **** * 
1460:.\BLEApplication.c **** *  MasterÁªôSlaveÂèëÊï∞ÊçÆ
1461:.\BLEApplication.c **** * \param  val:ÊåáÂêëË¶ÅÂèëÈÄÅÁöÑÊï∞ÊçÆÁöÑÈ¶ñÂú∞ÂùÄ
1462:.\BLEApplication.c **** * \param  len:Ë¶ÅÂèëÈÄÅÁöÑÊï∞ÊçÆÁöÑÈïøÂ∫¶
1463:.\BLEApplication.c **** * \return none
1464:.\BLEApplication.c **** *  
1465:.\BLEApplication.c **** * 
1466:.\BLEApplication.c **** ******************************************************************************/
1467:.\BLEApplication.c **** void SendData_toSlave(uint8_t*val,uint16_t len)
1468:.\BLEApplication.c **** {
 1171              		.loc 1 1468 0
 1172              		.cfi_startproc
 1173              	.LVL121:
 1174 0000 00B5     		push	{lr}
 1175              		.cfi_def_cfa_offset 4
 1176              		.cfi_offset 14, -4
 1177 0002 87B0     		sub	sp, sp, #28
 1178              		.cfi_def_cfa_offset 32
 1179              	.LVL122:
1469:.\BLEApplication.c **** //    uint8 cccdNotifEnabledValue[] = {0x01, 0x00};
1470:.\BLEApplication.c ****     CYBLE_API_RESULT_T API_RESULT=0;
1471:.\BLEApplication.c ****     CYBLE_GATT_VALUE_T SendDataStruct =
 1180              		.loc 1 1471 0
 1181 0004 04AB     		add	r3, sp, #16
 1182 0006 0490     		str	r0, [sp, #16]
 1183 0008 9980     		strh	r1, [r3, #4]
 1184 000a 0022     		mov	r2, #0
 1185 000c DA80     		strh	r2, [r3, #6]
1472:.\BLEApplication.c ****     {
1473:.\BLEApplication.c ****         val,
1474:.\BLEApplication.c ****         len,
1475:.\BLEApplication.c ****         0
1476:.\BLEApplication.c ****     };
1477:.\BLEApplication.c ****     CYBLE_GATTC_WRITE_REQ_T writeRequestData;
1478:.\BLEApplication.c ****     writeRequestData.attrHandle=CYBLE_TROUGHPUT_SERVICE_CUSTOM_CHARACTERISTIC_CHAR_HANDLE;
 1186              		.loc 1 1478 0
 1187 000e 01AA     		add	r2, sp, #4
 1188 0010 0E21     		mov	r1, #14
 1189              	.LVL123:
 1190 0012 1181     		strh	r1, [r2, #8]
1479:.\BLEApplication.c ****     writeRequestData.value=SendDataStruct;
ARM GAS  C:\Users\Helon\AppData\Local\Temp\cckZyeCc.s 			page 49


 1191              		.loc 1 1479 0
 1192 0014 03CB     		ldmia	r3!, {r0, r1}
 1193 0016 03C2     		stmia	r2!, {r0, r1}
 1194              	.LVL124:
 1195              	.L78:
1480:.\BLEApplication.c **** //    CyBle_GattcWriteCharacteristicValue(cyBle_connHandle,&writeRequestData);
1481:.\BLEApplication.c ****     do{
1482:.\BLEApplication.c ****         API_RESULT=CyBle_GattcWriteCharacteristicValue(cyBle_connHandle,&writeRequestData);
 1196              		.loc 1 1482 0 discriminator 2
 1197 0018 074A     		ldr	r2, .L79
 1198 001a 1378     		ldrb	r3, [r2]
 1199 001c 5078     		ldrb	r0, [r2, #1]
 1200 001e 0002     		lsl	r0, r0, #8
 1201 0020 1843     		orr	r0, r3
 1202 0022 01A9     		add	r1, sp, #4
 1203 0024 FFF7FEFF 		bl	CyBle_GattcWriteCharacteristicValue
 1204              	.LVL125:
1483:.\BLEApplication.c ****       }
1484:.\BLEApplication.c ****     while((CYBLE_ERROR_OK != API_RESULT)  && (CYBLE_STATE_CONNECTED == cyBle_state));
 1205              		.loc 1 1484 0 discriminator 2
 1206 0028 0028     		cmp	r0, #0
 1207 002a 03D0     		beq	.L76
 1208              		.loc 1 1484 0 is_stmt 0 discriminator 1
 1209 002c 034B     		ldr	r3, .L79+4
 1210 002e 1B78     		ldrb	r3, [r3]
 1211 0030 022B     		cmp	r3, #2
 1212 0032 F1D0     		beq	.L78
 1213              	.L76:
1485:.\BLEApplication.c ****     
1486:.\BLEApplication.c ****     
1487:.\BLEApplication.c **** }
 1214              		.loc 1 1487 0 is_stmt 1
 1215 0034 07B0     		add	sp, sp, #28
 1216              		@ sp needed
 1217 0036 00BD     		pop	{pc}
 1218              	.L80:
 1219              		.align	2
 1220              	.L79:
 1221 0038 00000000 		.word	cyBle_connHandle
 1222 003c 00000000 		.word	cyBle_state
 1223              		.cfi_endproc
 1224              	.LFE47:
 1225              		.size	SendData_toSlave, .-SendData_toSlave
 1226              		.section	.text.Connect_Device,"ax",%progbits
 1227              		.align	2
 1228              		.global	Connect_Device
 1229              		.code	16
 1230              		.thumb_func
 1231              		.type	Connect_Device, %function
 1232              	Connect_Device:
 1233              	.LFB49:
1488:.\BLEApplication.c **** /******************************************************************************
1489:.\BLEApplication.c **** * Function Name: Slave_UartHandler
1490:.\BLEApplication.c **** ***************************************************************************//**
1491:.\BLEApplication.c **** * 
1492:.\BLEApplication.c **** *  Âú®Master_SlaveÊ®°Âºè‰∏ãÂ§ÑÁêÜ‰∏≤Âè£Êåá‰ª§
1493:.\BLEApplication.c **** * \param  none
ARM GAS  C:\Users\Helon\AppData\Local\Temp\cckZyeCc.s 			page 50


1494:.\BLEApplication.c **** * \return none
1495:.\BLEApplication.c **** *  
1496:.\BLEApplication.c **** * 
1497:.\BLEApplication.c **** ******************************************************************************/
1498:.\BLEApplication.c **** void Master_Slave_UartHandler(uint8_t Role)
1499:.\BLEApplication.c **** {
1500:.\BLEApplication.c ****     uint8_t Uart_Char=0;
1501:.\BLEApplication.c ****     uint8   index;
1502:.\BLEApplication.c ****     uint8   uartTxData[negotiatedMtu - 3];
1503:.\BLEApplication.c ****     CYBLE_API_RESULT_T API_RESULT=0;
1504:.\BLEApplication.c ****     uint16_t uartTxDataLength;
1505:.\BLEApplication.c ****     static uint16 uartIdleCount = UART_IDLE_TIMEOUT;
1506:.\BLEApplication.c **** //    Uart_Char=UART_UartGetChar();
1507:.\BLEApplication.c ****     CYBLE_GATTS_HANDLE_VALUE_NTF_T      uartTxDataNtf;
1508:.\BLEApplication.c ****     uartTxDataLength = UART_SpiUartGetRxBufferSize();//Âè™ÊúâËØªÂèñÂÆå‰∫ÜRX_BufferÊâçÊ∏Ö0
1509:.\BLEApplication.c ****     #ifdef  FLOW_CONTROL//Ê≠§Â§ÑÊúÄÂ•ΩÁΩÆ‰∏ÄGPIOÂè£‰∏∫‰ΩéÁîµÂπ≥ÂëäËØâÂèëÈÄÅÊñπÂÅúÊ≠¢ÂèëÈÄÅÊï∞ÊçÆ
1510:.\BLEApplication.c ****         if(uartTxDataLength>=(UART_RX_BUFFER/2))
1511:.\BLEApplication.c ****         {
1512:.\BLEApplication.c ****             UART_RX_INT_DISABLE();
1513:.\BLEApplication.c ****             CTS_Write(CTS_ON);
1514:.\BLEApplication.c ****         }
1515:.\BLEApplication.c ****         else
1516:.\BLEApplication.c ****         {
1517:.\BLEApplication.c ****             UART_RX_INT_ENABLE();
1518:.\BLEApplication.c ****             CTS_Write(CTS_OFF);
1519:.\BLEApplication.c ****         }
1520:.\BLEApplication.c ****     #endif
1521:.\BLEApplication.c **** //        Â§ÑÁêÜ‰∏≤Âè£‰ø°ÊÅØ,‰∏çÈááÁî®‰∏≠Êñ≠ÁöÑÊñπÂºè,ÈááÂèñ‰∏≠Êñ≠‰ºöÂΩ±ÂìçÈÄè‰º†ÈÄüÁéá
1522:.\BLEApplication.c ****     if((0!=uartTxDataLength)&&((CommandMode==THROUGHT_MODE)))
1523:.\BLEApplication.c ****     {   
1524:.\BLEApplication.c ****         if(uartTxDataLength>=DEFAULT_MTU_SIZE-3)
1525:.\BLEApplication.c ****         {
1526:.\BLEApplication.c ****             uartIdleCount=UART_IDLE_TIMEOUT;
1527:.\BLEApplication.c ****             uartTxDataLength=DEFAULT_MTU_SIZE-3;
1528:.\BLEApplication.c ****         }
1529:.\BLEApplication.c ****         else//Â¶ÇÊûúÂ∞è‰∫é20Â≠óËäÇÂàôÁ≠â‰∏™100ms,Â¶ÇÊûú100msÂêéËøòÊòØÂ∞ë‰∫é20Â≠óËäÇÂàôÈÄè‰º†Âá∫Âéª
1530:.\BLEApplication.c ****         {
1531:.\BLEApplication.c ****             if(--uartIdleCount == 0)
1532:.\BLEApplication.c ****             {
1533:.\BLEApplication.c ****                 /*uartTxDataLength remains unchanged */;
1534:.\BLEApplication.c ****             }
1535:.\BLEApplication.c ****             else
1536:.\BLEApplication.c ****             {
1537:.\BLEApplication.c ****                 uartTxDataLength = 0;
1538:.\BLEApplication.c ****             }
1539:.\BLEApplication.c ****         }
1540:.\BLEApplication.c ****         if(0!=uartTxDataLength)
1541:.\BLEApplication.c ****         {
1542:.\BLEApplication.c ****             uartIdleCount=UART_IDLE_TIMEOUT;
1543:.\BLEApplication.c ****             for(index=0;index<uartTxDataLength;index++)//‰∏çÁÆ°ÊòØ‰∏ªÊú∫ËøòÊòØ‰ªéÊú∫ÔºåÂú®ÈÄè‰º†Ê®°
1544:.\BLEApplication.c ****             {
1545:.\BLEApplication.c ****                 uartTxData[index] = (uint8) UART_UartGetByte();
1546:.\BLEApplication.c ****             }
1547:.\BLEApplication.c ****             if(0==memcmp("AT+NOTIFY=0",uartTxData,11))//Âú®ÈÄè‰º†Ê®°Âºè‰∏ãÔºåÂà§Êñ≠ÊòØ‰∏çÊòØË¶ÅÈÄÄÂ
1548:.\BLEApplication.c ****             {
1549:.\BLEApplication.c ****                 if(Role==Central) //‰∏ªÊú∫Ê®°Âºè‰∏ãÈÄÄÂá∫ÈÄè‰º†Ê®°Âºè
1550:.\BLEApplication.c ****                 {
ARM GAS  C:\Users\Helon\AppData\Local\Temp\cckZyeCc.s 			page 51


1551:.\BLEApplication.c ****                     writeRequestData.value.val[0]=0x00;
1552:.\BLEApplication.c ****                     writeRequestData.attrHandle=CYBLE_TROUGHPUT_SERVICE_CUSTOM_CHARACTERISTIC_CLIEN
1553:.\BLEApplication.c ****                     API_RESULT=CyBle_GattcWriteCharacteristicValue(cyBle_connHandle, &writeRequestD
1554:.\BLEApplication.c ****                     if(CYBLE_ERROR_OK==API_RESULT)
1555:.\BLEApplication.c ****                     {
1556:.\BLEApplication.c ****                         CommandMode=AT_COMMAND_MODE;
1557:.\BLEApplication.c ****                         Buffer_Length=0;
1558:.\BLEApplication.c ****                         memset(RX_BUFFER,0,sizeof(RX_BUFFER));
1559:.\BLEApplication.c ****                         printf("+MODE=<AT_COMMAND_MODE>\r\n");
1560:.\BLEApplication.c ****                     }
1561:.\BLEApplication.c ****                 }
1562:.\BLEApplication.c ****                 else //‰ªéÊú∫Ê®°Âºè‰∏ãÈÄÄÂá∫ÈÄè‰º†Ê®°Âºè
1563:.\BLEApplication.c ****                 {
1564:.\BLEApplication.c ****                     CommandMode=AT_COMMAND_MODE;
1565:.\BLEApplication.c ****                     Buffer_Length=0;
1566:.\BLEApplication.c ****                     memset(RX_BUFFER,0,sizeof(RX_BUFFER));
1567:.\BLEApplication.c ****                     printf("+MODE=<AT_COMMAND_MODE>\r\n");
1568:.\BLEApplication.c ****                 }
1569:.\BLEApplication.c ****                 return;
1570:.\BLEApplication.c ****             }  
1571:.\BLEApplication.c ****             if(0==memcmp("AT+NOTIFY=?",uartTxData,11))//‰∏çÁÆ°‰∏ªÊú∫ËøòÊòØ‰ªéÊú∫ÔºåÂú®ÈÄè‰º†Ê®°Âºè‰
1572:.\BLEApplication.c ****             {
1573:.\BLEApplication.c ****                 Buffer_Length=0;
1574:.\BLEApplication.c ****                 memset(RX_BUFFER,0,sizeof(RX_BUFFER));
1575:.\BLEApplication.c ****                 printf("+MODE=<THROUGHT_MODE>\r\n");
1576:.\BLEApplication.c ****                 return;
1577:.\BLEApplication.c ****             }
1578:.\BLEApplication.c ****             else if(Peripheral==Role)//‰ªéÊú∫Áªô‰∏ªÊú∫ÂèëÈÄÅÈÄè‰º†Êï∞ÊçÆ
1579:.\BLEApplication.c ****             {
1580:.\BLEApplication.c ****                 uartTxDataNtf.value.val  = uartTxData;
1581:.\BLEApplication.c ****                 uartTxDataNtf.value.len  = uartTxDataLength;
1582:.\BLEApplication.c ****                 uartTxDataNtf.attrHandle = CYBLE_TROUGHPUT_SERVICE_CUSTOM_CHARACTERISTIC_CHAR_HANDL
1583:.\BLEApplication.c **** //                #ifdef FLOW_CONTROL
1584:.\BLEApplication.c **** //                    UART_RX_INT_DISABLE();
1585:.\BLEApplication.c **** //                #endif
1586:.\BLEApplication.c ****                 do
1587:.\BLEApplication.c ****                 {
1588:.\BLEApplication.c ****                     API_RESULT = CyBle_GattsNotification(cyBle_connHandle, &uartTxDataNtf);
1589:.\BLEApplication.c ****                     CyBle_ProcessEvents();
1590:.\BLEApplication.c ****                 }
1591:.\BLEApplication.c ****                 while((CYBLE_ERROR_OK != API_RESULT)  && (CYBLE_STATE_CONNECTED == cyBle_state));
1592:.\BLEApplication.c ****             }
1593:.\BLEApplication.c ****             else////‰∏ªÊú∫Áªô‰ªéÊú∫ÂèëÈÄÅÈÄè‰º†Êï∞ÊçÆ
1594:.\BLEApplication.c ****             {
1595:.\BLEApplication.c ****                 #ifdef FLOW_CONTROL
1596:.\BLEApplication.c ****                     UART_RX_INT_DISABLE();
1597:.\BLEApplication.c ****                 #endif
1598:.\BLEApplication.c ****                 SendData_toSlave(uartTxData,uartTxDataLength);
1599:.\BLEApplication.c ****             }
1600:.\BLEApplication.c ****         }
1601:.\BLEApplication.c ****         return ;
1602:.\BLEApplication.c ****     }
1603:.\BLEApplication.c ****     else if(0!=uartTxDataLength)
1604:.\BLEApplication.c ****     {            
1605:.\BLEApplication.c ****         Uart_Char=(uint8) UART_UartGetByte();
1606:.\BLEApplication.c ****         if('\n'!=Uart_Char)
1607:.\BLEApplication.c ****         {
ARM GAS  C:\Users\Helon\AppData\Local\Temp\cckZyeCc.s 			page 52


1608:.\BLEApplication.c **** //            if(CommandMode==THROUGHT_MODE)
1609:.\BLEApplication.c **** //            {
1610:.\BLEApplication.c **** //                RX_BUFFER[Buffer_Length]=Uart_Char-0x30;//ËØªÂèñ‰∏≤Âè£Êé•Êî∂ÁºìÂÜ≤Âå∫ÁöÑÊï∞ÊçÆ
1611:.\BLEApplication.c **** //                Buffer_Length++;
1612:.\BLEApplication.c **** //            }
1613:.\BLEApplication.c **** //            else
1614:.\BLEApplication.c **** //            {
1615:.\BLEApplication.c ****                 RX_BUFFER[Buffer_Length]=Uart_Char;//ËØªÂèñ‰∏≤Âè£Êé•Êî∂ÁºìÂÜ≤Âå∫ÁöÑÊï∞ÊçÆ
1616:.\BLEApplication.c ****                 Buffer_Length++;
1617:.\BLEApplication.c **** //            }                
1618:.\BLEApplication.c ****         }
1619:.\BLEApplication.c ****         else
1620:.\BLEApplication.c ****         {
1621:.\BLEApplication.c ****         //‰∏≤Âè£Êé•Êî∂ÁöÑÊï∞ÊçÆÈïøÂ∫¶Ê∏ÖÈõ∂,‰ª•‰æø‰∏ã‰∏ÄÊù°ÂëΩ‰ª§ËøáÊù•Êó∂ËøòÊòØÂ≠òÊîæÂú®Êï∞ÁªÑÈ¶ñÂ
1622:.\BLEApplication.c ****             RX_BUFFER[Buffer_Length]=Uart_Char;//ËØªÂèñ‰∏≤Âè£Êé•Êî∂ÁºìÂÜ≤Âå∫ÁöÑÊï∞ÊçÆ              
1623:.\BLEApplication.c ****             Parser_UartData((char*)RX_BUFFER);
1624:.\BLEApplication.c ****             Buffer_Length=0;
1625:.\BLEApplication.c ****             memset(RX_BUFFER,0,sizeof(RX_BUFFER));
1626:.\BLEApplication.c **** //            if(CommandMode==THROUGHT_MODE)
1627:.\BLEApplication.c **** //            {
1628:.\BLEApplication.c **** //                
1629:.\BLEApplication.c **** //                if(Role==Peripheral)
1630:.\BLEApplication.c **** //                    SendNotification(RX_BUFFER,Buffer_Length+3);
1631:.\BLEApplication.c **** //                else
1632:.\BLEApplication.c **** //                    SendData_toSlave(RX_BUFFER,Buffer_Length);
1633:.\BLEApplication.c **** //                //‰∏≤Âè£Êé•Êî∂ÁöÑÊï∞ÊçÆÈïøÂ∫¶Ê∏ÖÈõ∂,‰ª•‰æø‰∏ã‰∏ÄÊù°ÂëΩ‰ª§ËøáÊù•Êó∂ËøòÊòØÂ≠òÊîæÂú®
1634:.\BLEApplication.c **** //                Buffer_Length=0;
1635:.\BLEApplication.c **** //                memset(RX_BUFFER,0,sizeof(RX_BUFFER));
1636:.\BLEApplication.c **** //            }
1637:.\BLEApplication.c **** //            else
1638:.\BLEApplication.c **** //            {
1639:.\BLEApplication.c **** //                
1640:.\BLEApplication.c **** //            }
1641:.\BLEApplication.c ****         }
1642:.\BLEApplication.c ****     }
1643:.\BLEApplication.c **** }
1644:.\BLEApplication.c **** 
1645:.\BLEApplication.c **** /******************************************************************************
1646:.\BLEApplication.c **** * Function Name: Connect_Device
1647:.\BLEApplication.c **** ***************************************************************************//**
1648:.\BLEApplication.c **** * 
1649:.\BLEApplication.c **** *  ËøûÊé•Êâ´ÊèèÂàóË°®‰∏≠ÁöÑSlaveËÆæÂ§á
1650:.\BLEApplication.c **** * \param  idx:Êâ´ÊèèÂàóË°®‰∏≠ÁöÑÁ¥¢ÂºïÂè∑
1651:.\BLEApplication.c **** * \return none
1652:.\BLEApplication.c **** *  
1653:.\BLEApplication.c **** * 
1654:.\BLEApplication.c **** ******************************************************************************/
1655:.\BLEApplication.c **** void Connect_Device(uint8_t idx)
1656:.\BLEApplication.c **** {
 1234              		.loc 1 1656 0
 1235              		.cfi_startproc
 1236              	.LVL126:
 1237 0000 F0B5     		push	{r4, r5, r6, r7, lr}
 1238              		.cfi_def_cfa_offset 20
 1239              		.cfi_offset 4, -20
 1240              		.cfi_offset 5, -16
 1241              		.cfi_offset 6, -12
ARM GAS  C:\Users\Helon\AppData\Local\Temp\cckZyeCc.s 			page 53


 1242              		.cfi_offset 7, -8
 1243              		.cfi_offset 14, -4
 1244 0002 85B0     		sub	sp, sp, #20
 1245              		.cfi_def_cfa_offset 40
 1246              	.LVL127:
1657:.\BLEApplication.c ****     CYBLE_API_RESULT_T API_RESULT=0;
1658:.\BLEApplication.c ****     uint8_t i=0;
1659:.\BLEApplication.c ****     if(Role==Central)
 1247              		.loc 1 1659 0
 1248 0004 6A4B     		ldr	r3, .L96
 1249 0006 1B78     		ldrb	r3, [r3]
 1250 0008 002B     		cmp	r3, #0
 1251 000a 00D0     		beq	.LCB1080
 1252 000c CDE0     		b	.L81	@long jump
 1253              	.LCB1080:
1660:.\BLEApplication.c ****     {
1661:.\BLEApplication.c ****         switch(idx)
 1254              		.loc 1 1661 0
 1255 000e 031C     		mov	r3, r0
 1256 0010 313B     		sub	r3, r3, #49
 1257 0012 DAB2     		uxtb	r2, r3
 1258 0014 0E2A     		cmp	r2, #14
 1259 0016 00D9     		bls	.LCB1085
 1260 0018 C7E0     		b	.L81	@long jump
 1261              	.LCB1085:
 1262 001a 041C     		mov	r4, r0
 1263 001c 9300     		lsl	r3, r2, #2
 1264 001e 654A     		ldr	r2, .L96+4
 1265 0020 D358     		ldr	r3, [r2, r3]
 1266 0022 9F46     		mov	pc, r3
 1267              		.section	.rodata
 1268              		.align	2
 1269              	.L84:
 1270 014c 24000000 		.word	.L83
 1271 0150 76000000 		.word	.L85
 1272 0154 C8000000 		.word	.L86
 1273 0158 1A010000 		.word	.L87
 1274 015c AA010000 		.word	.L81
 1275 0160 AA010000 		.word	.L81
 1276 0164 AA010000 		.word	.L81
 1277 0168 AA010000 		.word	.L81
 1278 016c AA010000 		.word	.L81
 1279 0170 AA010000 		.word	.L81
 1280 0174 AA010000 		.word	.L81
 1281 0178 AA010000 		.word	.L81
 1282 017c AA010000 		.word	.L81
 1283 0180 AA010000 		.word	.L81
 1284 0184 6C010000 		.word	.L88
 1285              		.section	.text.Connect_Device
 1286              	.L83:
1662:.\BLEApplication.c ****         {
1663:.\BLEApplication.c ****             case '1':
1664:.\BLEApplication.c ****                 API_RESULT=CyBle_GapcConnectDevice(&DeviceInfo[idx-1-0x30].DeviceList);
 1287              		.loc 1 1664 0
 1288 0024 051C     		mov	r5, r0
 1289 0026 313D     		sub	r5, r5, #49
 1290 0028 2B01     		lsl	r3, r5, #4
ARM GAS  C:\Users\Helon\AppData\Local\Temp\cckZyeCc.s 			page 54


 1291 002a 5B1B     		sub	r3, r3, r5
 1292 002c 5B00     		lsl	r3, r3, #1
 1293 002e 6248     		ldr	r0, .L96+8
 1294              	.LVL128:
 1295 0030 1818     		add	r0, r3, r0
 1296 0032 FFF7FEFF 		bl	CyBle_GapcConnectDevice
 1297              	.LVL129:
 1298 0036 021E     		sub	r2, r0, #0
 1299              	.LVL130:
1665:.\BLEApplication.c ****                 if(CYBLE_ERROR_OK!=API_RESULT)  
 1300              		.loc 1 1665 0
 1301 0038 05D0     		beq	.L89
1666:.\BLEApplication.c ****                 {
1667:.\BLEApplication.c ****                     printf("+CONN_EVT=<%d,0x%02X>\r\n",idx-0x30,API_RESULT);                    
 1302              		.loc 1 1667 0
 1303 003a 211C     		mov	r1, r4
 1304 003c 3039     		sub	r1, r1, #48
 1305 003e 5F48     		ldr	r0, .L96+12
 1306              	.LVL131:
 1307 0040 FFF7FEFF 		bl	printf
 1308              	.LVL132:
 1309 0044 B1E0     		b	.L81
 1310              	.LVL133:
 1311              	.L89:
1668:.\BLEApplication.c ****                 }
1669:.\BLEApplication.c ****                 else
1670:.\BLEApplication.c ****                 {
1671:.\BLEApplication.c ****                 Conn_Or_Disconn_Info.Connected_Count++;
 1312              		.loc 1 1671 0
 1313 0046 5E48     		ldr	r0, .L96+16
 1314              	.LVL134:
 1315 0048 037A     		ldrb	r3, [r0, #8]
 1316 004a 0133     		add	r3, r3, #1
 1317 004c DBB2     		uxtb	r3, r3
 1318 004e 0372     		strb	r3, [r0, #8]
1672:.\BLEApplication.c ****                 Conn_Or_Disconn_Info.Connect_Idx[Conn_Or_Disconn_Info.Connected_Count-1]=idx-0x30;
 1319              		.loc 1 1672 0
 1320 0050 013B     		sub	r3, r3, #1
 1321 0052 303C     		sub	r4, r4, #48
 1322 0054 E4B2     		uxtb	r4, r4
 1323 0056 C454     		strb	r4, [r0, r3]
1673:.\BLEApplication.c ****                 Conn_or_Disconn_Idx=idx-0x30;
 1324              		.loc 1 1673 0
 1325 0058 5A4A     		ldr	r2, .L96+20
 1326 005a 5470     		strb	r4, [r2, #1]
1674:.\BLEApplication.c ****                 memcpy(Conn_Or_Disconn_Info.DeviceAddr[Conn_Or_Disconn_Info.Connected_Count-1].bdAd
 1327              		.loc 1 1674 0
 1328 005c DA00     		lsl	r2, r3, #3
 1329 005e D31A     		sub	r3, r2, r3
 1330 0060 C018     		add	r0, r0, r3
 1331 0062 2A01     		lsl	r2, r5, #4
 1332 0064 521B     		sub	r2, r2, r5
 1333 0066 5200     		lsl	r2, r2, #1
 1334 0068 0930     		add	r0, r0, #9
 1335 006a 5349     		ldr	r1, .L96+8
 1336 006c 8918     		add	r1, r1, r2
 1337 006e 0622     		mov	r2, #6
ARM GAS  C:\Users\Helon\AppData\Local\Temp\cckZyeCc.s 			page 55


 1338 0070 FFF7FEFF 		bl	memcpy
 1339              	.LVL135:
 1340 0074 99E0     		b	.L81
 1341              	.LVL136:
 1342              	.L85:
1675:.\BLEApplication.c ****                        DeviceInfo[idx-1-0x30].DeviceList.bdAddr,6);                        
1676:.\BLEApplication.c **** //                        CyBle_GapGetPeerBdHandle(bdHandle,&DeviceInfo[idx-1-0x30].DeviceList);
1677:.\BLEApplication.c **** //                        printf("0x%02X\r\n",*bdHandle);  
1678:.\BLEApplication.c ****             }
1679:.\BLEApplication.c ****         break;
1680:.\BLEApplication.c ****         case '2':
1681:.\BLEApplication.c ****             API_RESULT=CyBle_GapcConnectDevice(&DeviceInfo[idx-1-0x30].DeviceList);
 1343              		.loc 1 1681 0
 1344 0076 051C     		mov	r5, r0
 1345 0078 313D     		sub	r5, r5, #49
 1346 007a 2B01     		lsl	r3, r5, #4
 1347 007c 5B1B     		sub	r3, r3, r5
 1348 007e 5B00     		lsl	r3, r3, #1
 1349 0080 4D48     		ldr	r0, .L96+8
 1350              	.LVL137:
 1351 0082 1818     		add	r0, r3, r0
 1352 0084 FFF7FEFF 		bl	CyBle_GapcConnectDevice
 1353              	.LVL138:
 1354 0088 021E     		sub	r2, r0, #0
 1355              	.LVL139:
1682:.\BLEApplication.c ****             if(CYBLE_ERROR_OK!=API_RESULT)  
 1356              		.loc 1 1682 0
 1357 008a 05D0     		beq	.L90
1683:.\BLEApplication.c ****             {
1684:.\BLEApplication.c ****                 printf("+CONN_EVT=<%d,0x%02X>\r\n",idx-0x30,API_RESULT);                    
 1358              		.loc 1 1684 0
 1359 008c 211C     		mov	r1, r4
 1360 008e 3039     		sub	r1, r1, #48
 1361 0090 4A48     		ldr	r0, .L96+12
 1362              	.LVL140:
 1363 0092 FFF7FEFF 		bl	printf
 1364              	.LVL141:
 1365 0096 88E0     		b	.L81
 1366              	.LVL142:
 1367              	.L90:
1685:.\BLEApplication.c ****             }
1686:.\BLEApplication.c ****             else
1687:.\BLEApplication.c ****             {
1688:.\BLEApplication.c ****                 Conn_Or_Disconn_Info.Connected_Count++;
 1368              		.loc 1 1688 0
 1369 0098 4948     		ldr	r0, .L96+16
 1370              	.LVL143:
 1371 009a 037A     		ldrb	r3, [r0, #8]
 1372 009c 0133     		add	r3, r3, #1
 1373 009e DBB2     		uxtb	r3, r3
 1374 00a0 0372     		strb	r3, [r0, #8]
1689:.\BLEApplication.c ****                 Conn_Or_Disconn_Info.Connect_Idx[Conn_Or_Disconn_Info.Connected_Count-1]=idx-0x30;
 1375              		.loc 1 1689 0
 1376 00a2 013B     		sub	r3, r3, #1
 1377 00a4 303C     		sub	r4, r4, #48
 1378 00a6 E4B2     		uxtb	r4, r4
 1379 00a8 C454     		strb	r4, [r0, r3]
ARM GAS  C:\Users\Helon\AppData\Local\Temp\cckZyeCc.s 			page 56


1690:.\BLEApplication.c ****                 Conn_or_Disconn_Idx=idx-0x30;
 1380              		.loc 1 1690 0
 1381 00aa 464A     		ldr	r2, .L96+20
 1382 00ac 5470     		strb	r4, [r2, #1]
1691:.\BLEApplication.c ****                 memcpy(Conn_Or_Disconn_Info.DeviceAddr[Conn_Or_Disconn_Info.Connected_Count-1].bdAd
 1383              		.loc 1 1691 0
 1384 00ae DA00     		lsl	r2, r3, #3
 1385 00b0 D31A     		sub	r3, r2, r3
 1386 00b2 C018     		add	r0, r0, r3
 1387 00b4 2A01     		lsl	r2, r5, #4
 1388 00b6 521B     		sub	r2, r2, r5
 1389 00b8 5200     		lsl	r2, r2, #1
 1390 00ba 0930     		add	r0, r0, #9
 1391 00bc 3E49     		ldr	r1, .L96+8
 1392 00be 8918     		add	r1, r1, r2
 1393 00c0 0622     		mov	r2, #6
 1394 00c2 FFF7FEFF 		bl	memcpy
 1395              	.LVL144:
 1396 00c6 70E0     		b	.L81
 1397              	.LVL145:
 1398              	.L86:
1692:.\BLEApplication.c ****                        DeviceInfo[idx-1-0x30].DeviceList.bdAddr,6);
1693:.\BLEApplication.c ****             }
1694:.\BLEApplication.c ****         break;
1695:.\BLEApplication.c ****         case '3':
1696:.\BLEApplication.c ****             API_RESULT=CyBle_GapcConnectDevice(&DeviceInfo[idx-1-0x30].DeviceList);
 1399              		.loc 1 1696 0
 1400 00c8 051C     		mov	r5, r0
 1401 00ca 313D     		sub	r5, r5, #49
 1402 00cc 2B01     		lsl	r3, r5, #4
 1403 00ce 5B1B     		sub	r3, r3, r5
 1404 00d0 5B00     		lsl	r3, r3, #1
 1405 00d2 3948     		ldr	r0, .L96+8
 1406              	.LVL146:
 1407 00d4 1818     		add	r0, r3, r0
 1408 00d6 FFF7FEFF 		bl	CyBle_GapcConnectDevice
 1409              	.LVL147:
 1410 00da 021E     		sub	r2, r0, #0
 1411              	.LVL148:
1697:.\BLEApplication.c ****             if(CYBLE_ERROR_OK!=API_RESULT)  
 1412              		.loc 1 1697 0
 1413 00dc 05D0     		beq	.L91
1698:.\BLEApplication.c ****             {
1699:.\BLEApplication.c ****                 printf("+CONN_EVT=<%d,0x%02X>\r\n",idx-0x30,API_RESULT);                    
 1414              		.loc 1 1699 0
 1415 00de 211C     		mov	r1, r4
 1416 00e0 3039     		sub	r1, r1, #48
 1417 00e2 3648     		ldr	r0, .L96+12
 1418              	.LVL149:
 1419 00e4 FFF7FEFF 		bl	printf
 1420              	.LVL150:
 1421 00e8 5FE0     		b	.L81
 1422              	.LVL151:
 1423              	.L91:
1700:.\BLEApplication.c ****             }
1701:.\BLEApplication.c ****             else
1702:.\BLEApplication.c ****             {
ARM GAS  C:\Users\Helon\AppData\Local\Temp\cckZyeCc.s 			page 57


1703:.\BLEApplication.c ****                 Conn_Or_Disconn_Info.Connected_Count++;
 1424              		.loc 1 1703 0
 1425 00ea 3548     		ldr	r0, .L96+16
 1426              	.LVL152:
 1427 00ec 037A     		ldrb	r3, [r0, #8]
 1428 00ee 0133     		add	r3, r3, #1
 1429 00f0 DBB2     		uxtb	r3, r3
 1430 00f2 0372     		strb	r3, [r0, #8]
1704:.\BLEApplication.c ****                 Conn_Or_Disconn_Info.Connect_Idx[Conn_Or_Disconn_Info.Connected_Count-1]=idx-0x30;
 1431              		.loc 1 1704 0
 1432 00f4 013B     		sub	r3, r3, #1
 1433 00f6 303C     		sub	r4, r4, #48
 1434 00f8 E4B2     		uxtb	r4, r4
 1435 00fa C454     		strb	r4, [r0, r3]
1705:.\BLEApplication.c ****                 Conn_or_Disconn_Idx=idx-0x30;
 1436              		.loc 1 1705 0
 1437 00fc 314A     		ldr	r2, .L96+20
 1438 00fe 5470     		strb	r4, [r2, #1]
1706:.\BLEApplication.c ****                 memcpy(Conn_Or_Disconn_Info.DeviceAddr[Conn_Or_Disconn_Info.Connected_Count-1].bdAd
 1439              		.loc 1 1706 0
 1440 0100 DA00     		lsl	r2, r3, #3
 1441 0102 D31A     		sub	r3, r2, r3
 1442 0104 C018     		add	r0, r0, r3
 1443 0106 2A01     		lsl	r2, r5, #4
 1444 0108 521B     		sub	r2, r2, r5
 1445 010a 5200     		lsl	r2, r2, #1
 1446 010c 0930     		add	r0, r0, #9
 1447 010e 2A49     		ldr	r1, .L96+8
 1448 0110 8918     		add	r1, r1, r2
 1449 0112 0622     		mov	r2, #6
 1450 0114 FFF7FEFF 		bl	memcpy
 1451              	.LVL153:
 1452 0118 47E0     		b	.L81
 1453              	.LVL154:
 1454              	.L87:
1707:.\BLEApplication.c ****                        DeviceInfo[idx-1-0x30].DeviceList.bdAddr,6);
1708:.\BLEApplication.c ****             }
1709:.\BLEApplication.c ****         break;
1710:.\BLEApplication.c ****         case '4':
1711:.\BLEApplication.c ****             API_RESULT=CyBle_GapcConnectDevice(&DeviceInfo[idx-1-0x30].DeviceList);
 1455              		.loc 1 1711 0
 1456 011a 051C     		mov	r5, r0
 1457 011c 313D     		sub	r5, r5, #49
 1458 011e 2B01     		lsl	r3, r5, #4
 1459 0120 5B1B     		sub	r3, r3, r5
 1460 0122 5B00     		lsl	r3, r3, #1
 1461 0124 2448     		ldr	r0, .L96+8
 1462              	.LVL155:
 1463 0126 1818     		add	r0, r3, r0
 1464 0128 FFF7FEFF 		bl	CyBle_GapcConnectDevice
 1465              	.LVL156:
 1466 012c 021E     		sub	r2, r0, #0
 1467              	.LVL157:
1712:.\BLEApplication.c ****             if(CYBLE_ERROR_OK!=API_RESULT)  
 1468              		.loc 1 1712 0
 1469 012e 05D0     		beq	.L92
1713:.\BLEApplication.c ****             {
ARM GAS  C:\Users\Helon\AppData\Local\Temp\cckZyeCc.s 			page 58


1714:.\BLEApplication.c ****                 printf("+CONN_EVT=<%d,0x%02X>\r\n",idx-0x30,API_RESULT);                    
 1470              		.loc 1 1714 0
 1471 0130 211C     		mov	r1, r4
 1472 0132 3039     		sub	r1, r1, #48
 1473 0134 2148     		ldr	r0, .L96+12
 1474              	.LVL158:
 1475 0136 FFF7FEFF 		bl	printf
 1476              	.LVL159:
 1477 013a 36E0     		b	.L81
 1478              	.LVL160:
 1479              	.L92:
1715:.\BLEApplication.c ****             }
1716:.\BLEApplication.c ****             else
1717:.\BLEApplication.c ****             {
1718:.\BLEApplication.c ****                 Conn_Or_Disconn_Info.Connected_Count++;
 1480              		.loc 1 1718 0
 1481 013c 2048     		ldr	r0, .L96+16
 1482              	.LVL161:
 1483 013e 037A     		ldrb	r3, [r0, #8]
 1484 0140 0133     		add	r3, r3, #1
 1485 0142 DBB2     		uxtb	r3, r3
 1486 0144 0372     		strb	r3, [r0, #8]
1719:.\BLEApplication.c ****                 Conn_Or_Disconn_Info.Connect_Idx[Conn_Or_Disconn_Info.Connected_Count-1]=idx-0x30;
 1487              		.loc 1 1719 0
 1488 0146 013B     		sub	r3, r3, #1
 1489 0148 303C     		sub	r4, r4, #48
 1490 014a E4B2     		uxtb	r4, r4
 1491 014c C454     		strb	r4, [r0, r3]
1720:.\BLEApplication.c ****                 Conn_or_Disconn_Idx=idx-0x30;
 1492              		.loc 1 1720 0
 1493 014e 1D4A     		ldr	r2, .L96+20
 1494 0150 5470     		strb	r4, [r2, #1]
1721:.\BLEApplication.c ****                 memcpy(Conn_Or_Disconn_Info.DeviceAddr[Conn_Or_Disconn_Info.Connected_Count-1].bdAd
 1495              		.loc 1 1721 0
 1496 0152 DA00     		lsl	r2, r3, #3
 1497 0154 D31A     		sub	r3, r2, r3
 1498 0156 C018     		add	r0, r0, r3
 1499 0158 2901     		lsl	r1, r5, #4
 1500 015a 4D1B     		sub	r5, r1, r5
 1501 015c 6D00     		lsl	r5, r5, #1
 1502 015e 0930     		add	r0, r0, #9
 1503 0160 1549     		ldr	r1, .L96+8
 1504 0162 4919     		add	r1, r1, r5
 1505 0164 0622     		mov	r2, #6
 1506 0166 FFF7FEFF 		bl	memcpy
 1507              	.LVL162:
 1508 016a 1EE0     		b	.L81
 1509              	.LVL163:
 1510              	.L88:
1722:.\BLEApplication.c ****                        DeviceInfo[idx-1-0x30].DeviceList.bdAddr,6);
1723:.\BLEApplication.c ****             }
1724:.\BLEApplication.c ****         break;
1725:.\BLEApplication.c ****         case '?':
1726:.\BLEApplication.c ****             if(CYBLE_STATE_CONNECTED==CyBle_GetState())
 1511              		.loc 1 1726 0
 1512 016c 164B     		ldr	r3, .L96+24
 1513 016e 1B78     		ldrb	r3, [r3]
ARM GAS  C:\Users\Helon\AppData\Local\Temp\cckZyeCc.s 			page 59


 1514 0170 022B     		cmp	r3, #2
 1515 0172 1AD1     		bne	.L81
 1516 0174 14E0     		b	.L95
 1517              	.LVL164:
 1518              	.L94:
1727:.\BLEApplication.c ****             {
1728:.\BLEApplication.c ****                 for(i=0;i<Conn_Or_Disconn_Info.Connected_Count;i++)
1729:.\BLEApplication.c ****                 {
1730:.\BLEApplication.c ****                     printf("+INQ_CONN:<%d,0x%02X%02X%02X%02X%02X%02X>\r\n",
1731:.\BLEApplication.c ****                     Conn_Or_Disconn_Info.Connect_Idx[i],
 1519              		.loc 1 1731 0 discriminator 3
 1520 0176 1248     		ldr	r0, .L96+16
 1521 0178 015D     		ldrb	r1, [r0, r4]
1732:.\BLEApplication.c ****                     Conn_Or_Disconn_Info.DeviceAddr[i].bdAddr[5],
 1522              		.loc 1 1732 0 discriminator 3
 1523 017a E300     		lsl	r3, r4, #3
 1524 017c 1B1B     		sub	r3, r3, r4
 1525 017e C018     		add	r0, r0, r3
 1526 0180 827B     		ldrb	r2, [r0, #14]
1733:.\BLEApplication.c ****                     Conn_Or_Disconn_Info.DeviceAddr[i].bdAddr[4],
 1527              		.loc 1 1733 0 discriminator 3
 1528 0182 437B     		ldrb	r3, [r0, #13]
1734:.\BLEApplication.c ****                     Conn_Or_Disconn_Info.DeviceAddr[i].bdAddr[3],
 1529              		.loc 1 1734 0 discriminator 3
 1530 0184 077B     		ldrb	r7, [r0, #12]
1735:.\BLEApplication.c ****                     Conn_Or_Disconn_Info.DeviceAddr[i].bdAddr[2],
 1531              		.loc 1 1735 0 discriminator 3
 1532 0186 C67A     		ldrb	r6, [r0, #11]
1736:.\BLEApplication.c ****                     Conn_Or_Disconn_Info.DeviceAddr[i].bdAddr[1],
 1533              		.loc 1 1736 0 discriminator 3
 1534 0188 857A     		ldrb	r5, [r0, #10]
1737:.\BLEApplication.c ****                     Conn_Or_Disconn_Info.DeviceAddr[i].bdAddr[0]
 1535              		.loc 1 1737 0 discriminator 3
 1536 018a 407A     		ldrb	r0, [r0, #9]
1730:.\BLEApplication.c ****                     Conn_Or_Disconn_Info.Connect_Idx[i],
 1537              		.loc 1 1730 0 discriminator 3
 1538 018c 0097     		str	r7, [sp]
 1539 018e 0196     		str	r6, [sp, #4]
 1540 0190 0295     		str	r5, [sp, #8]
 1541 0192 0390     		str	r0, [sp, #12]
 1542 0194 0D48     		ldr	r0, .L96+28
 1543 0196 FFF7FEFF 		bl	printf
 1544              	.LVL165:
1728:.\BLEApplication.c ****                 {
 1545              		.loc 1 1728 0 discriminator 3
 1546 019a 0134     		add	r4, r4, #1
 1547              	.LVL166:
 1548 019c E4B2     		uxtb	r4, r4
 1549              	.LVL167:
 1550 019e 00E0     		b	.L93
 1551              	.LVL168:
 1552              	.L95:
 1553 01a0 0024     		mov	r4, #0
 1554              	.LVL169:
 1555              	.L93:
1728:.\BLEApplication.c ****                 {
 1556              		.loc 1 1728 0 is_stmt 0 discriminator 1
ARM GAS  C:\Users\Helon\AppData\Local\Temp\cckZyeCc.s 			page 60


 1557 01a2 074B     		ldr	r3, .L96+16
 1558 01a4 1B7A     		ldrb	r3, [r3, #8]
 1559 01a6 A342     		cmp	r3, r4
 1560 01a8 E5D8     		bhi	.L94
 1561              	.LVL170:
 1562              	.L81:
1738:.\BLEApplication.c ****                   );
1739:.\BLEApplication.c ****                 }
1740:.\BLEApplication.c ****             }
1741:.\BLEApplication.c ****             
1742:.\BLEApplication.c ****         break;
1743:.\BLEApplication.c ****     }
1744:.\BLEApplication.c ****     }
1745:.\BLEApplication.c **** }
 1563              		.loc 1 1745 0 is_stmt 1
 1564 01aa 05B0     		add	sp, sp, #20
 1565              		@ sp needed
 1566 01ac F0BD     		pop	{r4, r5, r6, r7, pc}
 1567              	.L97:
 1568 01ae C046     		.align	2
 1569              	.L96:
 1570 01b0 00000000 		.word	.LANCHOR1
 1571 01b4 4C010000 		.word	.L84
 1572 01b8 00000000 		.word	DeviceInfo
 1573 01bc 68010000 		.word	.LC65
 1574 01c0 00000000 		.word	Conn_Or_Disconn_Info
 1575 01c4 00000000 		.word	.LANCHOR0
 1576 01c8 00000000 		.word	cyBle_state
 1577 01cc 80010000 		.word	.LC70
 1578              		.cfi_endproc
 1579              	.LFE49:
 1580              		.size	Connect_Device, .-Connect_Device
 1581              		.section	.text.UartBuadRate_Handler,"ax",%progbits
 1582              		.align	2
 1583              		.global	UartBuadRate_Handler
 1584              		.code	16
 1585              		.thumb_func
 1586              		.type	UartBuadRate_Handler, %function
 1587              	UartBuadRate_Handler:
 1588              	.LFB50:
1746:.\BLEApplication.c **** /******************************************************************************
1747:.\BLEApplication.c **** * Function Name: UartBuadRate_Handler
1748:.\BLEApplication.c **** ***************************************************************************//**
1749:.\BLEApplication.c **** * 
1750:.\BLEApplication.c **** *  ËÆæÂ§á‰∏≤Âè£Ê≥¢ÁâπÁéáÊàñËÄÖÊü•ËØ¢ÂΩìÂâçÁöÑ‰∏≤Âè£Ê≥¢ÁâπÁéá
1751:.\BLEApplication.c **** * \param  idx:ËÆæÁΩÆÁöÑÊ≥¢ÁâπÁéáÂÄºÊàñÊü•ËØ¢Ê≥¢ÁâπÁéáÁöÑÁä∂ÊÄÅ
1752:.\BLEApplication.c **** * \return none
1753:.\BLEApplication.c **** *  
1754:.\BLEApplication.c **** * 
1755:.\BLEApplication.c **** ******************************************************************************/
1756:.\BLEApplication.c **** void UartBuadRate_Handler(uint8_t idx)
1757:.\BLEApplication.c **** {
 1589              		.loc 1 1757 0
 1590              		.cfi_startproc
 1591              	.LVL171:
 1592 0000 10B5     		push	{r4, lr}
 1593              		.cfi_def_cfa_offset 8
ARM GAS  C:\Users\Helon\AppData\Local\Temp\cckZyeCc.s 			page 61


 1594              		.cfi_offset 4, -8
 1595              		.cfi_offset 14, -4
 1596 0002 041C     		mov	r4, r0
1758:.\BLEApplication.c ****     switch(idx)
 1597              		.loc 1 1758 0
 1598 0004 031C     		mov	r3, r0
 1599 0006 303B     		sub	r3, r3, #48
 1600 0008 DAB2     		uxtb	r2, r3
 1601 000a 312A     		cmp	r2, #49
 1602 000c 00D9     		bls	.LCB1425
 1603 000e D4E1     		b	.L98	@long jump
 1604              	.LCB1425:
 1605 0010 9300     		lsl	r3, r2, #2
 1606 0012 BA4A     		ldr	r2, .L169
 1607 0014 D358     		ldr	r3, [r2, r3]
 1608 0016 9F46     		mov	pc, r3
 1609              		.section	.rodata
 1610              		.align	2
 1611              	.L101:
 1612 0188 18000000 		.word	.L100
 1613 018c 42000000 		.word	.L102
 1614 0190 6C000000 		.word	.L103
 1615 0194 96000000 		.word	.L104
 1616 0198 C0000000 		.word	.L105
 1617 019c EA000000 		.word	.L106
 1618 01a0 14010000 		.word	.L107
 1619 01a4 3E010000 		.word	.L108
 1620 01a8 68010000 		.word	.L109
 1621 01ac 92010000 		.word	.L110
 1622 01b0 BA030000 		.word	.L98
 1623 01b4 BA030000 		.word	.L98
 1624 01b8 BA030000 		.word	.L98
 1625 01bc BA030000 		.word	.L98
 1626 01c0 BA030000 		.word	.L98
 1627 01c4 E6010000 		.word	.L111
 1628 01c8 BA030000 		.word	.L98
 1629 01cc BC010000 		.word	.L112
 1630 01d0 BA030000 		.word	.L98
 1631 01d4 BA030000 		.word	.L98
 1632 01d8 BA030000 		.word	.L98
 1633 01dc BA030000 		.word	.L98
 1634 01e0 BA030000 		.word	.L98
 1635 01e4 BA030000 		.word	.L98
 1636 01e8 BA030000 		.word	.L98
 1637 01ec BA030000 		.word	.L98
 1638 01f0 BA030000 		.word	.L98
 1639 01f4 BA030000 		.word	.L98
 1640 01f8 BA030000 		.word	.L98
 1641 01fc BA030000 		.word	.L98
 1642 0200 BA030000 		.word	.L98
 1643 0204 BA030000 		.word	.L98
 1644 0208 BA030000 		.word	.L98
 1645 020c BA030000 		.word	.L98
 1646 0210 BA030000 		.word	.L98
 1647 0214 BA030000 		.word	.L98
 1648 0218 BA030000 		.word	.L98
 1649 021c BA030000 		.word	.L98
ARM GAS  C:\Users\Helon\AppData\Local\Temp\cckZyeCc.s 			page 62


 1650 0220 BA030000 		.word	.L98
 1651 0224 BA030000 		.word	.L98
 1652 0228 BA030000 		.word	.L98
 1653 022c BA030000 		.word	.L98
 1654 0230 BA030000 		.word	.L98
 1655 0234 BA030000 		.word	.L98
 1656 0238 BA030000 		.word	.L98
 1657 023c BA030000 		.word	.L98
 1658 0240 BA030000 		.word	.L98
 1659 0244 BA030000 		.word	.L98
 1660 0248 BA030000 		.word	.L98
 1661 024c BC010000 		.word	.L112
 1662              		.section	.text.UartBuadRate_Handler
 1663              	.L100:
1759:.\BLEApplication.c ****     {
1760:.\BLEApplication.c **** //                1200
1761:.\BLEApplication.c ****         case '0':                     
1762:.\BLEApplication.c ****              printf("AT+BAUD=<1200>\r\n");
 1664              		.loc 1 1762 0
 1665 0018 B948     		ldr	r0, .L169+4
 1666              	.LVL172:
 1667 001a FFF7FEFF 		bl	puts
 1668              	.LVL173:
1763:.\BLEApplication.c ****              printf("OK\r\n");
 1669              		.loc 1 1763 0
 1670 001e B948     		ldr	r0, .L169+8
 1671 0020 FFF7FEFF 		bl	puts
 1672              	.LVL174:
 1673              	.L114:
1764:.\BLEApplication.c ****              while((UART_SpiUartGetTxBufferSize() + UART_GET_TX_FIFO_SR_VALID) != 0);//Á≠âÂæÖ‰∏≤Âè£
 1674              		.loc 1 1764 0 discriminator 5
 1675 0024 FFF7FEFF 		bl	UART_SpiUartGetTxBufferSize
 1676              	.LVL175:
 1677 0028 B74B     		ldr	r3, .L169+12
 1678 002a 1B68     		ldr	r3, [r3]
 1679 002c 8022     		mov	r2, #128
 1680 002e 1202     		lsl	r2, r2, #8
 1681 0030 1340     		and	r3, r2
 1682 0032 00D0     		beq	.L113
 1683              		.loc 1 1764 0 is_stmt 0
 1684 0034 0123     		mov	r3, #1
 1685              	.L113:
 1686              		.loc 1 1764 0 discriminator 4
 1687 0036 C318     		add	r3, r0, r3
 1688 0038 002B     		cmp	r3, #0
 1689 003a F3D1     		bne	.L114
1765:.\BLEApplication.c ****              SetUartConfiguration(BAUD_1200);
1766:.\BLEApplication.c ****              Baud_rate_idx=idx;
 1690              		.loc 1 1766 0 is_stmt 1
 1691 003c B34B     		ldr	r3, .L169+16
 1692 003e 1C71     		strb	r4, [r3, #4]
1767:.\BLEApplication.c ****         break;
 1693              		.loc 1 1767 0
 1694 0040 BBE1     		b	.L98
 1695              	.LVL176:
 1696              	.L102:
1768:.\BLEApplication.c **** //                2400
ARM GAS  C:\Users\Helon\AppData\Local\Temp\cckZyeCc.s 			page 63


1769:.\BLEApplication.c ****         case '1':
1770:.\BLEApplication.c ****              printf("AT+BAUD=<2400>\r\n");
 1697              		.loc 1 1770 0
 1698 0042 B348     		ldr	r0, .L169+20
 1699              	.LVL177:
 1700 0044 FFF7FEFF 		bl	puts
 1701              	.LVL178:
1771:.\BLEApplication.c ****              printf("OK\r\n");
 1702              		.loc 1 1771 0
 1703 0048 AE48     		ldr	r0, .L169+8
 1704 004a FFF7FEFF 		bl	puts
 1705              	.LVL179:
 1706              	.L116:
1772:.\BLEApplication.c ****              while((UART_SpiUartGetTxBufferSize() + UART_GET_TX_FIFO_SR_VALID) != 0);//Á≠âÂæÖ‰∏≤Âè£
 1707              		.loc 1 1772 0 discriminator 5
 1708 004e FFF7FEFF 		bl	UART_SpiUartGetTxBufferSize
 1709              	.LVL180:
 1710 0052 AD4B     		ldr	r3, .L169+12
 1711 0054 1B68     		ldr	r3, [r3]
 1712 0056 8022     		mov	r2, #128
 1713 0058 1202     		lsl	r2, r2, #8
 1714 005a 1340     		and	r3, r2
 1715 005c 00D0     		beq	.L115
 1716              		.loc 1 1772 0 is_stmt 0
 1717 005e 0123     		mov	r3, #1
 1718              	.L115:
 1719              		.loc 1 1772 0 discriminator 4
 1720 0060 C318     		add	r3, r0, r3
 1721 0062 002B     		cmp	r3, #0
 1722 0064 F3D1     		bne	.L116
1773:.\BLEApplication.c ****              SetUartConfiguration(BAUD_2400);
1774:.\BLEApplication.c ****              Baud_rate_idx=idx;
 1723              		.loc 1 1774 0 is_stmt 1
 1724 0066 A94B     		ldr	r3, .L169+16
 1725 0068 1C71     		strb	r4, [r3, #4]
1775:.\BLEApplication.c ****         break;
 1726              		.loc 1 1775 0
 1727 006a A6E1     		b	.L98
 1728              	.LVL181:
 1729              	.L103:
1776:.\BLEApplication.c **** //                4800
1777:.\BLEApplication.c ****         case '2':
1778:.\BLEApplication.c ****              printf("AT+BAUD=<4800>\r\n");
 1730              		.loc 1 1778 0
 1731 006c A948     		ldr	r0, .L169+24
 1732              	.LVL182:
 1733 006e FFF7FEFF 		bl	puts
 1734              	.LVL183:
1779:.\BLEApplication.c ****              printf("OK\r\n");
 1735              		.loc 1 1779 0
 1736 0072 A448     		ldr	r0, .L169+8
 1737 0074 FFF7FEFF 		bl	puts
 1738              	.LVL184:
 1739              	.L118:
1780:.\BLEApplication.c ****              while((UART_SpiUartGetTxBufferSize() + UART_GET_TX_FIFO_SR_VALID) != 0);//Á≠âÂæÖ‰∏≤Âè£
 1740              		.loc 1 1780 0 discriminator 5
 1741 0078 FFF7FEFF 		bl	UART_SpiUartGetTxBufferSize
ARM GAS  C:\Users\Helon\AppData\Local\Temp\cckZyeCc.s 			page 64


 1742              	.LVL185:
 1743 007c A24B     		ldr	r3, .L169+12
 1744 007e 1B68     		ldr	r3, [r3]
 1745 0080 8022     		mov	r2, #128
 1746 0082 1202     		lsl	r2, r2, #8
 1747 0084 1340     		and	r3, r2
 1748 0086 00D0     		beq	.L117
 1749              		.loc 1 1780 0 is_stmt 0
 1750 0088 0123     		mov	r3, #1
 1751              	.L117:
 1752              		.loc 1 1780 0 discriminator 4
 1753 008a C318     		add	r3, r0, r3
 1754 008c 002B     		cmp	r3, #0
 1755 008e F3D1     		bne	.L118
1781:.\BLEApplication.c ****              SetUartConfiguration(BAUD_4800);
1782:.\BLEApplication.c ****              Baud_rate_idx=idx;
 1756              		.loc 1 1782 0 is_stmt 1
 1757 0090 9E4B     		ldr	r3, .L169+16
 1758 0092 1C71     		strb	r4, [r3, #4]
1783:.\BLEApplication.c ****         break;
 1759              		.loc 1 1783 0
 1760 0094 91E1     		b	.L98
 1761              	.LVL186:
 1762              	.L104:
1784:.\BLEApplication.c **** //                9600
1785:.\BLEApplication.c ****         case '3':
1786:.\BLEApplication.c ****              printf("AT+BAUD=<9600>\r\n");
 1763              		.loc 1 1786 0
 1764 0096 A048     		ldr	r0, .L169+28
 1765              	.LVL187:
 1766 0098 FFF7FEFF 		bl	puts
 1767              	.LVL188:
1787:.\BLEApplication.c ****              printf("OK\r\n");
 1768              		.loc 1 1787 0
 1769 009c 9948     		ldr	r0, .L169+8
 1770 009e FFF7FEFF 		bl	puts
 1771              	.LVL189:
 1772              	.L120:
1788:.\BLEApplication.c ****              while((UART_SpiUartGetTxBufferSize() + UART_GET_TX_FIFO_SR_VALID) != 0);//Á≠âÂæÖ‰∏≤Âè£
 1773              		.loc 1 1788 0 discriminator 5
 1774 00a2 FFF7FEFF 		bl	UART_SpiUartGetTxBufferSize
 1775              	.LVL190:
 1776 00a6 984B     		ldr	r3, .L169+12
 1777 00a8 1B68     		ldr	r3, [r3]
 1778 00aa 8022     		mov	r2, #128
 1779 00ac 1202     		lsl	r2, r2, #8
 1780 00ae 1340     		and	r3, r2
 1781 00b0 00D0     		beq	.L119
 1782              		.loc 1 1788 0 is_stmt 0
 1783 00b2 0123     		mov	r3, #1
 1784              	.L119:
 1785              		.loc 1 1788 0 discriminator 4
 1786 00b4 C318     		add	r3, r0, r3
 1787 00b6 002B     		cmp	r3, #0
 1788 00b8 F3D1     		bne	.L120
1789:.\BLEApplication.c ****              SetUartConfiguration(BAUD_9600);
1790:.\BLEApplication.c ****              Baud_rate_idx=idx;
ARM GAS  C:\Users\Helon\AppData\Local\Temp\cckZyeCc.s 			page 65


 1789              		.loc 1 1790 0 is_stmt 1
 1790 00ba 944B     		ldr	r3, .L169+16
 1791 00bc 1C71     		strb	r4, [r3, #4]
1791:.\BLEApplication.c ****         break;
 1792              		.loc 1 1791 0
 1793 00be 7CE1     		b	.L98
 1794              	.LVL191:
 1795              	.L105:
1792:.\BLEApplication.c ****         case '4':
1793:.\BLEApplication.c ****              printf("AT+BAUD=<19200>\r\n");
 1796              		.loc 1 1793 0
 1797 00c0 9648     		ldr	r0, .L169+32
 1798              	.LVL192:
 1799 00c2 FFF7FEFF 		bl	puts
 1800              	.LVL193:
1794:.\BLEApplication.c ****              printf("OK\r\n");
 1801              		.loc 1 1794 0
 1802 00c6 8F48     		ldr	r0, .L169+8
 1803 00c8 FFF7FEFF 		bl	puts
 1804              	.LVL194:
 1805              	.L122:
1795:.\BLEApplication.c ****              while((UART_SpiUartGetTxBufferSize() + UART_GET_TX_FIFO_SR_VALID) != 0);//Á≠âÂæÖ‰∏≤Âè£
 1806              		.loc 1 1795 0 discriminator 5
 1807 00cc FFF7FEFF 		bl	UART_SpiUartGetTxBufferSize
 1808              	.LVL195:
 1809 00d0 8D4B     		ldr	r3, .L169+12
 1810 00d2 1B68     		ldr	r3, [r3]
 1811 00d4 8022     		mov	r2, #128
 1812 00d6 1202     		lsl	r2, r2, #8
 1813 00d8 1340     		and	r3, r2
 1814 00da 00D0     		beq	.L121
 1815              		.loc 1 1795 0 is_stmt 0
 1816 00dc 0123     		mov	r3, #1
 1817              	.L121:
 1818              		.loc 1 1795 0 discriminator 4
 1819 00de C318     		add	r3, r0, r3
 1820 00e0 002B     		cmp	r3, #0
 1821 00e2 F3D1     		bne	.L122
1796:.\BLEApplication.c ****              SetUartConfiguration(BAUD_19200);
1797:.\BLEApplication.c ****              Baud_rate_idx=idx;
 1822              		.loc 1 1797 0 is_stmt 1
 1823 00e4 894B     		ldr	r3, .L169+16
 1824 00e6 1C71     		strb	r4, [r3, #4]
1798:.\BLEApplication.c ****         break;
 1825              		.loc 1 1798 0
 1826 00e8 67E1     		b	.L98
 1827              	.LVL196:
 1828              	.L106:
1799:.\BLEApplication.c ****         case '5':
1800:.\BLEApplication.c ****              printf("AT+BAUD=<38400>\r\n");
 1829              		.loc 1 1800 0
 1830 00ea 8D48     		ldr	r0, .L169+36
 1831              	.LVL197:
 1832 00ec FFF7FEFF 		bl	puts
 1833              	.LVL198:
1801:.\BLEApplication.c ****              printf("OK\r\n");
 1834              		.loc 1 1801 0
ARM GAS  C:\Users\Helon\AppData\Local\Temp\cckZyeCc.s 			page 66


 1835 00f0 8448     		ldr	r0, .L169+8
 1836 00f2 FFF7FEFF 		bl	puts
 1837              	.LVL199:
 1838              	.L124:
1802:.\BLEApplication.c ****              while((UART_SpiUartGetTxBufferSize() + UART_GET_TX_FIFO_SR_VALID) != 0);//Á≠âÂæÖ‰∏≤Âè£
 1839              		.loc 1 1802 0 discriminator 5
 1840 00f6 FFF7FEFF 		bl	UART_SpiUartGetTxBufferSize
 1841              	.LVL200:
 1842 00fa 834B     		ldr	r3, .L169+12
 1843 00fc 1B68     		ldr	r3, [r3]
 1844 00fe 8022     		mov	r2, #128
 1845 0100 1202     		lsl	r2, r2, #8
 1846 0102 1340     		and	r3, r2
 1847 0104 00D0     		beq	.L123
 1848              		.loc 1 1802 0 is_stmt 0
 1849 0106 0123     		mov	r3, #1
 1850              	.L123:
 1851              		.loc 1 1802 0 discriminator 4
 1852 0108 C318     		add	r3, r0, r3
 1853 010a 002B     		cmp	r3, #0
 1854 010c F3D1     		bne	.L124
1803:.\BLEApplication.c ****              SetUartConfiguration(BAUD_38400);
1804:.\BLEApplication.c ****              Baud_rate_idx=idx;
 1855              		.loc 1 1804 0 is_stmt 1
 1856 010e 7F4B     		ldr	r3, .L169+16
 1857 0110 1C71     		strb	r4, [r3, #4]
1805:.\BLEApplication.c ****         break;
 1858              		.loc 1 1805 0
 1859 0112 52E1     		b	.L98
 1860              	.LVL201:
 1861              	.L107:
1806:.\BLEApplication.c **** //                57600
1807:.\BLEApplication.c ****         case '6':
1808:.\BLEApplication.c ****              printf("AT+BAUD=<57600>\r\n");
 1862              		.loc 1 1808 0
 1863 0114 8348     		ldr	r0, .L169+40
 1864              	.LVL202:
 1865 0116 FFF7FEFF 		bl	puts
 1866              	.LVL203:
1809:.\BLEApplication.c ****              printf("OK\r\n");
 1867              		.loc 1 1809 0
 1868 011a 7A48     		ldr	r0, .L169+8
 1869 011c FFF7FEFF 		bl	puts
 1870              	.LVL204:
 1871              	.L126:
1810:.\BLEApplication.c ****              while((UART_SpiUartGetTxBufferSize() + UART_GET_TX_FIFO_SR_VALID) != 0);//Á≠âÂæÖ‰∏≤Âè£
 1872              		.loc 1 1810 0 discriminator 5
 1873 0120 FFF7FEFF 		bl	UART_SpiUartGetTxBufferSize
 1874              	.LVL205:
 1875 0124 784B     		ldr	r3, .L169+12
 1876 0126 1B68     		ldr	r3, [r3]
 1877 0128 8022     		mov	r2, #128
 1878 012a 1202     		lsl	r2, r2, #8
 1879 012c 1340     		and	r3, r2
 1880 012e 00D0     		beq	.L125
 1881              		.loc 1 1810 0 is_stmt 0
 1882 0130 0123     		mov	r3, #1
ARM GAS  C:\Users\Helon\AppData\Local\Temp\cckZyeCc.s 			page 67


 1883              	.L125:
 1884              		.loc 1 1810 0 discriminator 4
 1885 0132 C318     		add	r3, r0, r3
 1886 0134 002B     		cmp	r3, #0
 1887 0136 F3D1     		bne	.L126
1811:.\BLEApplication.c ****              SetUartConfiguration(BAUD_57600);
1812:.\BLEApplication.c ****              Baud_rate_idx=idx;
 1888              		.loc 1 1812 0 is_stmt 1
 1889 0138 744B     		ldr	r3, .L169+16
 1890 013a 1C71     		strb	r4, [r3, #4]
1813:.\BLEApplication.c ****         break;
 1891              		.loc 1 1813 0
 1892 013c 3DE1     		b	.L98
 1893              	.LVL206:
 1894              	.L108:
1814:.\BLEApplication.c ****         case '7':
1815:.\BLEApplication.c ****              printf("AT+BAUD=<115200>\r\n");
 1895              		.loc 1 1815 0
 1896 013e 7A48     		ldr	r0, .L169+44
 1897              	.LVL207:
 1898 0140 FFF7FEFF 		bl	puts
 1899              	.LVL208:
1816:.\BLEApplication.c ****              printf("OK\r\n");
 1900              		.loc 1 1816 0
 1901 0144 6F48     		ldr	r0, .L169+8
 1902 0146 FFF7FEFF 		bl	puts
 1903              	.LVL209:
 1904              	.L128:
1817:.\BLEApplication.c ****              while((UART_SpiUartGetTxBufferSize() + UART_GET_TX_FIFO_SR_VALID) != 0);//Á≠âÂæÖ‰∏≤Âè£
 1905              		.loc 1 1817 0 discriminator 5
 1906 014a FFF7FEFF 		bl	UART_SpiUartGetTxBufferSize
 1907              	.LVL210:
 1908 014e 6E4B     		ldr	r3, .L169+12
 1909 0150 1B68     		ldr	r3, [r3]
 1910 0152 8022     		mov	r2, #128
 1911 0154 1202     		lsl	r2, r2, #8
 1912 0156 1340     		and	r3, r2
 1913 0158 00D0     		beq	.L127
 1914              		.loc 1 1817 0 is_stmt 0
 1915 015a 0123     		mov	r3, #1
 1916              	.L127:
 1917              		.loc 1 1817 0 discriminator 4
 1918 015c C318     		add	r3, r0, r3
 1919 015e 002B     		cmp	r3, #0
 1920 0160 F3D1     		bne	.L128
1818:.\BLEApplication.c ****              SetUartConfiguration(BAUD_115200);
1819:.\BLEApplication.c ****              Baud_rate_idx=idx;
 1921              		.loc 1 1819 0 is_stmt 1
 1922 0162 6A4B     		ldr	r3, .L169+16
 1923 0164 1C71     		strb	r4, [r3, #4]
1820:.\BLEApplication.c ****         break;
 1924              		.loc 1 1820 0
 1925 0166 28E1     		b	.L98
 1926              	.LVL211:
 1927              	.L109:
1821:.\BLEApplication.c ****         case '8':
1822:.\BLEApplication.c ****              printf("AT+BAUD=<230400>\r\n");
ARM GAS  C:\Users\Helon\AppData\Local\Temp\cckZyeCc.s 			page 68


 1928              		.loc 1 1822 0
 1929 0168 7048     		ldr	r0, .L169+48
 1930              	.LVL212:
 1931 016a FFF7FEFF 		bl	puts
 1932              	.LVL213:
1823:.\BLEApplication.c ****              printf("OK\r\n");
 1933              		.loc 1 1823 0
 1934 016e 6548     		ldr	r0, .L169+8
 1935 0170 FFF7FEFF 		bl	puts
 1936              	.LVL214:
 1937              	.L130:
1824:.\BLEApplication.c ****              while((UART_SpiUartGetTxBufferSize() + UART_GET_TX_FIFO_SR_VALID) != 0);//Á≠âÂæÖ‰∏≤Âè£
 1938              		.loc 1 1824 0 discriminator 5
 1939 0174 FFF7FEFF 		bl	UART_SpiUartGetTxBufferSize
 1940              	.LVL215:
 1941 0178 634B     		ldr	r3, .L169+12
 1942 017a 1B68     		ldr	r3, [r3]
 1943 017c 8022     		mov	r2, #128
 1944 017e 1202     		lsl	r2, r2, #8
 1945 0180 1340     		and	r3, r2
 1946 0182 00D0     		beq	.L129
 1947              		.loc 1 1824 0 is_stmt 0
 1948 0184 0123     		mov	r3, #1
 1949              	.L129:
 1950              		.loc 1 1824 0 discriminator 4
 1951 0186 C318     		add	r3, r0, r3
 1952 0188 002B     		cmp	r3, #0
 1953 018a F3D1     		bne	.L130
1825:.\BLEApplication.c ****              SetUartConfiguration(BAUD_230400);
1826:.\BLEApplication.c ****              Baud_rate_idx=idx;
 1954              		.loc 1 1826 0 is_stmt 1
 1955 018c 5F4B     		ldr	r3, .L169+16
 1956 018e 1C71     		strb	r4, [r3, #4]
1827:.\BLEApplication.c ****         break;
 1957              		.loc 1 1827 0
 1958 0190 13E1     		b	.L98
 1959              	.LVL216:
 1960              	.L110:
1828:.\BLEApplication.c ****         case '9':
1829:.\BLEApplication.c ****              printf("AT+BAUD=<460800>\r\n");
 1961              		.loc 1 1829 0
 1962 0192 6748     		ldr	r0, .L169+52
 1963              	.LVL217:
 1964 0194 FFF7FEFF 		bl	puts
 1965              	.LVL218:
1830:.\BLEApplication.c ****              printf("OK\r\n");
 1966              		.loc 1 1830 0
 1967 0198 5A48     		ldr	r0, .L169+8
 1968 019a FFF7FEFF 		bl	puts
 1969              	.LVL219:
 1970              	.L132:
1831:.\BLEApplication.c ****              while((UART_SpiUartGetTxBufferSize() + UART_GET_TX_FIFO_SR_VALID) != 0);//Á≠âÂæÖ‰∏≤Âè£
 1971              		.loc 1 1831 0 discriminator 5
 1972 019e FFF7FEFF 		bl	UART_SpiUartGetTxBufferSize
 1973              	.LVL220:
 1974 01a2 594B     		ldr	r3, .L169+12
 1975 01a4 1B68     		ldr	r3, [r3]
ARM GAS  C:\Users\Helon\AppData\Local\Temp\cckZyeCc.s 			page 69


 1976 01a6 8022     		mov	r2, #128
 1977 01a8 1202     		lsl	r2, r2, #8
 1978 01aa 1340     		and	r3, r2
 1979 01ac 00D0     		beq	.L131
 1980              		.loc 1 1831 0 is_stmt 0
 1981 01ae 0123     		mov	r3, #1
 1982              	.L131:
 1983              		.loc 1 1831 0 discriminator 4
 1984 01b0 C318     		add	r3, r0, r3
 1985 01b2 002B     		cmp	r3, #0
 1986 01b4 F3D1     		bne	.L132
1832:.\BLEApplication.c ****              SetUartConfiguration(BAUD_460800);
1833:.\BLEApplication.c ****              Baud_rate_idx=idx;
 1987              		.loc 1 1833 0 is_stmt 1
 1988 01b6 554B     		ldr	r3, .L169+16
 1989 01b8 1C71     		strb	r4, [r3, #4]
1834:.\BLEApplication.c ****         break;
 1990              		.loc 1 1834 0
 1991 01ba FEE0     		b	.L98
 1992              	.LVL221:
 1993              	.L112:
1835:.\BLEApplication.c ****         case 'a':
1836:.\BLEApplication.c ****         case 'A':
1837:.\BLEApplication.c ****              printf("AT+BAUD=<921600>\r\n");
 1994              		.loc 1 1837 0
 1995 01bc 5D48     		ldr	r0, .L169+56
 1996              	.LVL222:
 1997 01be FFF7FEFF 		bl	puts
 1998              	.LVL223:
1838:.\BLEApplication.c ****              printf("OK\r\n");
 1999              		.loc 1 1838 0
 2000 01c2 5048     		ldr	r0, .L169+8
 2001 01c4 FFF7FEFF 		bl	puts
 2002              	.LVL224:
 2003              	.L134:
1839:.\BLEApplication.c ****              while((UART_SpiUartGetTxBufferSize() + UART_GET_TX_FIFO_SR_VALID) != 0);//Á≠âÂæÖ‰∏≤Âè£
 2004              		.loc 1 1839 0 discriminator 5
 2005 01c8 FFF7FEFF 		bl	UART_SpiUartGetTxBufferSize
 2006              	.LVL225:
 2007 01cc 4E4B     		ldr	r3, .L169+12
 2008 01ce 1B68     		ldr	r3, [r3]
 2009 01d0 8022     		mov	r2, #128
 2010 01d2 1202     		lsl	r2, r2, #8
 2011 01d4 1340     		and	r3, r2
 2012 01d6 00D0     		beq	.L133
 2013              		.loc 1 1839 0 is_stmt 0
 2014 01d8 0123     		mov	r3, #1
 2015              	.L133:
 2016              		.loc 1 1839 0 discriminator 4
 2017 01da C318     		add	r3, r0, r3
 2018 01dc 002B     		cmp	r3, #0
 2019 01de F3D1     		bne	.L134
1840:.\BLEApplication.c ****              SetUartConfiguration(BAUD_921600);
1841:.\BLEApplication.c ****              Baud_rate_idx=idx;
 2020              		.loc 1 1841 0 is_stmt 1
 2021 01e0 4A4B     		ldr	r3, .L169+16
 2022 01e2 1C71     		strb	r4, [r3, #4]
ARM GAS  C:\Users\Helon\AppData\Local\Temp\cckZyeCc.s 			page 70


1842:.\BLEApplication.c ****         break;
 2023              		.loc 1 1842 0
 2024 01e4 E9E0     		b	.L98
 2025              	.LVL226:
 2026              	.L111:
1843:.\BLEApplication.c ****         case '?':
1844:.\BLEApplication.c ****             switch(Baud_rate_idx)
 2027              		.loc 1 1844 0
 2028 01e6 494B     		ldr	r3, .L169+16
 2029 01e8 1B79     		ldrb	r3, [r3, #4]
 2030 01ea 303B     		sub	r3, r3, #48
 2031 01ec DAB2     		uxtb	r2, r3
 2032 01ee 312A     		cmp	r2, #49
 2033 01f0 00D9     		bls	.LCB1783
 2034 01f2 E2E0     		b	.L98	@long jump
 2035              	.LCB1783:
 2036 01f4 9300     		lsl	r3, r2, #2
 2037 01f6 504A     		ldr	r2, .L169+60
 2038 01f8 D358     		ldr	r3, [r2, r3]
 2039 01fa 9F46     		mov	pc, r3
 2040              		.section	.rodata
 2041              		.align	2
 2042              	.L136:
 2043 0250 FC010000 		.word	.L135
 2044 0254 1C020000 		.word	.L137
 2045 0258 3C020000 		.word	.L138
 2046 025c 5C020000 		.word	.L139
 2047 0260 7C020000 		.word	.L140
 2048 0264 9C020000 		.word	.L141
 2049 0268 BC020000 		.word	.L142
 2050 026c DC020000 		.word	.L143
 2051 0270 5C030000 		.word	.L144
 2052 0274 7C030000 		.word	.L145
 2053 0278 BA030000 		.word	.L98
 2054 027c BA030000 		.word	.L98
 2055 0280 BA030000 		.word	.L98
 2056 0284 BA030000 		.word	.L98
 2057 0288 BA030000 		.word	.L98
 2058 028c BA030000 		.word	.L98
 2059 0290 BA030000 		.word	.L98
 2060 0294 9C030000 		.word	.L146
 2061 0298 BA030000 		.word	.L98
 2062 029c BA030000 		.word	.L98
 2063 02a0 BA030000 		.word	.L98
 2064 02a4 BA030000 		.word	.L98
 2065 02a8 BA030000 		.word	.L98
 2066 02ac BA030000 		.word	.L98
 2067 02b0 BA030000 		.word	.L98
 2068 02b4 BA030000 		.word	.L98
 2069 02b8 BA030000 		.word	.L98
 2070 02bc BA030000 		.word	.L98
 2071 02c0 BA030000 		.word	.L98
 2072 02c4 BA030000 		.word	.L98
 2073 02c8 BA030000 		.word	.L98
 2074 02cc BA030000 		.word	.L98
 2075 02d0 BA030000 		.word	.L98
 2076 02d4 BA030000 		.word	.L98
ARM GAS  C:\Users\Helon\AppData\Local\Temp\cckZyeCc.s 			page 71


 2077 02d8 BA030000 		.word	.L98
 2078 02dc BA030000 		.word	.L98
 2079 02e0 BA030000 		.word	.L98
 2080 02e4 BA030000 		.word	.L98
 2081 02e8 BA030000 		.word	.L98
 2082 02ec BA030000 		.word	.L98
 2083 02f0 BA030000 		.word	.L98
 2084 02f4 BA030000 		.word	.L98
 2085 02f8 BA030000 		.word	.L98
 2086 02fc BA030000 		.word	.L98
 2087 0300 BA030000 		.word	.L98
 2088 0304 BA030000 		.word	.L98
 2089 0308 BA030000 		.word	.L98
 2090 030c BA030000 		.word	.L98
 2091 0310 BA030000 		.word	.L98
 2092 0314 9C030000 		.word	.L146
 2093              		.section	.text.UartBuadRate_Handler
 2094              	.L135:
1845:.\BLEApplication.c ****             {
1846:.\BLEApplication.c **** //                1200
1847:.\BLEApplication.c ****                 case '0':                     
1848:.\BLEApplication.c ****                      printf("+BAUD:<1200>\r\n");
 2095              		.loc 1 1848 0
 2096 01fc 4F48     		ldr	r0, .L169+64
 2097              	.LVL227:
 2098 01fe FFF7FEFF 		bl	puts
 2099              	.LVL228:
 2100              	.L148:
1849:.\BLEApplication.c **** //                             printf("OK\r\n");
1850:.\BLEApplication.c ****                      while((UART_SpiUartGetTxBufferSize() + UART_GET_TX_FIFO_SR_VALID) != 0);//Á≠âÂ
 2101              		.loc 1 1850 0 discriminator 5
 2102 0202 FFF7FEFF 		bl	UART_SpiUartGetTxBufferSize
 2103              	.LVL229:
 2104 0206 404B     		ldr	r3, .L169+12
 2105 0208 1B68     		ldr	r3, [r3]
 2106 020a 8022     		mov	r2, #128
 2107 020c 1202     		lsl	r2, r2, #8
 2108 020e 1340     		and	r3, r2
 2109 0210 00D0     		beq	.L147
 2110              		.loc 1 1850 0 is_stmt 0
 2111 0212 0123     		mov	r3, #1
 2112              	.L147:
 2113              		.loc 1 1850 0 discriminator 4
 2114 0214 C318     		add	r3, r0, r3
 2115 0216 002B     		cmp	r3, #0
 2116 0218 F3D1     		bne	.L148
 2117 021a CEE0     		b	.L98
 2118              	.LVL230:
 2119              	.L137:
1851:.\BLEApplication.c **** //                             SetUartConfiguration(BAUD_1200);
1852:.\BLEApplication.c ****                 break;
1853:.\BLEApplication.c **** //                2400
1854:.\BLEApplication.c ****                 case '1':
1855:.\BLEApplication.c ****                      printf("+BAUD:<2400>\r\n");
 2120              		.loc 1 1855 0 is_stmt 1
 2121 021c 4848     		ldr	r0, .L169+68
 2122              	.LVL231:
ARM GAS  C:\Users\Helon\AppData\Local\Temp\cckZyeCc.s 			page 72


 2123 021e FFF7FEFF 		bl	puts
 2124              	.LVL232:
 2125              	.L150:
1856:.\BLEApplication.c **** //                             printf("OK\r\n");
1857:.\BLEApplication.c ****                      while((UART_SpiUartGetTxBufferSize() + UART_GET_TX_FIFO_SR_VALID) != 0);//Á≠âÂ
 2126              		.loc 1 1857 0 discriminator 5
 2127 0222 FFF7FEFF 		bl	UART_SpiUartGetTxBufferSize
 2128              	.LVL233:
 2129 0226 384B     		ldr	r3, .L169+12
 2130 0228 1B68     		ldr	r3, [r3]
 2131 022a 8022     		mov	r2, #128
 2132 022c 1202     		lsl	r2, r2, #8
 2133 022e 1340     		and	r3, r2
 2134 0230 00D0     		beq	.L149
 2135              		.loc 1 1857 0 is_stmt 0
 2136 0232 0123     		mov	r3, #1
 2137              	.L149:
 2138              		.loc 1 1857 0 discriminator 4
 2139 0234 C318     		add	r3, r0, r3
 2140 0236 002B     		cmp	r3, #0
 2141 0238 F3D1     		bne	.L150
 2142 023a BEE0     		b	.L98
 2143              	.LVL234:
 2144              	.L138:
1858:.\BLEApplication.c **** //                             SetUartConfiguration(BAUD_2400);
1859:.\BLEApplication.c ****                 break;
1860:.\BLEApplication.c **** //                4800
1861:.\BLEApplication.c ****                 case '2':
1862:.\BLEApplication.c ****                      printf("+BAUD:<4800>\r\n");
 2145              		.loc 1 1862 0 is_stmt 1
 2146 023c 4148     		ldr	r0, .L169+72
 2147              	.LVL235:
 2148 023e FFF7FEFF 		bl	puts
 2149              	.LVL236:
 2150              	.L152:
1863:.\BLEApplication.c **** //                             printf("OK\r\n");
1864:.\BLEApplication.c ****                      while((UART_SpiUartGetTxBufferSize() + UART_GET_TX_FIFO_SR_VALID) != 0);//Á≠âÂ
 2151              		.loc 1 1864 0 discriminator 5
 2152 0242 FFF7FEFF 		bl	UART_SpiUartGetTxBufferSize
 2153              	.LVL237:
 2154 0246 304B     		ldr	r3, .L169+12
 2155 0248 1B68     		ldr	r3, [r3]
 2156 024a 8022     		mov	r2, #128
 2157 024c 1202     		lsl	r2, r2, #8
 2158 024e 1340     		and	r3, r2
 2159 0250 00D0     		beq	.L151
 2160              		.loc 1 1864 0 is_stmt 0
 2161 0252 0123     		mov	r3, #1
 2162              	.L151:
 2163              		.loc 1 1864 0 discriminator 4
 2164 0254 C318     		add	r3, r0, r3
 2165 0256 002B     		cmp	r3, #0
 2166 0258 F3D1     		bne	.L152
 2167 025a AEE0     		b	.L98
 2168              	.LVL238:
 2169              	.L139:
1865:.\BLEApplication.c **** //                             SetUartConfiguration(BAUD_4800);
ARM GAS  C:\Users\Helon\AppData\Local\Temp\cckZyeCc.s 			page 73


1866:.\BLEApplication.c ****                 break;
1867:.\BLEApplication.c **** //                9600
1868:.\BLEApplication.c ****                 case '3':
1869:.\BLEApplication.c ****                      printf("+BAUD:<9600>\r\n");
 2170              		.loc 1 1869 0 is_stmt 1
 2171 025c 3A48     		ldr	r0, .L169+76
 2172              	.LVL239:
 2173 025e FFF7FEFF 		bl	puts
 2174              	.LVL240:
 2175              	.L154:
1870:.\BLEApplication.c **** //                             printf("OK\r\n");
1871:.\BLEApplication.c ****                      while((UART_SpiUartGetTxBufferSize() + UART_GET_TX_FIFO_SR_VALID) != 0);//Á≠âÂ
 2176              		.loc 1 1871 0 discriminator 5
 2177 0262 FFF7FEFF 		bl	UART_SpiUartGetTxBufferSize
 2178              	.LVL241:
 2179 0266 284B     		ldr	r3, .L169+12
 2180 0268 1B68     		ldr	r3, [r3]
 2181 026a 8022     		mov	r2, #128
 2182 026c 1202     		lsl	r2, r2, #8
 2183 026e 1340     		and	r3, r2
 2184 0270 00D0     		beq	.L153
 2185              		.loc 1 1871 0 is_stmt 0
 2186 0272 0123     		mov	r3, #1
 2187              	.L153:
 2188              		.loc 1 1871 0 discriminator 4
 2189 0274 C318     		add	r3, r0, r3
 2190 0276 002B     		cmp	r3, #0
 2191 0278 F3D1     		bne	.L154
 2192 027a 9EE0     		b	.L98
 2193              	.LVL242:
 2194              	.L140:
1872:.\BLEApplication.c **** //                             SetUartConfiguration(BAUD_9600);
1873:.\BLEApplication.c ****                 break;
1874:.\BLEApplication.c ****                 case '4':
1875:.\BLEApplication.c ****                      printf("+BAUD:<19200>\r\n");
 2195              		.loc 1 1875 0 is_stmt 1
 2196 027c 3348     		ldr	r0, .L169+80
 2197              	.LVL243:
 2198 027e FFF7FEFF 		bl	puts
 2199              	.LVL244:
 2200              	.L156:
1876:.\BLEApplication.c **** //                             printf("OK\r\n");
1877:.\BLEApplication.c ****                      while((UART_SpiUartGetTxBufferSize() + UART_GET_TX_FIFO_SR_VALID) != 0);//Á≠âÂ
 2201              		.loc 1 1877 0 discriminator 5
 2202 0282 FFF7FEFF 		bl	UART_SpiUartGetTxBufferSize
 2203              	.LVL245:
 2204 0286 204B     		ldr	r3, .L169+12
 2205 0288 1B68     		ldr	r3, [r3]
 2206 028a 8022     		mov	r2, #128
 2207 028c 1202     		lsl	r2, r2, #8
 2208 028e 1340     		and	r3, r2
 2209 0290 00D0     		beq	.L155
 2210              		.loc 1 1877 0 is_stmt 0
 2211 0292 0123     		mov	r3, #1
 2212              	.L155:
 2213              		.loc 1 1877 0 discriminator 4
 2214 0294 C318     		add	r3, r0, r3
ARM GAS  C:\Users\Helon\AppData\Local\Temp\cckZyeCc.s 			page 74


 2215 0296 002B     		cmp	r3, #0
 2216 0298 F3D1     		bne	.L156
 2217 029a 8EE0     		b	.L98
 2218              	.LVL246:
 2219              	.L141:
1878:.\BLEApplication.c **** //                             SetUartConfiguration(BAUD_19200);
1879:.\BLEApplication.c ****                 break;
1880:.\BLEApplication.c ****                 case '5':
1881:.\BLEApplication.c ****                      printf("+BAUD:<38400>\r\n");
 2220              		.loc 1 1881 0 is_stmt 1
 2221 029c 2C48     		ldr	r0, .L169+84
 2222              	.LVL247:
 2223 029e FFF7FEFF 		bl	puts
 2224              	.LVL248:
 2225              	.L158:
1882:.\BLEApplication.c **** //                             printf("OK\r\n");
1883:.\BLEApplication.c ****                      while((UART_SpiUartGetTxBufferSize() + UART_GET_TX_FIFO_SR_VALID) != 0);//Á≠âÂ
 2226              		.loc 1 1883 0 discriminator 5
 2227 02a2 FFF7FEFF 		bl	UART_SpiUartGetTxBufferSize
 2228              	.LVL249:
 2229 02a6 184B     		ldr	r3, .L169+12
 2230 02a8 1B68     		ldr	r3, [r3]
 2231 02aa 8022     		mov	r2, #128
 2232 02ac 1202     		lsl	r2, r2, #8
 2233 02ae 1340     		and	r3, r2
 2234 02b0 00D0     		beq	.L157
 2235              		.loc 1 1883 0 is_stmt 0
 2236 02b2 0123     		mov	r3, #1
 2237              	.L157:
 2238              		.loc 1 1883 0 discriminator 4
 2239 02b4 C318     		add	r3, r0, r3
 2240 02b6 002B     		cmp	r3, #0
 2241 02b8 F3D1     		bne	.L158
 2242 02ba 7EE0     		b	.L98
 2243              	.LVL250:
 2244              	.L142:
1884:.\BLEApplication.c **** //                             SetUartConfiguration(BAUD_38400);
1885:.\BLEApplication.c ****                 break;
1886:.\BLEApplication.c **** //                57600
1887:.\BLEApplication.c ****                 case '6':
1888:.\BLEApplication.c ****                      printf("+BAUD:<57600>\r\n");
 2245              		.loc 1 1888 0 is_stmt 1
 2246 02bc 2548     		ldr	r0, .L169+88
 2247              	.LVL251:
 2248 02be FFF7FEFF 		bl	puts
 2249              	.LVL252:
 2250              	.L160:
1889:.\BLEApplication.c **** //                             printf("OK\r\n");
1890:.\BLEApplication.c ****                      while((UART_SpiUartGetTxBufferSize() + UART_GET_TX_FIFO_SR_VALID) != 0);//Á≠âÂ
 2251              		.loc 1 1890 0 discriminator 5
 2252 02c2 FFF7FEFF 		bl	UART_SpiUartGetTxBufferSize
 2253              	.LVL253:
 2254 02c6 104B     		ldr	r3, .L169+12
 2255 02c8 1B68     		ldr	r3, [r3]
 2256 02ca 8022     		mov	r2, #128
 2257 02cc 1202     		lsl	r2, r2, #8
 2258 02ce 1340     		and	r3, r2
ARM GAS  C:\Users\Helon\AppData\Local\Temp\cckZyeCc.s 			page 75


 2259 02d0 00D0     		beq	.L159
 2260              		.loc 1 1890 0 is_stmt 0
 2261 02d2 0123     		mov	r3, #1
 2262              	.L159:
 2263              		.loc 1 1890 0 discriminator 4
 2264 02d4 C318     		add	r3, r0, r3
 2265 02d6 002B     		cmp	r3, #0
 2266 02d8 F3D1     		bne	.L160
 2267 02da 6EE0     		b	.L98
 2268              	.LVL254:
 2269              	.L143:
1891:.\BLEApplication.c **** //                             SetUartConfiguration(BAUD_57600);
1892:.\BLEApplication.c ****                 break;
1893:.\BLEApplication.c ****                 case '7':
1894:.\BLEApplication.c ****                      printf("+BAUD:<115200>\r\n");
 2270              		.loc 1 1894 0 is_stmt 1
 2271 02dc 1E48     		ldr	r0, .L169+92
 2272              	.LVL255:
 2273 02de FFF7FEFF 		bl	puts
 2274              	.LVL256:
 2275              	.L162:
1895:.\BLEApplication.c **** //                             printf("OK\r\n");
1896:.\BLEApplication.c ****                      while((UART_SpiUartGetTxBufferSize() + UART_GET_TX_FIFO_SR_VALID) != 0);//Á≠âÂ
 2276              		.loc 1 1896 0 discriminator 5
 2277 02e2 FFF7FEFF 		bl	UART_SpiUartGetTxBufferSize
 2278              	.LVL257:
 2279 02e6 084B     		ldr	r3, .L169+12
 2280 02e8 1B68     		ldr	r3, [r3]
 2281 02ea 8022     		mov	r2, #128
 2282 02ec 1202     		lsl	r2, r2, #8
 2283 02ee 1340     		and	r3, r2
 2284 02f0 00D0     		beq	.L161
 2285              		.loc 1 1896 0 is_stmt 0
 2286 02f2 0123     		mov	r3, #1
 2287              	.L161:
 2288              		.loc 1 1896 0 discriminator 4
 2289 02f4 C318     		add	r3, r0, r3
 2290 02f6 002B     		cmp	r3, #0
 2291 02f8 F3D1     		bne	.L162
 2292 02fa 5EE0     		b	.L98
 2293              	.L170:
 2294              		.align	2
 2295              	.L169:
 2296 02fc 88010000 		.word	.L101
 2297 0300 AC010000 		.word	.LC73
 2298 0304 BC010000 		.word	.LC75
 2299 0308 08022440 		.word	1076101640
 2300 030c 80000000 		.word	.LANCHOR2
 2301 0310 C0010000 		.word	.LC78
 2302 0314 D0010000 		.word	.LC80
 2303 0318 E0010000 		.word	.LC82
 2304 031c F0010000 		.word	.LC84
 2305 0320 04020000 		.word	.LC86
 2306 0324 18020000 		.word	.LC88
 2307 0328 2C020000 		.word	.LC90
 2308 032c 40020000 		.word	.LC92
 2309 0330 54020000 		.word	.LC94
ARM GAS  C:\Users\Helon\AppData\Local\Temp\cckZyeCc.s 			page 76


 2310 0334 68020000 		.word	.LC96
 2311 0338 50020000 		.word	.L136
 2312 033c 7C020000 		.word	.LC99
 2313 0340 8C020000 		.word	.LC101
 2314 0344 9C020000 		.word	.LC103
 2315 0348 AC020000 		.word	.LC105
 2316 034c BC020000 		.word	.LC107
 2317 0350 CC020000 		.word	.LC109
 2318 0354 DC020000 		.word	.LC111
 2319 0358 EC020000 		.word	.LC113
 2320              	.LVL258:
 2321              	.L144:
1897:.\BLEApplication.c **** //                             SetUartConfiguration(BAUD_115200);
1898:.\BLEApplication.c ****                 break;
1899:.\BLEApplication.c ****                 case '8':
1900:.\BLEApplication.c ****                      printf("+BAUD:<230400>\r\n");
 2322              		.loc 1 1900 0 is_stmt 1
 2323 035c 1748     		ldr	r0, .L171
 2324              	.LVL259:
 2325 035e FFF7FEFF 		bl	puts
 2326              	.LVL260:
 2327              	.L164:
1901:.\BLEApplication.c **** //                             printf("OK\r\n");
1902:.\BLEApplication.c ****                      while((UART_SpiUartGetTxBufferSize() + UART_GET_TX_FIFO_SR_VALID) != 0);//Á≠âÂ
 2328              		.loc 1 1902 0 discriminator 5
 2329 0362 FFF7FEFF 		bl	UART_SpiUartGetTxBufferSize
 2330              	.LVL261:
 2331 0366 164B     		ldr	r3, .L171+4
 2332 0368 1B68     		ldr	r3, [r3]
 2333 036a 8022     		mov	r2, #128
 2334 036c 1202     		lsl	r2, r2, #8
 2335 036e 1340     		and	r3, r2
 2336 0370 00D0     		beq	.L163
 2337              		.loc 1 1902 0 is_stmt 0
 2338 0372 0123     		mov	r3, #1
 2339              	.L163:
 2340              		.loc 1 1902 0 discriminator 4
 2341 0374 C318     		add	r3, r0, r3
 2342 0376 002B     		cmp	r3, #0
 2343 0378 F3D1     		bne	.L164
 2344 037a 1EE0     		b	.L98
 2345              	.LVL262:
 2346              	.L145:
1903:.\BLEApplication.c **** //                             SetUartConfiguration(BAUD_230400);
1904:.\BLEApplication.c ****                 break;
1905:.\BLEApplication.c ****                 case '9':
1906:.\BLEApplication.c ****                      printf("+BAUD:<460800>\r\n");
 2347              		.loc 1 1906 0 is_stmt 1
 2348 037c 1148     		ldr	r0, .L171+8
 2349              	.LVL263:
 2350 037e FFF7FEFF 		bl	puts
 2351              	.LVL264:
 2352              	.L166:
1907:.\BLEApplication.c **** //                             printf("OK\r\n");
1908:.\BLEApplication.c ****                      while((UART_SpiUartGetTxBufferSize() + UART_GET_TX_FIFO_SR_VALID) != 0);//Á≠âÂ
 2353              		.loc 1 1908 0 discriminator 5
 2354 0382 FFF7FEFF 		bl	UART_SpiUartGetTxBufferSize
ARM GAS  C:\Users\Helon\AppData\Local\Temp\cckZyeCc.s 			page 77


 2355              	.LVL265:
 2356 0386 0E4B     		ldr	r3, .L171+4
 2357 0388 1B68     		ldr	r3, [r3]
 2358 038a 8022     		mov	r2, #128
 2359 038c 1202     		lsl	r2, r2, #8
 2360 038e 1340     		and	r3, r2
 2361 0390 00D0     		beq	.L165
 2362              		.loc 1 1908 0 is_stmt 0
 2363 0392 0123     		mov	r3, #1
 2364              	.L165:
 2365              		.loc 1 1908 0 discriminator 4
 2366 0394 C318     		add	r3, r0, r3
 2367 0396 002B     		cmp	r3, #0
 2368 0398 F3D1     		bne	.L166
 2369 039a 0EE0     		b	.L98
 2370              	.LVL266:
 2371              	.L146:
1909:.\BLEApplication.c **** //                             SetUartConfiguration(BAUD_460800);
1910:.\BLEApplication.c ****                 break;
1911:.\BLEApplication.c ****                 case 'a':
1912:.\BLEApplication.c ****                 case 'A':
1913:.\BLEApplication.c ****                      printf("+BAUD:<921600>\r\n");
 2372              		.loc 1 1913 0 is_stmt 1
 2373 039c 0A48     		ldr	r0, .L171+12
 2374              	.LVL267:
 2375 039e FFF7FEFF 		bl	puts
 2376              	.LVL268:
 2377              	.L168:
1914:.\BLEApplication.c **** //                             printf("OK\r\n");
1915:.\BLEApplication.c ****                      while((UART_SpiUartGetTxBufferSize() + UART_GET_TX_FIFO_SR_VALID) != 0);//Á≠âÂ
 2378              		.loc 1 1915 0 discriminator 5
 2379 03a2 FFF7FEFF 		bl	UART_SpiUartGetTxBufferSize
 2380              	.LVL269:
 2381 03a6 064B     		ldr	r3, .L171+4
 2382 03a8 1B68     		ldr	r3, [r3]
 2383 03aa 8022     		mov	r2, #128
 2384 03ac 1202     		lsl	r2, r2, #8
 2385 03ae 1340     		and	r3, r2
 2386 03b0 00D0     		beq	.L167
 2387              		.loc 1 1915 0 is_stmt 0
 2388 03b2 0123     		mov	r3, #1
 2389              	.L167:
 2390              		.loc 1 1915 0 discriminator 4
 2391 03b4 C318     		add	r3, r0, r3
 2392 03b6 002B     		cmp	r3, #0
 2393 03b8 F3D1     		bne	.L168
 2394              	.L98:
1916:.\BLEApplication.c **** //                             SetUartConfiguration(BAUD_921600);
1917:.\BLEApplication.c ****                 break;
1918:.\BLEApplication.c ****                 default:
1919:.\BLEApplication.c ****                 break;
1920:.\BLEApplication.c ****              }
1921:.\BLEApplication.c ****         break;
1922:.\BLEApplication.c ****     }  
1923:.\BLEApplication.c **** }
 2395              		.loc 1 1923 0 is_stmt 1
 2396              		@ sp needed
ARM GAS  C:\Users\Helon\AppData\Local\Temp\cckZyeCc.s 			page 78


 2397 03ba 10BD     		pop	{r4, pc}
 2398              	.L172:
 2399              		.align	2
 2400              	.L171:
 2401 03bc FC020000 		.word	.LC115
 2402 03c0 08022440 		.word	1076101640
 2403 03c4 0C030000 		.word	.LC117
 2404 03c8 1C030000 		.word	.LC119
 2405              		.cfi_endproc
 2406              	.LFE50:
 2407              		.size	UartBuadRate_Handler, .-UartBuadRate_Handler
 2408              		.section	.text.TxPower_Handler,"ax",%progbits
 2409              		.align	2
 2410              		.global	TxPower_Handler
 2411              		.code	16
 2412              		.thumb_func
 2413              		.type	TxPower_Handler, %function
 2414              	TxPower_Handler:
 2415              	.LFB51:
1924:.\BLEApplication.c **** /******************************************************************************
1925:.\BLEApplication.c **** * Function Name: TxPower_Handler
1926:.\BLEApplication.c **** ***************************************************************************//**
1927:.\BLEApplication.c **** * 
1928:.\BLEApplication.c **** *  ËÆæÁΩÆÂèëÂ∞ÑÂäüÁéáÊàñËÄÖÊü•ËØ¢ÂΩìÂâçÁöÑÂèëÂ∞ÑÂäüÁéá
1929:.\BLEApplication.c **** * \param  idx:ËÆæÁΩÆÁöÑÂèëÂ∞ÑÂäüÁéáÂÄºÊàñÊü•ËØ¢ÂèëÂ∞ÑÂäüÁéáÁöÑÁä∂ÊÄÅ
1930:.\BLEApplication.c **** * \return none
1931:.\BLEApplication.c **** *  
1932:.\BLEApplication.c **** * 
1933:.\BLEApplication.c **** ******************************************************************************/
1934:.\BLEApplication.c **** void TxPower_Handler(uint8_t idx)
1935:.\BLEApplication.c **** {
 2416              		.loc 1 1935 0
 2417              		.cfi_startproc
 2418              	.LVL270:
 2419 0000 10B5     		push	{r4, lr}
 2420              		.cfi_def_cfa_offset 8
 2421              		.cfi_offset 4, -8
 2422              		.cfi_offset 14, -4
 2423 0002 82B0     		sub	sp, sp, #8
 2424              		.cfi_def_cfa_offset 16
 2425              	.LVL271:
1936:.\BLEApplication.c ****     CYBLE_BLESS_PWR_IN_DB_T bleSsPwrLvl;
1937:.\BLEApplication.c ****     CYBLE_API_RESULT_T API_RESULT=0;
1938:.\BLEApplication.c ****     if(CYBLE_STATE_ADVERTISING==CyBle_GetState())
 2426              		.loc 1 1938 0
 2427 0004 594B     		ldr	r3, .L198
 2428 0006 1B78     		ldrb	r3, [r3]
 2429 0008 032B     		cmp	r3, #3
 2430 000a 03D1     		bne	.L174
1939:.\BLEApplication.c ****     {
1940:.\BLEApplication.c ****         bleSsPwrLvl.bleSsChId=CYBLE_LL_ADV_CH_TYPE;
 2431              		.loc 1 1940 0
 2432 000c 0022     		mov	r2, #0
 2433 000e 01AB     		add	r3, sp, #4
 2434 0010 5A70     		strb	r2, [r3, #1]
 2435 0012 05E0     		b	.L175
 2436              	.L174:
ARM GAS  C:\Users\Helon\AppData\Local\Temp\cckZyeCc.s 			page 79


1941:.\BLEApplication.c ****     }
1942:.\BLEApplication.c ****     else if(CYBLE_STATE_CONNECTED==CyBle_GetState())
 2437              		.loc 1 1942 0
 2438 0014 022B     		cmp	r3, #2
 2439 0016 00D0     		beq	.LCB2145
 2440 0018 A6E0     		b	.L173	@long jump
 2441              	.LCB2145:
1943:.\BLEApplication.c ****     {
1944:.\BLEApplication.c ****         bleSsPwrLvl.bleSsChId=CYBLE_LL_CONN_CH_TYPE;
 2442              		.loc 1 1944 0
 2443 001a 0122     		mov	r2, #1
 2444 001c 01AB     		add	r3, sp, #4
 2445 001e 5A70     		strb	r2, [r3, #1]
 2446              	.L175:
1945:.\BLEApplication.c ****     }
1946:.\BLEApplication.c ****     else//Â¶Ç‰Ωï‰∏çÊòØÂπøÊí≠ÊàñËÄÖËøûÊé•Áä∂ÊÄÅÂàôÊó†Êïà
1947:.\BLEApplication.c ****     {
1948:.\BLEApplication.c ****         return;
1949:.\BLEApplication.c ****     }
1950:.\BLEApplication.c ****     switch(idx)
 2447              		.loc 1 1950 0
 2448 0020 3138     		sub	r0, r0, #49
 2449              	.LVL272:
 2450 0022 C3B2     		uxtb	r3, r0
 2451 0024 0E2B     		cmp	r3, #14
 2452 0026 00D9     		bls	.LCB2155
 2453 0028 9EE0     		b	.L173	@long jump
 2454              	.LCB2155:
 2455 002a 9800     		lsl	r0, r3, #2
 2456 002c 504B     		ldr	r3, .L198+4
 2457 002e 1B58     		ldr	r3, [r3, r0]
 2458 0030 9F46     		mov	pc, r3
 2459              		.section	.rodata
 2460              		.align	2
 2461              	.L179:
 2462 0318 8A000000 		.word	.L178
 2463 031c A6000000 		.word	.L180
 2464 0320 C2000000 		.word	.L181
 2465 0324 DE000000 		.word	.L182
 2466 0328 FA000000 		.word	.L183
 2467 032c 16010000 		.word	.L184
 2468 0330 32010000 		.word	.L185
 2469 0334 4E010000 		.word	.L186
 2470 0338 68010000 		.word	.L173
 2471 033c 68010000 		.word	.L173
 2472 0340 68010000 		.word	.L173
 2473 0344 68010000 		.word	.L173
 2474 0348 68010000 		.word	.L173
 2475 034c 68010000 		.word	.L173
 2476 0350 32000000 		.word	.L187
 2477              		.section	.text.TxPower_Handler
 2478              	.L187:
1951:.\BLEApplication.c ****     {
1952:.\BLEApplication.c ****         case '?':                        
1953:.\BLEApplication.c ****             CyBle_GetTxPowerLevel(&bleSsPwrLvl);
 2479              		.loc 1 1953 0
 2480 0032 01AC     		add	r4, sp, #4
ARM GAS  C:\Users\Helon\AppData\Local\Temp\cckZyeCc.s 			page 80


 2481 0034 201C     		mov	r0, r4
 2482 0036 FFF7FEFF 		bl	CyBle_GetTxPowerLevel
 2483              	.LVL273:
1954:.\BLEApplication.c ****             idx=bleSsPwrLvl.blePwrLevelInDbm;
 2484              		.loc 1 1954 0
 2485 003a 2378     		ldrb	r3, [r4]
 2486              	.LVL274:
1955:.\BLEApplication.c ****             switch(idx)
 2487              		.loc 1 1955 0
 2488 003c 082B     		cmp	r3, #8
 2489 003e 00D9     		bls	.LCB2174
 2490 0040 92E0     		b	.L173	@long jump
 2491              	.LCB2174:
 2492 0042 9B00     		lsl	r3, r3, #2
 2493              	.LVL275:
 2494 0044 4B4A     		ldr	r2, .L198+8
 2495 0046 D358     		ldr	r3, [r2, r3]
 2496 0048 9F46     		mov	pc, r3
 2497              		.section	.rodata
 2498              		.align	2
 2499              	.L189:
 2500 0354 68010000 		.word	.L173
 2501 0358 4A000000 		.word	.L188
 2502 035c 52000000 		.word	.L190
 2503 0360 5A000000 		.word	.L191
 2504 0364 62000000 		.word	.L192
 2505 0368 6A000000 		.word	.L193
 2506 036c 72000000 		.word	.L194
 2507 0370 7A000000 		.word	.L195
 2508 0374 82000000 		.word	.L196
 2509              		.section	.text.TxPower_Handler
 2510              	.L188:
1956:.\BLEApplication.c ****             {
1957:.\BLEApplication.c ****                 case 1:
1958:.\BLEApplication.c ****                     printf("+TXP:<-18dBm>\r\n");
 2511              		.loc 1 1958 0
 2512 004a 4B48     		ldr	r0, .L198+12
 2513 004c FFF7FEFF 		bl	puts
 2514              	.LVL276:
1959:.\BLEApplication.c ****                 break;
 2515              		.loc 1 1959 0
 2516 0050 8AE0     		b	.L173
 2517              	.LVL277:
 2518              	.L190:
1960:.\BLEApplication.c ****                 case 2:
1961:.\BLEApplication.c ****                     printf("+TXP:<-12dBm>\r\n");
 2519              		.loc 1 1961 0
 2520 0052 4A48     		ldr	r0, .L198+16
 2521 0054 FFF7FEFF 		bl	puts
 2522              	.LVL278:
1962:.\BLEApplication.c ****                 break;
 2523              		.loc 1 1962 0
 2524 0058 86E0     		b	.L173
 2525              	.LVL279:
 2526              	.L191:
1963:.\BLEApplication.c ****                 case 3:
1964:.\BLEApplication.c ****                     printf("+TXP:<-6dBm>\r\n");
ARM GAS  C:\Users\Helon\AppData\Local\Temp\cckZyeCc.s 			page 81


 2527              		.loc 1 1964 0
 2528 005a 4948     		ldr	r0, .L198+20
 2529 005c FFF7FEFF 		bl	puts
 2530              	.LVL280:
1965:.\BLEApplication.c ****                 break;
 2531              		.loc 1 1965 0
 2532 0060 82E0     		b	.L173
 2533              	.LVL281:
 2534              	.L192:
1966:.\BLEApplication.c ****                 case 4:
1967:.\BLEApplication.c ****                     printf("+TXP:<-3dBm>\r\n");
 2535              		.loc 1 1967 0
 2536 0062 4848     		ldr	r0, .L198+24
 2537 0064 FFF7FEFF 		bl	puts
 2538              	.LVL282:
1968:.\BLEApplication.c ****                 break;
 2539              		.loc 1 1968 0
 2540 0068 7EE0     		b	.L173
 2541              	.LVL283:
 2542              	.L193:
1969:.\BLEApplication.c ****                 case 5:
1970:.\BLEApplication.c ****                     printf("+TXP:<-2dBm>\r\n");
 2543              		.loc 1 1970 0
 2544 006a 4748     		ldr	r0, .L198+28
 2545 006c FFF7FEFF 		bl	puts
 2546              	.LVL284:
1971:.\BLEApplication.c ****                 break;
 2547              		.loc 1 1971 0
 2548 0070 7AE0     		b	.L173
 2549              	.LVL285:
 2550              	.L194:
1972:.\BLEApplication.c ****                 case 6:
1973:.\BLEApplication.c ****                     printf("+TXP:<-1dBm>\r\n");
 2551              		.loc 1 1973 0
 2552 0072 4648     		ldr	r0, .L198+32
 2553 0074 FFF7FEFF 		bl	puts
 2554              	.LVL286:
1974:.\BLEApplication.c ****                 break;
 2555              		.loc 1 1974 0
 2556 0078 76E0     		b	.L173
 2557              	.LVL287:
 2558              	.L195:
1975:.\BLEApplication.c ****                 case 7:
1976:.\BLEApplication.c ****                     printf("+TXP:<0dBm>\r\n");
 2559              		.loc 1 1976 0
 2560 007a 4548     		ldr	r0, .L198+36
 2561 007c FFF7FEFF 		bl	puts
 2562              	.LVL288:
1977:.\BLEApplication.c ****                 break;
 2563              		.loc 1 1977 0
 2564 0080 72E0     		b	.L173
 2565              	.LVL289:
 2566              	.L196:
1978:.\BLEApplication.c ****                 case 8:
1979:.\BLEApplication.c ****                     printf("+TXP:<3dBm>\r\n");
 2567              		.loc 1 1979 0
 2568 0082 4448     		ldr	r0, .L198+40
ARM GAS  C:\Users\Helon\AppData\Local\Temp\cckZyeCc.s 			page 82


 2569 0084 FFF7FEFF 		bl	puts
 2570              	.LVL290:
1980:.\BLEApplication.c ****                 break;
 2571              		.loc 1 1980 0
 2572 0088 6EE0     		b	.L173
 2573              	.LVL291:
 2574              	.L178:
1981:.\BLEApplication.c ****             }
1982:.\BLEApplication.c ****             
1983:.\BLEApplication.c ****         break;
1984:.\BLEApplication.c ****         case '1':
1985:.\BLEApplication.c ****             bleSsPwrLvl.blePwrLevelInDbm=CYBLE_LL_PWR_LVL_NEG_18_DBM;
 2575              		.loc 1 1985 0
 2576 008a 01A8     		add	r0, sp, #4
 2577 008c 0123     		mov	r3, #1
 2578 008e 0370     		strb	r3, [r0]
1986:.\BLEApplication.c ****             API_RESULT=CyBle_SetTxPowerLevel(&bleSsPwrLvl);
 2579              		.loc 1 1986 0
 2580 0090 FFF7FEFF 		bl	CyBle_SetTxPowerLevel
 2581              	.LVL292:
1987:.\BLEApplication.c ****             if(CYBLE_ERROR_OK==API_RESULT)
 2582              		.loc 1 1987 0
 2583 0094 0028     		cmp	r0, #0
 2584 0096 67D1     		bne	.L173
1988:.\BLEApplication.c ****             {                
1989:.\BLEApplication.c ****                 printf("AT+TXP=<-18dBm>\r\n");
 2585              		.loc 1 1989 0
 2586 0098 3F48     		ldr	r0, .L198+44
 2587              	.LVL293:
 2588 009a FFF7FEFF 		bl	puts
 2589              	.LVL294:
1990:.\BLEApplication.c ****                 printf("OK\r\n");
 2590              		.loc 1 1990 0
 2591 009e 3F48     		ldr	r0, .L198+48
 2592 00a0 FFF7FEFF 		bl	puts
 2593              	.LVL295:
 2594 00a4 60E0     		b	.L173
 2595              	.LVL296:
 2596              	.L180:
1991:.\BLEApplication.c ****             }            
1992:.\BLEApplication.c ****         break;
1993:.\BLEApplication.c ****         case '2':
1994:.\BLEApplication.c ****             bleSsPwrLvl.blePwrLevelInDbm=CYBLE_LL_PWR_LVL_NEG_12_DBM;
 2597              		.loc 1 1994 0
 2598 00a6 01A8     		add	r0, sp, #4
 2599 00a8 0223     		mov	r3, #2
 2600 00aa 0370     		strb	r3, [r0]
1995:.\BLEApplication.c ****             API_RESULT=CyBle_SetTxPowerLevel(&bleSsPwrLvl);
 2601              		.loc 1 1995 0
 2602 00ac FFF7FEFF 		bl	CyBle_SetTxPowerLevel
 2603              	.LVL297:
1996:.\BLEApplication.c ****             if(CYBLE_ERROR_OK==API_RESULT)
 2604              		.loc 1 1996 0
 2605 00b0 0028     		cmp	r0, #0
 2606 00b2 59D1     		bne	.L173
1997:.\BLEApplication.c ****             {                
1998:.\BLEApplication.c ****                 printf("AT+TXP=<-12dBm>\r\n");
ARM GAS  C:\Users\Helon\AppData\Local\Temp\cckZyeCc.s 			page 83


 2607              		.loc 1 1998 0
 2608 00b4 3A48     		ldr	r0, .L198+52
 2609              	.LVL298:
 2610 00b6 FFF7FEFF 		bl	puts
 2611              	.LVL299:
1999:.\BLEApplication.c ****                 printf("OK\r\n");
 2612              		.loc 1 1999 0
 2613 00ba 3848     		ldr	r0, .L198+48
 2614 00bc FFF7FEFF 		bl	puts
 2615              	.LVL300:
 2616 00c0 52E0     		b	.L173
 2617              	.LVL301:
 2618              	.L181:
2000:.\BLEApplication.c ****             }            
2001:.\BLEApplication.c ****         break;
2002:.\BLEApplication.c ****         case '3':
2003:.\BLEApplication.c ****             bleSsPwrLvl.blePwrLevelInDbm=CYBLE_LL_PWR_LVL_NEG_6_DBM;
 2619              		.loc 1 2003 0
 2620 00c2 01A8     		add	r0, sp, #4
 2621 00c4 0323     		mov	r3, #3
 2622 00c6 0370     		strb	r3, [r0]
2004:.\BLEApplication.c ****             API_RESULT=CyBle_SetTxPowerLevel(&bleSsPwrLvl);
 2623              		.loc 1 2004 0
 2624 00c8 FFF7FEFF 		bl	CyBle_SetTxPowerLevel
 2625              	.LVL302:
2005:.\BLEApplication.c ****             if(CYBLE_ERROR_OK==API_RESULT)
 2626              		.loc 1 2005 0
 2627 00cc 0028     		cmp	r0, #0
 2628 00ce 4BD1     		bne	.L173
2006:.\BLEApplication.c ****             {                
2007:.\BLEApplication.c ****                 printf("AT+TXP=<-6dBm>\r\n");
 2629              		.loc 1 2007 0
 2630 00d0 3448     		ldr	r0, .L198+56
 2631              	.LVL303:
 2632 00d2 FFF7FEFF 		bl	puts
 2633              	.LVL304:
2008:.\BLEApplication.c ****                 printf("OK\r\n");
 2634              		.loc 1 2008 0
 2635 00d6 3148     		ldr	r0, .L198+48
 2636 00d8 FFF7FEFF 		bl	puts
 2637              	.LVL305:
 2638 00dc 44E0     		b	.L173
 2639              	.LVL306:
 2640              	.L182:
2009:.\BLEApplication.c ****             }            
2010:.\BLEApplication.c ****         break;
2011:.\BLEApplication.c ****         case '4':
2012:.\BLEApplication.c ****             bleSsPwrLvl.blePwrLevelInDbm=CYBLE_LL_PWR_LVL_NEG_3_DBM;
 2641              		.loc 1 2012 0
 2642 00de 01A8     		add	r0, sp, #4
 2643 00e0 0423     		mov	r3, #4
 2644 00e2 0370     		strb	r3, [r0]
2013:.\BLEApplication.c ****             API_RESULT=CyBle_SetTxPowerLevel(&bleSsPwrLvl);
 2645              		.loc 1 2013 0
 2646 00e4 FFF7FEFF 		bl	CyBle_SetTxPowerLevel
 2647              	.LVL307:
2014:.\BLEApplication.c ****             if(CYBLE_ERROR_OK==API_RESULT)
ARM GAS  C:\Users\Helon\AppData\Local\Temp\cckZyeCc.s 			page 84


 2648              		.loc 1 2014 0
 2649 00e8 0028     		cmp	r0, #0
 2650 00ea 3DD1     		bne	.L173
2015:.\BLEApplication.c ****             {                
2016:.\BLEApplication.c ****                 printf("AT+TXP=<-3dBm>\r\n");
 2651              		.loc 1 2016 0
 2652 00ec 2E48     		ldr	r0, .L198+60
 2653              	.LVL308:
 2654 00ee FFF7FEFF 		bl	puts
 2655              	.LVL309:
2017:.\BLEApplication.c ****                 printf("OK\r\n");
 2656              		.loc 1 2017 0
 2657 00f2 2A48     		ldr	r0, .L198+48
 2658 00f4 FFF7FEFF 		bl	puts
 2659              	.LVL310:
 2660 00f8 36E0     		b	.L173
 2661              	.LVL311:
 2662              	.L183:
2018:.\BLEApplication.c ****             }            
2019:.\BLEApplication.c ****         break;
2020:.\BLEApplication.c ****         case '5':
2021:.\BLEApplication.c ****             bleSsPwrLvl.blePwrLevelInDbm=CYBLE_LL_PWR_LVL_NEG_2_DBM;
 2663              		.loc 1 2021 0
 2664 00fa 01A8     		add	r0, sp, #4
 2665 00fc 0523     		mov	r3, #5
 2666 00fe 0370     		strb	r3, [r0]
2022:.\BLEApplication.c ****             API_RESULT=CyBle_SetTxPowerLevel(&bleSsPwrLvl);
 2667              		.loc 1 2022 0
 2668 0100 FFF7FEFF 		bl	CyBle_SetTxPowerLevel
 2669              	.LVL312:
2023:.\BLEApplication.c ****             if(CYBLE_ERROR_OK==API_RESULT)
 2670              		.loc 1 2023 0
 2671 0104 0028     		cmp	r0, #0
 2672 0106 2FD1     		bne	.L173
2024:.\BLEApplication.c ****             {                
2025:.\BLEApplication.c ****                 printf("AT+TXP=<-2dBm>\r\n");
 2673              		.loc 1 2025 0
 2674 0108 2848     		ldr	r0, .L198+64
 2675              	.LVL313:
 2676 010a FFF7FEFF 		bl	puts
 2677              	.LVL314:
2026:.\BLEApplication.c ****                 printf("OK\r\n");
 2678              		.loc 1 2026 0
 2679 010e 2348     		ldr	r0, .L198+48
 2680 0110 FFF7FEFF 		bl	puts
 2681              	.LVL315:
 2682 0114 28E0     		b	.L173
 2683              	.LVL316:
 2684              	.L184:
2027:.\BLEApplication.c ****             }           
2028:.\BLEApplication.c ****         break;
2029:.\BLEApplication.c ****         case '6':
2030:.\BLEApplication.c ****             bleSsPwrLvl.blePwrLevelInDbm=CYBLE_LL_PWR_LVL_NEG_1_DBM;
 2685              		.loc 1 2030 0
 2686 0116 01A8     		add	r0, sp, #4
 2687 0118 0623     		mov	r3, #6
 2688 011a 0370     		strb	r3, [r0]
ARM GAS  C:\Users\Helon\AppData\Local\Temp\cckZyeCc.s 			page 85


2031:.\BLEApplication.c ****             API_RESULT=CyBle_SetTxPowerLevel(&bleSsPwrLvl);
 2689              		.loc 1 2031 0
 2690 011c FFF7FEFF 		bl	CyBle_SetTxPowerLevel
 2691              	.LVL317:
2032:.\BLEApplication.c ****             if(CYBLE_ERROR_OK==API_RESULT)
 2692              		.loc 1 2032 0
 2693 0120 0028     		cmp	r0, #0
 2694 0122 21D1     		bne	.L173
2033:.\BLEApplication.c ****             {                
2034:.\BLEApplication.c ****                 printf("AT+TXP=<-1dBm>\r\n");
 2695              		.loc 1 2034 0
 2696 0124 2248     		ldr	r0, .L198+68
 2697              	.LVL318:
 2698 0126 FFF7FEFF 		bl	puts
 2699              	.LVL319:
2035:.\BLEApplication.c ****                 printf("OK\r\n");
 2700              		.loc 1 2035 0
 2701 012a 1C48     		ldr	r0, .L198+48
 2702 012c FFF7FEFF 		bl	puts
 2703              	.LVL320:
 2704 0130 1AE0     		b	.L173
 2705              	.LVL321:
 2706              	.L185:
2036:.\BLEApplication.c ****             }            
2037:.\BLEApplication.c ****         break;
2038:.\BLEApplication.c ****         case '7':
2039:.\BLEApplication.c ****             bleSsPwrLvl.blePwrLevelInDbm=CYBLE_LL_PWR_LVL_0_DBM;
 2707              		.loc 1 2039 0
 2708 0132 01A8     		add	r0, sp, #4
 2709 0134 0723     		mov	r3, #7
 2710 0136 0370     		strb	r3, [r0]
2040:.\BLEApplication.c ****             API_RESULT=CyBle_SetTxPowerLevel(&bleSsPwrLvl);
 2711              		.loc 1 2040 0
 2712 0138 FFF7FEFF 		bl	CyBle_SetTxPowerLevel
 2713              	.LVL322:
2041:.\BLEApplication.c ****             if(CYBLE_ERROR_OK==API_RESULT)
 2714              		.loc 1 2041 0
 2715 013c 0028     		cmp	r0, #0
 2716 013e 13D1     		bne	.L173
2042:.\BLEApplication.c ****             {                
2043:.\BLEApplication.c ****                 printf("AT+TXP=<0dBm>\r\n");
 2717              		.loc 1 2043 0
 2718 0140 1C48     		ldr	r0, .L198+72
 2719              	.LVL323:
 2720 0142 FFF7FEFF 		bl	puts
 2721              	.LVL324:
2044:.\BLEApplication.c ****                 printf("OK\r\n");
 2722              		.loc 1 2044 0
 2723 0146 1548     		ldr	r0, .L198+48
 2724 0148 FFF7FEFF 		bl	puts
 2725              	.LVL325:
 2726 014c 0CE0     		b	.L173
 2727              	.LVL326:
 2728              	.L186:
2045:.\BLEApplication.c ****             }      
2046:.\BLEApplication.c ****         break;
2047:.\BLEApplication.c ****         case '8':
ARM GAS  C:\Users\Helon\AppData\Local\Temp\cckZyeCc.s 			page 86


2048:.\BLEApplication.c ****             bleSsPwrLvl.blePwrLevelInDbm=CYBLE_LL_PWR_LVL_3_DBM;
 2729              		.loc 1 2048 0
 2730 014e 01A8     		add	r0, sp, #4
 2731 0150 0823     		mov	r3, #8
 2732 0152 0370     		strb	r3, [r0]
2049:.\BLEApplication.c ****             API_RESULT=CyBle_SetTxPowerLevel(&bleSsPwrLvl);
 2733              		.loc 1 2049 0
 2734 0154 FFF7FEFF 		bl	CyBle_SetTxPowerLevel
 2735              	.LVL327:
2050:.\BLEApplication.c ****             if(CYBLE_ERROR_OK==API_RESULT)
 2736              		.loc 1 2050 0
 2737 0158 0028     		cmp	r0, #0
 2738 015a 05D1     		bne	.L173
2051:.\BLEApplication.c ****             {                
2052:.\BLEApplication.c ****                 printf("AT+TXP=<3dBm>\r\n");
 2739              		.loc 1 2052 0
 2740 015c 1648     		ldr	r0, .L198+76
 2741              	.LVL328:
 2742 015e FFF7FEFF 		bl	puts
 2743              	.LVL329:
2053:.\BLEApplication.c ****                 printf("OK\r\n");
 2744              		.loc 1 2053 0
 2745 0162 0E48     		ldr	r0, .L198+48
 2746 0164 FFF7FEFF 		bl	puts
 2747              	.LVL330:
 2748              	.L173:
2054:.\BLEApplication.c ****             }           
2055:.\BLEApplication.c ****         break;
2056:.\BLEApplication.c ****     }    
2057:.\BLEApplication.c **** }
 2749              		.loc 1 2057 0
 2750 0168 02B0     		add	sp, sp, #8
 2751              		@ sp needed
 2752 016a 10BD     		pop	{r4, pc}
 2753              	.L199:
 2754              		.align	2
 2755              	.L198:
 2756 016c 00000000 		.word	cyBle_state
 2757 0170 18030000 		.word	.L179
 2758 0174 54030000 		.word	.L189
 2759 0178 2C030000 		.word	.LC124
 2760 017c 3C030000 		.word	.LC126
 2761 0180 4C030000 		.word	.LC128
 2762 0184 5C030000 		.word	.LC130
 2763 0188 6C030000 		.word	.LC132
 2764 018c 7C030000 		.word	.LC134
 2765 0190 8C030000 		.word	.LC136
 2766 0194 9C030000 		.word	.LC138
 2767 0198 AC030000 		.word	.LC140
 2768 019c BC010000 		.word	.LC75
 2769 01a0 C0030000 		.word	.LC143
 2770 01a4 D4030000 		.word	.LC145
 2771 01a8 E4030000 		.word	.LC147
 2772 01ac F4030000 		.word	.LC149
 2773 01b0 04040000 		.word	.LC151
 2774 01b4 14040000 		.word	.LC153
 2775 01b8 24040000 		.word	.LC155
ARM GAS  C:\Users\Helon\AppData\Local\Temp\cckZyeCc.s 			page 87


 2776              		.cfi_endproc
 2777              	.LFE51:
 2778              		.size	TxPower_Handler, .-TxPower_Handler
 2779              		.section	.text.StrToHex,"ax",%progbits
 2780              		.align	2
 2781              		.global	StrToHex
 2782              		.code	16
 2783              		.thumb_func
 2784              		.type	StrToHex, %function
 2785              	StrToHex:
 2786              	.LFB52:
2058:.\BLEApplication.c **** /******************************************************************************
2059:.\BLEApplication.c **** * Function Name: StrToHex
2060:.\BLEApplication.c **** ***************************************************************************//**
2061:.\BLEApplication.c **** * 
2062:.\BLEApplication.c **** *  Â≠óÁ¨¶‰∏≤ËΩ¨ÂçÅÂÖ≠ËøõÂà∂
2063:.\BLEApplication.c **** * \param  pbDest:ËæìÂá∫ÁºìÂÜ≤Âå∫
2064:.\BLEApplication.c **** * \param  pbSrc :ËæìÂÖ•ÁöÑÂ≠óÁ¨¶‰∏≤
2065:.\BLEApplication.c **** * \param  nLen :ËæìÂÖ•ÁöÑÂ≠óÁ¨¶‰∏≤16ËøõÂà∂Êï∞ÁöÑÂ≠óËäÇÊï∞(Â≠óÁ¨¶‰∏≤ÁöÑÈïøÂ∫¶/2)
2066:.\BLEApplication.c **** * \return none
2067:.\BLEApplication.c **** *  
2068:.\BLEApplication.c **** * 
2069:.\BLEApplication.c **** ******************************************************************************/
2070:.\BLEApplication.c **** void StrToHex(char *pbDest, char *pbSrc, int nLen)
2071:.\BLEApplication.c **** {
 2787              		.loc 1 2071 0
 2788              		.cfi_startproc
 2789              	.LVL331:
 2790 0000 F0B5     		push	{r4, r5, r6, r7, lr}
 2791              		.cfi_def_cfa_offset 20
 2792              		.cfi_offset 4, -20
 2793              		.cfi_offset 5, -16
 2794              		.cfi_offset 6, -12
 2795              		.cfi_offset 7, -8
 2796              		.cfi_offset 14, -4
 2797 0002 4746     		mov	r7, r8
 2798 0004 80B4     		push	{r7}
 2799              		.cfi_def_cfa_offset 24
 2800              		.cfi_offset 8, -24
 2801 0006 8046     		mov	r8, r0
 2802              	.LVL332:
2072:.\BLEApplication.c ****     unsigned char h1,h2;
2073:.\BLEApplication.c ****     unsigned char s1,s2;
2074:.\BLEApplication.c ****     int i;
2075:.\BLEApplication.c **** 
2076:.\BLEApplication.c ****     for (i=0; i<nLen; i++)
 2803              		.loc 1 2076 0
 2804 0008 0026     		mov	r6, #0
 2805 000a 29E0     		b	.L201
 2806              	.LVL333:
 2807              	.L208:
2077:.\BLEApplication.c ****     {
2078:.\BLEApplication.c ****     h1 = pbSrc[2*i];
 2808              		.loc 1 2078 0
 2809 000c 7400     		lsl	r4, r6, #1
 2810 000e 0B5D     		ldrb	r3, [r1, r4]
 2811              	.LVL334:
ARM GAS  C:\Users\Helon\AppData\Local\Temp\cckZyeCc.s 			page 88


2079:.\BLEApplication.c ****     h2 = pbSrc[2*i+1];
 2812              		.loc 1 2079 0
 2813 0010 0134     		add	r4, r4, #1
 2814 0012 0C5D     		ldrb	r4, [r1, r4]
 2815              	.LVL335:
 2816              	.LBB2:
2080:.\BLEApplication.c **** 
2081:.\BLEApplication.c ****     s1 = toupper(h1) - 0x30;
 2817              		.loc 1 2081 0
 2818 0014 154D     		ldr	r5, .L209
 2819 0016 2F68     		ldr	r7, [r5]
 2820 0018 FD18     		add	r5, r7, r3
 2821 001a 6D78     		ldrb	r5, [r5, #1]
 2822 001c 0320     		mov	r0, #3
 2823 001e 0540     		and	r5, r0
 2824 0020 022D     		cmp	r5, #2
 2825 0022 00D1     		bne	.L203
 2826              		.loc 1 2081 0 is_stmt 0 discriminator 1
 2827 0024 203B     		sub	r3, r3, #32
 2828              	.LVL336:
 2829              	.L203:
 2830              	.LBE2:
 2831              		.loc 1 2081 0 discriminator 4
 2832 0026 DDB2     		uxtb	r5, r3
 2833 0028 2B1C     		mov	r3, r5
 2834 002a 303B     		sub	r3, r3, #48
 2835 002c DBB2     		uxtb	r3, r3
 2836              	.LVL337:
2082:.\BLEApplication.c ****     if (s1 > 9) 
 2837              		.loc 1 2082 0 is_stmt 1 discriminator 4
 2838 002e 092B     		cmp	r3, #9
 2839 0030 02D9     		bls	.L204
2083:.\BLEApplication.c ****     s1 -= 7;
 2840              		.loc 1 2083 0
 2841 0032 2B1C     		mov	r3, r5
 2842              	.LVL338:
 2843 0034 373B     		sub	r3, r3, #55
 2844              	.LVL339:
 2845 0036 DBB2     		uxtb	r3, r3
 2846              	.LVL340:
 2847              	.L204:
 2848              	.LBB3:
2084:.\BLEApplication.c **** 
2085:.\BLEApplication.c ****     s2 = toupper(h2) - 0x30;
 2849              		.loc 1 2085 0
 2850 0038 3F19     		add	r7, r7, r4
 2851 003a 7D78     		ldrb	r5, [r7, #1]
 2852 003c 0327     		mov	r7, #3
 2853 003e 3D40     		and	r5, r7
 2854 0040 022D     		cmp	r5, #2
 2855 0042 00D1     		bne	.L206
 2856              		.loc 1 2085 0 is_stmt 0 discriminator 1
 2857 0044 203C     		sub	r4, r4, #32
 2858              	.LVL341:
 2859              	.L206:
 2860              	.LBE3:
 2861              		.loc 1 2085 0 discriminator 4
ARM GAS  C:\Users\Helon\AppData\Local\Temp\cckZyeCc.s 			page 89


 2862 0046 E4B2     		uxtb	r4, r4
 2863 0048 251C     		mov	r5, r4
 2864 004a 303D     		sub	r5, r5, #48
 2865 004c EDB2     		uxtb	r5, r5
 2866              	.LVL342:
2086:.\BLEApplication.c ****     if (s2 > 9) 
 2867              		.loc 1 2086 0 is_stmt 1 discriminator 4
 2868 004e 092D     		cmp	r5, #9
 2869 0050 01D9     		bls	.L207
2087:.\BLEApplication.c ****     s2 -= 7;
 2870              		.loc 1 2087 0
 2871 0052 373C     		sub	r4, r4, #55
 2872 0054 E5B2     		uxtb	r5, r4
 2873              	.LVL343:
 2874              	.L207:
2088:.\BLEApplication.c **** 
2089:.\BLEApplication.c ****     pbDest[i] = s1*16 + s2;
 2875              		.loc 1 2089 0 discriminator 2
 2876 0056 1B01     		lsl	r3, r3, #4
 2877              	.LVL344:
 2878 0058 EC18     		add	r4, r5, r3
 2879 005a 4346     		mov	r3, r8
 2880 005c 9C55     		strb	r4, [r3, r6]
 2881              	.LVL345:
2076:.\BLEApplication.c ****     {
 2882              		.loc 1 2076 0 discriminator 2
 2883 005e 0136     		add	r6, r6, #1
 2884              	.LVL346:
 2885              	.L201:
2076:.\BLEApplication.c ****     {
 2886              		.loc 1 2076 0 is_stmt 0 discriminator 1
 2887 0060 9642     		cmp	r6, r2
 2888 0062 D3DB     		blt	.L208
2090:.\BLEApplication.c ****     }
2091:.\BLEApplication.c **** }
 2889              		.loc 1 2091 0 is_stmt 1
 2890              		@ sp needed
 2891              	.LVL347:
 2892              	.LVL348:
 2893 0064 04BC     		pop	{r2}
 2894 0066 9046     		mov	r8, r2
 2895 0068 F0BD     		pop	{r4, r5, r6, r7, pc}
 2896              	.L210:
 2897 006a C046     		.align	2
 2898              	.L209:
 2899 006c 00000000 		.word	__ctype_ptr__
 2900              		.cfi_endproc
 2901              	.LFE52:
 2902              		.size	StrToHex, .-StrToHex
 2903              		.global	__aeabi_i2d
 2904              		.global	__aeabi_dmul
 2905              		.global	__aeabi_d2iz
 2906              		.section	.text.Parser_UartData,"ax",%progbits
 2907              		.align	2
 2908              		.global	Parser_UartData
 2909              		.code	16
 2910              		.thumb_func
ARM GAS  C:\Users\Helon\AppData\Local\Temp\cckZyeCc.s 			page 90


 2911              		.type	Parser_UartData, %function
 2912              	Parser_UartData:
 2913              	.LFB43:
 650:.\BLEApplication.c ****     if(NULL==SerialData)
 2914              		.loc 1 650 0
 2915              		.cfi_startproc
 2916              	.LVL349:
 2917 0000 F0B5     		push	{r4, r5, r6, r7, lr}
 2918              		.cfi_def_cfa_offset 20
 2919              		.cfi_offset 4, -20
 2920              		.cfi_offset 5, -16
 2921              		.cfi_offset 6, -12
 2922              		.cfi_offset 7, -8
 2923              		.cfi_offset 14, -4
 2924 0002 4746     		mov	r7, r8
 2925 0004 80B4     		push	{r7}
 2926              		.cfi_def_cfa_offset 24
 2927              		.cfi_offset 8, -24
 2928 0006 B0B0     		sub	sp, sp, #192
 2929              		.cfi_def_cfa_offset 216
 651:.\BLEApplication.c ****         return;
 2930              		.loc 1 651 0
 2931 0008 0028     		cmp	r0, #0
 2932 000a 01D1     		bne	.LCB2622
 2933 000c 00F04CFC 		bl	.L211	@far jump
 2934              	.LCB2622:
 2935 0010 051C     		mov	r5, r0
 2936              	.LVL350:
 656:.\BLEApplication.c ****     char AdvData[31]={0};
 2937              		.loc 1 656 0
 2938 0012 29AB     		add	r3, sp, #164
 2939 0014 0024     		mov	r4, #0
 2940 0016 2994     		str	r4, [sp, #164]
 2941 0018 2A94     		str	r4, [sp, #168]
 2942 001a 2B94     		str	r4, [sp, #172]
 2943 001c 2C94     		str	r4, [sp, #176]
 2944 001e 2D94     		str	r4, [sp, #180]
 2945 0020 2E94     		str	r4, [sp, #184]
 2946 0022 0026     		mov	r6, #0
 2947 0024 1C83     		strh	r4, [r3, #24]
 2948 0026 9E76     		strb	r6, [r3, #26]
 657:.\BLEApplication.c ****     char StrAdvData[62]={0};
 2949              		.loc 1 657 0
 2950 0028 21AB     		add	r3, sp, #132
 2951 002a 2194     		str	r4, [sp, #132]
 2952 002c 2294     		str	r4, [sp, #136]
 2953 002e 2394     		str	r4, [sp, #140]
 2954 0030 2494     		str	r4, [sp, #144]
 2955 0032 2594     		str	r4, [sp, #148]
 2956 0034 2694     		str	r4, [sp, #152]
 2957 0036 2794     		str	r4, [sp, #156]
 2958 0038 9C83     		strh	r4, [r3, #28]
 2959 003a 9E77     		strb	r6, [r3, #30]
 658:.\BLEApplication.c ****     char StrAdvDataLength[2]={0};
 2960              		.loc 1 658 0
 2961 003c 11A8     		add	r0, sp, #68
 2962              	.LVL351:
ARM GAS  C:\Users\Helon\AppData\Local\Temp\cckZyeCc.s 			page 91


 2963 003e 0021     		mov	r1, #0
 2964 0040 3E22     		mov	r2, #62
 2965 0042 FFF7FEFF 		bl	memset
 2966              	.LVL352:
 659:.\BLEApplication.c ****     char AdvDataLength=0;
 2967              		.loc 1 659 0
 2968 0046 10AB     		add	r3, sp, #64
 2969 0048 1C80     		strh	r4, [r3]
 660:.\BLEApplication.c ****     char AdvParamArray[2]={0};
 2970              		.loc 1 660 0
 2971 004a 3F23     		mov	r3, #63
 2972 004c 6B44     		add	r3, r3, sp
 2973 004e 1E70     		strb	r6, [r3]
 661:.\BLEApplication.c ****     char AdvParam=0;
 2974              		.loc 1 661 0
 2975 0050 0FAB     		add	r3, sp, #60
 2976 0052 1C80     		strh	r4, [r3]
 662:.\BLEApplication.c **** //    double connintv=0;
 2977              		.loc 1 662 0
 2978 0054 3B23     		mov	r3, #59
 2979 0056 6B44     		add	r3, r3, sp
 2980 0058 1E70     		strb	r6, [r3]
 2981              	.LVL353:
 671:.\BLEApplication.c ****     switch(At_Command_Idex)
 2982              		.loc 1 671 0
 2983 005a 281C     		mov	r0, r5
 2984 005c FFF7FEFF 		bl	Command_Identify
 2985              	.LVL354:
 672:.\BLEApplication.c ****     {
 2986              		.loc 1 672 0
 2987 0060 1928     		cmp	r0, #25
 2988 0062 01D9     		bls	.LCB2672
 2989 0064 00F020FC 		bl	.L211	@far jump
 2990              	.LCB2672:
 2991 0068 8000     		lsl	r0, r0, #2
 2992              	.LVL355:
 2993 006a D44B     		ldr	r3, .L311
 2994 006c 1B58     		ldr	r3, [r3, r0]
 2995 006e 9F46     		mov	pc, r3
 2996              		.section	.rodata
 2997              		.align	2
 2998              	.L215:
 2999 0378 7A000000 		.word	.L214
 3000 037c A8080000 		.word	.L211
 3001 0380 A6000000 		.word	.L216
 3002 0384 B0000000 		.word	.L217
 3003 0388 BA000000 		.word	.L218
 3004 038c E2000000 		.word	.L219
 3005 0390 A8080000 		.word	.L211
 3006 0394 54010000 		.word	.L220
 3007 0398 6C010000 		.word	.L221
 3008 039c 34020000 		.word	.L222
 3009 03a0 12030000 		.word	.L223
 3010 03a4 A8030000 		.word	.L224
 3011 03a8 BE040000 		.word	.L225
 3012 03ac 54050000 		.word	.L226
 3013 03b0 6C050000 		.word	.L227
ARM GAS  C:\Users\Helon\AppData\Local\Temp\cckZyeCc.s 			page 92


 3014 03b4 A8080000 		.word	.L211
 3015 03b8 A8080000 		.word	.L211
 3016 03bc DC050000 		.word	.L228
 3017 03c0 94040000 		.word	.L229
 3018 03c4 70000000 		.word	.L230
 3019 03c8 FC050000 		.word	.L231
 3020 03cc 30060000 		.word	.L232
 3021 03d0 B6060000 		.word	.L233
 3022 03d4 08070000 		.word	.L234
 3023 03d8 9E080000 		.word	.L235
 3024 03dc DC070000 		.word	.L236
 3025              		.section	.text.Parser_UartData
 3026              	.L230:
 676:.\BLEApplication.c ****         break;
 3027              		.loc 1 676 0
 3028 0070 D348     		ldr	r0, .L311+4
 3029 0072 FFF7FEFF 		bl	puts
 3030              	.LVL356:
 677:.\BLEApplication.c **** //        ËΩØÂ§ç‰Ωç----‰∏ª‰ªéÊúâÊïà
 3031              		.loc 1 677 0
 3032 0076 00F017FC 		bl	.L211	@ far jump
 3033              	.L214:
 680:.\BLEApplication.c ****             printf("OK\r\n");
 3034              		.loc 1 680 0
 3035 007a D248     		ldr	r0, .L311+8
 3036 007c FFF7FEFF 		bl	puts
 3037              	.LVL357:
 681:.\BLEApplication.c ****             while((UART_SpiUartGetTxBufferSize() + UART_GET_TX_FIFO_SR_VALID) != 0);//Á≠âÂæÖ‰∏≤Âè£Á
 3038              		.loc 1 681 0
 3039 0080 CF48     		ldr	r0, .L311+4
 3040 0082 FFF7FEFF 		bl	puts
 3041              	.LVL358:
 3042              	.L238:
 682:.\BLEApplication.c ****             CySoftwareReset();
 3043              		.loc 1 682 0 discriminator 5
 3044 0086 FFF7FEFF 		bl	UART_SpiUartGetTxBufferSize
 3045              	.LVL359:
 3046 008a CF4B     		ldr	r3, .L311+12
 3047 008c 1B68     		ldr	r3, [r3]
 3048 008e 8022     		mov	r2, #128
 3049 0090 1202     		lsl	r2, r2, #8
 3050 0092 1340     		and	r3, r2
 3051 0094 00D0     		beq	.L237
 682:.\BLEApplication.c ****             CySoftwareReset();
 3052              		.loc 1 682 0 is_stmt 0
 3053 0096 0123     		mov	r3, #1
 3054              	.L237:
 682:.\BLEApplication.c ****             CySoftwareReset();
 3055              		.loc 1 682 0 discriminator 4
 3056 0098 C318     		add	r3, r0, r3
 3057 009a 002B     		cmp	r3, #0
 3058 009c F3D1     		bne	.L238
 683:.\BLEApplication.c ****         break;
 3059              		.loc 1 683 0 is_stmt 1
 3060 009e FFF7FEFF 		bl	CySoftwareReset
 3061              	.LVL360:
 684:.\BLEApplication.c ****         case REFAC:
ARM GAS  C:\Users\Helon\AppData\Local\Temp\cckZyeCc.s 			page 93


 3062              		.loc 1 684 0
 3063 00a2 00F001FC 		bl	.L211	@ far jump
 3064              	.L216:
 689:.\BLEApplication.c ****         break;
 3065              		.loc 1 689 0
 3066 00a6 C948     		ldr	r0, .L311+16
 3067 00a8 FFF7FEFF 		bl	puts
 3068              	.LVL361:
 690:.\BLEApplication.c **** //            ÊöÇÊó∂Êó†ÊïàÔºåÂõ∫ÂÆö‰∏∫9600ÁöÑÊ≥¢ÁâπÁéá
 3069              		.loc 1 690 0
 3070 00ac 00F0FCFB 		bl	.L211	@ far jump
 3071              	.L217:
 693:.\BLEApplication.c ****             UartBuadRate_Handler(idx);
 3072              		.loc 1 693 0
 3073 00b0 287A     		ldrb	r0, [r5, #8]
 3074              	.LVL362:
 694:.\BLEApplication.c ****         break;
 3075              		.loc 1 694 0
 3076 00b2 FFF7FEFF 		bl	UartBuadRate_Handler
 3077              	.LVL363:
 695:.\BLEApplication.c **** //            MACÂú∞ÂùÄÊü•ËØ¢----‰∏ª‰ªéÊúâÊïà
 3078              		.loc 1 695 0
 3079 00b6 00F0F7FB 		bl	.L211	@ far jump
 3080              	.LVL364:
 3081              	.L218:
 698:.\BLEApplication.c ****             if('?'==idx)
 3082              		.loc 1 698 0
 3083 00ba 6B7A     		ldrb	r3, [r5, #9]
 3084              	.LVL365:
 699:.\BLEApplication.c ****                 CyBle_GetDeviceAddress(&DeviceAddr);
 3085              		.loc 1 699 0
 3086 00bc 3F2B     		cmp	r3, #63
 3087 00be 02D1     		bne	.L239
 700:.\BLEApplication.c ****                 printf("+LADDR:<0x%02X%02X%02X%02X%02X%02X>\r\n",                  
 3088              		.loc 1 700 0
 3089 00c0 C348     		ldr	r0, .L311+20
 3090 00c2 FFF7FEFF 		bl	CyBle_GetDeviceAddress
 3091              	.LVL366:
 3092              	.L239:
 702:.\BLEApplication.c ****                     DeviceAddr.bdAddr[4],
 3093              		.loc 1 702 0
 3094 00c6 C248     		ldr	r0, .L311+20
 3095 00c8 4179     		ldrb	r1, [r0, #5]
 703:.\BLEApplication.c ****                     DeviceAddr.bdAddr[3],
 3096              		.loc 1 703 0
 3097 00ca 0279     		ldrb	r2, [r0, #4]
 704:.\BLEApplication.c ****                     DeviceAddr.bdAddr[2],
 3098              		.loc 1 704 0
 3099 00cc C378     		ldrb	r3, [r0, #3]
 705:.\BLEApplication.c ****                     DeviceAddr.bdAddr[1],
 3100              		.loc 1 705 0
 3101 00ce 8578     		ldrb	r5, [r0, #2]
 3102              	.LVL367:
 706:.\BLEApplication.c ****                     DeviceAddr.bdAddr[0]                             
 3103              		.loc 1 706 0
 3104 00d0 4478     		ldrb	r4, [r0, #1]
 707:.\BLEApplication.c ****                   );
ARM GAS  C:\Users\Helon\AppData\Local\Temp\cckZyeCc.s 			page 94


 3105              		.loc 1 707 0
 3106 00d2 0078     		ldrb	r0, [r0]
 701:.\BLEApplication.c ****                     DeviceAddr.bdAddr[5],
 3107              		.loc 1 701 0
 3108 00d4 0095     		str	r5, [sp]
 3109 00d6 0194     		str	r4, [sp, #4]
 3110 00d8 0290     		str	r0, [sp, #8]
 3111 00da BE48     		ldr	r0, .L311+24
 3112 00dc FFF7FEFF 		bl	printf
 3113              	.LVL368:
 709:.\BLEApplication.c **** //                ËÆæÂ§áÂêçÊü•ËØ¢Âèä‰øÆÊîπ---‰ªéÊú∫ÊúâÊïà
 3114              		.loc 1 709 0
 3115 00e0 E2E3     		b	.L211
 3116              	.LVL369:
 3117              	.L219:
 712:.\BLEApplication.c ****              if(Peripheral==Role)
 3118              		.loc 1 712 0
 3119 00e2 2A7A     		ldrb	r2, [r5, #8]
 3120              	.LVL370:
 713:.\BLEApplication.c ****              {
 3121              		.loc 1 713 0
 3122 00e4 BC4B     		ldr	r3, .L311+28
 3123 00e6 1B78     		ldrb	r3, [r3]
 3124 00e8 012B     		cmp	r3, #1
 3125 00ea 2FD1     		bne	.L240
 715:.\BLEApplication.c ****                 {
 3126              		.loc 1 715 0
 3127 00ec 3C2A     		cmp	r2, #60
 3128 00ee 0AD0     		beq	.L241
 3129 00f0 3F2A     		cmp	r2, #63
 3130 00f2 00D0     		beq	.LCB2778
 3131 00f4 D8E3     		b	.L211	@long jump
 3132              	.LCB2778:
 718:.\BLEApplication.c ****                         printf("+NAME=<%s>\r\n",Name);
 3133              		.loc 1 718 0
 3134 00f6 29A8     		add	r0, sp, #164
 3135 00f8 FFF7FEFF 		bl	CyBle_GapGetLocalName
 3136              	.LVL371:
 719:.\BLEApplication.c **** //                        free(Name);
 3137              		.loc 1 719 0
 3138 00fc B748     		ldr	r0, .L311+32
 3139 00fe 29A9     		add	r1, sp, #164
 3140 0100 FFF7FEFF 		bl	printf
 3141              	.LVL372:
 721:.\BLEApplication.c ****                     case '<':                        
 3142              		.loc 1 721 0
 3143 0104 D0E3     		b	.L211
 3144              	.LVL373:
 3145              	.L241:
 723:.\BLEApplication.c ****                         {
 3146              		.loc 1 723 0
 3147 0106 B64B     		ldr	r3, .L311+36
 3148 0108 1B78     		ldrb	r3, [r3]
 3149 010a 022B     		cmp	r3, #2
 3150 010c 1AD0     		beq	.L243
 725:.\BLEApplication.c ****                             memset(Name,0,sizeof(char8)*27);
 3151              		.loc 1 725 0
ARM GAS  C:\Users\Helon\AppData\Local\Temp\cckZyeCc.s 			page 95


 3152 010e FFF7FEFF 		bl	CyBle_GappStopAdvertisement
 3153              	.LVL374:
 726:.\BLEApplication.c ****                             memcpy(Name,RX_BUFFER+9,Buffer_Length-11);
 3154              		.loc 1 726 0
 3155 0112 29AC     		add	r4, sp, #164
 3156 0114 0023     		mov	r3, #0
 3157 0116 2993     		str	r3, [sp, #164]
 3158 0118 2A93     		str	r3, [sp, #168]
 3159 011a 2B93     		str	r3, [sp, #172]
 3160 011c 2C93     		str	r3, [sp, #176]
 3161 011e 2D93     		str	r3, [sp, #180]
 3162 0120 2E93     		str	r3, [sp, #184]
 3163 0122 2383     		strh	r3, [r4, #24]
 3164 0124 A376     		strb	r3, [r4, #26]
 727:.\BLEApplication.c ****                             CyBle_GapSetLocalName(Name); 
 3165              		.loc 1 727 0
 3166 0126 AF49     		ldr	r1, .L311+40
 3167 0128 4023     		mov	r3, #64
 3168 012a CA5C     		ldrb	r2, [r1, r3]
 3169 012c 0B3A     		sub	r2, r2, #11
 3170 012e 1931     		add	r1, r1, #25
 3171 0130 201C     		mov	r0, r4
 3172 0132 FFF7FEFF 		bl	memcpy
 3173              	.LVL375:
 728:.\BLEApplication.c **** //                            free(Name);
 3174              		.loc 1 728 0
 3175 0136 201C     		mov	r0, r4
 3176 0138 FFF7FEFF 		bl	CyBle_GapSetLocalName
 3177              	.LVL376:
 730:.\BLEApplication.c ****                         }
 3178              		.loc 1 730 0
 3179 013c 0020     		mov	r0, #0
 3180 013e FFF7FEFF 		bl	CyBle_GappStartAdvertisement
 3181              	.LVL377:
 3182 0142 B1E3     		b	.L211
 3183              	.LVL378:
 3184              	.L243:
 734:.\BLEApplication.c ****                         }
 3185              		.loc 1 734 0
 3186 0144 A848     		ldr	r0, .L311+44
 3187 0146 FFF7FEFF 		bl	puts
 3188              	.LVL379:
 3189 014a ADE3     		b	.L211
 3190              	.LVL380:
 3191              	.L240:
 741:.\BLEApplication.c ****             }
 3192              		.loc 1 741 0
 3193 014c A648     		ldr	r0, .L311+44
 3194 014e FFF7FEFF 		bl	puts
 3195              	.LVL381:
 3196 0152 A9E3     		b	.L211
 3197              	.LVL382:
 3198              	.L220:
 749:.\BLEApplication.c ****             if(Role==Peripheral)
 3199              		.loc 1 749 0
 3200 0154 E879     		ldrb	r0, [r5, #7]
 3201              	.LVL383:
ARM GAS  C:\Users\Helon\AppData\Local\Temp\cckZyeCc.s 			page 96


 750:.\BLEApplication.c ****                 TxPower_Handler(idx);
 3202              		.loc 1 750 0
 3203 0156 A04B     		ldr	r3, .L311+28
 3204 0158 1B78     		ldrb	r3, [r3]
 3205 015a 012B     		cmp	r3, #1
 3206 015c 02D1     		bne	.L244
 751:.\BLEApplication.c ****              else
 3207              		.loc 1 751 0
 3208 015e FFF7FEFF 		bl	TxPower_Handler
 3209              	.LVL384:
 3210 0162 A1E3     		b	.L211
 3211              	.LVL385:
 3212              	.L244:
 754:.\BLEApplication.c ****             }
 3213              		.loc 1 754 0
 3214 0164 A148     		ldr	r0, .L311+48
 3215              	.LVL386:
 3216 0166 FFF7FEFF 		bl	puts
 3217              	.LVL387:
 3218 016a 9DE3     		b	.L211
 3219              	.LVL388:
 3220              	.L221:
 759:.\BLEApplication.c ****             if((Peripheral==Role)&&(CYBLE_STATE_ADVERTISING==CyBle_GetState()))
 3221              		.loc 1 759 0
 3222 016c 2A7A     		ldrb	r2, [r5, #8]
 3223              	.LVL389:
 760:.\BLEApplication.c ****             {
 3224              		.loc 1 760 0
 3225 016e 9A4B     		ldr	r3, .L311+28
 3226 0170 1B78     		ldrb	r3, [r3]
 3227 0172 012B     		cmp	r3, #1
 3228 0174 5AD1     		bne	.L245
 760:.\BLEApplication.c ****             {
 3229              		.loc 1 760 0 is_stmt 0 discriminator 1
 3230 0176 9A4B     		ldr	r3, .L311+36
 3231 0178 1B78     		ldrb	r3, [r3]
 3232 017a 032B     		cmp	r3, #3
 3233 017c 56D1     		bne	.L245
 762:.\BLEApplication.c ****                 {
 3234              		.loc 1 762 0 is_stmt 1
 3235 017e 3C2A     		cmp	r2, #60
 3236 0180 02D0     		beq	.L246
 3237 0182 3F2A     		cmp	r2, #63
 3238 0184 3ED0     		beq	.L247
 3239 0186 8FE3     		b	.L211
 3240              	.L246:
 765:.\BLEApplication.c ****                         memcpy(StrAdvDataLength,SerialData+9,2);
 3241              		.loc 1 765 0
 3242 0188 05AC     		add	r4, sp, #20
 3243 018a 0023     		mov	r3, #0
 3244 018c 0593     		str	r3, [sp, #20]
 3245 018e 0693     		str	r3, [sp, #24]
 3246 0190 0793     		str	r3, [sp, #28]
 3247 0192 0893     		str	r3, [sp, #32]
 3248 0194 0993     		str	r3, [sp, #36]
 3249 0196 0A93     		str	r3, [sp, #40]
 3250 0198 0B93     		str	r3, [sp, #44]
ARM GAS  C:\Users\Helon\AppData\Local\Temp\cckZyeCc.s 			page 97


 3251 019a A383     		strh	r3, [r4, #28]
 3252 019c A377     		strb	r3, [r4, #30]
 766:.\BLEApplication.c ****                         StrToHex(&AdvDataLength,StrAdvDataLength,1);
 3253              		.loc 1 766 0
 3254 019e 291C     		mov	r1, r5
 3255 01a0 0931     		add	r1, r1, #9
 3256 01a2 10A8     		add	r0, sp, #64
 3257 01a4 0222     		mov	r2, #2
 3258              	.LVL390:
 3259 01a6 FFF7FEFF 		bl	memcpy
 3260              	.LVL391:
 767:.\BLEApplication.c ****                         advDiscData.advDataLen=AdvDataLength;
 3261              		.loc 1 767 0
 3262 01aa 3F26     		mov	r6, #63
 3263 01ac 6E44     		add	r6, r6, sp
 3264 01ae 301C     		mov	r0, r6
 3265 01b0 10A9     		add	r1, sp, #64
 3266 01b2 0122     		mov	r2, #1
 3267 01b4 FFF7FEFF 		bl	StrToHex
 3268              	.LVL392:
 768:.\BLEApplication.c ****                         memcpy(StrAdvData,SerialData+12,AdvDataLength*2);
 3269              		.loc 1 768 0
 3270 01b8 3278     		ldrb	r2, [r6]
 3271 01ba E277     		strb	r2, [r4, #31]
 769:.\BLEApplication.c ****                         StrToHex(AdvData,StrAdvData,sizeof(StrAdvData)/sizeof(char)/2);
 3272              		.loc 1 769 0
 3273 01bc 5200     		lsl	r2, r2, #1
 3274 01be 291C     		mov	r1, r5
 3275 01c0 0C31     		add	r1, r1, #12
 3276 01c2 11A8     		add	r0, sp, #68
 3277 01c4 FFF7FEFF 		bl	memcpy
 3278              	.LVL393:
 770:.\BLEApplication.c ****                         memcpy(advDiscData.advData,AdvData,advDiscData.advDataLen);
 3279              		.loc 1 770 0
 3280 01c8 21A8     		add	r0, sp, #132
 3281 01ca 11A9     		add	r1, sp, #68
 3282 01cc 1F22     		mov	r2, #31
 3283 01ce FFF7FEFF 		bl	StrToHex
 3284              	.LVL394:
 771:.\BLEApplication.c ****                         API_RESULT=CyBle_GapUpdateAdvData(&advDiscData,NULL);
 3285              		.loc 1 771 0
 3286 01d2 E27F     		ldrb	r2, [r4, #31]
 3287 01d4 201C     		mov	r0, r4
 3288 01d6 21A9     		add	r1, sp, #132
 3289 01d8 FFF7FEFF 		bl	memcpy
 3290              	.LVL395:
 772:.\BLEApplication.c ****                         if(CYBLE_ERROR_OK==API_RESULT)
 3291              		.loc 1 772 0
 3292 01dc 201C     		mov	r0, r4
 3293 01de 0021     		mov	r1, #0
 3294 01e0 FFF7FEFF 		bl	CyBle_GapUpdateAdvData
 3295              	.LVL396:
 773:.\BLEApplication.c ****                         {
 3296              		.loc 1 773 0
 3297 01e4 0028     		cmp	r0, #0
 3298 01e6 00D0     		beq	.LCB2943
 3299 01e8 5EE3     		b	.L211	@long jump
ARM GAS  C:\Users\Helon\AppData\Local\Temp\cckZyeCc.s 			page 98


 3300              	.LCB2943:
 775:.\BLEApplication.c ****                             cyBle_discoveryModeInfo.advData->advDataLen=AdvDataLength;
 3301              		.loc 1 775 0
 3302 01ea 8148     		ldr	r0, .L311+52
 3303              	.LVL397:
 3304 01ec FFF7FEFF 		bl	puts
 3305              	.LVL398:
 776:.\BLEApplication.c ****                             memcpy(cyBle_discoveryModeInfo.advData->advData,AdvData,AdvDataLength);
 3306              		.loc 1 776 0
 3307 01f0 804B     		ldr	r3, .L311+56
 3308 01f2 9868     		ldr	r0, [r3, #8]
 3309 01f4 3F23     		mov	r3, #63
 3310 01f6 6B44     		add	r3, r3, sp
 3311 01f8 1A78     		ldrb	r2, [r3]
 3312 01fa C277     		strb	r2, [r0, #31]
 777:.\BLEApplication.c ****                         }
 3313              		.loc 1 777 0
 3314 01fc 21A9     		add	r1, sp, #132
 3315 01fe FFF7FEFF 		bl	memcpy
 3316              	.LVL399:
 3317 0202 51E3     		b	.L211
 3318              	.LVL400:
 3319              	.L247:
 781:.\BLEApplication.c ****                         for(i=0;i<cyBle_discoveryModeInfo.advData->advDataLen;i++)
 3320              		.loc 1 781 0
 3321 0204 7C48     		ldr	r0, .L311+60
 3322 0206 FFF7FEFF 		bl	printf
 3323              	.LVL401:
 782:.\BLEApplication.c ****                         {
 3324              		.loc 1 782 0
 3325 020a 0024     		mov	r4, #0
 3326 020c 05E0     		b	.L248
 3327              	.LVL402:
 3328              	.L249:
 784:.\BLEApplication.c ****                         }
 3329              		.loc 1 784 0 discriminator 3
 3330 020e 195D     		ldrb	r1, [r3, r4]
 3331 0210 7A48     		ldr	r0, .L311+64
 3332 0212 FFF7FEFF 		bl	printf
 3333              	.LVL403:
 782:.\BLEApplication.c ****                         {
 3334              		.loc 1 782 0 discriminator 3
 3335 0216 0134     		add	r4, r4, #1
 3336              	.LVL404:
 3337 0218 E4B2     		uxtb	r4, r4
 3338              	.LVL405:
 3339              	.L248:
 782:.\BLEApplication.c ****                         {
 3340              		.loc 1 782 0 is_stmt 0 discriminator 1
 3341 021a 764B     		ldr	r3, .L311+56
 3342 021c 9B68     		ldr	r3, [r3, #8]
 3343 021e DA7F     		ldrb	r2, [r3, #31]
 3344 0220 A242     		cmp	r2, r4
 3345 0222 F4D8     		bhi	.L249
 786:.\BLEApplication.c ****                     break;
 3346              		.loc 1 786 0 is_stmt 1
 3347 0224 7648     		ldr	r0, .L311+68
ARM GAS  C:\Users\Helon\AppData\Local\Temp\cckZyeCc.s 			page 99


 3348 0226 FFF7FEFF 		bl	puts
 3349              	.LVL406:
 787:.\BLEApplication.c ****                 }
 3350              		.loc 1 787 0
 3351 022a 3DE3     		b	.L211
 3352              	.LVL407:
 3353              	.L245:
 792:.\BLEApplication.c ****             }
 3354              		.loc 1 792 0
 3355 022c 7548     		ldr	r0, .L311+72
 3356 022e FFF7FEFF 		bl	puts
 3357              	.LVL408:
 3358 0232 39E3     		b	.L211
 3359              	.LVL409:
 3360              	.L222:
 797:.\BLEApplication.c ****             {
 3361              		.loc 1 797 0
 3362 0234 684B     		ldr	r3, .L311+28
 3363 0236 1B78     		ldrb	r3, [r3]
 3364 0238 012B     		cmp	r3, #1
 3365 023a 66D1     		bne	.L250
 797:.\BLEApplication.c ****             {
 3366              		.loc 1 797 0 is_stmt 0 discriminator 1
 3367 023c 684B     		ldr	r3, .L311+36
 3368 023e 1B78     		ldrb	r3, [r3]
 3369 0240 022B     		cmp	r3, #2
 3370 0242 62D0     		beq	.L250
 799:.\BLEApplication.c ****                 switch(idx)
 3371              		.loc 1 799 0 is_stmt 1
 3372 0244 2A7A     		ldrb	r2, [r5, #8]
 3373              	.LVL410:
 800:.\BLEApplication.c ****                 {
 3374              		.loc 1 800 0
 3375 0246 3C2A     		cmp	r2, #60
 3376 0248 2AD0     		beq	.L251
 3377 024a 3F2A     		cmp	r2, #63
 3378 024c 00D0     		beq	.LCB3024
 3379 024e 2BE3     		b	.L211	@long jump
 3380              	.LCB3024:
 803:.\BLEApplication.c ****                     AdvMax=(cyBle_discoveryModeInfo.advParam->advIntvMax)*0.625;                   
 3381              		.loc 1 803 0
 3382 0250 684D     		ldr	r5, .L311+56
 3383              	.LVL411:
 3384 0252 6E68     		ldr	r6, [r5, #4]
 3385 0254 3088     		ldrh	r0, [r6]
 3386 0256 FFF7FEFF 		bl	__aeabi_i2d
 3387              	.LVL412:
 3388 025a 0022     		mov	r2, #0
 3389 025c 6A4B     		ldr	r3, .L311+76
 3390 025e FFF7FEFF 		bl	__aeabi_dmul
 3391              	.LVL413:
 3392 0262 FFF7FEFF 		bl	__aeabi_d2iz
 3393              	.LVL414:
 3394 0266 84B2     		uxth	r4, r0
 3395              	.LVL415:
 804:.\BLEApplication.c ****                     printf("+ADVI=<MIN=%hdms,MAX=%hdms,TIMEOUT=%hus>\r\n",AdvMin,
 3396              		.loc 1 804 0
ARM GAS  C:\Users\Helon\AppData\Local\Temp\cckZyeCc.s 			page 100


 3397 0268 7088     		ldrh	r0, [r6, #2]
 3398 026a FFF7FEFF 		bl	__aeabi_i2d
 3399              	.LVL416:
 3400 026e 0022     		mov	r2, #0
 3401 0270 654B     		ldr	r3, .L311+76
 3402 0272 FFF7FEFF 		bl	__aeabi_dmul
 3403              	.LVL417:
 3404 0276 FFF7FEFF 		bl	__aeabi_d2iz
 3405              	.LVL418:
 806:.\BLEApplication.c ****                     while((UART_SpiUartGetTxBufferSize() + UART_GET_TX_FIFO_SR_VALID) != 0);//Á≠âÂæ
 3406              		.loc 1 806 0
 3407 027a 2B8A     		ldrh	r3, [r5, #16]
 805:.\BLEApplication.c ****                     AdvMax,cyBle_discoveryModeInfo.advTo);
 3408              		.loc 1 805 0
 3409 027c 21B2     		sxth	r1, r4
 3410 027e 02B2     		sxth	r2, r0
 3411 0280 6248     		ldr	r0, .L311+80
 3412              	.LVL419:
 3413 0282 FFF7FEFF 		bl	printf
 3414              	.LVL420:
 3415              	.L254:
 807:.\BLEApplication.c ****                     break;
 3416              		.loc 1 807 0 discriminator 5
 3417 0286 FFF7FEFF 		bl	UART_SpiUartGetTxBufferSize
 3418              	.LVL421:
 3419 028a 4F4B     		ldr	r3, .L311+12
 3420 028c 1B68     		ldr	r3, [r3]
 3421 028e 8022     		mov	r2, #128
 3422 0290 1202     		lsl	r2, r2, #8
 3423 0292 1340     		and	r3, r2
 3424 0294 00D0     		beq	.L253
 807:.\BLEApplication.c ****                     break;
 3425              		.loc 1 807 0 is_stmt 0
 3426 0296 0123     		mov	r3, #1
 3427              	.L253:
 807:.\BLEApplication.c ****                     break;
 3428              		.loc 1 807 0 discriminator 4
 3429 0298 C318     		add	r3, r0, r3
 3430 029a 002B     		cmp	r3, #0
 3431 029c F3D1     		bne	.L254
 3432 029e 03E3     		b	.L211
 3433              	.LVL422:
 3434              	.L251:
 811:.\BLEApplication.c ****                     {
 3435              		.loc 1 811 0 is_stmt 1
 3436 02a0 032B     		cmp	r3, #3
 3437 02a2 2ED0     		beq	.L255
 814:.\BLEApplication.c ****                         AdvParamArray[1]=SerialData[10];
 3438              		.loc 1 814 0
 3439 02a4 0FAC     		add	r4, sp, #60
 3440 02a6 6B7A     		ldrb	r3, [r5, #9]
 3441 02a8 2370     		strb	r3, [r4]
 815:.\BLEApplication.c ****                         StrToHex(&AdvParam,AdvParamArray,1);
 3442              		.loc 1 815 0
 3443 02aa AB7A     		ldrb	r3, [r5, #10]
 3444 02ac 6370     		strb	r3, [r4, #1]
 816:.\BLEApplication.c ****                         cyBle_discoveryModeInfo.advParam->advIntvMin=AdvParam;
ARM GAS  C:\Users\Helon\AppData\Local\Temp\cckZyeCc.s 			page 101


 3445              		.loc 1 816 0
 3446 02ae 3B26     		mov	r6, #59
 3447 02b0 6E44     		add	r6, r6, sp
 3448 02b2 301C     		mov	r0, r6
 3449 02b4 211C     		mov	r1, r4
 3450 02b6 0122     		mov	r2, #1
 3451              	.LVL423:
 3452 02b8 FFF7FEFF 		bl	StrToHex
 3453              	.LVL424:
 817:.\BLEApplication.c ****     //                    Ëé∑ÂèñAdvMaxÂÄº
 3454              		.loc 1 817 0
 3455 02bc 4D4F     		ldr	r7, .L311+56
 3456 02be 3378     		ldrb	r3, [r6]
 3457 02c0 7A68     		ldr	r2, [r7, #4]
 3458 02c2 1380     		strh	r3, [r2]
 819:.\BLEApplication.c ****                         AdvParamArray[1]=SerialData[13];
 3459              		.loc 1 819 0
 3460 02c4 2B7B     		ldrb	r3, [r5, #12]
 3461 02c6 2370     		strb	r3, [r4]
 820:.\BLEApplication.c ****                         StrToHex(&AdvParam,AdvParamArray,1);
 3462              		.loc 1 820 0
 3463 02c8 6B7B     		ldrb	r3, [r5, #13]
 3464 02ca 6370     		strb	r3, [r4, #1]
 821:.\BLEApplication.c ****                         cyBle_discoveryModeInfo.advParam->advIntvMax=AdvParam;
 3465              		.loc 1 821 0
 3466 02cc 301C     		mov	r0, r6
 3467 02ce 211C     		mov	r1, r4
 3468 02d0 0122     		mov	r2, #1
 3469 02d2 FFF7FEFF 		bl	StrToHex
 3470              	.LVL425:
 822:.\BLEApplication.c ****     //                      Ëé∑ÂèñAdvToÂÄº
 3471              		.loc 1 822 0
 3472 02d6 3378     		ldrb	r3, [r6]
 3473 02d8 7A68     		ldr	r2, [r7, #4]
 3474 02da 5380     		strh	r3, [r2, #2]
 824:.\BLEApplication.c ****                         AdvParamArray[1]=SerialData[16];
 3475              		.loc 1 824 0
 3476 02dc EB7B     		ldrb	r3, [r5, #15]
 3477 02de 2370     		strb	r3, [r4]
 825:.\BLEApplication.c ****                         StrToHex(&AdvParam,AdvParamArray,1);
 3478              		.loc 1 825 0
 3479 02e0 2B7C     		ldrb	r3, [r5, #16]
 3480 02e2 6370     		strb	r3, [r4, #1]
 826:.\BLEApplication.c ****                         cyBle_discoveryModeInfo.advTo=AdvParam;
 3481              		.loc 1 826 0
 3482 02e4 301C     		mov	r0, r6
 3483 02e6 211C     		mov	r1, r4
 3484 02e8 0122     		mov	r2, #1
 3485 02ea FFF7FEFF 		bl	StrToHex
 3486              	.LVL426:
 827:.\BLEApplication.c ****                         printf("%s",SerialData);
 3487              		.loc 1 827 0
 3488 02ee 3378     		ldrb	r3, [r6]
 3489 02f0 3B82     		strh	r3, [r7, #16]
 828:.\BLEApplication.c ****                         printf("OK\r\n");
 3490              		.loc 1 828 0
 3491 02f2 4748     		ldr	r0, .L311+84
ARM GAS  C:\Users\Helon\AppData\Local\Temp\cckZyeCc.s 			page 102


 3492 02f4 291C     		mov	r1, r5
 3493 02f6 FFF7FEFF 		bl	printf
 3494              	.LVL427:
 829:.\BLEApplication.c ****                     }
 3495              		.loc 1 829 0
 3496 02fa 3148     		ldr	r0, .L311+4
 3497 02fc FFF7FEFF 		bl	puts
 3498              	.LVL428:
 3499 0300 D2E2     		b	.L211
 3500              	.LVL429:
 3501              	.L255:
 833:.\BLEApplication.c ****                     }
 3502              		.loc 1 833 0
 3503 0302 4448     		ldr	r0, .L311+88
 3504 0304 FFF7FEFF 		bl	puts
 3505              	.LVL430:
 3506 0308 CEE2     		b	.L211
 3507              	.LVL431:
 3508              	.L250:
 840:.\BLEApplication.c ****             }
 3509              		.loc 1 840 0
 3510 030a 4248     		ldr	r0, .L311+88
 3511 030c FFF7FEFF 		bl	puts
 3512              	.LVL432:
 3513 0310 CAE2     		b	.L211
 3514              	.L223:
 846:.\BLEApplication.c ****             switch(idx)
 3515              		.loc 1 846 0
 3516 0312 6B7A     		ldrb	r3, [r5, #9]
 3517              	.LVL433:
 847:.\BLEApplication.c ****             {
 3518              		.loc 1 847 0
 3519 0314 3C2B     		cmp	r3, #60
 3520 0316 12D0     		beq	.L256
 3521 0318 3F2B     		cmp	r3, #63
 3522 031a 00D0     		beq	.LCB3164
 3523 031c C4E2     		b	.L211	@long jump
 3524              	.LCB3164:
 850:.\BLEApplication.c ****                 {
 3525              		.loc 1 850 0
 3526 031e 304B     		ldr	r3, .L311+36
 3527              	.LVL434:
 3528 0320 1B78     		ldrb	r3, [r3]
 3529 0322 022B     		cmp	r3, #2
 3530 0324 07D1     		bne	.L258
 854:.\BLEApplication.c ****                     ConnParam.supervisionTO,ConnParam.connLatency);
 3531              		.loc 1 854 0
 3532 0326 3C4B     		ldr	r3, .L311+92
 3533 0328 5988     		ldrh	r1, [r3, #2]
 855:.\BLEApplication.c ****                 }
 3534              		.loc 1 855 0
 3535 032a DA88     		ldrh	r2, [r3, #6]
 3536 032c 9B88     		ldrh	r3, [r3, #4]
 854:.\BLEApplication.c ****                     ConnParam.supervisionTO,ConnParam.connLatency);
 3537              		.loc 1 854 0
 3538 032e 3B48     		ldr	r0, .L311+96
 3539 0330 FFF7FEFF 		bl	printf
ARM GAS  C:\Users\Helon\AppData\Local\Temp\cckZyeCc.s 			page 103


 3540              	.LVL435:
 3541 0334 B8E2     		b	.L211
 3542              	.LVL436:
 3543              	.L258:
 859:.\BLEApplication.c ****                 }
 3544              		.loc 1 859 0
 3545 0336 3A48     		ldr	r0, .L311+100
 3546 0338 FFF7FEFF 		bl	puts
 3547              	.LVL437:
 3548 033c B4E2     		b	.L211
 3549              	.LVL438:
 3550              	.L256:
 864:.\BLEApplication.c ****                 {
 3551              		.loc 1 864 0
 3552 033e 264B     		ldr	r3, .L311+28
 3553              	.LVL439:
 3554 0340 1B78     		ldrb	r3, [r3]
 3555 0342 002B     		cmp	r3, #0
 3556 0344 2CD1     		bne	.L259
 867:.\BLEApplication.c ****                     AdvParamArray[1]=SerialData[11];
 3557              		.loc 1 867 0
 3558 0346 0FAC     		add	r4, sp, #60
 3559 0348 AB7A     		ldrb	r3, [r5, #10]
 3560 034a 2370     		strb	r3, [r4]
 868:.\BLEApplication.c ****                     StrToHex(&AdvParam,AdvParamArray,1);
 3561              		.loc 1 868 0
 3562 034c EB7A     		ldrb	r3, [r5, #11]
 3563 034e 6370     		strb	r3, [r4, #1]
 869:.\BLEApplication.c ****                     connParam.connIntvMin=AdvParam;
 3564              		.loc 1 869 0
 3565 0350 3B27     		mov	r7, #59
 3566 0352 6F44     		add	r7, r7, sp
 3567 0354 381C     		mov	r0, r7
 3568 0356 211C     		mov	r1, r4
 3569 0358 0122     		mov	r2, #1
 3570 035a FFF7FEFF 		bl	StrToHex
 3571              	.LVL440:
 870:.\BLEApplication.c **** //                    Ëé∑ÂèñÊúÄÂ§ßËøûÊé•Èó¥Èöî                    
 3572              		.loc 1 870 0
 3573 035e 1E4E     		ldr	r6, .L311+28
 3574 0360 3B78     		ldrb	r3, [r7]
 3575 0362 B380     		strh	r3, [r6, #4]
 872:.\BLEApplication.c ****                     AdvParamArray[1]=SerialData[14];
 3576              		.loc 1 872 0
 3577 0364 6B7B     		ldrb	r3, [r5, #13]
 3578 0366 2370     		strb	r3, [r4]
 873:.\BLEApplication.c ****                     StrToHex(&AdvParam,AdvParamArray,1);
 3579              		.loc 1 873 0
 3580 0368 AB7B     		ldrb	r3, [r5, #14]
 3581 036a 6370     		strb	r3, [r4, #1]
 874:.\BLEApplication.c ****                     connParam.connIntvMax=AdvParam;
 3582              		.loc 1 874 0
 3583 036c 381C     		mov	r0, r7
 3584 036e 211C     		mov	r1, r4
 3585 0370 0122     		mov	r2, #1
 3586 0372 FFF7FEFF 		bl	StrToHex
 3587              	.LVL441:
ARM GAS  C:\Users\Helon\AppData\Local\Temp\cckZyeCc.s 			page 104


 875:.\BLEApplication.c **** //                    ÂèëËµ∑ËøûÊé•Èó¥ÈöîÊõ¥Êñ∞ËØ∑Ê±Ç
 3588              		.loc 1 875 0
 3589 0376 3B78     		ldrb	r3, [r7]
 3590 0378 F380     		strh	r3, [r6, #6]
 877:.\BLEApplication.c ****                     if(CYBLE_ERROR_OK==API_RESULT)
 3591              		.loc 1 877 0
 3592 037a 2A4B     		ldr	r3, .L311+104
 3593 037c 1878     		ldrb	r0, [r3]
 3594 037e 311D     		add	r1, r6, #4
 3595 0380 FFF7FEFF 		bl	CyBle_GapcConnectionParamUpdateRequest
 3596              	.LVL442:
 878:.\BLEApplication.c ****                     {
 3597              		.loc 1 878 0
 3598 0384 0028     		cmp	r0, #0
 3599 0386 07D1     		bne	.L260
 880:.\BLEApplication.c ****                         printf("OK\r\n");
 3600              		.loc 1 880 0
 3601 0388 2148     		ldr	r0, .L311+84
 3602              	.LVL443:
 3603 038a 291C     		mov	r1, r5
 3604 038c FFF7FEFF 		bl	printf
 3605              	.LVL444:
 881:.\BLEApplication.c ****                     }
 3606              		.loc 1 881 0
 3607 0390 0B48     		ldr	r0, .L311+4
 3608 0392 FFF7FEFF 		bl	puts
 3609              	.LVL445:
 3610 0396 87E2     		b	.L211
 3611              	.LVL446:
 3612              	.L260:
 885:.\BLEApplication.c ****                     }
 3613              		.loc 1 885 0
 3614 0398 2348     		ldr	r0, .L311+108
 3615              	.LVL447:
 3616 039a FFF7FEFF 		bl	puts
 3617              	.LVL448:
 3618 039e 83E2     		b	.L211
 3619              	.LVL449:
 3620              	.L259:
 891:.\BLEApplication.c ****                 }
 3621              		.loc 1 891 0
 3622 03a0 1F48     		ldr	r0, .L311+100
 3623 03a2 FFF7FEFF 		bl	puts
 3624              	.LVL450:
 3625 03a6 7FE2     		b	.L211
 3626              	.LVL451:
 3627              	.L224:
 899:.\BLEApplication.c ****             switch(idx)
 3628              		.loc 1 899 0
 3629 03a8 2B7A     		ldrb	r3, [r5, #8]
 3630              	.LVL452:
 900:.\BLEApplication.c ****             {
 3631              		.loc 1 900 0
 3632 03aa 312B     		cmp	r3, #49
 3633 03ac 4AD0     		beq	.L261
 3634 03ae 3F2B     		cmp	r3, #63
 3635 03b0 3CD0     		beq	.L262
ARM GAS  C:\Users\Helon\AppData\Local\Temp\cckZyeCc.s 			page 105


 3636 03b2 302B     		cmp	r3, #48
 3637 03b4 00D0     		beq	.LCB3273
 3638 03b6 77E2     		b	.L211	@long jump
 3639              	.LCB3273:
 3640 03b8 58E0     		b	.L263
 3641              	.L312:
 3642 03ba C046     		.align	2
 3643              	.L311:
 3644 03bc 78030000 		.word	.L215
 3645 03c0 BC010000 		.word	.LC75
 3646 03c4 34040000 		.word	.LC160
 3647 03c8 08022440 		.word	1076101640
 3648 03cc 40040000 		.word	.LC162
 3649 03d0 00000000 		.word	DeviceAddr
 3650 03d4 54040000 		.word	.LC165
 3651 03d8 00000000 		.word	.LANCHOR1
 3652 03dc 7C040000 		.word	.LC168
 3653 03e0 00000000 		.word	cyBle_state
 3654 03e4 00000000 		.word	.LANCHOR0
 3655 03e8 8C040000 		.word	.LC172
 3656 03ec A0040000 		.word	.LC174
 3657 03f0 B0040000 		.word	.LC176
 3658 03f4 00000000 		.word	cyBle_discoveryModeInfo
 3659 03f8 C4040000 		.word	.LC179
 3660 03fc 00010000 		.word	.LC33
 3661 0400 08010000 		.word	.LC35
 3662 0404 D0040000 		.word	.LC183
 3663 0408 0000E43F 		.word	1071906816
 3664 040c E4040000 		.word	.LC185
 3665 0410 10050000 		.word	.LC187
 3666 0414 14050000 		.word	.LC189
 3667 0418 00000000 		.word	ConnParam
 3668 041c 28050000 		.word	.LC192
 3669 0420 64050000 		.word	.LC194
 3670 0424 00000000 		.word	cyBle_connHandle
 3671 0428 78050000 		.word	.LC197
 3672              	.L262:
 903:.\BLEApplication.c ****                     {
 3673              		.loc 1 903 0
 3674 042c C94B     		ldr	r3, .L313
 3675              	.LVL453:
 3676 042e 1B78     		ldrb	r3, [r3]
 3677 0430 012B     		cmp	r3, #1
 3678 0432 03D1     		bne	.L264
 905:.\BLEApplication.c ****                     }
 3679              		.loc 1 905 0
 3680 0434 C848     		ldr	r0, .L313+4
 3681 0436 FFF7FEFF 		bl	puts
 3682              	.LVL454:
 3683 043a 35E2     		b	.L211
 3684              	.LVL455:
 3685              	.L264:
 909:.\BLEApplication.c ****                     }
 3686              		.loc 1 909 0
 3687 043c C748     		ldr	r0, .L313+8
 3688 043e FFF7FEFF 		bl	puts
 3689              	.LVL456:
ARM GAS  C:\Users\Helon\AppData\Local\Temp\cckZyeCc.s 			page 106


 3690 0442 31E2     		b	.L211
 3691              	.LVL457:
 3692              	.L261:
 914:.\BLEApplication.c ****                     {
 3693              		.loc 1 914 0
 3694 0444 C64B     		ldr	r3, .L313+12
 3695              	.LVL458:
 3696 0446 1B78     		ldrb	r3, [r3]
 3697 0448 022B     		cmp	r3, #2
 3698 044a 00D1     		bne	.LCB3338
 3699 044c 2CE2     		b	.L211	@long jump
 3700              	.LCB3338:
 917:.\BLEApplication.c ****                         //ÂºÄÂßãÂπøÊí≠
 3701              		.loc 1 917 0
 3702 044e FFF7FEFF 		bl	CyBle_GapcStopScan
 3703              	.LVL459:
 919:.\BLEApplication.c ****                         Role=Peripheral;
 3704              		.loc 1 919 0
 3705 0452 0020     		mov	r0, #0
 3706 0454 FFF7FEFF 		bl	CyBle_GappStartAdvertisement
 3707              	.LVL460:
 920:.\BLEApplication.c ****                         printf("+ROLE:<Peripheral>\r\n");
 3708              		.loc 1 920 0
 3709 0458 0122     		mov	r2, #1
 3710 045a BE4B     		ldr	r3, .L313
 3711 045c 1A70     		strb	r2, [r3]
 921:.\BLEApplication.c ****                         printf("OK\r\n");
 3712              		.loc 1 921 0
 3713 045e BE48     		ldr	r0, .L313+4
 3714 0460 FFF7FEFF 		bl	puts
 3715              	.LVL461:
 922:.\BLEApplication.c ****                     }                    
 3716              		.loc 1 922 0
 3717 0464 BF48     		ldr	r0, .L313+16
 3718 0466 FFF7FEFF 		bl	puts
 3719              	.LVL462:
 3720 046a 1DE2     		b	.L211
 3721              	.LVL463:
 3722              	.L263:
 927:.\BLEApplication.c ****                     {
 3723              		.loc 1 927 0
 3724 046c BC4B     		ldr	r3, .L313+12
 3725              	.LVL464:
 3726 046e 1B78     		ldrb	r3, [r3]
 3727 0470 022B     		cmp	r3, #2
 3728 0472 00D1     		bne	.LCB3363
 3729 0474 18E2     		b	.L211	@long jump
 3730              	.LCB3363:
 930:.\BLEApplication.c **** //                        ÂºÄÂßãÊâ´Êèè
 3731              		.loc 1 930 0
 3732 0476 FFF7FEFF 		bl	CyBle_GappStopAdvertisement
 3733              	.LVL465:
 932:.\BLEApplication.c ****                         Role=Central;
 3734              		.loc 1 932 0
 3735 047a 0020     		mov	r0, #0
 3736 047c FFF7FEFF 		bl	CyBle_GapcStartScan
 3737              	.LVL466:
ARM GAS  C:\Users\Helon\AppData\Local\Temp\cckZyeCc.s 			page 107


 933:.\BLEApplication.c ****                         printf("+ROLE:<Central>\r\n");
 3738              		.loc 1 933 0
 3739 0480 0022     		mov	r2, #0
 3740 0482 B44B     		ldr	r3, .L313
 3741 0484 1A70     		strb	r2, [r3]
 934:.\BLEApplication.c ****                         printf("OK\r\n");
 3742              		.loc 1 934 0
 3743 0486 B548     		ldr	r0, .L313+8
 3744 0488 FFF7FEFF 		bl	puts
 3745              	.LVL467:
 935:.\BLEApplication.c ****                     }
 3746              		.loc 1 935 0
 3747 048c B548     		ldr	r0, .L313+16
 3748 048e FFF7FEFF 		bl	puts
 3749              	.LVL468:
 3750 0492 09E2     		b	.L211
 3751              	.LVL469:
 3752              	.L229:
 943:.\BLEApplication.c ****             {
 3753              		.loc 1 943 0
 3754 0494 AF4B     		ldr	r3, .L313
 3755 0496 1B78     		ldrb	r3, [r3]
 3756 0498 002B     		cmp	r3, #0
 3757 049a 0CD1     		bne	.L265
 945:.\BLEApplication.c ****                 range.endHandle=0xFFFF;       
 3758              		.loc 1 945 0
 3759 049c 0DA9     		add	r1, sp, #52
 3760 049e 0133     		add	r3, r3, #1
 3761 04a0 0B80     		strh	r3, [r1]
 946:.\BLEApplication.c ****                 API_RESULT=CyBle_GattcDiscoverAllCharacteristicDescriptors(cyBle_connHandle,&range)
 3762              		.loc 1 946 0
 3763 04a2 023B     		sub	r3, r3, #2
 3764 04a4 4B80     		strh	r3, [r1, #2]
 947:.\BLEApplication.c ****             }
 3765              		.loc 1 947 0
 3766 04a6 B04A     		ldr	r2, .L313+20
 3767 04a8 1378     		ldrb	r3, [r2]
 3768 04aa 5078     		ldrb	r0, [r2, #1]
 3769 04ac 0002     		lsl	r0, r0, #8
 3770 04ae 1843     		orr	r0, r3
 3771 04b0 FFF7FEFF 		bl	CyBle_GattcDiscoverAllCharacteristicDescriptors
 3772              	.LVL470:
 3773 04b4 F8E1     		b	.L211
 3774              	.LVL471:
 3775              	.L265:
 951:.\BLEApplication.c ****             }
 3776              		.loc 1 951 0
 3777 04b6 AD48     		ldr	r0, .L313+24
 3778 04b8 FFF7FEFF 		bl	puts
 3779              	.LVL472:
 3780 04bc F4E1     		b	.L211
 3781              	.L225:
 956:.\BLEApplication.c ****             {
 3782              		.loc 1 956 0
 3783 04be A54B     		ldr	r3, .L313
 3784 04c0 1B78     		ldrb	r3, [r3]
 3785 04c2 002B     		cmp	r3, #0
ARM GAS  C:\Users\Helon\AppData\Local\Temp\cckZyeCc.s 			page 108


 3786 04c4 42D1     		bne	.L266
 958:.\BLEApplication.c ****                 {
 3787              		.loc 1 958 0
 3788 04c6 2B7A     		ldrb	r3, [r5, #8]
 3789 04c8 312B     		cmp	r3, #49
 3790 04ca 0AD1     		bne	.L267
 960:.\BLEApplication.c ****                     {
 3791              		.loc 1 960 0
 3792 04cc A44B     		ldr	r3, .L313+12
 3793 04ce 1B78     		ldrb	r3, [r3]
 3794 04d0 022B     		cmp	r3, #2
 3795 04d2 00D1     		bne	.LCB3426
 3796 04d4 E8E1     		b	.L211	@long jump
 3797              	.LCB3426:
 962:.\BLEApplication.c ****                         CyBle_GapcStartScan(CYBLE_SCANNING_FAST);
 3798              		.loc 1 962 0
 3799 04d6 FFF7FEFF 		bl	ScanDeviceInfoInit
 3800              	.LVL473:
 963:.\BLEApplication.c ****                     }
 3801              		.loc 1 963 0
 3802 04da 0020     		mov	r0, #0
 3803 04dc FFF7FEFF 		bl	CyBle_GapcStartScan
 3804              	.LVL474:
 3805 04e0 E2E1     		b	.L211
 3806              	.L267:
 967:.\BLEApplication.c ****                 {
 3807              		.loc 1 967 0
 3808 04e2 302B     		cmp	r3, #48
 3809 04e4 0CD1     		bne	.L268
 969:.\BLEApplication.c ****                     {
 3810              		.loc 1 969 0
 3811 04e6 9E4B     		ldr	r3, .L313+12
 3812 04e8 1B78     		ldrb	r3, [r3]
 3813 04ea 042B     		cmp	r3, #4
 3814 04ec 00D0     		beq	.LCB3441
 3815 04ee DBE1     		b	.L211	@long jump
 3816              	.LCB3441:
 971:.\BLEApplication.c ****                         CyBle_GapcStopScan();
 3817              		.loc 1 971 0
 3818 04f0 FFF7FEFF 		bl	ScanDeviceInfoInit
 3819              	.LVL475:
 972:.\BLEApplication.c ****                         STOP_SCAN_FLAG=TRUE;
 3820              		.loc 1 972 0
 3821 04f4 FFF7FEFF 		bl	CyBle_GapcStopScan
 3822              	.LVL476:
 973:.\BLEApplication.c ****                     }
 3823              		.loc 1 973 0
 3824 04f8 0122     		mov	r2, #1
 3825 04fa 9D4B     		ldr	r3, .L313+28
 3826 04fc 1A70     		strb	r2, [r3]
 3827 04fe D3E1     		b	.L211
 3828              	.L268:
 976:.\BLEApplication.c ****                 {
 3829              		.loc 1 976 0
 3830 0500 3F2B     		cmp	r3, #63
 3831 0502 00D0     		beq	.LCB3454
 3832 0504 D0E1     		b	.L211	@long jump
ARM GAS  C:\Users\Helon\AppData\Local\Temp\cckZyeCc.s 			page 109


 3833              	.LCB3454:
 3834 0506 1BE0     		b	.L309
 3835              	.LVL477:
 3836              	.L270:
 981:.\BLEApplication.c ****                         DeviceInfo[i].DeviceList.bdAddr[5],
 3837              		.loc 1 981 0 discriminator 3
 3838 0508 9A4E     		ldr	r6, .L313+32
 3839 050a 2501     		lsl	r5, r4, #4
 3840 050c 281B     		sub	r0, r5, r4
 3841 050e 4000     		lsl	r0, r0, #1
 3842 0510 3018     		add	r0, r6, r0
 3843 0512 C179     		ldrb	r1, [r0, #7]
 982:.\BLEApplication.c ****                         DeviceInfo[i].DeviceList.bdAddr[4],
 3844              		.loc 1 982 0 discriminator 3
 3845 0514 4279     		ldrb	r2, [r0, #5]
 983:.\BLEApplication.c ****                         DeviceInfo[i].DeviceList.bdAddr[3],
 3846              		.loc 1 983 0 discriminator 3
 3847 0516 0379     		ldrb	r3, [r0, #4]
 984:.\BLEApplication.c ****                         DeviceInfo[i].DeviceList.bdAddr[2],
 3848              		.loc 1 984 0 discriminator 3
 3849 0518 C778     		ldrb	r7, [r0, #3]
 3850 051a B846     		mov	r8, r7
 985:.\BLEApplication.c ****                         DeviceInfo[i].DeviceList.bdAddr[1],
 3851              		.loc 1 985 0 discriminator 3
 3852 051c 8778     		ldrb	r7, [r0, #2]
 3853 051e BC46     		mov	ip, r7
 986:.\BLEApplication.c ****                         DeviceInfo[i].DeviceList.bdAddr[0]                             
 3854              		.loc 1 986 0 discriminator 3
 3855 0520 4778     		ldrb	r7, [r0, #1]
 987:.\BLEApplication.c ****                       );
 3856              		.loc 1 987 0 discriminator 3
 3857 0522 281B     		sub	r0, r5, r4
 3858 0524 4000     		lsl	r0, r0, #1
 3859 0526 805D     		ldrb	r0, [r0, r6]
 980:.\BLEApplication.c ****                         DeviceInfo[i].idx,
 3860              		.loc 1 980 0 discriminator 3
 3861 0528 4546     		mov	r5, r8
 3862 052a 0095     		str	r5, [sp]
 3863 052c 6546     		mov	r5, ip
 3864 052e 0195     		str	r5, [sp, #4]
 3865 0530 0297     		str	r7, [sp, #8]
 3866 0532 0390     		str	r0, [sp, #12]
 3867 0534 9048     		ldr	r0, .L313+36
 3868 0536 FFF7FEFF 		bl	printf
 3869              	.LVL478:
 978:.\BLEApplication.c ****                     {
 3870              		.loc 1 978 0 discriminator 3
 3871 053a 0134     		add	r4, r4, #1
 3872              	.LVL479:
 3873 053c E4B2     		uxtb	r4, r4
 3874              	.LVL480:
 3875 053e 00E0     		b	.L269
 3876              	.LVL481:
 3877              	.L309:
 3878 0540 0024     		mov	r4, #0
 3879              	.LVL482:
 3880              	.L269:
ARM GAS  C:\Users\Helon\AppData\Local\Temp\cckZyeCc.s 			page 110


 978:.\BLEApplication.c ****                     {
 3881              		.loc 1 978 0 is_stmt 0 discriminator 1
 3882 0542 8E4B     		ldr	r3, .L313+40
 3883 0544 1B78     		ldrb	r3, [r3]
 3884 0546 9C42     		cmp	r4, r3
 3885 0548 DED3     		bcc	.L270
 3886 054a ADE1     		b	.L211
 3887              	.LVL483:
 3888              	.L266:
 995:.\BLEApplication.c ****             }
 3889              		.loc 1 995 0 is_stmt 1
 3890 054c 8C48     		ldr	r0, .L313+44
 3891 054e FFF7FEFF 		bl	puts
 3892              	.LVL484:
 3893 0552 A9E1     		b	.L211
 3894              	.L226:
1000:.\BLEApplication.c ****             {
 3895              		.loc 1 1000 0
 3896 0554 7F4B     		ldr	r3, .L313
 3897 0556 1B78     		ldrb	r3, [r3]
 3898 0558 002B     		cmp	r3, #0
 3899 055a 03D1     		bne	.L271
1002:.\BLEApplication.c ****                 Connect_Device(idx);      
 3900              		.loc 1 1002 0
 3901 055c 687A     		ldrb	r0, [r5, #9]
 3902              	.LVL485:
1003:.\BLEApplication.c ****             }
 3903              		.loc 1 1003 0
 3904 055e FFF7FEFF 		bl	Connect_Device
 3905              	.LVL486:
 3906 0562 A1E1     		b	.L211
 3907              	.LVL487:
 3908              	.L271:
1007:.\BLEApplication.c ****             }
 3909              		.loc 1 1007 0
 3910 0564 8748     		ldr	r0, .L313+48
 3911 0566 FFF7FEFF 		bl	puts
 3912              	.LVL488:
 3913 056a 9DE1     		b	.L211
 3914              	.L227:
1012:.\BLEApplication.c ****             {
 3915              		.loc 1 1012 0
 3916 056c 7C4B     		ldr	r3, .L313+12
 3917 056e 1B78     		ldrb	r3, [r3]
 3918 0570 022B     		cmp	r3, #2
 3919 0572 00D0     		beq	.LCB3551
 3920 0574 98E1     		b	.L211	@long jump
 3921              	.LCB3551:
1014:.\BLEApplication.c ****                 switch(idx)
 3922              		.loc 1 1014 0
 3923 0576 EC7A     		ldrb	r4, [r5, #11]
 3924              	.LVL489:
1015:.\BLEApplication.c ****                 {
 3925              		.loc 1 1015 0
 3926 0578 312C     		cmp	r4, #49
 3927 057a 00D0     		beq	.LCB3555
 3928 057c 94E1     		b	.L211	@long jump
ARM GAS  C:\Users\Helon\AppData\Local\Temp\cckZyeCc.s 			page 111


 3929              	.LCB3555:
1018:.\BLEApplication.c ****                         if(CYBLE_ERROR_OK!=API_RESULT)  
 3930              		.loc 1 1018 0
 3931 057e 7A4B     		ldr	r3, .L313+20
 3932 0580 1878     		ldrb	r0, [r3]
 3933 0582 FFF7FEFF 		bl	CyBle_GapDisconnect
 3934              	.LVL490:
 3935 0586 021E     		sub	r2, r0, #0
 3936              	.LVL491:
1019:.\BLEApplication.c ****                         {
 3937              		.loc 1 1019 0
 3938 0588 22D0     		beq	.L310
1021:.\BLEApplication.c ****                         }
 3939              		.loc 1 1021 0
 3940 058a 211C     		mov	r1, r4
 3941 058c 3039     		sub	r1, r1, #48
 3942 058e 7E48     		ldr	r0, .L313+52
 3943              	.LVL492:
 3944 0590 FFF7FEFF 		bl	printf
 3945              	.LVL493:
 3946 0594 88E1     		b	.L211
 3947              	.LVL494:
 3948              	.L275:
1028:.\BLEApplication.c ****                                 {
 3949              		.loc 1 1028 0
 3950 0596 191C     		mov	r1, r3
 3951 0598 7C48     		ldr	r0, .L313+56
 3952 059a C05C     		ldrb	r0, [r0, r3]
 3953 059c 0128     		cmp	r0, #1
 3954 059e 14D1     		bne	.L274
1030:.\BLEApplication.c ****                                     memset(Conn_Or_Disconn_Info.DeviceAddr[i].bdAddr,0,6);
 3955              		.loc 1 1030 0
 3956 05a0 7A4D     		ldr	r5, .L313+56
 3957              	.LVL495:
 3958 05a2 013A     		sub	r2, r2, #1
 3959 05a4 2A72     		strb	r2, [r5, #8]
1031:.\BLEApplication.c ****                                     Conn_Or_Disconn_Info.Connect_Idx[i]=0;
 3960              		.loc 1 1031 0
 3961 05a6 DB00     		lsl	r3, r3, #3
 3962              	.LVL496:
 3963 05a8 5B1A     		sub	r3, r3, r1
 3964 05aa 0833     		add	r3, r3, #8
 3965 05ac 5B19     		add	r3, r3, r5
 3966 05ae 0022     		mov	r2, #0
 3967 05b0 5A70     		strb	r2, [r3, #1]
 3968 05b2 9A70     		strb	r2, [r3, #2]
 3969 05b4 DA70     		strb	r2, [r3, #3]
 3970 05b6 1A71     		strb	r2, [r3, #4]
 3971 05b8 5A71     		strb	r2, [r3, #5]
 3972 05ba 9A71     		strb	r2, [r3, #6]
1032:.\BLEApplication.c ****                                     Conn_Or_Disconn_Info.Disconn_Idx[0]=idx-0x30;
 3973              		.loc 1 1032 0
 3974 05bc 6A54     		strb	r2, [r5, r1]
1033:.\BLEApplication.c ****                                     Conn_or_Disconn_Idx=idx-0x30;
 3975              		.loc 1 1033 0
 3976 05be 303C     		sub	r4, r4, #48
 3977              	.LVL497:
ARM GAS  C:\Users\Helon\AppData\Local\Temp\cckZyeCc.s 			page 112


 3978 05c0 E4B2     		uxtb	r4, r4
 3979              	.LVL498:
 3980 05c2 2C71     		strb	r4, [r5, #4]
1034:.\BLEApplication.c ****                                     break;
 3981              		.loc 1 1034 0
 3982 05c4 6A4B     		ldr	r3, .L313+28
 3983 05c6 5C70     		strb	r4, [r3, #1]
1035:.\BLEApplication.c ****                                 }
 3984              		.loc 1 1035 0
 3985 05c8 6EE1     		b	.L211
 3986              	.LVL499:
 3987              	.L274:
1026:.\BLEApplication.c ****                             {
 3988              		.loc 1 1026 0 discriminator 2
 3989 05ca 0133     		add	r3, r3, #1
 3990              	.LVL500:
 3991 05cc DBB2     		uxtb	r3, r3
 3992              	.LVL501:
 3993 05ce 00E0     		b	.L273
 3994              	.LVL502:
 3995              	.L310:
 3996 05d0 0023     		mov	r3, #0
 3997              	.LVL503:
 3998              	.L273:
1026:.\BLEApplication.c ****                             {
 3999              		.loc 1 1026 0 is_stmt 0 discriminator 1
 4000 05d2 6E4A     		ldr	r2, .L313+56
 4001 05d4 127A     		ldrb	r2, [r2, #8]
 4002 05d6 9A42     		cmp	r2, r3
 4003 05d8 DDD8     		bhi	.L275
 4004 05da 65E1     		b	.L211
 4005              	.LVL504:
 4006              	.L228:
1057:.\BLEApplication.c ****             {
 4007              		.loc 1 1057 0 is_stmt 1
 4008 05dc 604B     		ldr	r3, .L313+12
 4009 05de 1B78     		ldrb	r3, [r3]
 4010 05e0 022B     		cmp	r3, #2
 4011 05e2 00D0     		beq	.LCB3643
 4012 05e4 60E1     		b	.L211	@long jump
 4013              	.LCB3643:
1059:.\BLEApplication.c ****                 if(idx=='?')
 4014              		.loc 1 1059 0
 4015 05e6 2B7A     		ldrb	r3, [r5, #8]
 4016              	.LVL505:
1060:.\BLEApplication.c ****                     printf("+RSSI:<%ddBm>\r\n",CyBle_GetRssi());
 4017              		.loc 1 1060 0
 4018 05e8 3F2B     		cmp	r3, #63
 4019 05ea 00D0     		beq	.LCB3647
 4020 05ec 5CE1     		b	.L211	@long jump
 4021              	.LCB3647:
1061:.\BLEApplication.c ****             }            
 4022              		.loc 1 1061 0
 4023 05ee FFF7FEFF 		bl	CyBle_GetRssi
 4024              	.LVL506:
 4025 05f2 011C     		mov	r1, r0
 4026 05f4 6648     		ldr	r0, .L313+60
ARM GAS  C:\Users\Helon\AppData\Local\Temp\cckZyeCc.s 			page 113


 4027 05f6 FFF7FEFF 		bl	printf
 4028              	.LVL507:
 4029 05fa 55E1     		b	.L211
 4030              	.LVL508:
 4031              	.L231:
1066:.\BLEApplication.c ****             {
 4032              		.loc 1 1066 0
 4033 05fc 584B     		ldr	r3, .L313+12
 4034 05fe 1B78     		ldrb	r3, [r3]
 4035 0600 022B     		cmp	r3, #2
 4036 0602 0DD1     		bne	.L276
1066:.\BLEApplication.c ****             {
 4037              		.loc 1 1066 0 is_stmt 0 discriminator 1
 4038 0604 534B     		ldr	r3, .L313
 4039 0606 1B78     		ldrb	r3, [r3]
 4040 0608 002B     		cmp	r3, #0
 4041 060a 09D1     		bne	.L276
1068:.\BLEApplication.c **** //                MTU_REQ_FLAG=TRUE;                
 4042              		.loc 1 1068 0 is_stmt 1
 4043 060c 6B7A     		ldrb	r3, [r5, #9]
 4044              	.LVL509:
1070:.\BLEApplication.c ****                 {                           
 4045              		.loc 1 1070 0
 4046 060e 3F2B     		cmp	r3, #63
 4047 0610 00D0     		beq	.LCB3672
 4048 0612 49E1     		b	.L211	@long jump
 4049              	.LCB3672:
1072:.\BLEApplication.c ****                     Timer_Enable();
 4050              		.loc 1 1072 0
 4051 0614 5F48     		ldr	r0, .L313+64
 4052 0616 FFF7FEFF 		bl	puts
 4053              	.LVL510:
1073:.\BLEApplication.c ****                     //‰∏ªÊú∫ÂèëÈÄÅÁöÑMTU exchange request
 4054              		.loc 1 1073 0
 4055 061a FFF7FEFF 		bl	Timer_Enable
 4056              	.LVL511:
 4057 061e 43E1     		b	.L211
 4058              	.LVL512:
 4059              	.L276:
1104:.\BLEApplication.c ****                 testCount=0;
 4060              		.loc 1 1104 0
 4061 0620 534C     		ldr	r4, .L313+28
 4062 0622 5D48     		ldr	r0, .L313+68
 4063 0624 6168     		ldr	r1, [r4, #4]
 4064 0626 FFF7FEFF 		bl	printf
 4065              	.LVL513:
1105:.\BLEApplication.c ****             }
 4066              		.loc 1 1105 0
 4067 062a 0023     		mov	r3, #0
 4068 062c 6360     		str	r3, [r4, #4]
 4069 062e 3BE1     		b	.L211
 4070              	.L232:
1110:.\BLEApplication.c ****             if((CYBLE_STATE_CONNECTED==CyBle_GetState())&&(Central==Role))//‰∏ªÊú∫Ê®°Âºè‰∏ã‰∏îÊòØAT
 4071              		.loc 1 1110 0
 4072 0630 AA7A     		ldrb	r2, [r5, #10]
 4073              	.LVL514:
1111:.\BLEApplication.c ****             {                
ARM GAS  C:\Users\Helon\AppData\Local\Temp\cckZyeCc.s 			page 114


 4074              		.loc 1 1111 0
 4075 0632 4B4B     		ldr	r3, .L313+12
 4076 0634 1B78     		ldrb	r3, [r3]
 4077 0636 022B     		cmp	r3, #2
 4078 0638 23D1     		bne	.L277
1111:.\BLEApplication.c ****             {                
 4079              		.loc 1 1111 0 is_stmt 0 discriminator 1
 4080 063a 4649     		ldr	r1, .L313
 4081 063c 0978     		ldrb	r1, [r1]
 4082 063e 0029     		cmp	r1, #0
 4083 0640 1FD1     		bne	.L277
1113:.\BLEApplication.c ****                 {
 4084              		.loc 1 1113 0 is_stmt 1
 4085 0642 312A     		cmp	r2, #49
 4086 0644 02D0     		beq	.L278
 4087 0646 3F2A     		cmp	r2, #63
 4088 0648 17D0     		beq	.L279
 4089 064a 2DE1     		b	.L211
 4090              	.L278:
1129:.\BLEApplication.c ****                         writeRequestData.attrHandle=CYBLE_TROUGHPUT_SERVICE_CUSTOM_CHARACTERISTIC_C
 4091              		.loc 1 1129 0
 4092 064c 5349     		ldr	r1, .L313+72
 4093 064e 0123     		mov	r3, #1
 4094 0650 0A68     		ldr	r2, [r1]
 4095              	.LVL515:
 4096 0652 1370     		strb	r3, [r2]
 4097              	.LVL516:
1130:.\BLEApplication.c ****                         API_RESULT=CyBle_GattcWriteCharacteristicValue(cyBle_connHandle, &writeRequ
 4098              		.loc 1 1130 0
 4099 0654 0E33     		add	r3, r3, #14
 4100 0656 0B81     		strh	r3, [r1, #8]
1131:.\BLEApplication.c ****                         if(CYBLE_ERROR_OK==API_RESULT)
 4101              		.loc 1 1131 0
 4102 0658 434A     		ldr	r2, .L313+20
 4103 065a 1378     		ldrb	r3, [r2]
 4104 065c 5078     		ldrb	r0, [r2, #1]
 4105 065e 0002     		lsl	r0, r0, #8
 4106 0660 1843     		orr	r0, r3
 4107 0662 FFF7FEFF 		bl	CyBle_GattcWriteCharacteristicValue
 4108              	.LVL517:
1132:.\BLEApplication.c ****                         {
 4109              		.loc 1 1132 0
 4110 0666 0028     		cmp	r0, #0
 4111 0668 00D0     		beq	.LCB3735
 4112 066a 1DE1     		b	.L211	@long jump
 4113              	.LCB3735:
1134:.\BLEApplication.c ****                             printf("+MODE=<THROUGHT_MODE>\r\n");
 4114              		.loc 1 1134 0
 4115 066c 0122     		mov	r2, #1
 4116 066e 404B     		ldr	r3, .L313+28
 4117 0670 5A72     		strb	r2, [r3, #9]
1135:.\BLEApplication.c ****                         }
 4118              		.loc 1 1135 0
 4119 0672 4B48     		ldr	r0, .L313+76
 4120              	.LVL518:
 4121 0674 FFF7FEFF 		bl	puts
 4122              	.LVL519:
ARM GAS  C:\Users\Helon\AppData\Local\Temp\cckZyeCc.s 			page 115


 4123 0678 16E1     		b	.L211
 4124              	.LVL520:
 4125              	.L279:
1140:.\BLEApplication.c ****                     break;
 4126              		.loc 1 1140 0
 4127 067a 4A48     		ldr	r0, .L313+80
 4128 067c FFF7FEFF 		bl	puts
 4129              	.LVL521:
1141:.\BLEApplication.c **** //                        API_RESULT=CyBle_GattcReadCharacteristicValue(cyBle_connHandle,readReques
 4130              		.loc 1 1141 0
 4131 0680 12E1     		b	.L211
 4132              	.LVL522:
 4133              	.L277:
1148:.\BLEApplication.c ****             {
 4134              		.loc 1 1148 0
 4135 0682 022B     		cmp	r3, #2
 4136 0684 13D1     		bne	.L280
1148:.\BLEApplication.c ****             {
 4137              		.loc 1 1148 0 is_stmt 0 discriminator 1
 4138 0686 334B     		ldr	r3, .L313
 4139 0688 1B78     		ldrb	r3, [r3]
 4140 068a 012B     		cmp	r3, #1
 4141 068c 0FD1     		bne	.L280
1150:.\BLEApplication.c ****                 {
 4142              		.loc 1 1150 0 is_stmt 1
 4143 068e 312A     		cmp	r2, #49
 4144 0690 02D0     		beq	.L281
 4145 0692 3F2A     		cmp	r2, #63
 4146 0694 07D0     		beq	.L282
 4147 0696 07E1     		b	.L211
 4148              	.L281:
1153:.\BLEApplication.c ****                         printf("+MODE=<THROUGHT_MODE>\r\n");
 4149              		.loc 1 1153 0
 4150 0698 0122     		mov	r2, #1
 4151              	.LVL523:
 4152 069a 354B     		ldr	r3, .L313+28
 4153 069c 5A72     		strb	r2, [r3, #9]
1154:.\BLEApplication.c ****                     break;
 4154              		.loc 1 1154 0
 4155 069e 4048     		ldr	r0, .L313+76
 4156 06a0 FFF7FEFF 		bl	puts
 4157              	.LVL524:
1155:.\BLEApplication.c ****                     case '?'://‰ªéÊú∫Ê®°Âºè‰∏ãÔºåËÉΩÊé•Êî∂Âà∞ËØ•ÂëΩ‰ª§Âàô‰∏ÄÂÆöÊòØATÂëΩ‰ª§Ê®°Âºè
 4158              		.loc 1 1155 0
 4159 06a4 00E1     		b	.L211
 4160              	.LVL525:
 4161              	.L282:
1157:.\BLEApplication.c ****                     break;
 4162              		.loc 1 1157 0
 4163 06a6 3F48     		ldr	r0, .L313+80
 4164 06a8 FFF7FEFF 		bl	puts
 4165              	.LVL526:
1158:.\BLEApplication.c ****                 }
 4166              		.loc 1 1158 0
 4167 06ac FCE0     		b	.L211
 4168              	.LVL527:
 4169              	.L280:
ARM GAS  C:\Users\Helon\AppData\Local\Temp\cckZyeCc.s 			page 116


1164:.\BLEApplication.c ****             }
 4170              		.loc 1 1164 0
 4171 06ae 3E48     		ldr	r0, .L313+84
 4172 06b0 FFF7FEFF 		bl	puts
 4173              	.LVL528:
 4174 06b4 F8E0     		b	.L211
 4175              	.LVL529:
 4176              	.L233:
1169:.\BLEApplication.c ****             if(idx=='?')
 4177              		.loc 1 1169 0
 4178 06b6 6B7A     		ldrb	r3, [r5, #9]
 4179              	.LVL530:
1170:.\BLEApplication.c ****             {
 4180              		.loc 1 1170 0
 4181 06b8 3F2B     		cmp	r3, #63
 4182 06ba 00D0     		beq	.LCB3807
 4183 06bc F4E0     		b	.L211	@long jump
 4184              	.LCB3807:
1172:.\BLEApplication.c ****                 switch(STAUS_T)
 4185              		.loc 1 1172 0
 4186 06be 284B     		ldr	r3, .L313+12
 4187              	.LVL531:
 4188 06c0 1B78     		ldrb	r3, [r3]
 4189              	.LVL532:
1173:.\BLEApplication.c ****                 {
 4190              		.loc 1 1173 0
 4191 06c2 062B     		cmp	r3, #6
 4192 06c4 00D9     		bls	.LCB3813
 4193 06c6 EFE0     		b	.L211	@long jump
 4194              	.LCB3813:
 4195 06c8 9B00     		lsl	r3, r3, #2
 4196              	.LVL533:
 4197 06ca 384A     		ldr	r2, .L313+88
 4198 06cc D358     		ldr	r3, [r2, r3]
 4199 06ce 9F46     		mov	pc, r3
 4200              		.section	.rodata
 4201              		.align	2
 4202              	.L284:
 4203 03e0 D0060000 		.word	.L283
 4204 03e4 D8060000 		.word	.L285
 4205 03e8 E0060000 		.word	.L286
 4206 03ec E8060000 		.word	.L287
 4207 03f0 F0060000 		.word	.L288
 4208 03f4 F8060000 		.word	.L289
 4209 03f8 00070000 		.word	.L290
 4210              		.section	.text.Parser_UartData
 4211              	.L283:
1176:.\BLEApplication.c ****                     break;
 4212              		.loc 1 1176 0
 4213 06d0 3748     		ldr	r0, .L313+92
 4214 06d2 FFF7FEFF 		bl	puts
 4215              	.LVL534:
1177:.\BLEApplication.c ****                     case 1:
 4216              		.loc 1 1177 0
 4217 06d6 E7E0     		b	.L211
 4218              	.LVL535:
 4219              	.L285:
ARM GAS  C:\Users\Helon\AppData\Local\Temp\cckZyeCc.s 			page 117


1179:.\BLEApplication.c ****                     break;
 4220              		.loc 1 1179 0
 4221 06d8 3648     		ldr	r0, .L313+96
 4222 06da FFF7FEFF 		bl	puts
 4223              	.LVL536:
1180:.\BLEApplication.c ****                     case 2:
 4224              		.loc 1 1180 0
 4225 06de E3E0     		b	.L211
 4226              	.LVL537:
 4227              	.L286:
1182:.\BLEApplication.c ****                     break;
 4228              		.loc 1 1182 0
 4229 06e0 3548     		ldr	r0, .L313+100
 4230 06e2 FFF7FEFF 		bl	puts
 4231              	.LVL538:
1183:.\BLEApplication.c ****                     case 3:
 4232              		.loc 1 1183 0
 4233 06e6 DFE0     		b	.L211
 4234              	.LVL539:
 4235              	.L287:
1185:.\BLEApplication.c ****                     break;
 4236              		.loc 1 1185 0
 4237 06e8 3448     		ldr	r0, .L313+104
 4238 06ea FFF7FEFF 		bl	puts
 4239              	.LVL540:
1186:.\BLEApplication.c ****                     case 4:
 4240              		.loc 1 1186 0
 4241 06ee DBE0     		b	.L211
 4242              	.LVL541:
 4243              	.L288:
1188:.\BLEApplication.c ****                     break;
 4244              		.loc 1 1188 0
 4245 06f0 3348     		ldr	r0, .L313+108
 4246 06f2 FFF7FEFF 		bl	puts
 4247              	.LVL542:
1189:.\BLEApplication.c ****                     case 5:
 4248              		.loc 1 1189 0
 4249 06f6 D7E0     		b	.L211
 4250              	.LVL543:
 4251              	.L289:
1191:.\BLEApplication.c ****                     break;
 4252              		.loc 1 1191 0
 4253 06f8 3248     		ldr	r0, .L313+112
 4254 06fa FFF7FEFF 		bl	puts
 4255              	.LVL544:
1192:.\BLEApplication.c ****                     case 6:
 4256              		.loc 1 1192 0
 4257 06fe D3E0     		b	.L211
 4258              	.LVL545:
 4259              	.L290:
1194:.\BLEApplication.c ****                     break;
 4260              		.loc 1 1194 0
 4261 0700 3148     		ldr	r0, .L313+116
 4262 0702 FFF7FEFF 		bl	puts
 4263              	.LVL546:
1195:.\BLEApplication.c ****                     default:
 4264              		.loc 1 1195 0
ARM GAS  C:\Users\Helon\AppData\Local\Temp\cckZyeCc.s 			page 118


 4265 0706 CFE0     		b	.L211
 4266              	.LVL547:
 4267              	.L234:
1203:.\BLEApplication.c ****             if(CYBLE_STATE_CONNECTED!=CyBle_GetState())
 4268              		.loc 1 1203 0
 4269 0708 2A7A     		ldrb	r2, [r5, #8]
 4270              	.LVL548:
1204:.\BLEApplication.c ****             {
 4271              		.loc 1 1204 0
 4272 070a 154B     		ldr	r3, .L313+12
 4273 070c 1B78     		ldrb	r3, [r3]
 4274 070e 022B     		cmp	r3, #2
 4275 0710 60D0     		beq	.L291
1206:.\BLEApplication.c ****                 {
 4276              		.loc 1 1206 0
 4277 0712 312A     		cmp	r2, #49
 4278 0714 0FD1     		bne	.L292
1208:.\BLEApplication.c ****                     {
 4279              		.loc 1 1208 0
 4280 0716 032B     		cmp	r3, #3
 4281 0718 09D0     		beq	.L293
1210:.\BLEApplication.c ****                         if(CYBLE_ERROR_OK==API_RESULT)
 4282              		.loc 1 1210 0
 4283 071a 0020     		mov	r0, #0
 4284 071c FFF7FEFF 		bl	CyBle_GappStartAdvertisement
 4285              	.LVL549:
1211:.\BLEApplication.c ****                         {
 4286              		.loc 1 1211 0
 4287 0720 0028     		cmp	r0, #0
 4288 0722 00D0     		beq	.LCB3920
 4289 0724 C0E0     		b	.L211	@long jump
 4290              	.LCB3920:
1213:.\BLEApplication.c ****                         }
 4291              		.loc 1 1213 0
 4292 0726 2948     		ldr	r0, .L313+120
 4293              	.LVL550:
 4294 0728 FFF7FEFF 		bl	puts
 4295              	.LVL551:
 4296 072c BCE0     		b	.L211
 4297              	.LVL552:
 4298              	.L293:
1218:.\BLEApplication.c ****                     }
 4299              		.loc 1 1218 0
 4300 072e 2748     		ldr	r0, .L313+120
 4301 0730 FFF7FEFF 		bl	puts
 4302              	.LVL553:
 4303 0734 B8E0     		b	.L211
 4304              	.LVL554:
 4305              	.L292:
1221:.\BLEApplication.c ****                 {
 4306              		.loc 1 1221 0
 4307 0736 302A     		cmp	r2, #48
 4308 0738 00D0     		beq	.LCB3941
 4309 073a B5E0     		b	.L211	@long jump
 4310              	.LCB3941:
1223:.\BLEApplication.c ****                     {
 4311              		.loc 1 1223 0
ARM GAS  C:\Users\Helon\AppData\Local\Temp\cckZyeCc.s 			page 119


 4312 073c 032B     		cmp	r3, #3
 4313 073e 05D1     		bne	.L294
1225:.\BLEApplication.c ****                         printf("+ADV=<DISABLE>\r\n");                        
 4314              		.loc 1 1225 0
 4315 0740 FFF7FEFF 		bl	CyBle_GappStopAdvertisement
 4316              	.LVL555:
1226:.\BLEApplication.c ****                     }
 4317              		.loc 1 1226 0
 4318 0744 2248     		ldr	r0, .L313+124
 4319 0746 FFF7FEFF 		bl	puts
 4320              	.LVL556:
 4321 074a ADE0     		b	.L211
 4322              	.LVL557:
 4323              	.L294:
1230:.\BLEApplication.c ****                     }
 4324              		.loc 1 1230 0
 4325 074c 2048     		ldr	r0, .L313+124
 4326 074e FFF7FEFF 		bl	puts
 4327              	.LVL558:
 4328 0752 A9E0     		b	.L211
 4329              	.L314:
 4330              		.align	2
 4331              	.L313:
 4332 0754 00000000 		.word	.LANCHOR1
 4333 0758 88050000 		.word	.LC199
 4334 075c 9C050000 		.word	.LC201
 4335 0760 00000000 		.word	cyBle_state
 4336 0764 BC010000 		.word	.LC75
 4337 0768 00000000 		.word	cyBle_connHandle
 4338 076c B0050000 		.word	.LC203
 4339 0770 00000000 		.word	.LANCHOR0
 4340 0774 00000000 		.word	DeviceInfo
 4341 0778 C8050000 		.word	.LC206
 4342 077c 00000000 		.word	DeviceCount
 4343 0780 F4050000 		.word	.LC209
 4344 0784 08060000 		.word	.LC211
 4345 0788 78000000 		.word	.LC21
 4346 078c 00000000 		.word	Conn_Or_Disconn_Info
 4347 0790 1C060000 		.word	.LC215
 4348 0794 2C060000 		.word	.LC217
 4349 0798 38060000 		.word	.LC219
 4350 079c 00000000 		.word	writeRequestData
 4351 07a0 98000000 		.word	.LC25
 4352 07a4 B0000000 		.word	.LC27
 4353 07a8 40060000 		.word	.LC224
 4354 07ac E0030000 		.word	.L284
 4355 07b0 54060000 		.word	.LC227
 4356 07b4 6C060000 		.word	.LC229
 4357 07b8 8C060000 		.word	.LC231
 4358 07bc A8060000 		.word	.LC233
 4359 07c0 C4060000 		.word	.LC235
 4360 07c4 E0060000 		.word	.LC237
 4361 07c8 FC060000 		.word	.LC239
 4362 07cc 1C070000 		.word	.LC241
 4363 07d0 2C070000 		.word	.LC243
 4364              	.LVL559:
 4365              	.L291:
ARM GAS  C:\Users\Helon\AppData\Local\Temp\cckZyeCc.s 			page 120


1236:.\BLEApplication.c ****             }
 4366              		.loc 1 1236 0
 4367 07d4 3648     		ldr	r0, .L315
 4368 07d6 FFF7FEFF 		bl	puts
 4369              	.LVL560:
 4370 07da 65E0     		b	.L211
 4371              	.LVL561:
 4372              	.L236:
1241:.\BLEApplication.c ****             switch(idx)
 4373              		.loc 1 1241 0
 4374 07dc 6B7A     		ldrb	r3, [r5, #9]
 4375              	.LVL562:
1242:.\BLEApplication.c ****             {
 4376              		.loc 1 1242 0
 4377 07de 303B     		sub	r3, r3, #48
 4378              	.LVL563:
 4379 07e0 DAB2     		uxtb	r2, r3
 4380 07e2 0F2A     		cmp	r2, #15
 4381 07e4 60D8     		bhi	.L211
 4382 07e6 9300     		lsl	r3, r2, #2
 4383              	.LVL564:
 4384 07e8 324A     		ldr	r2, .L315+4
 4385 07ea D358     		ldr	r3, [r2, r3]
 4386 07ec 9F46     		mov	pc, r3
 4387              		.section	.rodata
 4388              		.align	2
 4389              	.L296:
 4390 03fc EE070000 		.word	.L295
 4391 0400 06080000 		.word	.L297
 4392 0404 1E080000 		.word	.L298
 4393 0408 36080000 		.word	.L299
 4394 040c 4E080000 		.word	.L300
 4395 0410 A8080000 		.word	.L211
 4396 0414 A8080000 		.word	.L211
 4397 0418 A8080000 		.word	.L211
 4398 041c A8080000 		.word	.L211
 4399 0420 A8080000 		.word	.L211
 4400 0424 A8080000 		.word	.L211
 4401 0428 A8080000 		.word	.L211
 4402 042c A8080000 		.word	.L211
 4403 0430 A8080000 		.word	.L211
 4404 0434 A8080000 		.word	.L211
 4405 0438 66080000 		.word	.L301
 4406              		.section	.text.Parser_UartData
 4407              	.L295:
1245:.\BLEApplication.c ****                 if(API_RESULT==CYBLE_ERROR_OK)
 4408              		.loc 1 1245 0
 4409 07ee 0020     		mov	r0, #0
 4410 07f0 FFF7FEFF 		bl	CyBle_GapSetIoCap
 4411              	.LVL565:
1246:.\BLEApplication.c ****                 {
 4412              		.loc 1 1246 0
 4413 07f4 0028     		cmp	r0, #0
 4414 07f6 57D1     		bne	.L211
1248:.\BLEApplication.c ****                     iocapability=CYBLE_GAP_IOCAP_DISPLAY_ONLY;
 4415              		.loc 1 1248 0
 4416 07f8 2F48     		ldr	r0, .L315+8
ARM GAS  C:\Users\Helon\AppData\Local\Temp\cckZyeCc.s 			page 121


 4417              	.LVL566:
 4418 07fa FFF7FEFF 		bl	puts
 4419              	.LVL567:
1249:.\BLEApplication.c ****                 }
 4420              		.loc 1 1249 0
 4421 07fe 0022     		mov	r2, #0
 4422 0800 2E4B     		ldr	r3, .L315+12
 4423 0802 5A71     		strb	r2, [r3, #5]
 4424 0804 50E0     		b	.L211
 4425              	.LVL568:
 4426              	.L297:
1253:.\BLEApplication.c ****                 if(API_RESULT==CYBLE_ERROR_OK)
 4427              		.loc 1 1253 0
 4428 0806 0120     		mov	r0, #1
 4429 0808 FFF7FEFF 		bl	CyBle_GapSetIoCap
 4430              	.LVL569:
1254:.\BLEApplication.c ****                 {
 4431              		.loc 1 1254 0
 4432 080c 0028     		cmp	r0, #0
 4433 080e 4BD1     		bne	.L211
1256:.\BLEApplication.c ****                     iocapability=CYBLE_GAP_IOCAP_DISPLAY_YESNO;
 4434              		.loc 1 1256 0
 4435 0810 2B48     		ldr	r0, .L315+16
 4436              	.LVL570:
 4437 0812 FFF7FEFF 		bl	puts
 4438              	.LVL571:
1257:.\BLEApplication.c ****                 }
 4439              		.loc 1 1257 0
 4440 0816 0122     		mov	r2, #1
 4441 0818 284B     		ldr	r3, .L315+12
 4442 081a 5A71     		strb	r2, [r3, #5]
 4443 081c 44E0     		b	.L211
 4444              	.LVL572:
 4445              	.L298:
1261:.\BLEApplication.c ****                 if(API_RESULT==CYBLE_ERROR_OK)
 4446              		.loc 1 1261 0
 4447 081e 0220     		mov	r0, #2
 4448 0820 FFF7FEFF 		bl	CyBle_GapSetIoCap
 4449              	.LVL573:
1262:.\BLEApplication.c ****                 {
 4450              		.loc 1 1262 0
 4451 0824 0028     		cmp	r0, #0
 4452 0826 3FD1     		bne	.L211
1264:.\BLEApplication.c ****                     iocapability=CYBLE_GAP_IOCAP_KEYBOARD_ONLY;
 4453              		.loc 1 1264 0
 4454 0828 2648     		ldr	r0, .L315+20
 4455              	.LVL574:
 4456 082a FFF7FEFF 		bl	puts
 4457              	.LVL575:
1265:.\BLEApplication.c ****                 }
 4458              		.loc 1 1265 0
 4459 082e 0222     		mov	r2, #2
 4460 0830 224B     		ldr	r3, .L315+12
 4461 0832 5A71     		strb	r2, [r3, #5]
 4462 0834 38E0     		b	.L211
 4463              	.LVL576:
 4464              	.L299:
ARM GAS  C:\Users\Helon\AppData\Local\Temp\cckZyeCc.s 			page 122


1269:.\BLEApplication.c ****                 if(API_RESULT==CYBLE_ERROR_OK)
 4465              		.loc 1 1269 0
 4466 0836 0320     		mov	r0, #3
 4467 0838 FFF7FEFF 		bl	CyBle_GapSetIoCap
 4468              	.LVL577:
1270:.\BLEApplication.c ****                 {
 4469              		.loc 1 1270 0
 4470 083c 0028     		cmp	r0, #0
 4471 083e 33D1     		bne	.L211
1272:.\BLEApplication.c ****                     iocapability=CYBLE_GAP_IOCAP_NOINPUT_NOOUTPUT;
 4472              		.loc 1 1272 0
 4473 0840 2148     		ldr	r0, .L315+24
 4474              	.LVL578:
 4475 0842 FFF7FEFF 		bl	puts
 4476              	.LVL579:
1273:.\BLEApplication.c ****                 }
 4477              		.loc 1 1273 0
 4478 0846 0322     		mov	r2, #3
 4479 0848 1C4B     		ldr	r3, .L315+12
 4480 084a 5A71     		strb	r2, [r3, #5]
 4481 084c 2CE0     		b	.L211
 4482              	.LVL580:
 4483              	.L300:
1277:.\BLEApplication.c ****                 if(API_RESULT==CYBLE_ERROR_OK)
 4484              		.loc 1 1277 0
 4485 084e 0420     		mov	r0, #4
 4486 0850 FFF7FEFF 		bl	CyBle_GapSetIoCap
 4487              	.LVL581:
1278:.\BLEApplication.c ****                 {
 4488              		.loc 1 1278 0
 4489 0854 0028     		cmp	r0, #0
 4490 0856 27D1     		bne	.L211
1280:.\BLEApplication.c ****                     iocapability=CYBLE_GAP_IOCAP_KEYBOARD_DISPLAY;
 4491              		.loc 1 1280 0
 4492 0858 1C48     		ldr	r0, .L315+28
 4493              	.LVL582:
 4494 085a FFF7FEFF 		bl	puts
 4495              	.LVL583:
1281:.\BLEApplication.c ****                 }
 4496              		.loc 1 1281 0
 4497 085e 0422     		mov	r2, #4
 4498 0860 164B     		ldr	r3, .L315+12
 4499 0862 5A71     		strb	r2, [r3, #5]
 4500 0864 20E0     		b	.L211
 4501              	.LVL584:
 4502              	.L301:
1285:.\BLEApplication.c ****                     {
 4503              		.loc 1 1285 0
 4504 0866 154B     		ldr	r3, .L315+12
 4505 0868 5A79     		ldrb	r2, [r3, #5]
 4506 086a 042A     		cmp	r2, #4
 4507 086c 1CD8     		bhi	.L211
 4508 086e 9300     		lsl	r3, r2, #2
 4509 0870 174A     		ldr	r2, .L315+32
 4510 0872 D358     		ldr	r3, [r2, r3]
 4511 0874 9F46     		mov	pc, r3
 4512              		.section	.rodata
ARM GAS  C:\Users\Helon\AppData\Local\Temp\cckZyeCc.s 			page 123


 4513              		.align	2
 4514              	.L303:
 4515 043c 76080000 		.word	.L302
 4516 0440 7E080000 		.word	.L304
 4517 0444 86080000 		.word	.L305
 4518 0448 8E080000 		.word	.L306
 4519 044c 96080000 		.word	.L307
 4520              		.section	.text.Parser_UartData
 4521              	.L302:
1288:.\BLEApplication.c ****                         break;
 4522              		.loc 1 1288 0
 4523 0876 1048     		ldr	r0, .L315+8
 4524 0878 FFF7FEFF 		bl	puts
 4525              	.LVL585:
1289:.\BLEApplication.c ****                         case 1:
 4526              		.loc 1 1289 0
 4527 087c 14E0     		b	.L211
 4528              	.LVL586:
 4529              	.L304:
1291:.\BLEApplication.c ****                         break;
 4530              		.loc 1 1291 0
 4531 087e 1048     		ldr	r0, .L315+16
 4532 0880 FFF7FEFF 		bl	puts
 4533              	.LVL587:
1292:.\BLEApplication.c ****                         case 2:
 4534              		.loc 1 1292 0
 4535 0884 10E0     		b	.L211
 4536              	.LVL588:
 4537              	.L305:
1294:.\BLEApplication.c ****                         break;
 4538              		.loc 1 1294 0
 4539 0886 0F48     		ldr	r0, .L315+20
 4540 0888 FFF7FEFF 		bl	puts
 4541              	.LVL589:
1295:.\BLEApplication.c ****                         case 3:
 4542              		.loc 1 1295 0
 4543 088c 0CE0     		b	.L211
 4544              	.LVL590:
 4545              	.L306:
1297:.\BLEApplication.c ****                         break;
 4546              		.loc 1 1297 0
 4547 088e 0E48     		ldr	r0, .L315+24
 4548 0890 FFF7FEFF 		bl	puts
 4549              	.LVL591:
1298:.\BLEApplication.c ****                         case 4:
 4550              		.loc 1 1298 0
 4551 0894 08E0     		b	.L211
 4552              	.LVL592:
 4553              	.L307:
1300:.\BLEApplication.c ****                         break;
 4554              		.loc 1 1300 0
 4555 0896 0D48     		ldr	r0, .L315+28
 4556 0898 FFF7FEFF 		bl	puts
 4557              	.LVL593:
1301:.\BLEApplication.c ****                     }
 4558              		.loc 1 1301 0
 4559 089c 04E0     		b	.L211
ARM GAS  C:\Users\Helon\AppData\Local\Temp\cckZyeCc.s 			page 124


 4560              	.LVL594:
 4561              	.L235:
1309:.\BLEApplication.c ****         break;
 4562              		.loc 1 1309 0
 4563 089e 0D4B     		ldr	r3, .L315+36
 4564 08a0 1878     		ldrb	r0, [r3]
 4565 08a2 0D49     		ldr	r1, .L315+40
 4566 08a4 FFF7FEFF 		bl	CyBle_GapAuthReq
 4567              	.LVL595:
 4568              	.L211:
1315:.\BLEApplication.c **** 
 4569              		.loc 1 1315 0
 4570 08a8 30B0     		add	sp, sp, #192
 4571              		@ sp needed
 4572 08aa 04BC     		pop	{r2}
 4573 08ac 9046     		mov	r8, r2
 4574 08ae F0BD     		pop	{r4, r5, r6, r7, pc}
 4575              	.L316:
 4576              		.align	2
 4577              	.L315:
 4578 08b0 3C070000 		.word	.LC245
 4579 08b4 FC030000 		.word	.L296
 4580 08b8 4C070000 		.word	.LC248
 4581 08bc 80000000 		.word	.LANCHOR2
 4582 08c0 64070000 		.word	.LC251
 4583 08c4 7C070000 		.word	.LC253
 4584 08c8 94070000 		.word	.LC255
 4585 08cc B0070000 		.word	.LC257
 4586 08d0 3C040000 		.word	.L303
 4587 08d4 00000000 		.word	cyBle_connHandle
 4588 08d8 00000000 		.word	cyBle_authInfo
 4589              		.cfi_endproc
 4590              	.LFE43:
 4591              		.size	Parser_UartData, .-Parser_UartData
 4592              		.section	.text.Master_Slave_UartHandler,"ax",%progbits
 4593              		.align	2
 4594              		.global	Master_Slave_UartHandler
 4595              		.code	16
 4596              		.thumb_func
 4597              		.type	Master_Slave_UartHandler, %function
 4598              	Master_Slave_UartHandler:
 4599              	.LFB48:
1499:.\BLEApplication.c ****     uint8_t Uart_Char=0;
 4600              		.loc 1 1499 0
 4601              		.cfi_startproc
 4602              	.LVL596:
 4603 0000 F0B5     		push	{r4, r5, r6, r7, lr}
 4604              		.cfi_def_cfa_offset 20
 4605              		.cfi_offset 4, -20
 4606              		.cfi_offset 5, -16
 4607              		.cfi_offset 6, -12
 4608              		.cfi_offset 7, -8
 4609              		.cfi_offset 14, -4
 4610 0002 4746     		mov	r7, r8
 4611 0004 80B4     		push	{r7}
 4612              		.cfi_def_cfa_offset 24
 4613              		.cfi_offset 8, -24
ARM GAS  C:\Users\Helon\AppData\Local\Temp\cckZyeCc.s 			page 125


 4614 0006 86B0     		sub	sp, sp, #24
 4615              		.cfi_def_cfa_offset 48
 4616 0008 00AF     		add	r7, sp, #0
 4617              		.cfi_def_cfa_register 7
 4618 000a 7860     		str	r0, [r7, #4]
 4619 000c E846     		mov	r8, sp
 4620              	.LVL597:
1502:.\BLEApplication.c ****     CYBLE_API_RESULT_T API_RESULT=0;
 4621              		.loc 1 1502 0
 4622 000e 7C4B     		ldr	r3, .L335
 4623 0010 9B89     		ldrh	r3, [r3, #12]
 4624              	.LVL598:
 4625 0012 0433     		add	r3, r3, #4
 4626              	.LVL599:
 4627 0014 DB08     		lsr	r3, r3, #3
 4628              	.LVL600:
 4629 0016 DB00     		lsl	r3, r3, #3
 4630 0018 6A46     		mov	r2, sp
 4631 001a D31A     		sub	r3, r2, r3
 4632 001c 9D46     		mov	sp, r3
 4633 001e 6E46     		mov	r6, sp
 4634              	.LVL601:
1508:.\BLEApplication.c ****     #ifdef  FLOW_CONTROL//Ê≠§Â§ÑÊúÄÂ•ΩÁΩÆ‰∏ÄGPIOÂè£‰∏∫‰ΩéÁîµÂπ≥ÂëäËØâÂèëÈÄÅÊñπÂÅúÊ≠¢ÂèëÈÄÅÊï∞ÊçÆ
 4635              		.loc 1 1508 0
 4636 0020 FFF7FEFF 		bl	UART_SpiUartGetRxBufferSize
 4637              	.LVL602:
 4638 0024 85B2     		uxth	r5, r0
 4639              	.LVL603:
1510:.\BLEApplication.c ****         {
 4640              		.loc 1 1510 0
 4641 0026 774B     		ldr	r3, .L335+4
 4642 0028 9D42     		cmp	r5, r3
 4643 002a 08D9     		bls	.L318
1512:.\BLEApplication.c ****             CTS_Write(CTS_ON);
 4644              		.loc 1 1512 0
 4645 002c 764A     		ldr	r2, .L335+8
 4646 002e 1368     		ldr	r3, [r2]
 4647 0030 0421     		mov	r1, #4
 4648 0032 8B43     		bic	r3, r1
 4649 0034 1360     		str	r3, [r2]
1513:.\BLEApplication.c ****         }
 4650              		.loc 1 1513 0
 4651 0036 0020     		mov	r0, #0
 4652 0038 FFF7FEFF 		bl	CTS_Write
 4653              	.LVL604:
 4654 003c 07E0     		b	.L319
 4655              	.L318:
1517:.\BLEApplication.c ****             CTS_Write(CTS_OFF);
 4656              		.loc 1 1517 0
 4657 003e 724A     		ldr	r2, .L335+8
 4658 0040 1168     		ldr	r1, [r2]
 4659 0042 0423     		mov	r3, #4
 4660 0044 0B43     		orr	r3, r1
 4661 0046 1360     		str	r3, [r2]
1518:.\BLEApplication.c ****         }
 4662              		.loc 1 1518 0
 4663 0048 0120     		mov	r0, #1
ARM GAS  C:\Users\Helon\AppData\Local\Temp\cckZyeCc.s 			page 126


 4664 004a FFF7FEFF 		bl	CTS_Write
 4665              	.LVL605:
 4666              	.L319:
1522:.\BLEApplication.c ****     {   
 4667              		.loc 1 1522 0
 4668 004e 002D     		cmp	r5, #0
 4669 0050 00D1     		bne	.LCB4302
 4670 0052 A5E0     		b	.L320	@long jump
 4671              	.LCB4302:
1522:.\BLEApplication.c ****     {   
 4672              		.loc 1 1522 0 is_stmt 0 discriminator 1
 4673 0054 6D4B     		ldr	r3, .L335+12
 4674 0056 5B7A     		ldrb	r3, [r3, #9]
 4675 0058 012B     		cmp	r3, #1
 4676 005a 00D0     		beq	.LCB4306
 4677 005c A0E0     		b	.L320	@long jump
 4678              	.LCB4306:
1524:.\BLEApplication.c ****         {
 4679              		.loc 1 1524 0 is_stmt 1
 4680 005e 132D     		cmp	r5, #19
 4681 0060 04D9     		bls	.L321
1526:.\BLEApplication.c ****             uartTxDataLength=DEFAULT_MTU_SIZE-3;
 4682              		.loc 1 1526 0
 4683 0062 6B4A     		ldr	r2, .L335+16
 4684 0064 6B4B     		ldr	r3, .L335+20
 4685 0066 DA80     		strh	r2, [r3, #6]
 4686              	.LVL606:
1527:.\BLEApplication.c ****         }
 4687              		.loc 1 1527 0
 4688 0068 1425     		mov	r5, #20
 4689 006a 07E0     		b	.L322
 4690              	.LVL607:
 4691              	.L321:
1531:.\BLEApplication.c ****             {
 4692              		.loc 1 1531 0
 4693 006c 694A     		ldr	r2, .L335+20
 4694 006e D388     		ldrh	r3, [r2, #6]
 4695 0070 013B     		sub	r3, r3, #1
 4696 0072 9BB2     		uxth	r3, r3
 4697 0074 D380     		strh	r3, [r2, #6]
 4698 0076 002B     		cmp	r3, #0
 4699 0078 00D0     		beq	.L322
1537:.\BLEApplication.c ****             }
 4700              		.loc 1 1537 0
 4701 007a 0025     		mov	r5, #0
 4702              	.LVL608:
 4703              	.L322:
1540:.\BLEApplication.c ****         {
 4704              		.loc 1 1540 0
 4705 007c 002D     		cmp	r5, #0
 4706 007e 00D1     		bne	.LCB4333
 4707 0080 B7E0     		b	.L323	@long jump
 4708              	.LCB4333:
1542:.\BLEApplication.c ****             for(index=0;index<uartTxDataLength;index++)//‰∏çÁÆ°ÊòØ‰∏ªÊú∫ËøòÊòØ‰ªéÊú∫ÔºåÂú®ÈÄè‰º†Ê®°
 4709              		.loc 1 1542 0
 4710 0082 634A     		ldr	r2, .L335+16
 4711 0084 634B     		ldr	r3, .L335+20
ARM GAS  C:\Users\Helon\AppData\Local\Temp\cckZyeCc.s 			page 127


 4712 0086 DA80     		strh	r2, [r3, #6]
 4713              	.LVL609:
1543:.\BLEApplication.c ****             {
 4714              		.loc 1 1543 0
 4715 0088 0024     		mov	r4, #0
 4716 008a 04E0     		b	.L324
 4717              	.LVL610:
 4718              	.L325:
1545:.\BLEApplication.c ****             }
 4719              		.loc 1 1545 0 discriminator 3
 4720 008c FFF7FEFF 		bl	UART_UartGetByte
 4721              	.LVL611:
 4722 0090 3055     		strb	r0, [r6, r4]
1543:.\BLEApplication.c ****             {
 4723              		.loc 1 1543 0 discriminator 3
 4724 0092 631C     		add	r3, r4, #1
 4725 0094 DCB2     		uxtb	r4, r3
 4726              	.LVL612:
 4727              	.L324:
1543:.\BLEApplication.c ****             {
 4728              		.loc 1 1543 0 is_stmt 0 discriminator 1
 4729 0096 A3B2     		uxth	r3, r4
 4730 0098 AB42     		cmp	r3, r5
 4731 009a F7D3     		bcc	.L325
1547:.\BLEApplication.c ****             {
 4732              		.loc 1 1547 0 is_stmt 1
 4733 009c 5E48     		ldr	r0, .L335+24
 4734 009e 311C     		mov	r1, r6
 4735 00a0 0B22     		mov	r2, #11
 4736 00a2 FFF7FEFF 		bl	memcmp
 4737              	.LVL613:
 4738 00a6 0028     		cmp	r0, #0
 4739 00a8 3BD1     		bne	.L326
1549:.\BLEApplication.c ****                 {
 4740              		.loc 1 1549 0
 4741 00aa 7B68     		ldr	r3, [r7, #4]
 4742 00ac 002B     		cmp	r3, #0
 4743 00ae 23D1     		bne	.L327
1551:.\BLEApplication.c ****                     writeRequestData.attrHandle=CYBLE_TROUGHPUT_SERVICE_CUSTOM_CHARACTERISTIC_CLIEN
 4744              		.loc 1 1551 0
 4745 00b0 5A49     		ldr	r1, .L335+28
 4746 00b2 0A68     		ldr	r2, [r1]
 4747 00b4 1370     		strb	r3, [r2]
1552:.\BLEApplication.c ****                     API_RESULT=CyBle_GattcWriteCharacteristicValue(cyBle_connHandle, &writeRequestD
 4748              		.loc 1 1552 0
 4749 00b6 0F33     		add	r3, r3, #15
 4750 00b8 0B81     		strh	r3, [r1, #8]
1553:.\BLEApplication.c ****                     if(CYBLE_ERROR_OK==API_RESULT)
 4751              		.loc 1 1553 0
 4752 00ba 594A     		ldr	r2, .L335+32
 4753 00bc 1378     		ldrb	r3, [r2]
 4754 00be 5078     		ldrb	r0, [r2, #1]
 4755 00c0 0002     		lsl	r0, r0, #8
 4756 00c2 1843     		orr	r0, r3
 4757 00c4 FFF7FEFF 		bl	CyBle_GattcWriteCharacteristicValue
 4758              	.LVL614:
1554:.\BLEApplication.c ****                     {
ARM GAS  C:\Users\Helon\AppData\Local\Temp\cckZyeCc.s 			page 128


 4759              		.loc 1 1554 0
 4760 00c8 0028     		cmp	r0, #0
 4761 00ca 00D0     		beq	.LCB4387
 4762 00cc 91E0     		b	.L323	@long jump
 4763              	.LCB4387:
1556:.\BLEApplication.c ****                         Buffer_Length=0;
 4764              		.loc 1 1556 0
 4765 00ce 4F49     		ldr	r1, .L335+12
 4766 00d0 0023     		mov	r3, #0
 4767 00d2 4B72     		strb	r3, [r1, #9]
1557:.\BLEApplication.c ****                         memset(RX_BUFFER,0,sizeof(RX_BUFFER));
 4768              		.loc 1 1557 0
 4769 00d4 4022     		mov	r2, #64
 4770 00d6 8B54     		strb	r3, [r1, r2]
1558:.\BLEApplication.c ****                         printf("+MODE=<AT_COMMAND_MODE>\r\n");
 4771              		.loc 1 1558 0
 4772 00d8 0B61     		str	r3, [r1, #16]
 4773 00da 4B61     		str	r3, [r1, #20]
 4774 00dc 8B61     		str	r3, [r1, #24]
 4775 00de CB61     		str	r3, [r1, #28]
 4776 00e0 0B62     		str	r3, [r1, #32]
 4777 00e2 4B62     		str	r3, [r1, #36]
 4778 00e4 8B62     		str	r3, [r1, #40]
 4779 00e6 CB62     		str	r3, [r1, #44]
 4780 00e8 0B63     		str	r3, [r1, #48]
 4781 00ea 4B63     		str	r3, [r1, #52]
 4782 00ec 8B63     		str	r3, [r1, #56]
 4783 00ee CB63     		str	r3, [r1, #60]
1559:.\BLEApplication.c ****                     }
 4784              		.loc 1 1559 0
 4785 00f0 4C48     		ldr	r0, .L335+36
 4786              	.LVL615:
 4787 00f2 FFF7FEFF 		bl	puts
 4788              	.LVL616:
 4789 00f6 7CE0     		b	.L323
 4790              	.LVL617:
 4791              	.L327:
1564:.\BLEApplication.c ****                     Buffer_Length=0;
 4792              		.loc 1 1564 0
 4793 00f8 4449     		ldr	r1, .L335+12
 4794 00fa 0023     		mov	r3, #0
 4795 00fc 4B72     		strb	r3, [r1, #9]
1565:.\BLEApplication.c ****                     memset(RX_BUFFER,0,sizeof(RX_BUFFER));
 4796              		.loc 1 1565 0
 4797 00fe 4022     		mov	r2, #64
 4798 0100 8B54     		strb	r3, [r1, r2]
1566:.\BLEApplication.c ****                     printf("+MODE=<AT_COMMAND_MODE>\r\n");
 4799              		.loc 1 1566 0
 4800 0102 0B61     		str	r3, [r1, #16]
 4801 0104 4B61     		str	r3, [r1, #20]
 4802 0106 8B61     		str	r3, [r1, #24]
 4803 0108 CB61     		str	r3, [r1, #28]
 4804 010a 0B62     		str	r3, [r1, #32]
 4805 010c 4B62     		str	r3, [r1, #36]
 4806 010e 8B62     		str	r3, [r1, #40]
 4807 0110 CB62     		str	r3, [r1, #44]
 4808 0112 0B63     		str	r3, [r1, #48]
ARM GAS  C:\Users\Helon\AppData\Local\Temp\cckZyeCc.s 			page 129


 4809 0114 4B63     		str	r3, [r1, #52]
 4810 0116 8B63     		str	r3, [r1, #56]
 4811 0118 CB63     		str	r3, [r1, #60]
1567:.\BLEApplication.c ****                 }
 4812              		.loc 1 1567 0
 4813 011a 4248     		ldr	r0, .L335+36
 4814 011c FFF7FEFF 		bl	puts
 4815              	.LVL618:
 4816 0120 67E0     		b	.L323
 4817              	.L326:
1571:.\BLEApplication.c ****             {
 4818              		.loc 1 1571 0
 4819 0122 4148     		ldr	r0, .L335+40
 4820 0124 311C     		mov	r1, r6
 4821 0126 0B22     		mov	r2, #11
 4822 0128 FFF7FEFF 		bl	memcmp
 4823              	.LVL619:
 4824 012c 0028     		cmp	r0, #0
 4825 012e 13D1     		bne	.L328
1573:.\BLEApplication.c ****                 memset(RX_BUFFER,0,sizeof(RX_BUFFER));
 4826              		.loc 1 1573 0
 4827 0130 3649     		ldr	r1, .L335+12
 4828 0132 0023     		mov	r3, #0
 4829 0134 4022     		mov	r2, #64
 4830 0136 8B54     		strb	r3, [r1, r2]
1574:.\BLEApplication.c ****                 printf("+MODE=<THROUGHT_MODE>\r\n");
 4831              		.loc 1 1574 0
 4832 0138 0B61     		str	r3, [r1, #16]
 4833 013a 4B61     		str	r3, [r1, #20]
 4834 013c 8B61     		str	r3, [r1, #24]
 4835 013e CB61     		str	r3, [r1, #28]
 4836 0140 0B62     		str	r3, [r1, #32]
 4837 0142 4B62     		str	r3, [r1, #36]
 4838 0144 8B62     		str	r3, [r1, #40]
 4839 0146 CB62     		str	r3, [r1, #44]
 4840 0148 0B63     		str	r3, [r1, #48]
 4841 014a 4B63     		str	r3, [r1, #52]
 4842 014c 8B63     		str	r3, [r1, #56]
 4843 014e CB63     		str	r3, [r1, #60]
1575:.\BLEApplication.c ****                 return;
 4844              		.loc 1 1575 0
 4845 0150 3648     		ldr	r0, .L335+44
 4846 0152 FFF7FEFF 		bl	puts
 4847              	.LVL620:
1576:.\BLEApplication.c ****             }
 4848              		.loc 1 1576 0
 4849 0156 4CE0     		b	.L323
 4850              	.L328:
1578:.\BLEApplication.c ****             {
 4851              		.loc 1 1578 0
 4852 0158 7B68     		ldr	r3, [r7, #4]
 4853 015a 012B     		cmp	r3, #1
 4854 015c 16D1     		bne	.L329
1580:.\BLEApplication.c ****                 uartTxDataNtf.value.len  = uartTxDataLength;
 4855              		.loc 1 1580 0
 4856 015e FE60     		str	r6, [r7, #12]
1581:.\BLEApplication.c ****                 uartTxDataNtf.attrHandle = CYBLE_TROUGHPUT_SERVICE_CUSTOM_CHARACTERISTIC_CHAR_HANDL
ARM GAS  C:\Users\Helon\AppData\Local\Temp\cckZyeCc.s 			page 130


 4857              		.loc 1 1581 0
 4858 0160 3D82     		strh	r5, [r7, #16]
1582:.\BLEApplication.c **** //                #ifdef FLOW_CONTROL
 4859              		.loc 1 1582 0
 4860 0162 0D33     		add	r3, r3, #13
 4861 0164 BB82     		strh	r3, [r7, #20]
 4862              	.LVL621:
 4863              	.L330:
1588:.\BLEApplication.c ****                     CyBle_ProcessEvents();
 4864              		.loc 1 1588 0 discriminator 2
 4865 0166 2E4A     		ldr	r2, .L335+32
 4866 0168 1378     		ldrb	r3, [r2]
 4867 016a 5078     		ldrb	r0, [r2, #1]
 4868 016c 0002     		lsl	r0, r0, #8
 4869 016e 1843     		orr	r0, r3
 4870 0170 0C23     		mov	r3, #12
 4871 0172 F918     		add	r1, r7, r3
 4872 0174 FFF7FEFF 		bl	CyBle_GattsNotification
 4873              	.LVL622:
 4874 0178 041C     		mov	r4, r0
 4875              	.LVL623:
1589:.\BLEApplication.c ****                 }
 4876              		.loc 1 1589 0 discriminator 2
 4877 017a FFF7FEFF 		bl	CyBle_ProcessEvents
 4878              	.LVL624:
1591:.\BLEApplication.c ****             }
 4879              		.loc 1 1591 0 discriminator 2
 4880 017e 002C     		cmp	r4, #0
 4881 0180 37D0     		beq	.L323
1591:.\BLEApplication.c ****             }
 4882              		.loc 1 1591 0 is_stmt 0 discriminator 1
 4883 0182 2B4B     		ldr	r3, .L335+48
 4884 0184 1B78     		ldrb	r3, [r3]
 4885 0186 022B     		cmp	r3, #2
 4886 0188 EDD0     		beq	.L330
 4887 018a 32E0     		b	.L323
 4888              	.LVL625:
 4889              	.L329:
1596:.\BLEApplication.c ****                 #endif
 4890              		.loc 1 1596 0 is_stmt 1
 4891 018c 1E4A     		ldr	r2, .L335+8
 4892 018e 1368     		ldr	r3, [r2]
 4893 0190 0421     		mov	r1, #4
 4894 0192 8B43     		bic	r3, r1
 4895 0194 1360     		str	r3, [r2]
1598:.\BLEApplication.c ****             }
 4896              		.loc 1 1598 0
 4897 0196 301C     		mov	r0, r6
 4898 0198 291C     		mov	r1, r5
 4899 019a FFF7FEFF 		bl	SendData_toSlave
 4900              	.LVL626:
 4901 019e 28E0     		b	.L323
 4902              	.LVL627:
 4903              	.L320:
1603:.\BLEApplication.c ****     {            
 4904              		.loc 1 1603 0
 4905 01a0 002D     		cmp	r5, #0
ARM GAS  C:\Users\Helon\AppData\Local\Temp\cckZyeCc.s 			page 131


 4906 01a2 24D0     		beq	.L331
1605:.\BLEApplication.c ****         if('\n'!=Uart_Char)
 4907              		.loc 1 1605 0
 4908 01a4 FFF7FEFF 		bl	UART_UartGetByte
 4909              	.LVL628:
 4910 01a8 C0B2     		uxtb	r0, r0
 4911              	.LVL629:
1606:.\BLEApplication.c ****         {
 4912              		.loc 1 1606 0
 4913 01aa 0A28     		cmp	r0, #10
 4914 01ac 07D0     		beq	.L332
1615:.\BLEApplication.c ****                 Buffer_Length++;
 4915              		.loc 1 1615 0
 4916 01ae 174A     		ldr	r2, .L335+12
 4917 01b0 4021     		mov	r1, #64
 4918 01b2 535C     		ldrb	r3, [r2, r1]
 4919 01b4 D418     		add	r4, r2, r3
 4920 01b6 2074     		strb	r0, [r4, #16]
1616:.\BLEApplication.c **** //            }                
 4921              		.loc 1 1616 0
 4922 01b8 0133     		add	r3, r3, #1
 4923 01ba 5354     		strb	r3, [r2, r1]
 4924 01bc 17E0     		b	.L331
 4925              	.L332:
1622:.\BLEApplication.c ****             Parser_UartData((char*)RX_BUFFER);
 4926              		.loc 1 1622 0
 4927 01be 134D     		ldr	r5, .L335+12
 4928              	.LVL630:
 4929 01c0 4026     		mov	r6, #64
 4930              	.LVL631:
 4931 01c2 AB5D     		ldrb	r3, [r5, r6]
 4932 01c4 EB18     		add	r3, r5, r3
 4933 01c6 1874     		strb	r0, [r3, #16]
1623:.\BLEApplication.c ****             Buffer_Length=0;
 4934              		.loc 1 1623 0
 4935 01c8 2C1C     		mov	r4, r5
 4936 01ca 1034     		add	r4, r4, #16
 4937 01cc 201C     		mov	r0, r4
 4938              	.LVL632:
 4939 01ce FFF7FEFF 		bl	Parser_UartData
 4940              	.LVL633:
1624:.\BLEApplication.c ****             memset(RX_BUFFER,0,sizeof(RX_BUFFER));
 4941              		.loc 1 1624 0
 4942 01d2 0023     		mov	r3, #0
 4943 01d4 AB55     		strb	r3, [r5, r6]
1625:.\BLEApplication.c **** //            if(CommandMode==THROUGHT_MODE)
 4944              		.loc 1 1625 0
 4945 01d6 2B61     		str	r3, [r5, #16]
 4946 01d8 6360     		str	r3, [r4, #4]
 4947 01da A360     		str	r3, [r4, #8]
 4948 01dc E360     		str	r3, [r4, #12]
 4949 01de 2361     		str	r3, [r4, #16]
 4950 01e0 6361     		str	r3, [r4, #20]
 4951 01e2 A361     		str	r3, [r4, #24]
 4952 01e4 E361     		str	r3, [r4, #28]
 4953 01e6 2362     		str	r3, [r4, #32]
 4954 01e8 6362     		str	r3, [r4, #36]
ARM GAS  C:\Users\Helon\AppData\Local\Temp\cckZyeCc.s 			page 132


 4955 01ea A362     		str	r3, [r4, #40]
 4956 01ec E362     		str	r3, [r4, #44]
 4957              	.L331:
 4958 01ee C546     		mov	sp, r8
 4959              	.LVL634:
 4960 01f0 00E0     		b	.L317
 4961              	.LVL635:
 4962              	.L323:
1569:.\BLEApplication.c ****             }  
 4963              		.loc 1 1569 0
 4964 01f2 C546     		mov	sp, r8
 4965              	.LVL636:
 4966              	.L317:
1643:.\BLEApplication.c **** 
 4967              		.loc 1 1643 0
 4968 01f4 BD46     		mov	sp, r7
 4969 01f6 06B0     		add	sp, sp, #24
 4970              		@ sp needed
 4971 01f8 04BC     		pop	{r2}
 4972 01fa 9046     		mov	r8, r2
 4973 01fc F0BD     		pop	{r4, r5, r6, r7, pc}
 4974              	.L336:
 4975 01fe C046     		.align	2
 4976              	.L335:
 4977 0200 00000000 		.word	.LANCHOR1
 4978 0204 FF030000 		.word	1023
 4979 0208 C80F2440 		.word	1076105160
 4980 020c 00000000 		.word	.LANCHOR0
 4981 0210 581B0000 		.word	7000
 4982 0214 80000000 		.word	.LANCHOR2
 4983 0218 DC070000 		.word	.LC265
 4984 021c 00000000 		.word	writeRequestData
 4985 0220 00000000 		.word	cyBle_connHandle
 4986 0224 B0000000 		.word	.LC27
 4987 0228 E8070000 		.word	.LC270
 4988 022c 98000000 		.word	.LC25
 4989 0230 00000000 		.word	cyBle_state
 4990              		.cfi_endproc
 4991              	.LFE48:
 4992              		.size	Master_Slave_UartHandler, .-Master_Slave_UartHandler
 4993              		.section	.text._write,"ax",%progbits
 4994              		.align	2
 4995              		.global	_write
 4996              		.code	16
 4997              		.thumb_func
 4998              		.type	_write, %function
 4999              	_write:
 5000              	.LFB53:
2092:.\BLEApplication.c **** /******************************************************************************
2093:.\BLEApplication.c **** * Function Name: PrintfÂáΩÊï∞ÈáçÊò†Â∞Ñ
2094:.\BLEApplication.c **** ***************************************************************************//**
2095:.\BLEApplication.c **** * 
2096:.\BLEApplication.c **** *  ÈáçÂÜô_write()ÂáΩÊï∞Ôºå‰∏∫‰∫Ü‰ΩøËÉΩPrintfÂáΩÊï∞ÊâìÂç∞‰∏≤Âè£‰ø°ÊÅØ
2097:.\BLEApplication.c **** * 
2098:.\BLEApplication.c **** * \return
2099:.\BLEApplication.c **** *  None
2100:.\BLEApplication.c **** * 
ARM GAS  C:\Users\Helon\AppData\Local\Temp\cckZyeCc.s 			page 133


2101:.\BLEApplication.c **** ******************************************************************************/
2102:.\BLEApplication.c **** #if defined(__ARMCC_VERSION)
2103:.\BLEApplication.c **** /* For MDK/RVDS compiler revise fputc function for printf functionality */
2104:.\BLEApplication.c **** struct __FILE
2105:.\BLEApplication.c **** {
2106:.\BLEApplication.c ****     int handle;
2107:.\BLEApplication.c **** };
2108:.\BLEApplication.c **** enum
2109:.\BLEApplication.c **** {
2110:.\BLEApplication.c ****     STDIN_HANDLE,
2111:.\BLEApplication.c ****     STDOUT_HANDLE,
2112:.\BLEApplication.c ****     STDERR_HANDLE
2113:.\BLEApplication.c **** };
2114:.\BLEApplication.c **** FILE __stdin = {STDIN_HANDLE};
2115:.\BLEApplication.c **** FILE __stdout = {STDOUT_HANDLE};
2116:.\BLEApplication.c **** FILE __stderr = {STDERR_HANDLE};
2117:.\BLEApplication.c **** int fputc(int ch, FILE *file)
2118:.\BLEApplication.c **** {
2119:.\BLEApplication.c ****     int ret = EOF;
2120:.\BLEApplication.c ****     switch( file->handle )
2121:.\BLEApplication.c ****     {
2122:.\BLEApplication.c ****         case STDOUT_HANDLE:
2123:.\BLEApplication.c ****             UART_DEB_UartPutChar(ch);
2124:.\BLEApplication.c ****             ret = ch ;
2125:.\BLEApplication.c ****             break ;
2126:.\BLEApplication.c ****         case STDERR_HANDLE:
2127:.\BLEApplication.c ****             ret = ch ;
2128:.\BLEApplication.c ****             break ;
2129:.\BLEApplication.c ****         default:
2130:.\BLEApplication.c ****             file = file;
2131:.\BLEApplication.c ****             break ;
2132:.\BLEApplication.c ****     }
2133:.\BLEApplication.c ****     return ret ;
2134:.\BLEApplication.c **** }
2135:.\BLEApplication.c **** #elif defined (__ICCARM__)      /* IAR */
2136:.\BLEApplication.c **** /* For IAR compiler revise __write() function for printf functionality */
2137:.\BLEApplication.c **** size_t __write(int handle, const unsigned char * buffer, size_t size)
2138:.\BLEApplication.c **** {
2139:.\BLEApplication.c ****     size_t nChars = 0;
2140:.\BLEApplication.c ****     if (buffer == 0)
2141:.\BLEApplication.c ****     {
2142:.\BLEApplication.c ****         /*
2143:.\BLEApplication.c ****          * This means that we should flush internal buffers.  Since we
2144:.\BLEApplication.c ****          * don't we just return.  (Remember, "handle" == -1 means that all
2145:.\BLEApplication.c ****          * handles should be flushed.)
2146:.\BLEApplication.c ****          */
2147:.\BLEApplication.c ****         return (0);
2148:.\BLEApplication.c ****     }
2149:.\BLEApplication.c ****     for (/* Empty */; size != 0; --size)
2150:.\BLEApplication.c ****     {
2151:.\BLEApplication.c ****         UART_DEB_UartPutChar(*buffer++);
2152:.\BLEApplication.c ****         ++nChars;
2153:.\BLEApplication.c ****     }
2154:.\BLEApplication.c ****     return (nChars);
2155:.\BLEApplication.c **** }
2156:.\BLEApplication.c **** #else  /* (__GNUC__)  GCC */
2157:.\BLEApplication.c **** /* For GCC compiler revise _write() function for printf functionality */
ARM GAS  C:\Users\Helon\AppData\Local\Temp\cckZyeCc.s 			page 134


2158:.\BLEApplication.c **** int _write(int file, char *ptr, int len)
2159:.\BLEApplication.c **** {
 5001              		.loc 1 2159 0
 5002              		.cfi_startproc
 5003              	.LVL637:
 5004 0000 70B5     		push	{r4, r5, r6, lr}
 5005              		.cfi_def_cfa_offset 16
 5006              		.cfi_offset 4, -16
 5007              		.cfi_offset 5, -12
 5008              		.cfi_offset 6, -8
 5009              		.cfi_offset 14, -4
 5010 0002 161C     		mov	r6, r2
 5011              	.LVL638:
2160:.\BLEApplication.c ****     int i;
2161:.\BLEApplication.c ****     file = file;
2162:.\BLEApplication.c ****     for (i = 0; i < len; i++)
 5012              		.loc 1 2162 0
 5013 0004 0024     		mov	r4, #0
 5014 0006 05E0     		b	.L338
 5015              	.LVL639:
 5016              	.L339:
2163:.\BLEApplication.c ****     {
2164:.\BLEApplication.c ****         UART_UartPutChar(*ptr++);//ËøôÈáåÊõø‰ª£ÊàêUARTÁöÑÂèëÈÄÅÂçïÂ≠óËäÇÁöÑÂáΩÊï∞Âç≥ÂèØ
 5017              		.loc 1 2164 0 discriminator 3
 5018 0008 4D1C     		add	r5, r1, #1
 5019              	.LVL640:
 5020 000a 0878     		ldrb	r0, [r1]
 5021 000c FFF7FEFF 		bl	UART_SpiUartWriteTxData
 5022              	.LVL641:
2162:.\BLEApplication.c ****     {
 5023              		.loc 1 2162 0 discriminator 3
 5024 0010 0134     		add	r4, r4, #1
 5025              	.LVL642:
 5026              		.loc 1 2164 0 discriminator 3
 5027 0012 291C     		mov	r1, r5
 5028              	.LVL643:
 5029              	.L338:
2162:.\BLEApplication.c ****     {
 5030              		.loc 1 2162 0 discriminator 1
 5031 0014 B442     		cmp	r4, r6
 5032 0016 F7DB     		blt	.L339
2165:.\BLEApplication.c ****     }
2166:.\BLEApplication.c ****     return len;
2167:.\BLEApplication.c **** }
 5033              		.loc 1 2167 0
 5034 0018 301C     		mov	r0, r6
 5035              		@ sp needed
 5036              	.LVL644:
 5037              	.LVL645:
 5038 001a 70BD     		pop	{r4, r5, r6, pc}
 5039              		.cfi_endproc
 5040              	.LFE53:
 5041              		.size	_write, .-_write
 5042              		.global	Baud_rate_idx
 5043              		.global	STOP_SCAN_FLAG
 5044              		.global	StringArry
 5045              		.global	readRequestData
ARM GAS  C:\Users\Helon\AppData\Local\Temp\cckZyeCc.s 			page 135


 5046              		.comm	writeRequestData,12,4
 5047              		.global	connParam
 5048              		.global	cccdNotifFlagSetStruct
 5049              		.global	cccdNotifEnabledValue
 5050              		.global	_10sIsOver
 5051              		.comm	DeviceAddr,7,4
 5052              		.comm	ConnParam,8,4
 5053              		.global	iocapability
 5054              		.global	testCount
 5055              		.global	CommandMode
 5056              		.global	negotiatedMtu
 5057              		.comm	buffer,20,4
 5058              		.global	Role
 5059              		.global	totalByteCounter
 5060              		.global	charNotificationEnabled
 5061              		.global	TroughtTest_Flag
 5062              		.global	MTU_REQ_FLAG
 5063              		.global	Conn_or_Disconn_Idx
 5064              		.comm	Conn_Or_Disconn_Info,37,4
 5065              		.global	rx_isover
 5066              		.global	Buffer_Length
 5067              		.global	RX_BUFFER
 5068              		.global	LowPower_EN
 5069              		.comm	configUart,112,4
 5070              		.data
 5071              		.align	2
 5072              		.set	.LANCHOR1,. + 0
 5073              		.set	.LANCHOR2,. + 128
 5074              		.type	Role, %object
 5075              		.size	Role, 1
 5076              	Role:
 5077 0000 01       		.byte	1
 5078 0001 000000   		.space	3
 5079              		.type	connParam, %object
 5080              		.size	connParam, 8
 5081              	connParam:
 5082 0004 0600     		.short	6
 5083 0006 0600     		.short	6
 5084 0008 0000     		.short	0
 5085 000a E803     		.short	1000
 5086              		.type	negotiatedMtu, %object
 5087              		.size	negotiatedMtu, 2
 5088              	negotiatedMtu:
 5089 000c 1700     		.short	23
 5090              		.type	LowPower_EN, %object
 5091              		.size	LowPower_EN, 1
 5092              	LowPower_EN:
 5093 000e 01       		.byte	1
 5094 000f 00       		.space	1
 5095              		.type	cccdNotifFlagSetStruct, %object
 5096              		.size	cccdNotifFlagSetStruct, 8
 5097              	cccdNotifFlagSetStruct:
 5098 0010 00000000 		.word	cccdNotifEnabledValue
 5099 0014 0200     		.short	2
 5100 0016 0000     		.short	0
 5101              		.type	StringArry, %object
 5102              		.size	StringArry, 108
ARM GAS  C:\Users\Helon\AppData\Local\Temp\cckZyeCc.s 			page 136


 5103              	StringArry:
 5104 0018 F4070000 		.word	.LC275
 5105 001c 00080000 		.word	.LC276
 5106 0020 0C080000 		.word	.LC277
 5107 0024 18080000 		.word	.LC278
 5108 0028 20080000 		.word	.LC279
 5109 002c 2C080000 		.word	.LC280
 5110 0030 34080000 		.word	.LC281
 5111 0034 3C080000 		.word	.LC282
 5112 0038 44080000 		.word	.LC283
 5113 003c 4C080000 		.word	.LC284
 5114 0040 54080000 		.word	.LC285
 5115 0044 60080000 		.word	.LC286
 5116 0048 68080000 		.word	.LC287
 5117 004c 70080000 		.word	.LC288
 5118 0050 7C080000 		.word	.LC289
 5119 0054 88080000 		.word	.LC290
 5120 0058 94080000 		.word	.LC291
 5121 005c 9C080000 		.word	.LC292
 5122 0060 A4080000 		.word	.LC293
 5123 0064 B4080000 		.word	.LC294
 5124 0068 B8080000 		.word	.LC295
 5125 006c C4080000 		.word	.LC296
 5126 0070 D0080000 		.word	.LC297
 5127 0074 DC080000 		.word	.LC298
 5128 0078 C4080000 		.word	.LC296
 5129 007c E4080000 		.word	.LC299
 5130 0080 EC080000 		.word	.LC300
 5131              		.type	Baud_rate_idx, %object
 5132              		.size	Baud_rate_idx, 1
 5133              	Baud_rate_idx:
 5134 0084 37       		.byte	55
 5135              		.type	iocapability, %object
 5136              		.size	iocapability, 1
 5137              	iocapability:
 5138 0085 03       		.byte	3
 5139              		.type	uartIdleCount.7932, %object
 5140              		.size	uartIdleCount.7932, 2
 5141              	uartIdleCount.7932:
 5142 0086 581B     		.short	7000
 5143              		.type	readRequestData, %object
 5144              		.size	readRequestData, 2
 5145              	readRequestData:
 5146 0088 0F00     		.short	15
 5147 008a 0000     		.space	2
 5148              		.type	cccdNotifEnabledValue, %object
 5149              		.size	cccdNotifEnabledValue, 2
 5150              	cccdNotifEnabledValue:
 5151 008c 01       		.byte	1
 5152 008d 00       		.byte	0
 5153              		.type	MTU_REQ_FLAG, %object
 5154              		.size	MTU_REQ_FLAG, 1
 5155              	MTU_REQ_FLAG:
 5156 008e 01       		.byte	1
 5157 008f 00       		.section	.rodata.str1.4,"aMS",%progbits,1
 5158              		.align	2
 5159              	.LC1:
ARM GAS  C:\Users\Helon\AppData\Local\Temp\cckZyeCc.s 			page 137


 5160 0000 424C4520 		.ascii	"BLE is Ready\015\000"
 5160      69732052 
 5160      65616479 
 5160      0D00
 5161 000e 0000     		.space	2
 5162              	.LC4:
 5163 0010 2B534341 		.ascii	"+SCAN_STOP\015\000"
 5163      4E5F5354 
 5163      4F500D00 
 5164              	.LC6:
 5165 001c 2B534341 		.ascii	"+SCAN_CMP\015\000"
 5165      4E5F434D 
 5165      500D00
 5166 0027 00       		.space	1
 5167              	.LC10:
 5168 0028 2B434F4E 		.ascii	"+CONN_EVT=OK\015\000"
 5168      4E5F4556 
 5168      543D4F4B 
 5168      0D00
 5169 0036 0000     		.space	2
 5170              	.LC12:
 5171 0038 2B434F4E 		.ascii	"+CONN_EVT=<%d,OK>\015\012\000"
 5171      4E5F4556 
 5171      543D3C25 
 5171      642C4F4B 
 5171      3E0D0A00 
 5172              	.LC15:
 5173 004c 2B555044 		.ascii	"+UPDATECONN_EVT=OK\015\000"
 5173      41544543 
 5173      4F4E4E5F 
 5173      4556543D 
 5173      4F4B0D00 
 5174              	.LC19:
 5175 0060 2B444953 		.ascii	"+DISCONN_EVT=<0x%02X>\015\012\000"
 5175      434F4E4E 
 5175      5F455654 
 5175      3D3C3078 
 5175      25303258 
 5176              	.LC21:
 5177 0078 2B444953 		.ascii	"+DISCONN_EVT=<%d,0x%02X>\015\012\000"
 5177      434F4E4E 
 5177      5F455654 
 5177      3D3C2564 
 5177      2C307825 
 5178 0093 00       		.space	1
 5179              	.LC23:
 5180 0094 0D0A00   		.ascii	"\015\012\000"
 5181 0097 00       		.space	1
 5182              	.LC25:
 5183 0098 2B4D4F44 		.ascii	"+MODE=<THROUGHT_MODE>\015\000"
 5183      453D3C54 
 5183      48524F55 
 5183      4748545F 
 5183      4D4F4445 
 5184 00af 00       		.space	1
 5185              	.LC27:
 5186 00b0 2B4D4F44 		.ascii	"+MODE=<AT_COMMAND_MODE>\015\000"
ARM GAS  C:\Users\Helon\AppData\Local\Temp\cckZyeCc.s 			page 138


 5186      453D3C41 
 5186      545F434F 
 5186      4D4D414E 
 5186      445F4D4F 
 5187 00c9 000000   		.space	3
 5188              	.LC29:
 5189 00cc 43616C63 		.ascii	"Calculating throughput. Please wait...\012\015\000"
 5189      756C6174 
 5189      696E6720 
 5189      7468726F 
 5189      75676870 
 5190 00f5 000000   		.space	3
 5191              	.LC31:
 5192 00f8 2B52583D 		.ascii	"+RX=<0x\000"
 5192      3C307800 
 5193              	.LC33:
 5194 0100 25303258 		.ascii	"%02X\000"
 5194      00
 5195 0105 000000   		.space	3
 5196              	.LC35:
 5197 0108 3E0D00   		.ascii	">\015\000"
 5198 010b 00       		.space	1
 5199              	.LC37:
 5200 010c 2B444953 		.ascii	"+DIS_EVT=<0x%02X%02X,0x%02X%02X>\015\012\000"
 5200      5F455654 
 5200      3D3C3078 
 5200      25303258 
 5200      25303258 
 5201 012f 00       		.space	1
 5202              	.LC45:
 5203 0130 53656E64 		.ascii	"Send Compelete!\015\000"
 5203      20436F6D 
 5203      70656C65 
 5203      7465210D 
 5203      00
 5204 0141 000000   		.space	3
 5205              	.LC54:
 5206 0144 41540D0A 		.ascii	"AT\015\012\000"
 5206      00
 5207 0149 000000   		.space	3
 5208              	.LC58:
 5209 014c 53656E64 		.ascii	"SendNotification is %d\015\012\000"
 5209      4E6F7469 
 5209      66696361 
 5209      74696F6E 
 5209      20697320 
 5210 0165 000000   		.space	3
 5211              	.LC65:
 5212 0168 2B434F4E 		.ascii	"+CONN_EVT=<%d,0x%02X>\015\012\000"
 5212      4E5F4556 
 5212      543D3C25 
 5212      642C3078 
 5212      25303258 
 5213              	.LC70:
 5214 0180 2B494E51 		.ascii	"+INQ_CONN:<%d,0x%02X%02X%02X%02X%02X%02X>\015\012\000"
 5214      5F434F4E 
 5214      4E3A3C25 
ARM GAS  C:\Users\Helon\AppData\Local\Temp\cckZyeCc.s 			page 139


 5214      642C3078 
 5214      25303258 
 5215              	.LC73:
 5216 01ac 41542B42 		.ascii	"AT+BAUD=<1200>\015\000"
 5216      4155443D 
 5216      3C313230 
 5216      303E0D00 
 5217              	.LC75:
 5218 01bc 4F4B0D00 		.ascii	"OK\015\000"
 5219              	.LC78:
 5220 01c0 41542B42 		.ascii	"AT+BAUD=<2400>\015\000"
 5220      4155443D 
 5220      3C323430 
 5220      303E0D00 
 5221              	.LC80:
 5222 01d0 41542B42 		.ascii	"AT+BAUD=<4800>\015\000"
 5222      4155443D 
 5222      3C343830 
 5222      303E0D00 
 5223              	.LC82:
 5224 01e0 41542B42 		.ascii	"AT+BAUD=<9600>\015\000"
 5224      4155443D 
 5224      3C393630 
 5224      303E0D00 
 5225              	.LC84:
 5226 01f0 41542B42 		.ascii	"AT+BAUD=<19200>\015\000"
 5226      4155443D 
 5226      3C313932 
 5226      30303E0D 
 5226      00
 5227 0201 000000   		.space	3
 5228              	.LC86:
 5229 0204 41542B42 		.ascii	"AT+BAUD=<38400>\015\000"
 5229      4155443D 
 5229      3C333834 
 5229      30303E0D 
 5229      00
 5230 0215 000000   		.space	3
 5231              	.LC88:
 5232 0218 41542B42 		.ascii	"AT+BAUD=<57600>\015\000"
 5232      4155443D 
 5232      3C353736 
 5232      30303E0D 
 5232      00
 5233 0229 000000   		.space	3
 5234              	.LC90:
 5235 022c 41542B42 		.ascii	"AT+BAUD=<115200>\015\000"
 5235      4155443D 
 5235      3C313135 
 5235      3230303E 
 5235      0D00
 5236 023e 0000     		.space	2
 5237              	.LC92:
 5238 0240 41542B42 		.ascii	"AT+BAUD=<230400>\015\000"
 5238      4155443D 
 5238      3C323330 
 5238      3430303E 
ARM GAS  C:\Users\Helon\AppData\Local\Temp\cckZyeCc.s 			page 140


 5238      0D00
 5239 0252 0000     		.space	2
 5240              	.LC94:
 5241 0254 41542B42 		.ascii	"AT+BAUD=<460800>\015\000"
 5241      4155443D 
 5241      3C343630 
 5241      3830303E 
 5241      0D00
 5242 0266 0000     		.space	2
 5243              	.LC96:
 5244 0268 41542B42 		.ascii	"AT+BAUD=<921600>\015\000"
 5244      4155443D 
 5244      3C393231 
 5244      3630303E 
 5244      0D00
 5245 027a 0000     		.space	2
 5246              	.LC99:
 5247 027c 2B424155 		.ascii	"+BAUD:<1200>\015\000"
 5247      443A3C31 
 5247      3230303E 
 5247      0D00
 5248 028a 0000     		.space	2
 5249              	.LC101:
 5250 028c 2B424155 		.ascii	"+BAUD:<2400>\015\000"
 5250      443A3C32 
 5250      3430303E 
 5250      0D00
 5251 029a 0000     		.space	2
 5252              	.LC103:
 5253 029c 2B424155 		.ascii	"+BAUD:<4800>\015\000"
 5253      443A3C34 
 5253      3830303E 
 5253      0D00
 5254 02aa 0000     		.space	2
 5255              	.LC105:
 5256 02ac 2B424155 		.ascii	"+BAUD:<9600>\015\000"
 5256      443A3C39 
 5256      3630303E 
 5256      0D00
 5257 02ba 0000     		.space	2
 5258              	.LC107:
 5259 02bc 2B424155 		.ascii	"+BAUD:<19200>\015\000"
 5259      443A3C31 
 5259      39323030 
 5259      3E0D00
 5260 02cb 00       		.space	1
 5261              	.LC109:
 5262 02cc 2B424155 		.ascii	"+BAUD:<38400>\015\000"
 5262      443A3C33 
 5262      38343030 
 5262      3E0D00
 5263 02db 00       		.space	1
 5264              	.LC111:
 5265 02dc 2B424155 		.ascii	"+BAUD:<57600>\015\000"
 5265      443A3C35 
 5265      37363030 
 5265      3E0D00
ARM GAS  C:\Users\Helon\AppData\Local\Temp\cckZyeCc.s 			page 141


 5266 02eb 00       		.space	1
 5267              	.LC113:
 5268 02ec 2B424155 		.ascii	"+BAUD:<115200>\015\000"
 5268      443A3C31 
 5268      31353230 
 5268      303E0D00 
 5269              	.LC115:
 5270 02fc 2B424155 		.ascii	"+BAUD:<230400>\015\000"
 5270      443A3C32 
 5270      33303430 
 5270      303E0D00 
 5271              	.LC117:
 5272 030c 2B424155 		.ascii	"+BAUD:<460800>\015\000"
 5272      443A3C34 
 5272      36303830 
 5272      303E0D00 
 5273              	.LC119:
 5274 031c 2B424155 		.ascii	"+BAUD:<921600>\015\000"
 5274      443A3C39 
 5274      32313630 
 5274      303E0D00 
 5275              	.LC124:
 5276 032c 2B545850 		.ascii	"+TXP:<-18dBm>\015\000"
 5276      3A3C2D31 
 5276      3864426D 
 5276      3E0D00
 5277 033b 00       		.space	1
 5278              	.LC126:
 5279 033c 2B545850 		.ascii	"+TXP:<-12dBm>\015\000"
 5279      3A3C2D31 
 5279      3264426D 
 5279      3E0D00
 5280 034b 00       		.space	1
 5281              	.LC128:
 5282 034c 2B545850 		.ascii	"+TXP:<-6dBm>\015\000"
 5282      3A3C2D36 
 5282      64426D3E 
 5282      0D00
 5283 035a 0000     		.space	2
 5284              	.LC130:
 5285 035c 2B545850 		.ascii	"+TXP:<-3dBm>\015\000"
 5285      3A3C2D33 
 5285      64426D3E 
 5285      0D00
 5286 036a 0000     		.space	2
 5287              	.LC132:
 5288 036c 2B545850 		.ascii	"+TXP:<-2dBm>\015\000"
 5288      3A3C2D32 
 5288      64426D3E 
 5288      0D00
 5289 037a 0000     		.space	2
 5290              	.LC134:
 5291 037c 2B545850 		.ascii	"+TXP:<-1dBm>\015\000"
 5291      3A3C2D31 
 5291      64426D3E 
 5291      0D00
 5292 038a 0000     		.space	2
ARM GAS  C:\Users\Helon\AppData\Local\Temp\cckZyeCc.s 			page 142


 5293              	.LC136:
 5294 038c 2B545850 		.ascii	"+TXP:<0dBm>\015\000"
 5294      3A3C3064 
 5294      426D3E0D 
 5294      00
 5295 0399 000000   		.space	3
 5296              	.LC138:
 5297 039c 2B545850 		.ascii	"+TXP:<3dBm>\015\000"
 5297      3A3C3364 
 5297      426D3E0D 
 5297      00
 5298 03a9 000000   		.space	3
 5299              	.LC140:
 5300 03ac 41542B54 		.ascii	"AT+TXP=<-18dBm>\015\000"
 5300      58503D3C 
 5300      2D313864 
 5300      426D3E0D 
 5300      00
 5301 03bd 000000   		.space	3
 5302              	.LC143:
 5303 03c0 41542B54 		.ascii	"AT+TXP=<-12dBm>\015\000"
 5303      58503D3C 
 5303      2D313264 
 5303      426D3E0D 
 5303      00
 5304 03d1 000000   		.space	3
 5305              	.LC145:
 5306 03d4 41542B54 		.ascii	"AT+TXP=<-6dBm>\015\000"
 5306      58503D3C 
 5306      2D366442 
 5306      6D3E0D00 
 5307              	.LC147:
 5308 03e4 41542B54 		.ascii	"AT+TXP=<-3dBm>\015\000"
 5308      58503D3C 
 5308      2D336442 
 5308      6D3E0D00 
 5309              	.LC149:
 5310 03f4 41542B54 		.ascii	"AT+TXP=<-2dBm>\015\000"
 5310      58503D3C 
 5310      2D326442 
 5310      6D3E0D00 
 5311              	.LC151:
 5312 0404 41542B54 		.ascii	"AT+TXP=<-1dBm>\015\000"
 5312      58503D3C 
 5312      2D316442 
 5312      6D3E0D00 
 5313              	.LC153:
 5314 0414 41542B54 		.ascii	"AT+TXP=<0dBm>\015\000"
 5314      58503D3C 
 5314      3064426D 
 5314      3E0D00
 5315 0423 00       		.space	1
 5316              	.LC155:
 5317 0424 41542B54 		.ascii	"AT+TXP=<3dBm>\015\000"
 5317      58503D3C 
 5317      3364426D 
 5317      3E0D00
ARM GAS  C:\Users\Helon\AppData\Local\Temp\cckZyeCc.s 			page 143


 5318 0433 00       		.space	1
 5319              	.LC160:
 5320 0434 41542B52 		.ascii	"AT+RESET=1\015\000"
 5320      45534554 
 5320      3D310D00 
 5321              	.LC162:
 5322 0440 2B564552 		.ascii	"+VERSION=Ver1.0\015\000"
 5322      53494F4E 
 5322      3D566572 
 5322      312E300D 
 5322      00
 5323 0451 000000   		.space	3
 5324              	.LC165:
 5325 0454 2B4C4144 		.ascii	"+LADDR:<0x%02X%02X%02X%02X%02X%02X>\015\012\000"
 5325      44523A3C 
 5325      30782530 
 5325      32582530 
 5325      32582530 
 5326 047a 0000     		.space	2
 5327              	.LC168:
 5328 047c 2B4E414D 		.ascii	"+NAME=<%s>\015\012\000"
 5328      453D3C25 
 5328      733E0D0A 
 5328      00
 5329 0489 000000   		.space	3
 5330              	.LC172:
 5331 048c 2B4E414D 		.ascii	"+NAME=<INVALID>\015\000"
 5331      453D3C49 
 5331      4E56414C 
 5331      49443E0D 
 5331      00
 5332 049d 000000   		.space	3
 5333              	.LC174:
 5334 04a0 2B545850 		.ascii	"+TXP=<INVALID>\015\000"
 5334      3D3C494E 
 5334      56414C49 
 5334      443E0D00 
 5335              	.LC176:
 5336 04b0 2B414456 		.ascii	"+ADVD=<SUCCESS>\015\000"
 5336      443D3C53 
 5336      55434345 
 5336      53533E0D 
 5336      00
 5337 04c1 000000   		.space	3
 5338              	.LC179:
 5339 04c4 2B414456 		.ascii	"+ADVD=<0x\000"
 5339      443D3C30 
 5339      7800
 5340 04ce 0000     		.space	2
 5341              	.LC183:
 5342 04d0 2B414456 		.ascii	"+ADVD=<INVALID>\015\000"
 5342      443D3C49 
 5342      4E56414C 
 5342      49443E0D 
 5342      00
 5343 04e1 000000   		.space	3
 5344              	.LC185:
ARM GAS  C:\Users\Helon\AppData\Local\Temp\cckZyeCc.s 			page 144


 5345 04e4 2B414456 		.ascii	"+ADVI=<MIN=%hdms,MAX=%hdms,TIMEOUT=%hus>\015\012\000"
 5345      493D3C4D 
 5345      494E3D25 
 5345      68646D73 
 5345      2C4D4158 
 5346 050f 00       		.space	1
 5347              	.LC187:
 5348 0510 257300   		.ascii	"%s\000"
 5349 0513 00       		.space	1
 5350              	.LC189:
 5351 0514 2B414456 		.ascii	"+ADVI=<INVALID>\015\000"
 5351      493D3C49 
 5351      4E56414C 
 5351      49443E0D 
 5351      00
 5352 0525 000000   		.space	3
 5353              	.LC192:
 5354 0528 2B434F4E 		.ascii	"+CONNI=<CONNINTV=0x%04X,CONNTO=0x%04X,CONNLATENCY=0"
 5354      4E493D3C 
 5354      434F4E4E 
 5354      494E5456 
 5354      3D307825 
 5355 055b 78253034 		.ascii	"x%04X>\015\012\000"
 5355      583E0D0A 
 5355      00
 5356              	.LC194:
 5357 0564 2B434F4E 		.ascii	"+CONNI=<INVALID>\015\000"
 5357      4E493D3C 
 5357      494E5641 
 5357      4C49443E 
 5357      0D00
 5358 0576 0000     		.space	2
 5359              	.LC197:
 5360 0578 2B434F4E 		.ascii	"+CONNI=<FAIL>\015\000"
 5360      4E493D3C 
 5360      4641494C 
 5360      3E0D00
 5361 0587 00       		.space	1
 5362              	.LC199:
 5363 0588 2B524F4C 		.ascii	"+ROLE:<Peripheral>\015\000"
 5363      453A3C50 
 5363      65726970 
 5363      68657261 
 5363      6C3E0D00 
 5364              	.LC201:
 5365 059c 2B524F4C 		.ascii	"+ROLE:<Central>\015\000"
 5365      453A3C43 
 5365      656E7472 
 5365      616C3E0D 
 5365      00
 5366 05ad 000000   		.space	3
 5367              	.LC203:
 5368 05b0 2B444953 		.ascii	"+DISALLCHAR=<INVALID>\015\000"
 5368      414C4C43 
 5368      4841523D 
 5368      3C494E56 
 5368      414C4944 
ARM GAS  C:\Users\Helon\AppData\Local\Temp\cckZyeCc.s 			page 145


 5369 05c7 00       		.space	1
 5370              	.LC206:
 5371 05c8 2B494E51 		.ascii	"+INQ_SCAN:<%d,0x%02X%02X%02X%02X%02X%02X>\015\012\000"
 5371      5F534341 
 5371      4E3A3C25 
 5371      642C3078 
 5371      25303258 
 5372              	.LC209:
 5373 05f4 2B534341 		.ascii	"+SCAN=<INVALID>\015\000"
 5373      4E3D3C49 
 5373      4E56414C 
 5373      49443E0D 
 5373      00
 5374 0605 000000   		.space	3
 5375              	.LC211:
 5376 0608 2B434F4E 		.ascii	"+CONNT=<INVALID>\015\000"
 5376      4E543D3C 
 5376      494E5641 
 5376      4C49443E 
 5376      0D00
 5377 061a 0000     		.space	2
 5378              	.LC215:
 5379 061c 2B525353 		.ascii	"+RSSI:<%ddBm>\015\012\000"
 5379      493A3C25 
 5379      6464426D 
 5379      3E0D0A00 
 5380              	.LC217:
 5381 062c 54657374 		.ascii	"Test Start\015\000"
 5381      20537461 
 5381      72740D00 
 5382              	.LC219:
 5383 0638 256C640D 		.ascii	"%ld\015\012\000"
 5383      0A00
 5384 063e 0000     		.space	2
 5385              	.LC224:
 5386 0640 2B4E4F54 		.ascii	"+NOTIFY=<INVALID>\015\000"
 5386      4946593D 
 5386      3C494E56 
 5386      414C4944 
 5386      3E0D00
 5387 0653 00       		.space	1
 5388              	.LC227:
 5389 0654 2B535441 		.ascii	"+STAUS=<STATE_STOPPED>\015\000"
 5389      55533D3C 
 5389      53544154 
 5389      455F5354 
 5389      4F505045 
 5390              	.LC229:
 5391 066c 2B535441 		.ascii	"+STAUS=<STATE_INITIALIZING>\015\000"
 5391      55533D3C 
 5391      53544154 
 5391      455F494E 
 5391      49544941 
 5392 0689 000000   		.space	3
 5393              	.LC231:
 5394 068c 2B535441 		.ascii	"+STAUS=<STATE_CONNECTED>\015\000"
 5394      55533D3C 
ARM GAS  C:\Users\Helon\AppData\Local\Temp\cckZyeCc.s 			page 146


 5394      53544154 
 5394      455F434F 
 5394      4E4E4543 
 5395 06a6 0000     		.space	2
 5396              	.LC233:
 5397 06a8 2B535441 		.ascii	"+STAUS=<STATE_ADVERTISING>\015\000"
 5397      55533D3C 
 5397      53544154 
 5397      455F4144 
 5397      56455254 
 5398              	.LC235:
 5399 06c4 2B535441 		.ascii	"+STAUS=<STATE_SCANNING>\015\000"
 5399      55533D3C 
 5399      53544154 
 5399      455F5343 
 5399      414E4E49 
 5400 06dd 000000   		.space	3
 5401              	.LC237:
 5402 06e0 2B535441 		.ascii	"+STAUS=<STATE_CONNECTING>\015\000"
 5402      55533D3C 
 5402      53544154 
 5402      455F434F 
 5402      4E4E4543 
 5403 06fb 00       		.space	1
 5404              	.LC239:
 5405 06fc 2B535441 		.ascii	"+STAUS=<STATE_DISCONNECTED>\015\000"
 5405      55533D3C 
 5405      53544154 
 5405      455F4449 
 5405      53434F4E 
 5406 0719 000000   		.space	3
 5407              	.LC241:
 5408 071c 2B414456 		.ascii	"+ADV=<ENABLE>\015\000"
 5408      3D3C454E 
 5408      41424C45 
 5408      3E0D00
 5409 072b 00       		.space	1
 5410              	.LC243:
 5411 072c 2B414456 		.ascii	"+ADV=<DISABLE>\015\000"
 5411      3D3C4449 
 5411      5341424C 
 5411      453E0D00 
 5412              	.LC245:
 5413 073c 2B414456 		.ascii	"+ADV=<INVALID>\015\000"
 5413      3D3C494E 
 5413      56414C49 
 5413      443E0D00 
 5414              	.LC248:
 5415 074c 2B494F43 		.ascii	"+IOCAP=<DISPLAY_ONLY>\015\000"
 5415      41503D3C 
 5415      44495350 
 5415      4C41595F 
 5415      4F4E4C59 
 5416 0763 00       		.space	1
 5417              	.LC251:
 5418 0764 2B494F43 		.ascii	"+IOCAP=<DISPLAY_YESNO>\015\000"
 5418      41503D3C 
ARM GAS  C:\Users\Helon\AppData\Local\Temp\cckZyeCc.s 			page 147


 5418      44495350 
 5418      4C41595F 
 5418      5945534E 
 5419              	.LC253:
 5420 077c 2B494F43 		.ascii	"+IOCAP=<KEYBOARD_ONLY>\015\000"
 5420      41503D3C 
 5420      4B455942 
 5420      4F415244 
 5420      5F4F4E4C 
 5421              	.LC255:
 5422 0794 2B494F43 		.ascii	"+IOCAP=<NOINPUT_NOOUTPUT>\015\000"
 5422      41503D3C 
 5422      4E4F494E 
 5422      5055545F 
 5422      4E4F4F55 
 5423 07af 00       		.space	1
 5424              	.LC257:
 5425 07b0 2B494F43 		.ascii	"+IOCAP=<CYBLE_GAP_IOCAP_KEYBOARD_DISPLAY>\015\000"
 5425      41503D3C 
 5425      4359424C 
 5425      455F4741 
 5425      505F494F 
 5426 07db 00       		.space	1
 5427              	.LC265:
 5428 07dc 41542B4E 		.ascii	"AT+NOTIFY=0\000"
 5428      4F544946 
 5428      593D3000 
 5429              	.LC270:
 5430 07e8 41542B4E 		.ascii	"AT+NOTIFY=?\000"
 5430      4F544946 
 5430      593D3F00 
 5431              	.LC275:
 5432 07f4 41542B52 		.ascii	"AT+RESET\000"
 5432      45534554 
 5432      00
 5433 07fd 000000   		.space	3
 5434              	.LC276:
 5435 0800 41542B52 		.ascii	"AT+REFAC\000"
 5435      45464143 
 5435      00
 5436 0809 000000   		.space	3
 5437              	.LC277:
 5438 080c 41542B56 		.ascii	"AT+VERSION\000"
 5438      45525349 
 5438      4F4E00
 5439 0817 00       		.space	1
 5440              	.LC278:
 5441 0818 41542B42 		.ascii	"AT+BAUD\000"
 5441      41554400 
 5442              	.LC279:
 5443 0820 41542B4C 		.ascii	"AT+LADDR\000"
 5443      41444452 
 5443      00
 5444 0829 000000   		.space	3
 5445              	.LC280:
 5446 082c 41542B4E 		.ascii	"AT+NAME\000"
 5446      414D4500 
ARM GAS  C:\Users\Helon\AppData\Local\Temp\cckZyeCc.s 			page 148


 5447              	.LC281:
 5448 0834 41542B43 		.ascii	"AT+CPIN\000"
 5448      50494E00 
 5449              	.LC282:
 5450 083c 41542B54 		.ascii	"AT+TXP\000"
 5450      585000
 5451 0843 00       		.space	1
 5452              	.LC283:
 5453 0844 41542B41 		.ascii	"AT+ADVD\000"
 5453      44564400 
 5454              	.LC284:
 5455 084c 41542B41 		.ascii	"AT+ADVI\000"
 5455      44564900 
 5456              	.LC285:
 5457 0854 41542B43 		.ascii	"AT+CONNI\000"
 5457      4F4E4E49 
 5457      00
 5458 085d 000000   		.space	3
 5459              	.LC286:
 5460 0860 41542B52 		.ascii	"AT+ROLE\000"
 5460      4F4C4500 
 5461              	.LC287:
 5462 0868 41542B53 		.ascii	"AT+SCAN\000"
 5462      43414E00 
 5463              	.LC288:
 5464 0870 41542B43 		.ascii	"AT+CONNT\000"
 5464      4F4E4E54 
 5464      00
 5465 0879 000000   		.space	3
 5466              	.LC289:
 5467 087c 41542B44 		.ascii	"AT+DISCONN\000"
 5467      4953434F 
 5467      4E4E00
 5468 0887 00       		.space	1
 5469              	.LC290:
 5470 0888 41542B4C 		.ascii	"AT+LOGIN\000"
 5470      4F47494E 
 5470      00
 5471 0891 000000   		.space	3
 5472              	.LC291:
 5473 0894 41542B54 		.ascii	"AT+TX\000"
 5473      5800
 5474 089a 0000     		.space	2
 5475              	.LC292:
 5476 089c 41542B52 		.ascii	"AT+RSSI\000"
 5476      53534900 
 5477              	.LC293:
 5478 08a4 41542B44 		.ascii	"AT+DISALLCHAR\000"
 5478      4953414C 
 5478      4C434841 
 5478      5200
 5479 08b2 0000     		.space	2
 5480              	.LC294:
 5481 08b4 415400   		.ascii	"AT\000"
 5482 08b7 00       		.space	1
 5483              	.LC295:
 5484 08b8 41542B53 		.ascii	"AT+SPEED\000"
ARM GAS  C:\Users\Helon\AppData\Local\Temp\cckZyeCc.s 			page 149


 5484      50454544 
 5484      00
 5485 08c1 000000   		.space	3
 5486              	.LC296:
 5487 08c4 41542B4E 		.ascii	"AT+NOTIFY\000"
 5487      4F544946 
 5487      5900
 5488 08ce 0000     		.space	2
 5489              	.LC297:
 5490 08d0 41542B53 		.ascii	"AT+STAUS\000"
 5490      54415553 
 5490      00
 5491 08d9 000000   		.space	3
 5492              	.LC298:
 5493 08dc 41542B41 		.ascii	"AT+ADVS\000"
 5493      44565300 
 5494              	.LC299:
 5495 08e4 41542B41 		.ascii	"AT+AUTH\000"
 5495      55544800 
 5496              	.LC300:
 5497 08ec 41542B49 		.ascii	"AT+IOCAP\000"
 5497      4F434150 
 5497      00
 5498 08f5 000000   		.bss
 5499              		.align	2
 5500              		.set	.LANCHOR0,. + 0
 5501              		.type	STOP_SCAN_FLAG, %object
 5502              		.size	STOP_SCAN_FLAG, 1
 5503              	STOP_SCAN_FLAG:
 5504 0000 00       		.space	1
 5505              		.type	Conn_or_Disconn_Idx, %object
 5506              		.size	Conn_or_Disconn_Idx, 1
 5507              	Conn_or_Disconn_Idx:
 5508 0001 00       		.space	1
 5509 0002 0000     		.space	2
 5510              		.type	testCount, %object
 5511              		.size	testCount, 4
 5512              	testCount:
 5513 0004 00000000 		.space	4
 5514              		.type	charNotificationEnabled, %object
 5515              		.size	charNotificationEnabled, 1
 5516              	charNotificationEnabled:
 5517 0008 00       		.space	1
 5518              		.type	CommandMode, %object
 5519              		.size	CommandMode, 1
 5520              	CommandMode:
 5521 0009 00       		.space	1
 5522              		.type	TroughtTest_Flag, %object
 5523              		.size	TroughtTest_Flag, 1
 5524              	TroughtTest_Flag:
 5525 000a 00       		.space	1
 5526 000b 00       		.space	1
 5527              		.type	totalByteCounter, %object
 5528              		.size	totalByteCounter, 4
 5529              	totalByteCounter:
 5530 000c 00000000 		.space	4
 5531              		.type	RX_BUFFER, %object
ARM GAS  C:\Users\Helon\AppData\Local\Temp\cckZyeCc.s 			page 150


 5532              		.size	RX_BUFFER, 48
 5533              	RX_BUFFER:
 5534 0010 00000000 		.space	48
 5534      00000000 
 5534      00000000 
 5534      00000000 
 5534      00000000 
 5535              		.type	Buffer_Length, %object
 5536              		.size	Buffer_Length, 1
 5537              	Buffer_Length:
 5538 0040 00       		.space	1
 5539              		.type	_10sIsOver, %object
 5540              		.size	_10sIsOver, 1
 5541              	_10sIsOver:
 5542 0041 00       		.space	1
 5543 0042 0000     		.space	2
 5544              		.type	timercount.7908, %object
 5545              		.size	timercount.7908, 4
 5546              	timercount.7908:
 5547 0044 00000000 		.space	4
 5548              		.type	rx_isover, %object
 5549              		.size	rx_isover, 1
 5550              	rx_isover:
 5551 0048 00       		.space	1
 5552 0049 000000   		.text
 5553              	.Letext0:
 5554              		.file 2 "c:\\program files (x86)\\cypress\\psoc creator\\3.3\\psoc creator\\import\\gnu\\arm\\4.9.
 5555              		.file 3 "c:\\program files (x86)\\cypress\\psoc creator\\3.3\\psoc creator\\import\\gnu\\arm\\4.9.
 5556              		.file 4 "Generated_Source\\PSoC4/cytypes.h"
 5557              		.file 5 "c:\\program files (x86)\\cypress\\psoc creator\\3.3\\psoc creator\\import\\gnu\\arm\\4.9.
 5558              		.file 6 "Generated_Source\\PSoC4/BLE_Stack.h"
 5559              		.file 7 "Generated_Source\\PSoC4/BLE_StackHostMain.h"
 5560              		.file 8 "Generated_Source\\PSoC4/BLE_StackGap.h"
 5561              		.file 9 "Generated_Source\\PSoC4/BLE_StackGatt.h"
 5562              		.file 10 "Generated_Source\\PSoC4/BLE_StackGattServer.h"
 5563              		.file 11 "Generated_Source\\PSoC4/BLE_StackGattClient.h"
 5564              		.file 12 "Generated_Source\\PSoC4/BLE.h"
 5565              		.file 13 "Generated_Source\\PSoC4/BLE_eventHandler.h"
 5566              		.file 14 "Generated_Source\\PSoC4/UART_SPI_UART.h"
 5567              		.file 15 ".\\BLEApplication.h"
 5568              		.file 16 ".\\BLEClient.h"
 5569              		.file 17 "c:\\program files (x86)\\cypress\\psoc creator\\3.3\\psoc creator\\import\\gnu\\arm\\4.9
 5570              		.file 18 "c:\\program files (x86)\\cypress\\psoc creator\\3.3\\psoc creator\\import\\gnu\\arm\\4.9
 5571              		.file 19 "Generated_Source\\PSoC4/Timer.h"
 5572              		.file 20 "Generated_Source\\PSoC4/isr_UserButton.h"
 5573              		.file 21 "Generated_Source\\PSoC4/UserButton.h"
 5574              		.file 22 "Generated_Source\\PSoC4/Status_LED.h"
 5575              		.file 23 "Generated_Source\\PSoC4/cyPm.h"
 5576              		.file 24 "Generated_Source\\PSoC4/Connected_LED.h"
 5577              		.file 25 "Generated_Source\\PSoC4/CTS.h"
 5578              		.file 26 "Generated_Source\\PSoC4/TimerInterrupt.h"
 5579              		.file 27 "Generated_Source\\PSoC4/UART.h"
 5580              		.file 28 "c:\\program files (x86)\\cypress\\psoc creator\\3.3\\psoc creator\\import\\gnu\\arm\\4.9
 5581              		.file 29 "c:\\program files (x86)\\cypress\\psoc creator\\3.3\\psoc creator\\import\\gnu\\arm\\4.9
 5582              		.file 30 "Generated_Source\\PSoC4/CyLib.h"
 5583              		.file 31 "<built-in>"
 5584              		.section	.debug_info,"",%progbits
ARM GAS  C:\Users\Helon\AppData\Local\Temp\cckZyeCc.s 			page 151


 5585              	.Ldebug_info0:
 5586 0000 C6390000 		.4byte	0x39c6
 5587 0004 0400     		.2byte	0x4
 5588 0006 00000000 		.4byte	.Ldebug_abbrev0
 5589 000a 04       		.byte	0x4
 5590 000b 01       		.uleb128 0x1
 5591 000c FC1E0000 		.4byte	.LASF733
 5592 0010 01       		.byte	0x1
 5593 0011 F03E0000 		.4byte	.LASF734
 5594 0015 83110000 		.4byte	.LASF735
 5595 0019 00000000 		.4byte	.Ldebug_ranges0+0
 5596 001d 00000000 		.4byte	0
 5597 0021 00000000 		.4byte	.Ldebug_line0
 5598 0025 02       		.uleb128 0x2
 5599 0026 BF2F0000 		.4byte	.LASF0
 5600 002a 02       		.byte	0x2
 5601 002b 1B       		.byte	0x1b
 5602 002c 30000000 		.4byte	0x30
 5603 0030 03       		.uleb128 0x3
 5604 0031 01       		.byte	0x1
 5605 0032 06       		.byte	0x6
 5606 0033 9E0E0000 		.4byte	.LASF2
 5607 0037 02       		.uleb128 0x2
 5608 0038 71090000 		.4byte	.LASF1
 5609 003c 02       		.byte	0x2
 5610 003d 1D       		.byte	0x1d
 5611 003e 42000000 		.4byte	0x42
 5612 0042 03       		.uleb128 0x3
 5613 0043 01       		.byte	0x1
 5614 0044 08       		.byte	0x8
 5615 0045 00100000 		.4byte	.LASF3
 5616 0049 02       		.uleb128 0x2
 5617 004a 3C340000 		.4byte	.LASF4
 5618 004e 02       		.byte	0x2
 5619 004f 29       		.byte	0x29
 5620 0050 54000000 		.4byte	0x54
 5621 0054 03       		.uleb128 0x3
 5622 0055 02       		.byte	0x2
 5623 0056 05       		.byte	0x5
 5624 0057 53390000 		.4byte	.LASF5
 5625 005b 02       		.uleb128 0x2
 5626 005c 61140000 		.4byte	.LASF6
 5627 0060 02       		.byte	0x2
 5628 0061 2B       		.byte	0x2b
 5629 0062 66000000 		.4byte	0x66
 5630 0066 03       		.uleb128 0x3
 5631 0067 02       		.byte	0x2
 5632 0068 07       		.byte	0x7
 5633 0069 FB410000 		.4byte	.LASF7
 5634 006d 03       		.uleb128 0x3
 5635 006e 04       		.byte	0x4
 5636 006f 05       		.byte	0x5
 5637 0070 310B0000 		.4byte	.LASF8
 5638 0074 02       		.uleb128 0x2
 5639 0075 56220000 		.4byte	.LASF9
 5640 0079 02       		.byte	0x2
 5641 007a 41       		.byte	0x41
ARM GAS  C:\Users\Helon\AppData\Local\Temp\cckZyeCc.s 			page 152


 5642 007b 7F000000 		.4byte	0x7f
 5643 007f 03       		.uleb128 0x3
 5644 0080 04       		.byte	0x4
 5645 0081 07       		.byte	0x7
 5646 0082 801D0000 		.4byte	.LASF10
 5647 0086 03       		.uleb128 0x3
 5648 0087 08       		.byte	0x8
 5649 0088 05       		.byte	0x5
 5650 0089 D6220000 		.4byte	.LASF11
 5651 008d 03       		.uleb128 0x3
 5652 008e 08       		.byte	0x8
 5653 008f 07       		.byte	0x7
 5654 0090 55300000 		.4byte	.LASF12
 5655 0094 04       		.uleb128 0x4
 5656 0095 04       		.byte	0x4
 5657 0096 05       		.byte	0x5
 5658 0097 696E7400 		.ascii	"int\000"
 5659 009b 03       		.uleb128 0x3
 5660 009c 04       		.byte	0x4
 5661 009d 07       		.byte	0x7
 5662 009e A4270000 		.4byte	.LASF13
 5663 00a2 02       		.uleb128 0x2
 5664 00a3 26000000 		.4byte	.LASF14
 5665 00a7 03       		.byte	0x3
 5666 00a8 14       		.byte	0x14
 5667 00a9 25000000 		.4byte	0x25
 5668 00ad 02       		.uleb128 0x2
 5669 00ae C60E0000 		.4byte	.LASF15
 5670 00b2 03       		.byte	0x3
 5671 00b3 15       		.byte	0x15
 5672 00b4 37000000 		.4byte	0x37
 5673 00b8 02       		.uleb128 0x2
 5674 00b9 653A0000 		.4byte	.LASF16
 5675 00bd 03       		.byte	0x3
 5676 00be 20       		.byte	0x20
 5677 00bf 49000000 		.4byte	0x49
 5678 00c3 02       		.uleb128 0x2
 5679 00c4 C4300000 		.4byte	.LASF17
 5680 00c8 03       		.byte	0x3
 5681 00c9 21       		.byte	0x21
 5682 00ca 5B000000 		.4byte	0x5b
 5683 00ce 02       		.uleb128 0x2
 5684 00cf 40400000 		.4byte	.LASF18
 5685 00d3 03       		.byte	0x3
 5686 00d4 2D       		.byte	0x2d
 5687 00d5 74000000 		.4byte	0x74
 5688 00d9 02       		.uleb128 0x2
 5689 00da B6380000 		.4byte	.LASF19
 5690 00de 04       		.byte	0x4
 5691 00df C2       		.byte	0xc2
 5692 00e0 42000000 		.4byte	0x42
 5693 00e4 02       		.uleb128 0x2
 5694 00e5 4A450000 		.4byte	.LASF20
 5695 00e9 04       		.byte	0x4
 5696 00ea C3       		.byte	0xc3
 5697 00eb 66000000 		.4byte	0x66
 5698 00ef 02       		.uleb128 0x2
ARM GAS  C:\Users\Helon\AppData\Local\Temp\cckZyeCc.s 			page 153


 5699 00f0 50030000 		.4byte	.LASF21
 5700 00f4 04       		.byte	0x4
 5701 00f5 C4       		.byte	0xc4
 5702 00f6 7F000000 		.4byte	0x7f
 5703 00fa 02       		.uleb128 0x2
 5704 00fb F0070000 		.4byte	.LASF22
 5705 00ff 04       		.byte	0x4
 5706 0100 C5       		.byte	0xc5
 5707 0101 30000000 		.4byte	0x30
 5708 0105 03       		.uleb128 0x3
 5709 0106 04       		.byte	0x4
 5710 0107 04       		.byte	0x4
 5711 0108 19260000 		.4byte	.LASF23
 5712 010c 03       		.uleb128 0x3
 5713 010d 08       		.byte	0x8
 5714 010e 04       		.byte	0x4
 5715 010f 10240000 		.4byte	.LASF24
 5716 0113 02       		.uleb128 0x2
 5717 0114 26060000 		.4byte	.LASF25
 5718 0118 04       		.byte	0x4
 5719 0119 D3       		.byte	0xd3
 5720 011a 1E010000 		.4byte	0x11e
 5721 011e 03       		.uleb128 0x3
 5722 011f 01       		.byte	0x1
 5723 0120 08       		.byte	0x8
 5724 0121 6B130000 		.4byte	.LASF26
 5725 0125 05       		.uleb128 0x5
 5726 0126 CD300000 		.4byte	.LASF27
 5727 012a 04       		.byte	0x4
 5728 012b 6E01     		.2byte	0x16e
 5729 012d 31010000 		.4byte	0x131
 5730 0131 06       		.uleb128 0x6
 5731 0132 EF000000 		.4byte	0xef
 5732 0136 05       		.uleb128 0x5
 5733 0137 1F2F0000 		.4byte	.LASF28
 5734 013b 04       		.byte	0x4
 5735 013c 7E01     		.2byte	0x17e
 5736 013e 42010000 		.4byte	0x142
 5737 0142 07       		.uleb128 0x7
 5738 0143 04       		.byte	0x4
 5739 0144 48010000 		.4byte	0x148
 5740 0148 08       		.uleb128 0x8
 5741 0149 02       		.uleb128 0x2
 5742 014a 81000000 		.4byte	.LASF29
 5743 014e 05       		.byte	0x5
 5744 014f D4       		.byte	0xd4
 5745 0150 9B000000 		.4byte	0x9b
 5746 0154 03       		.uleb128 0x3
 5747 0155 04       		.byte	0x4
 5748 0156 07       		.byte	0x7
 5749 0157 88000000 		.4byte	.LASF30
 5750 015b 09       		.uleb128 0x9
 5751 015c 04       		.byte	0x4
 5752 015d 07       		.uleb128 0x7
 5753 015e 04       		.byte	0x4
 5754 015f 1E010000 		.4byte	0x11e
 5755 0163 07       		.uleb128 0x7
ARM GAS  C:\Users\Helon\AppData\Local\Temp\cckZyeCc.s 			page 154


 5756 0164 04       		.byte	0x4
 5757 0165 69010000 		.4byte	0x169
 5758 0169 0A       		.uleb128 0xa
 5759 016a 1E010000 		.4byte	0x11e
 5760 016e 0B       		.uleb128 0xb
 5761 016f 01       		.byte	0x1
 5762 0170 06       		.byte	0x6
 5763 0171 A4       		.byte	0xa4
 5764 0172 F3020000 		.4byte	0x2f3
 5765 0176 0C       		.uleb128 0xc
 5766 0177 11140000 		.4byte	.LASF31
 5767 017b 00       		.sleb128 0
 5768 017c 0C       		.uleb128 0xc
 5769 017d D00B0000 		.4byte	.LASF32
 5770 0181 01       		.sleb128 1
 5771 0182 0C       		.uleb128 0xc
 5772 0183 80300000 		.4byte	.LASF33
 5773 0187 02       		.sleb128 2
 5774 0188 0C       		.uleb128 0xc
 5775 0189 440F0000 		.4byte	.LASF34
 5776 018d 03       		.sleb128 3
 5777 018e 0C       		.uleb128 0xc
 5778 018f 40430000 		.4byte	.LASF35
 5779 0193 04       		.sleb128 4
 5780 0194 0C       		.uleb128 0xc
 5781 0195 971F0000 		.4byte	.LASF36
 5782 0199 05       		.sleb128 5
 5783 019a 0C       		.uleb128 0xc
 5784 019b C13B0000 		.4byte	.LASF37
 5785 019f 20       		.sleb128 32
 5786 01a0 0C       		.uleb128 0xc
 5787 01a1 D9070000 		.4byte	.LASF38
 5788 01a5 21       		.sleb128 33
 5789 01a6 0C       		.uleb128 0xc
 5790 01a7 9C210000 		.4byte	.LASF39
 5791 01ab 22       		.sleb128 34
 5792 01ac 0C       		.uleb128 0xc
 5793 01ad D42A0000 		.4byte	.LASF40
 5794 01b1 23       		.sleb128 35
 5795 01b2 0C       		.uleb128 0xc
 5796 01b3 F61B0000 		.4byte	.LASF41
 5797 01b7 24       		.sleb128 36
 5798 01b8 0C       		.uleb128 0xc
 5799 01b9 451C0000 		.4byte	.LASF42
 5800 01bd 25       		.sleb128 37
 5801 01be 0C       		.uleb128 0xc
 5802 01bf EA370000 		.4byte	.LASF43
 5803 01c3 26       		.sleb128 38
 5804 01c4 0C       		.uleb128 0xc
 5805 01c5 A9020000 		.4byte	.LASF44
 5806 01c9 27       		.sleb128 39
 5807 01ca 0C       		.uleb128 0xc
 5808 01cb AB440000 		.4byte	.LASF45
 5809 01cf 28       		.sleb128 40
 5810 01d0 0C       		.uleb128 0xc
 5811 01d1 C62D0000 		.4byte	.LASF46
 5812 01d5 29       		.sleb128 41
ARM GAS  C:\Users\Helon\AppData\Local\Temp\cckZyeCc.s 			page 155


 5813 01d6 0C       		.uleb128 0xc
 5814 01d7 58200000 		.4byte	.LASF47
 5815 01db 2A       		.sleb128 42
 5816 01dc 0C       		.uleb128 0xc
 5817 01dd A0290000 		.4byte	.LASF48
 5818 01e1 2B       		.sleb128 43
 5819 01e2 0C       		.uleb128 0xc
 5820 01e3 C4400000 		.4byte	.LASF49
 5821 01e7 2C       		.sleb128 44
 5822 01e8 0C       		.uleb128 0xc
 5823 01e9 6D3A0000 		.4byte	.LASF50
 5824 01ed C000     		.sleb128 64
 5825 01ef 0C       		.uleb128 0xc
 5826 01f0 F9020000 		.4byte	.LASF51
 5827 01f4 C100     		.sleb128 65
 5828 01f6 0C       		.uleb128 0xc
 5829 01f7 6D430000 		.4byte	.LASF52
 5830 01fb C200     		.sleb128 66
 5831 01fd 0C       		.uleb128 0xc
 5832 01fe 912E0000 		.4byte	.LASF53
 5833 0202 C300     		.sleb128 67
 5834 0204 0C       		.uleb128 0xc
 5835 0205 0E100000 		.4byte	.LASF54
 5836 0209 C400     		.sleb128 68
 5837 020b 0C       		.uleb128 0xc
 5838 020c A20F0000 		.4byte	.LASF55
 5839 0210 C500     		.sleb128 69
 5840 0212 0C       		.uleb128 0xc
 5841 0213 A1350000 		.4byte	.LASF56
 5842 0217 C600     		.sleb128 70
 5843 0219 0C       		.uleb128 0xc
 5844 021a 83350000 		.4byte	.LASF57
 5845 021e C700     		.sleb128 71
 5846 0220 0C       		.uleb128 0xc
 5847 0221 DA120000 		.4byte	.LASF58
 5848 0225 C800     		.sleb128 72
 5849 0227 0C       		.uleb128 0xc
 5850 0228 5D2B0000 		.4byte	.LASF59
 5851 022c C900     		.sleb128 73
 5852 022e 0C       		.uleb128 0xc
 5853 022f 97140000 		.4byte	.LASF60
 5854 0233 CA00     		.sleb128 74
 5855 0235 0C       		.uleb128 0xc
 5856 0236 A7130000 		.4byte	.LASF61
 5857 023a CB00     		.sleb128 75
 5858 023c 0C       		.uleb128 0xc
 5859 023d 192A0000 		.4byte	.LASF62
 5860 0241 CC00     		.sleb128 76
 5861 0243 0C       		.uleb128 0xc
 5862 0244 07370000 		.4byte	.LASF63
 5863 0248 CD00     		.sleb128 77
 5864 024a 0C       		.uleb128 0xc
 5865 024b D00A0000 		.4byte	.LASF64
 5866 024f CE00     		.sleb128 78
 5867 0251 0C       		.uleb128 0xc
 5868 0252 B1270000 		.4byte	.LASF65
 5869 0256 CF00     		.sleb128 79
ARM GAS  C:\Users\Helon\AppData\Local\Temp\cckZyeCc.s 			page 156


 5870 0258 0C       		.uleb128 0xc
 5871 0259 A23B0000 		.4byte	.LASF66
 5872 025d D000     		.sleb128 80
 5873 025f 0C       		.uleb128 0xc
 5874 0260 FB140000 		.4byte	.LASF67
 5875 0264 D100     		.sleb128 81
 5876 0266 0C       		.uleb128 0xc
 5877 0267 B8070000 		.4byte	.LASF68
 5878 026b D200     		.sleb128 82
 5879 026d 0C       		.uleb128 0xc
 5880 026e 8B3F0000 		.4byte	.LASF69
 5881 0272 D300     		.sleb128 83
 5882 0274 0C       		.uleb128 0xc
 5883 0275 ED440000 		.4byte	.LASF70
 5884 0279 D400     		.sleb128 84
 5885 027b 0C       		.uleb128 0xc
 5886 027c 4C2A0000 		.4byte	.LASF71
 5887 0280 D500     		.sleb128 85
 5888 0282 0C       		.uleb128 0xc
 5889 0283 D3150000 		.4byte	.LASF72
 5890 0287 D600     		.sleb128 86
 5891 0289 0C       		.uleb128 0xc
 5892 028a C5260000 		.4byte	.LASF73
 5893 028e D700     		.sleb128 87
 5894 0290 0C       		.uleb128 0xc
 5895 0291 44410000 		.4byte	.LASF74
 5896 0295 F000     		.sleb128 112
 5897 0297 0C       		.uleb128 0xc
 5898 0298 871A0000 		.4byte	.LASF75
 5899 029c F100     		.sleb128 113
 5900 029e 0C       		.uleb128 0xc
 5901 029f 040E0000 		.4byte	.LASF76
 5902 02a3 F200     		.sleb128 114
 5903 02a5 0C       		.uleb128 0xc
 5904 02a6 843B0000 		.4byte	.LASF77
 5905 02aa F300     		.sleb128 115
 5906 02ac 0C       		.uleb128 0xc
 5907 02ad C42B0000 		.4byte	.LASF78
 5908 02b1 F400     		.sleb128 116
 5909 02b3 0C       		.uleb128 0xc
 5910 02b4 FF200000 		.4byte	.LASF79
 5911 02b8 F500     		.sleb128 117
 5912 02ba 0C       		.uleb128 0xc
 5913 02bb B9120000 		.4byte	.LASF80
 5914 02bf F600     		.sleb128 118
 5915 02c1 0C       		.uleb128 0xc
 5916 02c2 43310000 		.4byte	.LASF81
 5917 02c6 F700     		.sleb128 119
 5918 02c8 0C       		.uleb128 0xc
 5919 02c9 2C060000 		.4byte	.LASF82
 5920 02cd F800     		.sleb128 120
 5921 02cf 0C       		.uleb128 0xc
 5922 02d0 1D110000 		.4byte	.LASF83
 5923 02d4 F900     		.sleb128 121
 5924 02d6 0C       		.uleb128 0xc
 5925 02d7 D1430000 		.4byte	.LASF84
 5926 02db FA00     		.sleb128 122
ARM GAS  C:\Users\Helon\AppData\Local\Temp\cckZyeCc.s 			page 157


 5927 02dd 0C       		.uleb128 0xc
 5928 02de 5C240000 		.4byte	.LASF85
 5929 02e2 FA01     		.sleb128 250
 5930 02e4 0C       		.uleb128 0xc
 5931 02e5 5B3E0000 		.4byte	.LASF86
 5932 02e9 FB01     		.sleb128 251
 5933 02eb 0C       		.uleb128 0xc
 5934 02ec 92290000 		.4byte	.LASF87
 5935 02f0 FF01     		.sleb128 255
 5936 02f2 00       		.byte	0
 5937 02f3 0D       		.uleb128 0xd
 5938 02f4 02       		.byte	0x2
 5939 02f5 06       		.byte	0x6
 5940 02f6 0C02     		.2byte	0x20c
 5941 02f8 AA030000 		.4byte	0x3aa
 5942 02fc 0C       		.uleb128 0xc
 5943 02fd 5D0F0000 		.4byte	.LASF88
 5944 0301 00       		.sleb128 0
 5945 0302 0C       		.uleb128 0xc
 5946 0303 01170000 		.4byte	.LASF89
 5947 0307 01       		.sleb128 1
 5948 0308 0C       		.uleb128 0xc
 5949 0309 22430000 		.4byte	.LASF90
 5950 030d 02       		.sleb128 2
 5951 030e 0C       		.uleb128 0xc
 5952 030f 05190000 		.4byte	.LASF91
 5953 0313 03       		.sleb128 3
 5954 0314 0C       		.uleb128 0xc
 5955 0315 F21C0000 		.4byte	.LASF92
 5956 0319 04       		.sleb128 4
 5957 031a 0C       		.uleb128 0xc
 5958 031b BB230000 		.4byte	.LASF93
 5959 031f 05       		.sleb128 5
 5960 0320 0C       		.uleb128 0xc
 5961 0321 B13D0000 		.4byte	.LASF94
 5962 0325 06       		.sleb128 6
 5963 0326 0C       		.uleb128 0xc
 5964 0327 6C140000 		.4byte	.LASF95
 5965 032b 07       		.sleb128 7
 5966 032c 0C       		.uleb128 0xc
 5967 032d 9A250000 		.4byte	.LASF96
 5968 0331 08       		.sleb128 8
 5969 0332 0C       		.uleb128 0xc
 5970 0333 613C0000 		.4byte	.LASF97
 5971 0337 09       		.sleb128 9
 5972 0338 0C       		.uleb128 0xc
 5973 0339 8C450000 		.4byte	.LASF98
 5974 033d 0A       		.sleb128 10
 5975 033e 0C       		.uleb128 0xc
 5976 033f 4B080000 		.4byte	.LASF99
 5977 0343 0B       		.sleb128 11
 5978 0344 0C       		.uleb128 0xc
 5979 0345 12400000 		.4byte	.LASF100
 5980 0349 0C       		.sleb128 12
 5981 034a 0C       		.uleb128 0xc
 5982 034b FD280000 		.4byte	.LASF101
 5983 034f 0D       		.sleb128 13
ARM GAS  C:\Users\Helon\AppData\Local\Temp\cckZyeCc.s 			page 158


 5984 0350 0C       		.uleb128 0xc
 5985 0351 CD1E0000 		.4byte	.LASF102
 5986 0355 0E       		.sleb128 14
 5987 0356 0C       		.uleb128 0xc
 5988 0357 96230000 		.4byte	.LASF103
 5989 035b 0F       		.sleb128 15
 5990 035c 0C       		.uleb128 0xc
 5991 035d 61050000 		.4byte	.LASF104
 5992 0361 10       		.sleb128 16
 5993 0362 0C       		.uleb128 0xc
 5994 0363 65250000 		.4byte	.LASF105
 5995 0367 11       		.sleb128 17
 5996 0368 0C       		.uleb128 0xc
 5997 0369 E30B0000 		.4byte	.LASF106
 5998 036d 12       		.sleb128 18
 5999 036e 0C       		.uleb128 0xc
 6000 036f 760E0000 		.4byte	.LASF107
 6001 0373 13       		.sleb128 19
 6002 0374 0C       		.uleb128 0xc
 6003 0375 17240000 		.4byte	.LASF108
 6004 0379 27       		.sleb128 39
 6005 037a 0C       		.uleb128 0xc
 6006 037b 7A260000 		.4byte	.LASF109
 6007 037f 28       		.sleb128 40
 6008 0380 0C       		.uleb128 0xc
 6009 0381 A9050000 		.4byte	.LASF110
 6010 0385 29       		.sleb128 41
 6011 0386 0C       		.uleb128 0xc
 6012 0387 541A0000 		.4byte	.LASF111
 6013 038b FF01     		.sleb128 255
 6014 038d 0C       		.uleb128 0xc
 6015 038e 132B0000 		.4byte	.LASF112
 6016 0392 8002     		.sleb128 256
 6017 0394 0C       		.uleb128 0xc
 6018 0395 FA2A0000 		.4byte	.LASF113
 6019 0399 8102     		.sleb128 257
 6020 039b 0C       		.uleb128 0xc
 6021 039c DA0C0000 		.4byte	.LASF114
 6022 03a0 8202     		.sleb128 258
 6023 03a2 0C       		.uleb128 0xc
 6024 03a3 FA300000 		.4byte	.LASF115
 6025 03a7 8302     		.sleb128 259
 6026 03a9 00       		.byte	0
 6027 03aa 05       		.uleb128 0x5
 6028 03ab 7A3E0000 		.4byte	.LASF116
 6029 03af 06       		.byte	0x6
 6030 03b0 6902     		.2byte	0x269
 6031 03b2 F3020000 		.4byte	0x2f3
 6032 03b6 0D       		.uleb128 0xd
 6033 03b7 01       		.byte	0x1
 6034 03b8 06       		.byte	0x6
 6035 03b9 6D02     		.2byte	0x26d
 6036 03bb DF030000 		.4byte	0x3df
 6037 03bf 0C       		.uleb128 0xc
 6038 03c0 C82F0000 		.4byte	.LASF117
 6039 03c4 01       		.sleb128 1
 6040 03c5 0C       		.uleb128 0xc
ARM GAS  C:\Users\Helon\AppData\Local\Temp\cckZyeCc.s 			page 159


 6041 03c6 0B110000 		.4byte	.LASF118
 6042 03ca 02       		.sleb128 2
 6043 03cb 0C       		.uleb128 0xc
 6044 03cc 05230000 		.4byte	.LASF119
 6045 03d0 03       		.sleb128 3
 6046 03d1 0C       		.uleb128 0xc
 6047 03d2 0D3E0000 		.4byte	.LASF120
 6048 03d6 04       		.sleb128 4
 6049 03d7 0C       		.uleb128 0xc
 6050 03d8 AE1B0000 		.4byte	.LASF121
 6051 03dc FF01     		.sleb128 255
 6052 03de 00       		.byte	0
 6053 03df 05       		.uleb128 0x5
 6054 03e0 36130000 		.4byte	.LASF122
 6055 03e4 06       		.byte	0x6
 6056 03e5 8902     		.2byte	0x289
 6057 03e7 B6030000 		.4byte	0x3b6
 6058 03eb 0D       		.uleb128 0xd
 6059 03ec 01       		.byte	0x1
 6060 03ed 06       		.byte	0x6
 6061 03ee 8D02     		.2byte	0x28d
 6062 03f0 26040000 		.4byte	0x426
 6063 03f4 0C       		.uleb128 0xc
 6064 03f5 39120000 		.4byte	.LASF123
 6065 03f9 01       		.sleb128 1
 6066 03fa 0C       		.uleb128 0xc
 6067 03fb 140D0000 		.4byte	.LASF124
 6068 03ff 02       		.sleb128 2
 6069 0400 0C       		.uleb128 0xc
 6070 0401 360C0000 		.4byte	.LASF125
 6071 0405 03       		.sleb128 3
 6072 0406 0C       		.uleb128 0xc
 6073 0407 37030000 		.4byte	.LASF126
 6074 040b 04       		.sleb128 4
 6075 040c 0C       		.uleb128 0xc
 6076 040d 7D3D0000 		.4byte	.LASF127
 6077 0411 05       		.sleb128 5
 6078 0412 0C       		.uleb128 0xc
 6079 0413 FF450000 		.4byte	.LASF128
 6080 0417 06       		.sleb128 6
 6081 0418 0C       		.uleb128 0xc
 6082 0419 86030000 		.4byte	.LASF129
 6083 041d 07       		.sleb128 7
 6084 041e 0C       		.uleb128 0xc
 6085 041f B13E0000 		.4byte	.LASF130
 6086 0423 FF01     		.sleb128 255
 6087 0425 00       		.byte	0
 6088 0426 05       		.uleb128 0x5
 6089 0427 7C1C0000 		.4byte	.LASF131
 6090 042b 06       		.byte	0x6
 6091 042c 9602     		.2byte	0x296
 6092 042e EB030000 		.4byte	0x3eb
 6093 0432 0D       		.uleb128 0xd
 6094 0433 01       		.byte	0x1
 6095 0434 06       		.byte	0x6
 6096 0435 9A02     		.2byte	0x29a
 6097 0437 72040000 		.4byte	0x472
ARM GAS  C:\Users\Helon\AppData\Local\Temp\cckZyeCc.s 			page 160


 6098 043b 0C       		.uleb128 0xc
 6099 043c AA0E0000 		.4byte	.LASF132
 6100 0440 01       		.sleb128 1
 6101 0441 0C       		.uleb128 0xc
 6102 0442 FE090000 		.4byte	.LASF133
 6103 0446 02       		.sleb128 2
 6104 0447 0C       		.uleb128 0xc
 6105 0448 B32C0000 		.4byte	.LASF134
 6106 044c 03       		.sleb128 3
 6107 044d 0C       		.uleb128 0xc
 6108 044e 00090000 		.4byte	.LASF135
 6109 0452 04       		.sleb128 4
 6110 0453 0C       		.uleb128 0xc
 6111 0454 70130000 		.4byte	.LASF136
 6112 0458 05       		.sleb128 5
 6113 0459 0C       		.uleb128 0xc
 6114 045a C51D0000 		.4byte	.LASF137
 6115 045e 06       		.sleb128 6
 6116 045f 0C       		.uleb128 0xc
 6117 0460 CB3D0000 		.4byte	.LASF138
 6118 0464 07       		.sleb128 7
 6119 0465 0C       		.uleb128 0xc
 6120 0466 691D0000 		.4byte	.LASF139
 6121 046a 08       		.sleb128 8
 6122 046b 0C       		.uleb128 0xc
 6123 046c A2240000 		.4byte	.LASF140
 6124 0470 09       		.sleb128 9
 6125 0471 00       		.byte	0
 6126 0472 05       		.uleb128 0x5
 6127 0473 CA210000 		.4byte	.LASF141
 6128 0477 06       		.byte	0x6
 6129 0478 B102     		.2byte	0x2b1
 6130 047a 32040000 		.4byte	0x432
 6131 047e 0D       		.uleb128 0xd
 6132 047f 01       		.byte	0x1
 6133 0480 06       		.byte	0x6
 6134 0481 B502     		.2byte	0x2b5
 6135 0483 9A040000 		.4byte	0x49a
 6136 0487 0C       		.uleb128 0xc
 6137 0488 233E0000 		.4byte	.LASF142
 6138 048c 00       		.sleb128 0
 6139 048d 0C       		.uleb128 0xc
 6140 048e 53280000 		.4byte	.LASF143
 6141 0492 01       		.sleb128 1
 6142 0493 0C       		.uleb128 0xc
 6143 0494 25410000 		.4byte	.LASF144
 6144 0498 02       		.sleb128 2
 6145 0499 00       		.byte	0
 6146 049a 05       		.uleb128 0x5
 6147 049b 6C0F0000 		.4byte	.LASF145
 6148 049f 06       		.byte	0x6
 6149 04a0 BC02     		.2byte	0x2bc
 6150 04a2 7E040000 		.4byte	0x47e
 6151 04a6 0E       		.uleb128 0xe
 6152 04a7 02       		.byte	0x2
 6153 04a8 06       		.byte	0x6
 6154 04a9 BF02     		.2byte	0x2bf
ARM GAS  C:\Users\Helon\AppData\Local\Temp\cckZyeCc.s 			page 161


 6155 04ab CA040000 		.4byte	0x4ca
 6156 04af 0F       		.uleb128 0xf
 6157 04b0 05040000 		.4byte	.LASF146
 6158 04b4 06       		.byte	0x6
 6159 04b5 C202     		.2byte	0x2c2
 6160 04b7 72040000 		.4byte	0x472
 6161 04bb 00       		.byte	0
 6162 04bc 0F       		.uleb128 0xf
 6163 04bd 750D0000 		.4byte	.LASF147
 6164 04c1 06       		.byte	0x6
 6165 04c2 C402     		.2byte	0x2c4
 6166 04c4 9A040000 		.4byte	0x49a
 6167 04c8 01       		.byte	0x1
 6168 04c9 00       		.byte	0
 6169 04ca 05       		.uleb128 0x5
 6170 04cb 0D410000 		.4byte	.LASF148
 6171 04cf 06       		.byte	0x6
 6172 04d0 C502     		.2byte	0x2c5
 6173 04d2 A6040000 		.4byte	0x4a6
 6174 04d6 0E       		.uleb128 0xe
 6175 04d7 07       		.byte	0x7
 6176 04d8 06       		.byte	0x6
 6177 04d9 0503     		.2byte	0x305
 6178 04db FA040000 		.4byte	0x4fa
 6179 04df 0F       		.uleb128 0xf
 6180 04e0 133D0000 		.4byte	.LASF149
 6181 04e4 06       		.byte	0x6
 6182 04e5 0803     		.2byte	0x308
 6183 04e7 FA040000 		.4byte	0x4fa
 6184 04eb 00       		.byte	0
 6185 04ec 0F       		.uleb128 0xf
 6186 04ed A9060000 		.4byte	.LASF150
 6187 04f1 06       		.byte	0x6
 6188 04f2 0A03     		.2byte	0x30a
 6189 04f4 D9000000 		.4byte	0xd9
 6190 04f8 06       		.byte	0x6
 6191 04f9 00       		.byte	0
 6192 04fa 10       		.uleb128 0x10
 6193 04fb D9000000 		.4byte	0xd9
 6194 04ff 0A050000 		.4byte	0x50a
 6195 0503 11       		.uleb128 0x11
 6196 0504 54010000 		.4byte	0x154
 6197 0508 05       		.byte	0x5
 6198 0509 00       		.byte	0
 6199 050a 05       		.uleb128 0x5
 6200 050b 2F330000 		.4byte	.LASF151
 6201 050f 06       		.byte	0x6
 6202 0510 0B03     		.2byte	0x30b
 6203 0512 D6040000 		.4byte	0x4d6
 6204 0516 0B       		.uleb128 0xb
 6205 0517 01       		.byte	0x1
 6206 0518 07       		.byte	0x7
 6207 0519 4B       		.byte	0x4b
 6208 051a 37050000 		.4byte	0x537
 6209 051e 0C       		.uleb128 0xc
 6210 051f B6330000 		.4byte	.LASF152
 6211 0523 01       		.sleb128 1
ARM GAS  C:\Users\Helon\AppData\Local\Temp\cckZyeCc.s 			page 162


 6212 0524 0C       		.uleb128 0xc
 6213 0525 97320000 		.4byte	.LASF153
 6214 0529 02       		.sleb128 2
 6215 052a 0C       		.uleb128 0xc
 6216 052b 99430000 		.4byte	.LASF154
 6217 052f 03       		.sleb128 3
 6218 0530 0C       		.uleb128 0xc
 6219 0531 23350000 		.4byte	.LASF155
 6220 0535 04       		.sleb128 4
 6221 0536 00       		.byte	0
 6222 0537 0B       		.uleb128 0xb
 6223 0538 01       		.byte	0x1
 6224 0539 08       		.byte	0x8
 6225 053a 90       		.byte	0x90
 6226 053b 5E050000 		.4byte	0x55e
 6227 053f 0C       		.uleb128 0xc
 6228 0540 B5420000 		.4byte	.LASF156
 6229 0544 00       		.sleb128 0
 6230 0545 0C       		.uleb128 0xc
 6231 0546 762B0000 		.4byte	.LASF157
 6232 054a 01       		.sleb128 1
 6233 054b 0C       		.uleb128 0xc
 6234 054c 603B0000 		.4byte	.LASF158
 6235 0550 02       		.sleb128 2
 6236 0551 0C       		.uleb128 0xc
 6237 0552 DA0D0000 		.4byte	.LASF159
 6238 0556 03       		.sleb128 3
 6239 0557 0C       		.uleb128 0xc
 6240 0558 A1180000 		.4byte	.LASF160
 6241 055c 04       		.sleb128 4
 6242 055d 00       		.byte	0
 6243 055e 02       		.uleb128 0x2
 6244 055f E9290000 		.4byte	.LASF161
 6245 0563 08       		.byte	0x8
 6246 0564 A0       		.byte	0xa0
 6247 0565 37050000 		.4byte	0x537
 6248 0569 0B       		.uleb128 0xb
 6249 056a 01       		.byte	0x1
 6250 056b 08       		.byte	0x8
 6251 056c A4       		.byte	0xa4
 6252 056d 90050000 		.4byte	0x590
 6253 0571 0C       		.uleb128 0xc
 6254 0572 120B0000 		.4byte	.LASF162
 6255 0576 00       		.sleb128 0
 6256 0577 0C       		.uleb128 0xc
 6257 0578 BC320000 		.4byte	.LASF163
 6258 057c 01       		.sleb128 1
 6259 057d 0C       		.uleb128 0xc
 6260 057e BE390000 		.4byte	.LASF164
 6261 0582 02       		.sleb128 2
 6262 0583 0C       		.uleb128 0xc
 6263 0584 B8090000 		.4byte	.LASF165
 6264 0588 03       		.sleb128 3
 6265 0589 0C       		.uleb128 0xc
 6266 058a 61000000 		.4byte	.LASF166
 6267 058e 04       		.sleb128 4
 6268 058f 00       		.byte	0
ARM GAS  C:\Users\Helon\AppData\Local\Temp\cckZyeCc.s 			page 163


 6269 0590 02       		.uleb128 0x2
 6270 0591 9A3D0000 		.4byte	.LASF167
 6271 0595 08       		.byte	0x8
 6272 0596 B4       		.byte	0xb4
 6273 0597 69050000 		.4byte	0x569
 6274 059b 0B       		.uleb128 0xb
 6275 059c 01       		.byte	0x1
 6276 059d 08       		.byte	0x8
 6277 059e D2       		.byte	0xd2
 6278 059f C2050000 		.4byte	0x5c2
 6279 05a3 0C       		.uleb128 0xc
 6280 05a4 A2080000 		.4byte	.LASF168
 6281 05a8 00       		.sleb128 0
 6282 05a9 0C       		.uleb128 0xc
 6283 05aa 71400000 		.4byte	.LASF169
 6284 05ae 01       		.sleb128 1
 6285 05af 0C       		.uleb128 0xc
 6286 05b0 DC130000 		.4byte	.LASF170
 6287 05b4 02       		.sleb128 2
 6288 05b5 0C       		.uleb128 0xc
 6289 05b6 C8020000 		.4byte	.LASF171
 6290 05ba 03       		.sleb128 3
 6291 05bb 0C       		.uleb128 0xc
 6292 05bc 873A0000 		.4byte	.LASF172
 6293 05c0 04       		.sleb128 4
 6294 05c1 00       		.byte	0
 6295 05c2 02       		.uleb128 0x2
 6296 05c3 74030000 		.4byte	.LASF173
 6297 05c7 08       		.byte	0x8
 6298 05c8 E4       		.byte	0xe4
 6299 05c9 9B050000 		.4byte	0x59b
 6300 05cd 0B       		.uleb128 0xb
 6301 05ce 01       		.byte	0x1
 6302 05cf 08       		.byte	0x8
 6303 05d0 E8       		.byte	0xe8
 6304 05d1 24060000 		.4byte	0x624
 6305 05d5 0C       		.uleb128 0xc
 6306 05d6 AC2D0000 		.4byte	.LASF174
 6307 05da 00       		.sleb128 0
 6308 05db 0C       		.uleb128 0xc
 6309 05dc 8E090000 		.4byte	.LASF175
 6310 05e0 01       		.sleb128 1
 6311 05e1 0C       		.uleb128 0xc
 6312 05e2 DF2E0000 		.4byte	.LASF176
 6313 05e6 02       		.sleb128 2
 6314 05e7 0C       		.uleb128 0xc
 6315 05e8 3C1E0000 		.4byte	.LASF177
 6316 05ec 03       		.sleb128 3
 6317 05ed 0C       		.uleb128 0xc
 6318 05ee AD0C0000 		.4byte	.LASF178
 6319 05f2 04       		.sleb128 4
 6320 05f3 0C       		.uleb128 0xc
 6321 05f4 C5340000 		.4byte	.LASF179
 6322 05f8 05       		.sleb128 5
 6323 05f9 0C       		.uleb128 0xc
 6324 05fa 78220000 		.4byte	.LASF180
 6325 05fe 06       		.sleb128 6
ARM GAS  C:\Users\Helon\AppData\Local\Temp\cckZyeCc.s 			page 164


 6326 05ff 0C       		.uleb128 0xc
 6327 0600 111E0000 		.4byte	.LASF181
 6328 0604 07       		.sleb128 7
 6329 0605 0C       		.uleb128 0xc
 6330 0606 1F070000 		.4byte	.LASF182
 6331 060a 08       		.sleb128 8
 6332 060b 0C       		.uleb128 0xc
 6333 060c D8200000 		.4byte	.LASF183
 6334 0610 09       		.sleb128 9
 6335 0611 0C       		.uleb128 0xc
 6336 0612 00120000 		.4byte	.LASF184
 6337 0616 0A       		.sleb128 10
 6338 0617 0C       		.uleb128 0xc
 6339 0618 D1060000 		.4byte	.LASF185
 6340 061c 15       		.sleb128 21
 6341 061d 0C       		.uleb128 0xc
 6342 061e AD1A0000 		.4byte	.LASF186
 6343 0622 18       		.sleb128 24
 6344 0623 00       		.byte	0
 6345 0624 05       		.uleb128 0x5
 6346 0625 FA290000 		.4byte	.LASF187
 6347 0629 08       		.byte	0x8
 6348 062a 1401     		.2byte	0x114
 6349 062c CD050000 		.4byte	0x5cd
 6350 0630 0E       		.uleb128 0xe
 6351 0631 04       		.byte	0x4
 6352 0632 08       		.byte	0x8
 6353 0633 2D01     		.2byte	0x12d
 6354 0635 6E060000 		.4byte	0x66e
 6355 0639 0F       		.uleb128 0xf
 6356 063a 0F390000 		.4byte	.LASF188
 6357 063e 08       		.byte	0x8
 6358 063f 3601     		.2byte	0x136
 6359 0641 D9000000 		.4byte	0xd9
 6360 0645 00       		.byte	0
 6361 0646 0F       		.uleb128 0xf
 6362 0647 7E270000 		.4byte	.LASF189
 6363 064b 08       		.byte	0x8
 6364 064c 3C01     		.2byte	0x13c
 6365 064e D9000000 		.4byte	0xd9
 6366 0652 01       		.byte	0x1
 6367 0653 0F       		.uleb128 0xf
 6368 0654 15010000 		.4byte	.LASF190
 6369 0658 08       		.byte	0x8
 6370 0659 4201     		.2byte	0x142
 6371 065b D9000000 		.4byte	0xd9
 6372 065f 02       		.byte	0x2
 6373 0660 0F       		.uleb128 0xf
 6374 0661 5D390000 		.4byte	.LASF191
 6375 0665 08       		.byte	0x8
 6376 0666 4601     		.2byte	0x146
 6377 0668 24060000 		.4byte	0x624
 6378 066c 03       		.byte	0x3
 6379 066d 00       		.byte	0
 6380 066e 05       		.uleb128 0x5
 6381 066f C6130000 		.4byte	.LASF192
 6382 0673 08       		.byte	0x8
ARM GAS  C:\Users\Helon\AppData\Local\Temp\cckZyeCc.s 			page 165


 6383 0674 4801     		.2byte	0x148
 6384 0676 30060000 		.4byte	0x630
 6385 067a 10       		.uleb128 0x10
 6386 067b 0A050000 		.4byte	0x50a
 6387 067f 8A060000 		.4byte	0x68a
 6388 0683 11       		.uleb128 0x11
 6389 0684 54010000 		.4byte	0x154
 6390 0688 03       		.byte	0x3
 6391 0689 00       		.byte	0
 6392 068a 0E       		.uleb128 0xe
 6393 068b 10       		.byte	0x10
 6394 068c 08       		.byte	0x8
 6395 068d 6E01     		.2byte	0x16e
 6396 068f FC060000 		.4byte	0x6fc
 6397 0693 0F       		.uleb128 0xf
 6398 0694 40110000 		.4byte	.LASF193
 6399 0698 08       		.byte	0x8
 6400 0699 7401     		.2byte	0x174
 6401 069b E4000000 		.4byte	0xe4
 6402 069f 00       		.byte	0
 6403 06a0 0F       		.uleb128 0xf
 6404 06a1 7E460000 		.4byte	.LASF194
 6405 06a5 08       		.byte	0x8
 6406 06a6 7A01     		.2byte	0x17a
 6407 06a8 E4000000 		.4byte	0xe4
 6408 06ac 02       		.byte	0x2
 6409 06ad 0F       		.uleb128 0xf
 6410 06ae B71C0000 		.4byte	.LASF195
 6411 06b2 08       		.byte	0x8
 6412 06b3 8301     		.2byte	0x183
 6413 06b5 5E050000 		.4byte	0x55e
 6414 06b9 04       		.byte	0x4
 6415 06ba 0F       		.uleb128 0xf
 6416 06bb 80450000 		.4byte	.LASF196
 6417 06bf 08       		.byte	0x8
 6418 06c0 8901     		.2byte	0x189
 6419 06c2 D9000000 		.4byte	0xd9
 6420 06c6 05       		.byte	0x5
 6421 06c7 0F       		.uleb128 0xf
 6422 06c8 0C250000 		.4byte	.LASF197
 6423 06cc 08       		.byte	0x8
 6424 06cd 9001     		.2byte	0x190
 6425 06cf D9000000 		.4byte	0xd9
 6426 06d3 06       		.byte	0x6
 6427 06d4 0F       		.uleb128 0xf
 6428 06d5 47420000 		.4byte	.LASF198
 6429 06d9 08       		.byte	0x8
 6430 06da 9601     		.2byte	0x196
 6431 06dc FA040000 		.4byte	0x4fa
 6432 06e0 07       		.byte	0x7
 6433 06e1 0F       		.uleb128 0xf
 6434 06e2 72420000 		.4byte	.LASF199
 6435 06e6 08       		.byte	0x8
 6436 06e7 9E01     		.2byte	0x19e
 6437 06e9 D9000000 		.4byte	0xd9
 6438 06ed 0D       		.byte	0xd
 6439 06ee 0F       		.uleb128 0xf
ARM GAS  C:\Users\Helon\AppData\Local\Temp\cckZyeCc.s 			page 166


 6440 06ef 121C0000 		.4byte	.LASF200
 6441 06f3 08       		.byte	0x8
 6442 06f4 AA01     		.2byte	0x1aa
 6443 06f6 D9000000 		.4byte	0xd9
 6444 06fa 0E       		.byte	0xe
 6445 06fb 00       		.byte	0
 6446 06fc 05       		.uleb128 0x5
 6447 06fd C21B0000 		.4byte	.LASF201
 6448 0701 08       		.byte	0x8
 6449 0702 AC01     		.2byte	0x1ac
 6450 0704 8A060000 		.4byte	0x68a
 6451 0708 0E       		.uleb128 0xe
 6452 0709 20       		.byte	0x20
 6453 070a 08       		.byte	0x8
 6454 070b AF01     		.2byte	0x1af
 6455 070d 2C070000 		.4byte	0x72c
 6456 0711 0F       		.uleb128 0xf
 6457 0712 3D2A0000 		.4byte	.LASF202
 6458 0716 08       		.byte	0x8
 6459 0717 B201     		.2byte	0x1b2
 6460 0719 2C070000 		.4byte	0x72c
 6461 071d 00       		.byte	0
 6462 071e 0F       		.uleb128 0xf
 6463 071f 71340000 		.4byte	.LASF203
 6464 0723 08       		.byte	0x8
 6465 0724 B501     		.2byte	0x1b5
 6466 0726 D9000000 		.4byte	0xd9
 6467 072a 1F       		.byte	0x1f
 6468 072b 00       		.byte	0
 6469 072c 10       		.uleb128 0x10
 6470 072d D9000000 		.4byte	0xd9
 6471 0731 3C070000 		.4byte	0x73c
 6472 0735 11       		.uleb128 0x11
 6473 0736 54010000 		.4byte	0x154
 6474 073a 1E       		.byte	0x1e
 6475 073b 00       		.byte	0
 6476 073c 05       		.uleb128 0x5
 6477 073d 52120000 		.4byte	.LASF204
 6478 0741 08       		.byte	0x8
 6479 0742 B701     		.2byte	0x1b7
 6480 0744 08070000 		.4byte	0x708
 6481 0748 0E       		.uleb128 0xe
 6482 0749 20       		.byte	0x20
 6483 074a 08       		.byte	0x8
 6484 074b BA01     		.2byte	0x1ba
 6485 074d 6C070000 		.4byte	0x76c
 6486 0751 0F       		.uleb128 0xf
 6487 0752 75000000 		.4byte	.LASF205
 6488 0756 08       		.byte	0x8
 6489 0757 BE01     		.2byte	0x1be
 6490 0759 2C070000 		.4byte	0x72c
 6491 075d 00       		.byte	0
 6492 075e 0F       		.uleb128 0xf
 6493 075f E8390000 		.4byte	.LASF206
 6494 0763 08       		.byte	0x8
 6495 0764 C101     		.2byte	0x1c1
 6496 0766 D9000000 		.4byte	0xd9
ARM GAS  C:\Users\Helon\AppData\Local\Temp\cckZyeCc.s 			page 167


 6497 076a 1F       		.byte	0x1f
 6498 076b 00       		.byte	0
 6499 076c 05       		.uleb128 0x5
 6500 076d 12380000 		.4byte	.LASF207
 6501 0771 08       		.byte	0x8
 6502 0772 C301     		.2byte	0x1c3
 6503 0774 48070000 		.4byte	0x748
 6504 0778 0E       		.uleb128 0xe
 6505 0779 14       		.byte	0x14
 6506 077a 08       		.byte	0x8
 6507 077b C601     		.2byte	0x1c6
 6508 077d C3070000 		.4byte	0x7c3
 6509 0781 0F       		.uleb128 0xf
 6510 0782 E9040000 		.4byte	.LASF208
 6511 0786 08       		.byte	0x8
 6512 0787 CE01     		.2byte	0x1ce
 6513 0789 D9000000 		.4byte	0xd9
 6514 078d 00       		.byte	0
 6515 078e 0F       		.uleb128 0xf
 6516 078f 8D230000 		.4byte	.LASF209
 6517 0793 08       		.byte	0x8
 6518 0794 D101     		.2byte	0x1d1
 6519 0796 C3070000 		.4byte	0x7c3
 6520 079a 04       		.byte	0x4
 6521 079b 0F       		.uleb128 0xf
 6522 079c 3D2A0000 		.4byte	.LASF202
 6523 07a0 08       		.byte	0x8
 6524 07a1 D301     		.2byte	0x1d3
 6525 07a3 C9070000 		.4byte	0x7c9
 6526 07a7 08       		.byte	0x8
 6527 07a8 0F       		.uleb128 0xf
 6528 07a9 75000000 		.4byte	.LASF205
 6529 07ad 08       		.byte	0x8
 6530 07ae D501     		.2byte	0x1d5
 6531 07b0 CF070000 		.4byte	0x7cf
 6532 07b4 0C       		.byte	0xc
 6533 07b5 0F       		.uleb128 0xf
 6534 07b6 802C0000 		.4byte	.LASF210
 6535 07ba 08       		.byte	0x8
 6536 07bb DF01     		.2byte	0x1df
 6537 07bd E4000000 		.4byte	0xe4
 6538 07c1 10       		.byte	0x10
 6539 07c2 00       		.byte	0
 6540 07c3 07       		.uleb128 0x7
 6541 07c4 04       		.byte	0x4
 6542 07c5 FC060000 		.4byte	0x6fc
 6543 07c9 07       		.uleb128 0x7
 6544 07ca 04       		.byte	0x4
 6545 07cb 3C070000 		.4byte	0x73c
 6546 07cf 07       		.uleb128 0x7
 6547 07d0 04       		.byte	0x4
 6548 07d1 6C070000 		.4byte	0x76c
 6549 07d5 05       		.uleb128 0x5
 6550 07d6 34350000 		.4byte	.LASF211
 6551 07da 08       		.byte	0x8
 6552 07db E101     		.2byte	0x1e1
 6553 07dd 78070000 		.4byte	0x778
ARM GAS  C:\Users\Helon\AppData\Local\Temp\cckZyeCc.s 			page 168


 6554 07e1 0E       		.uleb128 0xe
 6555 07e2 14       		.byte	0x14
 6556 07e3 08       		.byte	0x8
 6557 07e4 6802     		.2byte	0x268
 6558 07e6 39080000 		.4byte	0x839
 6559 07ea 0F       		.uleb128 0xf
 6560 07eb 813F0000 		.4byte	.LASF212
 6561 07ef 08       		.byte	0x8
 6562 07f0 7102     		.2byte	0x271
 6563 07f2 90050000 		.4byte	0x590
 6564 07f6 00       		.byte	0
 6565 07f7 0F       		.uleb128 0xf
 6566 07f8 393C0000 		.4byte	.LASF213
 6567 07fc 08       		.byte	0x8
 6568 07fd 7702     		.2byte	0x277
 6569 07ff D9000000 		.4byte	0xd9
 6570 0803 01       		.byte	0x1
 6571 0804 0F       		.uleb128 0xf
 6572 0805 970F0000 		.4byte	.LASF214
 6573 0809 08       		.byte	0x8
 6574 080a 7B02     		.2byte	0x27b
 6575 080c 39080000 		.4byte	0x839
 6576 0810 04       		.byte	0x4
 6577 0811 0F       		.uleb128 0xf
 6578 0812 810B0000 		.4byte	.LASF215
 6579 0816 08       		.byte	0x8
 6580 0817 7E02     		.2byte	0x27e
 6581 0819 D9000000 		.4byte	0xd9
 6582 081d 08       		.byte	0x8
 6583 081e 0F       		.uleb128 0xf
 6584 081f 8A440000 		.4byte	.LASF216
 6585 0823 08       		.byte	0x8
 6586 0824 8102     		.2byte	0x281
 6587 0826 39080000 		.4byte	0x839
 6588 082a 0C       		.byte	0xc
 6589 082b 0F       		.uleb128 0xf
 6590 082c 36440000 		.4byte	.LASF217
 6591 0830 08       		.byte	0x8
 6592 0831 8602     		.2byte	0x286
 6593 0833 FA000000 		.4byte	0xfa
 6594 0837 10       		.byte	0x10
 6595 0838 00       		.byte	0
 6596 0839 07       		.uleb128 0x7
 6597 083a 04       		.byte	0x4
 6598 083b D9000000 		.4byte	0xd9
 6599 083f 05       		.uleb128 0x5
 6600 0840 32450000 		.4byte	.LASF218
 6601 0844 08       		.byte	0x8
 6602 0845 8802     		.2byte	0x288
 6603 0847 E1070000 		.4byte	0x7e1
 6604 084b 0E       		.uleb128 0xe
 6605 084c 08       		.byte	0x8
 6606 084d 08       		.byte	0x8
 6607 084e 9602     		.2byte	0x296
 6608 0850 89080000 		.4byte	0x889
 6609 0854 0F       		.uleb128 0xf
 6610 0855 080D0000 		.4byte	.LASF219
ARM GAS  C:\Users\Helon\AppData\Local\Temp\cckZyeCc.s 			page 169


 6611 0859 08       		.byte	0x8
 6612 085a 9D02     		.2byte	0x29d
 6613 085c E4000000 		.4byte	0xe4
 6614 0860 00       		.byte	0
 6615 0861 0F       		.uleb128 0xf
 6616 0862 A0410000 		.4byte	.LASF220
 6617 0866 08       		.byte	0x8
 6618 0867 A402     		.2byte	0x2a4
 6619 0869 E4000000 		.4byte	0xe4
 6620 086d 02       		.byte	0x2
 6621 086e 0F       		.uleb128 0xf
 6622 086f 49400000 		.4byte	.LASF221
 6623 0873 08       		.byte	0x8
 6624 0874 A902     		.2byte	0x2a9
 6625 0876 E4000000 		.4byte	0xe4
 6626 087a 04       		.byte	0x4
 6627 087b 0F       		.uleb128 0xf
 6628 087c 8B430000 		.4byte	.LASF222
 6629 0880 08       		.byte	0x8
 6630 0881 AF02     		.2byte	0x2af
 6631 0883 E4000000 		.4byte	0xe4
 6632 0887 06       		.byte	0x6
 6633 0888 00       		.byte	0
 6634 0889 05       		.uleb128 0x5
 6635 088a 901C0000 		.4byte	.LASF223
 6636 088e 08       		.byte	0x8
 6637 088f B102     		.2byte	0x2b1
 6638 0891 4B080000 		.4byte	0x84b
 6639 0895 0E       		.uleb128 0xe
 6640 0896 08       		.byte	0x8
 6641 0897 08       		.byte	0x8
 6642 0898 B402     		.2byte	0x2b4
 6643 089a D3080000 		.4byte	0x8d3
 6644 089e 0F       		.uleb128 0xf
 6645 089f BE1D0000 		.4byte	.LASF224
 6646 08a3 08       		.byte	0x8
 6647 08a4 B802     		.2byte	0x2b8
 6648 08a6 D9000000 		.4byte	0xd9
 6649 08aa 00       		.byte	0
 6650 08ab 0F       		.uleb128 0xf
 6651 08ac F2410000 		.4byte	.LASF225
 6652 08b0 08       		.byte	0x8
 6653 08b1 BE02     		.2byte	0x2be
 6654 08b3 E4000000 		.4byte	0xe4
 6655 08b7 02       		.byte	0x2
 6656 08b8 0F       		.uleb128 0xf
 6657 08b9 49400000 		.4byte	.LASF221
 6658 08bd 08       		.byte	0x8
 6659 08be C302     		.2byte	0x2c3
 6660 08c0 E4000000 		.4byte	0xe4
 6661 08c4 04       		.byte	0x4
 6662 08c5 0F       		.uleb128 0xf
 6663 08c6 8B430000 		.4byte	.LASF222
 6664 08ca 08       		.byte	0x8
 6665 08cb C902     		.2byte	0x2c9
 6666 08cd E4000000 		.4byte	0xe4
 6667 08d1 06       		.byte	0x6
ARM GAS  C:\Users\Helon\AppData\Local\Temp\cckZyeCc.s 			page 170


 6668 08d2 00       		.byte	0
 6669 08d3 05       		.uleb128 0x5
 6670 08d4 DB2F0000 		.4byte	.LASF226
 6671 08d8 08       		.byte	0x8
 6672 08d9 CB02     		.2byte	0x2cb
 6673 08db 95080000 		.4byte	0x895
 6674 08df 05       		.uleb128 0x5
 6675 08e0 14310000 		.4byte	.LASF227
 6676 08e4 09       		.byte	0x9
 6677 08e5 8801     		.2byte	0x188
 6678 08e7 E4000000 		.4byte	0xe4
 6679 08eb 0E       		.uleb128 0xe
 6680 08ec 02       		.byte	0x2
 6681 08ed 09       		.byte	0x9
 6682 08ee 9201     		.2byte	0x192
 6683 08f0 0F090000 		.4byte	0x90f
 6684 08f4 0F       		.uleb128 0xf
 6685 08f5 3E090000 		.4byte	.LASF228
 6686 08f9 09       		.byte	0x9
 6687 08fa 9901     		.2byte	0x199
 6688 08fc D9000000 		.4byte	0xd9
 6689 0900 00       		.byte	0
 6690 0901 0F       		.uleb128 0xf
 6691 0902 1C430000 		.4byte	.LASF229
 6692 0906 09       		.byte	0x9
 6693 0907 9F01     		.2byte	0x19f
 6694 0909 D9000000 		.4byte	0xd9
 6695 090d 01       		.byte	0x1
 6696 090e 00       		.byte	0
 6697 090f 05       		.uleb128 0x5
 6698 0910 1D080000 		.4byte	.LASF230
 6699 0914 09       		.byte	0x9
 6700 0915 A101     		.2byte	0x1a1
 6701 0917 EB080000 		.4byte	0x8eb
 6702 091b 0E       		.uleb128 0xe
 6703 091c 08       		.byte	0x8
 6704 091d 09       		.byte	0x9
 6705 091e BD01     		.2byte	0x1bd
 6706 0920 4C090000 		.4byte	0x94c
 6707 0924 12       		.uleb128 0x12
 6708 0925 76616C00 		.ascii	"val\000"
 6709 0929 09       		.byte	0x9
 6710 092a C001     		.2byte	0x1c0
 6711 092c 39080000 		.4byte	0x839
 6712 0930 00       		.byte	0
 6713 0931 12       		.uleb128 0x12
 6714 0932 6C656E00 		.ascii	"len\000"
 6715 0936 09       		.byte	0x9
 6716 0937 C301     		.2byte	0x1c3
 6717 0939 E4000000 		.4byte	0xe4
 6718 093d 04       		.byte	0x4
 6719 093e 0F       		.uleb128 0xf
 6720 093f 68420000 		.4byte	.LASF231
 6721 0943 09       		.byte	0x9
 6722 0944 CA01     		.2byte	0x1ca
 6723 0946 E4000000 		.4byte	0xe4
 6724 094a 06       		.byte	0x6
ARM GAS  C:\Users\Helon\AppData\Local\Temp\cckZyeCc.s 			page 171


 6725 094b 00       		.byte	0
 6726 094c 05       		.uleb128 0x5
 6727 094d 59060000 		.4byte	.LASF232
 6728 0951 09       		.byte	0x9
 6729 0952 CC01     		.2byte	0x1cc
 6730 0954 1B090000 		.4byte	0x91b
 6731 0958 0E       		.uleb128 0xe
 6732 0959 0C       		.byte	0xc
 6733 095a 09       		.byte	0x9
 6734 095b CF01     		.2byte	0x1cf
 6735 095d 7C090000 		.4byte	0x97c
 6736 0961 0F       		.uleb128 0xf
 6737 0962 85310000 		.4byte	.LASF233
 6738 0966 09       		.byte	0x9
 6739 0967 D201     		.2byte	0x1d2
 6740 0969 4C090000 		.4byte	0x94c
 6741 096d 00       		.byte	0
 6742 096e 0F       		.uleb128 0xf
 6743 096f 33270000 		.4byte	.LASF234
 6744 0973 09       		.byte	0x9
 6745 0974 D501     		.2byte	0x1d5
 6746 0976 DF080000 		.4byte	0x8df
 6747 097a 08       		.byte	0x8
 6748 097b 00       		.byte	0
 6749 097c 05       		.uleb128 0x5
 6750 097d 320D0000 		.4byte	.LASF235
 6751 0981 09       		.byte	0x9
 6752 0982 D701     		.2byte	0x1d7
 6753 0984 58090000 		.4byte	0x958
 6754 0988 0E       		.uleb128 0xe
 6755 0989 04       		.byte	0x4
 6756 098a 09       		.byte	0x9
 6757 098b DA01     		.2byte	0x1da
 6758 098d AC090000 		.4byte	0x9ac
 6759 0991 0F       		.uleb128 0xf
 6760 0992 DA1B0000 		.4byte	.LASF236
 6761 0996 09       		.byte	0x9
 6762 0997 DD01     		.2byte	0x1dd
 6763 0999 DF080000 		.4byte	0x8df
 6764 099d 00       		.byte	0
 6765 099e 0F       		.uleb128 0xf
 6766 099f CB3C0000 		.4byte	.LASF237
 6767 09a3 09       		.byte	0x9
 6768 09a4 E001     		.2byte	0x1e0
 6769 09a6 DF080000 		.4byte	0x8df
 6770 09aa 02       		.byte	0x2
 6771 09ab 00       		.byte	0
 6772 09ac 05       		.uleb128 0x5
 6773 09ad A83A0000 		.4byte	.LASF238
 6774 09b1 09       		.byte	0x9
 6775 09b2 E201     		.2byte	0x1e2
 6776 09b4 88090000 		.4byte	0x988
 6777 09b8 0E       		.uleb128 0xe
 6778 09b9 04       		.byte	0x4
 6779 09ba 09       		.byte	0x9
 6780 09bb E501     		.2byte	0x1e5
 6781 09bd DC090000 		.4byte	0x9dc
ARM GAS  C:\Users\Helon\AppData\Local\Temp\cckZyeCc.s 			page 172


 6782 09c1 0F       		.uleb128 0xf
 6783 09c2 31340000 		.4byte	.LASF239
 6784 09c6 09       		.byte	0x9
 6785 09c7 E801     		.2byte	0x1e8
 6786 09c9 0F090000 		.4byte	0x90f
 6787 09cd 00       		.byte	0
 6788 09ce 12       		.uleb128 0x12
 6789 09cf 6D747500 		.ascii	"mtu\000"
 6790 09d3 09       		.byte	0x9
 6791 09d4 EB01     		.2byte	0x1eb
 6792 09d6 E4000000 		.4byte	0xe4
 6793 09da 02       		.byte	0x2
 6794 09db 00       		.byte	0
 6795 09dc 05       		.uleb128 0x5
 6796 09dd 50100000 		.4byte	.LASF240
 6797 09e1 09       		.byte	0x9
 6798 09e2 ED01     		.2byte	0x1ed
 6799 09e4 B8090000 		.4byte	0x9b8
 6800 09e8 02       		.uleb128 0x2
 6801 09e9 B3000000 		.4byte	.LASF241
 6802 09ed 0A       		.byte	0xa
 6803 09ee 34       		.byte	0x34
 6804 09ef 7C090000 		.4byte	0x97c
 6805 09f3 13       		.uleb128 0x13
 6806 09f4 10       		.byte	0x10
 6807 09f5 0A       		.byte	0xa
 6808 09f6 8A       		.byte	0x8a
 6809 09f7 140A0000 		.4byte	0xa14
 6810 09fb 14       		.uleb128 0x14
 6811 09fc 31340000 		.4byte	.LASF239
 6812 0a00 0A       		.byte	0xa
 6813 0a01 8D       		.byte	0x8d
 6814 0a02 0F090000 		.4byte	0x90f
 6815 0a06 00       		.byte	0
 6816 0a07 14       		.uleb128 0x14
 6817 0a08 F1330000 		.4byte	.LASF242
 6818 0a0c 0A       		.byte	0xa
 6819 0a0d 90       		.byte	0x90
 6820 0a0e 7C090000 		.4byte	0x97c
 6821 0a12 04       		.byte	0x4
 6822 0a13 00       		.byte	0
 6823 0a14 02       		.uleb128 0x2
 6824 0a15 86270000 		.4byte	.LASF243
 6825 0a19 0A       		.byte	0xa
 6826 0a1a 92       		.byte	0x92
 6827 0a1b F3090000 		.4byte	0x9f3
 6828 0a1f 02       		.uleb128 0x2
 6829 0a20 263F0000 		.4byte	.LASF244
 6830 0a24 0B       		.byte	0xb
 6831 0a25 4F       		.byte	0x4f
 6832 0a26 AC090000 		.4byte	0x9ac
 6833 0a2a 02       		.uleb128 0x2
 6834 0a2b B90A0000 		.4byte	.LASF245
 6835 0a2f 0B       		.byte	0xb
 6836 0a30 55       		.byte	0x55
 6837 0a31 DF080000 		.4byte	0x8df
 6838 0a35 02       		.uleb128 0x2
ARM GAS  C:\Users\Helon\AppData\Local\Temp\cckZyeCc.s 			page 173


 6839 0a36 200E0000 		.4byte	.LASF246
 6840 0a3a 0B       		.byte	0xb
 6841 0a3b 77       		.byte	0x77
 6842 0a3c 7C090000 		.4byte	0x97c
 6843 0a40 13       		.uleb128 0x13
 6844 0a41 10       		.byte	0x10
 6845 0a42 0B       		.byte	0xb
 6846 0a43 88       		.byte	0x88
 6847 0a44 610A0000 		.4byte	0xa61
 6848 0a48 14       		.uleb128 0x14
 6849 0a49 31340000 		.4byte	.LASF239
 6850 0a4d 0B       		.byte	0xb
 6851 0a4e 8B       		.byte	0x8b
 6852 0a4f 0F090000 		.4byte	0x90f
 6853 0a53 00       		.byte	0
 6854 0a54 14       		.uleb128 0x14
 6855 0a55 F1330000 		.4byte	.LASF242
 6856 0a59 0B       		.byte	0xb
 6857 0a5a 8E       		.byte	0x8e
 6858 0a5b 7C090000 		.4byte	0x97c
 6859 0a5f 04       		.byte	0x4
 6860 0a60 00       		.byte	0
 6861 0a61 02       		.uleb128 0x2
 6862 0a62 3E150000 		.4byte	.LASF247
 6863 0a66 0B       		.byte	0xb
 6864 0a67 90       		.byte	0x90
 6865 0a68 400A0000 		.4byte	0xa40
 6866 0a6c 13       		.uleb128 0x13
 6867 0a6d 08       		.byte	0x8
 6868 0a6e 0B       		.byte	0xb
 6869 0a6f C0       		.byte	0xc0
 6870 0a70 8D0A0000 		.4byte	0xa8d
 6871 0a74 14       		.uleb128 0x14
 6872 0a75 8D290000 		.4byte	.LASF248
 6873 0a79 0B       		.byte	0xb
 6874 0a7a C4       		.byte	0xc4
 6875 0a7b 39080000 		.4byte	0x839
 6876 0a7f 00       		.byte	0
 6877 0a80 14       		.uleb128 0x14
 6878 0a81 E61B0000 		.4byte	.LASF249
 6879 0a85 0B       		.byte	0xb
 6880 0a86 C7       		.byte	0xc7
 6881 0a87 E4000000 		.4byte	0xe4
 6882 0a8b 04       		.byte	0x4
 6883 0a8c 00       		.byte	0
 6884 0a8d 02       		.uleb128 0x2
 6885 0a8e AC100000 		.4byte	.LASF250
 6886 0a92 0B       		.byte	0xb
 6887 0a93 C9       		.byte	0xc9
 6888 0a94 6C0A0000 		.4byte	0xa6c
 6889 0a98 13       		.uleb128 0x13
 6890 0a99 10       		.byte	0x10
 6891 0a9a 0B       		.byte	0xb
 6892 0a9b CC       		.byte	0xcc
 6893 0a9c C50A0000 		.4byte	0xac5
 6894 0aa0 14       		.uleb128 0x14
 6895 0aa1 31340000 		.4byte	.LASF239
ARM GAS  C:\Users\Helon\AppData\Local\Temp\cckZyeCc.s 			page 174


 6896 0aa5 0B       		.byte	0xb
 6897 0aa6 CF       		.byte	0xcf
 6898 0aa7 0F090000 		.4byte	0x90f
 6899 0aab 00       		.byte	0
 6900 0aac 14       		.uleb128 0x14
 6901 0aad DA300000 		.4byte	.LASF251
 6902 0ab1 0B       		.byte	0xb
 6903 0ab2 D2       		.byte	0xd2
 6904 0ab3 8D0A0000 		.4byte	0xa8d
 6905 0ab7 04       		.byte	0x4
 6906 0ab8 14       		.uleb128 0x14
 6907 0ab9 113B0000 		.4byte	.LASF252
 6908 0abd 0B       		.byte	0xb
 6909 0abe D5       		.byte	0xd5
 6910 0abf D9000000 		.4byte	0xd9
 6911 0ac3 0C       		.byte	0xc
 6912 0ac4 00       		.byte	0
 6913 0ac5 02       		.uleb128 0x2
 6914 0ac6 CE2C0000 		.4byte	.LASF253
 6915 0aca 0B       		.byte	0xb
 6916 0acb D7       		.byte	0xd7
 6917 0acc 980A0000 		.4byte	0xa98
 6918 0ad0 05       		.uleb128 0x5
 6919 0ad1 63070000 		.4byte	.LASF254
 6920 0ad5 0C       		.byte	0xc
 6921 0ad6 4101     		.2byte	0x141
 6922 0ad8 DC0A0000 		.4byte	0xadc
 6923 0adc 07       		.uleb128 0x7
 6924 0add 04       		.byte	0x4
 6925 0ade E20A0000 		.4byte	0xae2
 6926 0ae2 15       		.uleb128 0x15
 6927 0ae3 F20A0000 		.4byte	0xaf2
 6928 0ae7 16       		.uleb128 0x16
 6929 0ae8 EF000000 		.4byte	0xef
 6930 0aec 16       		.uleb128 0x16
 6931 0aed 5B010000 		.4byte	0x15b
 6932 0af1 00       		.byte	0
 6933 0af2 0B       		.uleb128 0xb
 6934 0af3 02       		.byte	0x2
 6935 0af4 0D       		.byte	0xd
 6936 0af5 9D       		.byte	0x9d
 6937 0af6 E7110000 		.4byte	0x11e7
 6938 0afa 0C       		.uleb128 0xc
 6939 0afb C5280000 		.4byte	.LASF255
 6940 0aff 8002     		.sleb128 256
 6941 0b01 0C       		.uleb128 0xc
 6942 0b02 04440000 		.4byte	.LASF256
 6943 0b06 8102     		.sleb128 257
 6944 0b08 0C       		.uleb128 0xc
 6945 0b09 890B0000 		.4byte	.LASF257
 6946 0b0d 8202     		.sleb128 258
 6947 0b0f 0C       		.uleb128 0xc
 6948 0b10 AB430000 		.4byte	.LASF258
 6949 0b14 8302     		.sleb128 259
 6950 0b16 0C       		.uleb128 0xc
 6951 0b17 32300000 		.4byte	.LASF259
 6952 0b1b 8402     		.sleb128 260
ARM GAS  C:\Users\Helon\AppData\Local\Temp\cckZyeCc.s 			page 175


 6953 0b1d 0C       		.uleb128 0xc
 6954 0b1e 9A390000 		.4byte	.LASF260
 6955 0b22 8502     		.sleb128 261
 6956 0b24 0C       		.uleb128 0xc
 6957 0b25 68110000 		.4byte	.LASF261
 6958 0b29 8602     		.sleb128 262
 6959 0b2b 0C       		.uleb128 0xc
 6960 0b2c 380E0000 		.4byte	.LASF262
 6961 0b30 8702     		.sleb128 263
 6962 0b32 0C       		.uleb128 0xc
 6963 0b33 C7410000 		.4byte	.LASF263
 6964 0b37 8802     		.sleb128 264
 6965 0b39 0C       		.uleb128 0xc
 6966 0b3a DA050000 		.4byte	.LASF264
 6967 0b3e 8902     		.sleb128 265
 6968 0b40 0C       		.uleb128 0xc
 6969 0b41 83040000 		.4byte	.LASF265
 6970 0b45 8A02     		.sleb128 266
 6971 0b47 0C       		.uleb128 0xc
 6972 0b48 D9320000 		.4byte	.LASF266
 6973 0b4c 8B02     		.sleb128 267
 6974 0b4e 0C       		.uleb128 0xc
 6975 0b4f 3D230000 		.4byte	.LASF267
 6976 0b53 8C02     		.sleb128 268
 6977 0b55 0C       		.uleb128 0xc
 6978 0b56 4F2E0000 		.4byte	.LASF268
 6979 0b5a 8D02     		.sleb128 269
 6980 0b5c 0C       		.uleb128 0xc
 6981 0b5d 5B040000 		.4byte	.LASF269
 6982 0b61 8E02     		.sleb128 270
 6983 0b63 0C       		.uleb128 0xc
 6984 0b64 7A240000 		.4byte	.LASF270
 6985 0b68 8F02     		.sleb128 271
 6986 0b6a 0C       		.uleb128 0xc
 6987 0b6b F5070000 		.4byte	.LASF271
 6988 0b6f 9002     		.sleb128 272
 6989 0b71 0C       		.uleb128 0xc
 6990 0b72 033F0000 		.4byte	.LASF272
 6991 0b76 9102     		.sleb128 273
 6992 0b78 0C       		.uleb128 0xc
 6993 0b79 01130000 		.4byte	.LASF273
 6994 0b7d 9202     		.sleb128 274
 6995 0b7f 0C       		.uleb128 0xc
 6996 0b80 FF330000 		.4byte	.LASF274
 6997 0b84 9302     		.sleb128 275
 6998 0b86 0C       		.uleb128 0xc
 6999 0b87 80420000 		.4byte	.LASF275
 7000 0b8b 9402     		.sleb128 276
 7001 0b8d 0C       		.uleb128 0xc
 7002 0b8e 51380000 		.4byte	.LASF276
 7003 0b92 9502     		.sleb128 277
 7004 0b94 0C       		.uleb128 0xc
 7005 0b95 3A0B0000 		.4byte	.LASF277
 7006 0b99 9602     		.sleb128 278
 7007 0b9b 0C       		.uleb128 0xc
 7008 0b9c 5C450000 		.4byte	.LASF278
 7009 0ba0 9702     		.sleb128 279
ARM GAS  C:\Users\Helon\AppData\Local\Temp\cckZyeCc.s 			page 176


 7010 0ba2 0C       		.uleb128 0xc
 7011 0ba3 EE260000 		.4byte	.LASF279
 7012 0ba7 9802     		.sleb128 280
 7013 0ba9 0C       		.uleb128 0xc
 7014 0baa 44170000 		.4byte	.LASF280
 7015 0bae 9902     		.sleb128 281
 7016 0bb0 0C       		.uleb128 0xc
 7017 0bb1 F23A0000 		.4byte	.LASF281
 7018 0bb5 9A02     		.sleb128 282
 7019 0bb7 0C       		.uleb128 0xc
 7020 0bb8 C5290000 		.4byte	.LASF282
 7021 0bbc 9B02     		.sleb128 283
 7022 0bbe 0C       		.uleb128 0xc
 7023 0bbf CB3E0000 		.4byte	.LASF283
 7024 0bc3 9C02     		.sleb128 284
 7025 0bc5 0C       		.uleb128 0xc
 7026 0bc6 3E3B0000 		.4byte	.LASF284
 7027 0bca 9D02     		.sleb128 285
 7028 0bcc 0C       		.uleb128 0xc
 7029 0bcd 8F440000 		.4byte	.LASF285
 7030 0bd1 9E02     		.sleb128 286
 7031 0bd3 0C       		.uleb128 0xc
 7032 0bd4 881E0000 		.4byte	.LASF286
 7033 0bd8 9F02     		.sleb128 287
 7034 0bda 0C       		.uleb128 0xc
 7035 0bdb D91A0000 		.4byte	.LASF287
 7036 0bdf A002     		.sleb128 288
 7037 0be1 0C       		.uleb128 0xc
 7038 0be2 16050000 		.4byte	.LASF288
 7039 0be6 A102     		.sleb128 289
 7040 0be8 0C       		.uleb128 0xc
 7041 0be9 792F0000 		.4byte	.LASF289
 7042 0bed A202     		.sleb128 290
 7043 0bef 0C       		.uleb128 0xc
 7044 0bf0 B31F0000 		.4byte	.LASF290
 7045 0bf4 A302     		.sleb128 291
 7046 0bf6 0C       		.uleb128 0xc
 7047 0bf7 4C340000 		.4byte	.LASF291
 7048 0bfb A402     		.sleb128 292
 7049 0bfd 0C       		.uleb128 0xc
 7050 0bfe 902D0000 		.4byte	.LASF292
 7051 0c02 A502     		.sleb128 293
 7052 0c04 0C       		.uleb128 0xc
 7053 0c05 D53C0000 		.4byte	.LASF293
 7054 0c09 A602     		.sleb128 294
 7055 0c0b 0C       		.uleb128 0xc
 7056 0c0c FC0E0000 		.4byte	.LASF294
 7057 0c10 A702     		.sleb128 295
 7058 0c12 0C       		.uleb128 0xc
 7059 0c13 510D0000 		.4byte	.LASF295
 7060 0c17 A802     		.sleb128 296
 7061 0c19 0C       		.uleb128 0xc
 7062 0c1a 3F050000 		.4byte	.LASF296
 7063 0c1e A902     		.sleb128 297
 7064 0c20 0C       		.uleb128 0xc
 7065 0c21 253A0000 		.4byte	.LASF297
 7066 0c25 AA02     		.sleb128 298
ARM GAS  C:\Users\Helon\AppData\Local\Temp\cckZyeCc.s 			page 177


 7067 0c27 0C       		.uleb128 0xc
 7068 0c28 C7030000 		.4byte	.LASF298
 7069 0c2c AB02     		.sleb128 299
 7070 0c2e 0C       		.uleb128 0xc
 7071 0c2f EB030000 		.4byte	.LASF299
 7072 0c33 AC02     		.sleb128 300
 7073 0c35 0C       		.uleb128 0xc
 7074 0c36 91000000 		.4byte	.LASF300
 7075 0c3a AD02     		.sleb128 301
 7076 0c3c 0C       		.uleb128 0xc
 7077 0c3d 62310000 		.4byte	.LASF301
 7078 0c41 AE02     		.sleb128 302
 7079 0c43 0C       		.uleb128 0xc
 7080 0c44 3B440000 		.4byte	.LASF302
 7081 0c48 AF02     		.sleb128 303
 7082 0c4a 0C       		.uleb128 0xc
 7083 0c4b FD060000 		.4byte	.LASF303
 7084 0c4f B002     		.sleb128 304
 7085 0c51 0C       		.uleb128 0xc
 7086 0c52 25280000 		.4byte	.LASF304
 7087 0c56 B102     		.sleb128 305
 7088 0c58 0C       		.uleb128 0xc
 7089 0c59 BB010000 		.4byte	.LASF305
 7090 0c5d B202     		.sleb128 306
 7091 0c5f 0C       		.uleb128 0xc
 7092 0c60 C3160000 		.4byte	.LASF306
 7093 0c64 B302     		.sleb128 307
 7094 0c66 0C       		.uleb128 0xc
 7095 0c67 3F290000 		.4byte	.LASF307
 7096 0c6b B402     		.sleb128 308
 7097 0c6d 0C       		.uleb128 0xc
 7098 0c6e A9190000 		.4byte	.LASF308
 7099 0c72 B502     		.sleb128 309
 7100 0c74 0C       		.uleb128 0xc
 7101 0c75 47070000 		.4byte	.LASF309
 7102 0c79 B602     		.sleb128 310
 7103 0c7b 0C       		.uleb128 0xc
 7104 0c7c 87020000 		.4byte	.LASF310
 7105 0c80 B702     		.sleb128 311
 7106 0c82 0C       		.uleb128 0xc
 7107 0c83 DB090000 		.4byte	.LASF311
 7108 0c87 B802     		.sleb128 312
 7109 0c89 0C       		.uleb128 0xc
 7110 0c8a A7310000 		.4byte	.LASF312
 7111 0c8e B902     		.sleb128 313
 7112 0c90 0C       		.uleb128 0xc
 7113 0c91 7B390000 		.4byte	.LASF313
 7114 0c95 BA02     		.sleb128 314
 7115 0c97 0C       		.uleb128 0xc
 7116 0c98 CB080000 		.4byte	.LASF314
 7117 0c9c BB02     		.sleb128 315
 7118 0c9e 0C       		.uleb128 0xc
 7119 0c9f E22B0000 		.4byte	.LASF315
 7120 0ca3 BC02     		.sleb128 316
 7121 0ca5 0C       		.uleb128 0xc
 7122 0ca6 383E0000 		.4byte	.LASF316
 7123 0caa BD02     		.sleb128 317
ARM GAS  C:\Users\Helon\AppData\Local\Temp\cckZyeCc.s 			page 178


 7124 0cac 0C       		.uleb128 0xc
 7125 0cad D9230000 		.4byte	.LASF317
 7126 0cb1 BE02     		.sleb128 318
 7127 0cb3 0C       		.uleb128 0xc
 7128 0cb4 8D3E0000 		.4byte	.LASF318
 7129 0cb8 BF02     		.sleb128 319
 7130 0cba 0C       		.uleb128 0xc
 7131 0cbb 4C090000 		.4byte	.LASF319
 7132 0cbf C002     		.sleb128 320
 7133 0cc1 0C       		.uleb128 0xc
 7134 0cc2 8E2C0000 		.4byte	.LASF320
 7135 0cc6 C102     		.sleb128 321
 7136 0cc8 0C       		.uleb128 0xc
 7137 0cc9 6A410000 		.4byte	.LASF321
 7138 0ccd C202     		.sleb128 322
 7139 0ccf 0C       		.uleb128 0xc
 7140 0cd0 423F0000 		.4byte	.LASF322
 7141 0cd4 C302     		.sleb128 323
 7142 0cd6 0C       		.uleb128 0xc
 7143 0cd7 D7000000 		.4byte	.LASF323
 7144 0cdb C402     		.sleb128 324
 7145 0cdd 0C       		.uleb128 0xc
 7146 0cde 483A0000 		.4byte	.LASF324
 7147 0ce2 C502     		.sleb128 325
 7148 0ce4 0C       		.uleb128 0xc
 7149 0ce5 81200000 		.4byte	.LASF325
 7150 0ce9 C602     		.sleb128 326
 7151 0ceb 0C       		.uleb128 0xc
 7152 0cec 6E380000 		.4byte	.LASF326
 7153 0cf0 C702     		.sleb128 327
 7154 0cf2 0C       		.uleb128 0xc
 7155 0cf3 E8350000 		.4byte	.LASF327
 7156 0cf7 C802     		.sleb128 328
 7157 0cf9 0C       		.uleb128 0xc
 7158 0cfa 32020000 		.4byte	.LASF328
 7159 0cfe C902     		.sleb128 329
 7160 0d00 0C       		.uleb128 0xc
 7161 0d01 A1340000 		.4byte	.LASF329
 7162 0d05 CA02     		.sleb128 330
 7163 0d07 0C       		.uleb128 0xc
 7164 0d08 6C100000 		.4byte	.LASF330
 7165 0d0c CB02     		.sleb128 331
 7166 0d0e 0C       		.uleb128 0xc
 7167 0d0f 610A0000 		.4byte	.LASF331
 7168 0d13 CC02     		.sleb128 332
 7169 0d15 0C       		.uleb128 0xc
 7170 0d16 3E0A0000 		.4byte	.LASF332
 7171 0d1a CD02     		.sleb128 333
 7172 0d1c 0C       		.uleb128 0xc
 7173 0d1d 2C100000 		.4byte	.LASF333
 7174 0d21 CE02     		.sleb128 334
 7175 0d23 0C       		.uleb128 0xc
 7176 0d24 18220000 		.4byte	.LASF334
 7177 0d28 CF02     		.sleb128 335
 7178 0d2a 0C       		.uleb128 0xc
 7179 0d2b DB420000 		.4byte	.LASF335
 7180 0d2f D002     		.sleb128 336
ARM GAS  C:\Users\Helon\AppData\Local\Temp\cckZyeCc.s 			page 179


 7181 0d31 0C       		.uleb128 0xc
 7182 0d32 F5150000 		.4byte	.LASF336
 7183 0d36 D102     		.sleb128 337
 7184 0d38 0C       		.uleb128 0xc
 7185 0d39 8B310000 		.4byte	.LASF337
 7186 0d3d D202     		.sleb128 338
 7187 0d3f 0C       		.uleb128 0xc
 7188 0d40 31080000 		.4byte	.LASF338
 7189 0d44 D302     		.sleb128 339
 7190 0d46 0C       		.uleb128 0xc
 7191 0d47 99010000 		.4byte	.LASF339
 7192 0d4b D402     		.sleb128 340
 7193 0d4d 0C       		.uleb128 0xc
 7194 0d4e 29200000 		.4byte	.LASF340
 7195 0d52 D502     		.sleb128 341
 7196 0d54 0C       		.uleb128 0xc
 7197 0d55 F2000000 		.4byte	.LASF341
 7198 0d59 D602     		.sleb128 342
 7199 0d5b 0C       		.uleb128 0xc
 7200 0d5c EE0A0000 		.4byte	.LASF342
 7201 0d60 D702     		.sleb128 343
 7202 0d62 0C       		.uleb128 0xc
 7203 0d63 AC3F0000 		.4byte	.LASF343
 7204 0d67 D802     		.sleb128 344
 7205 0d69 0C       		.uleb128 0xc
 7206 0d6a 5E190000 		.4byte	.LASF344
 7207 0d6e D902     		.sleb128 345
 7208 0d70 0C       		.uleb128 0xc
 7209 0d71 14180000 		.4byte	.LASF345
 7210 0d75 DA02     		.sleb128 346
 7211 0d77 0C       		.uleb128 0xc
 7212 0d78 6C060000 		.4byte	.LASF346
 7213 0d7c DB02     		.sleb128 347
 7214 0d7e 0C       		.uleb128 0xc
 7215 0d7f E23D0000 		.4byte	.LASF347
 7216 0d83 DC02     		.sleb128 348
 7217 0d85 0C       		.uleb128 0xc
 7218 0d86 3D250000 		.4byte	.LASF348
 7219 0d8a DD02     		.sleb128 349
 7220 0d8c 0C       		.uleb128 0xc
 7221 0d8d 37210000 		.4byte	.LASF349
 7222 0d91 DE02     		.sleb128 350
 7223 0d93 0C       		.uleb128 0xc
 7224 0d94 6B080000 		.4byte	.LASF350
 7225 0d98 DF02     		.sleb128 351
 7226 0d9a 0C       		.uleb128 0xc
 7227 0d9b 74070000 		.4byte	.LASF351
 7228 0d9f E002     		.sleb128 352
 7229 0da1 0C       		.uleb128 0xc
 7230 0da2 ED010000 		.4byte	.LASF352
 7231 0da6 E102     		.sleb128 353
 7232 0da8 0C       		.uleb128 0xc
 7233 0da9 F5250000 		.4byte	.LASF353
 7234 0dad E202     		.sleb128 354
 7235 0daf 0C       		.uleb128 0xc
 7236 0db0 0E450000 		.4byte	.LASF354
 7237 0db4 E302     		.sleb128 355
ARM GAS  C:\Users\Helon\AppData\Local\Temp\cckZyeCc.s 			page 180


 7238 0db6 0C       		.uleb128 0xc
 7239 0db7 371B0000 		.4byte	.LASF355
 7240 0dbb E402     		.sleb128 356
 7241 0dbd 0C       		.uleb128 0xc
 7242 0dbe 3A180000 		.4byte	.LASF356
 7243 0dc2 E502     		.sleb128 357
 7244 0dc4 0C       		.uleb128 0xc
 7245 0dc5 DE270000 		.4byte	.LASF357
 7246 0dc9 E602     		.sleb128 358
 7247 0dcb 0C       		.uleb128 0xc
 7248 0dcc E53B0000 		.4byte	.LASF358
 7249 0dd0 E702     		.sleb128 359
 7250 0dd2 0C       		.uleb128 0xc
 7251 0dd3 35320000 		.4byte	.LASF359
 7252 0dd7 E802     		.sleb128 360
 7253 0dd9 0C       		.uleb128 0xc
 7254 0dda 39040000 		.4byte	.LASF360
 7255 0dde E902     		.sleb128 361
 7256 0de0 0C       		.uleb128 0xc
 7257 0de1 92300000 		.4byte	.LASF361
 7258 0de5 EA02     		.sleb128 362
 7259 0de7 0C       		.uleb128 0xc
 7260 0de8 BF1C0000 		.4byte	.LASF362
 7261 0dec EB02     		.sleb128 363
 7262 0dee 0C       		.uleb128 0xc
 7263 0def EB1F0000 		.4byte	.LASF363
 7264 0df3 EC02     		.sleb128 364
 7265 0df5 0C       		.uleb128 0xc
 7266 0df6 A22B0000 		.4byte	.LASF364
 7267 0dfa ED02     		.sleb128 365
 7268 0dfc 0C       		.uleb128 0xc
 7269 0dfd 21370000 		.4byte	.LASF365
 7270 0e01 EE02     		.sleb128 366
 7271 0e03 0C       		.uleb128 0xc
 7272 0e04 41160000 		.4byte	.LASF366
 7273 0e08 EF02     		.sleb128 367
 7274 0e0a 0C       		.uleb128 0xc
 7275 0e0b D3250000 		.4byte	.LASF367
 7276 0e0f F002     		.sleb128 368
 7277 0e11 0C       		.uleb128 0xc
 7278 0e12 39240000 		.4byte	.LASF368
 7279 0e16 F102     		.sleb128 369
 7280 0e18 0C       		.uleb128 0xc
 7281 0e19 9E280000 		.4byte	.LASF369
 7282 0e1d F202     		.sleb128 370
 7283 0e1f 0C       		.uleb128 0xc
 7284 0e20 ED360000 		.4byte	.LASF370
 7285 0e24 F302     		.sleb128 371
 7286 0e26 0C       		.uleb128 0xc
 7287 0e27 6C1B0000 		.4byte	.LASF371
 7288 0e2b F402     		.sleb128 372
 7289 0e2d 0C       		.uleb128 0xc
 7290 0e2e B8250000 		.4byte	.LASF372
 7291 0e32 F502     		.sleb128 373
 7292 0e34 0C       		.uleb128 0xc
 7293 0e35 5E260000 		.4byte	.LASF373
 7294 0e39 F602     		.sleb128 374
ARM GAS  C:\Users\Helon\AppData\Local\Temp\cckZyeCc.s 			page 181


 7295 0e3b 0C       		.uleb128 0xc
 7296 0e3c 2A170000 		.4byte	.LASF374
 7297 0e40 F702     		.sleb128 375
 7298 0e42 0C       		.uleb128 0xc
 7299 0e43 9B0D0000 		.4byte	.LASF375
 7300 0e47 F802     		.sleb128 376
 7301 0e49 0C       		.uleb128 0xc
 7302 0e4a C73A0000 		.4byte	.LASF376
 7303 0e4e F902     		.sleb128 377
 7304 0e50 0C       		.uleb128 0xc
 7305 0e51 221C0000 		.4byte	.LASF377
 7306 0e55 FA02     		.sleb128 378
 7307 0e57 0C       		.uleb128 0xc
 7308 0e58 4E0C0000 		.4byte	.LASF378
 7309 0e5c FB02     		.sleb128 379
 7310 0e5e 0C       		.uleb128 0xc
 7311 0e5f 1C3B0000 		.4byte	.LASF379
 7312 0e63 FC02     		.sleb128 380
 7313 0e65 0C       		.uleb128 0xc
 7314 0e66 74320000 		.4byte	.LASF380
 7315 0e6a FD02     		.sleb128 381
 7316 0e6c 0C       		.uleb128 0xc
 7317 0e6d 92380000 		.4byte	.LASF381
 7318 0e71 FE02     		.sleb128 382
 7319 0e73 0C       		.uleb128 0xc
 7320 0e74 5E230000 		.4byte	.LASF382
 7321 0e78 FF02     		.sleb128 383
 7322 0e7a 0C       		.uleb128 0xc
 7323 0e7b 57020000 		.4byte	.LASF383
 7324 0e7f 8003     		.sleb128 384
 7325 0e81 0C       		.uleb128 0xc
 7326 0e82 422C0000 		.4byte	.LASF384
 7327 0e86 8103     		.sleb128 385
 7328 0e88 0C       		.uleb128 0xc
 7329 0e89 9B420000 		.4byte	.LASF385
 7330 0e8d 8203     		.sleb128 386
 7331 0e8f 0C       		.uleb128 0xc
 7332 0e90 F73C0000 		.4byte	.LASF386
 7333 0e94 8303     		.sleb128 387
 7334 0e96 0C       		.uleb128 0xc
 7335 0e97 65370000 		.4byte	.LASF387
 7336 0e9b 8403     		.sleb128 388
 7337 0e9d 0C       		.uleb128 0xc
 7338 0e9e 14030000 		.4byte	.LASF388
 7339 0ea2 8503     		.sleb128 389
 7340 0ea4 0C       		.uleb128 0xc
 7341 0ea5 3E140000 		.4byte	.LASF389
 7342 0ea9 8603     		.sleb128 390
 7343 0eab 0C       		.uleb128 0xc
 7344 0eac 5D3F0000 		.4byte	.LASF390
 7345 0eb0 8703     		.sleb128 391
 7346 0eb2 0C       		.uleb128 0xc
 7347 0eb3 35460000 		.4byte	.LASF391
 7348 0eb7 8803     		.sleb128 392
 7349 0eb9 0C       		.uleb128 0xc
 7350 0eba 9F260000 		.4byte	.LASF392
 7351 0ebe 8903     		.sleb128 393
ARM GAS  C:\Users\Helon\AppData\Local\Temp\cckZyeCc.s 			page 182


 7352 0ec0 0C       		.uleb128 0xc
 7353 0ec1 CD440000 		.4byte	.LASF393
 7354 0ec5 8A03     		.sleb128 394
 7355 0ec7 0C       		.uleb128 0xc
 7356 0ec8 3C260000 		.4byte	.LASF394
 7357 0ecc 8B03     		.sleb128 395
 7358 0ece 0C       		.uleb128 0xc
 7359 0ecf 5E0E0000 		.4byte	.LASF395
 7360 0ed3 8C03     		.sleb128 396
 7361 0ed5 0C       		.uleb128 0xc
 7362 0ed6 5F1C0000 		.4byte	.LASF396
 7363 0eda 8D03     		.sleb128 397
 7364 0edc 0C       		.uleb128 0xc
 7365 0edd D5190000 		.4byte	.LASF397
 7366 0ee1 8E03     		.sleb128 398
 7367 0ee3 0C       		.uleb128 0xc
 7368 0ee4 BD0D0000 		.4byte	.LASF398
 7369 0ee8 8F03     		.sleb128 399
 7370 0eea 0C       		.uleb128 0xc
 7371 0eeb 13360000 		.4byte	.LASF399
 7372 0eef 9003     		.sleb128 400
 7373 0ef1 0C       		.uleb128 0xc
 7374 0ef2 451D0000 		.4byte	.LASF400
 7375 0ef6 9103     		.sleb128 401
 7376 0ef8 0C       		.uleb128 0xc
 7377 0ef9 4A2D0000 		.4byte	.LASF401
 7378 0efd 9203     		.sleb128 402
 7379 0eff 0C       		.uleb128 0xc
 7380 0f00 7C340000 		.4byte	.LASF402
 7381 0f04 9303     		.sleb128 403
 7382 0f06 0C       		.uleb128 0xc
 7383 0f07 1C160000 		.4byte	.LASF403
 7384 0f0b 9403     		.sleb128 404
 7385 0f0d 0C       		.uleb128 0xc
 7386 0f0e B9170000 		.4byte	.LASF404
 7387 0f12 9503     		.sleb128 405
 7388 0f14 0C       		.uleb128 0xc
 7389 0f15 AE460000 		.4byte	.LASF405
 7390 0f19 9603     		.sleb128 406
 7391 0f1b 0C       		.uleb128 0xc
 7392 0f1c F02C0000 		.4byte	.LASF406
 7393 0f20 9703     		.sleb128 407
 7394 0f22 0C       		.uleb128 0xc
 7395 0f23 6E2D0000 		.4byte	.LASF407
 7396 0f27 9803     		.sleb128 408
 7397 0f29 0C       		.uleb128 0xc
 7398 0f2a 43330000 		.4byte	.LASF408
 7399 0f2e 9903     		.sleb128 409
 7400 0f30 0C       		.uleb128 0xc
 7401 0f31 2A190000 		.4byte	.LASF409
 7402 0f35 9A03     		.sleb128 410
 7403 0f37 0C       		.uleb128 0xc
 7404 0f38 AF360000 		.4byte	.LASF410
 7405 0f3c 9B03     		.sleb128 411
 7406 0f3e 0C       		.uleb128 0xc
 7407 0f3f 890C0000 		.4byte	.LASF411
 7408 0f43 9C03     		.sleb128 412
ARM GAS  C:\Users\Helon\AppData\Local\Temp\cckZyeCc.s 			page 183


 7409 0f45 0C       		.uleb128 0xc
 7410 0f46 3C000000 		.4byte	.LASF412
 7411 0f4a 9D03     		.sleb128 413
 7412 0f4c 0C       		.uleb128 0xc
 7413 0f4d 763C0000 		.4byte	.LASF413
 7414 0f51 9E03     		.sleb128 414
 7415 0f53 0C       		.uleb128 0xc
 7416 0f54 B5140000 		.4byte	.LASF414
 7417 0f58 9F03     		.sleb128 415
 7418 0f5a 0C       		.uleb128 0xc
 7419 0f5b 5A460000 		.4byte	.LASF415
 7420 0f5f A003     		.sleb128 416
 7421 0f61 0C       		.uleb128 0xc
 7422 0f62 8F050000 		.4byte	.LASF416
 7423 0f66 A103     		.sleb128 417
 7424 0f68 0C       		.uleb128 0xc
 7425 0f69 BA220000 		.4byte	.LASF417
 7426 0f6d A203     		.sleb128 418
 7427 0f6f 0C       		.uleb128 0xc
 7428 0f70 1B460000 		.4byte	.LASF418
 7429 0f74 A303     		.sleb128 419
 7430 0f76 0C       		.uleb128 0xc
 7431 0f77 BC380000 		.4byte	.LASF419
 7432 0f7b A403     		.sleb128 420
 7433 0f7d 0C       		.uleb128 0xc
 7434 0f7e 6A290000 		.4byte	.LASF420
 7435 0f82 A503     		.sleb128 421
 7436 0f84 0C       		.uleb128 0xc
 7437 0f85 052C0000 		.4byte	.LASF421
 7438 0f89 A603     		.sleb128 422
 7439 0f8b 0C       		.uleb128 0xc
 7440 0f8c A0400000 		.4byte	.LASF422
 7441 0f90 A703     		.sleb128 423
 7442 0f92 0C       		.uleb128 0xc
 7443 0f93 921D0000 		.4byte	.LASF423
 7444 0f97 A803     		.sleb128 424
 7445 0f99 0C       		.uleb128 0xc
 7446 0f9a E7180000 		.4byte	.LASF424
 7447 0f9e A903     		.sleb128 425
 7448 0fa0 0C       		.uleb128 0xc
 7449 0fa1 1B250000 		.4byte	.LASF425
 7450 0fa5 AA03     		.sleb128 426
 7451 0fa7 0C       		.uleb128 0xc
 7452 0fa8 5A3D0000 		.4byte	.LASF426
 7453 0fac AB03     		.sleb128 427
 7454 0fae 0C       		.uleb128 0xc
 7455 0faf 0D330000 		.4byte	.LASF427
 7456 0fb3 AC03     		.sleb128 428
 7457 0fb5 0C       		.uleb128 0xc
 7458 0fb6 16040000 		.4byte	.LASF428
 7459 0fba AD03     		.sleb128 429
 7460 0fbc 0C       		.uleb128 0xc
 7461 0fbd 2C2F0000 		.4byte	.LASF429
 7462 0fc1 AE03     		.sleb128 430
 7463 0fc3 0C       		.uleb128 0xc
 7464 0fc4 830A0000 		.4byte	.LASF430
 7465 0fc8 AF03     		.sleb128 431
ARM GAS  C:\Users\Helon\AppData\Local\Temp\cckZyeCc.s 			page 184


 7466 0fca 0C       		.uleb128 0xc
 7467 0fcb F3210000 		.4byte	.LASF431
 7468 0fcf B003     		.sleb128 432
 7469 0fd1 0C       		.uleb128 0xc
 7470 0fd2 D3360000 		.4byte	.LASF432
 7471 0fd6 B103     		.sleb128 433
 7472 0fd8 0C       		.uleb128 0xc
 7473 0fd9 8F060000 		.4byte	.LASF433
 7474 0fdd B203     		.sleb128 434
 7475 0fdf 0C       		.uleb128 0xc
 7476 0fe0 FA310000 		.4byte	.LASF434
 7477 0fe4 B303     		.sleb128 435
 7478 0fe6 0C       		.uleb128 0xc
 7479 0fe7 9D2F0000 		.4byte	.LASF435
 7480 0feb B403     		.sleb128 436
 7481 0fed 0C       		.uleb128 0xc
 7482 0fee 641A0000 		.4byte	.LASF436
 7483 0ff2 B503     		.sleb128 437
 7484 0ff4 0C       		.uleb128 0xc
 7485 0ff5 AA1E0000 		.4byte	.LASF437
 7486 0ff9 B603     		.sleb128 438
 7487 0ffb 0C       		.uleb128 0xc
 7488 0ffc E8240000 		.4byte	.LASF438
 7489 1000 B703     		.sleb128 439
 7490 1002 0C       		.uleb128 0xc
 7491 1003 1B2E0000 		.4byte	.LASF439
 7492 1007 B803     		.sleb128 440
 7493 1009 0C       		.uleb128 0xc
 7494 100a CC330000 		.4byte	.LASF440
 7495 100e B903     		.sleb128 441
 7496 1010 0C       		.uleb128 0xc
 7497 1011 C2350000 		.4byte	.LASF441
 7498 1015 BA03     		.sleb128 442
 7499 1017 0C       		.uleb128 0xc
 7500 1018 0E200000 		.4byte	.LASF442
 7501 101c BB03     		.sleb128 443
 7502 101e 0C       		.uleb128 0xc
 7503 101f 22290000 		.4byte	.LASF443
 7504 1023 BC03     		.sleb128 444
 7505 1025 0C       		.uleb128 0xc
 7506 1026 AE060000 		.4byte	.LASF444
 7507 102a BD03     		.sleb128 445
 7508 102c 0C       		.uleb128 0xc
 7509 102d 5D0B0000 		.4byte	.LASF445
 7510 1031 BE03     		.sleb128 446
 7511 1033 0C       		.uleb128 0xc
 7512 1034 A3150000 		.4byte	.LASF446
 7513 1038 BF03     		.sleb128 447
 7514 103a 0C       		.uleb128 0xc
 7515 103b 18390000 		.4byte	.LASF447
 7516 103f C003     		.sleb128 448
 7517 1041 0C       		.uleb128 0xc
 7518 1042 A6450000 		.4byte	.LASF448
 7519 1046 C103     		.sleb128 449
 7520 1048 0C       		.uleb128 0xc
 7521 1049 151D0000 		.4byte	.LASF449
 7522 104d C203     		.sleb128 450
ARM GAS  C:\Users\Helon\AppData\Local\Temp\cckZyeCc.s 			page 185


 7523 104f 0C       		.uleb128 0xc
 7524 1050 DD0F0000 		.4byte	.LASF450
 7525 1054 C303     		.sleb128 451
 7526 1056 0C       		.uleb128 0xc
 7527 1057 5E180000 		.4byte	.LASF451
 7528 105b C403     		.sleb128 452
 7529 105d 0C       		.uleb128 0xc
 7530 105e 0C2D0000 		.4byte	.LASF452
 7531 1062 C503     		.sleb128 453
 7532 1064 0C       		.uleb128 0xc
 7533 1065 AA040000 		.4byte	.LASF453
 7534 1069 C603     		.sleb128 454
 7535 106b 0C       		.uleb128 0xc
 7536 106c B1370000 		.4byte	.LASF454
 7537 1070 C703     		.sleb128 455
 7538 1072 0C       		.uleb128 0xc
 7539 1073 91100000 		.4byte	.LASF455
 7540 1077 C803     		.sleb128 456
 7541 1079 0C       		.uleb128 0xc
 7542 107a 79210000 		.4byte	.LASF456
 7543 107e C903     		.sleb128 457
 7544 1080 0C       		.uleb128 0xc
 7545 1081 7A170000 		.4byte	.LASF457
 7546 1085 CA03     		.sleb128 458
 7547 1087 0C       		.uleb128 0xc
 7548 1088 D03F0000 		.4byte	.LASF458
 7549 108c CB03     		.sleb128 459
 7550 108e 0C       		.uleb128 0xc
 7551 108f A2030000 		.4byte	.LASF459
 7552 1093 CC03     		.sleb128 460
 7553 1095 0C       		.uleb128 0xc
 7554 1096 1E010000 		.4byte	.LASF460
 7555 109a CD03     		.sleb128 461
 7556 109c 0C       		.uleb128 0xc
 7557 109d D8140000 		.4byte	.LASF461
 7558 10a1 CE03     		.sleb128 462
 7559 10a3 0C       		.uleb128 0xc
 7560 10a4 7F120000 		.4byte	.LASF462
 7561 10a8 CF03     		.sleb128 463
 7562 10aa 0C       		.uleb128 0xc
 7563 10ab 69280000 		.4byte	.LASF463
 7564 10af D003     		.sleb128 464
 7565 10b1 0C       		.uleb128 0xc
 7566 10b2 1A3D0000 		.4byte	.LASF464
 7567 10b6 D103     		.sleb128 465
 7568 10b8 0C       		.uleb128 0xc
 7569 10b9 1F260000 		.4byte	.LASF465
 7570 10bd D203     		.sleb128 466
 7571 10bf 0C       		.uleb128 0xc
 7572 10c0 8B360000 		.4byte	.LASF466
 7573 10c4 D303     		.sleb128 467
 7574 10c6 0C       		.uleb128 0xc
 7575 10c7 46130000 		.4byte	.LASF467
 7576 10cb D403     		.sleb128 468
 7577 10cd 0C       		.uleb128 0xc
 7578 10ce F2040000 		.4byte	.LASF468
 7579 10d2 D503     		.sleb128 469
ARM GAS  C:\Users\Helon\AppData\Local\Temp\cckZyeCc.s 			page 186


 7580 10d4 0C       		.uleb128 0xc
 7581 10d5 66360000 		.4byte	.LASF469
 7582 10d9 D603     		.sleb128 470
 7583 10db 0C       		.uleb128 0xc
 7584 10dc 8B130000 		.4byte	.LASF470
 7585 10e0 D703     		.sleb128 471
 7586 10e2 0C       		.uleb128 0xc
 7587 10e3 1B230000 		.4byte	.LASF471
 7588 10e7 D803     		.sleb128 472
 7589 10e9 0C       		.uleb128 0xc
 7590 10ea 00350000 		.4byte	.LASF472
 7591 10ee D903     		.sleb128 473
 7592 10f0 0C       		.uleb128 0xc
 7593 10f1 EB170000 		.4byte	.LASF473
 7594 10f5 DA03     		.sleb128 474
 7595 10f7 0C       		.uleb128 0xc
 7596 10f8 FF3B0000 		.4byte	.LASF474
 7597 10fc DB03     		.sleb128 475
 7598 10fe 0C       		.uleb128 0xc
 7599 10ff 80150000 		.4byte	.LASF475
 7600 1103 DC03     		.sleb128 476
 7601 1105 0C       		.uleb128 0xc
 7602 1106 E32D0000 		.4byte	.LASF476
 7603 110a DD03     		.sleb128 477
 7604 110c 0C       		.uleb128 0xc
 7605 110d AF2E0000 		.4byte	.LASF477
 7606 1111 DE03     		.sleb128 478
 7607 1113 0C       		.uleb128 0xc
 7608 1114 FC1A0000 		.4byte	.LASF478
 7609 1118 DF03     		.sleb128 479
 7610 111a 0C       		.uleb128 0xc
 7611 111b 8A1B0000 		.4byte	.LASF479
 7612 111f E003     		.sleb128 480
 7613 1121 0C       		.uleb128 0xc
 7614 1122 70440000 		.4byte	.LASF480
 7615 1126 E103     		.sleb128 481
 7616 1128 0C       		.uleb128 0xc
 7617 1129 88080000 		.4byte	.LASF481
 7618 112d E203     		.sleb128 482
 7619 112f 0C       		.uleb128 0xc
 7620 1130 3E270000 		.4byte	.LASF482
 7621 1134 E303     		.sleb128 483
 7622 1136 0C       		.uleb128 0xc
 7623 1137 03280000 		.4byte	.LASF483
 7624 113b E403     		.sleb128 484
 7625 113d 0C       		.uleb128 0xc
 7626 113e 7D2A0000 		.4byte	.LASF484
 7627 1142 E503     		.sleb128 485
 7628 1144 0C       		.uleb128 0xc
 7629 1145 A83C0000 		.4byte	.LASF485
 7630 1149 E603     		.sleb128 486
 7631 114b 0C       		.uleb128 0xc
 7632 114c C5040000 		.4byte	.LASF486
 7633 1150 E703     		.sleb128 487
 7634 1152 0C       		.uleb128 0xc
 7635 1153 65350000 		.4byte	.LASF487
 7636 1157 E803     		.sleb128 488
ARM GAS  C:\Users\Helon\AppData\Local\Temp\cckZyeCc.s 			page 187


 7637 1159 0C       		.uleb128 0xc
 7638 115a B7240000 		.4byte	.LASF488
 7639 115e E903     		.sleb128 489
 7640 1160 0C       		.uleb128 0xc
 7641 1161 66160000 		.4byte	.LASF489
 7642 1165 EA03     		.sleb128 490
 7643 1167 0C       		.uleb128 0xc
 7644 1168 EE1D0000 		.4byte	.LASF490
 7645 116c EB03     		.sleb128 491
 7646 116e 0C       		.uleb128 0xc
 7647 116f 5C2C0000 		.4byte	.LASF491
 7648 1173 EC03     		.sleb128 492
 7649 1175 0C       		.uleb128 0xc
 7650 1176 89460000 		.4byte	.LASF492
 7651 117a ED03     		.sleb128 493
 7652 117c 0C       		.uleb128 0xc
 7653 117d CC180000 		.4byte	.LASF493
 7654 1181 EE03     		.sleb128 494
 7655 1183 0C       		.uleb128 0xc
 7656 1184 54010000 		.4byte	.LASF494
 7657 1188 EF03     		.sleb128 495
 7658 118a 0C       		.uleb128 0xc
 7659 118b AE2A0000 		.4byte	.LASF495
 7660 118f F003     		.sleb128 496
 7661 1191 0C       		.uleb128 0xc
 7662 1192 5A270000 		.4byte	.LASF496
 7663 1196 F103     		.sleb128 497
 7664 1198 0C       		.uleb128 0xc
 7665 1199 311A0000 		.4byte	.LASF497
 7666 119d F203     		.sleb128 498
 7667 119f 0C       		.uleb128 0xc
 7668 11a0 2D380000 		.4byte	.LASF498
 7669 11a4 F303     		.sleb128 499
 7670 11a6 0C       		.uleb128 0xc
 7671 11a7 E8400000 		.4byte	.LASF499
 7672 11ab F403     		.sleb128 500
 7673 11ad 0C       		.uleb128 0xc
 7674 11ae 77010000 		.4byte	.LASF500
 7675 11b2 F503     		.sleb128 501
 7676 11b4 0C       		.uleb128 0xc
 7677 11b5 562F0000 		.4byte	.LASF501
 7678 11b9 F603     		.sleb128 502
 7679 11bb 0C       		.uleb128 0xc
 7680 11bc 1A150000 		.4byte	.LASF502
 7681 11c0 F703     		.sleb128 503
 7682 11c2 0C       		.uleb128 0xc
 7683 11c3 E7160000 		.4byte	.LASF503
 7684 11c7 F803     		.sleb128 504
 7685 11c9 0C       		.uleb128 0xc
 7686 11ca CB450000 		.4byte	.LASF504
 7687 11ce F903     		.sleb128 505
 7688 11d0 0C       		.uleb128 0xc
 7689 11d1 D1100000 		.4byte	.LASF505
 7690 11d5 FA03     		.sleb128 506
 7691 11d7 0C       		.uleb128 0xc
 7692 11d8 D80E0000 		.4byte	.LASF506
 7693 11dc FB03     		.sleb128 507
ARM GAS  C:\Users\Helon\AppData\Local\Temp\cckZyeCc.s 			page 188


 7694 11de 0C       		.uleb128 0xc
 7695 11df 282C0000 		.4byte	.LASF507
 7696 11e3 80C003   		.sleb128 57344
 7697 11e6 00       		.byte	0
 7698 11e7 0D       		.uleb128 0xd
 7699 11e8 01       		.byte	0x1
 7700 11e9 0D       		.byte	0xd
 7701 11ea 3707     		.2byte	0x737
 7702 11ec 1B120000 		.4byte	0x121b
 7703 11f0 0C       		.uleb128 0xc
 7704 11f1 C90F0000 		.4byte	.LASF508
 7705 11f5 00       		.sleb128 0
 7706 11f6 0C       		.uleb128 0xc
 7707 11f7 A4200000 		.4byte	.LASF509
 7708 11fb 01       		.sleb128 1
 7709 11fc 0C       		.uleb128 0xc
 7710 11fd 52420000 		.4byte	.LASF510
 7711 1201 02       		.sleb128 2
 7712 1202 0C       		.uleb128 0xc
 7713 1203 26090000 		.4byte	.LASF511
 7714 1207 03       		.sleb128 3
 7715 1208 0C       		.uleb128 0xc
 7716 1209 C5050000 		.4byte	.LASF512
 7717 120d 04       		.sleb128 4
 7718 120e 0C       		.uleb128 0xc
 7719 120f FA130000 		.4byte	.LASF513
 7720 1213 05       		.sleb128 5
 7721 1214 0C       		.uleb128 0xc
 7722 1215 4C370000 		.4byte	.LASF514
 7723 1219 06       		.sleb128 6
 7724 121a 00       		.byte	0
 7725 121b 05       		.uleb128 0x5
 7726 121c 08300000 		.4byte	.LASF515
 7727 1220 0D       		.byte	0xd
 7728 1221 4507     		.2byte	0x745
 7729 1223 E7110000 		.4byte	0x11e7
 7730 1227 0E       		.uleb128 0xe
 7731 1228 70       		.byte	0x70
 7732 1229 0E       		.byte	0xe
 7733 122a 2501     		.2byte	0x125
 7734 122c C4130000 		.4byte	0x13c4
 7735 1230 0F       		.uleb128 0xf
 7736 1231 95390000 		.4byte	.LASF516
 7737 1235 0E       		.byte	0xe
 7738 1236 2701     		.2byte	0x127
 7739 1238 EF000000 		.4byte	0xef
 7740 123c 00       		.byte	0
 7741 123d 0F       		.uleb128 0xf
 7742 123e 4F060000 		.4byte	.LASF517
 7743 1242 0E       		.byte	0xe
 7744 1243 2801     		.2byte	0x128
 7745 1245 EF000000 		.4byte	0xef
 7746 1249 04       		.byte	0x4
 7747 124a 0F       		.uleb128 0xf
 7748 124b 8A190000 		.4byte	.LASF518
 7749 124f 0E       		.byte	0xe
 7750 1250 2901     		.2byte	0x129
ARM GAS  C:\Users\Helon\AppData\Local\Temp\cckZyeCc.s 			page 189


 7751 1252 EF000000 		.4byte	0xef
 7752 1256 08       		.byte	0x8
 7753 1257 0F       		.uleb128 0xf
 7754 1258 EB1C0000 		.4byte	.LASF519
 7755 125c 0E       		.byte	0xe
 7756 125d 2A01     		.2byte	0x12a
 7757 125f EF000000 		.4byte	0xef
 7758 1263 0C       		.byte	0xc
 7759 1264 0F       		.uleb128 0xf
 7760 1265 41360000 		.4byte	.LASF520
 7761 1269 0E       		.byte	0xe
 7762 126a 2B01     		.2byte	0x12b
 7763 126c EF000000 		.4byte	0xef
 7764 1270 10       		.byte	0x10
 7765 1271 0F       		.uleb128 0xf
 7766 1272 36360000 		.4byte	.LASF521
 7767 1276 0E       		.byte	0xe
 7768 1277 2C01     		.2byte	0x12c
 7769 1279 EF000000 		.4byte	0xef
 7770 127d 14       		.byte	0x14
 7771 127e 0F       		.uleb128 0xf
 7772 127f 30310000 		.4byte	.LASF522
 7773 1283 0E       		.byte	0xe
 7774 1284 2D01     		.2byte	0x12d
 7775 1286 EF000000 		.4byte	0xef
 7776 128a 18       		.byte	0x18
 7777 128b 0F       		.uleb128 0xf
 7778 128c ED080000 		.4byte	.LASF523
 7779 1290 0E       		.byte	0xe
 7780 1291 2E01     		.2byte	0x12e
 7781 1293 EF000000 		.4byte	0xef
 7782 1297 1C       		.byte	0x1c
 7783 1298 0F       		.uleb128 0xf
 7784 1299 26130000 		.4byte	.LASF524
 7785 129d 0E       		.byte	0xe
 7786 129e 2F01     		.2byte	0x12f
 7787 12a0 EF000000 		.4byte	0xef
 7788 12a4 20       		.byte	0x20
 7789 12a5 0F       		.uleb128 0xf
 7790 12a6 5F440000 		.4byte	.LASF525
 7791 12aa 0E       		.byte	0xe
 7792 12ab 3001     		.2byte	0x130
 7793 12ad EF000000 		.4byte	0xef
 7794 12b1 24       		.byte	0x24
 7795 12b2 0F       		.uleb128 0xf
 7796 12b3 EA300000 		.4byte	.LASF526
 7797 12b7 0E       		.byte	0xe
 7798 12b8 3101     		.2byte	0x131
 7799 12ba EF000000 		.4byte	0xef
 7800 12be 28       		.byte	0x28
 7801 12bf 0F       		.uleb128 0xf
 7802 12c0 F5430000 		.4byte	.LASF527
 7803 12c4 0E       		.byte	0xe
 7804 12c5 3201     		.2byte	0x132
 7805 12c7 EF000000 		.4byte	0xef
 7806 12cb 2C       		.byte	0x2c
 7807 12cc 0F       		.uleb128 0xf
ARM GAS  C:\Users\Helon\AppData\Local\Temp\cckZyeCc.s 			page 190


 7808 12cd FA220000 		.4byte	.LASF528
 7809 12d1 0E       		.byte	0xe
 7810 12d2 3301     		.2byte	0x133
 7811 12d4 EF000000 		.4byte	0xef
 7812 12d8 30       		.byte	0x30
 7813 12d9 0F       		.uleb128 0xf
 7814 12da 14060000 		.4byte	.LASF529
 7815 12de 0E       		.byte	0xe
 7816 12df 3401     		.2byte	0x134
 7817 12e1 EF000000 		.4byte	0xef
 7818 12e5 34       		.byte	0x34
 7819 12e6 0F       		.uleb128 0xf
 7820 12e7 AE1C0000 		.4byte	.LASF530
 7821 12eb 0E       		.byte	0xe
 7822 12ec 3501     		.2byte	0x135
 7823 12ee 39080000 		.4byte	0x839
 7824 12f2 38       		.byte	0x38
 7825 12f3 0F       		.uleb128 0xf
 7826 12f4 702A0000 		.4byte	.LASF531
 7827 12f8 0E       		.byte	0xe
 7828 12f9 3601     		.2byte	0x136
 7829 12fb EF000000 		.4byte	0xef
 7830 12ff 3C       		.byte	0x3c
 7831 1300 0F       		.uleb128 0xf
 7832 1301 00000000 		.4byte	.LASF532
 7833 1305 0E       		.byte	0xe
 7834 1306 3701     		.2byte	0x137
 7835 1308 39080000 		.4byte	0x839
 7836 130c 40       		.byte	0x40
 7837 130d 0F       		.uleb128 0xf
 7838 130e 26440000 		.4byte	.LASF533
 7839 1312 0E       		.byte	0xe
 7840 1313 3801     		.2byte	0x138
 7841 1315 EF000000 		.4byte	0xef
 7842 1319 44       		.byte	0x44
 7843 131a 0F       		.uleb128 0xf
 7844 131b 0B2F0000 		.4byte	.LASF534
 7845 131f 0E       		.byte	0xe
 7846 1320 3901     		.2byte	0x139
 7847 1322 EF000000 		.4byte	0xef
 7848 1326 48       		.byte	0x48
 7849 1327 0F       		.uleb128 0xf
 7850 1328 89140000 		.4byte	.LASF535
 7851 132c 0E       		.byte	0xe
 7852 132d 3A01     		.2byte	0x13a
 7853 132f EF000000 		.4byte	0xef
 7854 1333 4C       		.byte	0x4c
 7855 1334 0F       		.uleb128 0xf
 7856 1335 44220000 		.4byte	.LASF536
 7857 1339 0E       		.byte	0xe
 7858 133a 3B01     		.2byte	0x13b
 7859 133c EF000000 		.4byte	0xef
 7860 1340 50       		.byte	0x50
 7861 1341 0F       		.uleb128 0xf
 7862 1342 F0340000 		.4byte	.LASF537
 7863 1346 0E       		.byte	0xe
 7864 1347 3C01     		.2byte	0x13c
ARM GAS  C:\Users\Helon\AppData\Local\Temp\cckZyeCc.s 			page 191


 7865 1349 EF000000 		.4byte	0xef
 7866 134d 54       		.byte	0x54
 7867 134e 0F       		.uleb128 0xf
 7868 134f A8070000 		.4byte	.LASF538
 7869 1353 0E       		.byte	0xe
 7870 1354 3D01     		.2byte	0x13d
 7871 1356 EF000000 		.4byte	0xef
 7872 135a 58       		.byte	0x58
 7873 135b 0F       		.uleb128 0xf
 7874 135c 8F280000 		.4byte	.LASF539
 7875 1360 0E       		.byte	0xe
 7876 1361 3E01     		.2byte	0x13e
 7877 1363 EF000000 		.4byte	0xef
 7878 1367 5C       		.byte	0x5c
 7879 1368 0F       		.uleb128 0xf
 7880 1369 AD160000 		.4byte	.LASF540
 7881 136d 0E       		.byte	0xe
 7882 136e 3F01     		.2byte	0x13f
 7883 1370 EF000000 		.4byte	0xef
 7884 1374 60       		.byte	0x60
 7885 1375 0F       		.uleb128 0xf
 7886 1376 880F0000 		.4byte	.LASF541
 7887 137a 0E       		.byte	0xe
 7888 137b 4001     		.2byte	0x140
 7889 137d EF000000 		.4byte	0xef
 7890 1381 64       		.byte	0x64
 7891 1382 0F       		.uleb128 0xf
 7892 1383 2D000000 		.4byte	.LASF542
 7893 1387 0E       		.byte	0xe
 7894 1388 4101     		.2byte	0x141
 7895 138a D9000000 		.4byte	0xd9
 7896 138e 68       		.byte	0x68
 7897 138f 0F       		.uleb128 0xf
 7898 1390 6C1E0000 		.4byte	.LASF543
 7899 1394 0E       		.byte	0xe
 7900 1395 4201     		.2byte	0x142
 7901 1397 D9000000 		.4byte	0xd9
 7902 139b 69       		.byte	0x69
 7903 139c 0F       		.uleb128 0xf
 7904 139d BB410000 		.4byte	.LASF544
 7905 13a1 0E       		.byte	0xe
 7906 13a2 4301     		.2byte	0x143
 7907 13a4 D9000000 		.4byte	0xd9
 7908 13a8 6A       		.byte	0x6a
 7909 13a9 0F       		.uleb128 0xf
 7910 13aa 0D430000 		.4byte	.LASF545
 7911 13ae 0E       		.byte	0xe
 7912 13af 4401     		.2byte	0x144
 7913 13b1 D9000000 		.4byte	0xd9
 7914 13b5 6B       		.byte	0x6b
 7915 13b6 0F       		.uleb128 0xf
 7916 13b7 FF100000 		.4byte	.LASF546
 7917 13bb 0E       		.byte	0xe
 7918 13bc 4501     		.2byte	0x145
 7919 13be D9000000 		.4byte	0xd9
 7920 13c2 6C       		.byte	0x6c
 7921 13c3 00       		.byte	0
ARM GAS  C:\Users\Helon\AppData\Local\Temp\cckZyeCc.s 			page 192


 7922 13c4 05       		.uleb128 0x5
 7923 13c5 211B0000 		.4byte	.LASF547
 7924 13c9 0E       		.byte	0xe
 7925 13ca 4601     		.2byte	0x146
 7926 13cc 27120000 		.4byte	0x1227
 7927 13d0 0B       		.uleb128 0xb
 7928 13d1 01       		.byte	0x1
 7929 13d2 0F       		.byte	0xf
 7930 13d3 7C       		.byte	0x7c
 7931 13d4 74140000 		.4byte	0x1474
 7932 13d8 0C       		.uleb128 0xc
 7933 13d9 46340000 		.4byte	.LASF548
 7934 13dd 00       		.sleb128 0
 7935 13de 0C       		.uleb128 0xc
 7936 13df ED450000 		.4byte	.LASF549
 7937 13e3 01       		.sleb128 1
 7938 13e4 0C       		.uleb128 0xc
 7939 13e5 EA3A0000 		.4byte	.LASF550
 7940 13e9 02       		.sleb128 2
 7941 13ea 0C       		.uleb128 0xc
 7942 13eb A8160000 		.4byte	.LASF551
 7943 13ef 03       		.sleb128 3
 7944 13f0 0C       		.uleb128 0xc
 7945 13f1 64290000 		.4byte	.LASF552
 7946 13f5 04       		.sleb128 4
 7947 13f6 0C       		.uleb128 0xc
 7948 13f7 47090000 		.4byte	.LASF553
 7949 13fb 05       		.sleb128 5
 7950 13fc 0C       		.uleb128 0xc
 7951 13fd 69170000 		.4byte	.LASF554
 7952 1401 06       		.sleb128 6
 7953 1402 17       		.uleb128 0x17
 7954 1403 54585000 		.ascii	"TXP\000"
 7955 1407 07       		.sleb128 7
 7956 1408 0C       		.uleb128 0xc
 7957 1409 09000000 		.4byte	.LASF555
 7958 140d 08       		.sleb128 8
 7959 140e 0C       		.uleb128 0xc
 7960 140f C6080000 		.4byte	.LASF556
 7961 1413 09       		.sleb128 9
 7962 1414 0C       		.uleb128 0xc
 7963 1415 BF290000 		.4byte	.LASF557
 7964 1419 0A       		.sleb128 10
 7965 141a 0C       		.uleb128 0xc
 7966 141b ED410000 		.4byte	.LASF558
 7967 141f 0B       		.sleb128 11
 7968 1420 0C       		.uleb128 0xc
 7969 1421 D41A0000 		.4byte	.LASF559
 7970 1425 0C       		.sleb128 12
 7971 1426 0C       		.uleb128 0xc
 7972 1427 1F3A0000 		.4byte	.LASF560
 7973 142b 0D       		.sleb128 13
 7974 142c 0C       		.uleb128 0xc
 7975 142d 82180000 		.4byte	.LASF561
 7976 1431 0E       		.sleb128 14
 7977 1432 0C       		.uleb128 0xc
 7978 1433 F61E0000 		.4byte	.LASF562
ARM GAS  C:\Users\Helon\AppData\Local\Temp\cckZyeCc.s 			page 193


 7979 1437 0F       		.sleb128 15
 7980 1438 17       		.uleb128 0x17
 7981 1439 545800   		.ascii	"TX\000"
 7982 143c 10       		.sleb128 16
 7983 143d 0C       		.uleb128 0xc
 7984 143e DC240000 		.4byte	.LASF563
 7985 1442 11       		.sleb128 17
 7986 1443 0C       		.uleb128 0xc
 7987 1444 87370000 		.4byte	.LASF564
 7988 1448 12       		.sleb128 18
 7989 1449 17       		.uleb128 0x17
 7990 144a 5F415400 		.ascii	"_AT\000"
 7991 144e 13       		.sleb128 19
 7992 144f 0C       		.uleb128 0xc
 7993 1450 BD160000 		.4byte	.LASF565
 7994 1454 14       		.sleb128 20
 7995 1455 0C       		.uleb128 0xc
 7996 1456 D3300000 		.4byte	.LASF566
 7997 145a 15       		.sleb128 21
 7998 145b 0C       		.uleb128 0xc
 7999 145c 39050000 		.4byte	.LASF567
 8000 1460 16       		.sleb128 22
 8001 1461 0C       		.uleb128 0xc
 8002 1462 D2000000 		.4byte	.LASF568
 8003 1466 17       		.sleb128 23
 8004 1467 0C       		.uleb128 0xc
 8005 1468 4E390000 		.4byte	.LASF569
 8006 146c 18       		.sleb128 24
 8007 146d 0C       		.uleb128 0xc
 8008 146e 152E0000 		.4byte	.LASF570
 8009 1472 19       		.sleb128 25
 8010 1473 00       		.byte	0
 8011 1474 13       		.uleb128 0x13
 8012 1475 25       		.byte	0x25
 8013 1476 0F       		.byte	0xf
 8014 1477 B6       		.byte	0xb6
 8015 1478 AD140000 		.4byte	0x14ad
 8016 147c 14       		.uleb128 0x14
 8017 147d F3450000 		.4byte	.LASF571
 8018 1481 0F       		.byte	0xf
 8019 1482 B9       		.byte	0xb9
 8020 1483 AD140000 		.4byte	0x14ad
 8021 1487 00       		.byte	0
 8022 1488 14       		.uleb128 0x14
 8023 1489 6E170000 		.4byte	.LASF572
 8024 148d 0F       		.byte	0xf
 8025 148e BA       		.byte	0xba
 8026 148f AD140000 		.4byte	0x14ad
 8027 1493 04       		.byte	0x4
 8028 1494 14       		.uleb128 0x14
 8029 1495 5C1B0000 		.4byte	.LASF573
 8030 1499 0F       		.byte	0xf
 8031 149a BC       		.byte	0xbc
 8032 149b AD000000 		.4byte	0xad
 8033 149f 08       		.byte	0x8
 8034 14a0 14       		.uleb128 0x14
 8035 14a1 C92A0000 		.4byte	.LASF574
ARM GAS  C:\Users\Helon\AppData\Local\Temp\cckZyeCc.s 			page 194


 8036 14a5 0F       		.byte	0xf
 8037 14a6 BE       		.byte	0xbe
 8038 14a7 7A060000 		.4byte	0x67a
 8039 14ab 09       		.byte	0x9
 8040 14ac 00       		.byte	0
 8041 14ad 10       		.uleb128 0x10
 8042 14ae AD000000 		.4byte	0xad
 8043 14b2 BD140000 		.4byte	0x14bd
 8044 14b6 11       		.uleb128 0x11
 8045 14b7 54010000 		.4byte	0x154
 8046 14bb 03       		.byte	0x3
 8047 14bc 00       		.byte	0
 8048 14bd 02       		.uleb128 0x2
 8049 14be 9E170000 		.4byte	.LASF575
 8050 14c2 0F       		.byte	0xf
 8051 14c3 BF       		.byte	0xbf
 8052 14c4 74140000 		.4byte	0x1474
 8053 14c8 13       		.uleb128 0x13
 8054 14c9 1E       		.byte	0x1e
 8055 14ca 10       		.byte	0x10
 8056 14cb 25       		.byte	0x25
 8057 14cc 0D150000 		.4byte	0x150d
 8058 14d0 14       		.uleb128 0x14
 8059 14d1 90410000 		.4byte	.LASF576
 8060 14d5 10       		.byte	0x10
 8061 14d6 27       		.byte	0x27
 8062 14d7 0A050000 		.4byte	0x50a
 8063 14db 00       		.byte	0
 8064 14dc 18       		.uleb128 0x18
 8065 14dd 69647800 		.ascii	"idx\000"
 8066 14e1 10       		.byte	0x10
 8067 14e2 28       		.byte	0x28
 8068 14e3 AD000000 		.4byte	0xad
 8069 14e7 07       		.byte	0x7
 8070 14e8 14       		.uleb128 0x14
 8071 14e9 36440000 		.4byte	.LASF217
 8072 14ed 10       		.byte	0x10
 8073 14ee 29       		.byte	0x29
 8074 14ef A2000000 		.4byte	0xa2
 8075 14f3 08       		.byte	0x8
 8076 14f4 14       		.uleb128 0x14
 8077 14f5 1B090000 		.4byte	.LASF577
 8078 14f9 10       		.byte	0x10
 8079 14fa 2A       		.byte	0x2a
 8080 14fb 0D150000 		.4byte	0x150d
 8081 14ff 09       		.byte	0x9
 8082 1500 14       		.uleb128 0x14
 8083 1501 0B060000 		.4byte	.LASF578
 8084 1505 10       		.byte	0x10
 8085 1506 2C       		.byte	0x2c
 8086 1507 AD000000 		.4byte	0xad
 8087 150b 1D       		.byte	0x1d
 8088 150c 00       		.byte	0
 8089 150d 10       		.uleb128 0x10
 8090 150e A2000000 		.4byte	0xa2
 8091 1512 1D150000 		.4byte	0x151d
 8092 1516 11       		.uleb128 0x11
ARM GAS  C:\Users\Helon\AppData\Local\Temp\cckZyeCc.s 			page 195


 8093 1517 54010000 		.4byte	0x154
 8094 151b 13       		.byte	0x13
 8095 151c 00       		.byte	0
 8096 151d 02       		.uleb128 0x2
 8097 151e 52210000 		.4byte	.LASF579
 8098 1522 10       		.byte	0x10
 8099 1523 2D       		.byte	0x2d
 8100 1524 C8140000 		.4byte	0x14c8
 8101 1528 19       		.uleb128 0x19
 8102 1529 1F1A0000 		.4byte	.LASF586
 8103 152d 01       		.byte	0x1
 8104 152e 5D       		.byte	0x5d
 8105 152f 00000000 		.4byte	.LFB35
 8106 1533 C0020000 		.4byte	.LFE35-.LFB35
 8107 1537 01       		.uleb128 0x1
 8108 1538 9C       		.byte	0x9c
 8109 1539 C3170000 		.4byte	0x17c3
 8110 153d 1A       		.uleb128 0x1a
 8111 153e 08400000 		.4byte	.LASF580
 8112 1542 01       		.byte	0x1
 8113 1543 5D       		.byte	0x5d
 8114 1544 EF000000 		.4byte	0xef
 8115 1548 00000000 		.4byte	.LLST0
 8116 154c 1A       		.uleb128 0x1a
 8117 154d 7C020000 		.4byte	.LASF581
 8118 1551 01       		.byte	0x1
 8119 1552 5D       		.byte	0x5d
 8120 1553 5B010000 		.4byte	0x15b
 8121 1557 21000000 		.4byte	.LLST1
 8122 155b 1B       		.uleb128 0x1b
 8123 155c 25340000 		.4byte	.LASF582
 8124 1560 01       		.byte	0x1
 8125 1561 5F       		.byte	0x5f
 8126 1562 3F080000 		.4byte	0x83f
 8127 1566 02       		.uleb128 0x2
 8128 1567 91       		.byte	0x91
 8129 1568 5C       		.sleb128 -36
 8130 1569 1B       		.uleb128 0x1b
 8131 156a 4D190000 		.4byte	.LASF583
 8132 156e 01       		.byte	0x1
 8133 156f 61       		.byte	0x61
 8134 1570 C50A0000 		.4byte	0xac5
 8135 1574 02       		.uleb128 0x2
 8136 1575 91       		.byte	0x91
 8137 1576 4C       		.sleb128 -52
 8138 1577 1C       		.uleb128 0x1c
 8139 1578 6900     		.ascii	"i\000"
 8140 157a 01       		.byte	0x1
 8141 157b 62       		.byte	0x62
 8142 157c AD000000 		.4byte	0xad
 8143 1580 B0010000 		.4byte	.LLST2
 8144 1584 1D       		.uleb128 0x1d
 8145 1585 66330000 		.4byte	.LASF584
 8146 1589 01       		.byte	0x1
 8147 158a 63       		.byte	0x63
 8148 158b C3170000 		.4byte	0x17c3
 8149 158f 2A020000 		.4byte	.LLST3
ARM GAS  C:\Users\Helon\AppData\Local\Temp\cckZyeCc.s 			page 196


 8150 1593 1B       		.uleb128 0x1b
 8151 1594 48280000 		.4byte	.LASF585
 8152 1598 01       		.byte	0x1
 8153 1599 64       		.byte	0x64
 8154 159a 140A0000 		.4byte	0xa14
 8155 159e 03       		.uleb128 0x3
 8156 159f 91       		.byte	0x91
 8157 15a0 BC7F     		.sleb128 -68
 8158 15a2 1E       		.uleb128 0x1e
 8159 15a3 1A000000 		.4byte	.LVL3
 8160 15a7 22350000 		.4byte	0x3522
 8161 15ab B9150000 		.4byte	0x15b9
 8162 15af 1F       		.uleb128 0x1f
 8163 15b0 01       		.uleb128 0x1
 8164 15b1 50       		.byte	0x50
 8165 15b2 05       		.uleb128 0x5
 8166 15b3 03       		.byte	0x3
 8167 15b4 00000000 		.4byte	.LC1
 8168 15b8 00       		.byte	0
 8169 15b9 20       		.uleb128 0x20
 8170 15ba 1E000000 		.4byte	.LVL4
 8171 15be 3B350000 		.4byte	0x353b
 8172 15c2 1E       		.uleb128 0x1e
 8173 15c3 44000000 		.4byte	.LVL8
 8174 15c7 47350000 		.4byte	0x3547
 8175 15cb D6150000 		.4byte	0x15d6
 8176 15cf 1F       		.uleb128 0x1f
 8177 15d0 01       		.uleb128 0x1
 8178 15d1 50       		.byte	0x50
 8179 15d2 02       		.uleb128 0x2
 8180 15d3 91       		.byte	0x91
 8181 15d4 5C       		.sleb128 -36
 8182 15d5 00       		.byte	0
 8183 15d6 1E       		.uleb128 0x1e
 8184 15d7 5C000000 		.4byte	.LVL10
 8185 15db 22350000 		.4byte	0x3522
 8186 15df ED150000 		.4byte	0x15ed
 8187 15e3 1F       		.uleb128 0x1f
 8188 15e4 01       		.uleb128 0x1
 8189 15e5 50       		.byte	0x50
 8190 15e6 05       		.uleb128 0x5
 8191 15e7 03       		.byte	0x3
 8192 15e8 10000000 		.4byte	.LC4
 8193 15ec 00       		.byte	0
 8194 15ed 20       		.uleb128 0x20
 8195 15ee 6A000000 		.4byte	.LVL12
 8196 15f2 5E350000 		.4byte	0x355e
 8197 15f6 1E       		.uleb128 0x1e
 8198 15f7 70000000 		.4byte	.LVL13
 8199 15fb 22350000 		.4byte	0x3522
 8200 15ff 0D160000 		.4byte	0x160d
 8201 1603 1F       		.uleb128 0x1f
 8202 1604 01       		.uleb128 0x1
 8203 1605 50       		.byte	0x50
 8204 1606 05       		.uleb128 0x5
 8205 1607 03       		.byte	0x3
 8206 1608 1C000000 		.4byte	.LC6
ARM GAS  C:\Users\Helon\AppData\Local\Temp\cckZyeCc.s 			page 197


 8207 160c 00       		.byte	0
 8208 160d 1E       		.uleb128 0x1e
 8209 160e 7A000000 		.4byte	.LVL15
 8210 1612 66350000 		.4byte	0x3566
 8211 1616 29160000 		.4byte	0x1629
 8212 161a 1F       		.uleb128 0x1f
 8213 161b 01       		.uleb128 0x1
 8214 161c 52       		.byte	0x52
 8215 161d 01       		.uleb128 0x1
 8216 161e 38       		.byte	0x38
 8217 161f 1F       		.uleb128 0x1f
 8218 1620 01       		.uleb128 0x1
 8219 1621 50       		.byte	0x50
 8220 1622 05       		.uleb128 0x5
 8221 1623 03       		.byte	0x3
 8222 1624 00000000 		.4byte	ConnParam
 8223 1628 00       		.byte	0
 8224 1629 1E       		.uleb128 0x1e
 8225 162a 88000000 		.4byte	.LVL16
 8226 162e 22350000 		.4byte	0x3522
 8227 1632 40160000 		.4byte	0x1640
 8228 1636 1F       		.uleb128 0x1f
 8229 1637 01       		.uleb128 0x1
 8230 1638 50       		.byte	0x50
 8231 1639 05       		.uleb128 0x5
 8232 163a 03       		.byte	0x3
 8233 163b 28000000 		.4byte	.LC10
 8234 163f 00       		.byte	0
 8235 1640 1E       		.uleb128 0x1e
 8236 1641 94000000 		.4byte	.LVL17
 8237 1645 8A350000 		.4byte	0x358a
 8238 1649 57160000 		.4byte	0x1657
 8239 164d 1F       		.uleb128 0x1f
 8240 164e 01       		.uleb128 0x1
 8241 164f 50       		.byte	0x50
 8242 1650 05       		.uleb128 0x5
 8243 1651 03       		.byte	0x3
 8244 1652 38000000 		.4byte	.LC12
 8245 1656 00       		.byte	0
 8246 1657 1E       		.uleb128 0x1e
 8247 1658 A0000000 		.4byte	.LVL18
 8248 165c A0350000 		.4byte	0x35a0
 8249 1660 6E160000 		.4byte	0x166e
 8250 1664 1F       		.uleb128 0x1f
 8251 1665 01       		.uleb128 0x1
 8252 1666 51       		.byte	0x51
 8253 1667 05       		.uleb128 0x5
 8254 1668 03       		.byte	0x3
 8255 1669 04000000 		.4byte	.LANCHOR1+4
 8256 166d 00       		.byte	0
 8257 166e 1E       		.uleb128 0x1e
 8258 166f AA000000 		.4byte	.LVL20
 8259 1673 66350000 		.4byte	0x3566
 8260 1677 8A160000 		.4byte	0x168a
 8261 167b 1F       		.uleb128 0x1f
 8262 167c 01       		.uleb128 0x1
 8263 167d 52       		.byte	0x52
ARM GAS  C:\Users\Helon\AppData\Local\Temp\cckZyeCc.s 			page 198


 8264 167e 01       		.uleb128 0x1
 8265 167f 38       		.byte	0x38
 8266 1680 1F       		.uleb128 0x1f
 8267 1681 01       		.uleb128 0x1
 8268 1682 50       		.byte	0x50
 8269 1683 05       		.uleb128 0x5
 8270 1684 03       		.byte	0x3
 8271 1685 00000000 		.4byte	ConnParam
 8272 1689 00       		.byte	0
 8273 168a 1E       		.uleb128 0x1e
 8274 168b B0000000 		.4byte	.LVL21
 8275 168f 22350000 		.4byte	0x3522
 8276 1693 A1160000 		.4byte	0x16a1
 8277 1697 1F       		.uleb128 0x1f
 8278 1698 01       		.uleb128 0x1
 8279 1699 50       		.byte	0x50
 8280 169a 05       		.uleb128 0x5
 8281 169b 03       		.byte	0x3
 8282 169c 4C000000 		.4byte	.LC15
 8283 16a0 00       		.byte	0
 8284 16a1 1E       		.uleb128 0x1e
 8285 16a2 D4000000 		.4byte	.LVL24
 8286 16a6 C1350000 		.4byte	0x35c1
 8287 16aa B8160000 		.4byte	0x16b8
 8288 16ae 1F       		.uleb128 0x1f
 8289 16af 01       		.uleb128 0x1
 8290 16b0 51       		.byte	0x51
 8291 16b1 05       		.uleb128 0x5
 8292 16b2 03       		.byte	0x3
 8293 16b3 00000000 		.4byte	writeRequestData
 8294 16b7 00       		.byte	0
 8295 16b8 1E       		.uleb128 0x1e
 8296 16b9 0C010000 		.4byte	.LVL29
 8297 16bd 8A350000 		.4byte	0x358a
 8298 16c1 CF160000 		.4byte	0x16cf
 8299 16c5 1F       		.uleb128 0x1f
 8300 16c6 01       		.uleb128 0x1
 8301 16c7 50       		.byte	0x50
 8302 16c8 05       		.uleb128 0x5
 8303 16c9 03       		.byte	0x3
 8304 16ca 60000000 		.4byte	.LC19
 8305 16ce 00       		.byte	0
 8306 16cf 1E       		.uleb128 0x1e
 8307 16d0 1A010000 		.4byte	.LVL30
 8308 16d4 8A350000 		.4byte	0x358a
 8309 16d8 E6160000 		.4byte	0x16e6
 8310 16dc 1F       		.uleb128 0x1f
 8311 16dd 01       		.uleb128 0x1
 8312 16de 50       		.byte	0x50
 8313 16df 05       		.uleb128 0x5
 8314 16e0 03       		.byte	0x3
 8315 16e1 78000000 		.4byte	.LC21
 8316 16e5 00       		.byte	0
 8317 16e6 20       		.uleb128 0x20
 8318 16e7 1E010000 		.4byte	.LVL31
 8319 16eb 3B350000 		.4byte	0x353b
 8320 16ef 20       		.uleb128 0x20
ARM GAS  C:\Users\Helon\AppData\Local\Temp\cckZyeCc.s 			page 199


 8321 16f0 62010000 		.4byte	.LVL36
 8322 16f4 E2350000 		.4byte	0x35e2
 8323 16f8 1E       		.uleb128 0x1e
 8324 16f9 72010000 		.4byte	.LVL39
 8325 16fd F4350000 		.4byte	0x35f4
 8326 1701 0F170000 		.4byte	0x170f
 8327 1705 1F       		.uleb128 0x1f
 8328 1706 01       		.uleb128 0x1
 8329 1707 50       		.byte	0x50
 8330 1708 05       		.uleb128 0x5
 8331 1709 03       		.byte	0x3
 8332 170a 94000000 		.4byte	.LC23
 8333 170e 00       		.byte	0
 8334 170f 1E       		.uleb128 0x1e
 8335 1710 8E010000 		.4byte	.LVL40
 8336 1714 22350000 		.4byte	0x3522
 8337 1718 26170000 		.4byte	0x1726
 8338 171c 1F       		.uleb128 0x1f
 8339 171d 01       		.uleb128 0x1
 8340 171e 50       		.byte	0x50
 8341 171f 05       		.uleb128 0x5
 8342 1720 03       		.byte	0x3
 8343 1721 98000000 		.4byte	.LC25
 8344 1725 00       		.byte	0
 8345 1726 1E       		.uleb128 0x1e
 8346 1727 9C010000 		.4byte	.LVL41
 8347 172b 22350000 		.4byte	0x3522
 8348 172f 3D170000 		.4byte	0x173d
 8349 1733 1F       		.uleb128 0x1f
 8350 1734 01       		.uleb128 0x1
 8351 1735 50       		.byte	0x50
 8352 1736 05       		.uleb128 0x5
 8353 1737 03       		.byte	0x3
 8354 1738 B0000000 		.4byte	.LC27
 8355 173c 00       		.byte	0
 8356 173d 1E       		.uleb128 0x1e
 8357 173e AC010000 		.4byte	.LVL43
 8358 1742 F4350000 		.4byte	0x35f4
 8359 1746 54170000 		.4byte	0x1754
 8360 174a 1F       		.uleb128 0x1f
 8361 174b 01       		.uleb128 0x1
 8362 174c 50       		.byte	0x50
 8363 174d 05       		.uleb128 0x5
 8364 174e 03       		.byte	0x3
 8365 174f CC000000 		.4byte	.LC29
 8366 1753 00       		.byte	0
 8367 1754 20       		.uleb128 0x20
 8368 1755 B0010000 		.4byte	.LVL44
 8369 1759 11360000 		.4byte	0x3611
 8370 175d 1E       		.uleb128 0x1e
 8371 175e EA010000 		.4byte	.LVL50
 8372 1762 8A350000 		.4byte	0x358a
 8373 1766 74170000 		.4byte	0x1774
 8374 176a 1F       		.uleb128 0x1f
 8375 176b 01       		.uleb128 0x1
 8376 176c 50       		.byte	0x50
 8377 176d 05       		.uleb128 0x5
ARM GAS  C:\Users\Helon\AppData\Local\Temp\cckZyeCc.s 			page 200


 8378 176e 03       		.byte	0x3
 8379 176f F8000000 		.4byte	.LC31
 8380 1773 00       		.byte	0
 8381 1774 1E       		.uleb128 0x1e
 8382 1775 F8010000 		.4byte	.LVL52
 8383 1779 8A350000 		.4byte	0x358a
 8384 177d 8B170000 		.4byte	0x178b
 8385 1781 1F       		.uleb128 0x1f
 8386 1782 01       		.uleb128 0x1
 8387 1783 50       		.byte	0x50
 8388 1784 05       		.uleb128 0x5
 8389 1785 03       		.byte	0x3
 8390 1786 00010000 		.4byte	.LC33
 8391 178a 00       		.byte	0
 8392 178b 1E       		.uleb128 0x1e
 8393 178c 0A020000 		.4byte	.LVL55
 8394 1790 22350000 		.4byte	0x3522
 8395 1794 A2170000 		.4byte	0x17a2
 8396 1798 1F       		.uleb128 0x1f
 8397 1799 01       		.uleb128 0x1
 8398 179a 50       		.byte	0x50
 8399 179b 05       		.uleb128 0x5
 8400 179c 03       		.byte	0x3
 8401 179d 08010000 		.4byte	.LC35
 8402 17a1 00       		.byte	0
 8403 17a2 1E       		.uleb128 0x1e
 8404 17a3 30020000 		.4byte	.LVL60
 8405 17a7 8A350000 		.4byte	0x358a
 8406 17ab B9170000 		.4byte	0x17b9
 8407 17af 1F       		.uleb128 0x1f
 8408 17b0 01       		.uleb128 0x1
 8409 17b1 50       		.byte	0x50
 8410 17b2 05       		.uleb128 0x5
 8411 17b3 03       		.byte	0x3
 8412 17b4 0C010000 		.4byte	.LC37
 8413 17b8 00       		.byte	0
 8414 17b9 20       		.uleb128 0x20
 8415 17ba 52020000 		.4byte	.LVL65
 8416 17be 19360000 		.4byte	0x3619
 8417 17c2 00       		.byte	0
 8418 17c3 07       		.uleb128 0x7
 8419 17c4 04       		.byte	0x4
 8420 17c5 610A0000 		.4byte	0xa61
 8421 17c9 21       		.uleb128 0x21
 8422 17ca 761E0000 		.4byte	.LASF587
 8423 17ce 01       		.byte	0x1
 8424 17cf D401     		.2byte	0x1d4
 8425 17d1 00000000 		.4byte	.LFB37
 8426 17d5 44000000 		.4byte	.LFE37-.LFB37
 8427 17d9 01       		.uleb128 0x1
 8428 17da 9C       		.byte	0x9c
 8429 17db 01180000 		.4byte	0x1801
 8430 17df 20       		.uleb128 0x20
 8431 17e0 06000000 		.4byte	.LVL66
 8432 17e4 3A360000 		.4byte	0x363a
 8433 17e8 20       		.uleb128 0x20
 8434 17e9 0A000000 		.4byte	.LVL67
ARM GAS  C:\Users\Helon\AppData\Local\Temp\cckZyeCc.s 			page 201


 8435 17ed 41360000 		.4byte	0x3641
 8436 17f1 22       		.uleb128 0x22
 8437 17f2 38000000 		.4byte	.LVL68
 8438 17f6 4C360000 		.4byte	0x364c
 8439 17fa 1F       		.uleb128 0x1f
 8440 17fb 01       		.uleb128 0x1
 8441 17fc 50       		.byte	0x50
 8442 17fd 01       		.uleb128 0x1
 8443 17fe 30       		.byte	0x30
 8444 17ff 00       		.byte	0
 8445 1800 00       		.byte	0
 8446 1801 21       		.uleb128 0x21
 8447 1802 CA190000 		.4byte	.LASF588
 8448 1806 01       		.byte	0x1
 8449 1807 6805     		.2byte	0x568
 8450 1809 00000000 		.4byte	.LFB45
 8451 180d 40000000 		.4byte	.LFE45-.LFB45
 8452 1811 01       		.uleb128 0x1
 8453 1812 9C       		.byte	0x9c
 8454 1813 59180000 		.4byte	0x1859
 8455 1817 23       		.uleb128 0x23
 8456 1818 A31B0000 		.4byte	.LASF589
 8457 181c 01       		.byte	0x1
 8458 181d 6C05     		.2byte	0x56c
 8459 181f EF000000 		.4byte	0xef
 8460 1823 05       		.uleb128 0x5
 8461 1824 03       		.byte	0x3
 8462 1825 44000000 		.4byte	timercount.7908
 8463 1829 1E       		.uleb128 0x1e
 8464 182a 08000000 		.4byte	.LVL69
 8465 182e 62360000 		.4byte	0x3662
 8466 1832 3C180000 		.4byte	0x183c
 8467 1836 1F       		.uleb128 0x1f
 8468 1837 01       		.uleb128 0x1
 8469 1838 50       		.byte	0x50
 8470 1839 01       		.uleb128 0x1
 8471 183a 31       		.byte	0x31
 8472 183b 00       		.byte	0
 8473 183c 20       		.uleb128 0x20
 8474 183d 28000000 		.4byte	.LVL70
 8475 1841 74360000 		.4byte	0x3674
 8476 1845 22       		.uleb128 0x22
 8477 1846 30000000 		.4byte	.LVL71
 8478 184a 22350000 		.4byte	0x3522
 8479 184e 1F       		.uleb128 0x1f
 8480 184f 01       		.uleb128 0x1
 8481 1850 50       		.byte	0x50
 8482 1851 05       		.uleb128 0x5
 8483 1852 03       		.byte	0x3
 8484 1853 30010000 		.4byte	.LC45
 8485 1857 00       		.byte	0
 8486 1858 00       		.byte	0
 8487 1859 21       		.uleb128 0x21
 8488 185a 10020000 		.4byte	.LASF590
 8489 185e 01       		.byte	0x1
 8490 185f 9B01     		.2byte	0x19b
 8491 1861 00000000 		.4byte	.LFB36
ARM GAS  C:\Users\Helon\AppData\Local\Temp\cckZyeCc.s 			page 202


 8492 1865 64000000 		.4byte	.LFE36-.LFB36
 8493 1869 01       		.uleb128 0x1
 8494 186a 9C       		.byte	0x9c
 8495 186b ED180000 		.4byte	0x18ed
 8496 186f 24       		.uleb128 0x24
 8497 1870 CE200000 		.4byte	.LASF591
 8498 1874 01       		.byte	0x1
 8499 1875 9E01     		.2byte	0x19e
 8500 1877 DF030000 		.4byte	0x3df
 8501 187b 5E020000 		.4byte	.LLST4
 8502 187f 24       		.uleb128 0x24
 8503 1880 1F170000 		.4byte	.LASF592
 8504 1884 01       		.byte	0x1
 8505 1885 9F01     		.2byte	0x19f
 8506 1887 26040000 		.4byte	0x426
 8507 188b 7C020000 		.4byte	.LLST5
 8508 188f 1E       		.uleb128 0x1e
 8509 1890 08000000 		.4byte	.LVL72
 8510 1894 7C360000 		.4byte	0x367c
 8511 1898 A2180000 		.4byte	0x18a2
 8512 189c 1F       		.uleb128 0x1f
 8513 189d 01       		.uleb128 0x1
 8514 189e 50       		.byte	0x50
 8515 189f 01       		.uleb128 0x1
 8516 18a0 33       		.byte	0x33
 8517 18a1 00       		.byte	0
 8518 18a2 20       		.uleb128 0x20
 8519 18a3 10000000 		.4byte	.LVL74
 8520 18a7 92360000 		.4byte	0x3692
 8521 18ab 1E       		.uleb128 0x1e
 8522 18ac 22000000 		.4byte	.LVL76
 8523 18b0 9E360000 		.4byte	0x369e
 8524 18b4 BE180000 		.4byte	0x18be
 8525 18b8 1F       		.uleb128 0x1f
 8526 18b9 01       		.uleb128 0x1
 8527 18ba 50       		.byte	0x50
 8528 18bb 01       		.uleb128 0x1
 8529 18bc 30       		.byte	0x30
 8530 18bd 00       		.byte	0
 8531 18be 20       		.uleb128 0x20
 8532 18bf 26000000 		.4byte	.LVL77
 8533 18c3 3B350000 		.4byte	0x353b
 8534 18c7 20       		.uleb128 0x20
 8535 18c8 3E000000 		.4byte	.LVL78
 8536 18cc AF360000 		.4byte	0x36af
 8537 18d0 1E       		.uleb128 0x1e
 8538 18d1 4A000000 		.4byte	.LVL79
 8539 18d5 9E360000 		.4byte	0x369e
 8540 18d9 E3180000 		.4byte	0x18e3
 8541 18dd 1F       		.uleb128 0x1f
 8542 18de 01       		.uleb128 0x1
 8543 18df 50       		.byte	0x50
 8544 18e0 01       		.uleb128 0x1
 8545 18e1 31       		.byte	0x31
 8546 18e2 00       		.byte	0
 8547 18e3 20       		.uleb128 0x20
 8548 18e4 58000000 		.4byte	.LVL81
ARM GAS  C:\Users\Helon\AppData\Local\Temp\cckZyeCc.s 			page 203


 8549 18e8 B6360000 		.4byte	0x36b6
 8550 18ec 00       		.byte	0
 8551 18ed 25       		.uleb128 0x25
 8552 18ee 133A0000 		.4byte	.LASF593
 8553 18f2 01       		.byte	0x1
 8554 18f3 EC01     		.2byte	0x1ec
 8555 18f5 00000000 		.4byte	.LFB38
 8556 18f9 24000000 		.4byte	.LFE38-.LFB38
 8557 18fd 01       		.uleb128 0x1
 8558 18fe 9C       		.byte	0x9c
 8559 18ff 25       		.uleb128 0x25
 8560 1900 AC410000 		.4byte	.LASF594
 8561 1904 01       		.byte	0x1
 8562 1905 3902     		.2byte	0x239
 8563 1907 00000000 		.4byte	.LFB40
 8564 190b 02000000 		.4byte	.LFE40-.LFB40
 8565 190f 01       		.uleb128 0x1
 8566 1910 9C       		.byte	0x9c
 8567 1911 21       		.uleb128 0x21
 8568 1912 FA380000 		.4byte	.LASF595
 8569 1916 01       		.byte	0x1
 8570 1917 6002     		.2byte	0x260
 8571 1919 00000000 		.4byte	.LFB41
 8572 191d 02000000 		.4byte	.LFE41-.LFB41
 8573 1921 01       		.uleb128 0x1
 8574 1922 9C       		.byte	0x9c
 8575 1923 36190000 		.4byte	0x1936
 8576 1927 26       		.uleb128 0x26
 8577 1928 27320000 		.4byte	.LASF596
 8578 192c 01       		.byte	0x1
 8579 192d 6002     		.2byte	0x260
 8580 192f CE000000 		.4byte	0xce
 8581 1933 01       		.uleb128 0x1
 8582 1934 50       		.byte	0x50
 8583 1935 00       		.byte	0
 8584 1936 21       		.uleb128 0x21
 8585 1937 8A1F0000 		.4byte	.LASF597
 8586 193b 01       		.byte	0x1
 8587 193c 7702     		.2byte	0x277
 8588 193e 00000000 		.4byte	.LFB42
 8589 1942 1C000000 		.4byte	.LFE42-.LFB42
 8590 1946 01       		.uleb128 0x1
 8591 1947 9C       		.byte	0x9c
 8592 1948 95190000 		.4byte	0x1995
 8593 194c 1E       		.uleb128 0x1e
 8594 194d 08000000 		.4byte	.LVL84
 8595 1951 BD360000 		.4byte	0x36bd
 8596 1955 5F190000 		.4byte	0x195f
 8597 1959 1F       		.uleb128 0x1f
 8598 195a 01       		.uleb128 0x1
 8599 195b 50       		.byte	0x50
 8600 195c 01       		.uleb128 0x1
 8601 195d 36       		.byte	0x36
 8602 195e 00       		.byte	0
 8603 195f 1E       		.uleb128 0x1e
 8604 1960 0E000000 		.4byte	.LVL85
 8605 1964 CE360000 		.4byte	0x36ce
ARM GAS  C:\Users\Helon\AppData\Local\Temp\cckZyeCc.s 			page 204


 8606 1968 72190000 		.4byte	0x1972
 8607 196c 1F       		.uleb128 0x1f
 8608 196d 01       		.uleb128 0x1
 8609 196e 50       		.byte	0x50
 8610 196f 01       		.uleb128 0x1
 8611 1970 36       		.byte	0x36
 8612 1971 00       		.byte	0
 8613 1972 1E       		.uleb128 0x1e
 8614 1973 14000000 		.4byte	.LVL86
 8615 1977 9E360000 		.4byte	0x369e
 8616 197b 85190000 		.4byte	0x1985
 8617 197f 1F       		.uleb128 0x1f
 8618 1980 01       		.uleb128 0x1
 8619 1981 50       		.byte	0x50
 8620 1982 01       		.uleb128 0x1
 8621 1983 31       		.byte	0x31
 8622 1984 00       		.byte	0
 8623 1985 22       		.uleb128 0x22
 8624 1986 1A000000 		.4byte	.LVL87
 8625 198a DF360000 		.4byte	0x36df
 8626 198e 1F       		.uleb128 0x1f
 8627 198f 01       		.uleb128 0x1
 8628 1990 50       		.byte	0x50
 8629 1991 01       		.uleb128 0x1
 8630 1992 31       		.byte	0x31
 8631 1993 00       		.byte	0
 8632 1994 00       		.byte	0
 8633 1995 21       		.uleb128 0x21
 8634 1996 12270000 		.4byte	.LASF598
 8635 199a 01       		.byte	0x1
 8636 199b 1102     		.2byte	0x211
 8637 199d 00000000 		.4byte	.LFB39
 8638 19a1 50000000 		.4byte	.LFE39-.LFB39
 8639 19a5 01       		.uleb128 0x1
 8640 19a6 9C       		.byte	0x9c
 8641 19a7 2E1A0000 		.4byte	0x1a2e
 8642 19ab 1E       		.uleb128 0x1e
 8643 19ac 08000000 		.4byte	.LVL88
 8644 19b0 F0360000 		.4byte	0x36f0
 8645 19b4 BE190000 		.4byte	0x19be
 8646 19b8 1F       		.uleb128 0x1f
 8647 19b9 01       		.uleb128 0x1
 8648 19ba 50       		.byte	0x50
 8649 19bb 01       		.uleb128 0x1
 8650 19bc 36       		.byte	0x36
 8651 19bd 00       		.byte	0
 8652 19be 1E       		.uleb128 0x1e
 8653 19bf 0E000000 		.4byte	.LVL89
 8654 19c3 01370000 		.4byte	0x3701
 8655 19c7 D1190000 		.4byte	0x19d1
 8656 19cb 1F       		.uleb128 0x1f
 8657 19cc 01       		.uleb128 0x1
 8658 19cd 50       		.byte	0x50
 8659 19ce 01       		.uleb128 0x1
 8660 19cf 31       		.byte	0x31
 8661 19d0 00       		.byte	0
 8662 19d1 20       		.uleb128 0x20
ARM GAS  C:\Users\Helon\AppData\Local\Temp\cckZyeCc.s 			page 205


 8663 19d2 20000000 		.4byte	.LVL90
 8664 19d6 12370000 		.4byte	0x3712
 8665 19da 1E       		.uleb128 0x1e
 8666 19db 26000000 		.4byte	.LVL91
 8667 19df 1A370000 		.4byte	0x371a
 8668 19e3 F1190000 		.4byte	0x19f1
 8669 19e7 1F       		.uleb128 0x1f
 8670 19e8 01       		.uleb128 0x1
 8671 19e9 50       		.byte	0x50
 8672 19ea 05       		.uleb128 0x5
 8673 19eb 03       		.byte	0x3
 8674 19ec 00000000 		.4byte	MyTimerIsr
 8675 19f0 00       		.byte	0
 8676 19f1 20       		.uleb128 0x20
 8677 19f2 2A000000 		.4byte	.LVL92
 8678 19f6 2B370000 		.4byte	0x372b
 8679 19fa 1E       		.uleb128 0x1e
 8680 19fb 30000000 		.4byte	.LVL93
 8681 19ff 32370000 		.4byte	0x3732
 8682 1a03 111A0000 		.4byte	0x1a11
 8683 1a07 1F       		.uleb128 0x1f
 8684 1a08 01       		.uleb128 0x1
 8685 1a09 50       		.byte	0x50
 8686 1a0a 05       		.uleb128 0x5
 8687 1a0b 03       		.byte	0x3
 8688 1a0c 00000000 		.4byte	MY_ISR_USERBUTTON
 8689 1a10 00       		.byte	0
 8690 1a11 20       		.uleb128 0x20
 8691 1a12 34000000 		.4byte	.LVL94
 8692 1a16 36190000 		.4byte	0x1936
 8693 1a1a 22       		.uleb128 0x22
 8694 1a1b 3A000000 		.4byte	.LVL95
 8695 1a1f 43370000 		.4byte	0x3743
 8696 1a23 1F       		.uleb128 0x1f
 8697 1a24 01       		.uleb128 0x1
 8698 1a25 50       		.byte	0x50
 8699 1a26 05       		.uleb128 0x5
 8700 1a27 03       		.byte	0x3
 8701 1a28 00000000 		.4byte	StackEventHandler
 8702 1a2c 00       		.byte	0
 8703 1a2d 00       		.byte	0
 8704 1a2e 27       		.uleb128 0x27
 8705 1a2f 1F0F0000 		.4byte	.LASF639
 8706 1a33 01       		.byte	0x1
 8707 1a34 2F05     		.2byte	0x52f
 8708 1a36 AD000000 		.4byte	0xad
 8709 1a3a 00000000 		.4byte	.LFB44
 8710 1a3e 6C000000 		.4byte	.LFE44-.LFB44
 8711 1a42 01       		.uleb128 0x1
 8712 1a43 9C       		.byte	0x9c
 8713 1a44 2C1B0000 		.4byte	0x1b2c
 8714 1a48 28       		.uleb128 0x28
 8715 1a49 00060000 		.4byte	.LASF599
 8716 1a4d 01       		.byte	0x1
 8717 1a4e 2F05     		.2byte	0x52f
 8718 1a50 63010000 		.4byte	0x163
 8719 1a54 9A020000 		.4byte	.LLST6
ARM GAS  C:\Users\Helon\AppData\Local\Temp\cckZyeCc.s 			page 206


 8720 1a58 24       		.uleb128 0x24
 8721 1a59 26420000 		.4byte	.LASF600
 8722 1a5d 01       		.byte	0x1
 8723 1a5e 3305     		.2byte	0x533
 8724 1a60 AD000000 		.4byte	0xad
 8725 1a64 F8020000 		.4byte	.LLST7
 8726 1a68 29       		.uleb128 0x29
 8727 1a69 6900     		.ascii	"i\000"
 8728 1a6b 01       		.byte	0x1
 8729 1a6c 3305     		.2byte	0x533
 8730 1a6e AD000000 		.4byte	0xad
 8731 1a72 24030000 		.4byte	.LLST8
 8732 1a76 24       		.uleb128 0x24
 8733 1a77 64210000 		.4byte	.LASF601
 8734 1a7b 01       		.byte	0x1
 8735 1a7c 3305     		.2byte	0x533
 8736 1a7e AD000000 		.4byte	0xad
 8737 1a82 5A030000 		.4byte	.LLST9
 8738 1a86 24       		.uleb128 0x24
 8739 1a87 452A0000 		.4byte	.LASF602
 8740 1a8b 01       		.byte	0x1
 8741 1a8c 3D05     		.2byte	0x53d
 8742 1a8e 5D010000 		.4byte	0x15d
 8743 1a92 6D030000 		.4byte	.LLST10
 8744 1a96 1E       		.uleb128 0x1e
 8745 1a97 0E000000 		.4byte	.LVL98
 8746 1a9b 59370000 		.4byte	0x3759
 8747 1a9f B31A0000 		.4byte	0x1ab3
 8748 1aa3 1F       		.uleb128 0x1f
 8749 1aa4 01       		.uleb128 0x1
 8750 1aa5 51       		.byte	0x51
 8751 1aa6 05       		.uleb128 0x5
 8752 1aa7 03       		.byte	0x3
 8753 1aa8 44010000 		.4byte	.LC54
 8754 1aac 1F       		.uleb128 0x1f
 8755 1aad 01       		.uleb128 0x1
 8756 1aae 50       		.byte	0x50
 8757 1aaf 02       		.uleb128 0x2
 8758 1ab0 74       		.byte	0x74
 8759 1ab1 00       		.sleb128 0
 8760 1ab2 00       		.byte	0
 8761 1ab3 1E       		.uleb128 0x1e
 8762 1ab4 1A000000 		.4byte	.LVL99
 8763 1ab8 73370000 		.4byte	0x3773
 8764 1abc CD1A0000 		.4byte	0x1acd
 8765 1ac0 1F       		.uleb128 0x1f
 8766 1ac1 01       		.uleb128 0x1
 8767 1ac2 51       		.byte	0x51
 8768 1ac3 02       		.uleb128 0x2
 8769 1ac4 08       		.byte	0x8
 8770 1ac5 3D       		.byte	0x3d
 8771 1ac6 1F       		.uleb128 0x1f
 8772 1ac7 01       		.uleb128 0x1
 8773 1ac8 50       		.byte	0x50
 8774 1ac9 02       		.uleb128 0x2
 8775 1aca 74       		.byte	0x74
 8776 1acb 00       		.sleb128 0
ARM GAS  C:\Users\Helon\AppData\Local\Temp\cckZyeCc.s 			page 207


 8777 1acc 00       		.byte	0
 8778 1acd 1E       		.uleb128 0x1e
 8779 1ace 26000000 		.4byte	.LVL102
 8780 1ad2 8D370000 		.4byte	0x378d
 8781 1ad6 E11A0000 		.4byte	0x1ae1
 8782 1ada 1F       		.uleb128 0x1f
 8783 1adb 01       		.uleb128 0x1
 8784 1adc 50       		.byte	0x50
 8785 1add 02       		.uleb128 0x2
 8786 1ade 75       		.byte	0x75
 8787 1adf 00       		.sleb128 0
 8788 1ae0 00       		.byte	0
 8789 1ae1 1E       		.uleb128 0x1e
 8790 1ae2 30000000 		.4byte	.LVL104
 8791 1ae6 A2370000 		.4byte	0x37a2
 8792 1aea 011B0000 		.4byte	0x1b01
 8793 1aee 1F       		.uleb128 0x1f
 8794 1aef 01       		.uleb128 0x1
 8795 1af0 52       		.byte	0x52
 8796 1af1 02       		.uleb128 0x2
 8797 1af2 75       		.byte	0x75
 8798 1af3 00       		.sleb128 0
 8799 1af4 1F       		.uleb128 0x1f
 8800 1af5 01       		.uleb128 0x1
 8801 1af6 51       		.byte	0x51
 8802 1af7 02       		.uleb128 0x2
 8803 1af8 74       		.byte	0x74
 8804 1af9 00       		.sleb128 0
 8805 1afa 1F       		.uleb128 0x1f
 8806 1afb 01       		.uleb128 0x1
 8807 1afc 50       		.byte	0x50
 8808 1afd 02       		.uleb128 0x2
 8809 1afe 76       		.byte	0x76
 8810 1aff 00       		.sleb128 0
 8811 1b00 00       		.byte	0
 8812 1b01 1E       		.uleb128 0x1e
 8813 1b02 44000000 		.4byte	.LVL107
 8814 1b06 C1370000 		.4byte	0x37c1
 8815 1b0a 1B1B0000 		.4byte	0x1b1b
 8816 1b0e 1F       		.uleb128 0x1f
 8817 1b0f 01       		.uleb128 0x1
 8818 1b10 52       		.byte	0x52
 8819 1b11 02       		.uleb128 0x2
 8820 1b12 75       		.byte	0x75
 8821 1b13 00       		.sleb128 0
 8822 1b14 1F       		.uleb128 0x1f
 8823 1b15 01       		.uleb128 0x1
 8824 1b16 50       		.byte	0x50
 8825 1b17 02       		.uleb128 0x2
 8826 1b18 76       		.byte	0x76
 8827 1b19 00       		.sleb128 0
 8828 1b1a 00       		.byte	0
 8829 1b1b 22       		.uleb128 0x22
 8830 1b1c 56000000 		.4byte	.LVL110
 8831 1b20 E0370000 		.4byte	0x37e0
 8832 1b24 1F       		.uleb128 0x1f
 8833 1b25 01       		.uleb128 0x1
ARM GAS  C:\Users\Helon\AppData\Local\Temp\cckZyeCc.s 			page 208


 8834 1b26 50       		.byte	0x50
 8835 1b27 02       		.uleb128 0x2
 8836 1b28 76       		.byte	0x76
 8837 1b29 00       		.sleb128 0
 8838 1b2a 00       		.byte	0
 8839 1b2b 00       		.byte	0
 8840 1b2c 21       		.uleb128 0x21
 8841 1b2d A0370000 		.4byte	.LASF603
 8842 1b31 01       		.byte	0x1
 8843 1b32 9805     		.2byte	0x598
 8844 1b34 00000000 		.4byte	.LFB46
 8845 1b38 34000000 		.4byte	.LFE46-.LFB46
 8846 1b3c 01       		.uleb128 0x1
 8847 1b3d 9C       		.byte	0x9c
 8848 1b3e AB1B0000 		.4byte	0x1bab
 8849 1b42 2A       		.uleb128 0x2a
 8850 1b43 76616C00 		.ascii	"val\000"
 8851 1b47 01       		.byte	0x1
 8852 1b48 9805     		.2byte	0x598
 8853 1b4a AB1B0000 		.4byte	0x1bab
 8854 1b4e 8B030000 		.4byte	.LLST11
 8855 1b52 2A       		.uleb128 0x2a
 8856 1b53 6C656E00 		.ascii	"len\000"
 8857 1b57 01       		.byte	0x1
 8858 1b58 9805     		.2byte	0x598
 8859 1b5a C3000000 		.4byte	0xc3
 8860 1b5e B8030000 		.4byte	.LLST12
 8861 1b62 2B       		.uleb128 0x2b
 8862 1b63 DD390000 		.4byte	.LASF604
 8863 1b67 01       		.byte	0x1
 8864 1b68 9C05     		.2byte	0x59c
 8865 1b6a AA030000 		.4byte	0x3aa
 8866 1b6e 00       		.byte	0
 8867 1b6f 23       		.uleb128 0x23
 8868 1b70 E0210000 		.4byte	.LASF605
 8869 1b74 01       		.byte	0x1
 8870 1b75 A305     		.2byte	0x5a3
 8871 1b77 E8090000 		.4byte	0x9e8
 8872 1b7b 02       		.uleb128 0x2
 8873 1b7c 91       		.byte	0x91
 8874 1b7d 6C       		.sleb128 -20
 8875 1b7e 1E       		.uleb128 0x1e
 8876 1b7f 20000000 		.4byte	.LVL119
 8877 1b83 F1370000 		.4byte	0x37f1
 8878 1b87 921B0000 		.4byte	0x1b92
 8879 1b8b 1F       		.uleb128 0x1f
 8880 1b8c 01       		.uleb128 0x1
 8881 1b8d 51       		.byte	0x51
 8882 1b8e 02       		.uleb128 0x2
 8883 1b8f 91       		.byte	0x91
 8884 1b90 6C       		.sleb128 -20
 8885 1b91 00       		.byte	0
 8886 1b92 22       		.uleb128 0x22
 8887 1b93 28000000 		.4byte	.LVL120
 8888 1b97 8A350000 		.4byte	0x358a
 8889 1b9b 1F       		.uleb128 0x1f
 8890 1b9c 01       		.uleb128 0x1
ARM GAS  C:\Users\Helon\AppData\Local\Temp\cckZyeCc.s 			page 209


 8891 1b9d 51       		.byte	0x51
 8892 1b9e 01       		.uleb128 0x1
 8893 1b9f 30       		.byte	0x30
 8894 1ba0 1F       		.uleb128 0x1f
 8895 1ba1 01       		.uleb128 0x1
 8896 1ba2 50       		.byte	0x50
 8897 1ba3 05       		.uleb128 0x5
 8898 1ba4 03       		.byte	0x3
 8899 1ba5 4C010000 		.4byte	.LC58
 8900 1ba9 00       		.byte	0
 8901 1baa 00       		.byte	0
 8902 1bab 07       		.uleb128 0x7
 8903 1bac 04       		.byte	0x4
 8904 1bad AD000000 		.4byte	0xad
 8905 1bb1 21       		.uleb128 0x21
 8906 1bb2 89250000 		.4byte	.LASF606
 8907 1bb6 01       		.byte	0x1
 8908 1bb7 BB05     		.2byte	0x5bb
 8909 1bb9 00000000 		.4byte	.LFB47
 8910 1bbd 40000000 		.4byte	.LFE47-.LFB47
 8911 1bc1 01       		.uleb128 0x1
 8912 1bc2 9C       		.byte	0x9c
 8913 1bc3 261C0000 		.4byte	0x1c26
 8914 1bc7 2A       		.uleb128 0x2a
 8915 1bc8 76616C00 		.ascii	"val\000"
 8916 1bcc 01       		.byte	0x1
 8917 1bcd BB05     		.2byte	0x5bb
 8918 1bcf AB1B0000 		.4byte	0x1bab
 8919 1bd3 D9030000 		.4byte	.LLST13
 8920 1bd7 2A       		.uleb128 0x2a
 8921 1bd8 6C656E00 		.ascii	"len\000"
 8922 1bdc 01       		.byte	0x1
 8923 1bdd BB05     		.2byte	0x5bb
 8924 1bdf C3000000 		.4byte	0xc3
 8925 1be3 F8030000 		.4byte	.LLST14
 8926 1be7 24       		.uleb128 0x24
 8927 1be8 DD390000 		.4byte	.LASF604
 8928 1bec 01       		.byte	0x1
 8929 1bed BE05     		.2byte	0x5be
 8930 1bef AA030000 		.4byte	0x3aa
 8931 1bf3 23040000 		.4byte	.LLST15
 8932 1bf7 23       		.uleb128 0x23
 8933 1bf8 DE380000 		.4byte	.LASF607
 8934 1bfc 01       		.byte	0x1
 8935 1bfd BF05     		.2byte	0x5bf
 8936 1bff 4C090000 		.4byte	0x94c
 8937 1c03 02       		.uleb128 0x2
 8938 1c04 91       		.byte	0x91
 8939 1c05 70       		.sleb128 -16
 8940 1c06 23       		.uleb128 0x23
 8941 1c07 28120000 		.4byte	.LASF608
 8942 1c0b 01       		.byte	0x1
 8943 1c0c C505     		.2byte	0x5c5
 8944 1c0e 350A0000 		.4byte	0xa35
 8945 1c12 02       		.uleb128 0x2
 8946 1c13 91       		.byte	0x91
 8947 1c14 64       		.sleb128 -28
ARM GAS  C:\Users\Helon\AppData\Local\Temp\cckZyeCc.s 			page 210


 8948 1c15 22       		.uleb128 0x22
 8949 1c16 28000000 		.4byte	.LVL125
 8950 1c1a C1350000 		.4byte	0x35c1
 8951 1c1e 1F       		.uleb128 0x1f
 8952 1c1f 01       		.uleb128 0x1
 8953 1c20 51       		.byte	0x51
 8954 1c21 02       		.uleb128 0x2
 8955 1c22 91       		.byte	0x91
 8956 1c23 64       		.sleb128 -28
 8957 1c24 00       		.byte	0
 8958 1c25 00       		.byte	0
 8959 1c26 21       		.uleb128 0x21
 8960 1c27 3D2B0000 		.4byte	.LASF609
 8961 1c2b 01       		.byte	0x1
 8962 1c2c 7706     		.2byte	0x677
 8963 1c2e 00000000 		.4byte	.LFB49
 8964 1c32 D0010000 		.4byte	.LFE49-.LFB49
 8965 1c36 01       		.uleb128 0x1
 8966 1c37 9C       		.byte	0x9c
 8967 1c38 771D0000 		.4byte	0x1d77
 8968 1c3c 2A       		.uleb128 0x2a
 8969 1c3d 69647800 		.ascii	"idx\000"
 8970 1c41 01       		.byte	0x1
 8971 1c42 7706     		.2byte	0x677
 8972 1c44 AD000000 		.4byte	0xad
 8973 1c48 42040000 		.4byte	.LLST16
 8974 1c4c 24       		.uleb128 0x24
 8975 1c4d DD390000 		.4byte	.LASF604
 8976 1c51 01       		.byte	0x1
 8977 1c52 7906     		.2byte	0x679
 8978 1c54 AA030000 		.4byte	0x3aa
 8979 1c58 E0040000 		.4byte	.LLST17
 8980 1c5c 29       		.uleb128 0x29
 8981 1c5d 6900     		.ascii	"i\000"
 8982 1c5f 01       		.byte	0x1
 8983 1c60 7A06     		.2byte	0x67a
 8984 1c62 AD000000 		.4byte	0xad
 8985 1c66 7C050000 		.4byte	.LLST18
 8986 1c6a 20       		.uleb128 0x20
 8987 1c6b 36000000 		.4byte	.LVL129
 8988 1c6f 11380000 		.4byte	0x3811
 8989 1c73 1E       		.uleb128 0x1e
 8990 1c74 44000000 		.4byte	.LVL132
 8991 1c78 8A350000 		.4byte	0x358a
 8992 1c7c 901C0000 		.4byte	0x1c90
 8993 1c80 1F       		.uleb128 0x1f
 8994 1c81 01       		.uleb128 0x1
 8995 1c82 51       		.byte	0x51
 8996 1c83 02       		.uleb128 0x2
 8997 1c84 74       		.byte	0x74
 8998 1c85 50       		.sleb128 -48
 8999 1c86 1F       		.uleb128 0x1f
 9000 1c87 01       		.uleb128 0x1
 9001 1c88 50       		.byte	0x50
 9002 1c89 05       		.uleb128 0x5
 9003 1c8a 03       		.byte	0x3
 9004 1c8b 68010000 		.4byte	.LC65
ARM GAS  C:\Users\Helon\AppData\Local\Temp\cckZyeCc.s 			page 211


 9005 1c8f 00       		.byte	0
 9006 1c90 1E       		.uleb128 0x1e
 9007 1c91 74000000 		.4byte	.LVL135
 9008 1c95 66350000 		.4byte	0x3566
 9009 1c99 A31C0000 		.4byte	0x1ca3
 9010 1c9d 1F       		.uleb128 0x1f
 9011 1c9e 01       		.uleb128 0x1
 9012 1c9f 52       		.byte	0x52
 9013 1ca0 01       		.uleb128 0x1
 9014 1ca1 36       		.byte	0x36
 9015 1ca2 00       		.byte	0
 9016 1ca3 20       		.uleb128 0x20
 9017 1ca4 88000000 		.4byte	.LVL138
 9018 1ca8 11380000 		.4byte	0x3811
 9019 1cac 1E       		.uleb128 0x1e
 9020 1cad 96000000 		.4byte	.LVL141
 9021 1cb1 8A350000 		.4byte	0x358a
 9022 1cb5 C91C0000 		.4byte	0x1cc9
 9023 1cb9 1F       		.uleb128 0x1f
 9024 1cba 01       		.uleb128 0x1
 9025 1cbb 51       		.byte	0x51
 9026 1cbc 02       		.uleb128 0x2
 9027 1cbd 74       		.byte	0x74
 9028 1cbe 50       		.sleb128 -48
 9029 1cbf 1F       		.uleb128 0x1f
 9030 1cc0 01       		.uleb128 0x1
 9031 1cc1 50       		.byte	0x50
 9032 1cc2 05       		.uleb128 0x5
 9033 1cc3 03       		.byte	0x3
 9034 1cc4 68010000 		.4byte	.LC65
 9035 1cc8 00       		.byte	0
 9036 1cc9 1E       		.uleb128 0x1e
 9037 1cca C6000000 		.4byte	.LVL144
 9038 1cce 66350000 		.4byte	0x3566
 9039 1cd2 DC1C0000 		.4byte	0x1cdc
 9040 1cd6 1F       		.uleb128 0x1f
 9041 1cd7 01       		.uleb128 0x1
 9042 1cd8 52       		.byte	0x52
 9043 1cd9 01       		.uleb128 0x1
 9044 1cda 36       		.byte	0x36
 9045 1cdb 00       		.byte	0
 9046 1cdc 20       		.uleb128 0x20
 9047 1cdd DA000000 		.4byte	.LVL147
 9048 1ce1 11380000 		.4byte	0x3811
 9049 1ce5 1E       		.uleb128 0x1e
 9050 1ce6 E8000000 		.4byte	.LVL150
 9051 1cea 8A350000 		.4byte	0x358a
 9052 1cee 021D0000 		.4byte	0x1d02
 9053 1cf2 1F       		.uleb128 0x1f
 9054 1cf3 01       		.uleb128 0x1
 9055 1cf4 51       		.byte	0x51
 9056 1cf5 02       		.uleb128 0x2
 9057 1cf6 74       		.byte	0x74
 9058 1cf7 50       		.sleb128 -48
 9059 1cf8 1F       		.uleb128 0x1f
 9060 1cf9 01       		.uleb128 0x1
 9061 1cfa 50       		.byte	0x50
ARM GAS  C:\Users\Helon\AppData\Local\Temp\cckZyeCc.s 			page 212


 9062 1cfb 05       		.uleb128 0x5
 9063 1cfc 03       		.byte	0x3
 9064 1cfd 68010000 		.4byte	.LC65
 9065 1d01 00       		.byte	0
 9066 1d02 1E       		.uleb128 0x1e
 9067 1d03 18010000 		.4byte	.LVL153
 9068 1d07 66350000 		.4byte	0x3566
 9069 1d0b 151D0000 		.4byte	0x1d15
 9070 1d0f 1F       		.uleb128 0x1f
 9071 1d10 01       		.uleb128 0x1
 9072 1d11 52       		.byte	0x52
 9073 1d12 01       		.uleb128 0x1
 9074 1d13 36       		.byte	0x36
 9075 1d14 00       		.byte	0
 9076 1d15 20       		.uleb128 0x20
 9077 1d16 2C010000 		.4byte	.LVL156
 9078 1d1a 11380000 		.4byte	0x3811
 9079 1d1e 1E       		.uleb128 0x1e
 9080 1d1f 3A010000 		.4byte	.LVL159
 9081 1d23 8A350000 		.4byte	0x358a
 9082 1d27 3B1D0000 		.4byte	0x1d3b
 9083 1d2b 1F       		.uleb128 0x1f
 9084 1d2c 01       		.uleb128 0x1
 9085 1d2d 51       		.byte	0x51
 9086 1d2e 02       		.uleb128 0x2
 9087 1d2f 74       		.byte	0x74
 9088 1d30 50       		.sleb128 -48
 9089 1d31 1F       		.uleb128 0x1f
 9090 1d32 01       		.uleb128 0x1
 9091 1d33 50       		.byte	0x50
 9092 1d34 05       		.uleb128 0x5
 9093 1d35 03       		.byte	0x3
 9094 1d36 68010000 		.4byte	.LC65
 9095 1d3a 00       		.byte	0
 9096 1d3b 1E       		.uleb128 0x1e
 9097 1d3c 6A010000 		.4byte	.LVL162
 9098 1d40 66350000 		.4byte	0x3566
 9099 1d44 4E1D0000 		.4byte	0x1d4e
 9100 1d48 1F       		.uleb128 0x1f
 9101 1d49 01       		.uleb128 0x1
 9102 1d4a 52       		.byte	0x52
 9103 1d4b 01       		.uleb128 0x1
 9104 1d4c 36       		.byte	0x36
 9105 1d4d 00       		.byte	0
 9106 1d4e 22       		.uleb128 0x22
 9107 1d4f 9A010000 		.4byte	.LVL165
 9108 1d53 8A350000 		.4byte	0x358a
 9109 1d57 1F       		.uleb128 0x1f
 9110 1d58 01       		.uleb128 0x1
 9111 1d59 50       		.byte	0x50
 9112 1d5a 05       		.uleb128 0x5
 9113 1d5b 03       		.byte	0x3
 9114 1d5c 80010000 		.4byte	.LC70
 9115 1d60 1F       		.uleb128 0x1f
 9116 1d61 02       		.uleb128 0x2
 9117 1d62 7D       		.byte	0x7d
 9118 1d63 08       		.sleb128 8
ARM GAS  C:\Users\Helon\AppData\Local\Temp\cckZyeCc.s 			page 213


 9119 1d64 02       		.uleb128 0x2
 9120 1d65 75       		.byte	0x75
 9121 1d66 00       		.sleb128 0
 9122 1d67 1F       		.uleb128 0x1f
 9123 1d68 02       		.uleb128 0x2
 9124 1d69 7D       		.byte	0x7d
 9125 1d6a 04       		.sleb128 4
 9126 1d6b 02       		.uleb128 0x2
 9127 1d6c 76       		.byte	0x76
 9128 1d6d 00       		.sleb128 0
 9129 1d6e 1F       		.uleb128 0x1f
 9130 1d6f 02       		.uleb128 0x2
 9131 1d70 7D       		.byte	0x7d
 9132 1d71 00       		.sleb128 0
 9133 1d72 02       		.uleb128 0x2
 9134 1d73 77       		.byte	0x77
 9135 1d74 00       		.sleb128 0
 9136 1d75 00       		.byte	0
 9137 1d76 00       		.byte	0
 9138 1d77 21       		.uleb128 0x21
 9139 1d78 A4120000 		.4byte	.LASF610
 9140 1d7c 01       		.byte	0x1
 9141 1d7d DC06     		.2byte	0x6dc
 9142 1d7f 00000000 		.4byte	.LFB50
 9143 1d83 CC030000 		.4byte	.LFE50-.LFB50
 9144 1d87 01       		.uleb128 0x1
 9145 1d88 9C       		.byte	0x9c
 9146 1d89 5B210000 		.4byte	0x215b
 9147 1d8d 2A       		.uleb128 0x2a
 9148 1d8e 69647800 		.ascii	"idx\000"
 9149 1d92 01       		.byte	0x1
 9150 1d93 DC06     		.2byte	0x6dc
 9151 1d95 AD000000 		.4byte	0xad
 9152 1d99 BD050000 		.4byte	.LLST19
 9153 1d9d 1E       		.uleb128 0x1e
 9154 1d9e 1E000000 		.4byte	.LVL173
 9155 1da2 22350000 		.4byte	0x3522
 9156 1da6 B41D0000 		.4byte	0x1db4
 9157 1daa 1F       		.uleb128 0x1f
 9158 1dab 01       		.uleb128 0x1
 9159 1dac 50       		.byte	0x50
 9160 1dad 05       		.uleb128 0x5
 9161 1dae 03       		.byte	0x3
 9162 1daf AC010000 		.4byte	.LC73
 9163 1db3 00       		.byte	0
 9164 1db4 1E       		.uleb128 0x1e
 9165 1db5 24000000 		.4byte	.LVL174
 9166 1db9 22350000 		.4byte	0x3522
 9167 1dbd CB1D0000 		.4byte	0x1dcb
 9168 1dc1 1F       		.uleb128 0x1f
 9169 1dc2 01       		.uleb128 0x1
 9170 1dc3 50       		.byte	0x50
 9171 1dc4 05       		.uleb128 0x5
 9172 1dc5 03       		.byte	0x3
 9173 1dc6 BC010000 		.4byte	.LC75
 9174 1dca 00       		.byte	0
 9175 1dcb 20       		.uleb128 0x20
ARM GAS  C:\Users\Helon\AppData\Local\Temp\cckZyeCc.s 			page 214


 9176 1dcc 28000000 		.4byte	.LVL175
 9177 1dd0 3B350000 		.4byte	0x353b
 9178 1dd4 1E       		.uleb128 0x1e
 9179 1dd5 48000000 		.4byte	.LVL178
 9180 1dd9 22350000 		.4byte	0x3522
 9181 1ddd EB1D0000 		.4byte	0x1deb
 9182 1de1 1F       		.uleb128 0x1f
 9183 1de2 01       		.uleb128 0x1
 9184 1de3 50       		.byte	0x50
 9185 1de4 05       		.uleb128 0x5
 9186 1de5 03       		.byte	0x3
 9187 1de6 C0010000 		.4byte	.LC78
 9188 1dea 00       		.byte	0
 9189 1deb 1E       		.uleb128 0x1e
 9190 1dec 4E000000 		.4byte	.LVL179
 9191 1df0 22350000 		.4byte	0x3522
 9192 1df4 021E0000 		.4byte	0x1e02
 9193 1df8 1F       		.uleb128 0x1f
 9194 1df9 01       		.uleb128 0x1
 9195 1dfa 50       		.byte	0x50
 9196 1dfb 05       		.uleb128 0x5
 9197 1dfc 03       		.byte	0x3
 9198 1dfd BC010000 		.4byte	.LC75
 9199 1e01 00       		.byte	0
 9200 1e02 20       		.uleb128 0x20
 9201 1e03 52000000 		.4byte	.LVL180
 9202 1e07 3B350000 		.4byte	0x353b
 9203 1e0b 1E       		.uleb128 0x1e
 9204 1e0c 72000000 		.4byte	.LVL183
 9205 1e10 22350000 		.4byte	0x3522
 9206 1e14 221E0000 		.4byte	0x1e22
 9207 1e18 1F       		.uleb128 0x1f
 9208 1e19 01       		.uleb128 0x1
 9209 1e1a 50       		.byte	0x50
 9210 1e1b 05       		.uleb128 0x5
 9211 1e1c 03       		.byte	0x3
 9212 1e1d D0010000 		.4byte	.LC80
 9213 1e21 00       		.byte	0
 9214 1e22 1E       		.uleb128 0x1e
 9215 1e23 78000000 		.4byte	.LVL184
 9216 1e27 22350000 		.4byte	0x3522
 9217 1e2b 391E0000 		.4byte	0x1e39
 9218 1e2f 1F       		.uleb128 0x1f
 9219 1e30 01       		.uleb128 0x1
 9220 1e31 50       		.byte	0x50
 9221 1e32 05       		.uleb128 0x5
 9222 1e33 03       		.byte	0x3
 9223 1e34 BC010000 		.4byte	.LC75
 9224 1e38 00       		.byte	0
 9225 1e39 20       		.uleb128 0x20
 9226 1e3a 7C000000 		.4byte	.LVL185
 9227 1e3e 3B350000 		.4byte	0x353b
 9228 1e42 1E       		.uleb128 0x1e
 9229 1e43 9C000000 		.4byte	.LVL188
 9230 1e47 22350000 		.4byte	0x3522
 9231 1e4b 591E0000 		.4byte	0x1e59
 9232 1e4f 1F       		.uleb128 0x1f
ARM GAS  C:\Users\Helon\AppData\Local\Temp\cckZyeCc.s 			page 215


 9233 1e50 01       		.uleb128 0x1
 9234 1e51 50       		.byte	0x50
 9235 1e52 05       		.uleb128 0x5
 9236 1e53 03       		.byte	0x3
 9237 1e54 E0010000 		.4byte	.LC82
 9238 1e58 00       		.byte	0
 9239 1e59 1E       		.uleb128 0x1e
 9240 1e5a A2000000 		.4byte	.LVL189
 9241 1e5e 22350000 		.4byte	0x3522
 9242 1e62 701E0000 		.4byte	0x1e70
 9243 1e66 1F       		.uleb128 0x1f
 9244 1e67 01       		.uleb128 0x1
 9245 1e68 50       		.byte	0x50
 9246 1e69 05       		.uleb128 0x5
 9247 1e6a 03       		.byte	0x3
 9248 1e6b BC010000 		.4byte	.LC75
 9249 1e6f 00       		.byte	0
 9250 1e70 20       		.uleb128 0x20
 9251 1e71 A6000000 		.4byte	.LVL190
 9252 1e75 3B350000 		.4byte	0x353b
 9253 1e79 1E       		.uleb128 0x1e
 9254 1e7a C6000000 		.4byte	.LVL193
 9255 1e7e 22350000 		.4byte	0x3522
 9256 1e82 901E0000 		.4byte	0x1e90
 9257 1e86 1F       		.uleb128 0x1f
 9258 1e87 01       		.uleb128 0x1
 9259 1e88 50       		.byte	0x50
 9260 1e89 05       		.uleb128 0x5
 9261 1e8a 03       		.byte	0x3
 9262 1e8b F0010000 		.4byte	.LC84
 9263 1e8f 00       		.byte	0
 9264 1e90 1E       		.uleb128 0x1e
 9265 1e91 CC000000 		.4byte	.LVL194
 9266 1e95 22350000 		.4byte	0x3522
 9267 1e99 A71E0000 		.4byte	0x1ea7
 9268 1e9d 1F       		.uleb128 0x1f
 9269 1e9e 01       		.uleb128 0x1
 9270 1e9f 50       		.byte	0x50
 9271 1ea0 05       		.uleb128 0x5
 9272 1ea1 03       		.byte	0x3
 9273 1ea2 BC010000 		.4byte	.LC75
 9274 1ea6 00       		.byte	0
 9275 1ea7 20       		.uleb128 0x20
 9276 1ea8 D0000000 		.4byte	.LVL195
 9277 1eac 3B350000 		.4byte	0x353b
 9278 1eb0 1E       		.uleb128 0x1e
 9279 1eb1 F0000000 		.4byte	.LVL198
 9280 1eb5 22350000 		.4byte	0x3522
 9281 1eb9 C71E0000 		.4byte	0x1ec7
 9282 1ebd 1F       		.uleb128 0x1f
 9283 1ebe 01       		.uleb128 0x1
 9284 1ebf 50       		.byte	0x50
 9285 1ec0 05       		.uleb128 0x5
 9286 1ec1 03       		.byte	0x3
 9287 1ec2 04020000 		.4byte	.LC86
 9288 1ec6 00       		.byte	0
 9289 1ec7 1E       		.uleb128 0x1e
ARM GAS  C:\Users\Helon\AppData\Local\Temp\cckZyeCc.s 			page 216


 9290 1ec8 F6000000 		.4byte	.LVL199
 9291 1ecc 22350000 		.4byte	0x3522
 9292 1ed0 DE1E0000 		.4byte	0x1ede
 9293 1ed4 1F       		.uleb128 0x1f
 9294 1ed5 01       		.uleb128 0x1
 9295 1ed6 50       		.byte	0x50
 9296 1ed7 05       		.uleb128 0x5
 9297 1ed8 03       		.byte	0x3
 9298 1ed9 BC010000 		.4byte	.LC75
 9299 1edd 00       		.byte	0
 9300 1ede 20       		.uleb128 0x20
 9301 1edf FA000000 		.4byte	.LVL200
 9302 1ee3 3B350000 		.4byte	0x353b
 9303 1ee7 1E       		.uleb128 0x1e
 9304 1ee8 1A010000 		.4byte	.LVL203
 9305 1eec 22350000 		.4byte	0x3522
 9306 1ef0 FE1E0000 		.4byte	0x1efe
 9307 1ef4 1F       		.uleb128 0x1f
 9308 1ef5 01       		.uleb128 0x1
 9309 1ef6 50       		.byte	0x50
 9310 1ef7 05       		.uleb128 0x5
 9311 1ef8 03       		.byte	0x3
 9312 1ef9 18020000 		.4byte	.LC88
 9313 1efd 00       		.byte	0
 9314 1efe 1E       		.uleb128 0x1e
 9315 1eff 20010000 		.4byte	.LVL204
 9316 1f03 22350000 		.4byte	0x3522
 9317 1f07 151F0000 		.4byte	0x1f15
 9318 1f0b 1F       		.uleb128 0x1f
 9319 1f0c 01       		.uleb128 0x1
 9320 1f0d 50       		.byte	0x50
 9321 1f0e 05       		.uleb128 0x5
 9322 1f0f 03       		.byte	0x3
 9323 1f10 BC010000 		.4byte	.LC75
 9324 1f14 00       		.byte	0
 9325 1f15 20       		.uleb128 0x20
 9326 1f16 24010000 		.4byte	.LVL205
 9327 1f1a 3B350000 		.4byte	0x353b
 9328 1f1e 1E       		.uleb128 0x1e
 9329 1f1f 44010000 		.4byte	.LVL208
 9330 1f23 22350000 		.4byte	0x3522
 9331 1f27 351F0000 		.4byte	0x1f35
 9332 1f2b 1F       		.uleb128 0x1f
 9333 1f2c 01       		.uleb128 0x1
 9334 1f2d 50       		.byte	0x50
 9335 1f2e 05       		.uleb128 0x5
 9336 1f2f 03       		.byte	0x3
 9337 1f30 2C020000 		.4byte	.LC90
 9338 1f34 00       		.byte	0
 9339 1f35 1E       		.uleb128 0x1e
 9340 1f36 4A010000 		.4byte	.LVL209
 9341 1f3a 22350000 		.4byte	0x3522
 9342 1f3e 4C1F0000 		.4byte	0x1f4c
 9343 1f42 1F       		.uleb128 0x1f
 9344 1f43 01       		.uleb128 0x1
 9345 1f44 50       		.byte	0x50
 9346 1f45 05       		.uleb128 0x5
ARM GAS  C:\Users\Helon\AppData\Local\Temp\cckZyeCc.s 			page 217


 9347 1f46 03       		.byte	0x3
 9348 1f47 BC010000 		.4byte	.LC75
 9349 1f4b 00       		.byte	0
 9350 1f4c 20       		.uleb128 0x20
 9351 1f4d 4E010000 		.4byte	.LVL210
 9352 1f51 3B350000 		.4byte	0x353b
 9353 1f55 1E       		.uleb128 0x1e
 9354 1f56 6E010000 		.4byte	.LVL213
 9355 1f5a 22350000 		.4byte	0x3522
 9356 1f5e 6C1F0000 		.4byte	0x1f6c
 9357 1f62 1F       		.uleb128 0x1f
 9358 1f63 01       		.uleb128 0x1
 9359 1f64 50       		.byte	0x50
 9360 1f65 05       		.uleb128 0x5
 9361 1f66 03       		.byte	0x3
 9362 1f67 40020000 		.4byte	.LC92
 9363 1f6b 00       		.byte	0
 9364 1f6c 1E       		.uleb128 0x1e
 9365 1f6d 74010000 		.4byte	.LVL214
 9366 1f71 22350000 		.4byte	0x3522
 9367 1f75 831F0000 		.4byte	0x1f83
 9368 1f79 1F       		.uleb128 0x1f
 9369 1f7a 01       		.uleb128 0x1
 9370 1f7b 50       		.byte	0x50
 9371 1f7c 05       		.uleb128 0x5
 9372 1f7d 03       		.byte	0x3
 9373 1f7e BC010000 		.4byte	.LC75
 9374 1f82 00       		.byte	0
 9375 1f83 20       		.uleb128 0x20
 9376 1f84 78010000 		.4byte	.LVL215
 9377 1f88 3B350000 		.4byte	0x353b
 9378 1f8c 1E       		.uleb128 0x1e
 9379 1f8d 98010000 		.4byte	.LVL218
 9380 1f91 22350000 		.4byte	0x3522
 9381 1f95 A31F0000 		.4byte	0x1fa3
 9382 1f99 1F       		.uleb128 0x1f
 9383 1f9a 01       		.uleb128 0x1
 9384 1f9b 50       		.byte	0x50
 9385 1f9c 05       		.uleb128 0x5
 9386 1f9d 03       		.byte	0x3
 9387 1f9e 54020000 		.4byte	.LC94
 9388 1fa2 00       		.byte	0
 9389 1fa3 1E       		.uleb128 0x1e
 9390 1fa4 9E010000 		.4byte	.LVL219
 9391 1fa8 22350000 		.4byte	0x3522
 9392 1fac BA1F0000 		.4byte	0x1fba
 9393 1fb0 1F       		.uleb128 0x1f
 9394 1fb1 01       		.uleb128 0x1
 9395 1fb2 50       		.byte	0x50
 9396 1fb3 05       		.uleb128 0x5
 9397 1fb4 03       		.byte	0x3
 9398 1fb5 BC010000 		.4byte	.LC75
 9399 1fb9 00       		.byte	0
 9400 1fba 20       		.uleb128 0x20
 9401 1fbb A2010000 		.4byte	.LVL220
 9402 1fbf 3B350000 		.4byte	0x353b
 9403 1fc3 1E       		.uleb128 0x1e
ARM GAS  C:\Users\Helon\AppData\Local\Temp\cckZyeCc.s 			page 218


 9404 1fc4 C2010000 		.4byte	.LVL223
 9405 1fc8 22350000 		.4byte	0x3522
 9406 1fcc DA1F0000 		.4byte	0x1fda
 9407 1fd0 1F       		.uleb128 0x1f
 9408 1fd1 01       		.uleb128 0x1
 9409 1fd2 50       		.byte	0x50
 9410 1fd3 05       		.uleb128 0x5
 9411 1fd4 03       		.byte	0x3
 9412 1fd5 68020000 		.4byte	.LC96
 9413 1fd9 00       		.byte	0
 9414 1fda 1E       		.uleb128 0x1e
 9415 1fdb C8010000 		.4byte	.LVL224
 9416 1fdf 22350000 		.4byte	0x3522
 9417 1fe3 F11F0000 		.4byte	0x1ff1
 9418 1fe7 1F       		.uleb128 0x1f
 9419 1fe8 01       		.uleb128 0x1
 9420 1fe9 50       		.byte	0x50
 9421 1fea 05       		.uleb128 0x5
 9422 1feb 03       		.byte	0x3
 9423 1fec BC010000 		.4byte	.LC75
 9424 1ff0 00       		.byte	0
 9425 1ff1 20       		.uleb128 0x20
 9426 1ff2 CC010000 		.4byte	.LVL225
 9427 1ff6 3B350000 		.4byte	0x353b
 9428 1ffa 1E       		.uleb128 0x1e
 9429 1ffb 02020000 		.4byte	.LVL228
 9430 1fff 22350000 		.4byte	0x3522
 9431 2003 11200000 		.4byte	0x2011
 9432 2007 1F       		.uleb128 0x1f
 9433 2008 01       		.uleb128 0x1
 9434 2009 50       		.byte	0x50
 9435 200a 05       		.uleb128 0x5
 9436 200b 03       		.byte	0x3
 9437 200c 7C020000 		.4byte	.LC99
 9438 2010 00       		.byte	0
 9439 2011 20       		.uleb128 0x20
 9440 2012 06020000 		.4byte	.LVL229
 9441 2016 3B350000 		.4byte	0x353b
 9442 201a 1E       		.uleb128 0x1e
 9443 201b 22020000 		.4byte	.LVL232
 9444 201f 22350000 		.4byte	0x3522
 9445 2023 31200000 		.4byte	0x2031
 9446 2027 1F       		.uleb128 0x1f
 9447 2028 01       		.uleb128 0x1
 9448 2029 50       		.byte	0x50
 9449 202a 05       		.uleb128 0x5
 9450 202b 03       		.byte	0x3
 9451 202c 8C020000 		.4byte	.LC101
 9452 2030 00       		.byte	0
 9453 2031 20       		.uleb128 0x20
 9454 2032 26020000 		.4byte	.LVL233
 9455 2036 3B350000 		.4byte	0x353b
 9456 203a 1E       		.uleb128 0x1e
 9457 203b 42020000 		.4byte	.LVL236
 9458 203f 22350000 		.4byte	0x3522
 9459 2043 51200000 		.4byte	0x2051
 9460 2047 1F       		.uleb128 0x1f
ARM GAS  C:\Users\Helon\AppData\Local\Temp\cckZyeCc.s 			page 219


 9461 2048 01       		.uleb128 0x1
 9462 2049 50       		.byte	0x50
 9463 204a 05       		.uleb128 0x5
 9464 204b 03       		.byte	0x3
 9465 204c 9C020000 		.4byte	.LC103
 9466 2050 00       		.byte	0
 9467 2051 20       		.uleb128 0x20
 9468 2052 46020000 		.4byte	.LVL237
 9469 2056 3B350000 		.4byte	0x353b
 9470 205a 1E       		.uleb128 0x1e
 9471 205b 62020000 		.4byte	.LVL240
 9472 205f 22350000 		.4byte	0x3522
 9473 2063 71200000 		.4byte	0x2071
 9474 2067 1F       		.uleb128 0x1f
 9475 2068 01       		.uleb128 0x1
 9476 2069 50       		.byte	0x50
 9477 206a 05       		.uleb128 0x5
 9478 206b 03       		.byte	0x3
 9479 206c AC020000 		.4byte	.LC105
 9480 2070 00       		.byte	0
 9481 2071 20       		.uleb128 0x20
 9482 2072 66020000 		.4byte	.LVL241
 9483 2076 3B350000 		.4byte	0x353b
 9484 207a 1E       		.uleb128 0x1e
 9485 207b 82020000 		.4byte	.LVL244
 9486 207f 22350000 		.4byte	0x3522
 9487 2083 91200000 		.4byte	0x2091
 9488 2087 1F       		.uleb128 0x1f
 9489 2088 01       		.uleb128 0x1
 9490 2089 50       		.byte	0x50
 9491 208a 05       		.uleb128 0x5
 9492 208b 03       		.byte	0x3
 9493 208c BC020000 		.4byte	.LC107
 9494 2090 00       		.byte	0
 9495 2091 20       		.uleb128 0x20
 9496 2092 86020000 		.4byte	.LVL245
 9497 2096 3B350000 		.4byte	0x353b
 9498 209a 1E       		.uleb128 0x1e
 9499 209b A2020000 		.4byte	.LVL248
 9500 209f 22350000 		.4byte	0x3522
 9501 20a3 B1200000 		.4byte	0x20b1
 9502 20a7 1F       		.uleb128 0x1f
 9503 20a8 01       		.uleb128 0x1
 9504 20a9 50       		.byte	0x50
 9505 20aa 05       		.uleb128 0x5
 9506 20ab 03       		.byte	0x3
 9507 20ac CC020000 		.4byte	.LC109
 9508 20b0 00       		.byte	0
 9509 20b1 20       		.uleb128 0x20
 9510 20b2 A6020000 		.4byte	.LVL249
 9511 20b6 3B350000 		.4byte	0x353b
 9512 20ba 1E       		.uleb128 0x1e
 9513 20bb C2020000 		.4byte	.LVL252
 9514 20bf 22350000 		.4byte	0x3522
 9515 20c3 D1200000 		.4byte	0x20d1
 9516 20c7 1F       		.uleb128 0x1f
 9517 20c8 01       		.uleb128 0x1
ARM GAS  C:\Users\Helon\AppData\Local\Temp\cckZyeCc.s 			page 220


 9518 20c9 50       		.byte	0x50
 9519 20ca 05       		.uleb128 0x5
 9520 20cb 03       		.byte	0x3
 9521 20cc DC020000 		.4byte	.LC111
 9522 20d0 00       		.byte	0
 9523 20d1 20       		.uleb128 0x20
 9524 20d2 C6020000 		.4byte	.LVL253
 9525 20d6 3B350000 		.4byte	0x353b
 9526 20da 1E       		.uleb128 0x1e
 9527 20db E2020000 		.4byte	.LVL256
 9528 20df 22350000 		.4byte	0x3522
 9529 20e3 F1200000 		.4byte	0x20f1
 9530 20e7 1F       		.uleb128 0x1f
 9531 20e8 01       		.uleb128 0x1
 9532 20e9 50       		.byte	0x50
 9533 20ea 05       		.uleb128 0x5
 9534 20eb 03       		.byte	0x3
 9535 20ec EC020000 		.4byte	.LC113
 9536 20f0 00       		.byte	0
 9537 20f1 20       		.uleb128 0x20
 9538 20f2 E6020000 		.4byte	.LVL257
 9539 20f6 3B350000 		.4byte	0x353b
 9540 20fa 1E       		.uleb128 0x1e
 9541 20fb 62030000 		.4byte	.LVL260
 9542 20ff 22350000 		.4byte	0x3522
 9543 2103 11210000 		.4byte	0x2111
 9544 2107 1F       		.uleb128 0x1f
 9545 2108 01       		.uleb128 0x1
 9546 2109 50       		.byte	0x50
 9547 210a 05       		.uleb128 0x5
 9548 210b 03       		.byte	0x3
 9549 210c FC020000 		.4byte	.LC115
 9550 2110 00       		.byte	0
 9551 2111 20       		.uleb128 0x20
 9552 2112 66030000 		.4byte	.LVL261
 9553 2116 3B350000 		.4byte	0x353b
 9554 211a 1E       		.uleb128 0x1e
 9555 211b 82030000 		.4byte	.LVL264
 9556 211f 22350000 		.4byte	0x3522
 9557 2123 31210000 		.4byte	0x2131
 9558 2127 1F       		.uleb128 0x1f
 9559 2128 01       		.uleb128 0x1
 9560 2129 50       		.byte	0x50
 9561 212a 05       		.uleb128 0x5
 9562 212b 03       		.byte	0x3
 9563 212c 0C030000 		.4byte	.LC117
 9564 2130 00       		.byte	0
 9565 2131 20       		.uleb128 0x20
 9566 2132 86030000 		.4byte	.LVL265
 9567 2136 3B350000 		.4byte	0x353b
 9568 213a 1E       		.uleb128 0x1e
 9569 213b A2030000 		.4byte	.LVL268
 9570 213f 22350000 		.4byte	0x3522
 9571 2143 51210000 		.4byte	0x2151
 9572 2147 1F       		.uleb128 0x1f
 9573 2148 01       		.uleb128 0x1
 9574 2149 50       		.byte	0x50
ARM GAS  C:\Users\Helon\AppData\Local\Temp\cckZyeCc.s 			page 221


 9575 214a 05       		.uleb128 0x5
 9576 214b 03       		.byte	0x3
 9577 214c 1C030000 		.4byte	.LC119
 9578 2150 00       		.byte	0
 9579 2151 20       		.uleb128 0x20
 9580 2152 A6030000 		.4byte	.LVL269
 9581 2156 3B350000 		.4byte	0x353b
 9582 215a 00       		.byte	0
 9583 215b 21       		.uleb128 0x21
 9584 215c 16300000 		.4byte	.LASF611
 9585 2160 01       		.byte	0x1
 9586 2161 8E07     		.2byte	0x78e
 9587 2163 00000000 		.4byte	.LFB51
 9588 2167 BC010000 		.4byte	.LFE51-.LFB51
 9589 216b 01       		.uleb128 0x1
 9590 216c 9C       		.byte	0x9c
 9591 216d 79240000 		.4byte	0x2479
 9592 2171 2A       		.uleb128 0x2a
 9593 2172 69647800 		.ascii	"idx\000"
 9594 2176 01       		.byte	0x1
 9595 2177 8E07     		.2byte	0x78e
 9596 2179 AD000000 		.4byte	0xad
 9597 217d EB070000 		.4byte	.LLST20
 9598 2181 23       		.uleb128 0x23
 9599 2182 6D210000 		.4byte	.LASF612
 9600 2186 01       		.byte	0x1
 9601 2187 9007     		.2byte	0x790
 9602 2189 CA040000 		.4byte	0x4ca
 9603 218d 02       		.uleb128 0x2
 9604 218e 91       		.byte	0x91
 9605 218f 74       		.sleb128 -12
 9606 2190 24       		.uleb128 0x24
 9607 2191 DD390000 		.4byte	.LASF604
 9608 2195 01       		.byte	0x1
 9609 2196 9107     		.2byte	0x791
 9610 2198 AA030000 		.4byte	0x3aa
 9611 219c 85080000 		.4byte	.LLST21
 9612 21a0 1E       		.uleb128 0x1e
 9613 21a1 3A000000 		.4byte	.LVL273
 9614 21a5 32380000 		.4byte	0x3832
 9615 21a9 B4210000 		.4byte	0x21b4
 9616 21ad 1F       		.uleb128 0x1f
 9617 21ae 01       		.uleb128 0x1
 9618 21af 50       		.byte	0x50
 9619 21b0 02       		.uleb128 0x2
 9620 21b1 74       		.byte	0x74
 9621 21b2 00       		.sleb128 0
 9622 21b3 00       		.byte	0
 9623 21b4 1E       		.uleb128 0x1e
 9624 21b5 50000000 		.4byte	.LVL276
 9625 21b9 22350000 		.4byte	0x3522
 9626 21bd CB210000 		.4byte	0x21cb
 9627 21c1 1F       		.uleb128 0x1f
 9628 21c2 01       		.uleb128 0x1
 9629 21c3 50       		.byte	0x50
 9630 21c4 05       		.uleb128 0x5
 9631 21c5 03       		.byte	0x3
ARM GAS  C:\Users\Helon\AppData\Local\Temp\cckZyeCc.s 			page 222


 9632 21c6 2C030000 		.4byte	.LC124
 9633 21ca 00       		.byte	0
 9634 21cb 1E       		.uleb128 0x1e
 9635 21cc 58000000 		.4byte	.LVL278
 9636 21d0 22350000 		.4byte	0x3522
 9637 21d4 E2210000 		.4byte	0x21e2
 9638 21d8 1F       		.uleb128 0x1f
 9639 21d9 01       		.uleb128 0x1
 9640 21da 50       		.byte	0x50
 9641 21db 05       		.uleb128 0x5
 9642 21dc 03       		.byte	0x3
 9643 21dd 3C030000 		.4byte	.LC126
 9644 21e1 00       		.byte	0
 9645 21e2 1E       		.uleb128 0x1e
 9646 21e3 60000000 		.4byte	.LVL280
 9647 21e7 22350000 		.4byte	0x3522
 9648 21eb F9210000 		.4byte	0x21f9
 9649 21ef 1F       		.uleb128 0x1f
 9650 21f0 01       		.uleb128 0x1
 9651 21f1 50       		.byte	0x50
 9652 21f2 05       		.uleb128 0x5
 9653 21f3 03       		.byte	0x3
 9654 21f4 4C030000 		.4byte	.LC128
 9655 21f8 00       		.byte	0
 9656 21f9 1E       		.uleb128 0x1e
 9657 21fa 68000000 		.4byte	.LVL282
 9658 21fe 22350000 		.4byte	0x3522
 9659 2202 10220000 		.4byte	0x2210
 9660 2206 1F       		.uleb128 0x1f
 9661 2207 01       		.uleb128 0x1
 9662 2208 50       		.byte	0x50
 9663 2209 05       		.uleb128 0x5
 9664 220a 03       		.byte	0x3
 9665 220b 5C030000 		.4byte	.LC130
 9666 220f 00       		.byte	0
 9667 2210 1E       		.uleb128 0x1e
 9668 2211 70000000 		.4byte	.LVL284
 9669 2215 22350000 		.4byte	0x3522
 9670 2219 27220000 		.4byte	0x2227
 9671 221d 1F       		.uleb128 0x1f
 9672 221e 01       		.uleb128 0x1
 9673 221f 50       		.byte	0x50
 9674 2220 05       		.uleb128 0x5
 9675 2221 03       		.byte	0x3
 9676 2222 6C030000 		.4byte	.LC132
 9677 2226 00       		.byte	0
 9678 2227 1E       		.uleb128 0x1e
 9679 2228 78000000 		.4byte	.LVL286
 9680 222c 22350000 		.4byte	0x3522
 9681 2230 3E220000 		.4byte	0x223e
 9682 2234 1F       		.uleb128 0x1f
 9683 2235 01       		.uleb128 0x1
 9684 2236 50       		.byte	0x50
 9685 2237 05       		.uleb128 0x5
 9686 2238 03       		.byte	0x3
 9687 2239 7C030000 		.4byte	.LC134
 9688 223d 00       		.byte	0
ARM GAS  C:\Users\Helon\AppData\Local\Temp\cckZyeCc.s 			page 223


 9689 223e 1E       		.uleb128 0x1e
 9690 223f 80000000 		.4byte	.LVL288
 9691 2243 22350000 		.4byte	0x3522
 9692 2247 55220000 		.4byte	0x2255
 9693 224b 1F       		.uleb128 0x1f
 9694 224c 01       		.uleb128 0x1
 9695 224d 50       		.byte	0x50
 9696 224e 05       		.uleb128 0x5
 9697 224f 03       		.byte	0x3
 9698 2250 8C030000 		.4byte	.LC136
 9699 2254 00       		.byte	0
 9700 2255 1E       		.uleb128 0x1e
 9701 2256 88000000 		.4byte	.LVL290
 9702 225a 22350000 		.4byte	0x3522
 9703 225e 6C220000 		.4byte	0x226c
 9704 2262 1F       		.uleb128 0x1f
 9705 2263 01       		.uleb128 0x1
 9706 2264 50       		.byte	0x50
 9707 2265 05       		.uleb128 0x5
 9708 2266 03       		.byte	0x3
 9709 2267 9C030000 		.4byte	.LC138
 9710 226b 00       		.byte	0
 9711 226c 1E       		.uleb128 0x1e
 9712 226d 94000000 		.4byte	.LVL292
 9713 2271 4E380000 		.4byte	0x384e
 9714 2275 80220000 		.4byte	0x2280
 9715 2279 1F       		.uleb128 0x1f
 9716 227a 01       		.uleb128 0x1
 9717 227b 50       		.byte	0x50
 9718 227c 02       		.uleb128 0x2
 9719 227d 91       		.byte	0x91
 9720 227e 74       		.sleb128 -12
 9721 227f 00       		.byte	0
 9722 2280 1E       		.uleb128 0x1e
 9723 2281 9E000000 		.4byte	.LVL294
 9724 2285 22350000 		.4byte	0x3522
 9725 2289 97220000 		.4byte	0x2297
 9726 228d 1F       		.uleb128 0x1f
 9727 228e 01       		.uleb128 0x1
 9728 228f 50       		.byte	0x50
 9729 2290 05       		.uleb128 0x5
 9730 2291 03       		.byte	0x3
 9731 2292 AC030000 		.4byte	.LC140
 9732 2296 00       		.byte	0
 9733 2297 1E       		.uleb128 0x1e
 9734 2298 A4000000 		.4byte	.LVL295
 9735 229c 22350000 		.4byte	0x3522
 9736 22a0 AE220000 		.4byte	0x22ae
 9737 22a4 1F       		.uleb128 0x1f
 9738 22a5 01       		.uleb128 0x1
 9739 22a6 50       		.byte	0x50
 9740 22a7 05       		.uleb128 0x5
 9741 22a8 03       		.byte	0x3
 9742 22a9 BC010000 		.4byte	.LC75
 9743 22ad 00       		.byte	0
 9744 22ae 1E       		.uleb128 0x1e
 9745 22af B0000000 		.4byte	.LVL297
ARM GAS  C:\Users\Helon\AppData\Local\Temp\cckZyeCc.s 			page 224


 9746 22b3 4E380000 		.4byte	0x384e
 9747 22b7 C2220000 		.4byte	0x22c2
 9748 22bb 1F       		.uleb128 0x1f
 9749 22bc 01       		.uleb128 0x1
 9750 22bd 50       		.byte	0x50
 9751 22be 02       		.uleb128 0x2
 9752 22bf 91       		.byte	0x91
 9753 22c0 74       		.sleb128 -12
 9754 22c1 00       		.byte	0
 9755 22c2 1E       		.uleb128 0x1e
 9756 22c3 BA000000 		.4byte	.LVL299
 9757 22c7 22350000 		.4byte	0x3522
 9758 22cb D9220000 		.4byte	0x22d9
 9759 22cf 1F       		.uleb128 0x1f
 9760 22d0 01       		.uleb128 0x1
 9761 22d1 50       		.byte	0x50
 9762 22d2 05       		.uleb128 0x5
 9763 22d3 03       		.byte	0x3
 9764 22d4 C0030000 		.4byte	.LC143
 9765 22d8 00       		.byte	0
 9766 22d9 1E       		.uleb128 0x1e
 9767 22da C0000000 		.4byte	.LVL300
 9768 22de 22350000 		.4byte	0x3522
 9769 22e2 F0220000 		.4byte	0x22f0
 9770 22e6 1F       		.uleb128 0x1f
 9771 22e7 01       		.uleb128 0x1
 9772 22e8 50       		.byte	0x50
 9773 22e9 05       		.uleb128 0x5
 9774 22ea 03       		.byte	0x3
 9775 22eb BC010000 		.4byte	.LC75
 9776 22ef 00       		.byte	0
 9777 22f0 1E       		.uleb128 0x1e
 9778 22f1 CC000000 		.4byte	.LVL302
 9779 22f5 4E380000 		.4byte	0x384e
 9780 22f9 04230000 		.4byte	0x2304
 9781 22fd 1F       		.uleb128 0x1f
 9782 22fe 01       		.uleb128 0x1
 9783 22ff 50       		.byte	0x50
 9784 2300 02       		.uleb128 0x2
 9785 2301 91       		.byte	0x91
 9786 2302 74       		.sleb128 -12
 9787 2303 00       		.byte	0
 9788 2304 1E       		.uleb128 0x1e
 9789 2305 D6000000 		.4byte	.LVL304
 9790 2309 22350000 		.4byte	0x3522
 9791 230d 1B230000 		.4byte	0x231b
 9792 2311 1F       		.uleb128 0x1f
 9793 2312 01       		.uleb128 0x1
 9794 2313 50       		.byte	0x50
 9795 2314 05       		.uleb128 0x5
 9796 2315 03       		.byte	0x3
 9797 2316 D4030000 		.4byte	.LC145
 9798 231a 00       		.byte	0
 9799 231b 1E       		.uleb128 0x1e
 9800 231c DC000000 		.4byte	.LVL305
 9801 2320 22350000 		.4byte	0x3522
 9802 2324 32230000 		.4byte	0x2332
ARM GAS  C:\Users\Helon\AppData\Local\Temp\cckZyeCc.s 			page 225


 9803 2328 1F       		.uleb128 0x1f
 9804 2329 01       		.uleb128 0x1
 9805 232a 50       		.byte	0x50
 9806 232b 05       		.uleb128 0x5
 9807 232c 03       		.byte	0x3
 9808 232d BC010000 		.4byte	.LC75
 9809 2331 00       		.byte	0
 9810 2332 1E       		.uleb128 0x1e
 9811 2333 E8000000 		.4byte	.LVL307
 9812 2337 4E380000 		.4byte	0x384e
 9813 233b 46230000 		.4byte	0x2346
 9814 233f 1F       		.uleb128 0x1f
 9815 2340 01       		.uleb128 0x1
 9816 2341 50       		.byte	0x50
 9817 2342 02       		.uleb128 0x2
 9818 2343 91       		.byte	0x91
 9819 2344 74       		.sleb128 -12
 9820 2345 00       		.byte	0
 9821 2346 1E       		.uleb128 0x1e
 9822 2347 F2000000 		.4byte	.LVL309
 9823 234b 22350000 		.4byte	0x3522
 9824 234f 5D230000 		.4byte	0x235d
 9825 2353 1F       		.uleb128 0x1f
 9826 2354 01       		.uleb128 0x1
 9827 2355 50       		.byte	0x50
 9828 2356 05       		.uleb128 0x5
 9829 2357 03       		.byte	0x3
 9830 2358 E4030000 		.4byte	.LC147
 9831 235c 00       		.byte	0
 9832 235d 1E       		.uleb128 0x1e
 9833 235e F8000000 		.4byte	.LVL310
 9834 2362 22350000 		.4byte	0x3522
 9835 2366 74230000 		.4byte	0x2374
 9836 236a 1F       		.uleb128 0x1f
 9837 236b 01       		.uleb128 0x1
 9838 236c 50       		.byte	0x50
 9839 236d 05       		.uleb128 0x5
 9840 236e 03       		.byte	0x3
 9841 236f BC010000 		.4byte	.LC75
 9842 2373 00       		.byte	0
 9843 2374 1E       		.uleb128 0x1e
 9844 2375 04010000 		.4byte	.LVL312
 9845 2379 4E380000 		.4byte	0x384e
 9846 237d 88230000 		.4byte	0x2388
 9847 2381 1F       		.uleb128 0x1f
 9848 2382 01       		.uleb128 0x1
 9849 2383 50       		.byte	0x50
 9850 2384 02       		.uleb128 0x2
 9851 2385 91       		.byte	0x91
 9852 2386 74       		.sleb128 -12
 9853 2387 00       		.byte	0
 9854 2388 1E       		.uleb128 0x1e
 9855 2389 0E010000 		.4byte	.LVL314
 9856 238d 22350000 		.4byte	0x3522
 9857 2391 9F230000 		.4byte	0x239f
 9858 2395 1F       		.uleb128 0x1f
 9859 2396 01       		.uleb128 0x1
ARM GAS  C:\Users\Helon\AppData\Local\Temp\cckZyeCc.s 			page 226


 9860 2397 50       		.byte	0x50
 9861 2398 05       		.uleb128 0x5
 9862 2399 03       		.byte	0x3
 9863 239a F4030000 		.4byte	.LC149
 9864 239e 00       		.byte	0
 9865 239f 1E       		.uleb128 0x1e
 9866 23a0 14010000 		.4byte	.LVL315
 9867 23a4 22350000 		.4byte	0x3522
 9868 23a8 B6230000 		.4byte	0x23b6
 9869 23ac 1F       		.uleb128 0x1f
 9870 23ad 01       		.uleb128 0x1
 9871 23ae 50       		.byte	0x50
 9872 23af 05       		.uleb128 0x5
 9873 23b0 03       		.byte	0x3
 9874 23b1 BC010000 		.4byte	.LC75
 9875 23b5 00       		.byte	0
 9876 23b6 1E       		.uleb128 0x1e
 9877 23b7 20010000 		.4byte	.LVL317
 9878 23bb 4E380000 		.4byte	0x384e
 9879 23bf CA230000 		.4byte	0x23ca
 9880 23c3 1F       		.uleb128 0x1f
 9881 23c4 01       		.uleb128 0x1
 9882 23c5 50       		.byte	0x50
 9883 23c6 02       		.uleb128 0x2
 9884 23c7 91       		.byte	0x91
 9885 23c8 74       		.sleb128 -12
 9886 23c9 00       		.byte	0
 9887 23ca 1E       		.uleb128 0x1e
 9888 23cb 2A010000 		.4byte	.LVL319
 9889 23cf 22350000 		.4byte	0x3522
 9890 23d3 E1230000 		.4byte	0x23e1
 9891 23d7 1F       		.uleb128 0x1f
 9892 23d8 01       		.uleb128 0x1
 9893 23d9 50       		.byte	0x50
 9894 23da 05       		.uleb128 0x5
 9895 23db 03       		.byte	0x3
 9896 23dc 04040000 		.4byte	.LC151
 9897 23e0 00       		.byte	0
 9898 23e1 1E       		.uleb128 0x1e
 9899 23e2 30010000 		.4byte	.LVL320
 9900 23e6 22350000 		.4byte	0x3522
 9901 23ea F8230000 		.4byte	0x23f8
 9902 23ee 1F       		.uleb128 0x1f
 9903 23ef 01       		.uleb128 0x1
 9904 23f0 50       		.byte	0x50
 9905 23f1 05       		.uleb128 0x5
 9906 23f2 03       		.byte	0x3
 9907 23f3 BC010000 		.4byte	.LC75
 9908 23f7 00       		.byte	0
 9909 23f8 1E       		.uleb128 0x1e
 9910 23f9 3C010000 		.4byte	.LVL322
 9911 23fd 4E380000 		.4byte	0x384e
 9912 2401 0C240000 		.4byte	0x240c
 9913 2405 1F       		.uleb128 0x1f
 9914 2406 01       		.uleb128 0x1
 9915 2407 50       		.byte	0x50
 9916 2408 02       		.uleb128 0x2
ARM GAS  C:\Users\Helon\AppData\Local\Temp\cckZyeCc.s 			page 227


 9917 2409 91       		.byte	0x91
 9918 240a 74       		.sleb128 -12
 9919 240b 00       		.byte	0
 9920 240c 1E       		.uleb128 0x1e
 9921 240d 46010000 		.4byte	.LVL324
 9922 2411 22350000 		.4byte	0x3522
 9923 2415 23240000 		.4byte	0x2423
 9924 2419 1F       		.uleb128 0x1f
 9925 241a 01       		.uleb128 0x1
 9926 241b 50       		.byte	0x50
 9927 241c 05       		.uleb128 0x5
 9928 241d 03       		.byte	0x3
 9929 241e 14040000 		.4byte	.LC153
 9930 2422 00       		.byte	0
 9931 2423 1E       		.uleb128 0x1e
 9932 2424 4C010000 		.4byte	.LVL325
 9933 2428 22350000 		.4byte	0x3522
 9934 242c 3A240000 		.4byte	0x243a
 9935 2430 1F       		.uleb128 0x1f
 9936 2431 01       		.uleb128 0x1
 9937 2432 50       		.byte	0x50
 9938 2433 05       		.uleb128 0x5
 9939 2434 03       		.byte	0x3
 9940 2435 BC010000 		.4byte	.LC75
 9941 2439 00       		.byte	0
 9942 243a 1E       		.uleb128 0x1e
 9943 243b 58010000 		.4byte	.LVL327
 9944 243f 4E380000 		.4byte	0x384e
 9945 2443 4E240000 		.4byte	0x244e
 9946 2447 1F       		.uleb128 0x1f
 9947 2448 01       		.uleb128 0x1
 9948 2449 50       		.byte	0x50
 9949 244a 02       		.uleb128 0x2
 9950 244b 91       		.byte	0x91
 9951 244c 74       		.sleb128 -12
 9952 244d 00       		.byte	0
 9953 244e 1E       		.uleb128 0x1e
 9954 244f 62010000 		.4byte	.LVL329
 9955 2453 22350000 		.4byte	0x3522
 9956 2457 65240000 		.4byte	0x2465
 9957 245b 1F       		.uleb128 0x1f
 9958 245c 01       		.uleb128 0x1
 9959 245d 50       		.byte	0x50
 9960 245e 05       		.uleb128 0x5
 9961 245f 03       		.byte	0x3
 9962 2460 24040000 		.4byte	.LC155
 9963 2464 00       		.byte	0
 9964 2465 22       		.uleb128 0x22
 9965 2466 68010000 		.4byte	.LVL330
 9966 246a 22350000 		.4byte	0x3522
 9967 246e 1F       		.uleb128 0x1f
 9968 246f 01       		.uleb128 0x1
 9969 2470 50       		.byte	0x50
 9970 2471 05       		.uleb128 0x5
 9971 2472 03       		.byte	0x3
 9972 2473 BC010000 		.4byte	.LC75
 9973 2477 00       		.byte	0
ARM GAS  C:\Users\Helon\AppData\Local\Temp\cckZyeCc.s 			page 228


 9974 2478 00       		.byte	0
 9975 2479 21       		.uleb128 0x21
 9976 247a 300F0000 		.4byte	.LASF613
 9977 247e 01       		.byte	0x1
 9978 247f 1608     		.2byte	0x816
 9979 2481 00000000 		.4byte	.LFB52
 9980 2485 70000000 		.4byte	.LFE52-.LFB52
 9981 2489 01       		.uleb128 0x1
 9982 248a 9C       		.byte	0x9c
 9983 248b 3E250000 		.4byte	0x253e
 9984 248f 28       		.uleb128 0x28
 9985 2490 79150000 		.4byte	.LASF614
 9986 2494 01       		.byte	0x1
 9987 2495 1608     		.2byte	0x816
 9988 2497 5D010000 		.4byte	0x15d
 9989 249b 45090000 		.4byte	.LLST22
 9990 249f 26       		.uleb128 0x26
 9991 24a0 502F0000 		.4byte	.LASF615
 9992 24a4 01       		.byte	0x1
 9993 24a5 1608     		.2byte	0x816
 9994 24a7 5D010000 		.4byte	0x15d
 9995 24ab 01       		.uleb128 0x1
 9996 24ac 51       		.byte	0x51
 9997 24ad 26       		.uleb128 0x26
 9998 24ae CE150000 		.4byte	.LASF616
 9999 24b2 01       		.byte	0x1
 10000 24b3 1608     		.2byte	0x816
 10001 24b5 94000000 		.4byte	0x94
 10002 24b9 01       		.uleb128 0x1
 10003 24ba 52       		.byte	0x52
 10004 24bb 29       		.uleb128 0x29
 10005 24bc 683100   		.ascii	"h1\000"
 10006 24bf 01       		.byte	0x1
 10007 24c0 1808     		.2byte	0x818
 10008 24c2 42000000 		.4byte	0x42
 10009 24c6 71090000 		.4byte	.LLST23
 10010 24ca 29       		.uleb128 0x29
 10011 24cb 683200   		.ascii	"h2\000"
 10012 24ce 01       		.byte	0x1
 10013 24cf 1808     		.2byte	0x818
 10014 24d1 42000000 		.4byte	0x42
 10015 24d5 95090000 		.4byte	.LLST24
 10016 24d9 29       		.uleb128 0x29
 10017 24da 733100   		.ascii	"s1\000"
 10018 24dd 01       		.byte	0x1
 10019 24de 1908     		.2byte	0x819
 10020 24e0 42000000 		.4byte	0x42
 10021 24e4 BB090000 		.4byte	.LLST25
 10022 24e8 29       		.uleb128 0x29
 10023 24e9 733200   		.ascii	"s2\000"
 10024 24ec 01       		.byte	0x1
 10025 24ed 1908     		.2byte	0x819
 10026 24ef 42000000 		.4byte	0x42
 10027 24f3 F3090000 		.4byte	.LLST26
 10028 24f7 29       		.uleb128 0x29
 10029 24f8 6900     		.ascii	"i\000"
 10030 24fa 01       		.byte	0x1
ARM GAS  C:\Users\Helon\AppData\Local\Temp\cckZyeCc.s 			page 229


 10031 24fb 1A08     		.2byte	0x81a
 10032 24fd 94000000 		.4byte	0x94
 10033 2501 060A0000 		.4byte	.LLST27
 10034 2505 2C       		.uleb128 0x2c
 10035 2506 14000000 		.4byte	.LBB2
 10036 250a 12000000 		.4byte	.LBE2-.LBB2
 10037 250e 23250000 		.4byte	0x2523
 10038 2512 29       		.uleb128 0x29
 10039 2513 5F5F7800 		.ascii	"__x\000"
 10040 2517 01       		.byte	0x1
 10041 2518 2108     		.2byte	0x821
 10042 251a 42000000 		.4byte	0x42
 10043 251e 250A0000 		.4byte	.LLST28
 10044 2522 00       		.byte	0
 10045 2523 2D       		.uleb128 0x2d
 10046 2524 38000000 		.4byte	.LBB3
 10047 2528 0E000000 		.4byte	.LBE3-.LBB3
 10048 252c 29       		.uleb128 0x29
 10049 252d 5F5F7800 		.ascii	"__x\000"
 10050 2531 01       		.byte	0x1
 10051 2532 2508     		.2byte	0x825
 10052 2534 42000000 		.4byte	0x42
 10053 2538 490A0000 		.4byte	.LLST29
 10054 253c 00       		.byte	0
 10055 253d 00       		.byte	0
 10056 253e 2E       		.uleb128 0x2e
 10057 253f 37420000 		.4byte	.LASF617
 10058 2543 01       		.byte	0x1
 10059 2544 8902     		.2byte	0x289
 10060 2546 00000000 		.4byte	.LFB43
 10061 254a DC080000 		.4byte	.LFE43-.LFB43
 10062 254e 01       		.uleb128 0x1
 10063 254f 9C       		.byte	0x9c
 10064 2550 22300000 		.4byte	0x3022
 10065 2554 28       		.uleb128 0x28
 10066 2555 00060000 		.4byte	.LASF599
 10067 2559 01       		.byte	0x1
 10068 255a 8902     		.2byte	0x289
 10069 255c 63010000 		.4byte	0x163
 10070 2560 6F0A0000 		.4byte	.LLST30
 10071 2564 24       		.uleb128 0x24
 10072 2565 FD420000 		.4byte	.LASF618
 10073 2569 01       		.byte	0x1
 10074 256a 8D02     		.2byte	0x28d
 10075 256c AD000000 		.4byte	0xad
 10076 2570 180B0000 		.4byte	.LLST31
 10077 2574 29       		.uleb128 0x29
 10078 2575 6900     		.ascii	"i\000"
 10079 2577 01       		.byte	0x1
 10080 2578 8D02     		.2byte	0x28d
 10081 257a AD000000 		.4byte	0xad
 10082 257e 370B0000 		.4byte	.LLST32
 10083 2582 29       		.uleb128 0x29
 10084 2583 69647800 		.ascii	"idx\000"
 10085 2587 01       		.byte	0x1
 10086 2588 8E02     		.2byte	0x28e
 10087 258a AD000000 		.4byte	0xad
ARM GAS  C:\Users\Helon\AppData\Local\Temp\cckZyeCc.s 			page 230


 10088 258e EA0B0000 		.4byte	.LLST33
 10089 2592 24       		.uleb128 0x24
 10090 2593 E1240000 		.4byte	.LASF619
 10091 2597 01       		.byte	0x1
 10092 2598 8F02     		.2byte	0x28f
 10093 259a B8000000 		.4byte	0xb8
 10094 259e C00F0000 		.4byte	.LLST34
 10095 25a2 24       		.uleb128 0x24
 10096 25a3 DF010000 		.4byte	.LASF620
 10097 25a7 01       		.byte	0x1
 10098 25a8 8F02     		.2byte	0x28f
 10099 25aa B8000000 		.4byte	0xb8
 10100 25ae D30F0000 		.4byte	.LLST35
 10101 25b2 23       		.uleb128 0x23
 10102 25b3 A4190000 		.4byte	.LASF621
 10103 25b7 01       		.byte	0x1
 10104 25b8 9002     		.2byte	0x290
 10105 25ba 22300000 		.4byte	0x3022
 10106 25be 02       		.uleb128 0x2
 10107 25bf 91       		.byte	0x91
 10108 25c0 4C       		.sleb128 -52
 10109 25c1 23       		.uleb128 0x23
 10110 25c2 5E360000 		.4byte	.LASF622
 10111 25c6 01       		.byte	0x1
 10112 25c7 9102     		.2byte	0x291
 10113 25c9 32300000 		.4byte	0x3032
 10114 25cd 03       		.uleb128 0x3
 10115 25ce 91       		.byte	0x91
 10116 25cf AC7F     		.sleb128 -84
 10117 25d1 23       		.uleb128 0x23
 10118 25d2 69030000 		.4byte	.LASF623
 10119 25d6 01       		.byte	0x1
 10120 25d7 9202     		.2byte	0x292
 10121 25d9 42300000 		.4byte	0x3042
 10122 25dd 03       		.uleb128 0x3
 10123 25de 91       		.byte	0x91
 10124 25df EC7E     		.sleb128 -148
 10125 25e1 23       		.uleb128 0x23
 10126 25e2 8F400000 		.4byte	.LASF624
 10127 25e6 01       		.byte	0x1
 10128 25e7 9302     		.2byte	0x293
 10129 25e9 52300000 		.4byte	0x3052
 10130 25ed 03       		.uleb128 0x3
 10131 25ee 91       		.byte	0x91
 10132 25ef E87E     		.sleb128 -152
 10133 25f1 23       		.uleb128 0x23
 10134 25f2 E01D0000 		.4byte	.LASF625
 10135 25f6 01       		.byte	0x1
 10136 25f7 9402     		.2byte	0x294
 10137 25f9 1E010000 		.4byte	0x11e
 10138 25fd 03       		.uleb128 0x3
 10139 25fe 91       		.byte	0x91
 10140 25ff E77E     		.sleb128 -153
 10141 2601 23       		.uleb128 0x23
 10142 2602 B01D0000 		.4byte	.LASF626
 10143 2606 01       		.byte	0x1
 10144 2607 9502     		.2byte	0x295
ARM GAS  C:\Users\Helon\AppData\Local\Temp\cckZyeCc.s 			page 231


 10145 2609 52300000 		.4byte	0x3052
 10146 260d 03       		.uleb128 0x3
 10147 260e 91       		.byte	0x91
 10148 260f E47E     		.sleb128 -156
 10149 2611 23       		.uleb128 0x23
 10150 2612 412D0000 		.4byte	.LASF627
 10151 2616 01       		.byte	0x1
 10152 2617 9602     		.2byte	0x296
 10153 2619 1E010000 		.4byte	0x11e
 10154 261d 03       		.uleb128 0x3
 10155 261e 91       		.byte	0x91
 10156 261f E37E     		.sleb128 -157
 10157 2621 24       		.uleb128 0x24
 10158 2622 DD390000 		.4byte	.LASF604
 10159 2626 01       		.byte	0x1
 10160 2627 9902     		.2byte	0x299
 10161 2629 AA030000 		.4byte	0x3aa
 10162 262d F10F0000 		.4byte	.LLST36
 10163 2631 24       		.uleb128 0x24
 10164 2632 E31C0000 		.4byte	.LASF628
 10165 2636 01       		.byte	0x1
 10166 2637 9A02     		.2byte	0x29a
 10167 2639 AD000000 		.4byte	0xad
 10168 263d 0D110000 		.4byte	.LLST37
 10169 2641 23       		.uleb128 0x23
 10170 2642 71010000 		.4byte	.LASF629
 10171 2646 01       		.byte	0x1
 10172 2647 9B02     		.2byte	0x29b
 10173 2649 1F0A0000 		.4byte	0xa1f
 10174 264d 03       		.uleb128 0x3
 10175 264e 91       		.byte	0x91
 10176 264f DC7E     		.sleb128 -164
 10177 2651 23       		.uleb128 0x23
 10178 2652 AE220000 		.4byte	.LASF630
 10179 2656 01       		.byte	0x1
 10180 2657 9C02     		.2byte	0x29c
 10181 2659 3C070000 		.4byte	0x73c
 10182 265d 03       		.uleb128 0x3
 10183 265e 91       		.byte	0x91
 10184 265f BC7E     		.sleb128 -196
 10185 2661 1E       		.uleb128 0x1e
 10186 2662 46000000 		.4byte	.LVL352
 10187 2666 64380000 		.4byte	0x3864
 10188 266a 82260000 		.4byte	0x2682
 10189 266e 1F       		.uleb128 0x1f
 10190 266f 01       		.uleb128 0x1
 10191 2670 52       		.byte	0x52
 10192 2671 02       		.uleb128 0x2
 10193 2672 08       		.byte	0x8
 10194 2673 3E       		.byte	0x3e
 10195 2674 1F       		.uleb128 0x1f
 10196 2675 01       		.uleb128 0x1
 10197 2676 51       		.byte	0x51
 10198 2677 02       		.uleb128 0x2
 10199 2678 74       		.byte	0x74
 10200 2679 00       		.sleb128 0
 10201 267a 1F       		.uleb128 0x1f
ARM GAS  C:\Users\Helon\AppData\Local\Temp\cckZyeCc.s 			page 232


 10202 267b 01       		.uleb128 0x1
 10203 267c 50       		.byte	0x50
 10204 267d 03       		.uleb128 0x3
 10205 267e 91       		.byte	0x91
 10206 267f EC7E     		.sleb128 -148
 10207 2681 00       		.byte	0
 10208 2682 1E       		.uleb128 0x1e
 10209 2683 60000000 		.4byte	.LVL354
 10210 2687 2E1A0000 		.4byte	0x1a2e
 10211 268b 96260000 		.4byte	0x2696
 10212 268f 1F       		.uleb128 0x1f
 10213 2690 01       		.uleb128 0x1
 10214 2691 50       		.byte	0x50
 10215 2692 02       		.uleb128 0x2
 10216 2693 75       		.byte	0x75
 10217 2694 00       		.sleb128 0
 10218 2695 00       		.byte	0
 10219 2696 1E       		.uleb128 0x1e
 10220 2697 76000000 		.4byte	.LVL356
 10221 269b 22350000 		.4byte	0x3522
 10222 269f AD260000 		.4byte	0x26ad
 10223 26a3 1F       		.uleb128 0x1f
 10224 26a4 01       		.uleb128 0x1
 10225 26a5 50       		.byte	0x50
 10226 26a6 05       		.uleb128 0x5
 10227 26a7 03       		.byte	0x3
 10228 26a8 BC010000 		.4byte	.LC75
 10229 26ac 00       		.byte	0
 10230 26ad 1E       		.uleb128 0x1e
 10231 26ae 80000000 		.4byte	.LVL357
 10232 26b2 22350000 		.4byte	0x3522
 10233 26b6 C4260000 		.4byte	0x26c4
 10234 26ba 1F       		.uleb128 0x1f
 10235 26bb 01       		.uleb128 0x1
 10236 26bc 50       		.byte	0x50
 10237 26bd 05       		.uleb128 0x5
 10238 26be 03       		.byte	0x3
 10239 26bf 34040000 		.4byte	.LC160
 10240 26c3 00       		.byte	0
 10241 26c4 1E       		.uleb128 0x1e
 10242 26c5 86000000 		.4byte	.LVL358
 10243 26c9 22350000 		.4byte	0x3522
 10244 26cd DB260000 		.4byte	0x26db
 10245 26d1 1F       		.uleb128 0x1f
 10246 26d2 01       		.uleb128 0x1
 10247 26d3 50       		.byte	0x50
 10248 26d4 05       		.uleb128 0x5
 10249 26d5 03       		.byte	0x3
 10250 26d6 BC010000 		.4byte	.LC75
 10251 26da 00       		.byte	0
 10252 26db 20       		.uleb128 0x20
 10253 26dc 8A000000 		.4byte	.LVL359
 10254 26e0 3B350000 		.4byte	0x353b
 10255 26e4 20       		.uleb128 0x20
 10256 26e5 A2000000 		.4byte	.LVL360
 10257 26e9 81380000 		.4byte	0x3881
 10258 26ed 1E       		.uleb128 0x1e
ARM GAS  C:\Users\Helon\AppData\Local\Temp\cckZyeCc.s 			page 233


 10259 26ee AC000000 		.4byte	.LVL361
 10260 26f2 22350000 		.4byte	0x3522
 10261 26f6 04270000 		.4byte	0x2704
 10262 26fa 1F       		.uleb128 0x1f
 10263 26fb 01       		.uleb128 0x1
 10264 26fc 50       		.byte	0x50
 10265 26fd 05       		.uleb128 0x5
 10266 26fe 03       		.byte	0x3
 10267 26ff 40040000 		.4byte	.LC162
 10268 2703 00       		.byte	0
 10269 2704 20       		.uleb128 0x20
 10270 2705 B6000000 		.4byte	.LVL363
 10271 2709 771D0000 		.4byte	0x1d77
 10272 270d 1E       		.uleb128 0x1e
 10273 270e C6000000 		.4byte	.LVL366
 10274 2712 88380000 		.4byte	0x3888
 10275 2716 24270000 		.4byte	0x2724
 10276 271a 1F       		.uleb128 0x1f
 10277 271b 01       		.uleb128 0x1
 10278 271c 50       		.byte	0x50
 10279 271d 05       		.uleb128 0x5
 10280 271e 03       		.byte	0x3
 10281 271f 00000000 		.4byte	DeviceAddr
 10282 2723 00       		.byte	0
 10283 2724 1E       		.uleb128 0x1e
 10284 2725 E0000000 		.4byte	.LVL368
 10285 2729 8A350000 		.4byte	0x358a
 10286 272d 49270000 		.4byte	0x2749
 10287 2731 1F       		.uleb128 0x1f
 10288 2732 01       		.uleb128 0x1
 10289 2733 50       		.byte	0x50
 10290 2734 05       		.uleb128 0x5
 10291 2735 03       		.byte	0x3
 10292 2736 54040000 		.4byte	.LC165
 10293 273a 1F       		.uleb128 0x1f
 10294 273b 02       		.uleb128 0x2
 10295 273c 7D       		.byte	0x7d
 10296 273d 04       		.sleb128 4
 10297 273e 02       		.uleb128 0x2
 10298 273f 74       		.byte	0x74
 10299 2740 00       		.sleb128 0
 10300 2741 1F       		.uleb128 0x1f
 10301 2742 02       		.uleb128 0x2
 10302 2743 7D       		.byte	0x7d
 10303 2744 00       		.sleb128 0
 10304 2745 02       		.uleb128 0x2
 10305 2746 75       		.byte	0x75
 10306 2747 00       		.sleb128 0
 10307 2748 00       		.byte	0
 10308 2749 1E       		.uleb128 0x1e
 10309 274a FC000000 		.4byte	.LVL371
 10310 274e A4380000 		.4byte	0x38a4
 10311 2752 5D270000 		.4byte	0x275d
 10312 2756 1F       		.uleb128 0x1f
 10313 2757 01       		.uleb128 0x1
 10314 2758 50       		.byte	0x50
 10315 2759 02       		.uleb128 0x2
ARM GAS  C:\Users\Helon\AppData\Local\Temp\cckZyeCc.s 			page 234


 10316 275a 91       		.byte	0x91
 10317 275b 4C       		.sleb128 -52
 10318 275c 00       		.byte	0
 10319 275d 1E       		.uleb128 0x1e
 10320 275e 04010000 		.4byte	.LVL372
 10321 2762 8A350000 		.4byte	0x358a
 10322 2766 7A270000 		.4byte	0x277a
 10323 276a 1F       		.uleb128 0x1f
 10324 276b 01       		.uleb128 0x1
 10325 276c 51       		.byte	0x51
 10326 276d 02       		.uleb128 0x2
 10327 276e 91       		.byte	0x91
 10328 276f 4C       		.sleb128 -52
 10329 2770 1F       		.uleb128 0x1f
 10330 2771 01       		.uleb128 0x1
 10331 2772 50       		.byte	0x50
 10332 2773 05       		.uleb128 0x5
 10333 2774 03       		.byte	0x3
 10334 2775 7C040000 		.4byte	.LC168
 10335 2779 00       		.byte	0
 10336 277a 20       		.uleb128 0x20
 10337 277b 12010000 		.4byte	.LVL374
 10338 277f C0380000 		.4byte	0x38c0
 10339 2783 1E       		.uleb128 0x1e
 10340 2784 36010000 		.4byte	.LVL375
 10341 2788 66350000 		.4byte	0x3566
 10342 278c A0270000 		.4byte	0x27a0
 10343 2790 1F       		.uleb128 0x1f
 10344 2791 01       		.uleb128 0x1
 10345 2792 51       		.byte	0x51
 10346 2793 05       		.uleb128 0x5
 10347 2794 03       		.byte	0x3
 10348 2795 19000000 		.4byte	.LANCHOR0+25
 10349 2799 1F       		.uleb128 0x1f
 10350 279a 01       		.uleb128 0x1
 10351 279b 50       		.byte	0x50
 10352 279c 02       		.uleb128 0x2
 10353 279d 74       		.byte	0x74
 10354 279e 00       		.sleb128 0
 10355 279f 00       		.byte	0
 10356 27a0 1E       		.uleb128 0x1e
 10357 27a1 3C010000 		.4byte	.LVL376
 10358 27a5 C8380000 		.4byte	0x38c8
 10359 27a9 B4270000 		.4byte	0x27b4
 10360 27ad 1F       		.uleb128 0x1f
 10361 27ae 01       		.uleb128 0x1
 10362 27af 50       		.byte	0x50
 10363 27b0 02       		.uleb128 0x2
 10364 27b1 74       		.byte	0x74
 10365 27b2 00       		.sleb128 0
 10366 27b3 00       		.byte	0
 10367 27b4 1E       		.uleb128 0x1e
 10368 27b5 42010000 		.4byte	.LVL377
 10369 27b9 4C360000 		.4byte	0x364c
 10370 27bd C7270000 		.4byte	0x27c7
 10371 27c1 1F       		.uleb128 0x1f
 10372 27c2 01       		.uleb128 0x1
ARM GAS  C:\Users\Helon\AppData\Local\Temp\cckZyeCc.s 			page 235


 10373 27c3 50       		.byte	0x50
 10374 27c4 01       		.uleb128 0x1
 10375 27c5 30       		.byte	0x30
 10376 27c6 00       		.byte	0
 10377 27c7 1E       		.uleb128 0x1e
 10378 27c8 4A010000 		.4byte	.LVL379
 10379 27cc 22350000 		.4byte	0x3522
 10380 27d0 DE270000 		.4byte	0x27de
 10381 27d4 1F       		.uleb128 0x1f
 10382 27d5 01       		.uleb128 0x1
 10383 27d6 50       		.byte	0x50
 10384 27d7 05       		.uleb128 0x5
 10385 27d8 03       		.byte	0x3
 10386 27d9 8C040000 		.4byte	.LC172
 10387 27dd 00       		.byte	0
 10388 27de 1E       		.uleb128 0x1e
 10389 27df 52010000 		.4byte	.LVL381
 10390 27e3 22350000 		.4byte	0x3522
 10391 27e7 F5270000 		.4byte	0x27f5
 10392 27eb 1F       		.uleb128 0x1f
 10393 27ec 01       		.uleb128 0x1
 10394 27ed 50       		.byte	0x50
 10395 27ee 05       		.uleb128 0x5
 10396 27ef 03       		.byte	0x3
 10397 27f0 8C040000 		.4byte	.LC172
 10398 27f4 00       		.byte	0
 10399 27f5 20       		.uleb128 0x20
 10400 27f6 62010000 		.4byte	.LVL384
 10401 27fa 5B210000 		.4byte	0x215b
 10402 27fe 1E       		.uleb128 0x1e
 10403 27ff 6A010000 		.4byte	.LVL387
 10404 2803 22350000 		.4byte	0x3522
 10405 2807 15280000 		.4byte	0x2815
 10406 280b 1F       		.uleb128 0x1f
 10407 280c 01       		.uleb128 0x1
 10408 280d 50       		.byte	0x50
 10409 280e 05       		.uleb128 0x5
 10410 280f 03       		.byte	0x3
 10411 2810 A0040000 		.4byte	.LC174
 10412 2814 00       		.byte	0
 10413 2815 1E       		.uleb128 0x1e
 10414 2816 AA010000 		.4byte	.LVL391
 10415 281a 66350000 		.4byte	0x3566
 10416 281e 35280000 		.4byte	0x2835
 10417 2822 1F       		.uleb128 0x1f
 10418 2823 01       		.uleb128 0x1
 10419 2824 52       		.byte	0x52
 10420 2825 01       		.uleb128 0x1
 10421 2826 32       		.byte	0x32
 10422 2827 1F       		.uleb128 0x1f
 10423 2828 01       		.uleb128 0x1
 10424 2829 51       		.byte	0x51
 10425 282a 02       		.uleb128 0x2
 10426 282b 75       		.byte	0x75
 10427 282c 09       		.sleb128 9
 10428 282d 1F       		.uleb128 0x1f
 10429 282e 01       		.uleb128 0x1
ARM GAS  C:\Users\Helon\AppData\Local\Temp\cckZyeCc.s 			page 236


 10430 282f 50       		.byte	0x50
 10431 2830 03       		.uleb128 0x3
 10432 2831 91       		.byte	0x91
 10433 2832 E87E     		.sleb128 -152
 10434 2834 00       		.byte	0
 10435 2835 1E       		.uleb128 0x1e
 10436 2836 B8010000 		.4byte	.LVL392
 10437 283a 79240000 		.4byte	0x2479
 10438 283e 55280000 		.4byte	0x2855
 10439 2842 1F       		.uleb128 0x1f
 10440 2843 01       		.uleb128 0x1
 10441 2844 52       		.byte	0x52
 10442 2845 01       		.uleb128 0x1
 10443 2846 31       		.byte	0x31
 10444 2847 1F       		.uleb128 0x1f
 10445 2848 01       		.uleb128 0x1
 10446 2849 51       		.byte	0x51
 10447 284a 03       		.uleb128 0x3
 10448 284b 91       		.byte	0x91
 10449 284c E87E     		.sleb128 -152
 10450 284e 1F       		.uleb128 0x1f
 10451 284f 01       		.uleb128 0x1
 10452 2850 50       		.byte	0x50
 10453 2851 02       		.uleb128 0x2
 10454 2852 76       		.byte	0x76
 10455 2853 00       		.sleb128 0
 10456 2854 00       		.byte	0
 10457 2855 1E       		.uleb128 0x1e
 10458 2856 C8010000 		.4byte	.LVL393
 10459 285a 66350000 		.4byte	0x3566
 10460 285e 70280000 		.4byte	0x2870
 10461 2862 1F       		.uleb128 0x1f
 10462 2863 01       		.uleb128 0x1
 10463 2864 51       		.byte	0x51
 10464 2865 02       		.uleb128 0x2
 10465 2866 75       		.byte	0x75
 10466 2867 0C       		.sleb128 12
 10467 2868 1F       		.uleb128 0x1f
 10468 2869 01       		.uleb128 0x1
 10469 286a 50       		.byte	0x50
 10470 286b 03       		.uleb128 0x3
 10471 286c 91       		.byte	0x91
 10472 286d EC7E     		.sleb128 -148
 10473 286f 00       		.byte	0
 10474 2870 1E       		.uleb128 0x1e
 10475 2871 D2010000 		.4byte	.LVL394
 10476 2875 79240000 		.4byte	0x2479
 10477 2879 91280000 		.4byte	0x2891
 10478 287d 1F       		.uleb128 0x1f
 10479 287e 01       		.uleb128 0x1
 10480 287f 52       		.byte	0x52
 10481 2880 01       		.uleb128 0x1
 10482 2881 4F       		.byte	0x4f
 10483 2882 1F       		.uleb128 0x1f
 10484 2883 01       		.uleb128 0x1
 10485 2884 51       		.byte	0x51
 10486 2885 03       		.uleb128 0x3
ARM GAS  C:\Users\Helon\AppData\Local\Temp\cckZyeCc.s 			page 237


 10487 2886 91       		.byte	0x91
 10488 2887 EC7E     		.sleb128 -148
 10489 2889 1F       		.uleb128 0x1f
 10490 288a 01       		.uleb128 0x1
 10491 288b 50       		.byte	0x50
 10492 288c 03       		.uleb128 0x3
 10493 288d 91       		.byte	0x91
 10494 288e AC7F     		.sleb128 -84
 10495 2890 00       		.byte	0
 10496 2891 1E       		.uleb128 0x1e
 10497 2892 DC010000 		.4byte	.LVL395
 10498 2896 66350000 		.4byte	0x3566
 10499 289a AC280000 		.4byte	0x28ac
 10500 289e 1F       		.uleb128 0x1f
 10501 289f 01       		.uleb128 0x1
 10502 28a0 51       		.byte	0x51
 10503 28a1 03       		.uleb128 0x3
 10504 28a2 91       		.byte	0x91
 10505 28a3 AC7F     		.sleb128 -84
 10506 28a5 1F       		.uleb128 0x1f
 10507 28a6 01       		.uleb128 0x1
 10508 28a7 50       		.byte	0x50
 10509 28a8 02       		.uleb128 0x2
 10510 28a9 74       		.byte	0x74
 10511 28aa 00       		.sleb128 0
 10512 28ab 00       		.byte	0
 10513 28ac 1E       		.uleb128 0x1e
 10514 28ad E4010000 		.4byte	.LVL396
 10515 28b1 DE380000 		.4byte	0x38de
 10516 28b5 C5280000 		.4byte	0x28c5
 10517 28b9 1F       		.uleb128 0x1f
 10518 28ba 01       		.uleb128 0x1
 10519 28bb 51       		.byte	0x51
 10520 28bc 01       		.uleb128 0x1
 10521 28bd 30       		.byte	0x30
 10522 28be 1F       		.uleb128 0x1f
 10523 28bf 01       		.uleb128 0x1
 10524 28c0 50       		.byte	0x50
 10525 28c1 02       		.uleb128 0x2
 10526 28c2 74       		.byte	0x74
 10527 28c3 00       		.sleb128 0
 10528 28c4 00       		.byte	0
 10529 28c5 1E       		.uleb128 0x1e
 10530 28c6 F0010000 		.4byte	.LVL398
 10531 28ca 22350000 		.4byte	0x3522
 10532 28ce DC280000 		.4byte	0x28dc
 10533 28d2 1F       		.uleb128 0x1f
 10534 28d3 01       		.uleb128 0x1
 10535 28d4 50       		.byte	0x50
 10536 28d5 05       		.uleb128 0x5
 10537 28d6 03       		.byte	0x3
 10538 28d7 B0040000 		.4byte	.LC176
 10539 28db 00       		.byte	0
 10540 28dc 1E       		.uleb128 0x1e
 10541 28dd 02020000 		.4byte	.LVL399
 10542 28e1 66350000 		.4byte	0x3566
 10543 28e5 F1280000 		.4byte	0x28f1
ARM GAS  C:\Users\Helon\AppData\Local\Temp\cckZyeCc.s 			page 238


 10544 28e9 1F       		.uleb128 0x1f
 10545 28ea 01       		.uleb128 0x1
 10546 28eb 51       		.byte	0x51
 10547 28ec 03       		.uleb128 0x3
 10548 28ed 91       		.byte	0x91
 10549 28ee AC7F     		.sleb128 -84
 10550 28f0 00       		.byte	0
 10551 28f1 1E       		.uleb128 0x1e
 10552 28f2 0A020000 		.4byte	.LVL401
 10553 28f6 8A350000 		.4byte	0x358a
 10554 28fa 08290000 		.4byte	0x2908
 10555 28fe 1F       		.uleb128 0x1f
 10556 28ff 01       		.uleb128 0x1
 10557 2900 50       		.byte	0x50
 10558 2901 05       		.uleb128 0x5
 10559 2902 03       		.byte	0x3
 10560 2903 C4040000 		.4byte	.LC179
 10561 2907 00       		.byte	0
 10562 2908 1E       		.uleb128 0x1e
 10563 2909 16020000 		.4byte	.LVL403
 10564 290d 8A350000 		.4byte	0x358a
 10565 2911 1F290000 		.4byte	0x291f
 10566 2915 1F       		.uleb128 0x1f
 10567 2916 01       		.uleb128 0x1
 10568 2917 50       		.byte	0x50
 10569 2918 05       		.uleb128 0x5
 10570 2919 03       		.byte	0x3
 10571 291a 00010000 		.4byte	.LC33
 10572 291e 00       		.byte	0
 10573 291f 1E       		.uleb128 0x1e
 10574 2920 2A020000 		.4byte	.LVL406
 10575 2924 22350000 		.4byte	0x3522
 10576 2928 36290000 		.4byte	0x2936
 10577 292c 1F       		.uleb128 0x1f
 10578 292d 01       		.uleb128 0x1
 10579 292e 50       		.byte	0x50
 10580 292f 05       		.uleb128 0x5
 10581 2930 03       		.byte	0x3
 10582 2931 08010000 		.4byte	.LC35
 10583 2935 00       		.byte	0
 10584 2936 1E       		.uleb128 0x1e
 10585 2937 32020000 		.4byte	.LVL408
 10586 293b 22350000 		.4byte	0x3522
 10587 293f 4D290000 		.4byte	0x294d
 10588 2943 1F       		.uleb128 0x1f
 10589 2944 01       		.uleb128 0x1
 10590 2945 50       		.byte	0x50
 10591 2946 05       		.uleb128 0x5
 10592 2947 03       		.byte	0x3
 10593 2948 D0040000 		.4byte	.LC183
 10594 294c 00       		.byte	0
 10595 294d 1E       		.uleb128 0x1e
 10596 294e 86020000 		.4byte	.LVL420
 10597 2952 8A350000 		.4byte	0x358a
 10598 2956 6E290000 		.4byte	0x296e
 10599 295a 1F       		.uleb128 0x1f
 10600 295b 01       		.uleb128 0x1
ARM GAS  C:\Users\Helon\AppData\Local\Temp\cckZyeCc.s 			page 239


 10601 295c 51       		.byte	0x51
 10602 295d 06       		.uleb128 0x6
 10603 295e 74       		.byte	0x74
 10604 295f 00       		.sleb128 0
 10605 2960 40       		.byte	0x40
 10606 2961 24       		.byte	0x24
 10607 2962 40       		.byte	0x40
 10608 2963 26       		.byte	0x26
 10609 2964 1F       		.uleb128 0x1f
 10610 2965 01       		.uleb128 0x1
 10611 2966 50       		.byte	0x50
 10612 2967 05       		.uleb128 0x5
 10613 2968 03       		.byte	0x3
 10614 2969 E4040000 		.4byte	.LC185
 10615 296d 00       		.byte	0
 10616 296e 20       		.uleb128 0x20
 10617 296f 8A020000 		.4byte	.LVL421
 10618 2973 3B350000 		.4byte	0x353b
 10619 2977 1E       		.uleb128 0x1e
 10620 2978 BC020000 		.4byte	.LVL424
 10621 297c 79240000 		.4byte	0x2479
 10622 2980 96290000 		.4byte	0x2996
 10623 2984 1F       		.uleb128 0x1f
 10624 2985 01       		.uleb128 0x1
 10625 2986 52       		.byte	0x52
 10626 2987 01       		.uleb128 0x1
 10627 2988 31       		.byte	0x31
 10628 2989 1F       		.uleb128 0x1f
 10629 298a 01       		.uleb128 0x1
 10630 298b 51       		.byte	0x51
 10631 298c 02       		.uleb128 0x2
 10632 298d 74       		.byte	0x74
 10633 298e 00       		.sleb128 0
 10634 298f 1F       		.uleb128 0x1f
 10635 2990 01       		.uleb128 0x1
 10636 2991 50       		.byte	0x50
 10637 2992 02       		.uleb128 0x2
 10638 2993 76       		.byte	0x76
 10639 2994 00       		.sleb128 0
 10640 2995 00       		.byte	0
 10641 2996 1E       		.uleb128 0x1e
 10642 2997 D6020000 		.4byte	.LVL425
 10643 299b 79240000 		.4byte	0x2479
 10644 299f B5290000 		.4byte	0x29b5
 10645 29a3 1F       		.uleb128 0x1f
 10646 29a4 01       		.uleb128 0x1
 10647 29a5 52       		.byte	0x52
 10648 29a6 01       		.uleb128 0x1
 10649 29a7 31       		.byte	0x31
 10650 29a8 1F       		.uleb128 0x1f
 10651 29a9 01       		.uleb128 0x1
 10652 29aa 51       		.byte	0x51
 10653 29ab 02       		.uleb128 0x2
 10654 29ac 74       		.byte	0x74
 10655 29ad 00       		.sleb128 0
 10656 29ae 1F       		.uleb128 0x1f
 10657 29af 01       		.uleb128 0x1
ARM GAS  C:\Users\Helon\AppData\Local\Temp\cckZyeCc.s 			page 240


 10658 29b0 50       		.byte	0x50
 10659 29b1 02       		.uleb128 0x2
 10660 29b2 76       		.byte	0x76
 10661 29b3 00       		.sleb128 0
 10662 29b4 00       		.byte	0
 10663 29b5 1E       		.uleb128 0x1e
 10664 29b6 EE020000 		.4byte	.LVL426
 10665 29ba 79240000 		.4byte	0x2479
 10666 29be D4290000 		.4byte	0x29d4
 10667 29c2 1F       		.uleb128 0x1f
 10668 29c3 01       		.uleb128 0x1
 10669 29c4 52       		.byte	0x52
 10670 29c5 01       		.uleb128 0x1
 10671 29c6 31       		.byte	0x31
 10672 29c7 1F       		.uleb128 0x1f
 10673 29c8 01       		.uleb128 0x1
 10674 29c9 51       		.byte	0x51
 10675 29ca 02       		.uleb128 0x2
 10676 29cb 74       		.byte	0x74
 10677 29cc 00       		.sleb128 0
 10678 29cd 1F       		.uleb128 0x1f
 10679 29ce 01       		.uleb128 0x1
 10680 29cf 50       		.byte	0x50
 10681 29d0 02       		.uleb128 0x2
 10682 29d1 76       		.byte	0x76
 10683 29d2 00       		.sleb128 0
 10684 29d3 00       		.byte	0
 10685 29d4 1E       		.uleb128 0x1e
 10686 29d5 FA020000 		.4byte	.LVL427
 10687 29d9 8A350000 		.4byte	0x358a
 10688 29dd F1290000 		.4byte	0x29f1
 10689 29e1 1F       		.uleb128 0x1f
 10690 29e2 01       		.uleb128 0x1
 10691 29e3 51       		.byte	0x51
 10692 29e4 02       		.uleb128 0x2
 10693 29e5 75       		.byte	0x75
 10694 29e6 00       		.sleb128 0
 10695 29e7 1F       		.uleb128 0x1f
 10696 29e8 01       		.uleb128 0x1
 10697 29e9 50       		.byte	0x50
 10698 29ea 05       		.uleb128 0x5
 10699 29eb 03       		.byte	0x3
 10700 29ec 10050000 		.4byte	.LC187
 10701 29f0 00       		.byte	0
 10702 29f1 1E       		.uleb128 0x1e
 10703 29f2 00030000 		.4byte	.LVL428
 10704 29f6 22350000 		.4byte	0x3522
 10705 29fa 082A0000 		.4byte	0x2a08
 10706 29fe 1F       		.uleb128 0x1f
 10707 29ff 01       		.uleb128 0x1
 10708 2a00 50       		.byte	0x50
 10709 2a01 05       		.uleb128 0x5
 10710 2a02 03       		.byte	0x3
 10711 2a03 BC010000 		.4byte	.LC75
 10712 2a07 00       		.byte	0
 10713 2a08 1E       		.uleb128 0x1e
 10714 2a09 08030000 		.4byte	.LVL430
ARM GAS  C:\Users\Helon\AppData\Local\Temp\cckZyeCc.s 			page 241


 10715 2a0d 22350000 		.4byte	0x3522
 10716 2a11 1F2A0000 		.4byte	0x2a1f
 10717 2a15 1F       		.uleb128 0x1f
 10718 2a16 01       		.uleb128 0x1
 10719 2a17 50       		.byte	0x50
 10720 2a18 05       		.uleb128 0x5
 10721 2a19 03       		.byte	0x3
 10722 2a1a 14050000 		.4byte	.LC189
 10723 2a1e 00       		.byte	0
 10724 2a1f 1E       		.uleb128 0x1e
 10725 2a20 10030000 		.4byte	.LVL432
 10726 2a24 22350000 		.4byte	0x3522
 10727 2a28 362A0000 		.4byte	0x2a36
 10728 2a2c 1F       		.uleb128 0x1f
 10729 2a2d 01       		.uleb128 0x1
 10730 2a2e 50       		.byte	0x50
 10731 2a2f 05       		.uleb128 0x5
 10732 2a30 03       		.byte	0x3
 10733 2a31 14050000 		.4byte	.LC189
 10734 2a35 00       		.byte	0
 10735 2a36 1E       		.uleb128 0x1e
 10736 2a37 34030000 		.4byte	.LVL435
 10737 2a3b 8A350000 		.4byte	0x358a
 10738 2a3f 4D2A0000 		.4byte	0x2a4d
 10739 2a43 1F       		.uleb128 0x1f
 10740 2a44 01       		.uleb128 0x1
 10741 2a45 50       		.byte	0x50
 10742 2a46 05       		.uleb128 0x5
 10743 2a47 03       		.byte	0x3
 10744 2a48 28050000 		.4byte	.LC192
 10745 2a4c 00       		.byte	0
 10746 2a4d 1E       		.uleb128 0x1e
 10747 2a4e 3C030000 		.4byte	.LVL437
 10748 2a52 22350000 		.4byte	0x3522
 10749 2a56 642A0000 		.4byte	0x2a64
 10750 2a5a 1F       		.uleb128 0x1f
 10751 2a5b 01       		.uleb128 0x1
 10752 2a5c 50       		.byte	0x50
 10753 2a5d 05       		.uleb128 0x5
 10754 2a5e 03       		.byte	0x3
 10755 2a5f 64050000 		.4byte	.LC194
 10756 2a63 00       		.byte	0
 10757 2a64 1E       		.uleb128 0x1e
 10758 2a65 5E030000 		.4byte	.LVL440
 10759 2a69 79240000 		.4byte	0x2479
 10760 2a6d 832A0000 		.4byte	0x2a83
 10761 2a71 1F       		.uleb128 0x1f
 10762 2a72 01       		.uleb128 0x1
 10763 2a73 52       		.byte	0x52
 10764 2a74 01       		.uleb128 0x1
 10765 2a75 31       		.byte	0x31
 10766 2a76 1F       		.uleb128 0x1f
 10767 2a77 01       		.uleb128 0x1
 10768 2a78 51       		.byte	0x51
 10769 2a79 02       		.uleb128 0x2
 10770 2a7a 74       		.byte	0x74
 10771 2a7b 00       		.sleb128 0
ARM GAS  C:\Users\Helon\AppData\Local\Temp\cckZyeCc.s 			page 242


 10772 2a7c 1F       		.uleb128 0x1f
 10773 2a7d 01       		.uleb128 0x1
 10774 2a7e 50       		.byte	0x50
 10775 2a7f 02       		.uleb128 0x2
 10776 2a80 77       		.byte	0x77
 10777 2a81 00       		.sleb128 0
 10778 2a82 00       		.byte	0
 10779 2a83 1E       		.uleb128 0x1e
 10780 2a84 76030000 		.4byte	.LVL441
 10781 2a88 79240000 		.4byte	0x2479
 10782 2a8c A22A0000 		.4byte	0x2aa2
 10783 2a90 1F       		.uleb128 0x1f
 10784 2a91 01       		.uleb128 0x1
 10785 2a92 52       		.byte	0x52
 10786 2a93 01       		.uleb128 0x1
 10787 2a94 31       		.byte	0x31
 10788 2a95 1F       		.uleb128 0x1f
 10789 2a96 01       		.uleb128 0x1
 10790 2a97 51       		.byte	0x51
 10791 2a98 02       		.uleb128 0x2
 10792 2a99 74       		.byte	0x74
 10793 2a9a 00       		.sleb128 0
 10794 2a9b 1F       		.uleb128 0x1f
 10795 2a9c 01       		.uleb128 0x1
 10796 2a9d 50       		.byte	0x50
 10797 2a9e 02       		.uleb128 0x2
 10798 2a9f 77       		.byte	0x77
 10799 2aa0 00       		.sleb128 0
 10800 2aa1 00       		.byte	0
 10801 2aa2 1E       		.uleb128 0x1e
 10802 2aa3 84030000 		.4byte	.LVL442
 10803 2aa7 A0350000 		.4byte	0x35a0
 10804 2aab B62A0000 		.4byte	0x2ab6
 10805 2aaf 1F       		.uleb128 0x1f
 10806 2ab0 01       		.uleb128 0x1
 10807 2ab1 51       		.byte	0x51
 10808 2ab2 02       		.uleb128 0x2
 10809 2ab3 76       		.byte	0x76
 10810 2ab4 04       		.sleb128 4
 10811 2ab5 00       		.byte	0
 10812 2ab6 1E       		.uleb128 0x1e
 10813 2ab7 90030000 		.4byte	.LVL444
 10814 2abb 8A350000 		.4byte	0x358a
 10815 2abf D32A0000 		.4byte	0x2ad3
 10816 2ac3 1F       		.uleb128 0x1f
 10817 2ac4 01       		.uleb128 0x1
 10818 2ac5 51       		.byte	0x51
 10819 2ac6 02       		.uleb128 0x2
 10820 2ac7 75       		.byte	0x75
 10821 2ac8 00       		.sleb128 0
 10822 2ac9 1F       		.uleb128 0x1f
 10823 2aca 01       		.uleb128 0x1
 10824 2acb 50       		.byte	0x50
 10825 2acc 05       		.uleb128 0x5
 10826 2acd 03       		.byte	0x3
 10827 2ace 10050000 		.4byte	.LC187
 10828 2ad2 00       		.byte	0
ARM GAS  C:\Users\Helon\AppData\Local\Temp\cckZyeCc.s 			page 243


 10829 2ad3 1E       		.uleb128 0x1e
 10830 2ad4 96030000 		.4byte	.LVL445
 10831 2ad8 22350000 		.4byte	0x3522
 10832 2adc EA2A0000 		.4byte	0x2aea
 10833 2ae0 1F       		.uleb128 0x1f
 10834 2ae1 01       		.uleb128 0x1
 10835 2ae2 50       		.byte	0x50
 10836 2ae3 05       		.uleb128 0x5
 10837 2ae4 03       		.byte	0x3
 10838 2ae5 BC010000 		.4byte	.LC75
 10839 2ae9 00       		.byte	0
 10840 2aea 1E       		.uleb128 0x1e
 10841 2aeb 9E030000 		.4byte	.LVL448
 10842 2aef 22350000 		.4byte	0x3522
 10843 2af3 012B0000 		.4byte	0x2b01
 10844 2af7 1F       		.uleb128 0x1f
 10845 2af8 01       		.uleb128 0x1
 10846 2af9 50       		.byte	0x50
 10847 2afa 05       		.uleb128 0x5
 10848 2afb 03       		.byte	0x3
 10849 2afc 78050000 		.4byte	.LC197
 10850 2b00 00       		.byte	0
 10851 2b01 1E       		.uleb128 0x1e
 10852 2b02 A6030000 		.4byte	.LVL450
 10853 2b06 22350000 		.4byte	0x3522
 10854 2b0a 182B0000 		.4byte	0x2b18
 10855 2b0e 1F       		.uleb128 0x1f
 10856 2b0f 01       		.uleb128 0x1
 10857 2b10 50       		.byte	0x50
 10858 2b11 05       		.uleb128 0x5
 10859 2b12 03       		.byte	0x3
 10860 2b13 64050000 		.4byte	.LC194
 10861 2b17 00       		.byte	0
 10862 2b18 1E       		.uleb128 0x1e
 10863 2b19 3A040000 		.4byte	.LVL454
 10864 2b1d 22350000 		.4byte	0x3522
 10865 2b21 2F2B0000 		.4byte	0x2b2f
 10866 2b25 1F       		.uleb128 0x1f
 10867 2b26 01       		.uleb128 0x1
 10868 2b27 50       		.byte	0x50
 10869 2b28 05       		.uleb128 0x5
 10870 2b29 03       		.byte	0x3
 10871 2b2a 88050000 		.4byte	.LC199
 10872 2b2e 00       		.byte	0
 10873 2b2f 1E       		.uleb128 0x1e
 10874 2b30 42040000 		.4byte	.LVL456
 10875 2b34 22350000 		.4byte	0x3522
 10876 2b38 462B0000 		.4byte	0x2b46
 10877 2b3c 1F       		.uleb128 0x1f
 10878 2b3d 01       		.uleb128 0x1
 10879 2b3e 50       		.byte	0x50
 10880 2b3f 05       		.uleb128 0x5
 10881 2b40 03       		.byte	0x3
 10882 2b41 9C050000 		.4byte	.LC201
 10883 2b45 00       		.byte	0
 10884 2b46 20       		.uleb128 0x20
 10885 2b47 52040000 		.4byte	.LVL459
ARM GAS  C:\Users\Helon\AppData\Local\Temp\cckZyeCc.s 			page 244


 10886 2b4b 5E350000 		.4byte	0x355e
 10887 2b4f 1E       		.uleb128 0x1e
 10888 2b50 58040000 		.4byte	.LVL460
 10889 2b54 4C360000 		.4byte	0x364c
 10890 2b58 632B0000 		.4byte	0x2b63
 10891 2b5c 1F       		.uleb128 0x1f
 10892 2b5d 01       		.uleb128 0x1
 10893 2b5e 50       		.byte	0x50
 10894 2b5f 02       		.uleb128 0x2
 10895 2b60 74       		.byte	0x74
 10896 2b61 00       		.sleb128 0
 10897 2b62 00       		.byte	0
 10898 2b63 1E       		.uleb128 0x1e
 10899 2b64 64040000 		.4byte	.LVL461
 10900 2b68 22350000 		.4byte	0x3522
 10901 2b6c 7A2B0000 		.4byte	0x2b7a
 10902 2b70 1F       		.uleb128 0x1f
 10903 2b71 01       		.uleb128 0x1
 10904 2b72 50       		.byte	0x50
 10905 2b73 05       		.uleb128 0x5
 10906 2b74 03       		.byte	0x3
 10907 2b75 88050000 		.4byte	.LC199
 10908 2b79 00       		.byte	0
 10909 2b7a 1E       		.uleb128 0x1e
 10910 2b7b 6A040000 		.4byte	.LVL462
 10911 2b7f 22350000 		.4byte	0x3522
 10912 2b83 912B0000 		.4byte	0x2b91
 10913 2b87 1F       		.uleb128 0x1f
 10914 2b88 01       		.uleb128 0x1
 10915 2b89 50       		.byte	0x50
 10916 2b8a 05       		.uleb128 0x5
 10917 2b8b 03       		.byte	0x3
 10918 2b8c BC010000 		.4byte	.LC75
 10919 2b90 00       		.byte	0
 10920 2b91 20       		.uleb128 0x20
 10921 2b92 7A040000 		.4byte	.LVL465
 10922 2b96 C0380000 		.4byte	0x38c0
 10923 2b9a 1E       		.uleb128 0x1e
 10924 2b9b 80040000 		.4byte	.LVL466
 10925 2b9f F9380000 		.4byte	0x38f9
 10926 2ba3 AE2B0000 		.4byte	0x2bae
 10927 2ba7 1F       		.uleb128 0x1f
 10928 2ba8 01       		.uleb128 0x1
 10929 2ba9 50       		.byte	0x50
 10930 2baa 02       		.uleb128 0x2
 10931 2bab 74       		.byte	0x74
 10932 2bac 00       		.sleb128 0
 10933 2bad 00       		.byte	0
 10934 2bae 1E       		.uleb128 0x1e
 10935 2baf 8C040000 		.4byte	.LVL467
 10936 2bb3 22350000 		.4byte	0x3522
 10937 2bb7 C52B0000 		.4byte	0x2bc5
 10938 2bbb 1F       		.uleb128 0x1f
 10939 2bbc 01       		.uleb128 0x1
 10940 2bbd 50       		.byte	0x50
 10941 2bbe 05       		.uleb128 0x5
 10942 2bbf 03       		.byte	0x3
ARM GAS  C:\Users\Helon\AppData\Local\Temp\cckZyeCc.s 			page 245


 10943 2bc0 9C050000 		.4byte	.LC201
 10944 2bc4 00       		.byte	0
 10945 2bc5 1E       		.uleb128 0x1e
 10946 2bc6 92040000 		.4byte	.LVL468
 10947 2bca 22350000 		.4byte	0x3522
 10948 2bce DC2B0000 		.4byte	0x2bdc
 10949 2bd2 1F       		.uleb128 0x1f
 10950 2bd3 01       		.uleb128 0x1
 10951 2bd4 50       		.byte	0x50
 10952 2bd5 05       		.uleb128 0x5
 10953 2bd6 03       		.byte	0x3
 10954 2bd7 BC010000 		.4byte	.LC75
 10955 2bdb 00       		.byte	0
 10956 2bdc 1E       		.uleb128 0x1e
 10957 2bdd B4040000 		.4byte	.LVL470
 10958 2be1 0F390000 		.4byte	0x390f
 10959 2be5 F12B0000 		.4byte	0x2bf1
 10960 2be9 1F       		.uleb128 0x1f
 10961 2bea 01       		.uleb128 0x1
 10962 2beb 51       		.byte	0x51
 10963 2bec 03       		.uleb128 0x3
 10964 2bed 91       		.byte	0x91
 10965 2bee DC7E     		.sleb128 -164
 10966 2bf0 00       		.byte	0
 10967 2bf1 1E       		.uleb128 0x1e
 10968 2bf2 BC040000 		.4byte	.LVL472
 10969 2bf6 22350000 		.4byte	0x3522
 10970 2bfa 082C0000 		.4byte	0x2c08
 10971 2bfe 1F       		.uleb128 0x1f
 10972 2bff 01       		.uleb128 0x1
 10973 2c00 50       		.byte	0x50
 10974 2c01 05       		.uleb128 0x5
 10975 2c02 03       		.byte	0x3
 10976 2c03 B0050000 		.4byte	.LC203
 10977 2c07 00       		.byte	0
 10978 2c08 20       		.uleb128 0x20
 10979 2c09 DA040000 		.4byte	.LVL473
 10980 2c0d 30390000 		.4byte	0x3930
 10981 2c11 1E       		.uleb128 0x1e
 10982 2c12 E0040000 		.4byte	.LVL474
 10983 2c16 F9380000 		.4byte	0x38f9
 10984 2c1a 252C0000 		.4byte	0x2c25
 10985 2c1e 1F       		.uleb128 0x1f
 10986 2c1f 01       		.uleb128 0x1
 10987 2c20 50       		.byte	0x50
 10988 2c21 02       		.uleb128 0x2
 10989 2c22 74       		.byte	0x74
 10990 2c23 00       		.sleb128 0
 10991 2c24 00       		.byte	0
 10992 2c25 20       		.uleb128 0x20
 10993 2c26 F4040000 		.4byte	.LVL475
 10994 2c2a 30390000 		.4byte	0x3930
 10995 2c2e 20       		.uleb128 0x20
 10996 2c2f F8040000 		.4byte	.LVL476
 10997 2c33 5E350000 		.4byte	0x355e
 10998 2c37 1E       		.uleb128 0x1e
 10999 2c38 3A050000 		.4byte	.LVL478
ARM GAS  C:\Users\Helon\AppData\Local\Temp\cckZyeCc.s 			page 246


 11000 2c3c 8A350000 		.4byte	0x358a
 11001 2c40 632C0000 		.4byte	0x2c63
 11002 2c44 1F       		.uleb128 0x1f
 11003 2c45 01       		.uleb128 0x1
 11004 2c46 50       		.byte	0x50
 11005 2c47 05       		.uleb128 0x5
 11006 2c48 03       		.byte	0x3
 11007 2c49 C8050000 		.4byte	.LC206
 11008 2c4d 1F       		.uleb128 0x1f
 11009 2c4e 02       		.uleb128 0x2
 11010 2c4f 7D       		.byte	0x7d
 11011 2c50 08       		.sleb128 8
 11012 2c51 02       		.uleb128 0x2
 11013 2c52 77       		.byte	0x77
 11014 2c53 00       		.sleb128 0
 11015 2c54 1F       		.uleb128 0x1f
 11016 2c55 02       		.uleb128 0x2
 11017 2c56 7D       		.byte	0x7d
 11018 2c57 04       		.sleb128 4
 11019 2c58 02       		.uleb128 0x2
 11020 2c59 75       		.byte	0x75
 11021 2c5a 00       		.sleb128 0
 11022 2c5b 1F       		.uleb128 0x1f
 11023 2c5c 02       		.uleb128 0x2
 11024 2c5d 7D       		.byte	0x7d
 11025 2c5e 00       		.sleb128 0
 11026 2c5f 02       		.uleb128 0x2
 11027 2c60 78       		.byte	0x78
 11028 2c61 00       		.sleb128 0
 11029 2c62 00       		.byte	0
 11030 2c63 1E       		.uleb128 0x1e
 11031 2c64 52050000 		.4byte	.LVL484
 11032 2c68 22350000 		.4byte	0x3522
 11033 2c6c 7A2C0000 		.4byte	0x2c7a
 11034 2c70 1F       		.uleb128 0x1f
 11035 2c71 01       		.uleb128 0x1
 11036 2c72 50       		.byte	0x50
 11037 2c73 05       		.uleb128 0x5
 11038 2c74 03       		.byte	0x3
 11039 2c75 F4050000 		.4byte	.LC209
 11040 2c79 00       		.byte	0
 11041 2c7a 20       		.uleb128 0x20
 11042 2c7b 62050000 		.4byte	.LVL486
 11043 2c7f 261C0000 		.4byte	0x1c26
 11044 2c83 1E       		.uleb128 0x1e
 11045 2c84 6A050000 		.4byte	.LVL488
 11046 2c88 22350000 		.4byte	0x3522
 11047 2c8c 9A2C0000 		.4byte	0x2c9a
 11048 2c90 1F       		.uleb128 0x1f
 11049 2c91 01       		.uleb128 0x1
 11050 2c92 50       		.byte	0x50
 11051 2c93 05       		.uleb128 0x5
 11052 2c94 03       		.byte	0x3
 11053 2c95 08060000 		.4byte	.LC211
 11054 2c99 00       		.byte	0
 11055 2c9a 20       		.uleb128 0x20
 11056 2c9b 86050000 		.4byte	.LVL490
ARM GAS  C:\Users\Helon\AppData\Local\Temp\cckZyeCc.s 			page 247


 11057 2c9f 37390000 		.4byte	0x3937
 11058 2ca3 1E       		.uleb128 0x1e
 11059 2ca4 94050000 		.4byte	.LVL493
 11060 2ca8 8A350000 		.4byte	0x358a
 11061 2cac C02C0000 		.4byte	0x2cc0
 11062 2cb0 1F       		.uleb128 0x1f
 11063 2cb1 01       		.uleb128 0x1
 11064 2cb2 51       		.byte	0x51
 11065 2cb3 02       		.uleb128 0x2
 11066 2cb4 74       		.byte	0x74
 11067 2cb5 50       		.sleb128 -48
 11068 2cb6 1F       		.uleb128 0x1f
 11069 2cb7 01       		.uleb128 0x1
 11070 2cb8 50       		.byte	0x50
 11071 2cb9 05       		.uleb128 0x5
 11072 2cba 03       		.byte	0x3
 11073 2cbb 78000000 		.4byte	.LC21
 11074 2cbf 00       		.byte	0
 11075 2cc0 20       		.uleb128 0x20
 11076 2cc1 F2050000 		.4byte	.LVL506
 11077 2cc5 4D390000 		.4byte	0x394d
 11078 2cc9 1E       		.uleb128 0x1e
 11079 2cca FA050000 		.4byte	.LVL507
 11080 2cce 8A350000 		.4byte	0x358a
 11081 2cd2 E02C0000 		.4byte	0x2ce0
 11082 2cd6 1F       		.uleb128 0x1f
 11083 2cd7 01       		.uleb128 0x1
 11084 2cd8 50       		.byte	0x50
 11085 2cd9 05       		.uleb128 0x5
 11086 2cda 03       		.byte	0x3
 11087 2cdb 1C060000 		.4byte	.LC215
 11088 2cdf 00       		.byte	0
 11089 2ce0 1E       		.uleb128 0x1e
 11090 2ce1 1A060000 		.4byte	.LVL510
 11091 2ce5 22350000 		.4byte	0x3522
 11092 2ce9 F72C0000 		.4byte	0x2cf7
 11093 2ced 1F       		.uleb128 0x1f
 11094 2cee 01       		.uleb128 0x1
 11095 2cef 50       		.byte	0x50
 11096 2cf0 05       		.uleb128 0x5
 11097 2cf1 03       		.byte	0x3
 11098 2cf2 2C060000 		.4byte	.LC217
 11099 2cf6 00       		.byte	0
 11100 2cf7 20       		.uleb128 0x20
 11101 2cf8 1E060000 		.4byte	.LVL511
 11102 2cfc 11360000 		.4byte	0x3611
 11103 2d00 1E       		.uleb128 0x1e
 11104 2d01 2A060000 		.4byte	.LVL513
 11105 2d05 8A350000 		.4byte	0x358a
 11106 2d09 172D0000 		.4byte	0x2d17
 11107 2d0d 1F       		.uleb128 0x1f
 11108 2d0e 01       		.uleb128 0x1
 11109 2d0f 50       		.byte	0x50
 11110 2d10 05       		.uleb128 0x5
 11111 2d11 03       		.byte	0x3
 11112 2d12 38060000 		.4byte	.LC219
 11113 2d16 00       		.byte	0
ARM GAS  C:\Users\Helon\AppData\Local\Temp\cckZyeCc.s 			page 248


 11114 2d17 1E       		.uleb128 0x1e
 11115 2d18 66060000 		.4byte	.LVL517
 11116 2d1c C1350000 		.4byte	0x35c1
 11117 2d20 2E2D0000 		.4byte	0x2d2e
 11118 2d24 1F       		.uleb128 0x1f
 11119 2d25 01       		.uleb128 0x1
 11120 2d26 51       		.byte	0x51
 11121 2d27 05       		.uleb128 0x5
 11122 2d28 03       		.byte	0x3
 11123 2d29 00000000 		.4byte	writeRequestData
 11124 2d2d 00       		.byte	0
 11125 2d2e 1E       		.uleb128 0x1e
 11126 2d2f 78060000 		.4byte	.LVL519
 11127 2d33 22350000 		.4byte	0x3522
 11128 2d37 452D0000 		.4byte	0x2d45
 11129 2d3b 1F       		.uleb128 0x1f
 11130 2d3c 01       		.uleb128 0x1
 11131 2d3d 50       		.byte	0x50
 11132 2d3e 05       		.uleb128 0x5
 11133 2d3f 03       		.byte	0x3
 11134 2d40 98000000 		.4byte	.LC25
 11135 2d44 00       		.byte	0
 11136 2d45 1E       		.uleb128 0x1e
 11137 2d46 80060000 		.4byte	.LVL521
 11138 2d4a 22350000 		.4byte	0x3522
 11139 2d4e 5C2D0000 		.4byte	0x2d5c
 11140 2d52 1F       		.uleb128 0x1f
 11141 2d53 01       		.uleb128 0x1
 11142 2d54 50       		.byte	0x50
 11143 2d55 05       		.uleb128 0x5
 11144 2d56 03       		.byte	0x3
 11145 2d57 B0000000 		.4byte	.LC27
 11146 2d5b 00       		.byte	0
 11147 2d5c 1E       		.uleb128 0x1e
 11148 2d5d A4060000 		.4byte	.LVL524
 11149 2d61 22350000 		.4byte	0x3522
 11150 2d65 732D0000 		.4byte	0x2d73
 11151 2d69 1F       		.uleb128 0x1f
 11152 2d6a 01       		.uleb128 0x1
 11153 2d6b 50       		.byte	0x50
 11154 2d6c 05       		.uleb128 0x5
 11155 2d6d 03       		.byte	0x3
 11156 2d6e 98000000 		.4byte	.LC25
 11157 2d72 00       		.byte	0
 11158 2d73 1E       		.uleb128 0x1e
 11159 2d74 AC060000 		.4byte	.LVL526
 11160 2d78 22350000 		.4byte	0x3522
 11161 2d7c 8A2D0000 		.4byte	0x2d8a
 11162 2d80 1F       		.uleb128 0x1f
 11163 2d81 01       		.uleb128 0x1
 11164 2d82 50       		.byte	0x50
 11165 2d83 05       		.uleb128 0x5
 11166 2d84 03       		.byte	0x3
 11167 2d85 B0000000 		.4byte	.LC27
 11168 2d89 00       		.byte	0
 11169 2d8a 1E       		.uleb128 0x1e
 11170 2d8b B4060000 		.4byte	.LVL528
ARM GAS  C:\Users\Helon\AppData\Local\Temp\cckZyeCc.s 			page 249


 11171 2d8f 22350000 		.4byte	0x3522
 11172 2d93 A12D0000 		.4byte	0x2da1
 11173 2d97 1F       		.uleb128 0x1f
 11174 2d98 01       		.uleb128 0x1
 11175 2d99 50       		.byte	0x50
 11176 2d9a 05       		.uleb128 0x5
 11177 2d9b 03       		.byte	0x3
 11178 2d9c 40060000 		.4byte	.LC224
 11179 2da0 00       		.byte	0
 11180 2da1 1E       		.uleb128 0x1e
 11181 2da2 D6060000 		.4byte	.LVL534
 11182 2da6 22350000 		.4byte	0x3522
 11183 2daa B82D0000 		.4byte	0x2db8
 11184 2dae 1F       		.uleb128 0x1f
 11185 2daf 01       		.uleb128 0x1
 11186 2db0 50       		.byte	0x50
 11187 2db1 05       		.uleb128 0x5
 11188 2db2 03       		.byte	0x3
 11189 2db3 54060000 		.4byte	.LC227
 11190 2db7 00       		.byte	0
 11191 2db8 1E       		.uleb128 0x1e
 11192 2db9 DE060000 		.4byte	.LVL536
 11193 2dbd 22350000 		.4byte	0x3522
 11194 2dc1 CF2D0000 		.4byte	0x2dcf
 11195 2dc5 1F       		.uleb128 0x1f
 11196 2dc6 01       		.uleb128 0x1
 11197 2dc7 50       		.byte	0x50
 11198 2dc8 05       		.uleb128 0x5
 11199 2dc9 03       		.byte	0x3
 11200 2dca 6C060000 		.4byte	.LC229
 11201 2dce 00       		.byte	0
 11202 2dcf 1E       		.uleb128 0x1e
 11203 2dd0 E6060000 		.4byte	.LVL538
 11204 2dd4 22350000 		.4byte	0x3522
 11205 2dd8 E62D0000 		.4byte	0x2de6
 11206 2ddc 1F       		.uleb128 0x1f
 11207 2ddd 01       		.uleb128 0x1
 11208 2dde 50       		.byte	0x50
 11209 2ddf 05       		.uleb128 0x5
 11210 2de0 03       		.byte	0x3
 11211 2de1 8C060000 		.4byte	.LC231
 11212 2de5 00       		.byte	0
 11213 2de6 1E       		.uleb128 0x1e
 11214 2de7 EE060000 		.4byte	.LVL540
 11215 2deb 22350000 		.4byte	0x3522
 11216 2def FD2D0000 		.4byte	0x2dfd
 11217 2df3 1F       		.uleb128 0x1f
 11218 2df4 01       		.uleb128 0x1
 11219 2df5 50       		.byte	0x50
 11220 2df6 05       		.uleb128 0x5
 11221 2df7 03       		.byte	0x3
 11222 2df8 A8060000 		.4byte	.LC233
 11223 2dfc 00       		.byte	0
 11224 2dfd 1E       		.uleb128 0x1e
 11225 2dfe F6060000 		.4byte	.LVL542
 11226 2e02 22350000 		.4byte	0x3522
 11227 2e06 142E0000 		.4byte	0x2e14
ARM GAS  C:\Users\Helon\AppData\Local\Temp\cckZyeCc.s 			page 250


 11228 2e0a 1F       		.uleb128 0x1f
 11229 2e0b 01       		.uleb128 0x1
 11230 2e0c 50       		.byte	0x50
 11231 2e0d 05       		.uleb128 0x5
 11232 2e0e 03       		.byte	0x3
 11233 2e0f C4060000 		.4byte	.LC235
 11234 2e13 00       		.byte	0
 11235 2e14 1E       		.uleb128 0x1e
 11236 2e15 FE060000 		.4byte	.LVL544
 11237 2e19 22350000 		.4byte	0x3522
 11238 2e1d 2B2E0000 		.4byte	0x2e2b
 11239 2e21 1F       		.uleb128 0x1f
 11240 2e22 01       		.uleb128 0x1
 11241 2e23 50       		.byte	0x50
 11242 2e24 05       		.uleb128 0x5
 11243 2e25 03       		.byte	0x3
 11244 2e26 E0060000 		.4byte	.LC237
 11245 2e2a 00       		.byte	0
 11246 2e2b 1E       		.uleb128 0x1e
 11247 2e2c 06070000 		.4byte	.LVL546
 11248 2e30 22350000 		.4byte	0x3522
 11249 2e34 422E0000 		.4byte	0x2e42
 11250 2e38 1F       		.uleb128 0x1f
 11251 2e39 01       		.uleb128 0x1
 11252 2e3a 50       		.byte	0x50
 11253 2e3b 05       		.uleb128 0x5
 11254 2e3c 03       		.byte	0x3
 11255 2e3d FC060000 		.4byte	.LC239
 11256 2e41 00       		.byte	0
 11257 2e42 1E       		.uleb128 0x1e
 11258 2e43 20070000 		.4byte	.LVL549
 11259 2e47 4C360000 		.4byte	0x364c
 11260 2e4b 562E0000 		.4byte	0x2e56
 11261 2e4f 1F       		.uleb128 0x1f
 11262 2e50 01       		.uleb128 0x1
 11263 2e51 50       		.byte	0x50
 11264 2e52 02       		.uleb128 0x2
 11265 2e53 74       		.byte	0x74
 11266 2e54 00       		.sleb128 0
 11267 2e55 00       		.byte	0
 11268 2e56 1E       		.uleb128 0x1e
 11269 2e57 2C070000 		.4byte	.LVL551
 11270 2e5b 22350000 		.4byte	0x3522
 11271 2e5f 6D2E0000 		.4byte	0x2e6d
 11272 2e63 1F       		.uleb128 0x1f
 11273 2e64 01       		.uleb128 0x1
 11274 2e65 50       		.byte	0x50
 11275 2e66 05       		.uleb128 0x5
 11276 2e67 03       		.byte	0x3
 11277 2e68 1C070000 		.4byte	.LC241
 11278 2e6c 00       		.byte	0
 11279 2e6d 1E       		.uleb128 0x1e
 11280 2e6e 34070000 		.4byte	.LVL553
 11281 2e72 22350000 		.4byte	0x3522
 11282 2e76 842E0000 		.4byte	0x2e84
 11283 2e7a 1F       		.uleb128 0x1f
 11284 2e7b 01       		.uleb128 0x1
ARM GAS  C:\Users\Helon\AppData\Local\Temp\cckZyeCc.s 			page 251


 11285 2e7c 50       		.byte	0x50
 11286 2e7d 05       		.uleb128 0x5
 11287 2e7e 03       		.byte	0x3
 11288 2e7f 1C070000 		.4byte	.LC241
 11289 2e83 00       		.byte	0
 11290 2e84 20       		.uleb128 0x20
 11291 2e85 44070000 		.4byte	.LVL555
 11292 2e89 C0380000 		.4byte	0x38c0
 11293 2e8d 1E       		.uleb128 0x1e
 11294 2e8e 4A070000 		.4byte	.LVL556
 11295 2e92 22350000 		.4byte	0x3522
 11296 2e96 A42E0000 		.4byte	0x2ea4
 11297 2e9a 1F       		.uleb128 0x1f
 11298 2e9b 01       		.uleb128 0x1
 11299 2e9c 50       		.byte	0x50
 11300 2e9d 05       		.uleb128 0x5
 11301 2e9e 03       		.byte	0x3
 11302 2e9f 2C070000 		.4byte	.LC243
 11303 2ea3 00       		.byte	0
 11304 2ea4 1E       		.uleb128 0x1e
 11305 2ea5 52070000 		.4byte	.LVL558
 11306 2ea9 22350000 		.4byte	0x3522
 11307 2ead BB2E0000 		.4byte	0x2ebb
 11308 2eb1 1F       		.uleb128 0x1f
 11309 2eb2 01       		.uleb128 0x1
 11310 2eb3 50       		.byte	0x50
 11311 2eb4 05       		.uleb128 0x5
 11312 2eb5 03       		.byte	0x3
 11313 2eb6 2C070000 		.4byte	.LC243
 11314 2eba 00       		.byte	0
 11315 2ebb 1E       		.uleb128 0x1e
 11316 2ebc DA070000 		.4byte	.LVL560
 11317 2ec0 22350000 		.4byte	0x3522
 11318 2ec4 D22E0000 		.4byte	0x2ed2
 11319 2ec8 1F       		.uleb128 0x1f
 11320 2ec9 01       		.uleb128 0x1
 11321 2eca 50       		.byte	0x50
 11322 2ecb 05       		.uleb128 0x5
 11323 2ecc 03       		.byte	0x3
 11324 2ecd 3C070000 		.4byte	.LC245
 11325 2ed1 00       		.byte	0
 11326 2ed2 1E       		.uleb128 0x1e
 11327 2ed3 F4070000 		.4byte	.LVL565
 11328 2ed7 59390000 		.4byte	0x3959
 11329 2edb E62E0000 		.4byte	0x2ee6
 11330 2edf 1F       		.uleb128 0x1f
 11331 2ee0 01       		.uleb128 0x1
 11332 2ee1 50       		.byte	0x50
 11333 2ee2 02       		.uleb128 0x2
 11334 2ee3 74       		.byte	0x74
 11335 2ee4 00       		.sleb128 0
 11336 2ee5 00       		.byte	0
 11337 2ee6 1E       		.uleb128 0x1e
 11338 2ee7 FE070000 		.4byte	.LVL567
 11339 2eeb 22350000 		.4byte	0x3522
 11340 2eef FD2E0000 		.4byte	0x2efd
 11341 2ef3 1F       		.uleb128 0x1f
ARM GAS  C:\Users\Helon\AppData\Local\Temp\cckZyeCc.s 			page 252


 11342 2ef4 01       		.uleb128 0x1
 11343 2ef5 50       		.byte	0x50
 11344 2ef6 05       		.uleb128 0x5
 11345 2ef7 03       		.byte	0x3
 11346 2ef8 4C070000 		.4byte	.LC248
 11347 2efc 00       		.byte	0
 11348 2efd 1E       		.uleb128 0x1e
 11349 2efe 0C080000 		.4byte	.LVL569
 11350 2f02 59390000 		.4byte	0x3959
 11351 2f06 102F0000 		.4byte	0x2f10
 11352 2f0a 1F       		.uleb128 0x1f
 11353 2f0b 01       		.uleb128 0x1
 11354 2f0c 50       		.byte	0x50
 11355 2f0d 01       		.uleb128 0x1
 11356 2f0e 31       		.byte	0x31
 11357 2f0f 00       		.byte	0
 11358 2f10 1E       		.uleb128 0x1e
 11359 2f11 16080000 		.4byte	.LVL571
 11360 2f15 22350000 		.4byte	0x3522
 11361 2f19 272F0000 		.4byte	0x2f27
 11362 2f1d 1F       		.uleb128 0x1f
 11363 2f1e 01       		.uleb128 0x1
 11364 2f1f 50       		.byte	0x50
 11365 2f20 05       		.uleb128 0x5
 11366 2f21 03       		.byte	0x3
 11367 2f22 64070000 		.4byte	.LC251
 11368 2f26 00       		.byte	0
 11369 2f27 1E       		.uleb128 0x1e
 11370 2f28 24080000 		.4byte	.LVL573
 11371 2f2c 59390000 		.4byte	0x3959
 11372 2f30 3A2F0000 		.4byte	0x2f3a
 11373 2f34 1F       		.uleb128 0x1f
 11374 2f35 01       		.uleb128 0x1
 11375 2f36 50       		.byte	0x50
 11376 2f37 01       		.uleb128 0x1
 11377 2f38 32       		.byte	0x32
 11378 2f39 00       		.byte	0
 11379 2f3a 1E       		.uleb128 0x1e
 11380 2f3b 2E080000 		.4byte	.LVL575
 11381 2f3f 22350000 		.4byte	0x3522
 11382 2f43 512F0000 		.4byte	0x2f51
 11383 2f47 1F       		.uleb128 0x1f
 11384 2f48 01       		.uleb128 0x1
 11385 2f49 50       		.byte	0x50
 11386 2f4a 05       		.uleb128 0x5
 11387 2f4b 03       		.byte	0x3
 11388 2f4c 7C070000 		.4byte	.LC253
 11389 2f50 00       		.byte	0
 11390 2f51 1E       		.uleb128 0x1e
 11391 2f52 3C080000 		.4byte	.LVL577
 11392 2f56 59390000 		.4byte	0x3959
 11393 2f5a 642F0000 		.4byte	0x2f64
 11394 2f5e 1F       		.uleb128 0x1f
 11395 2f5f 01       		.uleb128 0x1
 11396 2f60 50       		.byte	0x50
 11397 2f61 01       		.uleb128 0x1
 11398 2f62 33       		.byte	0x33
ARM GAS  C:\Users\Helon\AppData\Local\Temp\cckZyeCc.s 			page 253


 11399 2f63 00       		.byte	0
 11400 2f64 1E       		.uleb128 0x1e
 11401 2f65 46080000 		.4byte	.LVL579
 11402 2f69 22350000 		.4byte	0x3522
 11403 2f6d 7B2F0000 		.4byte	0x2f7b
 11404 2f71 1F       		.uleb128 0x1f
 11405 2f72 01       		.uleb128 0x1
 11406 2f73 50       		.byte	0x50
 11407 2f74 05       		.uleb128 0x5
 11408 2f75 03       		.byte	0x3
 11409 2f76 94070000 		.4byte	.LC255
 11410 2f7a 00       		.byte	0
 11411 2f7b 1E       		.uleb128 0x1e
 11412 2f7c 54080000 		.4byte	.LVL581
 11413 2f80 59390000 		.4byte	0x3959
 11414 2f84 8E2F0000 		.4byte	0x2f8e
 11415 2f88 1F       		.uleb128 0x1f
 11416 2f89 01       		.uleb128 0x1
 11417 2f8a 50       		.byte	0x50
 11418 2f8b 01       		.uleb128 0x1
 11419 2f8c 34       		.byte	0x34
 11420 2f8d 00       		.byte	0
 11421 2f8e 1E       		.uleb128 0x1e
 11422 2f8f 5E080000 		.4byte	.LVL583
 11423 2f93 22350000 		.4byte	0x3522
 11424 2f97 A52F0000 		.4byte	0x2fa5
 11425 2f9b 1F       		.uleb128 0x1f
 11426 2f9c 01       		.uleb128 0x1
 11427 2f9d 50       		.byte	0x50
 11428 2f9e 05       		.uleb128 0x5
 11429 2f9f 03       		.byte	0x3
 11430 2fa0 B0070000 		.4byte	.LC257
 11431 2fa4 00       		.byte	0
 11432 2fa5 1E       		.uleb128 0x1e
 11433 2fa6 7C080000 		.4byte	.LVL585
 11434 2faa 22350000 		.4byte	0x3522
 11435 2fae BC2F0000 		.4byte	0x2fbc
 11436 2fb2 1F       		.uleb128 0x1f
 11437 2fb3 01       		.uleb128 0x1
 11438 2fb4 50       		.byte	0x50
 11439 2fb5 05       		.uleb128 0x5
 11440 2fb6 03       		.byte	0x3
 11441 2fb7 4C070000 		.4byte	.LC248
 11442 2fbb 00       		.byte	0
 11443 2fbc 1E       		.uleb128 0x1e
 11444 2fbd 84080000 		.4byte	.LVL587
 11445 2fc1 22350000 		.4byte	0x3522
 11446 2fc5 D32F0000 		.4byte	0x2fd3
 11447 2fc9 1F       		.uleb128 0x1f
 11448 2fca 01       		.uleb128 0x1
 11449 2fcb 50       		.byte	0x50
 11450 2fcc 05       		.uleb128 0x5
 11451 2fcd 03       		.byte	0x3
 11452 2fce 64070000 		.4byte	.LC251
 11453 2fd2 00       		.byte	0
 11454 2fd3 1E       		.uleb128 0x1e
 11455 2fd4 8C080000 		.4byte	.LVL589
ARM GAS  C:\Users\Helon\AppData\Local\Temp\cckZyeCc.s 			page 254


 11456 2fd8 22350000 		.4byte	0x3522
 11457 2fdc EA2F0000 		.4byte	0x2fea
 11458 2fe0 1F       		.uleb128 0x1f
 11459 2fe1 01       		.uleb128 0x1
 11460 2fe2 50       		.byte	0x50
 11461 2fe3 05       		.uleb128 0x5
 11462 2fe4 03       		.byte	0x3
 11463 2fe5 7C070000 		.4byte	.LC253
 11464 2fe9 00       		.byte	0
 11465 2fea 1E       		.uleb128 0x1e
 11466 2feb 94080000 		.4byte	.LVL591
 11467 2fef 22350000 		.4byte	0x3522
 11468 2ff3 01300000 		.4byte	0x3001
 11469 2ff7 1F       		.uleb128 0x1f
 11470 2ff8 01       		.uleb128 0x1
 11471 2ff9 50       		.byte	0x50
 11472 2ffa 05       		.uleb128 0x5
 11473 2ffb 03       		.byte	0x3
 11474 2ffc 94070000 		.4byte	.LC255
 11475 3000 00       		.byte	0
 11476 3001 1E       		.uleb128 0x1e
 11477 3002 9C080000 		.4byte	.LVL593
 11478 3006 22350000 		.4byte	0x3522
 11479 300a 18300000 		.4byte	0x3018
 11480 300e 1F       		.uleb128 0x1f
 11481 300f 01       		.uleb128 0x1
 11482 3010 50       		.byte	0x50
 11483 3011 05       		.uleb128 0x5
 11484 3012 03       		.byte	0x3
 11485 3013 B0070000 		.4byte	.LC257
 11486 3017 00       		.byte	0
 11487 3018 20       		.uleb128 0x20
 11488 3019 A8080000 		.4byte	.LVL595
 11489 301d 6F390000 		.4byte	0x396f
 11490 3021 00       		.byte	0
 11491 3022 10       		.uleb128 0x10
 11492 3023 13010000 		.4byte	0x113
 11493 3027 32300000 		.4byte	0x3032
 11494 302b 11       		.uleb128 0x11
 11495 302c 54010000 		.4byte	0x154
 11496 3030 1A       		.byte	0x1a
 11497 3031 00       		.byte	0
 11498 3032 10       		.uleb128 0x10
 11499 3033 1E010000 		.4byte	0x11e
 11500 3037 42300000 		.4byte	0x3042
 11501 303b 11       		.uleb128 0x11
 11502 303c 54010000 		.4byte	0x154
 11503 3040 1E       		.byte	0x1e
 11504 3041 00       		.byte	0
 11505 3042 10       		.uleb128 0x10
 11506 3043 1E010000 		.4byte	0x11e
 11507 3047 52300000 		.4byte	0x3052
 11508 304b 11       		.uleb128 0x11
 11509 304c 54010000 		.4byte	0x154
 11510 3050 3D       		.byte	0x3d
 11511 3051 00       		.byte	0
 11512 3052 10       		.uleb128 0x10
ARM GAS  C:\Users\Helon\AppData\Local\Temp\cckZyeCc.s 			page 255


 11513 3053 1E010000 		.4byte	0x11e
 11514 3057 62300000 		.4byte	0x3062
 11515 305b 11       		.uleb128 0x11
 11516 305c 54010000 		.4byte	0x154
 11517 3060 01       		.byte	0x1
 11518 3061 00       		.byte	0
 11519 3062 21       		.uleb128 0x21
 11520 3063 8F070000 		.4byte	.LASF631
 11521 3067 01       		.byte	0x1
 11522 3068 DA05     		.2byte	0x5da
 11523 306a 00000000 		.4byte	.LFB48
 11524 306e 34020000 		.4byte	.LFE48-.LFB48
 11525 3072 01       		.uleb128 0x1
 11526 3073 9C       		.byte	0x9c
 11527 3074 2B320000 		.4byte	0x322b
 11528 3078 28       		.uleb128 0x28
 11529 3079 921F0000 		.4byte	.LASF632
 11530 307d 01       		.byte	0x1
 11531 307e DA05     		.2byte	0x5da
 11532 3080 AD000000 		.4byte	0xad
 11533 3084 38110000 		.4byte	.LLST38
 11534 3088 24       		.uleb128 0x24
 11535 3089 3B1D0000 		.4byte	.LASF633
 11536 308d 01       		.byte	0x1
 11537 308e DC05     		.2byte	0x5dc
 11538 3090 AD000000 		.4byte	0xad
 11539 3094 59110000 		.4byte	.LLST39
 11540 3098 24       		.uleb128 0x24
 11541 3099 F01B0000 		.4byte	.LASF634
 11542 309d 01       		.byte	0x1
 11543 309e DD05     		.2byte	0x5dd
 11544 30a0 D9000000 		.4byte	0xd9
 11545 30a4 90110000 		.4byte	.LLST40
 11546 30a8 2F       		.uleb128 0x2f
 11547 30a9 3E320000 		.4byte	0x323e
 11548 30ad BA110000 		.4byte	.LLST41
 11549 30b1 24       		.uleb128 0x24
 11550 30b2 39220000 		.4byte	.LASF635
 11551 30b6 01       		.byte	0x1
 11552 30b7 DE05     		.2byte	0x5de
 11553 30b9 2B320000 		.4byte	0x322b
 11554 30bd F4110000 		.4byte	.LLST42
 11555 30c1 24       		.uleb128 0x24
 11556 30c2 DD390000 		.4byte	.LASF604
 11557 30c6 01       		.byte	0x1
 11558 30c7 DF05     		.2byte	0x5df
 11559 30c9 AA030000 		.4byte	0x3aa
 11560 30cd 2C120000 		.4byte	.LLST43
 11561 30d1 24       		.uleb128 0x24
 11562 30d2 16320000 		.4byte	.LASF636
 11563 30d6 01       		.byte	0x1
 11564 30d7 E005     		.2byte	0x5e0
 11565 30d9 C3000000 		.4byte	0xc3
 11566 30dd 6E120000 		.4byte	.LLST44
 11567 30e1 23       		.uleb128 0x23
 11568 30e2 A02A0000 		.4byte	.LASF637
 11569 30e6 01       		.byte	0x1
ARM GAS  C:\Users\Helon\AppData\Local\Temp\cckZyeCc.s 			page 256


 11570 30e7 E105     		.2byte	0x5e1
 11571 30e9 E4000000 		.4byte	0xe4
 11572 30ed 05       		.uleb128 0x5
 11573 30ee 03       		.byte	0x3
 11574 30ef 86000000 		.4byte	uartIdleCount.7932
 11575 30f3 23       		.uleb128 0x23
 11576 30f4 072E0000 		.4byte	.LASF638
 11577 30f8 01       		.byte	0x1
 11578 30f9 E305     		.2byte	0x5e3
 11579 30fb E8090000 		.4byte	0x9e8
 11580 30ff 02       		.uleb128 0x2
 11581 3100 91       		.byte	0x91
 11582 3101 5C       		.sleb128 -36
 11583 3102 20       		.uleb128 0x20
 11584 3103 24000000 		.4byte	.LVL602
 11585 3107 8A390000 		.4byte	0x398a
 11586 310b 1E       		.uleb128 0x1e
 11587 310c 3C000000 		.4byte	.LVL604
 11588 3110 01370000 		.4byte	0x3701
 11589 3114 1E310000 		.4byte	0x311e
 11590 3118 1F       		.uleb128 0x1f
 11591 3119 01       		.uleb128 0x1
 11592 311a 50       		.byte	0x50
 11593 311b 01       		.uleb128 0x1
 11594 311c 30       		.byte	0x30
 11595 311d 00       		.byte	0
 11596 311e 1E       		.uleb128 0x1e
 11597 311f 4E000000 		.4byte	.LVL605
 11598 3123 01370000 		.4byte	0x3701
 11599 3127 31310000 		.4byte	0x3131
 11600 312b 1F       		.uleb128 0x1f
 11601 312c 01       		.uleb128 0x1
 11602 312d 50       		.byte	0x50
 11603 312e 01       		.uleb128 0x1
 11604 312f 31       		.byte	0x31
 11605 3130 00       		.byte	0
 11606 3131 20       		.uleb128 0x20
 11607 3132 90000000 		.4byte	.LVL611
 11608 3136 96390000 		.4byte	0x3996
 11609 313a 1E       		.uleb128 0x1e
 11610 313b A6000000 		.4byte	.LVL613
 11611 313f A2390000 		.4byte	0x39a2
 11612 3143 5C310000 		.4byte	0x315c
 11613 3147 1F       		.uleb128 0x1f
 11614 3148 01       		.uleb128 0x1
 11615 3149 52       		.byte	0x52
 11616 314a 01       		.uleb128 0x1
 11617 314b 3B       		.byte	0x3b
 11618 314c 1F       		.uleb128 0x1f
 11619 314d 01       		.uleb128 0x1
 11620 314e 51       		.byte	0x51
 11621 314f 02       		.uleb128 0x2
 11622 3150 76       		.byte	0x76
 11623 3151 00       		.sleb128 0
 11624 3152 1F       		.uleb128 0x1f
 11625 3153 01       		.uleb128 0x1
 11626 3154 50       		.byte	0x50
ARM GAS  C:\Users\Helon\AppData\Local\Temp\cckZyeCc.s 			page 257


 11627 3155 05       		.uleb128 0x5
 11628 3156 03       		.byte	0x3
 11629 3157 DC070000 		.4byte	.LC265
 11630 315b 00       		.byte	0
 11631 315c 1E       		.uleb128 0x1e
 11632 315d C8000000 		.4byte	.LVL614
 11633 3161 C1350000 		.4byte	0x35c1
 11634 3165 73310000 		.4byte	0x3173
 11635 3169 1F       		.uleb128 0x1f
 11636 316a 01       		.uleb128 0x1
 11637 316b 51       		.byte	0x51
 11638 316c 05       		.uleb128 0x5
 11639 316d 03       		.byte	0x3
 11640 316e 00000000 		.4byte	writeRequestData
 11641 3172 00       		.byte	0
 11642 3173 1E       		.uleb128 0x1e
 11643 3174 F6000000 		.4byte	.LVL616
 11644 3178 22350000 		.4byte	0x3522
 11645 317c 8A310000 		.4byte	0x318a
 11646 3180 1F       		.uleb128 0x1f
 11647 3181 01       		.uleb128 0x1
 11648 3182 50       		.byte	0x50
 11649 3183 05       		.uleb128 0x5
 11650 3184 03       		.byte	0x3
 11651 3185 B0000000 		.4byte	.LC27
 11652 3189 00       		.byte	0
 11653 318a 1E       		.uleb128 0x1e
 11654 318b 20010000 		.4byte	.LVL618
 11655 318f 22350000 		.4byte	0x3522
 11656 3193 A1310000 		.4byte	0x31a1
 11657 3197 1F       		.uleb128 0x1f
 11658 3198 01       		.uleb128 0x1
 11659 3199 50       		.byte	0x50
 11660 319a 05       		.uleb128 0x5
 11661 319b 03       		.byte	0x3
 11662 319c B0000000 		.4byte	.LC27
 11663 31a0 00       		.byte	0
 11664 31a1 1E       		.uleb128 0x1e
 11665 31a2 2C010000 		.4byte	.LVL619
 11666 31a6 A2390000 		.4byte	0x39a2
 11667 31aa C3310000 		.4byte	0x31c3
 11668 31ae 1F       		.uleb128 0x1f
 11669 31af 01       		.uleb128 0x1
 11670 31b0 52       		.byte	0x52
 11671 31b1 01       		.uleb128 0x1
 11672 31b2 3B       		.byte	0x3b
 11673 31b3 1F       		.uleb128 0x1f
 11674 31b4 01       		.uleb128 0x1
 11675 31b5 51       		.byte	0x51
 11676 31b6 02       		.uleb128 0x2
 11677 31b7 76       		.byte	0x76
 11678 31b8 00       		.sleb128 0
 11679 31b9 1F       		.uleb128 0x1f
 11680 31ba 01       		.uleb128 0x1
 11681 31bb 50       		.byte	0x50
 11682 31bc 05       		.uleb128 0x5
 11683 31bd 03       		.byte	0x3
ARM GAS  C:\Users\Helon\AppData\Local\Temp\cckZyeCc.s 			page 258


 11684 31be E8070000 		.4byte	.LC270
 11685 31c2 00       		.byte	0
 11686 31c3 1E       		.uleb128 0x1e
 11687 31c4 56010000 		.4byte	.LVL620
 11688 31c8 22350000 		.4byte	0x3522
 11689 31cc DA310000 		.4byte	0x31da
 11690 31d0 1F       		.uleb128 0x1f
 11691 31d1 01       		.uleb128 0x1
 11692 31d2 50       		.byte	0x50
 11693 31d3 05       		.uleb128 0x5
 11694 31d4 03       		.byte	0x3
 11695 31d5 98000000 		.4byte	.LC25
 11696 31d9 00       		.byte	0
 11697 31da 1E       		.uleb128 0x1e
 11698 31db 78010000 		.4byte	.LVL622
 11699 31df F1370000 		.4byte	0x37f1
 11700 31e3 EE310000 		.4byte	0x31ee
 11701 31e7 1F       		.uleb128 0x1f
 11702 31e8 01       		.uleb128 0x1
 11703 31e9 51       		.byte	0x51
 11704 31ea 02       		.uleb128 0x2
 11705 31eb 77       		.byte	0x77
 11706 31ec 24       		.sleb128 36
 11707 31ed 00       		.byte	0
 11708 31ee 20       		.uleb128 0x20
 11709 31ef 7E010000 		.4byte	.LVL624
 11710 31f3 C1390000 		.4byte	0x39c1
 11711 31f7 1E       		.uleb128 0x1e
 11712 31f8 9E010000 		.4byte	.LVL626
 11713 31fc B11B0000 		.4byte	0x1bb1
 11714 3200 11320000 		.4byte	0x3211
 11715 3204 1F       		.uleb128 0x1f
 11716 3205 01       		.uleb128 0x1
 11717 3206 51       		.byte	0x51
 11718 3207 02       		.uleb128 0x2
 11719 3208 75       		.byte	0x75
 11720 3209 00       		.sleb128 0
 11721 320a 1F       		.uleb128 0x1f
 11722 320b 01       		.uleb128 0x1
 11723 320c 50       		.byte	0x50
 11724 320d 02       		.uleb128 0x2
 11725 320e 76       		.byte	0x76
 11726 320f 00       		.sleb128 0
 11727 3210 00       		.byte	0
 11728 3211 20       		.uleb128 0x20
 11729 3212 A8010000 		.4byte	.LVL628
 11730 3216 96390000 		.4byte	0x3996
 11731 321a 22       		.uleb128 0x22
 11732 321b D2010000 		.4byte	.LVL633
 11733 321f 3E250000 		.4byte	0x253e
 11734 3223 1F       		.uleb128 0x1f
 11735 3224 01       		.uleb128 0x1
 11736 3225 50       		.byte	0x50
 11737 3226 02       		.uleb128 0x2
 11738 3227 74       		.byte	0x74
 11739 3228 00       		.sleb128 0
 11740 3229 00       		.byte	0
ARM GAS  C:\Users\Helon\AppData\Local\Temp\cckZyeCc.s 			page 259


 11741 322a 00       		.byte	0
 11742 322b 10       		.uleb128 0x10
 11743 322c D9000000 		.4byte	0xd9
 11744 3230 3E320000 		.4byte	0x323e
 11745 3234 30       		.uleb128 0x30
 11746 3235 54010000 		.4byte	0x154
 11747 3239 A8300000 		.4byte	0x30a8
 11748 323d 00       		.byte	0
 11749 323e 0A       		.uleb128 0xa
 11750 323f 54010000 		.4byte	0x154
 11751 3243 27       		.uleb128 0x27
 11752 3244 E6010000 		.4byte	.LASF640
 11753 3248 01       		.byte	0x1
 11754 3249 6E08     		.2byte	0x86e
 11755 324b 94000000 		.4byte	0x94
 11756 324f 00000000 		.4byte	.LFB53
 11757 3253 1C000000 		.4byte	.LFE53-.LFB53
 11758 3257 01       		.uleb128 0x1
 11759 3258 9C       		.byte	0x9c
 11760 3259 A5320000 		.4byte	0x32a5
 11761 325d 28       		.uleb128 0x28
 11762 325e 0F180000 		.4byte	.LASF641
 11763 3262 01       		.byte	0x1
 11764 3263 6E08     		.2byte	0x86e
 11765 3265 94000000 		.4byte	0x94
 11766 3269 A3120000 		.4byte	.LLST45
 11767 326d 2A       		.uleb128 0x2a
 11768 326e 70747200 		.ascii	"ptr\000"
 11769 3272 01       		.byte	0x1
 11770 3273 6E08     		.2byte	0x86e
 11771 3275 5D010000 		.4byte	0x15d
 11772 3279 C4120000 		.4byte	.LLST46
 11773 327d 2A       		.uleb128 0x2a
 11774 327e 6C656E00 		.ascii	"len\000"
 11775 3282 01       		.byte	0x1
 11776 3283 6E08     		.2byte	0x86e
 11777 3285 94000000 		.4byte	0x94
 11778 3289 ED120000 		.4byte	.LLST47
 11779 328d 29       		.uleb128 0x29
 11780 328e 6900     		.ascii	"i\000"
 11781 3290 01       		.byte	0x1
 11782 3291 7008     		.2byte	0x870
 11783 3293 94000000 		.4byte	0x94
 11784 3297 16130000 		.4byte	.LLST48
 11785 329b 20       		.uleb128 0x20
 11786 329c 10000000 		.4byte	.LVL641
 11787 32a0 E2350000 		.4byte	0x35e2
 11788 32a4 00       		.byte	0
 11789 32a5 31       		.uleb128 0x31
 11790 32a6 92370000 		.4byte	.LASF642
 11791 32aa 11       		.byte	0x11
 11792 32ab 2D       		.byte	0x2d
 11793 32ac 63010000 		.4byte	0x163
 11794 32b0 32       		.uleb128 0x32
 11795 32b1 23020000 		.4byte	.LASF643
 11796 32b5 0C       		.byte	0xc
 11797 32b6 D601     		.2byte	0x1d6
ARM GAS  C:\Users\Helon\AppData\Local\Temp\cckZyeCc.s 			page 260


 11798 32b8 6E060000 		.4byte	0x66e
 11799 32bc 32       		.uleb128 0x32
 11800 32bd 213C0000 		.4byte	.LASF644
 11801 32c1 0C       		.byte	0xc
 11802 32c2 EA01     		.2byte	0x1ea
 11803 32c4 D5070000 		.4byte	0x7d5
 11804 32c8 32       		.uleb128 0x32
 11805 32c9 27270000 		.4byte	.LASF645
 11806 32cd 0D       		.byte	0xd
 11807 32ce 2C09     		.2byte	0x92c
 11808 32d0 1B120000 		.4byte	0x121b
 11809 32d4 32       		.uleb128 0x32
 11810 32d5 3D390000 		.4byte	.LASF646
 11811 32d9 0D       		.byte	0xd
 11812 32da 2D09     		.2byte	0x92d
 11813 32dc 0F090000 		.4byte	0x90f
 11814 32e0 31       		.uleb128 0x31
 11815 32e1 26300000 		.4byte	.LASF647
 11816 32e5 01       		.byte	0x1
 11817 32e6 15       		.byte	0x15
 11818 32e7 AD000000 		.4byte	0xad
 11819 32eb 10       		.uleb128 0x10
 11820 32ec 1D150000 		.4byte	0x151d
 11821 32f0 FB320000 		.4byte	0x32fb
 11822 32f4 11       		.uleb128 0x11
 11823 32f5 54010000 		.4byte	0x154
 11824 32f9 09       		.byte	0x9
 11825 32fa 00       		.byte	0
 11826 32fb 31       		.uleb128 0x31
 11827 32fc 51450000 		.4byte	.LASF648
 11828 3300 01       		.byte	0x1
 11829 3301 16       		.byte	0x16
 11830 3302 EB320000 		.4byte	0x32eb
 11831 3306 33       		.uleb128 0x33
 11832 3307 CE370000 		.4byte	.LASF649
 11833 330b 01       		.byte	0x1
 11834 330c 1B       		.byte	0x1b
 11835 330d C4130000 		.4byte	0x13c4
 11836 3311 05       		.uleb128 0x5
 11837 3312 03       		.byte	0x3
 11838 3313 00000000 		.4byte	configUart
 11839 3317 33       		.uleb128 0x33
 11840 3318 D32E0000 		.4byte	.LASF650
 11841 331c 01       		.byte	0x1
 11842 331d 1C       		.byte	0x1c
 11843 331e AD000000 		.4byte	0xad
 11844 3322 05       		.uleb128 0x5
 11845 3323 03       		.byte	0x3
 11846 3324 00000000 		.4byte	LowPower_EN
 11847 3328 10       		.uleb128 0x10
 11848 3329 AD000000 		.4byte	0xad
 11849 332d 38330000 		.4byte	0x3338
 11850 3331 11       		.uleb128 0x11
 11851 3332 54010000 		.4byte	0x154
 11852 3336 2F       		.byte	0x2f
 11853 3337 00       		.byte	0
 11854 3338 33       		.uleb128 0x33
ARM GAS  C:\Users\Helon\AppData\Local\Temp\cckZyeCc.s 			page 261


 11855 3339 7E330000 		.4byte	.LASF651
 11856 333d 01       		.byte	0x1
 11857 333e 1D       		.byte	0x1d
 11858 333f 28330000 		.4byte	0x3328
 11859 3343 05       		.uleb128 0x5
 11860 3344 03       		.byte	0x3
 11861 3345 00000000 		.4byte	RX_BUFFER
 11862 3349 33       		.uleb128 0x33
 11863 334a DD170000 		.4byte	.LASF652
 11864 334e 01       		.byte	0x1
 11865 334f 1E       		.byte	0x1e
 11866 3350 AD000000 		.4byte	0xad
 11867 3354 05       		.uleb128 0x5
 11868 3355 03       		.byte	0x3
 11869 3356 00000000 		.4byte	Buffer_Length
 11870 335a 33       		.uleb128 0x33
 11871 335b 7F0C0000 		.4byte	.LASF653
 11872 335f 01       		.byte	0x1
 11873 3360 1F       		.byte	0x1f
 11874 3361 AD000000 		.4byte	0xad
 11875 3365 05       		.uleb128 0x5
 11876 3366 03       		.byte	0x3
 11877 3367 00000000 		.4byte	rx_isover
 11878 336b 33       		.uleb128 0x33
 11879 336c 50350000 		.4byte	.LASF654
 11880 3370 01       		.byte	0x1
 11881 3371 20       		.byte	0x20
 11882 3372 BD140000 		.4byte	0x14bd
 11883 3376 05       		.uleb128 0x5
 11884 3377 03       		.byte	0x3
 11885 3378 00000000 		.4byte	Conn_Or_Disconn_Info
 11886 337c 33       		.uleb128 0x33
 11887 337d CB310000 		.4byte	.LASF655
 11888 3381 01       		.byte	0x1
 11889 3382 21       		.byte	0x21
 11890 3383 AD000000 		.4byte	0xad
 11891 3387 05       		.uleb128 0x5
 11892 3388 03       		.byte	0x3
 11893 3389 00000000 		.4byte	Conn_or_Disconn_Idx
 11894 338d 33       		.uleb128 0x33
 11895 338e 0F160000 		.4byte	.LASF656
 11896 3392 01       		.byte	0x1
 11897 3393 24       		.byte	0x24
 11898 3394 AD000000 		.4byte	0xad
 11899 3398 05       		.uleb128 0x5
 11900 3399 03       		.byte	0x3
 11901 339a 00000000 		.4byte	MTU_REQ_FLAG
 11902 339e 33       		.uleb128 0x33
 11903 339f 4C2B0000 		.4byte	.LASF657
 11904 33a3 01       		.byte	0x1
 11905 33a4 25       		.byte	0x25
 11906 33a5 AD000000 		.4byte	0xad
 11907 33a9 05       		.uleb128 0x5
 11908 33aa 03       		.byte	0x3
 11909 33ab 00000000 		.4byte	TroughtTest_Flag
 11910 33af 33       		.uleb128 0x33
 11911 33b0 0E420000 		.4byte	.LASF658
ARM GAS  C:\Users\Helon\AppData\Local\Temp\cckZyeCc.s 			page 262


 11912 33b4 01       		.byte	0x1
 11913 33b5 26       		.byte	0x26
 11914 33b6 AD000000 		.4byte	0xad
 11915 33ba 05       		.uleb128 0x5
 11916 33bb 03       		.byte	0x3
 11917 33bc 00000000 		.4byte	charNotificationEnabled
 11918 33c0 33       		.uleb128 0x33
 11919 33c1 93190000 		.4byte	.LASF659
 11920 33c5 01       		.byte	0x1
 11921 33c6 27       		.byte	0x27
 11922 33c7 EF000000 		.4byte	0xef
 11923 33cb 05       		.uleb128 0x5
 11924 33cc 03       		.byte	0x3
 11925 33cd 00000000 		.4byte	totalByteCounter
 11926 33d1 33       		.uleb128 0x33
 11927 33d2 921F0000 		.4byte	.LASF632
 11928 33d6 01       		.byte	0x1
 11929 33d7 28       		.byte	0x28
 11930 33d8 AD000000 		.4byte	0xad
 11931 33dc 05       		.uleb128 0x5
 11932 33dd 03       		.byte	0x3
 11933 33de 00000000 		.4byte	Role
 11934 33e2 10       		.uleb128 0x10
 11935 33e3 D9000000 		.4byte	0xd9
 11936 33e7 F2330000 		.4byte	0x33f2
 11937 33eb 11       		.uleb128 0x11
 11938 33ec 54010000 		.4byte	0x154
 11939 33f0 13       		.byte	0x13
 11940 33f1 00       		.byte	0
 11941 33f2 33       		.uleb128 0x33
 11942 33f3 C3190000 		.4byte	.LASF660
 11943 33f7 01       		.byte	0x1
 11944 33f8 29       		.byte	0x29
 11945 33f9 E2330000 		.4byte	0x33e2
 11946 33fd 05       		.uleb128 0x5
 11947 33fe 03       		.byte	0x3
 11948 33ff 00000000 		.4byte	buffer
 11949 3403 33       		.uleb128 0x33
 11950 3404 AB0B0000 		.4byte	.LASF661
 11951 3408 01       		.byte	0x1
 11952 3409 2A       		.byte	0x2a
 11953 340a E4000000 		.4byte	0xe4
 11954 340e 05       		.uleb128 0x5
 11955 340f 03       		.byte	0x3
 11956 3410 00000000 		.4byte	negotiatedMtu
 11957 3414 33       		.uleb128 0x33
 11958 3415 EE310000 		.4byte	.LASF662
 11959 3419 01       		.byte	0x1
 11960 341a 2B       		.byte	0x2b
 11961 341b AD000000 		.4byte	0xad
 11962 341f 05       		.uleb128 0x5
 11963 3420 03       		.byte	0x3
 11964 3421 00000000 		.4byte	CommandMode
 11965 3425 33       		.uleb128 0x33
 11966 3426 C0210000 		.4byte	.LASF663
 11967 342a 01       		.byte	0x1
 11968 342b 2C       		.byte	0x2c
ARM GAS  C:\Users\Helon\AppData\Local\Temp\cckZyeCc.s 			page 263


 11969 342c EF000000 		.4byte	0xef
 11970 3430 05       		.uleb128 0x5
 11971 3431 03       		.byte	0x3
 11972 3432 00000000 		.4byte	testCount
 11973 3436 33       		.uleb128 0x33
 11974 3437 ED380000 		.4byte	.LASF664
 11975 343b 01       		.byte	0x1
 11976 343c 2D       		.byte	0x2d
 11977 343d AD000000 		.4byte	0xad
 11978 3441 05       		.uleb128 0x5
 11979 3442 03       		.byte	0x3
 11980 3443 00000000 		.4byte	iocapability
 11981 3447 33       		.uleb128 0x33
 11982 3448 332A0000 		.4byte	.LASF665
 11983 344c 01       		.byte	0x1
 11984 344d 2E       		.byte	0x2e
 11985 344e D3080000 		.4byte	0x8d3
 11986 3452 05       		.uleb128 0x5
 11987 3453 03       		.byte	0x3
 11988 3454 00000000 		.4byte	ConnParam
 11989 3458 33       		.uleb128 0x33
 11990 3459 C92A0000 		.4byte	.LASF574
 11991 345d 01       		.byte	0x1
 11992 345e 37       		.byte	0x37
 11993 345f 0A050000 		.4byte	0x50a
 11994 3463 05       		.uleb128 0x5
 11995 3464 03       		.byte	0x3
 11996 3465 00000000 		.4byte	DeviceAddr
 11997 3469 33       		.uleb128 0x33
 11998 346a FD0C0000 		.4byte	.LASF666
 11999 346e 01       		.byte	0x1
 12000 346f 38       		.byte	0x38
 12001 3470 AD000000 		.4byte	0xad
 12002 3474 05       		.uleb128 0x5
 12003 3475 03       		.byte	0x3
 12004 3476 00000000 		.4byte	_10sIsOver
 12005 347a 10       		.uleb128 0x10
 12006 347b D9000000 		.4byte	0xd9
 12007 347f 8A340000 		.4byte	0x348a
 12008 3483 11       		.uleb128 0x11
 12009 3484 54010000 		.4byte	0x154
 12010 3488 01       		.byte	0x1
 12011 3489 00       		.byte	0
 12012 348a 33       		.uleb128 0x33
 12013 348b 69120000 		.4byte	.LASF667
 12014 348f 01       		.byte	0x1
 12015 3490 39       		.byte	0x39
 12016 3491 7A340000 		.4byte	0x347a
 12017 3495 05       		.uleb128 0x5
 12018 3496 03       		.byte	0x3
 12019 3497 00000000 		.4byte	cccdNotifEnabledValue
 12020 349b 33       		.uleb128 0x33
 12021 349c B90B0000 		.4byte	.LASF668
 12022 34a0 01       		.byte	0x1
 12023 34a1 3A       		.byte	0x3a
 12024 34a2 4C090000 		.4byte	0x94c
 12025 34a6 05       		.uleb128 0x5
ARM GAS  C:\Users\Helon\AppData\Local\Temp\cckZyeCc.s 			page 264


 12026 34a7 03       		.byte	0x3
 12027 34a8 00000000 		.4byte	cccdNotifFlagSetStruct
 12028 34ac 33       		.uleb128 0x33
 12029 34ad CE0E0000 		.4byte	.LASF669
 12030 34b1 01       		.byte	0x1
 12031 34b2 41       		.byte	0x41
 12032 34b3 89080000 		.4byte	0x889
 12033 34b7 05       		.uleb128 0x5
 12034 34b8 03       		.byte	0x3
 12035 34b9 00000000 		.4byte	connParam
 12036 34bd 33       		.uleb128 0x33
 12037 34be 28120000 		.4byte	.LASF608
 12038 34c2 01       		.byte	0x1
 12039 34c3 47       		.byte	0x47
 12040 34c4 350A0000 		.4byte	0xa35
 12041 34c8 05       		.uleb128 0x5
 12042 34c9 03       		.byte	0x3
 12043 34ca 00000000 		.4byte	writeRequestData
 12044 34ce 33       		.uleb128 0x33
 12045 34cf 983C0000 		.4byte	.LASF670
 12046 34d3 01       		.byte	0x1
 12047 34d4 48       		.byte	0x48
 12048 34d5 2A0A0000 		.4byte	0xa2a
 12049 34d9 05       		.uleb128 0x5
 12050 34da 03       		.byte	0x3
 12051 34db 00000000 		.4byte	readRequestData
 12052 34df 10       		.uleb128 0x10
 12053 34e0 5D010000 		.4byte	0x15d
 12054 34e4 EF340000 		.4byte	0x34ef
 12055 34e8 11       		.uleb128 0x11
 12056 34e9 54010000 		.4byte	0x154
 12057 34ed 1A       		.byte	0x1a
 12058 34ee 00       		.byte	0
 12059 34ef 33       		.uleb128 0x33
 12060 34f0 51320000 		.4byte	.LASF671
 12061 34f4 01       		.byte	0x1
 12062 34f5 4A       		.byte	0x4a
 12063 34f6 DF340000 		.4byte	0x34df
 12064 34fa 05       		.uleb128 0x5
 12065 34fb 03       		.byte	0x3
 12066 34fc 00000000 		.4byte	StringArry
 12067 3500 33       		.uleb128 0x33
 12068 3501 B5300000 		.4byte	.LASF672
 12069 3505 01       		.byte	0x1
 12070 3506 51       		.byte	0x51
 12071 3507 AD000000 		.4byte	0xad
 12072 350b 05       		.uleb128 0x5
 12073 350c 03       		.byte	0x3
 12074 350d 00000000 		.4byte	STOP_SCAN_FLAG
 12075 3511 33       		.uleb128 0x33
 12076 3512 111A0000 		.4byte	.LASF673
 12077 3516 01       		.byte	0x1
 12078 3517 52       		.byte	0x52
 12079 3518 AD000000 		.4byte	0xad
 12080 351c 05       		.uleb128 0x5
 12081 351d 03       		.byte	0x3
 12082 351e 00000000 		.4byte	Baud_rate_idx
ARM GAS  C:\Users\Helon\AppData\Local\Temp\cckZyeCc.s 			page 265


 12083 3522 34       		.uleb128 0x34
 12084 3523 712E0000 		.4byte	.LASF736
 12085 3527 1F       		.byte	0x1f
 12086 3528 00       		.byte	0
 12087 3529 21060000 		.4byte	.LASF737
 12088 352d 94000000 		.4byte	0x94
 12089 3531 3B350000 		.4byte	0x353b
 12090 3535 16       		.uleb128 0x16
 12091 3536 63010000 		.4byte	0x163
 12092 353a 00       		.byte	0
 12093 353b 35       		.uleb128 0x35
 12094 353c 7F0D0000 		.4byte	.LASF685
 12095 3540 0E       		.byte	0xe
 12096 3541 8E01     		.2byte	0x18e
 12097 3543 EF000000 		.4byte	0xef
 12098 3547 36       		.uleb128 0x36
 12099 3548 A70A0000 		.4byte	.LASF674
 12100 354c 10       		.byte	0x10
 12101 354d 1F       		.byte	0x1f
 12102 354e 58350000 		.4byte	0x3558
 12103 3552 16       		.uleb128 0x16
 12104 3553 58350000 		.4byte	0x3558
 12105 3557 00       		.byte	0
 12106 3558 07       		.uleb128 0x7
 12107 3559 04       		.byte	0x4
 12108 355a 3F080000 		.4byte	0x83f
 12109 355e 37       		.uleb128 0x37
 12110 355f 7B090000 		.4byte	.LASF681
 12111 3563 0C       		.byte	0xc
 12112 3564 BE01     		.2byte	0x1be
 12113 3566 38       		.uleb128 0x38
 12114 3567 063E0000 		.4byte	.LASF675
 12115 356b 5B010000 		.4byte	0x15b
 12116 356f 83350000 		.4byte	0x3583
 12117 3573 16       		.uleb128 0x16
 12118 3574 5B010000 		.4byte	0x15b
 12119 3578 16       		.uleb128 0x16
 12120 3579 83350000 		.4byte	0x3583
 12121 357d 16       		.uleb128 0x16
 12122 357e 54010000 		.4byte	0x154
 12123 3582 00       		.byte	0
 12124 3583 07       		.uleb128 0x7
 12125 3584 04       		.byte	0x4
 12126 3585 89350000 		.4byte	0x3589
 12127 3589 39       		.uleb128 0x39
 12128 358a 3A       		.uleb128 0x3a
 12129 358b 83190000 		.4byte	.LASF676
 12130 358f 12       		.byte	0x12
 12131 3590 B2       		.byte	0xb2
 12132 3591 94000000 		.4byte	0x94
 12133 3595 A0350000 		.4byte	0x35a0
 12134 3599 16       		.uleb128 0x16
 12135 359a 63010000 		.4byte	0x163
 12136 359e 3B       		.uleb128 0x3b
 12137 359f 00       		.byte	0
 12138 35a0 3C       		.uleb128 0x3c
 12139 35a1 88330000 		.4byte	.LASF677
ARM GAS  C:\Users\Helon\AppData\Local\Temp\cckZyeCc.s 			page 266


 12140 35a5 08       		.byte	0x8
 12141 35a6 1307     		.2byte	0x713
 12142 35a8 AA030000 		.4byte	0x3aa
 12143 35ac BB350000 		.4byte	0x35bb
 12144 35b0 16       		.uleb128 0x16
 12145 35b1 D9000000 		.4byte	0xd9
 12146 35b5 16       		.uleb128 0x16
 12147 35b6 BB350000 		.4byte	0x35bb
 12148 35ba 00       		.byte	0
 12149 35bb 07       		.uleb128 0x7
 12150 35bc 04       		.byte	0x4
 12151 35bd 89080000 		.4byte	0x889
 12152 35c1 3C       		.uleb128 0x3c
 12153 35c2 1A0A0000 		.4byte	.LASF678
 12154 35c6 0B       		.byte	0xb
 12155 35c7 BD03     		.2byte	0x3bd
 12156 35c9 AA030000 		.4byte	0x3aa
 12157 35cd DC350000 		.4byte	0x35dc
 12158 35d1 16       		.uleb128 0x16
 12159 35d2 0F090000 		.4byte	0x90f
 12160 35d6 16       		.uleb128 0x16
 12161 35d7 DC350000 		.4byte	0x35dc
 12162 35db 00       		.byte	0
 12163 35dc 07       		.uleb128 0x7
 12164 35dd 04       		.byte	0x4
 12165 35de 350A0000 		.4byte	0xa35
 12166 35e2 3D       		.uleb128 0x3d
 12167 35e3 5C320000 		.4byte	.LASF679
 12168 35e7 0E       		.byte	0xe
 12169 35e8 8C01     		.2byte	0x18c
 12170 35ea F4350000 		.4byte	0x35f4
 12171 35ee 16       		.uleb128 0x16
 12172 35ef EF000000 		.4byte	0xef
 12173 35f3 00       		.byte	0
 12174 35f4 3D       		.uleb128 0x3d
 12175 35f5 A9320000 		.4byte	.LASF680
 12176 35f9 0E       		.byte	0xe
 12177 35fa 7701     		.2byte	0x177
 12178 35fc 06360000 		.4byte	0x3606
 12179 3600 16       		.uleb128 0x16
 12180 3601 06360000 		.4byte	0x3606
 12181 3605 00       		.byte	0
 12182 3606 07       		.uleb128 0x7
 12183 3607 04       		.byte	0x4
 12184 3608 0C360000 		.4byte	0x360c
 12185 360c 0A       		.uleb128 0xa
 12186 360d 13010000 		.4byte	0x113
 12187 3611 37       		.uleb128 0x37
 12188 3612 342D0000 		.4byte	.LASF682
 12189 3616 13       		.byte	0x13
 12190 3617 3001     		.2byte	0x130
 12191 3619 3C       		.uleb128 0x3c
 12192 361a 61220000 		.4byte	.LASF683
 12193 361e 08       		.byte	0x8
 12194 361f 3F06     		.2byte	0x63f
 12195 3621 AA030000 		.4byte	0x3aa
 12196 3625 34360000 		.4byte	0x3634
ARM GAS  C:\Users\Helon\AppData\Local\Temp\cckZyeCc.s 			page 267


 12197 3629 16       		.uleb128 0x16
 12198 362a D9000000 		.4byte	0xd9
 12199 362e 16       		.uleb128 0x16
 12200 362f 34360000 		.4byte	0x3634
 12201 3633 00       		.byte	0
 12202 3634 07       		.uleb128 0x7
 12203 3635 04       		.byte	0x4
 12204 3636 6E060000 		.4byte	0x66e
 12205 363a 3E       		.uleb128 0x3e
 12206 363b 55400000 		.4byte	.LASF684
 12207 363f 14       		.byte	0x14
 12208 3640 28       		.byte	0x28
 12209 3641 3F       		.uleb128 0x3f
 12210 3642 F7190000 		.4byte	.LASF686
 12211 3646 15       		.byte	0x15
 12212 3647 21       		.byte	0x21
 12213 3648 D9000000 		.4byte	0xd9
 12214 364c 3C       		.uleb128 0x3c
 12215 364d 4B110000 		.4byte	.LASF687
 12216 3651 0C       		.byte	0xc
 12217 3652 B001     		.2byte	0x1b0
 12218 3654 AA030000 		.4byte	0x3aa
 12219 3658 62360000 		.4byte	0x3662
 12220 365c 16       		.uleb128 0x16
 12221 365d D9000000 		.4byte	0xd9
 12222 3661 00       		.byte	0
 12223 3662 3D       		.uleb128 0x3d
 12224 3663 E8280000 		.4byte	.LASF688
 12225 3667 13       		.byte	0x13
 12226 3668 4601     		.2byte	0x146
 12227 366a 74360000 		.4byte	0x3674
 12228 366e 16       		.uleb128 0x16
 12229 366f EF000000 		.4byte	0xef
 12230 3673 00       		.byte	0
 12231 3674 37       		.uleb128 0x37
 12232 3675 82230000 		.4byte	.LASF689
 12233 3679 13       		.byte	0x13
 12234 367a 3201     		.2byte	0x132
 12235 367c 3C       		.uleb128 0x3c
 12236 367d DF310000 		.4byte	.LASF690
 12237 3681 06       		.byte	0x6
 12238 3682 6B04     		.2byte	0x46b
 12239 3684 DF030000 		.4byte	0x3df
 12240 3688 92360000 		.4byte	0x3692
 12241 368c 16       		.uleb128 0x16
 12242 368d DF030000 		.4byte	0x3df
 12243 3691 00       		.byte	0
 12244 3692 35       		.uleb128 0x35
 12245 3693 FC230000 		.4byte	.LASF691
 12246 3697 06       		.byte	0x6
 12247 3698 B906     		.2byte	0x6b9
 12248 369a 26040000 		.4byte	0x426
 12249 369e 36       		.uleb128 0x36
 12250 369f BD200000 		.4byte	.LASF692
 12251 36a3 16       		.byte	0x16
 12252 36a4 1D       		.byte	0x1d
 12253 36a5 AF360000 		.4byte	0x36af
ARM GAS  C:\Users\Helon\AppData\Local\Temp\cckZyeCc.s 			page 268


 12254 36a9 16       		.uleb128 0x16
 12255 36aa D9000000 		.4byte	0xd9
 12256 36ae 00       		.byte	0
 12257 36af 3E       		.uleb128 0x3e
 12258 36b0 D9370000 		.4byte	.LASF693
 12259 36b4 17       		.byte	0x17
 12260 36b5 1D       		.byte	0x1d
 12261 36b6 3E       		.uleb128 0x3e
 12262 36b7 720C0000 		.4byte	.LASF694
 12263 36bb 17       		.byte	0x17
 12264 36bc 1C       		.byte	0x1c
 12265 36bd 36       		.uleb128 0x36
 12266 36be 423D0000 		.4byte	.LASF695
 12267 36c2 16       		.byte	0x16
 12268 36c3 1E       		.byte	0x1e
 12269 36c4 CE360000 		.4byte	0x36ce
 12270 36c8 16       		.uleb128 0x16
 12271 36c9 D9000000 		.4byte	0xd9
 12272 36cd 00       		.byte	0
 12273 36ce 36       		.uleb128 0x36
 12274 36cf 463C0000 		.4byte	.LASF696
 12275 36d3 18       		.byte	0x18
 12276 36d4 1E       		.byte	0x1e
 12277 36d5 DF360000 		.4byte	0x36df
 12278 36d9 16       		.uleb128 0x16
 12279 36da D9000000 		.4byte	0xd9
 12280 36de 00       		.byte	0
 12281 36df 36       		.uleb128 0x36
 12282 36e0 F43F0000 		.4byte	.LASF697
 12283 36e4 18       		.byte	0x18
 12284 36e5 1D       		.byte	0x1d
 12285 36e6 F0360000 		.4byte	0x36f0
 12286 36ea 16       		.uleb128 0x16
 12287 36eb D9000000 		.4byte	0xd9
 12288 36ef 00       		.byte	0
 12289 36f0 36       		.uleb128 0x36
 12290 36f1 3E2E0000 		.4byte	.LASF698
 12291 36f5 19       		.byte	0x19
 12292 36f6 1E       		.byte	0x1e
 12293 36f7 01370000 		.4byte	0x3701
 12294 36fb 16       		.uleb128 0x16
 12295 36fc D9000000 		.4byte	0xd9
 12296 3700 00       		.byte	0
 12297 3701 36       		.uleb128 0x36
 12298 3702 3A410000 		.4byte	.LASF699
 12299 3706 19       		.byte	0x19
 12300 3707 1D       		.byte	0x1d
 12301 3708 12370000 		.4byte	0x3712
 12302 370c 16       		.uleb128 0x16
 12303 370d D9000000 		.4byte	0xd9
 12304 3711 00       		.byte	0
 12305 3712 37       		.uleb128 0x37
 12306 3713 390F0000 		.4byte	.LASF700
 12307 3717 13       		.byte	0x13
 12308 3718 2F01     		.2byte	0x12f
 12309 371a 36       		.uleb128 0x36
 12310 371b 3D010000 		.4byte	.LASF701
ARM GAS  C:\Users\Helon\AppData\Local\Temp\cckZyeCc.s 			page 269


 12311 371f 1A       		.byte	0x1a
 12312 3720 18       		.byte	0x18
 12313 3721 2B370000 		.4byte	0x372b
 12314 3725 16       		.uleb128 0x16
 12315 3726 36010000 		.4byte	0x136
 12316 372a 00       		.byte	0
 12317 372b 3E       		.uleb128 0x3e
 12318 372c F4100000 		.4byte	.LASF702
 12319 3730 1B       		.byte	0x1b
 12320 3731 68       		.byte	0x68
 12321 3732 36       		.uleb128 0x36
 12322 3733 29400000 		.4byte	.LASF703
 12323 3737 14       		.byte	0x14
 12324 3738 18       		.byte	0x18
 12325 3739 43370000 		.4byte	0x3743
 12326 373d 16       		.uleb128 0x16
 12327 373e 36010000 		.4byte	0x136
 12328 3742 00       		.byte	0
 12329 3743 3C       		.uleb128 0x3c
 12330 3744 4C200000 		.4byte	.LASF704
 12331 3748 0C       		.byte	0xc
 12332 3749 A101     		.2byte	0x1a1
 12333 374b AA030000 		.4byte	0x3aa
 12334 374f 59370000 		.4byte	0x3759
 12335 3753 16       		.uleb128 0x16
 12336 3754 D00A0000 		.4byte	0xad0
 12337 3758 00       		.byte	0
 12338 3759 3A       		.uleb128 0x3a
 12339 375a BF080000 		.4byte	.LASF705
 12340 375e 1C       		.byte	0x1c
 12341 375f 1C       		.byte	0x1c
 12342 3760 94000000 		.4byte	0x94
 12343 3764 73370000 		.4byte	0x3773
 12344 3768 16       		.uleb128 0x16
 12345 3769 63010000 		.4byte	0x163
 12346 376d 16       		.uleb128 0x16
 12347 376e 63010000 		.4byte	0x163
 12348 3772 00       		.byte	0
 12349 3773 3A       		.uleb128 0x3a
 12350 3774 45370000 		.4byte	.LASF706
 12351 3778 1C       		.byte	0x1c
 12352 3779 1B       		.byte	0x1b
 12353 377a 5D010000 		.4byte	0x15d
 12354 377e 8D370000 		.4byte	0x378d
 12355 3782 16       		.uleb128 0x16
 12356 3783 63010000 		.4byte	0x163
 12357 3787 16       		.uleb128 0x16
 12358 3788 94000000 		.4byte	0x94
 12359 378c 00       		.byte	0
 12360 378d 3A       		.uleb128 0x3a
 12361 378e 0C360000 		.4byte	.LASF707
 12362 3792 1D       		.byte	0x1d
 12363 3793 25       		.byte	0x25
 12364 3794 5B010000 		.4byte	0x15b
 12365 3798 A2370000 		.4byte	0x37a2
 12366 379c 16       		.uleb128 0x16
 12367 379d 49010000 		.4byte	0x149
ARM GAS  C:\Users\Helon\AppData\Local\Temp\cckZyeCc.s 			page 270


 12368 37a1 00       		.byte	0
 12369 37a2 3A       		.uleb128 0x3a
 12370 37a3 583B0000 		.4byte	.LASF708
 12371 37a7 1C       		.byte	0x1c
 12372 37a8 24       		.byte	0x24
 12373 37a9 5D010000 		.4byte	0x15d
 12374 37ad C1370000 		.4byte	0x37c1
 12375 37b1 16       		.uleb128 0x16
 12376 37b2 5D010000 		.4byte	0x15d
 12377 37b6 16       		.uleb128 0x16
 12378 37b7 63010000 		.4byte	0x163
 12379 37bb 16       		.uleb128 0x16
 12380 37bc 49010000 		.4byte	0x149
 12381 37c0 00       		.byte	0
 12382 37c1 3A       		.uleb128 0x3a
 12383 37c2 862C0000 		.4byte	.LASF709
 12384 37c6 1C       		.byte	0x1c
 12385 37c7 23       		.byte	0x23
 12386 37c8 94000000 		.4byte	0x94
 12387 37cc E0370000 		.4byte	0x37e0
 12388 37d0 16       		.uleb128 0x16
 12389 37d1 63010000 		.4byte	0x163
 12390 37d5 16       		.uleb128 0x16
 12391 37d6 63010000 		.4byte	0x163
 12392 37da 16       		.uleb128 0x16
 12393 37db 49010000 		.4byte	0x149
 12394 37df 00       		.byte	0
 12395 37e0 36       		.uleb128 0x36
 12396 37e1 9B410000 		.4byte	.LASF710
 12397 37e5 1D       		.byte	0x1d
 12398 37e6 2D       		.byte	0x2d
 12399 37e7 F1370000 		.4byte	0x37f1
 12400 37eb 16       		.uleb128 0x16
 12401 37ec 5B010000 		.4byte	0x15b
 12402 37f0 00       		.byte	0
 12403 37f1 3A       		.uleb128 0x3a
 12404 37f2 55430000 		.4byte	.LASF711
 12405 37f6 0A       		.byte	0xa
 12406 37f7 DF       		.byte	0xdf
 12407 37f8 AA030000 		.4byte	0x3aa
 12408 37fc 0B380000 		.4byte	0x380b
 12409 3800 16       		.uleb128 0x16
 12410 3801 0F090000 		.4byte	0x90f
 12411 3805 16       		.uleb128 0x16
 12412 3806 0B380000 		.4byte	0x380b
 12413 380a 00       		.byte	0
 12414 380b 07       		.uleb128 0x7
 12415 380c 04       		.byte	0x4
 12416 380d E8090000 		.4byte	0x9e8
 12417 3811 3C       		.uleb128 0x3c
 12418 3812 0E000000 		.4byte	.LASF712
 12419 3816 0C       		.byte	0xc
 12420 3817 C201     		.2byte	0x1c2
 12421 3819 AA030000 		.4byte	0x3aa
 12422 381d 27380000 		.4byte	0x3827
 12423 3821 16       		.uleb128 0x16
 12424 3822 27380000 		.4byte	0x3827
ARM GAS  C:\Users\Helon\AppData\Local\Temp\cckZyeCc.s 			page 271


 12425 3826 00       		.byte	0
 12426 3827 07       		.uleb128 0x7
 12427 3828 04       		.byte	0x4
 12428 3829 2D380000 		.4byte	0x382d
 12429 382d 0A       		.uleb128 0xa
 12430 382e 0A050000 		.4byte	0x50a
 12431 3832 3C       		.uleb128 0x3c
 12432 3833 63150000 		.4byte	.LASF713
 12433 3837 06       		.byte	0x6
 12434 3838 1F05     		.2byte	0x51f
 12435 383a AA030000 		.4byte	0x3aa
 12436 383e 48380000 		.4byte	0x3848
 12437 3842 16       		.uleb128 0x16
 12438 3843 48380000 		.4byte	0x3848
 12439 3847 00       		.byte	0
 12440 3848 07       		.uleb128 0x7
 12441 3849 04       		.byte	0x4
 12442 384a CA040000 		.4byte	0x4ca
 12443 384e 3C       		.uleb128 0x3c
 12444 384f E4220000 		.4byte	.LASF714
 12445 3853 06       		.byte	0x6
 12446 3854 4105     		.2byte	0x541
 12447 3856 AA030000 		.4byte	0x3aa
 12448 385a 64380000 		.4byte	0x3864
 12449 385e 16       		.uleb128 0x16
 12450 385f 48380000 		.4byte	0x3848
 12451 3863 00       		.byte	0
 12452 3864 38       		.uleb128 0x38
 12453 3865 AF330000 		.4byte	.LASF715
 12454 3869 5B010000 		.4byte	0x15b
 12455 386d 81380000 		.4byte	0x3881
 12456 3871 16       		.uleb128 0x16
 12457 3872 5B010000 		.4byte	0x15b
 12458 3876 16       		.uleb128 0x16
 12459 3877 94000000 		.4byte	0x94
 12460 387b 16       		.uleb128 0x16
 12461 387c 54010000 		.4byte	0x154
 12462 3880 00       		.byte	0
 12463 3881 3E       		.uleb128 0x3e
 12464 3882 E9020000 		.4byte	.LASF716
 12465 3886 1E       		.byte	0x1e
 12466 3887 5D       		.byte	0x5d
 12467 3888 3C       		.uleb128 0x3c
 12468 3889 8A180000 		.4byte	.LASF717
 12469 388d 06       		.byte	0x6
 12470 388e E504     		.2byte	0x4e5
 12471 3890 AA030000 		.4byte	0x3aa
 12472 3894 9E380000 		.4byte	0x389e
 12473 3898 16       		.uleb128 0x16
 12474 3899 9E380000 		.4byte	0x389e
 12475 389d 00       		.byte	0
 12476 389e 07       		.uleb128 0x7
 12477 389f 04       		.byte	0x4
 12478 38a0 0A050000 		.4byte	0x50a
 12479 38a4 3C       		.uleb128 0x3c
 12480 38a5 28140000 		.4byte	.LASF718
 12481 38a9 0D       		.byte	0xd
ARM GAS  C:\Users\Helon\AppData\Local\Temp\cckZyeCc.s 			page 272


 12482 38aa 6908     		.2byte	0x869
 12483 38ac AA030000 		.4byte	0x3aa
 12484 38b0 BA380000 		.4byte	0x38ba
 12485 38b4 16       		.uleb128 0x16
 12486 38b5 BA380000 		.4byte	0x38ba
 12487 38b9 00       		.byte	0
 12488 38ba 07       		.uleb128 0x7
 12489 38bb 04       		.byte	0x4
 12490 38bc 13010000 		.4byte	0x113
 12491 38c0 37       		.uleb128 0x37
 12492 38c1 8C160000 		.4byte	.LASF719
 12493 38c5 0C       		.byte	0xc
 12494 38c6 B101     		.2byte	0x1b1
 12495 38c8 3C       		.uleb128 0x3c
 12496 38c9 65390000 		.4byte	.LASF720
 12497 38cd 0D       		.byte	0xd
 12498 38ce 6808     		.2byte	0x868
 12499 38d0 AA030000 		.4byte	0x3aa
 12500 38d4 DE380000 		.4byte	0x38de
 12501 38d8 16       		.uleb128 0x16
 12502 38d9 06360000 		.4byte	0x3606
 12503 38dd 00       		.byte	0
 12504 38de 3C       		.uleb128 0x3c
 12505 38df 20210000 		.4byte	.LASF721
 12506 38e3 08       		.byte	0x8
 12507 38e4 A107     		.2byte	0x7a1
 12508 38e6 AA030000 		.4byte	0x3aa
 12509 38ea F9380000 		.4byte	0x38f9
 12510 38ee 16       		.uleb128 0x16
 12511 38ef C9070000 		.4byte	0x7c9
 12512 38f3 16       		.uleb128 0x16
 12513 38f4 CF070000 		.4byte	0x7cf
 12514 38f8 00       		.byte	0
 12515 38f9 3C       		.uleb128 0x3c
 12516 38fa 6C300000 		.4byte	.LASF722
 12517 38fe 0C       		.byte	0xc
 12518 38ff BD01     		.2byte	0x1bd
 12519 3901 AA030000 		.4byte	0x3aa
 12520 3905 0F390000 		.4byte	0x390f
 12521 3909 16       		.uleb128 0x16
 12522 390a D9000000 		.4byte	0xd9
 12523 390e 00       		.byte	0
 12524 390f 3C       		.uleb128 0x3c
 12525 3910 060C0000 		.4byte	.LASF723
 12526 3914 0B       		.byte	0xb
 12527 3915 8002     		.2byte	0x280
 12528 3917 AA030000 		.4byte	0x3aa
 12529 391b 2A390000 		.4byte	0x392a
 12530 391f 16       		.uleb128 0x16
 12531 3920 0F090000 		.4byte	0x90f
 12532 3924 16       		.uleb128 0x16
 12533 3925 2A390000 		.4byte	0x392a
 12534 3929 00       		.byte	0
 12535 392a 07       		.uleb128 0x7
 12536 392b 04       		.byte	0x4
 12537 392c 1F0A0000 		.4byte	0xa1f
 12538 3930 3E       		.uleb128 0x3e
ARM GAS  C:\Users\Helon\AppData\Local\Temp\cckZyeCc.s 			page 273


 12539 3931 FA320000 		.4byte	.LASF724
 12540 3935 10       		.byte	0x10
 12541 3936 21       		.byte	0x21
 12542 3937 3C       		.uleb128 0x3c
 12543 3938 D71F0000 		.4byte	.LASF725
 12544 393c 08       		.byte	0x8
 12545 393d DA04     		.2byte	0x4da
 12546 393f AA030000 		.4byte	0x3aa
 12547 3943 4D390000 		.4byte	0x394d
 12548 3947 16       		.uleb128 0x16
 12549 3948 D9000000 		.4byte	0xd9
 12550 394c 00       		.byte	0
 12551 394d 35       		.uleb128 0x35
 12552 394e D0270000 		.4byte	.LASF726
 12553 3952 06       		.byte	0x6
 12554 3953 FA04     		.2byte	0x4fa
 12555 3955 FA000000 		.4byte	0xfa
 12556 3959 3C       		.uleb128 0x3c
 12557 395a 57030000 		.4byte	.LASF727
 12558 395e 08       		.byte	0x8
 12559 395f 1A03     		.2byte	0x31a
 12560 3961 AA030000 		.4byte	0x3aa
 12561 3965 6F390000 		.4byte	0x396f
 12562 3969 16       		.uleb128 0x16
 12563 396a C2050000 		.4byte	0x5c2
 12564 396e 00       		.byte	0
 12565 396f 3C       		.uleb128 0x3c
 12566 3970 2C2B0000 		.4byte	.LASF728
 12567 3974 08       		.byte	0x8
 12568 3975 EE05     		.2byte	0x5ee
 12569 3977 AA030000 		.4byte	0x3aa
 12570 397b 8A390000 		.4byte	0x398a
 12571 397f 16       		.uleb128 0x16
 12572 3980 D9000000 		.4byte	0xd9
 12573 3984 16       		.uleb128 0x16
 12574 3985 34360000 		.4byte	0x3634
 12575 3989 00       		.byte	0
 12576 398a 35       		.uleb128 0x35
 12577 398b F7390000 		.4byte	.LASF729
 12578 398f 0E       		.byte	0xe
 12579 3990 8601     		.2byte	0x186
 12580 3992 EF000000 		.4byte	0xef
 12581 3996 35       		.uleb128 0x35
 12582 3997 802E0000 		.4byte	.LASF730
 12583 399b 0E       		.byte	0xe
 12584 399c 6B01     		.2byte	0x16b
 12585 399e EF000000 		.4byte	0xef
 12586 39a2 3A       		.uleb128 0x3a
 12587 39a3 C7150000 		.4byte	.LASF731
 12588 39a7 1C       		.byte	0x1c
 12589 39a8 16       		.byte	0x16
 12590 39a9 94000000 		.4byte	0x94
 12591 39ad C1390000 		.4byte	0x39c1
 12592 39b1 16       		.uleb128 0x16
 12593 39b2 83350000 		.4byte	0x3583
 12594 39b6 16       		.uleb128 0x16
 12595 39b7 83350000 		.4byte	0x3583
ARM GAS  C:\Users\Helon\AppData\Local\Temp\cckZyeCc.s 			page 274


 12596 39bb 16       		.uleb128 0x16
 12597 39bc 49010000 		.4byte	0x149
 12598 39c0 00       		.byte	0
 12599 39c1 37       		.uleb128 0x37
 12600 39c2 4A360000 		.4byte	.LASF732
 12601 39c6 06       		.byte	0x6
 12602 39c7 A304     		.2byte	0x4a3
 12603 39c9 00       		.byte	0
 12604              		.section	.debug_abbrev,"",%progbits
 12605              	.Ldebug_abbrev0:
 12606 0000 01       		.uleb128 0x1
 12607 0001 11       		.uleb128 0x11
 12608 0002 01       		.byte	0x1
 12609 0003 25       		.uleb128 0x25
 12610 0004 0E       		.uleb128 0xe
 12611 0005 13       		.uleb128 0x13
 12612 0006 0B       		.uleb128 0xb
 12613 0007 03       		.uleb128 0x3
 12614 0008 0E       		.uleb128 0xe
 12615 0009 1B       		.uleb128 0x1b
 12616 000a 0E       		.uleb128 0xe
 12617 000b 55       		.uleb128 0x55
 12618 000c 17       		.uleb128 0x17
 12619 000d 11       		.uleb128 0x11
 12620 000e 01       		.uleb128 0x1
 12621 000f 10       		.uleb128 0x10
 12622 0010 17       		.uleb128 0x17
 12623 0011 00       		.byte	0
 12624 0012 00       		.byte	0
 12625 0013 02       		.uleb128 0x2
 12626 0014 16       		.uleb128 0x16
 12627 0015 00       		.byte	0
 12628 0016 03       		.uleb128 0x3
 12629 0017 0E       		.uleb128 0xe
 12630 0018 3A       		.uleb128 0x3a
 12631 0019 0B       		.uleb128 0xb
 12632 001a 3B       		.uleb128 0x3b
 12633 001b 0B       		.uleb128 0xb
 12634 001c 49       		.uleb128 0x49
 12635 001d 13       		.uleb128 0x13
 12636 001e 00       		.byte	0
 12637 001f 00       		.byte	0
 12638 0020 03       		.uleb128 0x3
 12639 0021 24       		.uleb128 0x24
 12640 0022 00       		.byte	0
 12641 0023 0B       		.uleb128 0xb
 12642 0024 0B       		.uleb128 0xb
 12643 0025 3E       		.uleb128 0x3e
 12644 0026 0B       		.uleb128 0xb
 12645 0027 03       		.uleb128 0x3
 12646 0028 0E       		.uleb128 0xe
 12647 0029 00       		.byte	0
 12648 002a 00       		.byte	0
 12649 002b 04       		.uleb128 0x4
 12650 002c 24       		.uleb128 0x24
 12651 002d 00       		.byte	0
 12652 002e 0B       		.uleb128 0xb
ARM GAS  C:\Users\Helon\AppData\Local\Temp\cckZyeCc.s 			page 275


 12653 002f 0B       		.uleb128 0xb
 12654 0030 3E       		.uleb128 0x3e
 12655 0031 0B       		.uleb128 0xb
 12656 0032 03       		.uleb128 0x3
 12657 0033 08       		.uleb128 0x8
 12658 0034 00       		.byte	0
 12659 0035 00       		.byte	0
 12660 0036 05       		.uleb128 0x5
 12661 0037 16       		.uleb128 0x16
 12662 0038 00       		.byte	0
 12663 0039 03       		.uleb128 0x3
 12664 003a 0E       		.uleb128 0xe
 12665 003b 3A       		.uleb128 0x3a
 12666 003c 0B       		.uleb128 0xb
 12667 003d 3B       		.uleb128 0x3b
 12668 003e 05       		.uleb128 0x5
 12669 003f 49       		.uleb128 0x49
 12670 0040 13       		.uleb128 0x13
 12671 0041 00       		.byte	0
 12672 0042 00       		.byte	0
 12673 0043 06       		.uleb128 0x6
 12674 0044 35       		.uleb128 0x35
 12675 0045 00       		.byte	0
 12676 0046 49       		.uleb128 0x49
 12677 0047 13       		.uleb128 0x13
 12678 0048 00       		.byte	0
 12679 0049 00       		.byte	0
 12680 004a 07       		.uleb128 0x7
 12681 004b 0F       		.uleb128 0xf
 12682 004c 00       		.byte	0
 12683 004d 0B       		.uleb128 0xb
 12684 004e 0B       		.uleb128 0xb
 12685 004f 49       		.uleb128 0x49
 12686 0050 13       		.uleb128 0x13
 12687 0051 00       		.byte	0
 12688 0052 00       		.byte	0
 12689 0053 08       		.uleb128 0x8
 12690 0054 15       		.uleb128 0x15
 12691 0055 00       		.byte	0
 12692 0056 27       		.uleb128 0x27
 12693 0057 19       		.uleb128 0x19
 12694 0058 00       		.byte	0
 12695 0059 00       		.byte	0
 12696 005a 09       		.uleb128 0x9
 12697 005b 0F       		.uleb128 0xf
 12698 005c 00       		.byte	0
 12699 005d 0B       		.uleb128 0xb
 12700 005e 0B       		.uleb128 0xb
 12701 005f 00       		.byte	0
 12702 0060 00       		.byte	0
 12703 0061 0A       		.uleb128 0xa
 12704 0062 26       		.uleb128 0x26
 12705 0063 00       		.byte	0
 12706 0064 49       		.uleb128 0x49
 12707 0065 13       		.uleb128 0x13
 12708 0066 00       		.byte	0
 12709 0067 00       		.byte	0
ARM GAS  C:\Users\Helon\AppData\Local\Temp\cckZyeCc.s 			page 276


 12710 0068 0B       		.uleb128 0xb
 12711 0069 04       		.uleb128 0x4
 12712 006a 01       		.byte	0x1
 12713 006b 0B       		.uleb128 0xb
 12714 006c 0B       		.uleb128 0xb
 12715 006d 3A       		.uleb128 0x3a
 12716 006e 0B       		.uleb128 0xb
 12717 006f 3B       		.uleb128 0x3b
 12718 0070 0B       		.uleb128 0xb
 12719 0071 01       		.uleb128 0x1
 12720 0072 13       		.uleb128 0x13
 12721 0073 00       		.byte	0
 12722 0074 00       		.byte	0
 12723 0075 0C       		.uleb128 0xc
 12724 0076 28       		.uleb128 0x28
 12725 0077 00       		.byte	0
 12726 0078 03       		.uleb128 0x3
 12727 0079 0E       		.uleb128 0xe
 12728 007a 1C       		.uleb128 0x1c
 12729 007b 0D       		.uleb128 0xd
 12730 007c 00       		.byte	0
 12731 007d 00       		.byte	0
 12732 007e 0D       		.uleb128 0xd
 12733 007f 04       		.uleb128 0x4
 12734 0080 01       		.byte	0x1
 12735 0081 0B       		.uleb128 0xb
 12736 0082 0B       		.uleb128 0xb
 12737 0083 3A       		.uleb128 0x3a
 12738 0084 0B       		.uleb128 0xb
 12739 0085 3B       		.uleb128 0x3b
 12740 0086 05       		.uleb128 0x5
 12741 0087 01       		.uleb128 0x1
 12742 0088 13       		.uleb128 0x13
 12743 0089 00       		.byte	0
 12744 008a 00       		.byte	0
 12745 008b 0E       		.uleb128 0xe
 12746 008c 13       		.uleb128 0x13
 12747 008d 01       		.byte	0x1
 12748 008e 0B       		.uleb128 0xb
 12749 008f 0B       		.uleb128 0xb
 12750 0090 3A       		.uleb128 0x3a
 12751 0091 0B       		.uleb128 0xb
 12752 0092 3B       		.uleb128 0x3b
 12753 0093 05       		.uleb128 0x5
 12754 0094 01       		.uleb128 0x1
 12755 0095 13       		.uleb128 0x13
 12756 0096 00       		.byte	0
 12757 0097 00       		.byte	0
 12758 0098 0F       		.uleb128 0xf
 12759 0099 0D       		.uleb128 0xd
 12760 009a 00       		.byte	0
 12761 009b 03       		.uleb128 0x3
 12762 009c 0E       		.uleb128 0xe
 12763 009d 3A       		.uleb128 0x3a
 12764 009e 0B       		.uleb128 0xb
 12765 009f 3B       		.uleb128 0x3b
 12766 00a0 05       		.uleb128 0x5
ARM GAS  C:\Users\Helon\AppData\Local\Temp\cckZyeCc.s 			page 277


 12767 00a1 49       		.uleb128 0x49
 12768 00a2 13       		.uleb128 0x13
 12769 00a3 38       		.uleb128 0x38
 12770 00a4 0B       		.uleb128 0xb
 12771 00a5 00       		.byte	0
 12772 00a6 00       		.byte	0
 12773 00a7 10       		.uleb128 0x10
 12774 00a8 01       		.uleb128 0x1
 12775 00a9 01       		.byte	0x1
 12776 00aa 49       		.uleb128 0x49
 12777 00ab 13       		.uleb128 0x13
 12778 00ac 01       		.uleb128 0x1
 12779 00ad 13       		.uleb128 0x13
 12780 00ae 00       		.byte	0
 12781 00af 00       		.byte	0
 12782 00b0 11       		.uleb128 0x11
 12783 00b1 21       		.uleb128 0x21
 12784 00b2 00       		.byte	0
 12785 00b3 49       		.uleb128 0x49
 12786 00b4 13       		.uleb128 0x13
 12787 00b5 2F       		.uleb128 0x2f
 12788 00b6 0B       		.uleb128 0xb
 12789 00b7 00       		.byte	0
 12790 00b8 00       		.byte	0
 12791 00b9 12       		.uleb128 0x12
 12792 00ba 0D       		.uleb128 0xd
 12793 00bb 00       		.byte	0
 12794 00bc 03       		.uleb128 0x3
 12795 00bd 08       		.uleb128 0x8
 12796 00be 3A       		.uleb128 0x3a
 12797 00bf 0B       		.uleb128 0xb
 12798 00c0 3B       		.uleb128 0x3b
 12799 00c1 05       		.uleb128 0x5
 12800 00c2 49       		.uleb128 0x49
 12801 00c3 13       		.uleb128 0x13
 12802 00c4 38       		.uleb128 0x38
 12803 00c5 0B       		.uleb128 0xb
 12804 00c6 00       		.byte	0
 12805 00c7 00       		.byte	0
 12806 00c8 13       		.uleb128 0x13
 12807 00c9 13       		.uleb128 0x13
 12808 00ca 01       		.byte	0x1
 12809 00cb 0B       		.uleb128 0xb
 12810 00cc 0B       		.uleb128 0xb
 12811 00cd 3A       		.uleb128 0x3a
 12812 00ce 0B       		.uleb128 0xb
 12813 00cf 3B       		.uleb128 0x3b
 12814 00d0 0B       		.uleb128 0xb
 12815 00d1 01       		.uleb128 0x1
 12816 00d2 13       		.uleb128 0x13
 12817 00d3 00       		.byte	0
 12818 00d4 00       		.byte	0
 12819 00d5 14       		.uleb128 0x14
 12820 00d6 0D       		.uleb128 0xd
 12821 00d7 00       		.byte	0
 12822 00d8 03       		.uleb128 0x3
 12823 00d9 0E       		.uleb128 0xe
ARM GAS  C:\Users\Helon\AppData\Local\Temp\cckZyeCc.s 			page 278


 12824 00da 3A       		.uleb128 0x3a
 12825 00db 0B       		.uleb128 0xb
 12826 00dc 3B       		.uleb128 0x3b
 12827 00dd 0B       		.uleb128 0xb
 12828 00de 49       		.uleb128 0x49
 12829 00df 13       		.uleb128 0x13
 12830 00e0 38       		.uleb128 0x38
 12831 00e1 0B       		.uleb128 0xb
 12832 00e2 00       		.byte	0
 12833 00e3 00       		.byte	0
 12834 00e4 15       		.uleb128 0x15
 12835 00e5 15       		.uleb128 0x15
 12836 00e6 01       		.byte	0x1
 12837 00e7 27       		.uleb128 0x27
 12838 00e8 19       		.uleb128 0x19
 12839 00e9 01       		.uleb128 0x1
 12840 00ea 13       		.uleb128 0x13
 12841 00eb 00       		.byte	0
 12842 00ec 00       		.byte	0
 12843 00ed 16       		.uleb128 0x16
 12844 00ee 05       		.uleb128 0x5
 12845 00ef 00       		.byte	0
 12846 00f0 49       		.uleb128 0x49
 12847 00f1 13       		.uleb128 0x13
 12848 00f2 00       		.byte	0
 12849 00f3 00       		.byte	0
 12850 00f4 17       		.uleb128 0x17
 12851 00f5 28       		.uleb128 0x28
 12852 00f6 00       		.byte	0
 12853 00f7 03       		.uleb128 0x3
 12854 00f8 08       		.uleb128 0x8
 12855 00f9 1C       		.uleb128 0x1c
 12856 00fa 0D       		.uleb128 0xd
 12857 00fb 00       		.byte	0
 12858 00fc 00       		.byte	0
 12859 00fd 18       		.uleb128 0x18
 12860 00fe 0D       		.uleb128 0xd
 12861 00ff 00       		.byte	0
 12862 0100 03       		.uleb128 0x3
 12863 0101 08       		.uleb128 0x8
 12864 0102 3A       		.uleb128 0x3a
 12865 0103 0B       		.uleb128 0xb
 12866 0104 3B       		.uleb128 0x3b
 12867 0105 0B       		.uleb128 0xb
 12868 0106 49       		.uleb128 0x49
 12869 0107 13       		.uleb128 0x13
 12870 0108 38       		.uleb128 0x38
 12871 0109 0B       		.uleb128 0xb
 12872 010a 00       		.byte	0
 12873 010b 00       		.byte	0
 12874 010c 19       		.uleb128 0x19
 12875 010d 2E       		.uleb128 0x2e
 12876 010e 01       		.byte	0x1
 12877 010f 3F       		.uleb128 0x3f
 12878 0110 19       		.uleb128 0x19
 12879 0111 03       		.uleb128 0x3
 12880 0112 0E       		.uleb128 0xe
ARM GAS  C:\Users\Helon\AppData\Local\Temp\cckZyeCc.s 			page 279


 12881 0113 3A       		.uleb128 0x3a
 12882 0114 0B       		.uleb128 0xb
 12883 0115 3B       		.uleb128 0x3b
 12884 0116 0B       		.uleb128 0xb
 12885 0117 27       		.uleb128 0x27
 12886 0118 19       		.uleb128 0x19
 12887 0119 11       		.uleb128 0x11
 12888 011a 01       		.uleb128 0x1
 12889 011b 12       		.uleb128 0x12
 12890 011c 06       		.uleb128 0x6
 12891 011d 40       		.uleb128 0x40
 12892 011e 18       		.uleb128 0x18
 12893 011f 9742     		.uleb128 0x2117
 12894 0121 19       		.uleb128 0x19
 12895 0122 01       		.uleb128 0x1
 12896 0123 13       		.uleb128 0x13
 12897 0124 00       		.byte	0
 12898 0125 00       		.byte	0
 12899 0126 1A       		.uleb128 0x1a
 12900 0127 05       		.uleb128 0x5
 12901 0128 00       		.byte	0
 12902 0129 03       		.uleb128 0x3
 12903 012a 0E       		.uleb128 0xe
 12904 012b 3A       		.uleb128 0x3a
 12905 012c 0B       		.uleb128 0xb
 12906 012d 3B       		.uleb128 0x3b
 12907 012e 0B       		.uleb128 0xb
 12908 012f 49       		.uleb128 0x49
 12909 0130 13       		.uleb128 0x13
 12910 0131 02       		.uleb128 0x2
 12911 0132 17       		.uleb128 0x17
 12912 0133 00       		.byte	0
 12913 0134 00       		.byte	0
 12914 0135 1B       		.uleb128 0x1b
 12915 0136 34       		.uleb128 0x34
 12916 0137 00       		.byte	0
 12917 0138 03       		.uleb128 0x3
 12918 0139 0E       		.uleb128 0xe
 12919 013a 3A       		.uleb128 0x3a
 12920 013b 0B       		.uleb128 0xb
 12921 013c 3B       		.uleb128 0x3b
 12922 013d 0B       		.uleb128 0xb
 12923 013e 49       		.uleb128 0x49
 12924 013f 13       		.uleb128 0x13
 12925 0140 02       		.uleb128 0x2
 12926 0141 18       		.uleb128 0x18
 12927 0142 00       		.byte	0
 12928 0143 00       		.byte	0
 12929 0144 1C       		.uleb128 0x1c
 12930 0145 34       		.uleb128 0x34
 12931 0146 00       		.byte	0
 12932 0147 03       		.uleb128 0x3
 12933 0148 08       		.uleb128 0x8
 12934 0149 3A       		.uleb128 0x3a
 12935 014a 0B       		.uleb128 0xb
 12936 014b 3B       		.uleb128 0x3b
 12937 014c 0B       		.uleb128 0xb
ARM GAS  C:\Users\Helon\AppData\Local\Temp\cckZyeCc.s 			page 280


 12938 014d 49       		.uleb128 0x49
 12939 014e 13       		.uleb128 0x13
 12940 014f 02       		.uleb128 0x2
 12941 0150 17       		.uleb128 0x17
 12942 0151 00       		.byte	0
 12943 0152 00       		.byte	0
 12944 0153 1D       		.uleb128 0x1d
 12945 0154 34       		.uleb128 0x34
 12946 0155 00       		.byte	0
 12947 0156 03       		.uleb128 0x3
 12948 0157 0E       		.uleb128 0xe
 12949 0158 3A       		.uleb128 0x3a
 12950 0159 0B       		.uleb128 0xb
 12951 015a 3B       		.uleb128 0x3b
 12952 015b 0B       		.uleb128 0xb
 12953 015c 49       		.uleb128 0x49
 12954 015d 13       		.uleb128 0x13
 12955 015e 02       		.uleb128 0x2
 12956 015f 17       		.uleb128 0x17
 12957 0160 00       		.byte	0
 12958 0161 00       		.byte	0
 12959 0162 1E       		.uleb128 0x1e
 12960 0163 898201   		.uleb128 0x4109
 12961 0166 01       		.byte	0x1
 12962 0167 11       		.uleb128 0x11
 12963 0168 01       		.uleb128 0x1
 12964 0169 31       		.uleb128 0x31
 12965 016a 13       		.uleb128 0x13
 12966 016b 01       		.uleb128 0x1
 12967 016c 13       		.uleb128 0x13
 12968 016d 00       		.byte	0
 12969 016e 00       		.byte	0
 12970 016f 1F       		.uleb128 0x1f
 12971 0170 8A8201   		.uleb128 0x410a
 12972 0173 00       		.byte	0
 12973 0174 02       		.uleb128 0x2
 12974 0175 18       		.uleb128 0x18
 12975 0176 9142     		.uleb128 0x2111
 12976 0178 18       		.uleb128 0x18
 12977 0179 00       		.byte	0
 12978 017a 00       		.byte	0
 12979 017b 20       		.uleb128 0x20
 12980 017c 898201   		.uleb128 0x4109
 12981 017f 00       		.byte	0
 12982 0180 11       		.uleb128 0x11
 12983 0181 01       		.uleb128 0x1
 12984 0182 31       		.uleb128 0x31
 12985 0183 13       		.uleb128 0x13
 12986 0184 00       		.byte	0
 12987 0185 00       		.byte	0
 12988 0186 21       		.uleb128 0x21
 12989 0187 2E       		.uleb128 0x2e
 12990 0188 01       		.byte	0x1
 12991 0189 3F       		.uleb128 0x3f
 12992 018a 19       		.uleb128 0x19
 12993 018b 03       		.uleb128 0x3
 12994 018c 0E       		.uleb128 0xe
ARM GAS  C:\Users\Helon\AppData\Local\Temp\cckZyeCc.s 			page 281


 12995 018d 3A       		.uleb128 0x3a
 12996 018e 0B       		.uleb128 0xb
 12997 018f 3B       		.uleb128 0x3b
 12998 0190 05       		.uleb128 0x5
 12999 0191 27       		.uleb128 0x27
 13000 0192 19       		.uleb128 0x19
 13001 0193 11       		.uleb128 0x11
 13002 0194 01       		.uleb128 0x1
 13003 0195 12       		.uleb128 0x12
 13004 0196 06       		.uleb128 0x6
 13005 0197 40       		.uleb128 0x40
 13006 0198 18       		.uleb128 0x18
 13007 0199 9742     		.uleb128 0x2117
 13008 019b 19       		.uleb128 0x19
 13009 019c 01       		.uleb128 0x1
 13010 019d 13       		.uleb128 0x13
 13011 019e 00       		.byte	0
 13012 019f 00       		.byte	0
 13013 01a0 22       		.uleb128 0x22
 13014 01a1 898201   		.uleb128 0x4109
 13015 01a4 01       		.byte	0x1
 13016 01a5 11       		.uleb128 0x11
 13017 01a6 01       		.uleb128 0x1
 13018 01a7 31       		.uleb128 0x31
 13019 01a8 13       		.uleb128 0x13
 13020 01a9 00       		.byte	0
 13021 01aa 00       		.byte	0
 13022 01ab 23       		.uleb128 0x23
 13023 01ac 34       		.uleb128 0x34
 13024 01ad 00       		.byte	0
 13025 01ae 03       		.uleb128 0x3
 13026 01af 0E       		.uleb128 0xe
 13027 01b0 3A       		.uleb128 0x3a
 13028 01b1 0B       		.uleb128 0xb
 13029 01b2 3B       		.uleb128 0x3b
 13030 01b3 05       		.uleb128 0x5
 13031 01b4 49       		.uleb128 0x49
 13032 01b5 13       		.uleb128 0x13
 13033 01b6 02       		.uleb128 0x2
 13034 01b7 18       		.uleb128 0x18
 13035 01b8 00       		.byte	0
 13036 01b9 00       		.byte	0
 13037 01ba 24       		.uleb128 0x24
 13038 01bb 34       		.uleb128 0x34
 13039 01bc 00       		.byte	0
 13040 01bd 03       		.uleb128 0x3
 13041 01be 0E       		.uleb128 0xe
 13042 01bf 3A       		.uleb128 0x3a
 13043 01c0 0B       		.uleb128 0xb
 13044 01c1 3B       		.uleb128 0x3b
 13045 01c2 05       		.uleb128 0x5
 13046 01c3 49       		.uleb128 0x49
 13047 01c4 13       		.uleb128 0x13
 13048 01c5 02       		.uleb128 0x2
 13049 01c6 17       		.uleb128 0x17
 13050 01c7 00       		.byte	0
 13051 01c8 00       		.byte	0
ARM GAS  C:\Users\Helon\AppData\Local\Temp\cckZyeCc.s 			page 282


 13052 01c9 25       		.uleb128 0x25
 13053 01ca 2E       		.uleb128 0x2e
 13054 01cb 00       		.byte	0
 13055 01cc 3F       		.uleb128 0x3f
 13056 01cd 19       		.uleb128 0x19
 13057 01ce 03       		.uleb128 0x3
 13058 01cf 0E       		.uleb128 0xe
 13059 01d0 3A       		.uleb128 0x3a
 13060 01d1 0B       		.uleb128 0xb
 13061 01d2 3B       		.uleb128 0x3b
 13062 01d3 05       		.uleb128 0x5
 13063 01d4 27       		.uleb128 0x27
 13064 01d5 19       		.uleb128 0x19
 13065 01d6 11       		.uleb128 0x11
 13066 01d7 01       		.uleb128 0x1
 13067 01d8 12       		.uleb128 0x12
 13068 01d9 06       		.uleb128 0x6
 13069 01da 40       		.uleb128 0x40
 13070 01db 18       		.uleb128 0x18
 13071 01dc 9742     		.uleb128 0x2117
 13072 01de 19       		.uleb128 0x19
 13073 01df 00       		.byte	0
 13074 01e0 00       		.byte	0
 13075 01e1 26       		.uleb128 0x26
 13076 01e2 05       		.uleb128 0x5
 13077 01e3 00       		.byte	0
 13078 01e4 03       		.uleb128 0x3
 13079 01e5 0E       		.uleb128 0xe
 13080 01e6 3A       		.uleb128 0x3a
 13081 01e7 0B       		.uleb128 0xb
 13082 01e8 3B       		.uleb128 0x3b
 13083 01e9 05       		.uleb128 0x5
 13084 01ea 49       		.uleb128 0x49
 13085 01eb 13       		.uleb128 0x13
 13086 01ec 02       		.uleb128 0x2
 13087 01ed 18       		.uleb128 0x18
 13088 01ee 00       		.byte	0
 13089 01ef 00       		.byte	0
 13090 01f0 27       		.uleb128 0x27
 13091 01f1 2E       		.uleb128 0x2e
 13092 01f2 01       		.byte	0x1
 13093 01f3 3F       		.uleb128 0x3f
 13094 01f4 19       		.uleb128 0x19
 13095 01f5 03       		.uleb128 0x3
 13096 01f6 0E       		.uleb128 0xe
 13097 01f7 3A       		.uleb128 0x3a
 13098 01f8 0B       		.uleb128 0xb
 13099 01f9 3B       		.uleb128 0x3b
 13100 01fa 05       		.uleb128 0x5
 13101 01fb 27       		.uleb128 0x27
 13102 01fc 19       		.uleb128 0x19
 13103 01fd 49       		.uleb128 0x49
 13104 01fe 13       		.uleb128 0x13
 13105 01ff 11       		.uleb128 0x11
 13106 0200 01       		.uleb128 0x1
 13107 0201 12       		.uleb128 0x12
 13108 0202 06       		.uleb128 0x6
ARM GAS  C:\Users\Helon\AppData\Local\Temp\cckZyeCc.s 			page 283


 13109 0203 40       		.uleb128 0x40
 13110 0204 18       		.uleb128 0x18
 13111 0205 9742     		.uleb128 0x2117
 13112 0207 19       		.uleb128 0x19
 13113 0208 01       		.uleb128 0x1
 13114 0209 13       		.uleb128 0x13
 13115 020a 00       		.byte	0
 13116 020b 00       		.byte	0
 13117 020c 28       		.uleb128 0x28
 13118 020d 05       		.uleb128 0x5
 13119 020e 00       		.byte	0
 13120 020f 03       		.uleb128 0x3
 13121 0210 0E       		.uleb128 0xe
 13122 0211 3A       		.uleb128 0x3a
 13123 0212 0B       		.uleb128 0xb
 13124 0213 3B       		.uleb128 0x3b
 13125 0214 05       		.uleb128 0x5
 13126 0215 49       		.uleb128 0x49
 13127 0216 13       		.uleb128 0x13
 13128 0217 02       		.uleb128 0x2
 13129 0218 17       		.uleb128 0x17
 13130 0219 00       		.byte	0
 13131 021a 00       		.byte	0
 13132 021b 29       		.uleb128 0x29
 13133 021c 34       		.uleb128 0x34
 13134 021d 00       		.byte	0
 13135 021e 03       		.uleb128 0x3
 13136 021f 08       		.uleb128 0x8
 13137 0220 3A       		.uleb128 0x3a
 13138 0221 0B       		.uleb128 0xb
 13139 0222 3B       		.uleb128 0x3b
 13140 0223 05       		.uleb128 0x5
 13141 0224 49       		.uleb128 0x49
 13142 0225 13       		.uleb128 0x13
 13143 0226 02       		.uleb128 0x2
 13144 0227 17       		.uleb128 0x17
 13145 0228 00       		.byte	0
 13146 0229 00       		.byte	0
 13147 022a 2A       		.uleb128 0x2a
 13148 022b 05       		.uleb128 0x5
 13149 022c 00       		.byte	0
 13150 022d 03       		.uleb128 0x3
 13151 022e 08       		.uleb128 0x8
 13152 022f 3A       		.uleb128 0x3a
 13153 0230 0B       		.uleb128 0xb
 13154 0231 3B       		.uleb128 0x3b
 13155 0232 05       		.uleb128 0x5
 13156 0233 49       		.uleb128 0x49
 13157 0234 13       		.uleb128 0x13
 13158 0235 02       		.uleb128 0x2
 13159 0236 17       		.uleb128 0x17
 13160 0237 00       		.byte	0
 13161 0238 00       		.byte	0
 13162 0239 2B       		.uleb128 0x2b
 13163 023a 34       		.uleb128 0x34
 13164 023b 00       		.byte	0
 13165 023c 03       		.uleb128 0x3
ARM GAS  C:\Users\Helon\AppData\Local\Temp\cckZyeCc.s 			page 284


 13166 023d 0E       		.uleb128 0xe
 13167 023e 3A       		.uleb128 0x3a
 13168 023f 0B       		.uleb128 0xb
 13169 0240 3B       		.uleb128 0x3b
 13170 0241 05       		.uleb128 0x5
 13171 0242 49       		.uleb128 0x49
 13172 0243 13       		.uleb128 0x13
 13173 0244 1C       		.uleb128 0x1c
 13174 0245 0B       		.uleb128 0xb
 13175 0246 00       		.byte	0
 13176 0247 00       		.byte	0
 13177 0248 2C       		.uleb128 0x2c
 13178 0249 0B       		.uleb128 0xb
 13179 024a 01       		.byte	0x1
 13180 024b 11       		.uleb128 0x11
 13181 024c 01       		.uleb128 0x1
 13182 024d 12       		.uleb128 0x12
 13183 024e 06       		.uleb128 0x6
 13184 024f 01       		.uleb128 0x1
 13185 0250 13       		.uleb128 0x13
 13186 0251 00       		.byte	0
 13187 0252 00       		.byte	0
 13188 0253 2D       		.uleb128 0x2d
 13189 0254 0B       		.uleb128 0xb
 13190 0255 01       		.byte	0x1
 13191 0256 11       		.uleb128 0x11
 13192 0257 01       		.uleb128 0x1
 13193 0258 12       		.uleb128 0x12
 13194 0259 06       		.uleb128 0x6
 13195 025a 00       		.byte	0
 13196 025b 00       		.byte	0
 13197 025c 2E       		.uleb128 0x2e
 13198 025d 2E       		.uleb128 0x2e
 13199 025e 01       		.byte	0x1
 13200 025f 3F       		.uleb128 0x3f
 13201 0260 19       		.uleb128 0x19
 13202 0261 03       		.uleb128 0x3
 13203 0262 0E       		.uleb128 0xe
 13204 0263 3A       		.uleb128 0x3a
 13205 0264 0B       		.uleb128 0xb
 13206 0265 3B       		.uleb128 0x3b
 13207 0266 05       		.uleb128 0x5
 13208 0267 27       		.uleb128 0x27
 13209 0268 19       		.uleb128 0x19
 13210 0269 11       		.uleb128 0x11
 13211 026a 01       		.uleb128 0x1
 13212 026b 12       		.uleb128 0x12
 13213 026c 06       		.uleb128 0x6
 13214 026d 40       		.uleb128 0x40
 13215 026e 18       		.uleb128 0x18
 13216 026f 9642     		.uleb128 0x2116
 13217 0271 19       		.uleb128 0x19
 13218 0272 01       		.uleb128 0x1
 13219 0273 13       		.uleb128 0x13
 13220 0274 00       		.byte	0
 13221 0275 00       		.byte	0
 13222 0276 2F       		.uleb128 0x2f
ARM GAS  C:\Users\Helon\AppData\Local\Temp\cckZyeCc.s 			page 285


 13223 0277 34       		.uleb128 0x34
 13224 0278 00       		.byte	0
 13225 0279 34       		.uleb128 0x34
 13226 027a 19       		.uleb128 0x19
 13227 027b 49       		.uleb128 0x49
 13228 027c 13       		.uleb128 0x13
 13229 027d 02       		.uleb128 0x2
 13230 027e 17       		.uleb128 0x17
 13231 027f 00       		.byte	0
 13232 0280 00       		.byte	0
 13233 0281 30       		.uleb128 0x30
 13234 0282 21       		.uleb128 0x21
 13235 0283 00       		.byte	0
 13236 0284 49       		.uleb128 0x49
 13237 0285 13       		.uleb128 0x13
 13238 0286 2F       		.uleb128 0x2f
 13239 0287 13       		.uleb128 0x13
 13240 0288 00       		.byte	0
 13241 0289 00       		.byte	0
 13242 028a 31       		.uleb128 0x31
 13243 028b 34       		.uleb128 0x34
 13244 028c 00       		.byte	0
 13245 028d 03       		.uleb128 0x3
 13246 028e 0E       		.uleb128 0xe
 13247 028f 3A       		.uleb128 0x3a
 13248 0290 0B       		.uleb128 0xb
 13249 0291 3B       		.uleb128 0x3b
 13250 0292 0B       		.uleb128 0xb
 13251 0293 49       		.uleb128 0x49
 13252 0294 13       		.uleb128 0x13
 13253 0295 3F       		.uleb128 0x3f
 13254 0296 19       		.uleb128 0x19
 13255 0297 3C       		.uleb128 0x3c
 13256 0298 19       		.uleb128 0x19
 13257 0299 00       		.byte	0
 13258 029a 00       		.byte	0
 13259 029b 32       		.uleb128 0x32
 13260 029c 34       		.uleb128 0x34
 13261 029d 00       		.byte	0
 13262 029e 03       		.uleb128 0x3
 13263 029f 0E       		.uleb128 0xe
 13264 02a0 3A       		.uleb128 0x3a
 13265 02a1 0B       		.uleb128 0xb
 13266 02a2 3B       		.uleb128 0x3b
 13267 02a3 05       		.uleb128 0x5
 13268 02a4 49       		.uleb128 0x49
 13269 02a5 13       		.uleb128 0x13
 13270 02a6 3F       		.uleb128 0x3f
 13271 02a7 19       		.uleb128 0x19
 13272 02a8 3C       		.uleb128 0x3c
 13273 02a9 19       		.uleb128 0x19
 13274 02aa 00       		.byte	0
 13275 02ab 00       		.byte	0
 13276 02ac 33       		.uleb128 0x33
 13277 02ad 34       		.uleb128 0x34
 13278 02ae 00       		.byte	0
 13279 02af 03       		.uleb128 0x3
ARM GAS  C:\Users\Helon\AppData\Local\Temp\cckZyeCc.s 			page 286


 13280 02b0 0E       		.uleb128 0xe
 13281 02b1 3A       		.uleb128 0x3a
 13282 02b2 0B       		.uleb128 0xb
 13283 02b3 3B       		.uleb128 0x3b
 13284 02b4 0B       		.uleb128 0xb
 13285 02b5 49       		.uleb128 0x49
 13286 02b6 13       		.uleb128 0x13
 13287 02b7 3F       		.uleb128 0x3f
 13288 02b8 19       		.uleb128 0x19
 13289 02b9 02       		.uleb128 0x2
 13290 02ba 18       		.uleb128 0x18
 13291 02bb 00       		.byte	0
 13292 02bc 00       		.byte	0
 13293 02bd 34       		.uleb128 0x34
 13294 02be 2E       		.uleb128 0x2e
 13295 02bf 01       		.byte	0x1
 13296 02c0 3F       		.uleb128 0x3f
 13297 02c1 19       		.uleb128 0x19
 13298 02c2 03       		.uleb128 0x3
 13299 02c3 0E       		.uleb128 0xe
 13300 02c4 3A       		.uleb128 0x3a
 13301 02c5 0B       		.uleb128 0xb
 13302 02c6 3B       		.uleb128 0x3b
 13303 02c7 0B       		.uleb128 0xb
 13304 02c8 6E       		.uleb128 0x6e
 13305 02c9 0E       		.uleb128 0xe
 13306 02ca 27       		.uleb128 0x27
 13307 02cb 19       		.uleb128 0x19
 13308 02cc 49       		.uleb128 0x49
 13309 02cd 13       		.uleb128 0x13
 13310 02ce 3C       		.uleb128 0x3c
 13311 02cf 19       		.uleb128 0x19
 13312 02d0 01       		.uleb128 0x1
 13313 02d1 13       		.uleb128 0x13
 13314 02d2 00       		.byte	0
 13315 02d3 00       		.byte	0
 13316 02d4 35       		.uleb128 0x35
 13317 02d5 2E       		.uleb128 0x2e
 13318 02d6 00       		.byte	0
 13319 02d7 3F       		.uleb128 0x3f
 13320 02d8 19       		.uleb128 0x19
 13321 02d9 03       		.uleb128 0x3
 13322 02da 0E       		.uleb128 0xe
 13323 02db 3A       		.uleb128 0x3a
 13324 02dc 0B       		.uleb128 0xb
 13325 02dd 3B       		.uleb128 0x3b
 13326 02de 05       		.uleb128 0x5
 13327 02df 27       		.uleb128 0x27
 13328 02e0 19       		.uleb128 0x19
 13329 02e1 49       		.uleb128 0x49
 13330 02e2 13       		.uleb128 0x13
 13331 02e3 3C       		.uleb128 0x3c
 13332 02e4 19       		.uleb128 0x19
 13333 02e5 00       		.byte	0
 13334 02e6 00       		.byte	0
 13335 02e7 36       		.uleb128 0x36
 13336 02e8 2E       		.uleb128 0x2e
ARM GAS  C:\Users\Helon\AppData\Local\Temp\cckZyeCc.s 			page 287


 13337 02e9 01       		.byte	0x1
 13338 02ea 3F       		.uleb128 0x3f
 13339 02eb 19       		.uleb128 0x19
 13340 02ec 03       		.uleb128 0x3
 13341 02ed 0E       		.uleb128 0xe
 13342 02ee 3A       		.uleb128 0x3a
 13343 02ef 0B       		.uleb128 0xb
 13344 02f0 3B       		.uleb128 0x3b
 13345 02f1 0B       		.uleb128 0xb
 13346 02f2 27       		.uleb128 0x27
 13347 02f3 19       		.uleb128 0x19
 13348 02f4 3C       		.uleb128 0x3c
 13349 02f5 19       		.uleb128 0x19
 13350 02f6 01       		.uleb128 0x1
 13351 02f7 13       		.uleb128 0x13
 13352 02f8 00       		.byte	0
 13353 02f9 00       		.byte	0
 13354 02fa 37       		.uleb128 0x37
 13355 02fb 2E       		.uleb128 0x2e
 13356 02fc 00       		.byte	0
 13357 02fd 3F       		.uleb128 0x3f
 13358 02fe 19       		.uleb128 0x19
 13359 02ff 03       		.uleb128 0x3
 13360 0300 0E       		.uleb128 0xe
 13361 0301 3A       		.uleb128 0x3a
 13362 0302 0B       		.uleb128 0xb
 13363 0303 3B       		.uleb128 0x3b
 13364 0304 05       		.uleb128 0x5
 13365 0305 27       		.uleb128 0x27
 13366 0306 19       		.uleb128 0x19
 13367 0307 3C       		.uleb128 0x3c
 13368 0308 19       		.uleb128 0x19
 13369 0309 00       		.byte	0
 13370 030a 00       		.byte	0
 13371 030b 38       		.uleb128 0x38
 13372 030c 2E       		.uleb128 0x2e
 13373 030d 01       		.byte	0x1
 13374 030e 3F       		.uleb128 0x3f
 13375 030f 19       		.uleb128 0x19
 13376 0310 03       		.uleb128 0x3
 13377 0311 0E       		.uleb128 0xe
 13378 0312 27       		.uleb128 0x27
 13379 0313 19       		.uleb128 0x19
 13380 0314 49       		.uleb128 0x49
 13381 0315 13       		.uleb128 0x13
 13382 0316 34       		.uleb128 0x34
 13383 0317 19       		.uleb128 0x19
 13384 0318 3C       		.uleb128 0x3c
 13385 0319 19       		.uleb128 0x19
 13386 031a 01       		.uleb128 0x1
 13387 031b 13       		.uleb128 0x13
 13388 031c 00       		.byte	0
 13389 031d 00       		.byte	0
 13390 031e 39       		.uleb128 0x39
 13391 031f 26       		.uleb128 0x26
 13392 0320 00       		.byte	0
 13393 0321 00       		.byte	0
ARM GAS  C:\Users\Helon\AppData\Local\Temp\cckZyeCc.s 			page 288


 13394 0322 00       		.byte	0
 13395 0323 3A       		.uleb128 0x3a
 13396 0324 2E       		.uleb128 0x2e
 13397 0325 01       		.byte	0x1
 13398 0326 3F       		.uleb128 0x3f
 13399 0327 19       		.uleb128 0x19
 13400 0328 03       		.uleb128 0x3
 13401 0329 0E       		.uleb128 0xe
 13402 032a 3A       		.uleb128 0x3a
 13403 032b 0B       		.uleb128 0xb
 13404 032c 3B       		.uleb128 0x3b
 13405 032d 0B       		.uleb128 0xb
 13406 032e 27       		.uleb128 0x27
 13407 032f 19       		.uleb128 0x19
 13408 0330 49       		.uleb128 0x49
 13409 0331 13       		.uleb128 0x13
 13410 0332 3C       		.uleb128 0x3c
 13411 0333 19       		.uleb128 0x19
 13412 0334 01       		.uleb128 0x1
 13413 0335 13       		.uleb128 0x13
 13414 0336 00       		.byte	0
 13415 0337 00       		.byte	0
 13416 0338 3B       		.uleb128 0x3b
 13417 0339 18       		.uleb128 0x18
 13418 033a 00       		.byte	0
 13419 033b 00       		.byte	0
 13420 033c 00       		.byte	0
 13421 033d 3C       		.uleb128 0x3c
 13422 033e 2E       		.uleb128 0x2e
 13423 033f 01       		.byte	0x1
 13424 0340 3F       		.uleb128 0x3f
 13425 0341 19       		.uleb128 0x19
 13426 0342 03       		.uleb128 0x3
 13427 0343 0E       		.uleb128 0xe
 13428 0344 3A       		.uleb128 0x3a
 13429 0345 0B       		.uleb128 0xb
 13430 0346 3B       		.uleb128 0x3b
 13431 0347 05       		.uleb128 0x5
 13432 0348 27       		.uleb128 0x27
 13433 0349 19       		.uleb128 0x19
 13434 034a 49       		.uleb128 0x49
 13435 034b 13       		.uleb128 0x13
 13436 034c 3C       		.uleb128 0x3c
 13437 034d 19       		.uleb128 0x19
 13438 034e 01       		.uleb128 0x1
 13439 034f 13       		.uleb128 0x13
 13440 0350 00       		.byte	0
 13441 0351 00       		.byte	0
 13442 0352 3D       		.uleb128 0x3d
 13443 0353 2E       		.uleb128 0x2e
 13444 0354 01       		.byte	0x1
 13445 0355 3F       		.uleb128 0x3f
 13446 0356 19       		.uleb128 0x19
 13447 0357 03       		.uleb128 0x3
 13448 0358 0E       		.uleb128 0xe
 13449 0359 3A       		.uleb128 0x3a
 13450 035a 0B       		.uleb128 0xb
ARM GAS  C:\Users\Helon\AppData\Local\Temp\cckZyeCc.s 			page 289


 13451 035b 3B       		.uleb128 0x3b
 13452 035c 05       		.uleb128 0x5
 13453 035d 27       		.uleb128 0x27
 13454 035e 19       		.uleb128 0x19
 13455 035f 3C       		.uleb128 0x3c
 13456 0360 19       		.uleb128 0x19
 13457 0361 01       		.uleb128 0x1
 13458 0362 13       		.uleb128 0x13
 13459 0363 00       		.byte	0
 13460 0364 00       		.byte	0
 13461 0365 3E       		.uleb128 0x3e
 13462 0366 2E       		.uleb128 0x2e
 13463 0367 00       		.byte	0
 13464 0368 3F       		.uleb128 0x3f
 13465 0369 19       		.uleb128 0x19
 13466 036a 03       		.uleb128 0x3
 13467 036b 0E       		.uleb128 0xe
 13468 036c 3A       		.uleb128 0x3a
 13469 036d 0B       		.uleb128 0xb
 13470 036e 3B       		.uleb128 0x3b
 13471 036f 0B       		.uleb128 0xb
 13472 0370 27       		.uleb128 0x27
 13473 0371 19       		.uleb128 0x19
 13474 0372 3C       		.uleb128 0x3c
 13475 0373 19       		.uleb128 0x19
 13476 0374 00       		.byte	0
 13477 0375 00       		.byte	0
 13478 0376 3F       		.uleb128 0x3f
 13479 0377 2E       		.uleb128 0x2e
 13480 0378 00       		.byte	0
 13481 0379 3F       		.uleb128 0x3f
 13482 037a 19       		.uleb128 0x19
 13483 037b 03       		.uleb128 0x3
 13484 037c 0E       		.uleb128 0xe
 13485 037d 3A       		.uleb128 0x3a
 13486 037e 0B       		.uleb128 0xb
 13487 037f 3B       		.uleb128 0x3b
 13488 0380 0B       		.uleb128 0xb
 13489 0381 27       		.uleb128 0x27
 13490 0382 19       		.uleb128 0x19
 13491 0383 49       		.uleb128 0x49
 13492 0384 13       		.uleb128 0x13
 13493 0385 3C       		.uleb128 0x3c
 13494 0386 19       		.uleb128 0x19
 13495 0387 00       		.byte	0
 13496 0388 00       		.byte	0
 13497 0389 00       		.byte	0
 13498              		.section	.debug_loc,"",%progbits
 13499              	.Ldebug_loc0:
 13500              	.LLST0:
 13501 0000 00000000 		.4byte	.LVL0
 13502 0004 0E000000 		.4byte	.LVL2
 13503 0008 0100     		.2byte	0x1
 13504 000a 50       		.byte	0x50
 13505 000b 0E000000 		.4byte	.LVL2
 13506 000f C0020000 		.4byte	.LFE35
 13507 0013 0400     		.2byte	0x4
ARM GAS  C:\Users\Helon\AppData\Local\Temp\cckZyeCc.s 			page 290


 13508 0015 F3       		.byte	0xf3
 13509 0016 01       		.uleb128 0x1
 13510 0017 50       		.byte	0x50
 13511 0018 9F       		.byte	0x9f
 13512 0019 00000000 		.4byte	0
 13513 001d 00000000 		.4byte	0
 13514              	.LLST1:
 13515 0021 00000000 		.4byte	.LVL0
 13516 0025 19000000 		.4byte	.LVL3-1
 13517 0029 0100     		.2byte	0x1
 13518 002b 51       		.byte	0x51
 13519 002c 19000000 		.4byte	.LVL3-1
 13520 0030 34000000 		.4byte	.LVL5
 13521 0034 0100     		.2byte	0x1
 13522 0036 54       		.byte	0x54
 13523 0037 34000000 		.4byte	.LVL5
 13524 003b 3C000000 		.4byte	.LVL6
 13525 003f 0100     		.2byte	0x1
 13526 0041 51       		.byte	0x51
 13527 0042 3C000000 		.4byte	.LVL6
 13528 0046 40000000 		.4byte	.LVL7
 13529 004a 0300     		.2byte	0x3
 13530 004c 74       		.byte	0x74
 13531 004d 74       		.sleb128 -12
 13532 004e 9F       		.byte	0x9f
 13533 004f 40000000 		.4byte	.LVL7
 13534 0053 46000000 		.4byte	.LVL9
 13535 0057 0300     		.2byte	0x3
 13536 0059 74       		.byte	0x74
 13537 005a 6C       		.sleb128 -20
 13538 005b 9F       		.byte	0x9f
 13539 005c 46000000 		.4byte	.LVL9
 13540 0060 5B000000 		.4byte	.LVL10-1
 13541 0064 0100     		.2byte	0x1
 13542 0066 51       		.byte	0x51
 13543 0067 5B000000 		.4byte	.LVL10-1
 13544 006b 5E000000 		.4byte	.LVL11
 13545 006f 0100     		.2byte	0x1
 13546 0071 54       		.byte	0x54
 13547 0072 5E000000 		.4byte	.LVL11
 13548 0076 69000000 		.4byte	.LVL12-1
 13549 007a 0100     		.2byte	0x1
 13550 007c 51       		.byte	0x51
 13551 007d 69000000 		.4byte	.LVL12-1
 13552 0081 72000000 		.4byte	.LVL14
 13553 0085 0100     		.2byte	0x1
 13554 0087 54       		.byte	0x54
 13555 0088 72000000 		.4byte	.LVL14
 13556 008c 79000000 		.4byte	.LVL15-1
 13557 0090 0100     		.2byte	0x1
 13558 0092 51       		.byte	0x51
 13559 0093 79000000 		.4byte	.LVL15-1
 13560 0097 A2000000 		.4byte	.LVL19
 13561 009b 0100     		.2byte	0x1
 13562 009d 54       		.byte	0x54
 13563 009e A2000000 		.4byte	.LVL19
 13564 00a2 A9000000 		.4byte	.LVL20-1
ARM GAS  C:\Users\Helon\AppData\Local\Temp\cckZyeCc.s 			page 291


 13565 00a6 0100     		.2byte	0x1
 13566 00a8 51       		.byte	0x51
 13567 00a9 A9000000 		.4byte	.LVL20-1
 13568 00ad B2000000 		.4byte	.LVL22
 13569 00b1 0100     		.2byte	0x1
 13570 00b3 54       		.byte	0x54
 13571 00b4 B2000000 		.4byte	.LVL22
 13572 00b8 C2000000 		.4byte	.LVL23
 13573 00bc 0100     		.2byte	0x1
 13574 00be 51       		.byte	0x51
 13575 00bf C2000000 		.4byte	.LVL23
 13576 00c3 D6000000 		.4byte	.LVL25
 13577 00c7 0100     		.2byte	0x1
 13578 00c9 54       		.byte	0x54
 13579 00ca D6000000 		.4byte	.LVL25
 13580 00ce DC000000 		.4byte	.LVL26
 13581 00d2 0100     		.2byte	0x1
 13582 00d4 51       		.byte	0x51
 13583 00d5 DC000000 		.4byte	.LVL26
 13584 00d9 EC000000 		.4byte	.LVL27
 13585 00dd 0100     		.2byte	0x1
 13586 00df 54       		.byte	0x54
 13587 00e0 EC000000 		.4byte	.LVL27
 13588 00e4 F6000000 		.4byte	.LVL28
 13589 00e8 0100     		.2byte	0x1
 13590 00ea 51       		.byte	0x51
 13591 00eb F6000000 		.4byte	.LVL28
 13592 00ef 3A010000 		.4byte	.LVL32
 13593 00f3 0100     		.2byte	0x1
 13594 00f5 54       		.byte	0x54
 13595 00f6 3A010000 		.4byte	.LVL32
 13596 00fa 40010000 		.4byte	.LVL33
 13597 00fe 0100     		.2byte	0x1
 13598 0100 51       		.byte	0x51
 13599 0101 40010000 		.4byte	.LVL33
 13600 0105 58010000 		.4byte	.LVL34
 13601 0109 0300     		.2byte	0x3
 13602 010b 74       		.byte	0x74
 13603 010c 74       		.sleb128 -12
 13604 010d 9F       		.byte	0x9f
 13605 010e 58010000 		.4byte	.LVL34
 13606 0112 9E010000 		.4byte	.LVL42
 13607 0116 0400     		.2byte	0x4
 13608 0118 F3       		.byte	0xf3
 13609 0119 01       		.uleb128 0x1
 13610 011a 51       		.byte	0x51
 13611 011b 9F       		.byte	0x9f
 13612 011c 9E010000 		.4byte	.LVL42
 13613 0120 AB010000 		.4byte	.LVL43-1
 13614 0124 0100     		.2byte	0x1
 13615 0126 51       		.byte	0x51
 13616 0127 AB010000 		.4byte	.LVL43-1
 13617 012b B2010000 		.4byte	.LVL45
 13618 012f 0100     		.2byte	0x1
 13619 0131 54       		.byte	0x54
 13620 0132 B2010000 		.4byte	.LVL45
 13621 0136 CE010000 		.4byte	.LVL47
ARM GAS  C:\Users\Helon\AppData\Local\Temp\cckZyeCc.s 			page 292


 13622 013a 0100     		.2byte	0x1
 13623 013c 51       		.byte	0x51
 13624 013d CE010000 		.4byte	.LVL47
 13625 0141 D6010000 		.4byte	.LVL48
 13626 0145 0100     		.2byte	0x1
 13627 0147 54       		.byte	0x54
 13628 0148 D6010000 		.4byte	.LVL48
 13629 014c E9010000 		.4byte	.LVL50-1
 13630 0150 0100     		.2byte	0x1
 13631 0152 51       		.byte	0x51
 13632 0153 E9010000 		.4byte	.LVL50-1
 13633 0157 0C020000 		.4byte	.LVL56
 13634 015b 0100     		.2byte	0x1
 13635 015d 54       		.byte	0x54
 13636 015e 0C020000 		.4byte	.LVL56
 13637 0162 12020000 		.4byte	.LVL57
 13638 0166 0100     		.2byte	0x1
 13639 0168 51       		.byte	0x51
 13640 0169 12020000 		.4byte	.LVL57
 13641 016d 1A020000 		.4byte	.LVL58
 13642 0171 0300     		.2byte	0x3
 13643 0173 74       		.byte	0x74
 13644 0174 74       		.sleb128 -12
 13645 0175 9F       		.byte	0x9f
 13646 0176 1A020000 		.4byte	.LVL58
 13647 017a 40020000 		.4byte	.LVL63
 13648 017e 0400     		.2byte	0x4
 13649 0180 F3       		.byte	0xf3
 13650 0181 01       		.uleb128 0x1
 13651 0182 51       		.byte	0x51
 13652 0183 9F       		.byte	0x9f
 13653 0184 40020000 		.4byte	.LVL63
 13654 0188 4E020000 		.4byte	.LVL64
 13655 018c 0100     		.2byte	0x1
 13656 018e 51       		.byte	0x51
 13657 018f 4E020000 		.4byte	.LVL64
 13658 0193 52020000 		.4byte	.LVL65
 13659 0197 0100     		.2byte	0x1
 13660 0199 54       		.byte	0x54
 13661 019a 52020000 		.4byte	.LVL65
 13662 019e C0020000 		.4byte	.LFE35
 13663 01a2 0400     		.2byte	0x4
 13664 01a4 F3       		.byte	0xf3
 13665 01a5 01       		.uleb128 0x1
 13666 01a6 51       		.byte	0x51
 13667 01a7 9F       		.byte	0x9f
 13668 01a8 00000000 		.4byte	0
 13669 01ac 00000000 		.4byte	0
 13670              	.LLST2:
 13671 01b0 04000000 		.4byte	.LVL1
 13672 01b4 5A010000 		.4byte	.LVL35
 13673 01b8 0200     		.2byte	0x2
 13674 01ba 30       		.byte	0x30
 13675 01bb 9F       		.byte	0x9f
 13676 01bc 5A010000 		.4byte	.LVL35
 13677 01c0 64010000 		.4byte	.LVL37
 13678 01c4 0100     		.2byte	0x1
ARM GAS  C:\Users\Helon\AppData\Local\Temp\cckZyeCc.s 			page 293


 13679 01c6 54       		.byte	0x54
 13680 01c7 66010000 		.4byte	.LVL38
 13681 01cb 72010000 		.4byte	.LVL39
 13682 01cf 0100     		.2byte	0x1
 13683 01d1 54       		.byte	0x54
 13684 01d2 9E010000 		.4byte	.LVL42
 13685 01d6 EE010000 		.4byte	.LVL51
 13686 01da 0200     		.2byte	0x2
 13687 01dc 30       		.byte	0x30
 13688 01dd 9F       		.byte	0x9f
 13689 01de EE010000 		.4byte	.LVL51
 13690 01e2 FA010000 		.4byte	.LVL53
 13691 01e6 0100     		.2byte	0x1
 13692 01e8 55       		.byte	0x55
 13693 01e9 FC010000 		.4byte	.LVL54
 13694 01ed 0C020000 		.4byte	.LVL56
 13695 01f1 0100     		.2byte	0x1
 13696 01f3 55       		.byte	0x55
 13697 01f4 0C020000 		.4byte	.LVL56
 13698 01f8 1C020000 		.4byte	.LVL59
 13699 01fc 0200     		.2byte	0x2
 13700 01fe 30       		.byte	0x30
 13701 01ff 9F       		.byte	0x9f
 13702 0200 1C020000 		.4byte	.LVL59
 13703 0204 32020000 		.4byte	.LVL61
 13704 0208 0100     		.2byte	0x1
 13705 020a 54       		.byte	0x54
 13706 020b 34020000 		.4byte	.LVL62
 13707 020f 40020000 		.4byte	.LVL63
 13708 0213 0100     		.2byte	0x1
 13709 0215 54       		.byte	0x54
 13710 0216 40020000 		.4byte	.LVL63
 13711 021a 52020000 		.4byte	.LVL65
 13712 021e 0200     		.2byte	0x2
 13713 0220 30       		.byte	0x30
 13714 0221 9F       		.byte	0x9f
 13715 0222 00000000 		.4byte	0
 13716 0226 00000000 		.4byte	0
 13717              	.LLST3:
 13718 022a C2010000 		.4byte	.LVL46
 13719 022e CE010000 		.4byte	.LVL47
 13720 0232 0100     		.2byte	0x1
 13721 0234 51       		.byte	0x51
 13722 0235 CE010000 		.4byte	.LVL47
 13723 0239 D6010000 		.4byte	.LVL48
 13724 023d 0100     		.2byte	0x1
 13725 023f 54       		.byte	0x54
 13726 0240 DE010000 		.4byte	.LVL49
 13727 0244 E9010000 		.4byte	.LVL50-1
 13728 0248 0100     		.2byte	0x1
 13729 024a 51       		.byte	0x51
 13730 024b E9010000 		.4byte	.LVL50-1
 13731 024f 0C020000 		.4byte	.LVL56
 13732 0253 0100     		.2byte	0x1
 13733 0255 54       		.byte	0x54
 13734 0256 00000000 		.4byte	0
 13735 025a 00000000 		.4byte	0
ARM GAS  C:\Users\Helon\AppData\Local\Temp\cckZyeCc.s 			page 294


 13736              	.LLST4:
 13737 025e 0A000000 		.4byte	.LVL73
 13738 0262 0F000000 		.4byte	.LVL74-1
 13739 0266 0100     		.2byte	0x1
 13740 0268 50       		.byte	0x50
 13741 0269 0F000000 		.4byte	.LVL74-1
 13742 026d 5A000000 		.4byte	.LVL82
 13743 0271 0100     		.2byte	0x1
 13744 0273 54       		.byte	0x54
 13745 0274 00000000 		.4byte	0
 13746 0278 00000000 		.4byte	0
 13747              	.LLST5:
 13748 027c 10000000 		.4byte	.LVL74
 13749 0280 1E000000 		.4byte	.LVL75
 13750 0284 0100     		.2byte	0x1
 13751 0286 50       		.byte	0x50
 13752 0287 4C000000 		.4byte	.LVL80
 13753 028b 57000000 		.4byte	.LVL81-1
 13754 028f 0100     		.2byte	0x1
 13755 0291 50       		.byte	0x50
 13756 0292 00000000 		.4byte	0
 13757 0296 00000000 		.4byte	0
 13758              	.LLST6:
 13759 029a 00000000 		.4byte	.LVL96
 13760 029e 0D000000 		.4byte	.LVL98-1
 13761 02a2 0100     		.2byte	0x1
 13762 02a4 50       		.byte	0x50
 13763 02a5 0D000000 		.4byte	.LVL98-1
 13764 02a9 32000000 		.4byte	.LVL105
 13765 02ad 0100     		.2byte	0x1
 13766 02af 54       		.byte	0x54
 13767 02b0 32000000 		.4byte	.LVL105
 13768 02b4 5A000000 		.4byte	.LVL111
 13769 02b8 0400     		.2byte	0x4
 13770 02ba F3       		.byte	0xf3
 13771 02bb 01       		.uleb128 0x1
 13772 02bc 50       		.byte	0x50
 13773 02bd 9F       		.byte	0x9f
 13774 02be 5A000000 		.4byte	.LVL111
 13775 02c2 5C000000 		.4byte	.LVL112
 13776 02c6 0100     		.2byte	0x1
 13777 02c8 50       		.byte	0x50
 13778 02c9 5C000000 		.4byte	.LVL112
 13779 02cd 5E000000 		.4byte	.LVL113
 13780 02d1 0400     		.2byte	0x4
 13781 02d3 F3       		.byte	0xf3
 13782 02d4 01       		.uleb128 0x1
 13783 02d5 50       		.byte	0x50
 13784 02d6 9F       		.byte	0x9f
 13785 02d7 5E000000 		.4byte	.LVL113
 13786 02db 60000000 		.4byte	.LVL114
 13787 02df 0100     		.2byte	0x1
 13788 02e1 54       		.byte	0x54
 13789 02e2 60000000 		.4byte	.LVL114
 13790 02e6 6C000000 		.4byte	.LFE44
 13791 02ea 0400     		.2byte	0x4
 13792 02ec F3       		.byte	0xf3
ARM GAS  C:\Users\Helon\AppData\Local\Temp\cckZyeCc.s 			page 295


 13793 02ed 01       		.uleb128 0x1
 13794 02ee 50       		.byte	0x50
 13795 02ef 9F       		.byte	0x9f
 13796 02f0 00000000 		.4byte	0
 13797 02f4 00000000 		.4byte	0
 13798              	.LLST7:
 13799 02f8 08000000 		.4byte	.LVL97
 13800 02fc 30000000 		.4byte	.LVL104
 13801 0300 0200     		.2byte	0x2
 13802 0302 30       		.byte	0x30
 13803 0303 9F       		.byte	0x9f
 13804 0304 30000000 		.4byte	.LVL104
 13805 0308 5A000000 		.4byte	.LVL111
 13806 030c 0200     		.2byte	0x2
 13807 030e 4B       		.byte	0x4b
 13808 030f 9F       		.byte	0x9f
 13809 0310 5E000000 		.4byte	.LVL113
 13810 0314 60000000 		.4byte	.LVL114
 13811 0318 0200     		.2byte	0x2
 13812 031a 30       		.byte	0x30
 13813 031b 9F       		.byte	0x9f
 13814 031c 00000000 		.4byte	0
 13815 0320 00000000 		.4byte	0
 13816              	.LLST8:
 13817 0324 08000000 		.4byte	.LVL97
 13818 0328 34000000 		.4byte	.LVL106
 13819 032c 0200     		.2byte	0x2
 13820 032e 30       		.byte	0x30
 13821 032f 9F       		.byte	0x9f
 13822 0330 34000000 		.4byte	.LVL106
 13823 0334 4A000000 		.4byte	.LVL108
 13824 0338 0100     		.2byte	0x1
 13825 033a 54       		.byte	0x54
 13826 033b 4C000000 		.4byte	.LVL109
 13827 033f 5A000000 		.4byte	.LVL111
 13828 0343 0100     		.2byte	0x1
 13829 0345 54       		.byte	0x54
 13830 0346 5E000000 		.4byte	.LVL113
 13831 034a 60000000 		.4byte	.LVL114
 13832 034e 0200     		.2byte	0x2
 13833 0350 30       		.byte	0x30
 13834 0351 9F       		.byte	0x9f
 13835 0352 00000000 		.4byte	0
 13836 0356 00000000 		.4byte	0
 13837              	.LLST9:
 13838 035a 1C000000 		.4byte	.LVL100
 13839 035e 22000000 		.4byte	.LVL101
 13840 0362 0100     		.2byte	0x1
 13841 0364 50       		.byte	0x50
 13842 0365 00000000 		.4byte	0
 13843 0369 00000000 		.4byte	0
 13844              	.LLST10:
 13845 036d 28000000 		.4byte	.LVL103
 13846 0371 2F000000 		.4byte	.LVL104-1
 13847 0375 0100     		.2byte	0x1
 13848 0377 50       		.byte	0x50
 13849 0378 2F000000 		.4byte	.LVL104-1
ARM GAS  C:\Users\Helon\AppData\Local\Temp\cckZyeCc.s 			page 296


 13850 037c 5A000000 		.4byte	.LVL111
 13851 0380 0100     		.2byte	0x1
 13852 0382 56       		.byte	0x56
 13853 0383 00000000 		.4byte	0
 13854 0387 00000000 		.4byte	0
 13855              	.LLST11:
 13856 038b 00000000 		.4byte	.LVL115
 13857 038f 16000000 		.4byte	.LVL118
 13858 0393 0100     		.2byte	0x1
 13859 0395 50       		.byte	0x50
 13860 0396 16000000 		.4byte	.LVL118
 13861 039a 1F000000 		.4byte	.LVL119-1
 13862 039e 0200     		.2byte	0x2
 13863 03a0 73       		.byte	0x73
 13864 03a1 00       		.sleb128 0
 13865 03a2 1F000000 		.4byte	.LVL119-1
 13866 03a6 34000000 		.4byte	.LFE46
 13867 03aa 0400     		.2byte	0x4
 13868 03ac F3       		.byte	0xf3
 13869 03ad 01       		.uleb128 0x1
 13870 03ae 50       		.byte	0x50
 13871 03af 9F       		.byte	0x9f
 13872 03b0 00000000 		.4byte	0
 13873 03b4 00000000 		.4byte	0
 13874              	.LLST12:
 13875 03b8 00000000 		.4byte	.LVL115
 13876 03bc 0E000000 		.4byte	.LVL117
 13877 03c0 0100     		.2byte	0x1
 13878 03c2 51       		.byte	0x51
 13879 03c3 0E000000 		.4byte	.LVL117
 13880 03c7 34000000 		.4byte	.LFE46
 13881 03cb 0400     		.2byte	0x4
 13882 03cd F3       		.byte	0xf3
 13883 03ce 01       		.uleb128 0x1
 13884 03cf 51       		.byte	0x51
 13885 03d0 9F       		.byte	0x9f
 13886 03d1 00000000 		.4byte	0
 13887 03d5 00000000 		.4byte	0
 13888              	.LLST13:
 13889 03d9 00000000 		.4byte	.LVL121
 13890 03dd 18000000 		.4byte	.LVL124
 13891 03e1 0100     		.2byte	0x1
 13892 03e3 50       		.byte	0x50
 13893 03e4 18000000 		.4byte	.LVL124
 13894 03e8 40000000 		.4byte	.LFE47
 13895 03ec 0200     		.2byte	0x2
 13896 03ee 91       		.byte	0x91
 13897 03ef 70       		.sleb128 -16
 13898 03f0 00000000 		.4byte	0
 13899 03f4 00000000 		.4byte	0
 13900              	.LLST14:
 13901 03f8 00000000 		.4byte	.LVL121
 13902 03fc 12000000 		.4byte	.LVL123
 13903 0400 0100     		.2byte	0x1
 13904 0402 51       		.byte	0x51
 13905 0403 12000000 		.4byte	.LVL123
 13906 0407 18000000 		.4byte	.LVL124
ARM GAS  C:\Users\Helon\AppData\Local\Temp\cckZyeCc.s 			page 297


 13907 040b 0200     		.2byte	0x2
 13908 040d 73       		.byte	0x73
 13909 040e 04       		.sleb128 4
 13910 040f 18000000 		.4byte	.LVL124
 13911 0413 40000000 		.4byte	.LFE47
 13912 0417 0200     		.2byte	0x2
 13913 0419 91       		.byte	0x91
 13914 041a 74       		.sleb128 -12
 13915 041b 00000000 		.4byte	0
 13916 041f 00000000 		.4byte	0
 13917              	.LLST15:
 13918 0423 04000000 		.4byte	.LVL122
 13919 0427 18000000 		.4byte	.LVL124
 13920 042b 0200     		.2byte	0x2
 13921 042d 30       		.byte	0x30
 13922 042e 9F       		.byte	0x9f
 13923 042f 28000000 		.4byte	.LVL125
 13924 0433 40000000 		.4byte	.LFE47
 13925 0437 0100     		.2byte	0x1
 13926 0439 50       		.byte	0x50
 13927 043a 00000000 		.4byte	0
 13928 043e 00000000 		.4byte	0
 13929              	.LLST16:
 13930 0442 00000000 		.4byte	.LVL126
 13931 0446 30000000 		.4byte	.LVL128
 13932 044a 0100     		.2byte	0x1
 13933 044c 50       		.byte	0x50
 13934 044d 30000000 		.4byte	.LVL128
 13935 0451 76000000 		.4byte	.LVL136
 13936 0455 0400     		.2byte	0x4
 13937 0457 F3       		.byte	0xf3
 13938 0458 01       		.uleb128 0x1
 13939 0459 50       		.byte	0x50
 13940 045a 9F       		.byte	0x9f
 13941 045b 76000000 		.4byte	.LVL136
 13942 045f 82000000 		.4byte	.LVL137
 13943 0463 0100     		.2byte	0x1
 13944 0465 50       		.byte	0x50
 13945 0466 82000000 		.4byte	.LVL137
 13946 046a C8000000 		.4byte	.LVL145
 13947 046e 0400     		.2byte	0x4
 13948 0470 F3       		.byte	0xf3
 13949 0471 01       		.uleb128 0x1
 13950 0472 50       		.byte	0x50
 13951 0473 9F       		.byte	0x9f
 13952 0474 C8000000 		.4byte	.LVL145
 13953 0478 D4000000 		.4byte	.LVL146
 13954 047c 0100     		.2byte	0x1
 13955 047e 50       		.byte	0x50
 13956 047f D4000000 		.4byte	.LVL146
 13957 0483 1A010000 		.4byte	.LVL154
 13958 0487 0400     		.2byte	0x4
 13959 0489 F3       		.byte	0xf3
 13960 048a 01       		.uleb128 0x1
 13961 048b 50       		.byte	0x50
 13962 048c 9F       		.byte	0x9f
 13963 048d 1A010000 		.4byte	.LVL154
ARM GAS  C:\Users\Helon\AppData\Local\Temp\cckZyeCc.s 			page 298


 13964 0491 26010000 		.4byte	.LVL155
 13965 0495 0100     		.2byte	0x1
 13966 0497 50       		.byte	0x50
 13967 0498 26010000 		.4byte	.LVL155
 13968 049c 6C010000 		.4byte	.LVL163
 13969 04a0 0400     		.2byte	0x4
 13970 04a2 F3       		.byte	0xf3
 13971 04a3 01       		.uleb128 0x1
 13972 04a4 50       		.byte	0x50
 13973 04a5 9F       		.byte	0x9f
 13974 04a6 6C010000 		.4byte	.LVL163
 13975 04aa 76010000 		.4byte	.LVL164
 13976 04ae 0100     		.2byte	0x1
 13977 04b0 50       		.byte	0x50
 13978 04b1 76010000 		.4byte	.LVL164
 13979 04b5 A0010000 		.4byte	.LVL168
 13980 04b9 0400     		.2byte	0x4
 13981 04bb F3       		.byte	0xf3
 13982 04bc 01       		.uleb128 0x1
 13983 04bd 50       		.byte	0x50
 13984 04be 9F       		.byte	0x9f
 13985 04bf A0010000 		.4byte	.LVL168
 13986 04c3 A2010000 		.4byte	.LVL169
 13987 04c7 0100     		.2byte	0x1
 13988 04c9 50       		.byte	0x50
 13989 04ca A2010000 		.4byte	.LVL169
 13990 04ce D0010000 		.4byte	.LFE49
 13991 04d2 0400     		.2byte	0x4
 13992 04d4 F3       		.byte	0xf3
 13993 04d5 01       		.uleb128 0x1
 13994 04d6 50       		.byte	0x50
 13995 04d7 9F       		.byte	0x9f
 13996 04d8 00000000 		.4byte	0
 13997 04dc 00000000 		.4byte	0
 13998              	.LLST17:
 13999 04e0 04000000 		.4byte	.LVL127
 14000 04e4 38000000 		.4byte	.LVL130
 14001 04e8 0200     		.2byte	0x2
 14002 04ea 30       		.byte	0x30
 14003 04eb 9F       		.byte	0x9f
 14004 04ec 38000000 		.4byte	.LVL130
 14005 04f0 40000000 		.4byte	.LVL131
 14006 04f4 0100     		.2byte	0x1
 14007 04f6 50       		.byte	0x50
 14008 04f7 46000000 		.4byte	.LVL133
 14009 04fb 48000000 		.4byte	.LVL134
 14010 04ff 0100     		.2byte	0x1
 14011 0501 50       		.byte	0x50
 14012 0502 76000000 		.4byte	.LVL136
 14013 0506 8A000000 		.4byte	.LVL139
 14014 050a 0200     		.2byte	0x2
 14015 050c 30       		.byte	0x30
 14016 050d 9F       		.byte	0x9f
 14017 050e 8A000000 		.4byte	.LVL139
 14018 0512 92000000 		.4byte	.LVL140
 14019 0516 0100     		.2byte	0x1
 14020 0518 50       		.byte	0x50
ARM GAS  C:\Users\Helon\AppData\Local\Temp\cckZyeCc.s 			page 299


 14021 0519 98000000 		.4byte	.LVL142
 14022 051d 9A000000 		.4byte	.LVL143
 14023 0521 0100     		.2byte	0x1
 14024 0523 50       		.byte	0x50
 14025 0524 C8000000 		.4byte	.LVL145
 14026 0528 DC000000 		.4byte	.LVL148
 14027 052c 0200     		.2byte	0x2
 14028 052e 30       		.byte	0x30
 14029 052f 9F       		.byte	0x9f
 14030 0530 DC000000 		.4byte	.LVL148
 14031 0534 E4000000 		.4byte	.LVL149
 14032 0538 0100     		.2byte	0x1
 14033 053a 50       		.byte	0x50
 14034 053b EA000000 		.4byte	.LVL151
 14035 053f EC000000 		.4byte	.LVL152
 14036 0543 0100     		.2byte	0x1
 14037 0545 50       		.byte	0x50
 14038 0546 1A010000 		.4byte	.LVL154
 14039 054a 2E010000 		.4byte	.LVL157
 14040 054e 0200     		.2byte	0x2
 14041 0550 30       		.byte	0x30
 14042 0551 9F       		.byte	0x9f
 14043 0552 2E010000 		.4byte	.LVL157
 14044 0556 36010000 		.4byte	.LVL158
 14045 055a 0100     		.2byte	0x1
 14046 055c 50       		.byte	0x50
 14047 055d 3C010000 		.4byte	.LVL160
 14048 0561 3E010000 		.4byte	.LVL161
 14049 0565 0100     		.2byte	0x1
 14050 0567 50       		.byte	0x50
 14051 0568 6C010000 		.4byte	.LVL163
 14052 056c AA010000 		.4byte	.LVL170
 14053 0570 0200     		.2byte	0x2
 14054 0572 30       		.byte	0x30
 14055 0573 9F       		.byte	0x9f
 14056 0574 00000000 		.4byte	0
 14057 0578 00000000 		.4byte	0
 14058              	.LLST18:
 14059 057c 04000000 		.4byte	.LVL127
 14060 0580 76010000 		.4byte	.LVL164
 14061 0584 0200     		.2byte	0x2
 14062 0586 30       		.byte	0x30
 14063 0587 9F       		.byte	0x9f
 14064 0588 76010000 		.4byte	.LVL164
 14065 058c 9C010000 		.4byte	.LVL166
 14066 0590 0100     		.2byte	0x1
 14067 0592 54       		.byte	0x54
 14068 0593 9E010000 		.4byte	.LVL167
 14069 0597 A0010000 		.4byte	.LVL168
 14070 059b 0100     		.2byte	0x1
 14071 059d 54       		.byte	0x54
 14072 059e A0010000 		.4byte	.LVL168
 14073 05a2 A2010000 		.4byte	.LVL169
 14074 05a6 0200     		.2byte	0x2
 14075 05a8 30       		.byte	0x30
 14076 05a9 9F       		.byte	0x9f
 14077 05aa A2010000 		.4byte	.LVL169
ARM GAS  C:\Users\Helon\AppData\Local\Temp\cckZyeCc.s 			page 300


 14078 05ae AA010000 		.4byte	.LVL170
 14079 05b2 0100     		.2byte	0x1
 14080 05b4 54       		.byte	0x54
 14081 05b5 00000000 		.4byte	0
 14082 05b9 00000000 		.4byte	0
 14083              	.LLST19:
 14084 05bd 00000000 		.4byte	.LVL171
 14085 05c1 1A000000 		.4byte	.LVL172
 14086 05c5 0100     		.2byte	0x1
 14087 05c7 50       		.byte	0x50
 14088 05c8 1A000000 		.4byte	.LVL172
 14089 05cc 42000000 		.4byte	.LVL176
 14090 05d0 0400     		.2byte	0x4
 14091 05d2 F3       		.byte	0xf3
 14092 05d3 01       		.uleb128 0x1
 14093 05d4 50       		.byte	0x50
 14094 05d5 9F       		.byte	0x9f
 14095 05d6 42000000 		.4byte	.LVL176
 14096 05da 44000000 		.4byte	.LVL177
 14097 05de 0100     		.2byte	0x1
 14098 05e0 50       		.byte	0x50
 14099 05e1 44000000 		.4byte	.LVL177
 14100 05e5 6C000000 		.4byte	.LVL181
 14101 05e9 0400     		.2byte	0x4
 14102 05eb F3       		.byte	0xf3
 14103 05ec 01       		.uleb128 0x1
 14104 05ed 50       		.byte	0x50
 14105 05ee 9F       		.byte	0x9f
 14106 05ef 6C000000 		.4byte	.LVL181
 14107 05f3 6E000000 		.4byte	.LVL182
 14108 05f7 0100     		.2byte	0x1
 14109 05f9 50       		.byte	0x50
 14110 05fa 6E000000 		.4byte	.LVL182
 14111 05fe 96000000 		.4byte	.LVL186
 14112 0602 0400     		.2byte	0x4
 14113 0604 F3       		.byte	0xf3
 14114 0605 01       		.uleb128 0x1
 14115 0606 50       		.byte	0x50
 14116 0607 9F       		.byte	0x9f
 14117 0608 96000000 		.4byte	.LVL186
 14118 060c 98000000 		.4byte	.LVL187
 14119 0610 0100     		.2byte	0x1
 14120 0612 50       		.byte	0x50
 14121 0613 98000000 		.4byte	.LVL187
 14122 0617 C0000000 		.4byte	.LVL191
 14123 061b 0400     		.2byte	0x4
 14124 061d F3       		.byte	0xf3
 14125 061e 01       		.uleb128 0x1
 14126 061f 50       		.byte	0x50
 14127 0620 9F       		.byte	0x9f
 14128 0621 C0000000 		.4byte	.LVL191
 14129 0625 C2000000 		.4byte	.LVL192
 14130 0629 0100     		.2byte	0x1
 14131 062b 50       		.byte	0x50
 14132 062c C2000000 		.4byte	.LVL192
 14133 0630 EA000000 		.4byte	.LVL196
 14134 0634 0400     		.2byte	0x4
ARM GAS  C:\Users\Helon\AppData\Local\Temp\cckZyeCc.s 			page 301


 14135 0636 F3       		.byte	0xf3
 14136 0637 01       		.uleb128 0x1
 14137 0638 50       		.byte	0x50
 14138 0639 9F       		.byte	0x9f
 14139 063a EA000000 		.4byte	.LVL196
 14140 063e EC000000 		.4byte	.LVL197
 14141 0642 0100     		.2byte	0x1
 14142 0644 50       		.byte	0x50
 14143 0645 EC000000 		.4byte	.LVL197
 14144 0649 14010000 		.4byte	.LVL201
 14145 064d 0400     		.2byte	0x4
 14146 064f F3       		.byte	0xf3
 14147 0650 01       		.uleb128 0x1
 14148 0651 50       		.byte	0x50
 14149 0652 9F       		.byte	0x9f
 14150 0653 14010000 		.4byte	.LVL201
 14151 0657 16010000 		.4byte	.LVL202
 14152 065b 0100     		.2byte	0x1
 14153 065d 50       		.byte	0x50
 14154 065e 16010000 		.4byte	.LVL202
 14155 0662 3E010000 		.4byte	.LVL206
 14156 0666 0400     		.2byte	0x4
 14157 0668 F3       		.byte	0xf3
 14158 0669 01       		.uleb128 0x1
 14159 066a 50       		.byte	0x50
 14160 066b 9F       		.byte	0x9f
 14161 066c 3E010000 		.4byte	.LVL206
 14162 0670 40010000 		.4byte	.LVL207
 14163 0674 0100     		.2byte	0x1
 14164 0676 50       		.byte	0x50
 14165 0677 40010000 		.4byte	.LVL207
 14166 067b 68010000 		.4byte	.LVL211
 14167 067f 0400     		.2byte	0x4
 14168 0681 F3       		.byte	0xf3
 14169 0682 01       		.uleb128 0x1
 14170 0683 50       		.byte	0x50
 14171 0684 9F       		.byte	0x9f
 14172 0685 68010000 		.4byte	.LVL211
 14173 0689 6A010000 		.4byte	.LVL212
 14174 068d 0100     		.2byte	0x1
 14175 068f 50       		.byte	0x50
 14176 0690 6A010000 		.4byte	.LVL212
 14177 0694 92010000 		.4byte	.LVL216
 14178 0698 0400     		.2byte	0x4
 14179 069a F3       		.byte	0xf3
 14180 069b 01       		.uleb128 0x1
 14181 069c 50       		.byte	0x50
 14182 069d 9F       		.byte	0x9f
 14183 069e 92010000 		.4byte	.LVL216
 14184 06a2 94010000 		.4byte	.LVL217
 14185 06a6 0100     		.2byte	0x1
 14186 06a8 50       		.byte	0x50
 14187 06a9 94010000 		.4byte	.LVL217
 14188 06ad BC010000 		.4byte	.LVL221
 14189 06b1 0400     		.2byte	0x4
 14190 06b3 F3       		.byte	0xf3
 14191 06b4 01       		.uleb128 0x1
ARM GAS  C:\Users\Helon\AppData\Local\Temp\cckZyeCc.s 			page 302


 14192 06b5 50       		.byte	0x50
 14193 06b6 9F       		.byte	0x9f
 14194 06b7 BC010000 		.4byte	.LVL221
 14195 06bb BE010000 		.4byte	.LVL222
 14196 06bf 0100     		.2byte	0x1
 14197 06c1 50       		.byte	0x50
 14198 06c2 BE010000 		.4byte	.LVL222
 14199 06c6 E6010000 		.4byte	.LVL226
 14200 06ca 0400     		.2byte	0x4
 14201 06cc F3       		.byte	0xf3
 14202 06cd 01       		.uleb128 0x1
 14203 06ce 50       		.byte	0x50
 14204 06cf 9F       		.byte	0x9f
 14205 06d0 E6010000 		.4byte	.LVL226
 14206 06d4 FE010000 		.4byte	.LVL227
 14207 06d8 0100     		.2byte	0x1
 14208 06da 50       		.byte	0x50
 14209 06db FE010000 		.4byte	.LVL227
 14210 06df 1C020000 		.4byte	.LVL230
 14211 06e3 0400     		.2byte	0x4
 14212 06e5 F3       		.byte	0xf3
 14213 06e6 01       		.uleb128 0x1
 14214 06e7 50       		.byte	0x50
 14215 06e8 9F       		.byte	0x9f
 14216 06e9 1C020000 		.4byte	.LVL230
 14217 06ed 1E020000 		.4byte	.LVL231
 14218 06f1 0100     		.2byte	0x1
 14219 06f3 50       		.byte	0x50
 14220 06f4 1E020000 		.4byte	.LVL231
 14221 06f8 3C020000 		.4byte	.LVL234
 14222 06fc 0400     		.2byte	0x4
 14223 06fe F3       		.byte	0xf3
 14224 06ff 01       		.uleb128 0x1
 14225 0700 50       		.byte	0x50
 14226 0701 9F       		.byte	0x9f
 14227 0702 3C020000 		.4byte	.LVL234
 14228 0706 3E020000 		.4byte	.LVL235
 14229 070a 0100     		.2byte	0x1
 14230 070c 50       		.byte	0x50
 14231 070d 3E020000 		.4byte	.LVL235
 14232 0711 5C020000 		.4byte	.LVL238
 14233 0715 0400     		.2byte	0x4
 14234 0717 F3       		.byte	0xf3
 14235 0718 01       		.uleb128 0x1
 14236 0719 50       		.byte	0x50
 14237 071a 9F       		.byte	0x9f
 14238 071b 5C020000 		.4byte	.LVL238
 14239 071f 5E020000 		.4byte	.LVL239
 14240 0723 0100     		.2byte	0x1
 14241 0725 50       		.byte	0x50
 14242 0726 5E020000 		.4byte	.LVL239
 14243 072a 7C020000 		.4byte	.LVL242
 14244 072e 0400     		.2byte	0x4
 14245 0730 F3       		.byte	0xf3
 14246 0731 01       		.uleb128 0x1
 14247 0732 50       		.byte	0x50
 14248 0733 9F       		.byte	0x9f
ARM GAS  C:\Users\Helon\AppData\Local\Temp\cckZyeCc.s 			page 303


 14249 0734 7C020000 		.4byte	.LVL242
 14250 0738 7E020000 		.4byte	.LVL243
 14251 073c 0100     		.2byte	0x1
 14252 073e 50       		.byte	0x50
 14253 073f 7E020000 		.4byte	.LVL243
 14254 0743 9C020000 		.4byte	.LVL246
 14255 0747 0400     		.2byte	0x4
 14256 0749 F3       		.byte	0xf3
 14257 074a 01       		.uleb128 0x1
 14258 074b 50       		.byte	0x50
 14259 074c 9F       		.byte	0x9f
 14260 074d 9C020000 		.4byte	.LVL246
 14261 0751 9E020000 		.4byte	.LVL247
 14262 0755 0100     		.2byte	0x1
 14263 0757 50       		.byte	0x50
 14264 0758 9E020000 		.4byte	.LVL247
 14265 075c BC020000 		.4byte	.LVL250
 14266 0760 0400     		.2byte	0x4
 14267 0762 F3       		.byte	0xf3
 14268 0763 01       		.uleb128 0x1
 14269 0764 50       		.byte	0x50
 14270 0765 9F       		.byte	0x9f
 14271 0766 BC020000 		.4byte	.LVL250
 14272 076a BE020000 		.4byte	.LVL251
 14273 076e 0100     		.2byte	0x1
 14274 0770 50       		.byte	0x50
 14275 0771 BE020000 		.4byte	.LVL251
 14276 0775 DC020000 		.4byte	.LVL254
 14277 0779 0400     		.2byte	0x4
 14278 077b F3       		.byte	0xf3
 14279 077c 01       		.uleb128 0x1
 14280 077d 50       		.byte	0x50
 14281 077e 9F       		.byte	0x9f
 14282 077f DC020000 		.4byte	.LVL254
 14283 0783 DE020000 		.4byte	.LVL255
 14284 0787 0100     		.2byte	0x1
 14285 0789 50       		.byte	0x50
 14286 078a DE020000 		.4byte	.LVL255
 14287 078e 5C030000 		.4byte	.LVL258
 14288 0792 0400     		.2byte	0x4
 14289 0794 F3       		.byte	0xf3
 14290 0795 01       		.uleb128 0x1
 14291 0796 50       		.byte	0x50
 14292 0797 9F       		.byte	0x9f
 14293 0798 5C030000 		.4byte	.LVL258
 14294 079c 5E030000 		.4byte	.LVL259
 14295 07a0 0100     		.2byte	0x1
 14296 07a2 50       		.byte	0x50
 14297 07a3 5E030000 		.4byte	.LVL259
 14298 07a7 7C030000 		.4byte	.LVL262
 14299 07ab 0400     		.2byte	0x4
 14300 07ad F3       		.byte	0xf3
 14301 07ae 01       		.uleb128 0x1
 14302 07af 50       		.byte	0x50
 14303 07b0 9F       		.byte	0x9f
 14304 07b1 7C030000 		.4byte	.LVL262
 14305 07b5 7E030000 		.4byte	.LVL263
ARM GAS  C:\Users\Helon\AppData\Local\Temp\cckZyeCc.s 			page 304


 14306 07b9 0100     		.2byte	0x1
 14307 07bb 50       		.byte	0x50
 14308 07bc 7E030000 		.4byte	.LVL263
 14309 07c0 9C030000 		.4byte	.LVL266
 14310 07c4 0400     		.2byte	0x4
 14311 07c6 F3       		.byte	0xf3
 14312 07c7 01       		.uleb128 0x1
 14313 07c8 50       		.byte	0x50
 14314 07c9 9F       		.byte	0x9f
 14315 07ca 9C030000 		.4byte	.LVL266
 14316 07ce 9E030000 		.4byte	.LVL267
 14317 07d2 0100     		.2byte	0x1
 14318 07d4 50       		.byte	0x50
 14319 07d5 9E030000 		.4byte	.LVL267
 14320 07d9 CC030000 		.4byte	.LFE50
 14321 07dd 0400     		.2byte	0x4
 14322 07df F3       		.byte	0xf3
 14323 07e0 01       		.uleb128 0x1
 14324 07e1 50       		.byte	0x50
 14325 07e2 9F       		.byte	0x9f
 14326 07e3 00000000 		.4byte	0
 14327 07e7 00000000 		.4byte	0
 14328              	.LLST20:
 14329 07eb 00000000 		.4byte	.LVL270
 14330 07ef 22000000 		.4byte	.LVL272
 14331 07f3 0100     		.2byte	0x1
 14332 07f5 50       		.byte	0x50
 14333 07f6 22000000 		.4byte	.LVL272
 14334 07fa 3C000000 		.4byte	.LVL274
 14335 07fe 0400     		.2byte	0x4
 14336 0800 F3       		.byte	0xf3
 14337 0801 01       		.uleb128 0x1
 14338 0802 50       		.byte	0x50
 14339 0803 9F       		.byte	0x9f
 14340 0804 3C000000 		.4byte	.LVL274
 14341 0808 44000000 		.4byte	.LVL275
 14342 080c 0100     		.2byte	0x1
 14343 080e 53       		.byte	0x53
 14344 080f 44000000 		.4byte	.LVL275
 14345 0813 4F000000 		.4byte	.LVL276-1
 14346 0817 0200     		.2byte	0x2
 14347 0819 74       		.byte	0x74
 14348 081a 00       		.sleb128 0
 14349 081b 52000000 		.4byte	.LVL277
 14350 081f 57000000 		.4byte	.LVL278-1
 14351 0823 0200     		.2byte	0x2
 14352 0825 74       		.byte	0x74
 14353 0826 00       		.sleb128 0
 14354 0827 5A000000 		.4byte	.LVL279
 14355 082b 5F000000 		.4byte	.LVL280-1
 14356 082f 0200     		.2byte	0x2
 14357 0831 74       		.byte	0x74
 14358 0832 00       		.sleb128 0
 14359 0833 62000000 		.4byte	.LVL281
 14360 0837 67000000 		.4byte	.LVL282-1
 14361 083b 0200     		.2byte	0x2
 14362 083d 74       		.byte	0x74
ARM GAS  C:\Users\Helon\AppData\Local\Temp\cckZyeCc.s 			page 305


 14363 083e 00       		.sleb128 0
 14364 083f 6A000000 		.4byte	.LVL283
 14365 0843 6F000000 		.4byte	.LVL284-1
 14366 0847 0200     		.2byte	0x2
 14367 0849 74       		.byte	0x74
 14368 084a 00       		.sleb128 0
 14369 084b 72000000 		.4byte	.LVL285
 14370 084f 77000000 		.4byte	.LVL286-1
 14371 0853 0200     		.2byte	0x2
 14372 0855 74       		.byte	0x74
 14373 0856 00       		.sleb128 0
 14374 0857 7A000000 		.4byte	.LVL287
 14375 085b 7F000000 		.4byte	.LVL288-1
 14376 085f 0200     		.2byte	0x2
 14377 0861 74       		.byte	0x74
 14378 0862 00       		.sleb128 0
 14379 0863 82000000 		.4byte	.LVL289
 14380 0867 87000000 		.4byte	.LVL290-1
 14381 086b 0200     		.2byte	0x2
 14382 086d 74       		.byte	0x74
 14383 086e 00       		.sleb128 0
 14384 086f 8A000000 		.4byte	.LVL291
 14385 0873 68010000 		.4byte	.LVL330
 14386 0877 0400     		.2byte	0x4
 14387 0879 F3       		.byte	0xf3
 14388 087a 01       		.uleb128 0x1
 14389 087b 50       		.byte	0x50
 14390 087c 9F       		.byte	0x9f
 14391 087d 00000000 		.4byte	0
 14392 0881 00000000 		.4byte	0
 14393              	.LLST21:
 14394 0885 04000000 		.4byte	.LVL271
 14395 0889 94000000 		.4byte	.LVL292
 14396 088d 0200     		.2byte	0x2
 14397 088f 30       		.byte	0x30
 14398 0890 9F       		.byte	0x9f
 14399 0891 94000000 		.4byte	.LVL292
 14400 0895 9A000000 		.4byte	.LVL293
 14401 0899 0100     		.2byte	0x1
 14402 089b 50       		.byte	0x50
 14403 089c A6000000 		.4byte	.LVL296
 14404 08a0 B0000000 		.4byte	.LVL297
 14405 08a4 0200     		.2byte	0x2
 14406 08a6 30       		.byte	0x30
 14407 08a7 9F       		.byte	0x9f
 14408 08a8 B0000000 		.4byte	.LVL297
 14409 08ac B6000000 		.4byte	.LVL298
 14410 08b0 0100     		.2byte	0x1
 14411 08b2 50       		.byte	0x50
 14412 08b3 C2000000 		.4byte	.LVL301
 14413 08b7 CC000000 		.4byte	.LVL302
 14414 08bb 0200     		.2byte	0x2
 14415 08bd 30       		.byte	0x30
 14416 08be 9F       		.byte	0x9f
 14417 08bf CC000000 		.4byte	.LVL302
 14418 08c3 D2000000 		.4byte	.LVL303
 14419 08c7 0100     		.2byte	0x1
ARM GAS  C:\Users\Helon\AppData\Local\Temp\cckZyeCc.s 			page 306


 14420 08c9 50       		.byte	0x50
 14421 08ca DE000000 		.4byte	.LVL306
 14422 08ce E8000000 		.4byte	.LVL307
 14423 08d2 0200     		.2byte	0x2
 14424 08d4 30       		.byte	0x30
 14425 08d5 9F       		.byte	0x9f
 14426 08d6 E8000000 		.4byte	.LVL307
 14427 08da EE000000 		.4byte	.LVL308
 14428 08de 0100     		.2byte	0x1
 14429 08e0 50       		.byte	0x50
 14430 08e1 FA000000 		.4byte	.LVL311
 14431 08e5 04010000 		.4byte	.LVL312
 14432 08e9 0200     		.2byte	0x2
 14433 08eb 30       		.byte	0x30
 14434 08ec 9F       		.byte	0x9f
 14435 08ed 04010000 		.4byte	.LVL312
 14436 08f1 0A010000 		.4byte	.LVL313
 14437 08f5 0100     		.2byte	0x1
 14438 08f7 50       		.byte	0x50
 14439 08f8 16010000 		.4byte	.LVL316
 14440 08fc 20010000 		.4byte	.LVL317
 14441 0900 0200     		.2byte	0x2
 14442 0902 30       		.byte	0x30
 14443 0903 9F       		.byte	0x9f
 14444 0904 20010000 		.4byte	.LVL317
 14445 0908 26010000 		.4byte	.LVL318
 14446 090c 0100     		.2byte	0x1
 14447 090e 50       		.byte	0x50
 14448 090f 32010000 		.4byte	.LVL321
 14449 0913 3C010000 		.4byte	.LVL322
 14450 0917 0200     		.2byte	0x2
 14451 0919 30       		.byte	0x30
 14452 091a 9F       		.byte	0x9f
 14453 091b 3C010000 		.4byte	.LVL322
 14454 091f 42010000 		.4byte	.LVL323
 14455 0923 0100     		.2byte	0x1
 14456 0925 50       		.byte	0x50
 14457 0926 4E010000 		.4byte	.LVL326
 14458 092a 58010000 		.4byte	.LVL327
 14459 092e 0200     		.2byte	0x2
 14460 0930 30       		.byte	0x30
 14461 0931 9F       		.byte	0x9f
 14462 0932 58010000 		.4byte	.LVL327
 14463 0936 5E010000 		.4byte	.LVL328
 14464 093a 0100     		.2byte	0x1
 14465 093c 50       		.byte	0x50
 14466 093d 00000000 		.4byte	0
 14467 0941 00000000 		.4byte	0
 14468              	.LLST22:
 14469 0945 00000000 		.4byte	.LVL331
 14470 0949 0C000000 		.4byte	.LVL333
 14471 094d 0100     		.2byte	0x1
 14472 094f 50       		.byte	0x50
 14473 0950 0C000000 		.4byte	.LVL333
 14474 0954 64000000 		.4byte	.LVL348
 14475 0958 0100     		.2byte	0x1
 14476 095a 58       		.byte	0x58
ARM GAS  C:\Users\Helon\AppData\Local\Temp\cckZyeCc.s 			page 307


 14477 095b 64000000 		.4byte	.LVL348
 14478 095f 70000000 		.4byte	.LFE52
 14479 0963 0400     		.2byte	0x4
 14480 0965 F3       		.byte	0xf3
 14481 0966 01       		.uleb128 0x1
 14482 0967 50       		.byte	0x50
 14483 0968 9F       		.byte	0x9f
 14484 0969 00000000 		.4byte	0
 14485 096d 00000000 		.4byte	0
 14486              	.LLST23:
 14487 0971 10000000 		.4byte	.LVL334
 14488 0975 26000000 		.4byte	.LVL336
 14489 0979 0100     		.2byte	0x1
 14490 097b 53       		.byte	0x53
 14491 097c 26000000 		.4byte	.LVL336
 14492 0980 5E000000 		.4byte	.LVL345
 14493 0984 0700     		.2byte	0x7
 14494 0986 76       		.byte	0x76
 14495 0987 00       		.sleb128 0
 14496 0988 31       		.byte	0x31
 14497 0989 24       		.byte	0x24
 14498 098a 71       		.byte	0x71
 14499 098b 00       		.sleb128 0
 14500 098c 22       		.byte	0x22
 14501 098d 00000000 		.4byte	0
 14502 0991 00000000 		.4byte	0
 14503              	.LLST24:
 14504 0995 14000000 		.4byte	.LVL335
 14505 0999 46000000 		.4byte	.LVL341
 14506 099d 0100     		.2byte	0x1
 14507 099f 54       		.byte	0x54
 14508 09a0 46000000 		.4byte	.LVL341
 14509 09a4 5E000000 		.4byte	.LVL345
 14510 09a8 0900     		.2byte	0x9
 14511 09aa 76       		.byte	0x76
 14512 09ab 00       		.sleb128 0
 14513 09ac 31       		.byte	0x31
 14514 09ad 24       		.byte	0x24
 14515 09ae 71       		.byte	0x71
 14516 09af 00       		.sleb128 0
 14517 09b0 22       		.byte	0x22
 14518 09b1 23       		.byte	0x23
 14519 09b2 01       		.uleb128 0x1
 14520 09b3 00000000 		.4byte	0
 14521 09b7 00000000 		.4byte	0
 14522              	.LLST25:
 14523 09bb 2E000000 		.4byte	.LVL337
 14524 09bf 34000000 		.4byte	.LVL338
 14525 09c3 0100     		.2byte	0x1
 14526 09c5 53       		.byte	0x53
 14527 09c6 34000000 		.4byte	.LVL338
 14528 09ca 36000000 		.4byte	.LVL339
 14529 09ce 0300     		.2byte	0x3
 14530 09d0 73       		.byte	0x73
 14531 09d1 50       		.sleb128 -48
 14532 09d2 9F       		.byte	0x9f
 14533 09d3 36000000 		.4byte	.LVL339
ARM GAS  C:\Users\Helon\AppData\Local\Temp\cckZyeCc.s 			page 308


 14534 09d7 38000000 		.4byte	.LVL340
 14535 09db 0300     		.2byte	0x3
 14536 09dd 75       		.byte	0x75
 14537 09de 50       		.sleb128 -48
 14538 09df 9F       		.byte	0x9f
 14539 09e0 38000000 		.4byte	.LVL340
 14540 09e4 58000000 		.4byte	.LVL344
 14541 09e8 0100     		.2byte	0x1
 14542 09ea 53       		.byte	0x53
 14543 09eb 00000000 		.4byte	0
 14544 09ef 00000000 		.4byte	0
 14545              	.LLST26:
 14546 09f3 4E000000 		.4byte	.LVL342
 14547 09f7 60000000 		.4byte	.LVL346
 14548 09fb 0100     		.2byte	0x1
 14549 09fd 55       		.byte	0x55
 14550 09fe 00000000 		.4byte	0
 14551 0a02 00000000 		.4byte	0
 14552              	.LLST27:
 14553 0a06 08000000 		.4byte	.LVL332
 14554 0a0a 0C000000 		.4byte	.LVL333
 14555 0a0e 0200     		.2byte	0x2
 14556 0a10 30       		.byte	0x30
 14557 0a11 9F       		.byte	0x9f
 14558 0a12 0C000000 		.4byte	.LVL333
 14559 0a16 64000000 		.4byte	.LVL347
 14560 0a1a 0100     		.2byte	0x1
 14561 0a1c 56       		.byte	0x56
 14562 0a1d 00000000 		.4byte	0
 14563 0a21 00000000 		.4byte	0
 14564              	.LLST28:
 14565 0a25 14000000 		.4byte	.LVL335
 14566 0a29 26000000 		.4byte	.LVL336
 14567 0a2d 0100     		.2byte	0x1
 14568 0a2f 53       		.byte	0x53
 14569 0a30 26000000 		.4byte	.LVL336
 14570 0a34 5E000000 		.4byte	.LVL345
 14571 0a38 0700     		.2byte	0x7
 14572 0a3a 76       		.byte	0x76
 14573 0a3b 00       		.sleb128 0
 14574 0a3c 31       		.byte	0x31
 14575 0a3d 24       		.byte	0x24
 14576 0a3e 71       		.byte	0x71
 14577 0a3f 00       		.sleb128 0
 14578 0a40 22       		.byte	0x22
 14579 0a41 00000000 		.4byte	0
 14580 0a45 00000000 		.4byte	0
 14581              	.LLST29:
 14582 0a49 38000000 		.4byte	.LVL340
 14583 0a4d 46000000 		.4byte	.LVL341
 14584 0a51 0100     		.2byte	0x1
 14585 0a53 54       		.byte	0x54
 14586 0a54 46000000 		.4byte	.LVL341
 14587 0a58 5E000000 		.4byte	.LVL345
 14588 0a5c 0900     		.2byte	0x9
 14589 0a5e 76       		.byte	0x76
 14590 0a5f 00       		.sleb128 0
ARM GAS  C:\Users\Helon\AppData\Local\Temp\cckZyeCc.s 			page 309


 14591 0a60 31       		.byte	0x31
 14592 0a61 24       		.byte	0x24
 14593 0a62 71       		.byte	0x71
 14594 0a63 00       		.sleb128 0
 14595 0a64 22       		.byte	0x22
 14596 0a65 23       		.byte	0x23
 14597 0a66 01       		.uleb128 0x1
 14598 0a67 00000000 		.4byte	0
 14599 0a6b 00000000 		.4byte	0
 14600              	.LLST30:
 14601 0a6f 00000000 		.4byte	.LVL349
 14602 0a73 3E000000 		.4byte	.LVL351
 14603 0a77 0100     		.2byte	0x1
 14604 0a79 50       		.byte	0x50
 14605 0a7a 3E000000 		.4byte	.LVL351
 14606 0a7e D0000000 		.4byte	.LVL367
 14607 0a82 0100     		.2byte	0x1
 14608 0a84 55       		.byte	0x55
 14609 0a85 D0000000 		.4byte	.LVL367
 14610 0a89 E2000000 		.4byte	.LVL369
 14611 0a8d 0400     		.2byte	0x4
 14612 0a8f F3       		.byte	0xf3
 14613 0a90 01       		.uleb128 0x1
 14614 0a91 50       		.byte	0x50
 14615 0a92 9F       		.byte	0x9f
 14616 0a93 E2000000 		.4byte	.LVL369
 14617 0a97 52020000 		.4byte	.LVL411
 14618 0a9b 0100     		.2byte	0x1
 14619 0a9d 55       		.byte	0x55
 14620 0a9e 52020000 		.4byte	.LVL411
 14621 0aa2 A0020000 		.4byte	.LVL422
 14622 0aa6 0400     		.2byte	0x4
 14623 0aa8 F3       		.byte	0xf3
 14624 0aa9 01       		.uleb128 0x1
 14625 0aaa 50       		.byte	0x50
 14626 0aab 9F       		.byte	0x9f
 14627 0aac A0020000 		.4byte	.LVL422
 14628 0ab0 08050000 		.4byte	.LVL477
 14629 0ab4 0100     		.2byte	0x1
 14630 0ab6 55       		.byte	0x55
 14631 0ab7 08050000 		.4byte	.LVL477
 14632 0abb 40050000 		.4byte	.LVL481
 14633 0abf 0400     		.2byte	0x4
 14634 0ac1 F3       		.byte	0xf3
 14635 0ac2 01       		.uleb128 0x1
 14636 0ac3 50       		.byte	0x50
 14637 0ac4 9F       		.byte	0x9f
 14638 0ac5 40050000 		.4byte	.LVL481
 14639 0ac9 42050000 		.4byte	.LVL482
 14640 0acd 0100     		.2byte	0x1
 14641 0acf 55       		.byte	0x55
 14642 0ad0 42050000 		.4byte	.LVL482
 14643 0ad4 4C050000 		.4byte	.LVL483
 14644 0ad8 0400     		.2byte	0x4
 14645 0ada F3       		.byte	0xf3
 14646 0adb 01       		.uleb128 0x1
 14647 0adc 50       		.byte	0x50
ARM GAS  C:\Users\Helon\AppData\Local\Temp\cckZyeCc.s 			page 310


 14648 0add 9F       		.byte	0x9f
 14649 0ade 4C050000 		.4byte	.LVL483
 14650 0ae2 A2050000 		.4byte	.LVL495
 14651 0ae6 0100     		.2byte	0x1
 14652 0ae8 55       		.byte	0x55
 14653 0ae9 A2050000 		.4byte	.LVL495
 14654 0aed CA050000 		.4byte	.LVL499
 14655 0af1 0400     		.2byte	0x4
 14656 0af3 F3       		.byte	0xf3
 14657 0af4 01       		.uleb128 0x1
 14658 0af5 50       		.byte	0x50
 14659 0af6 9F       		.byte	0x9f
 14660 0af7 CA050000 		.4byte	.LVL499
 14661 0afb A8080000 		.4byte	.LVL595
 14662 0aff 0100     		.2byte	0x1
 14663 0b01 55       		.byte	0x55
 14664 0b02 A8080000 		.4byte	.LVL595
 14665 0b06 DC080000 		.4byte	.LFE43
 14666 0b0a 0400     		.2byte	0x4
 14667 0b0c F3       		.byte	0xf3
 14668 0b0d 01       		.uleb128 0x1
 14669 0b0e 50       		.byte	0x50
 14670 0b0f 9F       		.byte	0x9f
 14671 0b10 00000000 		.4byte	0
 14672 0b14 00000000 		.4byte	0
 14673              	.LLST31:
 14674 0b18 12000000 		.4byte	.LVL350
 14675 0b1c 60000000 		.4byte	.LVL354
 14676 0b20 0200     		.2byte	0x2
 14677 0b22 30       		.byte	0x30
 14678 0b23 9F       		.byte	0x9f
 14679 0b24 60000000 		.4byte	.LVL354
 14680 0b28 6A000000 		.4byte	.LVL355
 14681 0b2c 0100     		.2byte	0x1
 14682 0b2e 50       		.byte	0x50
 14683 0b2f 00000000 		.4byte	0
 14684 0b33 00000000 		.4byte	0
 14685              	.LLST32:
 14686 0b37 12000000 		.4byte	.LVL350
 14687 0b3b 0E020000 		.4byte	.LVL402
 14688 0b3f 0200     		.2byte	0x2
 14689 0b41 30       		.byte	0x30
 14690 0b42 9F       		.byte	0x9f
 14691 0b43 0E020000 		.4byte	.LVL402
 14692 0b47 18020000 		.4byte	.LVL404
 14693 0b4b 0100     		.2byte	0x1
 14694 0b4d 54       		.byte	0x54
 14695 0b4e 1A020000 		.4byte	.LVL405
 14696 0b52 2C020000 		.4byte	.LVL407
 14697 0b56 0100     		.2byte	0x1
 14698 0b58 54       		.byte	0x54
 14699 0b59 2C020000 		.4byte	.LVL407
 14700 0b5d 08050000 		.4byte	.LVL477
 14701 0b61 0200     		.2byte	0x2
 14702 0b63 30       		.byte	0x30
 14703 0b64 9F       		.byte	0x9f
 14704 0b65 08050000 		.4byte	.LVL477
ARM GAS  C:\Users\Helon\AppData\Local\Temp\cckZyeCc.s 			page 311


 14705 0b69 3C050000 		.4byte	.LVL479
 14706 0b6d 0100     		.2byte	0x1
 14707 0b6f 54       		.byte	0x54
 14708 0b70 3E050000 		.4byte	.LVL480
 14709 0b74 40050000 		.4byte	.LVL481
 14710 0b78 0100     		.2byte	0x1
 14711 0b7a 54       		.byte	0x54
 14712 0b7b 40050000 		.4byte	.LVL481
 14713 0b7f 42050000 		.4byte	.LVL482
 14714 0b83 0200     		.2byte	0x2
 14715 0b85 30       		.byte	0x30
 14716 0b86 9F       		.byte	0x9f
 14717 0b87 42050000 		.4byte	.LVL482
 14718 0b8b 4C050000 		.4byte	.LVL483
 14719 0b8f 0100     		.2byte	0x1
 14720 0b91 54       		.byte	0x54
 14721 0b92 4C050000 		.4byte	.LVL483
 14722 0b96 96050000 		.4byte	.LVL494
 14723 0b9a 0200     		.2byte	0x2
 14724 0b9c 30       		.byte	0x30
 14725 0b9d 9F       		.byte	0x9f
 14726 0b9e 96050000 		.4byte	.LVL494
 14727 0ba2 A8050000 		.4byte	.LVL496
 14728 0ba6 0100     		.2byte	0x1
 14729 0ba8 53       		.byte	0x53
 14730 0ba9 CA050000 		.4byte	.LVL499
 14731 0bad CC050000 		.4byte	.LVL500
 14732 0bb1 0100     		.2byte	0x1
 14733 0bb3 53       		.byte	0x53
 14734 0bb4 CE050000 		.4byte	.LVL501
 14735 0bb8 D0050000 		.4byte	.LVL502
 14736 0bbc 0100     		.2byte	0x1
 14737 0bbe 53       		.byte	0x53
 14738 0bbf D0050000 		.4byte	.LVL502
 14739 0bc3 D2050000 		.4byte	.LVL503
 14740 0bc7 0200     		.2byte	0x2
 14741 0bc9 30       		.byte	0x30
 14742 0bca 9F       		.byte	0x9f
 14743 0bcb D2050000 		.4byte	.LVL503
 14744 0bcf DC050000 		.4byte	.LVL504
 14745 0bd3 0100     		.2byte	0x1
 14746 0bd5 53       		.byte	0x53
 14747 0bd6 DC050000 		.4byte	.LVL504
 14748 0bda A8080000 		.4byte	.LVL595
 14749 0bde 0200     		.2byte	0x2
 14750 0be0 30       		.byte	0x30
 14751 0be1 9F       		.byte	0x9f
 14752 0be2 00000000 		.4byte	0
 14753 0be6 00000000 		.4byte	0
 14754              	.LLST33:
 14755 0bea 12000000 		.4byte	.LVL350
 14756 0bee B2000000 		.4byte	.LVL362
 14757 0bf2 0200     		.2byte	0x2
 14758 0bf4 30       		.byte	0x30
 14759 0bf5 9F       		.byte	0x9f
 14760 0bf6 B2000000 		.4byte	.LVL362
 14761 0bfa B5000000 		.4byte	.LVL363-1
ARM GAS  C:\Users\Helon\AppData\Local\Temp\cckZyeCc.s 			page 312


 14762 0bfe 0100     		.2byte	0x1
 14763 0c00 50       		.byte	0x50
 14764 0c01 BA000000 		.4byte	.LVL364
 14765 0c05 BC000000 		.4byte	.LVL365
 14766 0c09 0200     		.2byte	0x2
 14767 0c0b 30       		.byte	0x30
 14768 0c0c 9F       		.byte	0x9f
 14769 0c0d BC000000 		.4byte	.LVL365
 14770 0c11 C5000000 		.4byte	.LVL366-1
 14771 0c15 0100     		.2byte	0x1
 14772 0c17 53       		.byte	0x53
 14773 0c18 E2000000 		.4byte	.LVL369
 14774 0c1c E4000000 		.4byte	.LVL370
 14775 0c20 0200     		.2byte	0x2
 14776 0c22 30       		.byte	0x30
 14777 0c23 9F       		.byte	0x9f
 14778 0c24 E4000000 		.4byte	.LVL370
 14779 0c28 FB000000 		.4byte	.LVL371-1
 14780 0c2c 0100     		.2byte	0x1
 14781 0c2e 52       		.byte	0x52
 14782 0c2f 06010000 		.4byte	.LVL373
 14783 0c33 11010000 		.4byte	.LVL374-1
 14784 0c37 0100     		.2byte	0x1
 14785 0c39 52       		.byte	0x52
 14786 0c3a 44010000 		.4byte	.LVL378
 14787 0c3e 49010000 		.4byte	.LVL379-1
 14788 0c42 0100     		.2byte	0x1
 14789 0c44 52       		.byte	0x52
 14790 0c45 4C010000 		.4byte	.LVL380
 14791 0c49 51010000 		.4byte	.LVL381-1
 14792 0c4d 0100     		.2byte	0x1
 14793 0c4f 52       		.byte	0x52
 14794 0c50 54010000 		.4byte	.LVL382
 14795 0c54 56010000 		.4byte	.LVL383
 14796 0c58 0200     		.2byte	0x2
 14797 0c5a 30       		.byte	0x30
 14798 0c5b 9F       		.byte	0x9f
 14799 0c5c 56010000 		.4byte	.LVL383
 14800 0c60 61010000 		.4byte	.LVL384-1
 14801 0c64 0100     		.2byte	0x1
 14802 0c66 50       		.byte	0x50
 14803 0c67 64010000 		.4byte	.LVL385
 14804 0c6b 66010000 		.4byte	.LVL386
 14805 0c6f 0100     		.2byte	0x1
 14806 0c71 50       		.byte	0x50
 14807 0c72 66010000 		.4byte	.LVL386
 14808 0c76 69010000 		.4byte	.LVL387-1
 14809 0c7a 0200     		.2byte	0x2
 14810 0c7c 75       		.byte	0x75
 14811 0c7d 07       		.sleb128 7
 14812 0c7e 6C010000 		.4byte	.LVL388
 14813 0c82 6E010000 		.4byte	.LVL389
 14814 0c86 0200     		.2byte	0x2
 14815 0c88 30       		.byte	0x30
 14816 0c89 9F       		.byte	0x9f
 14817 0c8a 6E010000 		.4byte	.LVL389
 14818 0c8e A6010000 		.4byte	.LVL390
ARM GAS  C:\Users\Helon\AppData\Local\Temp\cckZyeCc.s 			page 313


 14819 0c92 0100     		.2byte	0x1
 14820 0c94 52       		.byte	0x52
 14821 0c95 04020000 		.4byte	.LVL400
 14822 0c99 09020000 		.4byte	.LVL401-1
 14823 0c9d 0100     		.2byte	0x1
 14824 0c9f 52       		.byte	0x52
 14825 0ca0 2C020000 		.4byte	.LVL407
 14826 0ca4 31020000 		.4byte	.LVL408-1
 14827 0ca8 0100     		.2byte	0x1
 14828 0caa 52       		.byte	0x52
 14829 0cab 34020000 		.4byte	.LVL409
 14830 0caf 46020000 		.4byte	.LVL410
 14831 0cb3 0200     		.2byte	0x2
 14832 0cb5 30       		.byte	0x30
 14833 0cb6 9F       		.byte	0x9f
 14834 0cb7 46020000 		.4byte	.LVL410
 14835 0cbb 59020000 		.4byte	.LVL412-1
 14836 0cbf 0100     		.2byte	0x1
 14837 0cc1 52       		.byte	0x52
 14838 0cc2 A0020000 		.4byte	.LVL422
 14839 0cc6 B8020000 		.4byte	.LVL423
 14840 0cca 0100     		.2byte	0x1
 14841 0ccc 52       		.byte	0x52
 14842 0ccd B8020000 		.4byte	.LVL423
 14843 0cd1 BB020000 		.4byte	.LVL424-1
 14844 0cd5 0200     		.2byte	0x2
 14845 0cd7 75       		.byte	0x75
 14846 0cd8 08       		.sleb128 8
 14847 0cd9 02030000 		.4byte	.LVL429
 14848 0cdd 07030000 		.4byte	.LVL430-1
 14849 0ce1 0100     		.2byte	0x1
 14850 0ce3 52       		.byte	0x52
 14851 0ce4 0A030000 		.4byte	.LVL431
 14852 0ce8 14030000 		.4byte	.LVL433
 14853 0cec 0200     		.2byte	0x2
 14854 0cee 30       		.byte	0x30
 14855 0cef 9F       		.byte	0x9f
 14856 0cf0 14030000 		.4byte	.LVL433
 14857 0cf4 20030000 		.4byte	.LVL434
 14858 0cf8 0100     		.2byte	0x1
 14859 0cfa 53       		.byte	0x53
 14860 0cfb 20030000 		.4byte	.LVL434
 14861 0cff 33030000 		.4byte	.LVL435-1
 14862 0d03 0200     		.2byte	0x2
 14863 0d05 75       		.byte	0x75
 14864 0d06 09       		.sleb128 9
 14865 0d07 36030000 		.4byte	.LVL436
 14866 0d0b 3B030000 		.4byte	.LVL437-1
 14867 0d0f 0200     		.2byte	0x2
 14868 0d11 75       		.byte	0x75
 14869 0d12 09       		.sleb128 9
 14870 0d13 3E030000 		.4byte	.LVL438
 14871 0d17 40030000 		.4byte	.LVL439
 14872 0d1b 0100     		.2byte	0x1
 14873 0d1d 53       		.byte	0x53
 14874 0d1e 40030000 		.4byte	.LVL439
 14875 0d22 5D030000 		.4byte	.LVL440-1
ARM GAS  C:\Users\Helon\AppData\Local\Temp\cckZyeCc.s 			page 314


 14876 0d26 0200     		.2byte	0x2
 14877 0d28 75       		.byte	0x75
 14878 0d29 09       		.sleb128 9
 14879 0d2a A0030000 		.4byte	.LVL449
 14880 0d2e A5030000 		.4byte	.LVL450-1
 14881 0d32 0200     		.2byte	0x2
 14882 0d34 75       		.byte	0x75
 14883 0d35 09       		.sleb128 9
 14884 0d36 A8030000 		.4byte	.LVL451
 14885 0d3a AA030000 		.4byte	.LVL452
 14886 0d3e 0200     		.2byte	0x2
 14887 0d40 30       		.byte	0x30
 14888 0d41 9F       		.byte	0x9f
 14889 0d42 AA030000 		.4byte	.LVL452
 14890 0d46 2E040000 		.4byte	.LVL453
 14891 0d4a 0100     		.2byte	0x1
 14892 0d4c 53       		.byte	0x53
 14893 0d4d 2E040000 		.4byte	.LVL453
 14894 0d51 39040000 		.4byte	.LVL454-1
 14895 0d55 0200     		.2byte	0x2
 14896 0d57 75       		.byte	0x75
 14897 0d58 08       		.sleb128 8
 14898 0d59 3C040000 		.4byte	.LVL455
 14899 0d5d 41040000 		.4byte	.LVL456-1
 14900 0d61 0200     		.2byte	0x2
 14901 0d63 75       		.byte	0x75
 14902 0d64 08       		.sleb128 8
 14903 0d65 44040000 		.4byte	.LVL457
 14904 0d69 46040000 		.4byte	.LVL458
 14905 0d6d 0100     		.2byte	0x1
 14906 0d6f 53       		.byte	0x53
 14907 0d70 46040000 		.4byte	.LVL458
 14908 0d74 51040000 		.4byte	.LVL459-1
 14909 0d78 0200     		.2byte	0x2
 14910 0d7a 75       		.byte	0x75
 14911 0d7b 08       		.sleb128 8
 14912 0d7c 6C040000 		.4byte	.LVL463
 14913 0d80 6E040000 		.4byte	.LVL464
 14914 0d84 0100     		.2byte	0x1
 14915 0d86 53       		.byte	0x53
 14916 0d87 6E040000 		.4byte	.LVL464
 14917 0d8b 79040000 		.4byte	.LVL465-1
 14918 0d8f 0200     		.2byte	0x2
 14919 0d91 75       		.byte	0x75
 14920 0d92 08       		.sleb128 8
 14921 0d93 94040000 		.4byte	.LVL469
 14922 0d97 5E050000 		.4byte	.LVL485
 14923 0d9b 0200     		.2byte	0x2
 14924 0d9d 30       		.byte	0x30
 14925 0d9e 9F       		.byte	0x9f
 14926 0d9f 5E050000 		.4byte	.LVL485
 14927 0da3 61050000 		.4byte	.LVL486-1
 14928 0da7 0100     		.2byte	0x1
 14929 0da9 50       		.byte	0x50
 14930 0daa 64050000 		.4byte	.LVL487
 14931 0dae 78050000 		.4byte	.LVL489
 14932 0db2 0200     		.2byte	0x2
ARM GAS  C:\Users\Helon\AppData\Local\Temp\cckZyeCc.s 			page 315


 14933 0db4 30       		.byte	0x30
 14934 0db5 9F       		.byte	0x9f
 14935 0db6 78050000 		.4byte	.LVL489
 14936 0dba C0050000 		.4byte	.LVL497
 14937 0dbe 0100     		.2byte	0x1
 14938 0dc0 54       		.byte	0x54
 14939 0dc1 C0050000 		.4byte	.LVL497
 14940 0dc5 C2050000 		.4byte	.LVL498
 14941 0dc9 0300     		.2byte	0x3
 14942 0dcb 74       		.byte	0x74
 14943 0dcc 30       		.sleb128 48
 14944 0dcd 9F       		.byte	0x9f
 14945 0dce CA050000 		.4byte	.LVL499
 14946 0dd2 DC050000 		.4byte	.LVL504
 14947 0dd6 0100     		.2byte	0x1
 14948 0dd8 54       		.byte	0x54
 14949 0dd9 DC050000 		.4byte	.LVL504
 14950 0ddd E8050000 		.4byte	.LVL505
 14951 0de1 0200     		.2byte	0x2
 14952 0de3 30       		.byte	0x30
 14953 0de4 9F       		.byte	0x9f
 14954 0de5 E8050000 		.4byte	.LVL505
 14955 0de9 F1050000 		.4byte	.LVL506-1
 14956 0ded 0100     		.2byte	0x1
 14957 0def 53       		.byte	0x53
 14958 0df0 FC050000 		.4byte	.LVL508
 14959 0df4 0E060000 		.4byte	.LVL509
 14960 0df8 0200     		.2byte	0x2
 14961 0dfa 30       		.byte	0x30
 14962 0dfb 9F       		.byte	0x9f
 14963 0dfc 0E060000 		.4byte	.LVL509
 14964 0e00 19060000 		.4byte	.LVL510-1
 14965 0e04 0100     		.2byte	0x1
 14966 0e06 53       		.byte	0x53
 14967 0e07 20060000 		.4byte	.LVL512
 14968 0e0b 32060000 		.4byte	.LVL514
 14969 0e0f 0200     		.2byte	0x2
 14970 0e11 30       		.byte	0x30
 14971 0e12 9F       		.byte	0x9f
 14972 0e13 32060000 		.4byte	.LVL514
 14973 0e17 52060000 		.4byte	.LVL515
 14974 0e1b 0100     		.2byte	0x1
 14975 0e1d 52       		.byte	0x52
 14976 0e1e 52060000 		.4byte	.LVL515
 14977 0e22 54060000 		.4byte	.LVL516
 14978 0e26 0200     		.2byte	0x2
 14979 0e28 75       		.byte	0x75
 14980 0e29 0A       		.sleb128 10
 14981 0e2a 7A060000 		.4byte	.LVL520
 14982 0e2e 7F060000 		.4byte	.LVL521-1
 14983 0e32 0100     		.2byte	0x1
 14984 0e34 52       		.byte	0x52
 14985 0e35 82060000 		.4byte	.LVL522
 14986 0e39 9A060000 		.4byte	.LVL523
 14987 0e3d 0100     		.2byte	0x1
 14988 0e3f 52       		.byte	0x52
 14989 0e40 9A060000 		.4byte	.LVL523
ARM GAS  C:\Users\Helon\AppData\Local\Temp\cckZyeCc.s 			page 316


 14990 0e44 A3060000 		.4byte	.LVL524-1
 14991 0e48 0200     		.2byte	0x2
 14992 0e4a 75       		.byte	0x75
 14993 0e4b 0A       		.sleb128 10
 14994 0e4c A6060000 		.4byte	.LVL525
 14995 0e50 AB060000 		.4byte	.LVL526-1
 14996 0e54 0100     		.2byte	0x1
 14997 0e56 52       		.byte	0x52
 14998 0e57 AE060000 		.4byte	.LVL527
 14999 0e5b B3060000 		.4byte	.LVL528-1
 15000 0e5f 0100     		.2byte	0x1
 15001 0e61 52       		.byte	0x52
 15002 0e62 B6060000 		.4byte	.LVL529
 15003 0e66 B8060000 		.4byte	.LVL530
 15004 0e6a 0200     		.2byte	0x2
 15005 0e6c 30       		.byte	0x30
 15006 0e6d 9F       		.byte	0x9f
 15007 0e6e B8060000 		.4byte	.LVL530
 15008 0e72 C0060000 		.4byte	.LVL531
 15009 0e76 0100     		.2byte	0x1
 15010 0e78 53       		.byte	0x53
 15011 0e79 C0060000 		.4byte	.LVL531
 15012 0e7d D5060000 		.4byte	.LVL534-1
 15013 0e81 0200     		.2byte	0x2
 15014 0e83 75       		.byte	0x75
 15015 0e84 09       		.sleb128 9
 15016 0e85 D8060000 		.4byte	.LVL535
 15017 0e89 DD060000 		.4byte	.LVL536-1
 15018 0e8d 0200     		.2byte	0x2
 15019 0e8f 75       		.byte	0x75
 15020 0e90 09       		.sleb128 9
 15021 0e91 E0060000 		.4byte	.LVL537
 15022 0e95 E5060000 		.4byte	.LVL538-1
 15023 0e99 0200     		.2byte	0x2
 15024 0e9b 75       		.byte	0x75
 15025 0e9c 09       		.sleb128 9
 15026 0e9d E8060000 		.4byte	.LVL539
 15027 0ea1 ED060000 		.4byte	.LVL540-1
 15028 0ea5 0200     		.2byte	0x2
 15029 0ea7 75       		.byte	0x75
 15030 0ea8 09       		.sleb128 9
 15031 0ea9 F0060000 		.4byte	.LVL541
 15032 0ead F5060000 		.4byte	.LVL542-1
 15033 0eb1 0200     		.2byte	0x2
 15034 0eb3 75       		.byte	0x75
 15035 0eb4 09       		.sleb128 9
 15036 0eb5 F8060000 		.4byte	.LVL543
 15037 0eb9 FD060000 		.4byte	.LVL544-1
 15038 0ebd 0200     		.2byte	0x2
 15039 0ebf 75       		.byte	0x75
 15040 0ec0 09       		.sleb128 9
 15041 0ec1 00070000 		.4byte	.LVL545
 15042 0ec5 05070000 		.4byte	.LVL546-1
 15043 0ec9 0200     		.2byte	0x2
 15044 0ecb 75       		.byte	0x75
 15045 0ecc 09       		.sleb128 9
 15046 0ecd 08070000 		.4byte	.LVL547
ARM GAS  C:\Users\Helon\AppData\Local\Temp\cckZyeCc.s 			page 317


 15047 0ed1 0A070000 		.4byte	.LVL548
 15048 0ed5 0200     		.2byte	0x2
 15049 0ed7 30       		.byte	0x30
 15050 0ed8 9F       		.byte	0x9f
 15051 0ed9 0A070000 		.4byte	.LVL548
 15052 0edd 1F070000 		.4byte	.LVL549-1
 15053 0ee1 0100     		.2byte	0x1
 15054 0ee3 52       		.byte	0x52
 15055 0ee4 2E070000 		.4byte	.LVL552
 15056 0ee8 33070000 		.4byte	.LVL553-1
 15057 0eec 0100     		.2byte	0x1
 15058 0eee 52       		.byte	0x52
 15059 0eef 36070000 		.4byte	.LVL554
 15060 0ef3 43070000 		.4byte	.LVL555-1
 15061 0ef7 0100     		.2byte	0x1
 15062 0ef9 52       		.byte	0x52
 15063 0efa 4C070000 		.4byte	.LVL557
 15064 0efe 51070000 		.4byte	.LVL558-1
 15065 0f02 0100     		.2byte	0x1
 15066 0f04 52       		.byte	0x52
 15067 0f05 D4070000 		.4byte	.LVL559
 15068 0f09 D9070000 		.4byte	.LVL560-1
 15069 0f0d 0100     		.2byte	0x1
 15070 0f0f 52       		.byte	0x52
 15071 0f10 DC070000 		.4byte	.LVL561
 15072 0f14 DE070000 		.4byte	.LVL562
 15073 0f18 0200     		.2byte	0x2
 15074 0f1a 30       		.byte	0x30
 15075 0f1b 9F       		.byte	0x9f
 15076 0f1c DE070000 		.4byte	.LVL562
 15077 0f20 E0070000 		.4byte	.LVL563
 15078 0f24 0100     		.2byte	0x1
 15079 0f26 53       		.byte	0x53
 15080 0f27 E0070000 		.4byte	.LVL563
 15081 0f2b E8070000 		.4byte	.LVL564
 15082 0f2f 0300     		.2byte	0x3
 15083 0f31 73       		.byte	0x73
 15084 0f32 30       		.sleb128 48
 15085 0f33 9F       		.byte	0x9f
 15086 0f34 E8070000 		.4byte	.LVL564
 15087 0f38 F3070000 		.4byte	.LVL565-1
 15088 0f3c 0200     		.2byte	0x2
 15089 0f3e 75       		.byte	0x75
 15090 0f3f 09       		.sleb128 9
 15091 0f40 06080000 		.4byte	.LVL568
 15092 0f44 0B080000 		.4byte	.LVL569-1
 15093 0f48 0200     		.2byte	0x2
 15094 0f4a 75       		.byte	0x75
 15095 0f4b 09       		.sleb128 9
 15096 0f4c 1E080000 		.4byte	.LVL572
 15097 0f50 23080000 		.4byte	.LVL573-1
 15098 0f54 0200     		.2byte	0x2
 15099 0f56 75       		.byte	0x75
 15100 0f57 09       		.sleb128 9
 15101 0f58 36080000 		.4byte	.LVL576
 15102 0f5c 3B080000 		.4byte	.LVL577-1
 15103 0f60 0200     		.2byte	0x2
ARM GAS  C:\Users\Helon\AppData\Local\Temp\cckZyeCc.s 			page 318


 15104 0f62 75       		.byte	0x75
 15105 0f63 09       		.sleb128 9
 15106 0f64 4E080000 		.4byte	.LVL580
 15107 0f68 53080000 		.4byte	.LVL581-1
 15108 0f6c 0200     		.2byte	0x2
 15109 0f6e 75       		.byte	0x75
 15110 0f6f 09       		.sleb128 9
 15111 0f70 66080000 		.4byte	.LVL584
 15112 0f74 7B080000 		.4byte	.LVL585-1
 15113 0f78 0200     		.2byte	0x2
 15114 0f7a 75       		.byte	0x75
 15115 0f7b 09       		.sleb128 9
 15116 0f7c 7E080000 		.4byte	.LVL586
 15117 0f80 83080000 		.4byte	.LVL587-1
 15118 0f84 0200     		.2byte	0x2
 15119 0f86 75       		.byte	0x75
 15120 0f87 09       		.sleb128 9
 15121 0f88 86080000 		.4byte	.LVL588
 15122 0f8c 8B080000 		.4byte	.LVL589-1
 15123 0f90 0200     		.2byte	0x2
 15124 0f92 75       		.byte	0x75
 15125 0f93 09       		.sleb128 9
 15126 0f94 8E080000 		.4byte	.LVL590
 15127 0f98 93080000 		.4byte	.LVL591-1
 15128 0f9c 0200     		.2byte	0x2
 15129 0f9e 75       		.byte	0x75
 15130 0f9f 09       		.sleb128 9
 15131 0fa0 96080000 		.4byte	.LVL592
 15132 0fa4 9B080000 		.4byte	.LVL593-1
 15133 0fa8 0200     		.2byte	0x2
 15134 0faa 75       		.byte	0x75
 15135 0fab 09       		.sleb128 9
 15136 0fac 9E080000 		.4byte	.LVL594
 15137 0fb0 A8080000 		.4byte	.LVL595
 15138 0fb4 0200     		.2byte	0x2
 15139 0fb6 30       		.byte	0x30
 15140 0fb7 9F       		.byte	0x9f
 15141 0fb8 00000000 		.4byte	0
 15142 0fbc 00000000 		.4byte	0
 15143              	.LLST34:
 15144 0fc0 68020000 		.4byte	.LVL415
 15145 0fc4 A0020000 		.4byte	.LVL422
 15146 0fc8 0100     		.2byte	0x1
 15147 0fca 54       		.byte	0x54
 15148 0fcb 00000000 		.4byte	0
 15149 0fcf 00000000 		.4byte	0
 15150              	.LLST35:
 15151 0fd3 7A020000 		.4byte	.LVL418
 15152 0fd7 82020000 		.4byte	.LVL419
 15153 0fdb 0100     		.2byte	0x1
 15154 0fdd 50       		.byte	0x50
 15155 0fde 82020000 		.4byte	.LVL419
 15156 0fe2 85020000 		.4byte	.LVL420-1
 15157 0fe6 0100     		.2byte	0x1
 15158 0fe8 52       		.byte	0x52
 15159 0fe9 00000000 		.4byte	0
 15160 0fed 00000000 		.4byte	0
ARM GAS  C:\Users\Helon\AppData\Local\Temp\cckZyeCc.s 			page 319


 15161              	.LLST36:
 15162 0ff1 5A000000 		.4byte	.LVL353
 15163 0ff5 E4010000 		.4byte	.LVL396
 15164 0ff9 0200     		.2byte	0x2
 15165 0ffb 30       		.byte	0x30
 15166 0ffc 9F       		.byte	0x9f
 15167 0ffd E4010000 		.4byte	.LVL396
 15168 1001 EC010000 		.4byte	.LVL397
 15169 1005 0100     		.2byte	0x1
 15170 1007 50       		.byte	0x50
 15171 1008 04020000 		.4byte	.LVL400
 15172 100c 84030000 		.4byte	.LVL442
 15173 1010 0200     		.2byte	0x2
 15174 1012 30       		.byte	0x30
 15175 1013 9F       		.byte	0x9f
 15176 1014 84030000 		.4byte	.LVL442
 15177 1018 8A030000 		.4byte	.LVL443
 15178 101c 0100     		.2byte	0x1
 15179 101e 50       		.byte	0x50
 15180 101f 98030000 		.4byte	.LVL446
 15181 1023 9A030000 		.4byte	.LVL447
 15182 1027 0100     		.2byte	0x1
 15183 1029 50       		.byte	0x50
 15184 102a A0030000 		.4byte	.LVL449
 15185 102e B4040000 		.4byte	.LVL470
 15186 1032 0200     		.2byte	0x2
 15187 1034 30       		.byte	0x30
 15188 1035 9F       		.byte	0x9f
 15189 1036 B6040000 		.4byte	.LVL471
 15190 103a 88050000 		.4byte	.LVL491
 15191 103e 0200     		.2byte	0x2
 15192 1040 30       		.byte	0x30
 15193 1041 9F       		.byte	0x9f
 15194 1042 88050000 		.4byte	.LVL491
 15195 1046 90050000 		.4byte	.LVL492
 15196 104a 0100     		.2byte	0x1
 15197 104c 50       		.byte	0x50
 15198 104d D0050000 		.4byte	.LVL502
 15199 1051 D2050000 		.4byte	.LVL503
 15200 1055 0100     		.2byte	0x1
 15201 1057 50       		.byte	0x50
 15202 1058 DC050000 		.4byte	.LVL504
 15203 105c 66060000 		.4byte	.LVL517
 15204 1060 0200     		.2byte	0x2
 15205 1062 30       		.byte	0x30
 15206 1063 9F       		.byte	0x9f
 15207 1064 66060000 		.4byte	.LVL517
 15208 1068 74060000 		.4byte	.LVL518
 15209 106c 0100     		.2byte	0x1
 15210 106e 50       		.byte	0x50
 15211 106f 7A060000 		.4byte	.LVL520
 15212 1073 20070000 		.4byte	.LVL549
 15213 1077 0200     		.2byte	0x2
 15214 1079 30       		.byte	0x30
 15215 107a 9F       		.byte	0x9f
 15216 107b 20070000 		.4byte	.LVL549
 15217 107f 28070000 		.4byte	.LVL550
ARM GAS  C:\Users\Helon\AppData\Local\Temp\cckZyeCc.s 			page 320


 15218 1083 0100     		.2byte	0x1
 15219 1085 50       		.byte	0x50
 15220 1086 2E070000 		.4byte	.LVL552
 15221 108a F4070000 		.4byte	.LVL565
 15222 108e 0200     		.2byte	0x2
 15223 1090 30       		.byte	0x30
 15224 1091 9F       		.byte	0x9f
 15225 1092 F4070000 		.4byte	.LVL565
 15226 1096 FA070000 		.4byte	.LVL566
 15227 109a 0100     		.2byte	0x1
 15228 109c 50       		.byte	0x50
 15229 109d 06080000 		.4byte	.LVL568
 15230 10a1 0C080000 		.4byte	.LVL569
 15231 10a5 0200     		.2byte	0x2
 15232 10a7 30       		.byte	0x30
 15233 10a8 9F       		.byte	0x9f
 15234 10a9 0C080000 		.4byte	.LVL569
 15235 10ad 12080000 		.4byte	.LVL570
 15236 10b1 0100     		.2byte	0x1
 15237 10b3 50       		.byte	0x50
 15238 10b4 1E080000 		.4byte	.LVL572
 15239 10b8 24080000 		.4byte	.LVL573
 15240 10bc 0200     		.2byte	0x2
 15241 10be 30       		.byte	0x30
 15242 10bf 9F       		.byte	0x9f
 15243 10c0 24080000 		.4byte	.LVL573
 15244 10c4 2A080000 		.4byte	.LVL574
 15245 10c8 0100     		.2byte	0x1
 15246 10ca 50       		.byte	0x50
 15247 10cb 36080000 		.4byte	.LVL576
 15248 10cf 3C080000 		.4byte	.LVL577
 15249 10d3 0200     		.2byte	0x2
 15250 10d5 30       		.byte	0x30
 15251 10d6 9F       		.byte	0x9f
 15252 10d7 3C080000 		.4byte	.LVL577
 15253 10db 42080000 		.4byte	.LVL578
 15254 10df 0100     		.2byte	0x1
 15255 10e1 50       		.byte	0x50
 15256 10e2 4E080000 		.4byte	.LVL580
 15257 10e6 54080000 		.4byte	.LVL581
 15258 10ea 0200     		.2byte	0x2
 15259 10ec 30       		.byte	0x30
 15260 10ed 9F       		.byte	0x9f
 15261 10ee 54080000 		.4byte	.LVL581
 15262 10f2 5A080000 		.4byte	.LVL582
 15263 10f6 0100     		.2byte	0x1
 15264 10f8 50       		.byte	0x50
 15265 10f9 66080000 		.4byte	.LVL584
 15266 10fd A8080000 		.4byte	.LVL595
 15267 1101 0200     		.2byte	0x2
 15268 1103 30       		.byte	0x30
 15269 1104 9F       		.byte	0x9f
 15270 1105 00000000 		.4byte	0
 15271 1109 00000000 		.4byte	0
 15272              	.LLST37:
 15273 110d 5A000000 		.4byte	.LVL353
 15274 1111 C2060000 		.4byte	.LVL532
ARM GAS  C:\Users\Helon\AppData\Local\Temp\cckZyeCc.s 			page 321


 15275 1115 0200     		.2byte	0x2
 15276 1117 30       		.byte	0x30
 15277 1118 9F       		.byte	0x9f
 15278 1119 C2060000 		.4byte	.LVL532
 15279 111d CA060000 		.4byte	.LVL533
 15280 1121 0100     		.2byte	0x1
 15281 1123 53       		.byte	0x53
 15282 1124 08070000 		.4byte	.LVL547
 15283 1128 A8080000 		.4byte	.LVL595
 15284 112c 0200     		.2byte	0x2
 15285 112e 30       		.byte	0x30
 15286 112f 9F       		.byte	0x9f
 15287 1130 00000000 		.4byte	0
 15288 1134 00000000 		.4byte	0
 15289              	.LLST38:
 15290 1138 00000000 		.4byte	.LVL596
 15291 113c 23000000 		.4byte	.LVL602-1
 15292 1140 0100     		.2byte	0x1
 15293 1142 50       		.byte	0x50
 15294 1143 23000000 		.4byte	.LVL602-1
 15295 1147 34020000 		.4byte	.LFE48
 15296 114b 0400     		.2byte	0x4
 15297 114d F3       		.byte	0xf3
 15298 114e 01       		.uleb128 0x1
 15299 114f 50       		.byte	0x50
 15300 1150 9F       		.byte	0x9f
 15301 1151 00000000 		.4byte	0
 15302 1155 00000000 		.4byte	0
 15303              	.LLST39:
 15304 1159 0E000000 		.4byte	.LVL597
 15305 115d AA010000 		.4byte	.LVL629
 15306 1161 0200     		.2byte	0x2
 15307 1163 30       		.byte	0x30
 15308 1164 9F       		.byte	0x9f
 15309 1165 AA010000 		.4byte	.LVL629
 15310 1169 CE010000 		.4byte	.LVL632
 15311 116d 0100     		.2byte	0x1
 15312 116f 50       		.byte	0x50
 15313 1170 CE010000 		.4byte	.LVL632
 15314 1174 D1010000 		.4byte	.LVL633-1
 15315 1178 0200     		.2byte	0x2
 15316 117a 73       		.byte	0x73
 15317 117b 10       		.sleb128 16
 15318 117c F2010000 		.4byte	.LVL635
 15319 1180 F4010000 		.4byte	.LVL636
 15320 1184 0200     		.2byte	0x2
 15321 1186 30       		.byte	0x30
 15322 1187 9F       		.byte	0x9f
 15323 1188 00000000 		.4byte	0
 15324 118c 00000000 		.4byte	0
 15325              	.LLST40:
 15326 1190 88000000 		.4byte	.LVL609
 15327 1194 8C000000 		.4byte	.LVL610
 15328 1198 0200     		.2byte	0x2
 15329 119a 30       		.byte	0x30
 15330 119b 9F       		.byte	0x9f
 15331 119c 8C000000 		.4byte	.LVL610
ARM GAS  C:\Users\Helon\AppData\Local\Temp\cckZyeCc.s 			page 322


 15332 11a0 66010000 		.4byte	.LVL621
 15333 11a4 0100     		.2byte	0x1
 15334 11a6 54       		.byte	0x54
 15335 11a7 8C010000 		.4byte	.LVL625
 15336 11ab A0010000 		.4byte	.LVL627
 15337 11af 0100     		.2byte	0x1
 15338 11b1 54       		.byte	0x54
 15339 11b2 00000000 		.4byte	0
 15340 11b6 00000000 		.4byte	0
 15341              	.LLST41:
 15342 11ba 12000000 		.4byte	.LVL598
 15343 11be 14000000 		.4byte	.LVL599
 15344 11c2 0300     		.2byte	0x3
 15345 11c4 73       		.byte	0x73
 15346 11c5 7C       		.sleb128 -4
 15347 11c6 9F       		.byte	0x9f
 15348 11c7 14000000 		.4byte	.LVL599
 15349 11cb 16000000 		.4byte	.LVL600
 15350 11cf 0300     		.2byte	0x3
 15351 11d1 73       		.byte	0x73
 15352 11d2 78       		.sleb128 -8
 15353 11d3 9F       		.byte	0x9f
 15354 11d4 16000000 		.4byte	.LVL600
 15355 11d8 23000000 		.4byte	.LVL602-1
 15356 11dc 0E00     		.2byte	0xe
 15357 11de 03       		.byte	0x3
 15358 11df 00000000 		.4byte	negotiatedMtu
 15359 11e3 94       		.byte	0x94
 15360 11e4 02       		.byte	0x2
 15361 11e5 0A       		.byte	0xa
 15362 11e6 FFFF     		.2byte	0xffff
 15363 11e8 1A       		.byte	0x1a
 15364 11e9 34       		.byte	0x34
 15365 11ea 1C       		.byte	0x1c
 15366 11eb 9F       		.byte	0x9f
 15367 11ec 00000000 		.4byte	0
 15368 11f0 00000000 		.4byte	0
 15369              	.LLST42:
 15370 11f4 20000000 		.4byte	.LVL601
 15371 11f8 23000000 		.4byte	.LVL602-1
 15372 11fc 0200     		.2byte	0x2
 15373 11fe 73       		.byte	0x73
 15374 11ff 00       		.sleb128 0
 15375 1200 23000000 		.4byte	.LVL602-1
 15376 1204 C2010000 		.4byte	.LVL631
 15377 1208 0200     		.2byte	0x2
 15378 120a 76       		.byte	0x76
 15379 120b 00       		.sleb128 0
 15380 120c C2010000 		.4byte	.LVL631
 15381 1210 F0010000 		.4byte	.LVL634
 15382 1214 0200     		.2byte	0x2
 15383 1216 7D       		.byte	0x7d
 15384 1217 00       		.sleb128 0
 15385 1218 F2010000 		.4byte	.LVL635
 15386 121c F4010000 		.4byte	.LVL636
 15387 1220 0200     		.2byte	0x2
 15388 1222 76       		.byte	0x76
ARM GAS  C:\Users\Helon\AppData\Local\Temp\cckZyeCc.s 			page 323


 15389 1223 00       		.sleb128 0
 15390 1224 00000000 		.4byte	0
 15391 1228 00000000 		.4byte	0
 15392              	.LLST43:
 15393 122c 20000000 		.4byte	.LVL601
 15394 1230 C8000000 		.4byte	.LVL614
 15395 1234 0200     		.2byte	0x2
 15396 1236 30       		.byte	0x30
 15397 1237 9F       		.byte	0x9f
 15398 1238 C8000000 		.4byte	.LVL614
 15399 123c F2000000 		.4byte	.LVL615
 15400 1240 0100     		.2byte	0x1
 15401 1242 50       		.byte	0x50
 15402 1243 F8000000 		.4byte	.LVL617
 15403 1247 66010000 		.4byte	.LVL621
 15404 124b 0200     		.2byte	0x2
 15405 124d 30       		.byte	0x30
 15406 124e 9F       		.byte	0x9f
 15407 124f 7A010000 		.4byte	.LVL623
 15408 1253 8C010000 		.4byte	.LVL625
 15409 1257 0100     		.2byte	0x1
 15410 1259 54       		.byte	0x54
 15411 125a 8C010000 		.4byte	.LVL625
 15412 125e F2010000 		.4byte	.LVL635
 15413 1262 0200     		.2byte	0x2
 15414 1264 30       		.byte	0x30
 15415 1265 9F       		.byte	0x9f
 15416 1266 00000000 		.4byte	0
 15417 126a 00000000 		.4byte	0
 15418              	.LLST44:
 15419 126e 26000000 		.4byte	.LVL603
 15420 1272 68000000 		.4byte	.LVL606
 15421 1276 0100     		.2byte	0x1
 15422 1278 55       		.byte	0x55
 15423 1279 68000000 		.4byte	.LVL606
 15424 127d 6C000000 		.4byte	.LVL607
 15425 1281 0200     		.2byte	0x2
 15426 1283 44       		.byte	0x44
 15427 1284 9F       		.byte	0x9f
 15428 1285 6C000000 		.4byte	.LVL607
 15429 1289 C0010000 		.4byte	.LVL630
 15430 128d 0100     		.2byte	0x1
 15431 128f 55       		.byte	0x55
 15432 1290 F2010000 		.4byte	.LVL635
 15433 1294 F4010000 		.4byte	.LVL636
 15434 1298 0100     		.2byte	0x1
 15435 129a 55       		.byte	0x55
 15436 129b 00000000 		.4byte	0
 15437 129f 00000000 		.4byte	0
 15438              	.LLST45:
 15439 12a3 00000000 		.4byte	.LVL637
 15440 12a7 08000000 		.4byte	.LVL639
 15441 12ab 0100     		.2byte	0x1
 15442 12ad 50       		.byte	0x50
 15443 12ae 08000000 		.4byte	.LVL639
 15444 12b2 1C000000 		.4byte	.LFE53
 15445 12b6 0400     		.2byte	0x4
ARM GAS  C:\Users\Helon\AppData\Local\Temp\cckZyeCc.s 			page 324


 15446 12b8 F3       		.byte	0xf3
 15447 12b9 01       		.uleb128 0x1
 15448 12ba 50       		.byte	0x50
 15449 12bb 9F       		.byte	0x9f
 15450 12bc 00000000 		.4byte	0
 15451 12c0 00000000 		.4byte	0
 15452              	.LLST46:
 15453 12c4 00000000 		.4byte	.LVL637
 15454 12c8 0A000000 		.4byte	.LVL640
 15455 12cc 0100     		.2byte	0x1
 15456 12ce 51       		.byte	0x51
 15457 12cf 0A000000 		.4byte	.LVL640
 15458 12d3 14000000 		.4byte	.LVL643
 15459 12d7 0100     		.2byte	0x1
 15460 12d9 55       		.byte	0x55
 15461 12da 14000000 		.4byte	.LVL643
 15462 12de 1C000000 		.4byte	.LFE53
 15463 12e2 0100     		.2byte	0x1
 15464 12e4 51       		.byte	0x51
 15465 12e5 00000000 		.4byte	0
 15466 12e9 00000000 		.4byte	0
 15467              	.LLST47:
 15468 12ed 00000000 		.4byte	.LVL637
 15469 12f1 08000000 		.4byte	.LVL639
 15470 12f5 0100     		.2byte	0x1
 15471 12f7 52       		.byte	0x52
 15472 12f8 08000000 		.4byte	.LVL639
 15473 12fc 1A000000 		.4byte	.LVL645
 15474 1300 0100     		.2byte	0x1
 15475 1302 56       		.byte	0x56
 15476 1303 1A000000 		.4byte	.LVL645
 15477 1307 1C000000 		.4byte	.LFE53
 15478 130b 0100     		.2byte	0x1
 15479 130d 50       		.byte	0x50
 15480 130e 00000000 		.4byte	0
 15481 1312 00000000 		.4byte	0
 15482              	.LLST48:
 15483 1316 04000000 		.4byte	.LVL638
 15484 131a 08000000 		.4byte	.LVL639
 15485 131e 0200     		.2byte	0x2
 15486 1320 30       		.byte	0x30
 15487 1321 9F       		.byte	0x9f
 15488 1322 08000000 		.4byte	.LVL639
 15489 1326 1A000000 		.4byte	.LVL644
 15490 132a 0100     		.2byte	0x1
 15491 132c 54       		.byte	0x54
 15492 132d 00000000 		.4byte	0
 15493 1331 00000000 		.4byte	0
 15494              		.section	.debug_aranges,"",%progbits
 15495 0000 AC000000 		.4byte	0xac
 15496 0004 0200     		.2byte	0x2
 15497 0006 00000000 		.4byte	.Ldebug_info0
 15498 000a 04       		.byte	0x4
 15499 000b 00       		.byte	0
 15500 000c 0000     		.2byte	0
 15501 000e 0000     		.2byte	0
 15502 0010 00000000 		.4byte	.LFB35
ARM GAS  C:\Users\Helon\AppData\Local\Temp\cckZyeCc.s 			page 325


 15503 0014 C0020000 		.4byte	.LFE35-.LFB35
 15504 0018 00000000 		.4byte	.LFB37
 15505 001c 44000000 		.4byte	.LFE37-.LFB37
 15506 0020 00000000 		.4byte	.LFB45
 15507 0024 40000000 		.4byte	.LFE45-.LFB45
 15508 0028 00000000 		.4byte	.LFB36
 15509 002c 64000000 		.4byte	.LFE36-.LFB36
 15510 0030 00000000 		.4byte	.LFB38
 15511 0034 24000000 		.4byte	.LFE38-.LFB38
 15512 0038 00000000 		.4byte	.LFB40
 15513 003c 02000000 		.4byte	.LFE40-.LFB40
 15514 0040 00000000 		.4byte	.LFB41
 15515 0044 02000000 		.4byte	.LFE41-.LFB41
 15516 0048 00000000 		.4byte	.LFB42
 15517 004c 1C000000 		.4byte	.LFE42-.LFB42
 15518 0050 00000000 		.4byte	.LFB39
 15519 0054 50000000 		.4byte	.LFE39-.LFB39
 15520 0058 00000000 		.4byte	.LFB44
 15521 005c 6C000000 		.4byte	.LFE44-.LFB44
 15522 0060 00000000 		.4byte	.LFB46
 15523 0064 34000000 		.4byte	.LFE46-.LFB46
 15524 0068 00000000 		.4byte	.LFB47
 15525 006c 40000000 		.4byte	.LFE47-.LFB47
 15526 0070 00000000 		.4byte	.LFB49
 15527 0074 D0010000 		.4byte	.LFE49-.LFB49
 15528 0078 00000000 		.4byte	.LFB50
 15529 007c CC030000 		.4byte	.LFE50-.LFB50
 15530 0080 00000000 		.4byte	.LFB51
 15531 0084 BC010000 		.4byte	.LFE51-.LFB51
 15532 0088 00000000 		.4byte	.LFB52
 15533 008c 70000000 		.4byte	.LFE52-.LFB52
 15534 0090 00000000 		.4byte	.LFB43
 15535 0094 DC080000 		.4byte	.LFE43-.LFB43
 15536 0098 00000000 		.4byte	.LFB48
 15537 009c 34020000 		.4byte	.LFE48-.LFB48
 15538 00a0 00000000 		.4byte	.LFB53
 15539 00a4 1C000000 		.4byte	.LFE53-.LFB53
 15540 00a8 00000000 		.4byte	0
 15541 00ac 00000000 		.4byte	0
 15542              		.section	.debug_ranges,"",%progbits
 15543              	.Ldebug_ranges0:
 15544 0000 00000000 		.4byte	.LFB35
 15545 0004 C0020000 		.4byte	.LFE35
 15546 0008 00000000 		.4byte	.LFB37
 15547 000c 44000000 		.4byte	.LFE37
 15548 0010 00000000 		.4byte	.LFB45
 15549 0014 40000000 		.4byte	.LFE45
 15550 0018 00000000 		.4byte	.LFB36
 15551 001c 64000000 		.4byte	.LFE36
 15552 0020 00000000 		.4byte	.LFB38
 15553 0024 24000000 		.4byte	.LFE38
 15554 0028 00000000 		.4byte	.LFB40
 15555 002c 02000000 		.4byte	.LFE40
 15556 0030 00000000 		.4byte	.LFB41
 15557 0034 02000000 		.4byte	.LFE41
 15558 0038 00000000 		.4byte	.LFB42
 15559 003c 1C000000 		.4byte	.LFE42
ARM GAS  C:\Users\Helon\AppData\Local\Temp\cckZyeCc.s 			page 326


 15560 0040 00000000 		.4byte	.LFB39
 15561 0044 50000000 		.4byte	.LFE39
 15562 0048 00000000 		.4byte	.LFB44
 15563 004c 6C000000 		.4byte	.LFE44
 15564 0050 00000000 		.4byte	.LFB46
 15565 0054 34000000 		.4byte	.LFE46
 15566 0058 00000000 		.4byte	.LFB47
 15567 005c 40000000 		.4byte	.LFE47
 15568 0060 00000000 		.4byte	.LFB49
 15569 0064 D0010000 		.4byte	.LFE49
 15570 0068 00000000 		.4byte	.LFB50
 15571 006c CC030000 		.4byte	.LFE50
 15572 0070 00000000 		.4byte	.LFB51
 15573 0074 BC010000 		.4byte	.LFE51
 15574 0078 00000000 		.4byte	.LFB52
 15575 007c 70000000 		.4byte	.LFE52
 15576 0080 00000000 		.4byte	.LFB43
 15577 0084 DC080000 		.4byte	.LFE43
 15578 0088 00000000 		.4byte	.LFB48
 15579 008c 34020000 		.4byte	.LFE48
 15580 0090 00000000 		.4byte	.LFB53
 15581 0094 1C000000 		.4byte	.LFE53
 15582 0098 00000000 		.4byte	0
 15583 009c 00000000 		.4byte	0
 15584              		.section	.debug_line,"",%progbits
 15585              	.Ldebug_line0:
 15586 0000 1B0A0000 		.section	.debug_str,"MS",%progbits,1
 15586      02006703 
 15586      00000201 
 15586      FB0E0D00 
 15586      01010101 
 15587              	.LASF532:
 15588 0000 74784275 		.ascii	"txBuffer\000"
 15588      66666572 
 15588      00
 15589              	.LASF555:
 15590 0009 41445644 		.ascii	"ADVD\000"
 15590      00
 15591              	.LASF712:
 15592 000e 4379426C 		.ascii	"CyBle_GapcConnectDevice\000"
 15592      655F4761 
 15592      7063436F 
 15592      6E6E6563 
 15592      74446576 
 15593              	.LASF14:
 15594 0026 696E7438 		.ascii	"int8_t\000"
 15594      5F7400
 15595              	.LASF542:
 15596 002d 656E6162 		.ascii	"enableByteMode\000"
 15596      6C654279 
 15596      74654D6F 
 15596      646500
 15597              	.LASF412:
 15598 003c 4359424C 		.ascii	"CYBLE_EVT_HTSS_NOTIFICATION_DISABLED\000"
 15598      455F4556 
 15598      545F4854 
 15598      53535F4E 
ARM GAS  C:\Users\Helon\AppData\Local\Temp\cckZyeCc.s 			page 327


 15598      4F544946 
 15599              	.LASF166:
 15600 0061 4359424C 		.ascii	"CYBLE_GAPC_SCAN_RSP\000"
 15600      455F4741 
 15600      50435F53 
 15600      43414E5F 
 15600      52535000 
 15601              	.LASF205:
 15602 0075 7363616E 		.ascii	"scanRspData\000"
 15602      52737044 
 15602      61746100 
 15603              	.LASF29:
 15604 0081 73697A65 		.ascii	"size_t\000"
 15604      5F7400
 15605              	.LASF30:
 15606 0088 73697A65 		.ascii	"sizetype\000"
 15606      74797065 
 15606      00
 15607              	.LASF300:
 15608 0091 4359424C 		.ascii	"CYBLE_EVT_BCSC_READ_CHAR_RESPONSE\000"
 15608      455F4556 
 15608      545F4243 
 15608      53435F52 
 15608      4541445F 
 15609              	.LASF241:
 15610 00b3 4359424C 		.ascii	"CYBLE_GATTS_HANDLE_VALUE_NTF_T\000"
 15610      455F4741 
 15610      5454535F 
 15610      48414E44 
 15610      4C455F56 
 15611              	.LASF568:
 15612 00d2 41445653 		.ascii	"ADVS\000"
 15612      00
 15613              	.LASF323:
 15614 00d7 4359424C 		.ascii	"CYBLE_EVT_CGMSC_INDICATION\000"
 15614      455F4556 
 15614      545F4347 
 15614      4D53435F 
 15614      494E4449 
 15615              	.LASF341:
 15616 00f2 4359424C 		.ascii	"CYBLE_EVT_CPSC_READ_DESCR_RESPONSE\000"
 15616      455F4556 
 15616      545F4350 
 15616      53435F52 
 15616      4541445F 
 15617              	.LASF190:
 15618 0115 656B6579 		.ascii	"ekeySize\000"
 15618      53697A65 
 15618      00
 15619              	.LASF460:
 15620 011e 4359424C 		.ascii	"CYBLE_EVT_RTUSS_WRITE_CHAR_CMD\000"
 15620      455F4556 
 15620      545F5254 
 15620      5553535F 
 15620      57524954 
 15621              	.LASF701:
 15622 013d 54696D65 		.ascii	"TimerInterrupt_StartEx\000"
ARM GAS  C:\Users\Helon\AppData\Local\Temp\cckZyeCc.s 			page 328


 15622      72496E74 
 15622      65727275 
 15622      70745F53 
 15622      74617274 
 15623              	.LASF494:
 15624 0154 4359424C 		.ascii	"CYBLE_EVT_WPTSC_NOTIFICATION\000"
 15624      455F4556 
 15624      545F5750 
 15624      5453435F 
 15624      4E4F5449 
 15625              	.LASF629:
 15626 0171 72616E67 		.ascii	"range\000"
 15626      6500
 15627              	.LASF500:
 15628 0177 4359424C 		.ascii	"CYBLE_EVT_WSSS_INDICATION_ENABLED\000"
 15628      455F4556 
 15628      545F5753 
 15628      53535F49 
 15628      4E444943 
 15629              	.LASF339:
 15630 0199 4359424C 		.ascii	"CYBLE_EVT_CPSC_READ_CHAR_RESPONSE\000"
 15630      455F4556 
 15630      545F4350 
 15630      53435F52 
 15630      4541445F 
 15631              	.LASF305:
 15632 01bb 4359424C 		.ascii	"CYBLE_EVT_BLSS_INDICATION_CONFIRMED\000"
 15632      455F4556 
 15632      545F424C 
 15632      53535F49 
 15632      4E444943 
 15633              	.LASF620:
 15634 01df 4164764D 		.ascii	"AdvMax\000"
 15634      617800
 15635              	.LASF640:
 15636 01e6 5F777269 		.ascii	"_write\000"
 15636      746500
 15637              	.LASF352:
 15638 01ed 4359424C 		.ascii	"CYBLE_EVT_CSCSC_READ_CHAR_RESPONSE\000"
 15638      455F4556 
 15638      545F4353 
 15638      4353435F 
 15638      52454144 
 15639              	.LASF590:
 15640 0210 4C6F7750 		.ascii	"LowPowerManagement\000"
 15640      6F776572 
 15640      4D616E61 
 15640      67656D65 
 15640      6E7400
 15641              	.LASF643:
 15642 0223 6379426C 		.ascii	"cyBle_authInfo\000"
 15642      655F6175 
 15642      7468496E 
 15642      666F00
 15643              	.LASF328:
 15644 0232 4359424C 		.ascii	"CYBLE_EVT_CGMSC_WRITE_DESCR_RESPONSE\000"
 15644      455F4556 
ARM GAS  C:\Users\Helon\AppData\Local\Temp\cckZyeCc.s 			page 329


 15644      545F4347 
 15644      4D53435F 
 15644      57524954 
 15645              	.LASF383:
 15646 0257 4359424C 		.ascii	"CYBLE_EVT_GLSS_NOTIFICATION_DISABLED\000"
 15646      455F4556 
 15646      545F474C 
 15646      53535F4E 
 15646      4F544946 
 15647              	.LASF581:
 15648 027c 6576656E 		.ascii	"eventParam\000"
 15648      74506172 
 15648      616D00
 15649              	.LASF310:
 15650 0287 4359424C 		.ascii	"CYBLE_EVT_BLSC_READ_CHAR_RESPONSE\000"
 15650      455F4556 
 15650      545F424C 
 15650      53435F52 
 15650      4541445F 
 15651              	.LASF44:
 15652 02a9 4359424C 		.ascii	"CYBLE_EVT_GAP_DEVICE_CONNECTED\000"
 15652      455F4556 
 15652      545F4741 
 15652      505F4445 
 15652      56494345 
 15653              	.LASF171:
 15654 02c8 4359424C 		.ascii	"CYBLE_GAP_IOCAP_NOINPUT_NOOUTPUT\000"
 15654      455F4741 
 15654      505F494F 
 15654      4341505F 
 15654      4E4F494E 
 15655              	.LASF716:
 15656 02e9 4379536F 		.ascii	"CySoftwareReset\000"
 15656      66747761 
 15656      72655265 
 15656      73657400 
 15657              	.LASF51:
 15658 02f9 4359424C 		.ascii	"CYBLE_EVT_GATT_CONNECT_IND\000"
 15658      455F4556 
 15658      545F4741 
 15658      54545F43 
 15658      4F4E4E45 
 15659              	.LASF388:
 15660 0314 4359424C 		.ascii	"CYBLE_EVT_GLSC_WRITE_CHAR_RESPONSE\000"
 15660      455F4556 
 15660      545F474C 
 15660      53435F57 
 15660      52495445 
 15661              	.LASF126:
 15662 0337 4359424C 		.ascii	"CYBLE_BLESS_STATE_ECO_ON\000"
 15662      455F424C 
 15662      4553535F 
 15662      53544154 
 15662      455F4543 
 15663              	.LASF21:
 15664 0350 75696E74 		.ascii	"uint32\000"
 15664      333200
ARM GAS  C:\Users\Helon\AppData\Local\Temp\cckZyeCc.s 			page 330


 15665              	.LASF727:
 15666 0357 4379426C 		.ascii	"CyBle_GapSetIoCap\000"
 15666      655F4761 
 15666      70536574 
 15666      496F4361 
 15666      7000
 15667              	.LASF623:
 15668 0369 53747241 		.ascii	"StrAdvData\000"
 15668      64764461 
 15668      746100
 15669              	.LASF173:
 15670 0374 4359424C 		.ascii	"CYBLE_GAP_IOCAP_T\000"
 15670      455F4741 
 15670      505F494F 
 15670      4341505F 
 15670      5400
 15671              	.LASF129:
 15672 0386 4359424C 		.ascii	"CYBLE_BLESS_STATE_HIBERNATE\000"
 15672      455F424C 
 15672      4553535F 
 15672      53544154 
 15672      455F4849 
 15673              	.LASF459:
 15674 03a2 4359424C 		.ascii	"CYBLE_EVT_RSCSC_WRITE_DESCR_RESPONSE\000"
 15674      455F4556 
 15674      545F5253 
 15674      4353435F 
 15674      57524954 
 15675              	.LASF298:
 15676 03c7 4359424C 		.ascii	"CYBLE_EVT_BCSS_INDICATION_CONFIRMED\000"
 15676      455F4556 
 15676      545F4243 
 15676      53535F49 
 15676      4E444943 
 15677              	.LASF299:
 15678 03eb 4359424C 		.ascii	"CYBLE_EVT_BCSC_INDICATION\000"
 15678      455F4556 
 15678      545F4243 
 15678      53435F49 
 15678      4E444943 
 15679              	.LASF146:
 15680 0405 626C6550 		.ascii	"blePwrLevelInDbm\000"
 15680      77724C65 
 15680      76656C49 
 15680      6E44626D 
 15680      00
 15681              	.LASF428:
 15682 0416 4359424C 		.ascii	"CYBLE_EVT_LNSS_INDICATION_DISABLED\000"
 15682      455F4556 
 15682      545F4C4E 
 15682      53535F49 
 15682      4E444943 
 15683              	.LASF360:
 15684 0439 4359424C 		.ascii	"CYBLE_EVT_CTSC_READ_CHAR_RESPONSE\000"
 15684      455F4556 
 15684      545F4354 
 15684      53435F52 
ARM GAS  C:\Users\Helon\AppData\Local\Temp\cckZyeCc.s 			page 331


 15684      4541445F 
 15685              	.LASF269:
 15686 045b 4359424C 		.ascii	"CYBLE_EVT_GATTC_SRVC_DISCOVERY_COMPLETE\000"
 15686      455F4556 
 15686      545F4741 
 15686      5454435F 
 15686      53525643 
 15687              	.LASF265:
 15688 0483 4359424C 		.ascii	"CYBLE_EVT_GATTC_DESCR_DISCOVERY_FAILED\000"
 15688      455F4556 
 15688      545F4741 
 15688      5454435F 
 15688      44455343 
 15689              	.LASF453:
 15690 04aa 4359424C 		.ascii	"CYBLE_EVT_RSCSS_CHAR_WRITE\000"
 15690      455F4556 
 15690      545F5253 
 15690      4353535F 
 15690      43484152 
 15691              	.LASF486:
 15692 04c5 4359424C 		.ascii	"CYBLE_EVT_UDSC_WRITE_DESCR_RESPONSE\000"
 15692      455F4556 
 15692      545F5544 
 15692      53435F57 
 15692      52495445 
 15693              	.LASF208:
 15694 04e9 64697363 		.ascii	"discMode\000"
 15694      4D6F6465 
 15694      00
 15695              	.LASF468:
 15696 04f2 4359424C 		.ascii	"CYBLE_EVT_TPSS_NOTIFICATION_ENABLED\000"
 15696      455F4556 
 15696      545F5450 
 15696      53535F4E 
 15696      4F544946 
 15697              	.LASF288:
 15698 0516 4359424C 		.ascii	"CYBLE_EVT_ANSC_READ_DESCR_RESPONSE\000"
 15698      455F4556 
 15698      545F414E 
 15698      53435F52 
 15698      4541445F 
 15699              	.LASF567:
 15700 0539 53544155 		.ascii	"STAUS\000"
 15700      5300
 15701              	.LASF296:
 15702 053f 4359424C 		.ascii	"CYBLE_EVT_BCSS_INDICATION_ENABLED\000"
 15702      455F4556 
 15702      545F4243 
 15702      53535F49 
 15702      4E444943 
 15703              	.LASF104:
 15704 0561 4359424C 		.ascii	"CYBLE_ERROR_L2CAP_CONNECTION_ENTITY_NOT_FOUND\000"
 15704      455F4552 
 15704      524F525F 
 15704      4C324341 
 15704      505F434F 
 15705              	.LASF416:
ARM GAS  C:\Users\Helon\AppData\Local\Temp\cckZyeCc.s 			page 332


 15706 058f 4359424C 		.ascii	"CYBLE_EVT_HTSS_CHAR_WRITE\000"
 15706      455F4556 
 15706      545F4854 
 15706      53535F43 
 15706      4841525F 
 15707              	.LASF110:
 15708 05a9 4359424C 		.ascii	"CYBLE_ERROR_MIC_AUTH_FAILED\000"
 15708      455F4552 
 15708      524F525F 
 15708      4D49435F 
 15708      41555448 
 15709              	.LASF512:
 15710 05c5 4359424C 		.ascii	"CYBLE_STATE_SCANNING\000"
 15710      455F5354 
 15710      4154455F 
 15710      5343414E 
 15710      4E494E47 
 15711              	.LASF264:
 15712 05da 4359424C 		.ascii	"CYBLE_EVT_GATTC_CHAR_DISCOVERY_FAILED\000"
 15712      455F4556 
 15712      545F4741 
 15712      5454435F 
 15712      43484152 
 15713              	.LASF599:
 15714 0600 53657269 		.ascii	"SerialData\000"
 15714      616C4461 
 15714      746100
 15715              	.LASF578:
 15716 060b 5363616E 		.ascii	"ScanName\000"
 15716      4E616D65 
 15716      00
 15717              	.LASF529:
 15718 0614 72784275 		.ascii	"rxBufferSize\000"
 15718      66666572 
 15718      53697A65 
 15718      00
 15719              	.LASF737:
 15720 0621 70757473 		.ascii	"puts\000"
 15720      00
 15721              	.LASF25:
 15722 0626 63686172 		.ascii	"char8\000"
 15722      3800
 15723              	.LASF82:
 15724 062c 4359424C 		.ascii	"CYBLE_EVT_L2CAP_CBFC_RX_CREDIT_IND\000"
 15724      455F4556 
 15724      545F4C32 
 15724      4341505F 
 15724      43424643 
 15725              	.LASF517:
 15726 064f 64697265 		.ascii	"direction\000"
 15726      6374696F 
 15726      6E00
 15727              	.LASF232:
 15728 0659 4359424C 		.ascii	"CYBLE_GATT_VALUE_T\000"
 15728      455F4741 
 15728      54545F56 
 15728      414C5545 
ARM GAS  C:\Users\Helon\AppData\Local\Temp\cckZyeCc.s 			page 333


 15728      5F5400
 15729              	.LASF346:
 15730 066c 4359424C 		.ascii	"CYBLE_EVT_CSCSS_INDICATION_ENABLED\000"
 15730      455F4556 
 15730      545F4353 
 15730      4353535F 
 15730      494E4449 
 15731              	.LASF433:
 15732 068f 4359424C 		.ascii	"CYBLE_EVT_LNSC_INDICATION\000"
 15732      455F4556 
 15732      545F4C4E 
 15732      53435F49 
 15732      4E444943 
 15733              	.LASF150:
 15734 06a9 74797065 		.ascii	"type\000"
 15734      00
 15735              	.LASF444:
 15736 06ae 4359424C 		.ascii	"CYBLE_EVT_PASSC_READ_CHAR_RESPONSE\000"
 15736      455F4556 
 15736      545F5041 
 15736      5353435F 
 15736      52454144 
 15737              	.LASF185:
 15738 06d1 4359424C 		.ascii	"CYBLE_GAP_AUTH_ERROR_AUTHENTICATION_TIMEOUT\000"
 15738      455F4741 
 15738      505F4155 
 15738      54485F45 
 15738      52524F52 
 15739              	.LASF303:
 15740 06fd 4359424C 		.ascii	"CYBLE_EVT_BLSS_INDICATION_ENABLED\000"
 15740      455F4556 
 15740      545F424C 
 15740      53535F49 
 15740      4E444943 
 15741              	.LASF182:
 15742 071f 4359424C 		.ascii	"CYBLE_GAP_AUTH_ERROR_UNSPECIFIED_REASON\000"
 15742      455F4741 
 15742      505F4155 
 15742      54485F45 
 15742      52524F52 
 15743              	.LASF309:
 15744 0747 4359424C 		.ascii	"CYBLE_EVT_BLSC_NOTIFICATION\000"
 15744      455F4556 
 15744      545F424C 
 15744      53435F4E 
 15744      4F544946 
 15745              	.LASF254:
 15746 0763 4359424C 		.ascii	"CYBLE_CALLBACK_T\000"
 15746      455F4341 
 15746      4C4C4241 
 15746      434B5F54 
 15746      00
 15747              	.LASF351:
 15748 0774 4359424C 		.ascii	"CYBLE_EVT_CSCSC_INDICATION\000"
 15748      455F4556 
 15748      545F4353 
 15748      4353435F 
ARM GAS  C:\Users\Helon\AppData\Local\Temp\cckZyeCc.s 			page 334


 15748      494E4449 
 15749              	.LASF631:
 15750 078f 4D617374 		.ascii	"Master_Slave_UartHandler\000"
 15750      65725F53 
 15750      6C617665 
 15750      5F556172 
 15750      7448616E 
 15751              	.LASF538:
 15752 07a8 7278496E 		.ascii	"rxInterruptMask\000"
 15752      74657272 
 15752      7570744D 
 15752      61736B00 
 15753              	.LASF68:
 15754 07b8 4359424C 		.ascii	"CYBLE_EVT_GATTC_HANDLE_VALUE_NTF\000"
 15754      455F4556 
 15754      545F4741 
 15754      5454435F 
 15754      48414E44 
 15755              	.LASF38:
 15756 07d9 4359424C 		.ascii	"CYBLE_EVT_GAP_AUTH_REQ\000"
 15756      455F4556 
 15756      545F4741 
 15756      505F4155 
 15756      54485F52 
 15757              	.LASF22:
 15758 07f0 696E7438 		.ascii	"int8\000"
 15758      00
 15759              	.LASF271:
 15760 07f5 4359424C 		.ascii	"CYBLE_EVT_GATTC_CHAR_DISCOVERY_COMPLETE\000"
 15760      455F4556 
 15760      545F4741 
 15760      5454435F 
 15760      43484152 
 15761              	.LASF230:
 15762 081d 4359424C 		.ascii	"CYBLE_CONN_HANDLE_T\000"
 15762      455F434F 
 15762      4E4E5F48 
 15762      414E444C 
 15762      455F5400 
 15763              	.LASF338:
 15764 0831 4359424C 		.ascii	"CYBLE_EVT_CPSC_INDICATION\000"
 15764      455F4556 
 15764      545F4350 
 15764      53435F49 
 15764      4E444943 
 15765              	.LASF99:
 15766 084b 4359424C 		.ascii	"CYBLE_ERROR_BT_ON_NOT_COMPLETED\000"
 15766      455F4552 
 15766      524F525F 
 15766      42545F4F 
 15766      4E5F4E4F 
 15767              	.LASF350:
 15768 086b 4359424C 		.ascii	"CYBLE_EVT_CSCSC_NOTIFICATION\000"
 15768      455F4556 
 15768      545F4353 
 15768      4353435F 
 15768      4E4F5449 
ARM GAS  C:\Users\Helon\AppData\Local\Temp\cckZyeCc.s 			page 335


 15769              	.LASF481:
 15770 0888 4359424C 		.ascii	"CYBLE_EVT_UDSC_INDICATION\000"
 15770      455F4556 
 15770      545F5544 
 15770      53435F49 
 15770      4E444943 
 15771              	.LASF168:
 15772 08a2 4359424C 		.ascii	"CYBLE_GAP_IOCAP_DISPLAY_ONLY\000"
 15772      455F4741 
 15772      505F494F 
 15772      4341505F 
 15772      44495350 
 15773              	.LASF705:
 15774 08bf 73747263 		.ascii	"strcmp\000"
 15774      6D7000
 15775              	.LASF556:
 15776 08c6 41445649 		.ascii	"ADVI\000"
 15776      00
 15777              	.LASF314:
 15778 08cb 4359424C 		.ascii	"CYBLE_EVT_BMSC_READ_CHAR_RESPONSE\000"
 15778      455F4556 
 15778      545F424D 
 15778      53435F52 
 15778      4541445F 
 15779              	.LASF523:
 15780 08ed 656E6162 		.ascii	"enableMedianFilter\000"
 15780      6C654D65 
 15780      6469616E 
 15780      46696C74 
 15780      657200
 15781              	.LASF135:
 15782 0900 4359424C 		.ascii	"CYBLE_LL_PWR_LVL_NEG_3_DBM\000"
 15782      455F4C4C 
 15782      5F505752 
 15782      5F4C564C 
 15782      5F4E4547 
 15783              	.LASF577:
 15784 091b 44657669 		.ascii	"DeviceName\000"
 15784      63654E61 
 15784      6D6500
 15785              	.LASF511:
 15786 0926 4359424C 		.ascii	"CYBLE_STATE_ADVERTISING\000"
 15786      455F5354 
 15786      4154455F 
 15786      41445645 
 15786      52544953 
 15787              	.LASF228:
 15788 093e 62644861 		.ascii	"bdHandle\000"
 15788      6E646C65 
 15788      00
 15789              	.LASF553:
 15790 0947 4E414D45 		.ascii	"NAME\000"
 15790      00
 15791              	.LASF319:
 15792 094c 4359424C 		.ascii	"CYBLE_EVT_CGMSS_INDICATION_CONFIRMED\000"
 15792      455F4556 
 15792      545F4347 
ARM GAS  C:\Users\Helon\AppData\Local\Temp\cckZyeCc.s 			page 336


 15792      4D53535F 
 15792      494E4449 
 15793              	.LASF1:
 15794 0971 5F5F7569 		.ascii	"__uint8_t\000"
 15794      6E74385F 
 15794      7400
 15795              	.LASF681:
 15796 097b 4379426C 		.ascii	"CyBle_GapcStopScan\000"
 15796      655F4761 
 15796      70635374 
 15796      6F705363 
 15796      616E00
 15797              	.LASF175:
 15798 098e 4359424C 		.ascii	"CYBLE_GAP_AUTH_ERROR_PASSKEY_ENTRY_FAILED\000"
 15798      455F4741 
 15798      505F4155 
 15798      54485F45 
 15798      52524F52 
 15799              	.LASF165:
 15800 09b8 4359424C 		.ascii	"CYBLE_GAPC_NON_CONN_UNDIRECTED_ADV\000"
 15800      455F4741 
 15800      50435F4E 
 15800      4F4E5F43 
 15800      4F4E4E5F 
 15801              	.LASF311:
 15802 09db 4359424C 		.ascii	"CYBLE_EVT_BLSC_READ_DESCR_RESPONSE\000"
 15802      455F4556 
 15802      545F424C 
 15802      53435F52 
 15802      4541445F 
 15803              	.LASF133:
 15804 09fe 4359424C 		.ascii	"CYBLE_LL_PWR_LVL_NEG_12_DBM\000"
 15804      455F4C4C 
 15804      5F505752 
 15804      5F4C564C 
 15804      5F4E4547 
 15805              	.LASF678:
 15806 0a1a 4379426C 		.ascii	"CyBle_GattcWriteCharacteristicValue\000"
 15806      655F4761 
 15806      74746357 
 15806      72697465 
 15806      43686172 
 15807              	.LASF332:
 15808 0a3e 4359424C 		.ascii	"CYBLE_EVT_CPSS_INDICATION_DISABLED\000"
 15808      455F4556 
 15808      545F4350 
 15808      53535F49 
 15808      4E444943 
 15809              	.LASF331:
 15810 0a61 4359424C 		.ascii	"CYBLE_EVT_CPSS_INDICATION_ENABLED\000"
 15810      455F4556 
 15810      545F4350 
 15810      53535F49 
 15810      4E444943 
 15811              	.LASF430:
 15812 0a83 4359424C 		.ascii	"CYBLE_EVT_LNSS_NOTIFICATION_ENABLED\000"
 15812      455F4556 
ARM GAS  C:\Users\Helon\AppData\Local\Temp\cckZyeCc.s 			page 337


 15812      545F4C4E 
 15812      53535F4E 
 15812      4F544946 
 15813              	.LASF674:
 15814 0aa7 48616E64 		.ascii	"HandleScanDevices\000"
 15814      6C655363 
 15814      616E4465 
 15814      76696365 
 15814      7300
 15815              	.LASF245:
 15816 0ab9 4359424C 		.ascii	"CYBLE_GATTC_READ_REQ_T\000"
 15816      455F4741 
 15816      5454435F 
 15816      52454144 
 15816      5F524551 
 15817              	.LASF64:
 15818 0ad0 4359424C 		.ascii	"CYBLE_EVT_GATTS_WRITE_CMD_REQ\000"
 15818      455F4556 
 15818      545F4741 
 15818      5454535F 
 15818      57524954 
 15819              	.LASF342:
 15820 0aee 4359424C 		.ascii	"CYBLE_EVT_CPSC_WRITE_DESCR_RESPONSE\000"
 15820      455F4556 
 15820      545F4350 
 15820      53435F57 
 15820      52495445 
 15821              	.LASF162:
 15822 0b12 4359424C 		.ascii	"CYBLE_GAPC_CONN_UNDIRECTED_ADV\000"
 15822      455F4741 
 15822      50435F43 
 15822      4F4E4E5F 
 15822      554E4449 
 15823              	.LASF8:
 15824 0b31 6C6F6E67 		.ascii	"long int\000"
 15824      20696E74 
 15824      00
 15825              	.LASF277:
 15826 0b3a 4359424C 		.ascii	"CYBLE_EVT_ANCSC_READ_CHAR_RESPONSE\000"
 15826      455F4556 
 15826      545F414E 
 15826      4353435F 
 15826      52454144 
 15827              	.LASF445:
 15828 0b5d 4359424C 		.ascii	"CYBLE_EVT_PASSC_WRITE_CHAR_RESPONSE\000"
 15828      455F4556 
 15828      545F5041 
 15828      5353435F 
 15828      57524954 
 15829              	.LASF215:
 15830 0b81 64617461 		.ascii	"dataLen\000"
 15830      4C656E00 
 15831              	.LASF257:
 15832 0b89 4359424C 		.ascii	"CYBLE_LONG_TERM_KEY_REQUEST_REPLY\000"
 15832      455F4C4F 
 15832      4E475F54 
 15832      45524D5F 
ARM GAS  C:\Users\Helon\AppData\Local\Temp\cckZyeCc.s 			page 338


 15832      4B45595F 
 15833              	.LASF661:
 15834 0bab 6E65676F 		.ascii	"negotiatedMtu\000"
 15834      74696174 
 15834      65644D74 
 15834      7500
 15835              	.LASF668:
 15836 0bb9 63636364 		.ascii	"cccdNotifFlagSetStruct\000"
 15836      4E6F7469 
 15836      66466C61 
 15836      67536574 
 15836      53747275 
 15837              	.LASF32:
 15838 0bd0 4359424C 		.ascii	"CYBLE_EVT_STACK_ON\000"
 15838      455F4556 
 15838      545F5354 
 15838      41434B5F 
 15838      4F4E00
 15839              	.LASF106:
 15840 0be3 4359424C 		.ascii	"CYBLE_ERROR_L2CAP_PSM_NOT_IN_RANGE\000"
 15840      455F4552 
 15840      524F525F 
 15840      4C324341 
 15840      505F5053 
 15841              	.LASF723:
 15842 0c06 4379426C 		.ascii	"CyBle_GattcDiscoverAllCharacteristicDescriptors\000"
 15842      655F4761 
 15842      74746344 
 15842      6973636F 
 15842      76657241 
 15843              	.LASF125:
 15844 0c36 4359424C 		.ascii	"CYBLE_BLESS_STATE_SLEEP\000"
 15844      455F424C 
 15844      4553535F 
 15844      53544154 
 15844      455F534C 
 15845              	.LASF378:
 15846 0c4e 4359424C 		.ascii	"CYBLE_EVT_ESSC_WRITE_DESCR_RESPONSE\000"
 15846      455F4556 
 15846      545F4553 
 15846      53435F57 
 15846      52495445 
 15847              	.LASF694:
 15848 0c72 43795379 		.ascii	"CySysPmSleep\000"
 15848      73506D53 
 15848      6C656570 
 15848      00
 15849              	.LASF653:
 15850 0c7f 72785F69 		.ascii	"rx_isover\000"
 15850      736F7665 
 15850      7200
 15851              	.LASF411:
 15852 0c89 4359424C 		.ascii	"CYBLE_EVT_HTSS_NOTIFICATION_ENABLED\000"
 15852      455F4556 
 15852      545F4854 
 15852      53535F4E 
 15852      4F544946 
ARM GAS  C:\Users\Helon\AppData\Local\Temp\cckZyeCc.s 			page 339


 15853              	.LASF178:
 15854 0cad 4359424C 		.ascii	"CYBLE_GAP_AUTH_ERROR_CONFIRM_VALUE_NOT_MATCH\000"
 15854      455F4741 
 15854      505F4155 
 15854      54485F45 
 15854      52524F52 
 15855              	.LASF114:
 15856 0cda 4359424C 		.ascii	"CYBLE_ERROR_CHAR_IS_NOT_DISCOVERED\000"
 15856      455F4552 
 15856      524F525F 
 15856      43484152 
 15856      5F49535F 
 15857              	.LASF666:
 15858 0cfd 5F313073 		.ascii	"_10sIsOver\000"
 15858      49734F76 
 15858      657200
 15859              	.LASF219:
 15860 0d08 636F6E6E 		.ascii	"connIntvMin\000"
 15860      496E7476 
 15860      4D696E00 
 15861              	.LASF124:
 15862 0d14 4359424C 		.ascii	"CYBLE_BLESS_STATE_EVENT_CLOSE\000"
 15862      455F424C 
 15862      4553535F 
 15862      53544154 
 15862      455F4556 
 15863              	.LASF235:
 15864 0d32 4359424C 		.ascii	"CYBLE_GATT_HANDLE_VALUE_PAIR_T\000"
 15864      455F4741 
 15864      54545F48 
 15864      414E444C 
 15864      455F5641 
 15865              	.LASF295:
 15866 0d51 4359424C 		.ascii	"CYBLE_EVT_BASC_WRITE_DESCR_RESPONSE\000"
 15866      455F4556 
 15866      545F4241 
 15866      53435F57 
 15866      52495445 
 15867              	.LASF147:
 15868 0d75 626C6553 		.ascii	"bleSsChId\000"
 15868      73436849 
 15868      6400
 15869              	.LASF685:
 15870 0d7f 55415254 		.ascii	"UART_SpiUartGetTxBufferSize\000"
 15870      5F537069 
 15870      55617274 
 15870      47657454 
 15870      78427566 
 15871              	.LASF375:
 15872 0d9b 4359424C 		.ascii	"CYBLE_EVT_ESSC_READ_CHAR_RESPONSE\000"
 15872      455F4556 
 15872      545F4553 
 15872      53435F52 
 15872      4541445F 
 15873              	.LASF398:
 15874 0dbd 4359424C 		.ascii	"CYBLE_EVT_HIDSC_NOTIFICATION\000"
 15874      455F4556 
ARM GAS  C:\Users\Helon\AppData\Local\Temp\cckZyeCc.s 			page 340


 15874      545F4849 
 15874      4453435F 
 15874      4E4F5449 
 15875              	.LASF159:
 15876 0dda 4359424C 		.ascii	"CYBLE_GAPP_NON_CONNECTABLE_UNDIRECTED_ADV\000"
 15876      455F4741 
 15876      50505F4E 
 15876      4F4E5F43 
 15876      4F4E4E45 
 15877              	.LASF76:
 15878 0e04 4359424C 		.ascii	"CYBLE_EVT_L2CAP_COMMAND_REJ\000"
 15878      455F4556 
 15878      545F4C32 
 15878      4341505F 
 15878      434F4D4D 
 15879              	.LASF246:
 15880 0e20 4359424C 		.ascii	"CYBLE_GATTC_WRITE_REQ_T\000"
 15880      455F4741 
 15880      5454435F 
 15880      57524954 
 15880      455F5245 
 15881              	.LASF262:
 15882 0e38 4359424C 		.ascii	"CYBLE_EVT_GATTC_SRVC_DISCOVERY_FAILED\000"
 15882      455F4556 
 15882      545F4741 
 15882      5454435F 
 15882      53525643 
 15883              	.LASF395:
 15884 0e5e 4359424C 		.ascii	"CYBLE_EVT_HIDSS_SUSPEND\000"
 15884      455F4556 
 15884      545F4849 
 15884      4453535F 
 15884      53555350 
 15885              	.LASF107:
 15886 0e76 4359424C 		.ascii	"CYBLE_ERROR_GATT_DB_INVALID_ATTR_HANDLE\000"
 15886      455F4552 
 15886      524F525F 
 15886      47415454 
 15886      5F44425F 
 15887              	.LASF2:
 15888 0e9e 7369676E 		.ascii	"signed char\000"
 15888      65642063 
 15888      68617200 
 15889              	.LASF132:
 15890 0eaa 4359424C 		.ascii	"CYBLE_LL_PWR_LVL_NEG_18_DBM\000"
 15890      455F4C4C 
 15890      5F505752 
 15890      5F4C564C 
 15890      5F4E4547 
 15891              	.LASF15:
 15892 0ec6 75696E74 		.ascii	"uint8_t\000"
 15892      385F7400 
 15893              	.LASF669:
 15894 0ece 636F6E6E 		.ascii	"connParam\000"
 15894      50617261 
 15894      6D00
 15895              	.LASF506:
ARM GAS  C:\Users\Helon\AppData\Local\Temp\cckZyeCc.s 			page 341


 15896 0ed8 4359424C 		.ascii	"CYBLE_EVT_WSSC_WRITE_DESCR_RESPONSE\000"
 15896      455F4556 
 15896      545F5753 
 15896      53435F57 
 15896      52495445 
 15897              	.LASF294:
 15898 0efc 4359424C 		.ascii	"CYBLE_EVT_BASC_READ_DESCR_RESPONSE\000"
 15898      455F4556 
 15898      545F4241 
 15898      53435F52 
 15898      4541445F 
 15899              	.LASF639:
 15900 0f1f 436F6D6D 		.ascii	"Command_Identify\000"
 15900      616E645F 
 15900      4964656E 
 15900      74696679 
 15900      00
 15901              	.LASF613:
 15902 0f30 53747254 		.ascii	"StrToHex\000"
 15902      6F486578 
 15902      00
 15903              	.LASF700:
 15904 0f39 54696D65 		.ascii	"Timer_Init\000"
 15904      725F496E 
 15904      697400
 15905              	.LASF34:
 15906 0f44 4359424C 		.ascii	"CYBLE_EVT_HARDWARE_ERROR\000"
 15906      455F4556 
 15906      545F4841 
 15906      52445741 
 15906      52455F45 
 15907              	.LASF88:
 15908 0f5d 4359424C 		.ascii	"CYBLE_ERROR_OK\000"
 15908      455F4552 
 15908      524F525F 
 15908      4F4B00
 15909              	.LASF145:
 15910 0f6c 4359424C 		.ascii	"CYBLE_BLESS_PHY_CH_GRP_ID_T\000"
 15910      455F424C 
 15910      4553535F 
 15910      5048595F 
 15910      43485F47 
 15911              	.LASF541:
 15912 0f88 74785472 		.ascii	"txTriggerLevel\000"
 15912      69676765 
 15912      724C6576 
 15912      656C00
 15913              	.LASF214:
 15914 0f97 70656572 		.ascii	"peerBdAddr\000"
 15914      42644164 
 15914      647200
 15915              	.LASF55:
 15916 0fa2 4359424C 		.ascii	"CYBLE_EVT_GATTC_READ_BY_GROUP_TYPE_RSP\000"
 15916      455F4556 
 15916      545F4741 
 15916      5454435F 
 15916      52454144 
ARM GAS  C:\Users\Helon\AppData\Local\Temp\cckZyeCc.s 			page 342


 15917              	.LASF508:
 15918 0fc9 4359424C 		.ascii	"CYBLE_STATE_STOPPED\000"
 15918      455F5354 
 15918      4154455F 
 15918      53544F50 
 15918      50454400 
 15919              	.LASF450:
 15920 0fdd 4359424C 		.ascii	"CYBLE_EVT_RSCSS_INDICATION_ENABLED\000"
 15920      455F4556 
 15920      545F5253 
 15920      4353535F 
 15920      494E4449 
 15921              	.LASF3:
 15922 1000 756E7369 		.ascii	"unsigned char\000"
 15922      676E6564 
 15922      20636861 
 15922      7200
 15923              	.LASF54:
 15924 100e 4359424C 		.ascii	"CYBLE_EVT_GATTC_XCHNG_MTU_RSP\000"
 15924      455F4556 
 15924      545F4741 
 15924      5454435F 
 15924      5843484E 
 15925              	.LASF333:
 15926 102c 4359424C 		.ascii	"CYBLE_EVT_CPSS_INDICATION_CONFIRMED\000"
 15926      455F4556 
 15926      545F4350 
 15926      53535F49 
 15926      4E444943 
 15927              	.LASF240:
 15928 1050 4359424C 		.ascii	"CYBLE_GATT_XCHG_MTU_PARAM_T\000"
 15928      455F4741 
 15928      54545F58 
 15928      4348475F 
 15928      4D54555F 
 15929              	.LASF330:
 15930 106c 4359424C 		.ascii	"CYBLE_EVT_CPSS_NOTIFICATION_DISABLED\000"
 15930      455F4556 
 15930      545F4350 
 15930      53535F4E 
 15930      4F544946 
 15931              	.LASF455:
 15932 1091 4359424C 		.ascii	"CYBLE_EVT_RSCSC_INDICATION\000"
 15932      455F4556 
 15932      545F5253 
 15932      4353435F 
 15932      494E4449 
 15933              	.LASF250:
 15934 10ac 4359424C 		.ascii	"CYBLE_GATTC_HANDLE_UUID_LIST_PARAM_T\000"
 15934      455F4741 
 15934      5454435F 
 15934      48414E44 
 15934      4C455F55 
 15935              	.LASF505:
 15936 10d1 4359424C 		.ascii	"CYBLE_EVT_WSSC_READ_DESCR_RESPONSE\000"
 15936      455F4556 
 15936      545F5753 
ARM GAS  C:\Users\Helon\AppData\Local\Temp\cckZyeCc.s 			page 343


 15936      53435F52 
 15936      4541445F 
 15937              	.LASF702:
 15938 10f4 55415254 		.ascii	"UART_Start\000"
 15938      5F537461 
 15938      727400
 15939              	.LASF546:
 15940 10ff 72747350 		.ascii	"rtsPolarity\000"
 15940      6F6C6172 
 15940      69747900 
 15941              	.LASF118:
 15942 110b 4359424C 		.ascii	"CYBLE_BLESS_SLEEP\000"
 15942      455F424C 
 15942      4553535F 
 15942      534C4545 
 15942      5000
 15943              	.LASF83:
 15944 111d 4359424C 		.ascii	"CYBLE_EVT_L2CAP_CBFC_TX_CREDIT_IND\000"
 15944      455F4556 
 15944      545F4C32 
 15944      4341505F 
 15944      43424643 
 15945              	.LASF193:
 15946 1140 61647649 		.ascii	"advIntvMin\000"
 15946      6E74764D 
 15946      696E00
 15947              	.LASF687:
 15948 114b 4379426C 		.ascii	"CyBle_GappStartAdvertisement\000"
 15948      655F4761 
 15948      70705374 
 15948      61727441 
 15948      64766572 
 15949              	.LASF261:
 15950 1168 4359424C 		.ascii	"CYBLE_EVT_GATTC_INDICATION\000"
 15950      455F4556 
 15950      545F4741 
 15950      5454435F 
 15950      494E4449 
 15951              	.LASF735:
 15952 1183 473A5C43 		.ascii	"G:\\Company\\Jetronic\\CYPRESS\\CYPRESS_BLE_Study\\"
 15952      6F6D7061 
 15952      6E795C4A 
 15952      6574726F 
 15952      6E69635C 
 15953 11b1 54726F75 		.ascii	"Troughput\\Troughpur_Central_Peripheral_V2.0\\Troug"
 15953      67687075 
 15953      745C5472 
 15953      6F756768 
 15953      7075725F 
 15954 11e2 68707574 		.ascii	"hput_Central_Peripheral.cydsn\000"
 15954      5F43656E 
 15954      7472616C 
 15954      5F506572 
 15954      69706865 
 15955              	.LASF184:
 15956 1200 4359424C 		.ascii	"CYBLE_GAP_AUTH_ERROR_INVALID_PARAMETERS\000"
 15956      455F4741 
ARM GAS  C:\Users\Helon\AppData\Local\Temp\cckZyeCc.s 			page 344


 15956      505F4155 
 15956      54485F45 
 15956      52524F52 
 15957              	.LASF608:
 15958 1228 77726974 		.ascii	"writeRequestData\000"
 15958      65526571 
 15958      75657374 
 15958      44617461 
 15958      00
 15959              	.LASF123:
 15960 1239 4359424C 		.ascii	"CYBLE_BLESS_STATE_ACTIVE\000"
 15960      455F424C 
 15960      4553535F 
 15960      53544154 
 15960      455F4143 
 15961              	.LASF204:
 15962 1252 4359424C 		.ascii	"CYBLE_GAPP_DISC_DATA_T\000"
 15962      455F4741 
 15962      50505F44 
 15962      4953435F 
 15962      44415441 
 15963              	.LASF667:
 15964 1269 63636364 		.ascii	"cccdNotifEnabledValue\000"
 15964      4E6F7469 
 15964      66456E61 
 15964      626C6564 
 15964      56616C75 
 15965              	.LASF462:
 15966 127f 4359424C 		.ascii	"CYBLE_EVT_SCPSS_NOTIFICATION_ENABLED\000"
 15966      455F4556 
 15966      545F5343 
 15966      5053535F 
 15966      4E4F5449 
 15967              	.LASF610:
 15968 12a4 55617274 		.ascii	"UartBuadRate_Handler\000"
 15968      42756164 
 15968      52617465 
 15968      5F48616E 
 15968      646C6572 
 15969              	.LASF80:
 15970 12b9 4359424C 		.ascii	"CYBLE_EVT_L2CAP_CBFC_DISCONN_CNF\000"
 15970      455F4556 
 15970      545F4C32 
 15970      4341505F 
 15970      43424643 
 15971              	.LASF58:
 15972 12da 4359424C 		.ascii	"CYBLE_EVT_GATTC_FIND_BY_TYPE_VALUE_RSP\000"
 15972      455F4556 
 15972      545F4741 
 15972      5454435F 
 15972      46494E44 
 15973              	.LASF273:
 15974 1301 4359424C 		.ascii	"CYBLE_EVT_ANCSS_NOTIFICATION_ENABLED\000"
 15974      455F4556 
 15974      545F414E 
 15974      4353535F 
 15974      4E4F5449 
ARM GAS  C:\Users\Helon\AppData\Local\Temp\cckZyeCc.s 			page 345


 15975              	.LASF524:
 15976 1326 656E6162 		.ascii	"enableRetryNack\000"
 15976      6C655265 
 15976      7472794E 
 15976      61636B00 
 15977              	.LASF122:
 15978 1336 4359424C 		.ascii	"CYBLE_LP_MODE_T\000"
 15978      455F4C50 
 15978      5F4D4F44 
 15978      455F5400 
 15979              	.LASF467:
 15980 1346 4359424C 		.ascii	"CYBLE_EVT_SCPSC_WRITE_DESCR_RESPONSE\000"
 15980      455F4556 
 15980      545F5343 
 15980      5053435F 
 15980      57524954 
 15981              	.LASF26:
 15982 136b 63686172 		.ascii	"char\000"
 15982      00
 15983              	.LASF136:
 15984 1370 4359424C 		.ascii	"CYBLE_LL_PWR_LVL_NEG_2_DBM\000"
 15984      455F4C4C 
 15984      5F505752 
 15984      5F4C564C 
 15984      5F4E4547 
 15985              	.LASF470:
 15986 138b 4359424C 		.ascii	"CYBLE_EVT_TPSC_NOTIFICATION\000"
 15986      455F4556 
 15986      545F5450 
 15986      53435F4E 
 15986      4F544946 
 15987              	.LASF61:
 15988 13a7 4359424C 		.ascii	"CYBLE_EVT_GATTC_READ_MULTI_RSP\000"
 15988      455F4556 
 15988      545F4741 
 15988      5454435F 
 15988      52454144 
 15989              	.LASF192:
 15990 13c6 4359424C 		.ascii	"CYBLE_GAP_AUTH_INFO_T\000"
 15990      455F4741 
 15990      505F4155 
 15990      54485F49 
 15990      4E464F5F 
 15991              	.LASF170:
 15992 13dc 4359424C 		.ascii	"CYBLE_GAP_IOCAP_KEYBOARD_ONLY\000"
 15992      455F4741 
 15992      505F494F 
 15992      4341505F 
 15992      4B455942 
 15993              	.LASF513:
 15994 13fa 4359424C 		.ascii	"CYBLE_STATE_CONNECTING\000"
 15994      455F5354 
 15994      4154455F 
 15994      434F4E4E 
 15994      45435449 
 15995              	.LASF31:
 15996 1411 4359424C 		.ascii	"CYBLE_EVT_HOST_INVALID\000"
ARM GAS  C:\Users\Helon\AppData\Local\Temp\cckZyeCc.s 			page 346


 15996      455F4556 
 15996      545F484F 
 15996      53545F49 
 15996      4E56414C 
 15997              	.LASF718:
 15998 1428 4379426C 		.ascii	"CyBle_GapGetLocalName\000"
 15998      655F4761 
 15998      70476574 
 15998      4C6F6361 
 15998      6C4E616D 
 15999              	.LASF389:
 16000 143e 4359424C 		.ascii	"CYBLE_EVT_GLSC_READ_DESCR_RESPONSE\000"
 16000      455F4556 
 16000      545F474C 
 16000      53435F52 
 16000      4541445F 
 16001              	.LASF6:
 16002 1461 5F5F7569 		.ascii	"__uint16_t\000"
 16002      6E743136 
 16002      5F7400
 16003              	.LASF95:
 16004 146c 4359424C 		.ascii	"CYBLE_ERROR_NO_DEVICE_ENTITY\000"
 16004      455F4552 
 16004      524F525F 
 16004      4E4F5F44 
 16004      45564943 
 16005              	.LASF535:
 16006 1489 6D756C74 		.ascii	"multiprocAddr\000"
 16006      6970726F 
 16006      63416464 
 16006      7200
 16007              	.LASF60:
 16008 1497 4359424C 		.ascii	"CYBLE_EVT_GATTC_READ_BLOB_RSP\000"
 16008      455F4556 
 16008      545F4741 
 16008      5454435F 
 16008      52454144 
 16009              	.LASF414:
 16010 14b5 4359424C 		.ascii	"CYBLE_EVT_HTSS_INDICATION_DISABLED\000"
 16010      455F4556 
 16010      545F4854 
 16010      53535F49 
 16010      4E444943 
 16011              	.LASF461:
 16012 14d8 4359424C 		.ascii	"CYBLE_EVT_RTUSC_READ_CHAR_RESPONSE\000"
 16012      455F4556 
 16012      545F5254 
 16012      5553435F 
 16012      52454144 
 16013              	.LASF67:
 16014 14fb 4359424C 		.ascii	"CYBLE_EVT_GATTC_EXEC_WRITE_RSP\000"
 16014      455F4556 
 16014      545F4741 
 16014      5454435F 
 16014      45584543 
 16015              	.LASF502:
 16016 151a 4359424C 		.ascii	"CYBLE_EVT_WSSS_INDICATION_CONFIRMED\000"
ARM GAS  C:\Users\Helon\AppData\Local\Temp\cckZyeCc.s 			page 347


 16016      455F4556 
 16016      545F5753 
 16016      53535F49 
 16016      4E444943 
 16017              	.LASF247:
 16018 153e 4359424C 		.ascii	"CYBLE_GATTC_HANDLE_VALUE_NTF_PARAM_T\000"
 16018      455F4741 
 16018      5454435F 
 16018      48414E44 
 16018      4C455F56 
 16019              	.LASF713:
 16020 1563 4379426C 		.ascii	"CyBle_GetTxPowerLevel\000"
 16020      655F4765 
 16020      74547850 
 16020      6F776572 
 16020      4C657665 
 16021              	.LASF614:
 16022 1579 70624465 		.ascii	"pbDest\000"
 16022      737400
 16023              	.LASF475:
 16024 1580 4359424C 		.ascii	"CYBLE_EVT_UDSS_INDICATION_DISABLED\000"
 16024      455F4556 
 16024      545F5544 
 16024      53535F49 
 16024      4E444943 
 16025              	.LASF446:
 16026 15a3 4359424C 		.ascii	"CYBLE_EVT_PASSC_READ_DESCR_RESPONSE\000"
 16026      455F4556 
 16026      545F5041 
 16026      5353435F 
 16026      52454144 
 16027              	.LASF731:
 16028 15c7 6D656D63 		.ascii	"memcmp\000"
 16028      6D7000
 16029              	.LASF616:
 16030 15ce 6E4C656E 		.ascii	"nLen\000"
 16030      00
 16031              	.LASF72:
 16032 15d3 4359424C 		.ascii	"CYBLE_EVT_GATTC_STOP_CMD_COMPLETE\000"
 16032      455F4556 
 16032      545F4741 
 16032      5454435F 
 16032      53544F50 
 16033              	.LASF336:
 16034 15f5 4359424C 		.ascii	"CYBLE_EVT_CPSS_CHAR_WRITE\000"
 16034      455F4556 
 16034      545F4350 
 16034      53535F43 
 16034      4841525F 
 16035              	.LASF656:
 16036 160f 4D54555F 		.ascii	"MTU_REQ_FLAG\000"
 16036      5245515F 
 16036      464C4147 
 16036      00
 16037              	.LASF403:
 16038 161c 4359424C 		.ascii	"CYBLE_EVT_HRSS_ENERGY_EXPENDED_RESET\000"
 16038      455F4556 
ARM GAS  C:\Users\Helon\AppData\Local\Temp\cckZyeCc.s 			page 348


 16038      545F4852 
 16038      53535F45 
 16038      4E455247 
 16039              	.LASF366:
 16040 1641 4359424C 		.ascii	"CYBLE_EVT_ESSS_NOTIFICATION_DISABLED\000"
 16040      455F4556 
 16040      545F4553 
 16040      53535F4E 
 16040      4F544946 
 16041              	.LASF489:
 16042 1666 4359424C 		.ascii	"CYBLE_EVT_WPTSS_NOTIFICATION_DISABLED\000"
 16042      455F4556 
 16042      545F5750 
 16042      5453535F 
 16042      4E4F5449 
 16043              	.LASF719:
 16044 168c 4379426C 		.ascii	"CyBle_GappStopAdvertisement\000"
 16044      655F4761 
 16044      70705374 
 16044      6F704164 
 16044      76657274 
 16045              	.LASF551:
 16046 16a8 42415544 		.ascii	"BAUD\000"
 16046      00
 16047              	.LASF540:
 16048 16ad 7478496E 		.ascii	"txInterruptMask\000"
 16048      74657272 
 16048      7570744D 
 16048      61736B00 
 16049              	.LASF565:
 16050 16bd 53504545 		.ascii	"SPEED\000"
 16050      4400
 16051              	.LASF306:
 16052 16c3 4359424C 		.ascii	"CYBLE_EVT_BLSS_NOTIFICATION_ENABLED\000"
 16052      455F4556 
 16052      545F424C 
 16052      53535F4E 
 16052      4F544946 
 16053              	.LASF503:
 16054 16e7 4359424C 		.ascii	"CYBLE_EVT_WSSC_INDICATION\000"
 16054      455F4556 
 16054      545F5753 
 16054      53435F49 
 16054      4E444943 
 16055              	.LASF89:
 16056 1701 4359424C 		.ascii	"CYBLE_ERROR_INVALID_PARAMETER\000"
 16056      455F4552 
 16056      524F525F 
 16056      494E5641 
 16056      4C49445F 
 16057              	.LASF592:
 16058 171f 626C6573 		.ascii	"blessState\000"
 16058      73537461 
 16058      746500
 16059              	.LASF374:
 16060 172a 4359424C 		.ascii	"CYBLE_EVT_ESSC_INDICATION\000"
 16060      455F4556 
ARM GAS  C:\Users\Helon\AppData\Local\Temp\cckZyeCc.s 			page 349


 16060      545F4553 
 16060      53435F49 
 16060      4E444943 
 16061              	.LASF280:
 16062 1744 4359424C 		.ascii	"CYBLE_EVT_ANCSC_WRITE_DESCR_RESPONSE\000"
 16062      455F4556 
 16062      545F414E 
 16062      4353435F 
 16062      57524954 
 16063              	.LASF554:
 16064 1769 4350494E 		.ascii	"CPIN\000"
 16064      00
 16065              	.LASF572:
 16066 176e 44697363 		.ascii	"Disconn_Idx\000"
 16066      6F6E6E5F 
 16066      49647800 
 16067              	.LASF457:
 16068 177a 4359424C 		.ascii	"CYBLE_EVT_RSCSC_WRITE_CHAR_RESPONSE\000"
 16068      455F4556 
 16068      545F5253 
 16068      4353435F 
 16068      57524954 
 16069              	.LASF575:
 16070 179e 4359424C 		.ascii	"CYBLE_CONN_OR_DISCONN_INFO\000"
 16070      455F434F 
 16070      4E4E5F4F 
 16070      525F4449 
 16070      53434F4E 
 16071              	.LASF404:
 16072 17b9 4359424C 		.ascii	"CYBLE_EVT_HRSS_NOTIFICATION_ENABLED\000"
 16072      455F4556 
 16072      545F4852 
 16072      53535F4E 
 16072      4F544946 
 16073              	.LASF652:
 16074 17dd 42756666 		.ascii	"Buffer_Length\000"
 16074      65725F4C 
 16074      656E6774 
 16074      6800
 16075              	.LASF473:
 16076 17eb 4359424C 		.ascii	"CYBLE_EVT_TPSC_WRITE_DESCR_RESPONSE\000"
 16076      455F4556 
 16076      545F5450 
 16076      53435F57 
 16076      52495445 
 16077              	.LASF641:
 16078 180f 66696C65 		.ascii	"file\000"
 16078      00
 16079              	.LASF345:
 16080 1814 4359424C 		.ascii	"CYBLE_EVT_CSCSS_NOTIFICATION_DISABLED\000"
 16080      455F4556 
 16080      545F4353 
 16080      4353535F 
 16080      4E4F5449 
 16081              	.LASF356:
 16082 183a 4359424C 		.ascii	"CYBLE_EVT_CTSS_NOTIFICATION_ENABLED\000"
 16082      455F4556 
ARM GAS  C:\Users\Helon\AppData\Local\Temp\cckZyeCc.s 			page 350


 16082      545F4354 
 16082      53535F4E 
 16082      4F544946 
 16083              	.LASF451:
 16084 185e 4359424C 		.ascii	"CYBLE_EVT_RSCSS_INDICATION_DISABLED\000"
 16084      455F4556 
 16084      545F5253 
 16084      4353535F 
 16084      494E4449 
 16085              	.LASF561:
 16086 1882 44495343 		.ascii	"DISCONN\000"
 16086      4F4E4E00 
 16087              	.LASF717:
 16088 188a 4379426C 		.ascii	"CyBle_GetDeviceAddress\000"
 16088      655F4765 
 16088      74446576 
 16088      69636541 
 16088      64647265 
 16089              	.LASF160:
 16090 18a1 4359424C 		.ascii	"CYBLE_GAPP_CONNECTABLE_LOW_DC_DIRECTED_ADV\000"
 16090      455F4741 
 16090      50505F43 
 16090      4F4E4E45 
 16090      43544142 
 16091              	.LASF493:
 16092 18cc 4359424C 		.ascii	"CYBLE_EVT_WPTSS_WRITE_CHAR\000"
 16092      455F4556 
 16092      545F5750 
 16092      5453535F 
 16092      57524954 
 16093              	.LASF424:
 16094 18e7 4359424C 		.ascii	"CYBLE_EVT_LLSS_WRITE_CHAR_REQ\000"
 16094      455F4556 
 16094      545F4C4C 
 16094      53535F57 
 16094      52495445 
 16095              	.LASF91:
 16096 1905 4359424C 		.ascii	"CYBLE_ERROR_MEMORY_ALLOCATION_FAILED\000"
 16096      455F4552 
 16096      524F525F 
 16096      4D454D4F 
 16096      52595F41 
 16097              	.LASF409:
 16098 192a 4359424C 		.ascii	"CYBLE_EVT_HRSC_READ_DESCR_RESPONSE\000"
 16098      455F4556 
 16098      545F4852 
 16098      53435F52 
 16098      4541445F 
 16099              	.LASF583:
 16100 194d 44697341 		.ascii	"DisAllCharResult\000"
 16100      6C6C4368 
 16100      61725265 
 16100      73756C74 
 16100      00
 16101              	.LASF344:
 16102 195e 4359424C 		.ascii	"CYBLE_EVT_CSCSS_NOTIFICATION_ENABLED\000"
 16102      455F4556 
ARM GAS  C:\Users\Helon\AppData\Local\Temp\cckZyeCc.s 			page 351


 16102      545F4353 
 16102      4353535F 
 16102      4E4F5449 
 16103              	.LASF676:
 16104 1983 7072696E 		.ascii	"printf\000"
 16104      746600
 16105              	.LASF518:
 16106 198a 64617461 		.ascii	"dataBits\000"
 16106      42697473 
 16106      00
 16107              	.LASF659:
 16108 1993 746F7461 		.ascii	"totalByteCounter\000"
 16108      6C427974 
 16108      65436F75 
 16108      6E746572 
 16108      00
 16109              	.LASF621:
 16110 19a4 4E616D65 		.ascii	"Name\000"
 16110      00
 16111              	.LASF308:
 16112 19a9 4359424C 		.ascii	"CYBLE_EVT_BLSC_INDICATION\000"
 16112      455F4556 
 16112      545F424C 
 16112      53435F49 
 16112      4E444943 
 16113              	.LASF660:
 16114 19c3 62756666 		.ascii	"buffer\000"
 16114      657200
 16115              	.LASF588:
 16116 19ca 4D795469 		.ascii	"MyTimerIsr\000"
 16116      6D657249 
 16116      737200
 16117              	.LASF397:
 16118 19d5 4359424C 		.ascii	"CYBLE_EVT_HIDSS_REPORT_CHAR_WRITE\000"
 16118      455F4556 
 16118      545F4849 
 16118      4453535F 
 16118      5245504F 
 16119              	.LASF686:
 16120 19f7 55736572 		.ascii	"UserButton_ClearInterrupt\000"
 16120      42757474 
 16120      6F6E5F43 
 16120      6C656172 
 16120      496E7465 
 16121              	.LASF673:
 16122 1a11 42617564 		.ascii	"Baud_rate_idx\000"
 16122      5F726174 
 16122      655F6964 
 16122      7800
 16123              	.LASF586:
 16124 1a1f 53746163 		.ascii	"StackEventHandler\000"
 16124      6B457665 
 16124      6E744861 
 16124      6E646C65 
 16124      7200
 16125              	.LASF497:
 16126 1a31 4359424C 		.ascii	"CYBLE_EVT_WPTSC_READ_CHAR_RESPONSE\000"
ARM GAS  C:\Users\Helon\AppData\Local\Temp\cckZyeCc.s 			page 352


 16126      455F4556 
 16126      545F5750 
 16126      5453435F 
 16126      52454144 
 16127              	.LASF111:
 16128 1a54 4359424C 		.ascii	"CYBLE_ERROR_MAX\000"
 16128      455F4552 
 16128      524F525F 
 16128      4D415800 
 16129              	.LASF436:
 16130 1a64 4359424C 		.ascii	"CYBLE_EVT_LNSC_WRITE_CHAR_RESPONSE\000"
 16130      455F4556 
 16130      545F4C4E 
 16130      53435F57 
 16130      52495445 
 16131              	.LASF75:
 16132 1a87 4359424C 		.ascii	"CYBLE_EVT_L2CAP_CONN_PARAM_UPDATE_RSP\000"
 16132      455F4556 
 16132      545F4C32 
 16132      4341505F 
 16132      434F4E4E 
 16133              	.LASF186:
 16134 1aad 4359424C 		.ascii	"CYBLE_GAP_AUTH_ERROR_LINK_DISCONNECTED\000"
 16134      455F4741 
 16134      505F4155 
 16134      54485F45 
 16134      52524F52 
 16135              	.LASF559:
 16136 1ad4 5343414E 		.ascii	"SCAN\000"
 16136      00
 16137              	.LASF287:
 16138 1ad9 4359424C 		.ascii	"CYBLE_EVT_ANSC_WRITE_CHAR_RESPONSE\000"
 16138      455F4556 
 16138      545F414E 
 16138      53435F57 
 16138      52495445 
 16139              	.LASF478:
 16140 1afc 4359424C 		.ascii	"CYBLE_EVT_UDSS_NOTIFICATION_DISABLED\000"
 16140      455F4556 
 16140      545F5544 
 16140      53535F4E 
 16140      4F544946 
 16141              	.LASF547:
 16142 1b21 55415254 		.ascii	"UART_UART_INIT_STRUCT\000"
 16142      5F554152 
 16142      545F494E 
 16142      49545F53 
 16142      54525543 
 16143              	.LASF355:
 16144 1b37 4359424C 		.ascii	"CYBLE_EVT_CSCSC_WRITE_DESCR_RESPONSE\000"
 16144      455F4556 
 16144      545F4353 
 16144      4353435F 
 16144      57524954 
 16145              	.LASF573:
 16146 1b5c 436F6E6E 		.ascii	"Connected_Count\000"
 16146      65637465 
ARM GAS  C:\Users\Helon\AppData\Local\Temp\cckZyeCc.s 			page 353


 16146      645F436F 
 16146      756E7400 
 16147              	.LASF371:
 16148 1b6c 4359424C 		.ascii	"CYBLE_EVT_ESSS_EXEC_WRITE_REQ\000"
 16148      455F4556 
 16148      545F4553 
 16148      53535F45 
 16148      5845435F 
 16149              	.LASF479:
 16150 1b8a 4359424C 		.ascii	"CYBLE_EVT_UDSS_READ_CHAR\000"
 16150      455F4556 
 16150      545F5544 
 16150      53535F52 
 16150      4541445F 
 16151              	.LASF589:
 16152 1ba3 74696D65 		.ascii	"timercount\000"
 16152      72636F75 
 16152      6E7400
 16153              	.LASF121:
 16154 1bae 4359424C 		.ascii	"CYBLE_BLESS_INVALID\000"
 16154      455F424C 
 16154      4553535F 
 16154      494E5641 
 16154      4C494400 
 16155              	.LASF201:
 16156 1bc2 4359424C 		.ascii	"CYBLE_GAPP_DISC_PARAM_T\000"
 16156      455F4741 
 16156      50505F44 
 16156      4953435F 
 16156      50415241 
 16157              	.LASF236:
 16158 1bda 73746172 		.ascii	"startHandle\000"
 16158      7448616E 
 16158      646C6500 
 16159              	.LASF249:
 16160 1be6 62797465 		.ascii	"byteCount\000"
 16160      436F756E 
 16160      7400
 16161              	.LASF634:
 16162 1bf0 696E6465 		.ascii	"index\000"
 16162      7800
 16163              	.LASF41:
 16164 1bf6 4359424C 		.ascii	"CYBLE_EVT_GAP_AUTH_COMPLETE\000"
 16164      455F4556 
 16164      545F4741 
 16164      505F4155 
 16164      54485F43 
 16165              	.LASF200:
 16166 1c12 61647646 		.ascii	"advFilterPolicy\000"
 16166      696C7465 
 16166      72506F6C 
 16166      69637900 
 16167              	.LASF377:
 16168 1c22 4359424C 		.ascii	"CYBLE_EVT_ESSC_READ_DESCR_RESPONSE\000"
 16168      455F4556 
 16168      545F4553 
 16168      53435F52 
ARM GAS  C:\Users\Helon\AppData\Local\Temp\cckZyeCc.s 			page 354


 16168      4541445F 
 16169              	.LASF42:
 16170 1c45 4359424C 		.ascii	"CYBLE_EVT_GAP_AUTH_FAILED\000"
 16170      455F4556 
 16170      545F4741 
 16170      505F4155 
 16170      54485F46 
 16171              	.LASF396:
 16172 1c5f 4359424C 		.ascii	"CYBLE_EVT_HIDSS_EXIT_SUSPEND\000"
 16172      455F4556 
 16172      545F4849 
 16172      4453535F 
 16172      45584954 
 16173              	.LASF131:
 16174 1c7c 4359424C 		.ascii	"CYBLE_BLESS_STATE_T\000"
 16174      455F424C 
 16174      4553535F 
 16174      53544154 
 16174      455F5400 
 16175              	.LASF223:
 16176 1c90 4359424C 		.ascii	"CYBLE_GAP_CONN_UPDATE_PARAM_T\000"
 16176      455F4741 
 16176      505F434F 
 16176      4E4E5F55 
 16176      50444154 
 16177              	.LASF530:
 16178 1cae 72784275 		.ascii	"rxBuffer\000"
 16178      66666572 
 16178      00
 16179              	.LASF195:
 16180 1cb7 61647654 		.ascii	"advType\000"
 16180      79706500 
 16181              	.LASF362:
 16182 1cbf 4359424C 		.ascii	"CYBLE_EVT_CTSC_WRITE_DESCR_RESPONSE\000"
 16182      455F4556 
 16182      545F4354 
 16182      53435F57 
 16182      52495445 
 16183              	.LASF628:
 16184 1ce3 53544155 		.ascii	"STAUS_T\000"
 16184      535F5400 
 16185              	.LASF519:
 16186 1ceb 70617269 		.ascii	"parity\000"
 16186      747900
 16187              	.LASF92:
 16188 1cf2 4359424C 		.ascii	"CYBLE_ERROR_INSUFFICIENT_RESOURCES\000"
 16188      455F4552 
 16188      524F525F 
 16188      494E5355 
 16188      46464943 
 16189              	.LASF449:
 16190 1d15 4359424C 		.ascii	"CYBLE_EVT_RSCSS_NOTIFICATION_DISABLED\000"
 16190      455F4556 
 16190      545F5253 
 16190      4353535F 
 16190      4E4F5449 
 16191              	.LASF633:
ARM GAS  C:\Users\Helon\AppData\Local\Temp\cckZyeCc.s 			page 355


 16192 1d3b 55617274 		.ascii	"Uart_Char\000"
 16192      5F436861 
 16192      7200
 16193              	.LASF400:
 16194 1d45 4359424C 		.ascii	"CYBLE_EVT_HIDSC_WRITE_CHAR_RESPONSE\000"
 16194      455F4556 
 16194      545F4849 
 16194      4453435F 
 16194      57524954 
 16195              	.LASF139:
 16196 1d69 4359424C 		.ascii	"CYBLE_LL_PWR_LVL_3_DBM\000"
 16196      455F4C4C 
 16196      5F505752 
 16196      5F4C564C 
 16196      5F335F44 
 16197              	.LASF10:
 16198 1d80 6C6F6E67 		.ascii	"long unsigned int\000"
 16198      20756E73 
 16198      69676E65 
 16198      6420696E 
 16198      7400
 16199              	.LASF423:
 16200 1d92 4359424C 		.ascii	"CYBLE_EVT_IASS_WRITE_CHAR_CMD\000"
 16200      455F4556 
 16200      545F4941 
 16200      53535F57 
 16200      52495445 
 16201              	.LASF626:
 16202 1db0 41647650 		.ascii	"AdvParamArray\000"
 16202      6172616D 
 16202      41727261 
 16202      7900
 16203              	.LASF224:
 16204 1dbe 73746174 		.ascii	"status\000"
 16204      757300
 16205              	.LASF137:
 16206 1dc5 4359424C 		.ascii	"CYBLE_LL_PWR_LVL_NEG_1_DBM\000"
 16206      455F4C4C 
 16206      5F505752 
 16206      5F4C564C 
 16206      5F4E4547 
 16207              	.LASF625:
 16208 1de0 41647644 		.ascii	"AdvDataLength\000"
 16208      6174614C 
 16208      656E6774 
 16208      6800
 16209              	.LASF490:
 16210 1dee 4359424C 		.ascii	"CYBLE_EVT_WPTSS_INDICATION_ENABLED\000"
 16210      455F4556 
 16210      545F5750 
 16210      5453535F 
 16210      494E4449 
 16211              	.LASF181:
 16212 1e11 4359424C 		.ascii	"CYBLE_GAP_AUTH_ERROR_COMMAND_NOT_SUPPORTED\000"
 16212      455F4741 
 16212      505F4155 
 16212      54485F45 
ARM GAS  C:\Users\Helon\AppData\Local\Temp\cckZyeCc.s 			page 356


 16212      52524F52 
 16213              	.LASF177:
 16214 1e3c 4359424C 		.ascii	"CYBLE_GAP_AUTH_ERROR_AUTHENTICATION_REQ_NOT_MET\000"
 16214      455F4741 
 16214      505F4155 
 16214      54485F45 
 16214      52524F52 
 16215              	.LASF543:
 16216 1e6c 656E6162 		.ascii	"enableCts\000"
 16216      6C654374 
 16216      7300
 16217              	.LASF587:
 16218 1e76 4D595F49 		.ascii	"MY_ISR_USERBUTTON\000"
 16218      53525F55 
 16218      53455242 
 16218      5554544F 
 16218      4E00
 16219              	.LASF286:
 16220 1e88 4359424C 		.ascii	"CYBLE_EVT_ANSC_READ_CHAR_RESPONSE\000"
 16220      455F4556 
 16220      545F414E 
 16220      53435F52 
 16220      4541445F 
 16221              	.LASF437:
 16222 1eaa 4359424C 		.ascii	"CYBLE_EVT_LNSC_READ_DESCR_RESPONSE\000"
 16222      455F4556 
 16222      545F4C4E 
 16222      53435F52 
 16222      4541445F 
 16223              	.LASF102:
 16224 1ecd 4359424C 		.ascii	"CYBLE_ERROR_L2CAP_PSM_ALREADY_REGISTERED\000"
 16224      455F4552 
 16224      524F525F 
 16224      4C324341 
 16224      505F5053 
 16225              	.LASF562:
 16226 1ef6 4C4F4749 		.ascii	"LOGIN\000"
 16226      4E00
 16227              	.LASF733:
 16228 1efc 474E5520 		.ascii	"GNU C 4.9.3 20150303 (release) [ARM/embedded-4_9-br"
 16228      4320342E 
 16228      392E3320 
 16228      32303135 
 16228      30333033 
 16229 1f2f 616E6368 		.ascii	"anch revision 221220] -mcpu=cortex-m0 -mthumb -g -O"
 16229      20726576 
 16229      6973696F 
 16229      6E203232 
 16229      31323230 
 16230 1f62 67202D66 		.ascii	"g -ffunction-sections -ffat-lto-objects\000"
 16230      66756E63 
 16230      74696F6E 
 16230      2D736563 
 16230      74696F6E 
 16231              	.LASF597:
 16232 1f8a 4C656449 		.ascii	"LedInit\000"
 16232      6E697400 
ARM GAS  C:\Users\Helon\AppData\Local\Temp\cckZyeCc.s 			page 357


 16233              	.LASF632:
 16234 1f92 526F6C65 		.ascii	"Role\000"
 16234      00
 16235              	.LASF36:
 16236 1f97 4359424C 		.ascii	"CYBLE_EVT_STACK_BUSY_STATUS\000"
 16236      455F4556 
 16236      545F5354 
 16236      41434B5F 
 16236      42555359 
 16237              	.LASF290:
 16238 1fb3 4359424C 		.ascii	"CYBLE_EVT_BASS_NOTIFICATION_ENABLED\000"
 16238      455F4556 
 16238      545F4241 
 16238      53535F4E 
 16238      4F544946 
 16239              	.LASF725:
 16240 1fd7 4379426C 		.ascii	"CyBle_GapDisconnect\000"
 16240      655F4761 
 16240      70446973 
 16240      636F6E6E 
 16240      65637400 
 16241              	.LASF363:
 16242 1feb 4359424C 		.ascii	"CYBLE_EVT_CTSC_WRITE_CHAR_RESPONSE\000"
 16242      455F4556 
 16242      545F4354 
 16242      53435F57 
 16242      52495445 
 16243              	.LASF442:
 16244 200e 4359424C 		.ascii	"CYBLE_EVT_PASSS_WRITE_CHAR\000"
 16244      455F4556 
 16244      545F5041 
 16244      5353535F 
 16244      57524954 
 16245              	.LASF340:
 16246 2029 4359424C 		.ascii	"CYBLE_EVT_CPSC_WRITE_CHAR_RESPONSE\000"
 16246      455F4556 
 16246      545F4350 
 16246      53435F57 
 16246      52495445 
 16247              	.LASF704:
 16248 204c 4379426C 		.ascii	"CyBle_Start\000"
 16248      655F5374 
 16248      61727400 
 16249              	.LASF47:
 16250 2058 4359424C 		.ascii	"CYBLE_EVT_GAP_CONNECTION_UPDATE_COMPLETE\000"
 16250      455F4556 
 16250      545F4741 
 16250      505F434F 
 16250      4E4E4543 
 16251              	.LASF325:
 16252 2081 4359424C 		.ascii	"CYBLE_EVT_CGMSC_READ_CHAR_RESPONSE\000"
 16252      455F4556 
 16252      545F4347 
 16252      4D53435F 
 16252      52454144 
 16253              	.LASF509:
 16254 20a4 4359424C 		.ascii	"CYBLE_STATE_INITIALIZING\000"
ARM GAS  C:\Users\Helon\AppData\Local\Temp\cckZyeCc.s 			page 358


 16254      455F5354 
 16254      4154455F 
 16254      494E4954 
 16254      49414C49 
 16255              	.LASF692:
 16256 20bd 53746174 		.ascii	"Status_LED_Write\000"
 16256      75735F4C 
 16256      45445F57 
 16256      72697465 
 16256      00
 16257              	.LASF591:
 16258 20ce 736C6565 		.ascii	"sleepMode\000"
 16258      704D6F64 
 16258      6500
 16259              	.LASF183:
 16260 20d8 4359424C 		.ascii	"CYBLE_GAP_AUTH_ERROR_REPEATED_ATTEMPTS\000"
 16260      455F4741 
 16260      505F4155 
 16260      54485F45 
 16260      52524F52 
 16261              	.LASF79:
 16262 20ff 4359424C 		.ascii	"CYBLE_EVT_L2CAP_CBFC_DISCONN_IND\000"
 16262      455F4556 
 16262      545F4C32 
 16262      4341505F 
 16262      43424643 
 16263              	.LASF721:
 16264 2120 4379426C 		.ascii	"CyBle_GapUpdateAdvData\000"
 16264      655F4761 
 16264      70557064 
 16264      61746541 
 16264      64764461 
 16265              	.LASF349:
 16266 2137 4359424C 		.ascii	"CYBLE_EVT_CSCSS_CHAR_WRITE\000"
 16266      455F4556 
 16266      545F4353 
 16266      4353535F 
 16266      43484152 
 16267              	.LASF579:
 16268 2152 4359424C 		.ascii	"CYBLE_DEVICE_INFO\000"
 16268      455F4445 
 16268      56494345 
 16268      5F494E46 
 16268      4F00
 16269              	.LASF601:
 16270 2164 6C6F6361 		.ascii	"location\000"
 16270      74696F6E 
 16270      00
 16271              	.LASF612:
 16272 216d 626C6553 		.ascii	"bleSsPwrLvl\000"
 16272      73507772 
 16272      4C766C00 
 16273              	.LASF456:
 16274 2179 4359424C 		.ascii	"CYBLE_EVT_RSCSC_READ_CHAR_RESPONSE\000"
 16274      455F4556 
 16274      545F5253 
 16274      4353435F 
ARM GAS  C:\Users\Helon\AppData\Local\Temp\cckZyeCc.s 			page 359


 16274      52454144 
 16275              	.LASF39:
 16276 219c 4359424C 		.ascii	"CYBLE_EVT_GAP_PASSKEY_ENTRY_REQUEST\000"
 16276      455F4556 
 16276      545F4741 
 16276      505F5041 
 16276      53534B45 
 16277              	.LASF663:
 16278 21c0 74657374 		.ascii	"testCount\000"
 16278      436F756E 
 16278      7400
 16279              	.LASF141:
 16280 21ca 4359424C 		.ascii	"CYBLE_BLESS_PWR_LVL_T\000"
 16280      455F424C 
 16280      4553535F 
 16280      5057525F 
 16280      4C564C5F 
 16281              	.LASF605:
 16282 21e0 6E6F7469 		.ascii	"notificationPacket\000"
 16282      66696361 
 16282      74696F6E 
 16282      5061636B 
 16282      657400
 16283              	.LASF431:
 16284 21f3 4359424C 		.ascii	"CYBLE_EVT_LNSS_NOTIFICATION_DISABLED\000"
 16284      455F4556 
 16284      545F4C4E 
 16284      53535F4E 
 16284      4F544946 
 16285              	.LASF334:
 16286 2218 4359424C 		.ascii	"CYBLE_EVT_CPSS_BROADCAST_ENABLED\000"
 16286      455F4556 
 16286      545F4350 
 16286      53535F42 
 16286      524F4144 
 16287              	.LASF635:
 16288 2239 75617274 		.ascii	"uartTxData\000"
 16288      54784461 
 16288      746100
 16289              	.LASF536:
 16290 2244 6D756C74 		.ascii	"multiprocAddrMask\000"
 16290      6970726F 
 16290      63416464 
 16290      724D6173 
 16290      6B00
 16291              	.LASF9:
 16292 2256 5F5F7569 		.ascii	"__uint32_t\000"
 16292      6E743332 
 16292      5F7400
 16293              	.LASF683:
 16294 2261 4379426C 		.ascii	"CyBle_GappAuthReqReply\000"
 16294      655F4761 
 16294      70704175 
 16294      74685265 
 16294      71526570 
 16295              	.LASF180:
 16296 2278 4359424C 		.ascii	"CYBLE_GAP_AUTH_ERROR_INSUFFICIENT_ENCRYPTION_KEY_SI"
ARM GAS  C:\Users\Helon\AppData\Local\Temp\cckZyeCc.s 			page 360


 16296      455F4741 
 16296      505F4155 
 16296      54485F45 
 16296      52524F52 
 16297 22ab 5A4500   		.ascii	"ZE\000"
 16298              	.LASF630:
 16299 22ae 61647644 		.ascii	"advDiscData\000"
 16299      69736344 
 16299      61746100 
 16300              	.LASF417:
 16301 22ba 4359424C 		.ascii	"CYBLE_EVT_HTSC_NOTIFICATION\000"
 16301      455F4556 
 16301      545F4854 
 16301      53435F4E 
 16301      4F544946 
 16302              	.LASF11:
 16303 22d6 6C6F6E67 		.ascii	"long long int\000"
 16303      206C6F6E 
 16303      6720696E 
 16303      7400
 16304              	.LASF714:
 16305 22e4 4379426C 		.ascii	"CyBle_SetTxPowerLevel\000"
 16305      655F5365 
 16305      74547850 
 16305      6F776572 
 16305      4C657665 
 16306              	.LASF528:
 16307 22fa 656E6162 		.ascii	"enableWake\000"
 16307      6C655761 
 16307      6B6500
 16308              	.LASF119:
 16309 2305 4359424C 		.ascii	"CYBLE_BLESS_DEEPSLEEP\000"
 16309      455F424C 
 16309      4553535F 
 16309      44454550 
 16309      534C4545 
 16310              	.LASF471:
 16311 231b 4359424C 		.ascii	"CYBLE_EVT_TPSC_READ_CHAR_RESPONSE\000"
 16311      455F4556 
 16311      545F5450 
 16311      53435F52 
 16311      4541445F 
 16312              	.LASF267:
 16313 233d 4359424C 		.ascii	"CYBLE_EVT_GATTC_CHAR_DUPLICATION\000"
 16313      455F4556 
 16313      545F4741 
 16313      5454435F 
 16313      43484152 
 16314              	.LASF382:
 16315 235e 4359424C 		.ascii	"CYBLE_EVT_GLSS_NOTIFICATION_ENABLED\000"
 16315      455F4556 
 16315      545F474C 
 16315      53535F4E 
 16315      4F544946 
 16316              	.LASF689:
 16317 2382 54696D65 		.ascii	"Timer_Stop\000"
 16317      725F5374 
ARM GAS  C:\Users\Helon\AppData\Local\Temp\cckZyeCc.s 			page 361


 16317      6F7000
 16318              	.LASF209:
 16319 238d 61647650 		.ascii	"advParam\000"
 16319      6172616D 
 16319      00
 16320              	.LASF103:
 16321 2396 4359424C 		.ascii	"CYBLE_ERROR_L2CAP_PSM_NOT_REGISTERED\000"
 16321      455F4552 
 16321      524F525F 
 16321      4C324341 
 16321      505F5053 
 16322              	.LASF93:
 16323 23bb 4359424C 		.ascii	"CYBLE_ERROR_OOB_NOT_AVAILABLE\000"
 16323      455F4552 
 16323      524F525F 
 16323      4F4F425F 
 16323      4E4F545F 
 16324              	.LASF317:
 16325 23d9 4359424C 		.ascii	"CYBLE_EVT_CGMSS_INDICATION_ENABLED\000"
 16325      455F4556 
 16325      545F4347 
 16325      4D53535F 
 16325      494E4449 
 16326              	.LASF691:
 16327 23fc 4379426C 		.ascii	"CyBle_GetBleSsState\000"
 16327      655F4765 
 16327      74426C65 
 16327      53735374 
 16327      61746500 
 16328              	.LASF24:
 16329 2410 646F7562 		.ascii	"double\000"
 16329      6C6500
 16330              	.LASF108:
 16331 2417 4359424C 		.ascii	"CYBLE_ERROR_DEVICE_ALREADY_EXISTS\000"
 16331      455F4552 
 16331      524F525F 
 16331      44455649 
 16331      43455F41 
 16332              	.LASF368:
 16333 2439 4359424C 		.ascii	"CYBLE_EVT_ESSS_INDICATION_DISABLED\000"
 16333      455F4556 
 16333      545F4553 
 16333      53535F49 
 16333      4E444943 
 16334              	.LASF85:
 16335 245c 4359424C 		.ascii	"CYBLE_EVT_PENDING_FLASH_WRITE\000"
 16335      455F4556 
 16335      545F5045 
 16335      4E44494E 
 16335      475F464C 
 16336              	.LASF270:
 16337 247a 4359424C 		.ascii	"CYBLE_EVT_GATTC_INCL_DISCOVERY_COMPLETE\000"
 16337      455F4556 
 16337      545F4741 
 16337      5454435F 
 16337      494E434C 
 16338              	.LASF140:
ARM GAS  C:\Users\Helon\AppData\Local\Temp\cckZyeCc.s 			page 362


 16339 24a2 4359424C 		.ascii	"CYBLE_LL_PWR_LVL_MAX\000"
 16339      455F4C4C 
 16339      5F505752 
 16339      5F4C564C 
 16339      5F4D4158 
 16340              	.LASF488:
 16341 24b7 4359424C 		.ascii	"CYBLE_EVT_WPTSS_NOTIFICATION_ENABLED\000"
 16341      455F4556 
 16341      545F5750 
 16341      5453535F 
 16341      4E4F5449 
 16342              	.LASF563:
 16343 24dc 52535349 		.ascii	"RSSI\000"
 16343      00
 16344              	.LASF619:
 16345 24e1 4164764D 		.ascii	"AdvMin\000"
 16345      696E00
 16346              	.LASF438:
 16347 24e8 4359424C 		.ascii	"CYBLE_EVT_LNSC_WRITE_DESCR_RESPONSE\000"
 16347      455F4556 
 16347      545F4C4E 
 16347      53435F57 
 16347      52495445 
 16348              	.LASF197:
 16349 250c 64697265 		.ascii	"directAddrType\000"
 16349      63744164 
 16349      64725479 
 16349      706500
 16350              	.LASF425:
 16351 251b 4359424C 		.ascii	"CYBLE_EVT_LLSC_READ_CHAR_RESPONSE\000"
 16351      455F4556 
 16351      545F4C4C 
 16351      53435F52 
 16351      4541445F 
 16352              	.LASF348:
 16353 253d 4359424C 		.ascii	"CYBLE_EVT_CSCSS_INDICATION_CONFIRMATION\000"
 16353      455F4556 
 16353      545F4353 
 16353      4353535F 
 16353      494E4449 
 16354              	.LASF105:
 16355 2565 4359424C 		.ascii	"CYBLE_ERROR_L2CAP_CHANNEL_NOT_FOUND\000"
 16355      455F4552 
 16355      524F525F 
 16355      4C324341 
 16355      505F4348 
 16356              	.LASF606:
 16357 2589 53656E64 		.ascii	"SendData_toSlave\000"
 16357      44617461 
 16357      5F746F53 
 16357      6C617665 
 16357      00
 16358              	.LASF96:
 16359 259a 4359424C 		.ascii	"CYBLE_ERROR_REPEATED_ATTEMPTS\000"
 16359      455F4552 
 16359      524F525F 
 16359      52455045 
ARM GAS  C:\Users\Helon\AppData\Local\Temp\cckZyeCc.s 			page 363


 16359      41544544 
 16360              	.LASF372:
 16361 25b8 4359424C 		.ascii	"CYBLE_EVT_ESSS_DESCR_WRITE\000"
 16361      455F4556 
 16361      545F4553 
 16361      53535F44 
 16361      45534352 
 16362              	.LASF367:
 16363 25d3 4359424C 		.ascii	"CYBLE_EVT_ESSS_INDICATION_ENABLED\000"
 16363      455F4556 
 16363      545F4553 
 16363      53535F49 
 16363      4E444943 
 16364              	.LASF353:
 16365 25f5 4359424C 		.ascii	"CYBLE_EVT_CSCSC_WRITE_CHAR_RESPONSE\000"
 16365      455F4556 
 16365      545F4353 
 16365      4353435F 
 16365      57524954 
 16366              	.LASF23:
 16367 2619 666C6F61 		.ascii	"float\000"
 16367      7400
 16368              	.LASF465:
 16369 261f 4359424C 		.ascii	"CYBLE_EVT_SCPSC_NOTIFICATION\000"
 16369      455F4556 
 16369      545F5343 
 16369      5053435F 
 16369      4E4F5449 
 16370              	.LASF394:
 16371 263c 4359424C 		.ascii	"CYBLE_EVT_HIDSS_REPORT_MODE_ENTER\000"
 16371      455F4556 
 16371      545F4849 
 16371      4453535F 
 16371      5245504F 
 16372              	.LASF373:
 16373 265e 4359424C 		.ascii	"CYBLE_EVT_ESSC_NOTIFICATION\000"
 16373      455F4556 
 16373      545F4553 
 16373      53435F4E 
 16373      4F544946 
 16374              	.LASF109:
 16375 267a 4359424C 		.ascii	"CYBLE_ERROR_FLASH_WRITE_NOT_PERMITED\000"
 16375      455F4552 
 16375      524F525F 
 16375      464C4153 
 16375      485F5752 
 16376              	.LASF392:
 16377 269f 4359424C 		.ascii	"CYBLE_EVT_HIDSS_NOTIFICATION_DISABLED\000"
 16377      455F4556 
 16377      545F4849 
 16377      4453535F 
 16377      4E4F5449 
 16378              	.LASF73:
 16379 26c5 4359424C 		.ascii	"CYBLE_EVT_GATTS_READ_CHAR_VAL_ACCESS_REQ\000"
 16379      455F4556 
 16379      545F4741 
 16379      5454535F 
ARM GAS  C:\Users\Helon\AppData\Local\Temp\cckZyeCc.s 			page 364


 16379      52454144 
 16380              	.LASF279:
 16381 26ee 4359424C 		.ascii	"CYBLE_EVT_ANCSC_READ_DESCR_RESPONSE\000"
 16381      455F4556 
 16381      545F414E 
 16381      4353435F 
 16381      52454144 
 16382              	.LASF598:
 16383 2712 53797374 		.ascii	"SystemInitialization\000"
 16383      656D496E 
 16383      69746961 
 16383      6C697A61 
 16383      74696F6E 
 16384              	.LASF645:
 16385 2727 6379426C 		.ascii	"cyBle_state\000"
 16385      655F7374 
 16385      61746500 
 16386              	.LASF234:
 16387 2733 61747472 		.ascii	"attrHandle\000"
 16387      48616E64 
 16387      6C6500
 16388              	.LASF482:
 16389 273e 4359424C 		.ascii	"CYBLE_EVT_UDSC_NOTIFICATION\000"
 16389      455F4556 
 16389      545F5544 
 16389      53435F4E 
 16389      4F544946 
 16390              	.LASF496:
 16391 275a 4359424C 		.ascii	"CYBLE_EVT_WPTSC_WRITE_CHAR_RESPONSE\000"
 16391      455F4556 
 16391      545F5750 
 16391      5453435F 
 16391      57524954 
 16392              	.LASF189:
 16393 277e 626F6E64 		.ascii	"bonding\000"
 16393      696E6700 
 16394              	.LASF243:
 16395 2786 4359424C 		.ascii	"CYBLE_GATTS_WRITE_REQ_PARAM_T\000"
 16395      455F4741 
 16395      5454535F 
 16395      57524954 
 16395      455F5245 
 16396              	.LASF13:
 16397 27a4 756E7369 		.ascii	"unsigned int\000"
 16397      676E6564 
 16397      20696E74 
 16397      00
 16398              	.LASF65:
 16399 27b1 4359424C 		.ascii	"CYBLE_EVT_GATTS_PREP_WRITE_REQ\000"
 16399      455F4556 
 16399      545F4741 
 16399      5454535F 
 16399      50524550 
 16400              	.LASF726:
 16401 27d0 4379426C 		.ascii	"CyBle_GetRssi\000"
 16401      655F4765 
 16401      74527373 
ARM GAS  C:\Users\Helon\AppData\Local\Temp\cckZyeCc.s 			page 365


 16401      6900
 16402              	.LASF357:
 16403 27de 4359424C 		.ascii	"CYBLE_EVT_CTSS_NOTIFICATION_DISABLED\000"
 16403      455F4556 
 16403      545F4354 
 16403      53535F4E 
 16403      4F544946 
 16404              	.LASF483:
 16405 2803 4359424C 		.ascii	"CYBLE_EVT_UDSC_READ_CHAR_RESPONSE\000"
 16405      455F4556 
 16405      545F5544 
 16405      53435F52 
 16405      4541445F 
 16406              	.LASF304:
 16407 2825 4359424C 		.ascii	"CYBLE_EVT_BLSS_INDICATION_DISABLED\000"
 16407      455F4556 
 16407      545F424C 
 16407      53535F49 
 16407      4E444943 
 16408              	.LASF585:
 16409 2848 77726974 		.ascii	"writeParam\000"
 16409      65506172 
 16409      616D00
 16410              	.LASF143:
 16411 2853 4359424C 		.ascii	"CYBLE_LL_CONN_CH_TYPE\000"
 16411      455F4C4C 
 16411      5F434F4E 
 16411      4E5F4348 
 16411      5F545950 
 16412              	.LASF463:
 16413 2869 4359424C 		.ascii	"CYBLE_EVT_SCPSS_NOTIFICATION_DISABLED\000"
 16413      455F4556 
 16413      545F5343 
 16413      5053535F 
 16413      4E4F5449 
 16414              	.LASF539:
 16415 288f 72785472 		.ascii	"rxTriggerLevel\000"
 16415      69676765 
 16415      724C6576 
 16415      656C00
 16416              	.LASF369:
 16417 289e 4359424C 		.ascii	"CYBLE_EVT_ESSS_INDICATION_CONFIRMATION\000"
 16417      455F4556 
 16417      545F4553 
 16417      53535F49 
 16417      4E444943 
 16418              	.LASF255:
 16419 28c5 4359424C 		.ascii	"CYBLE_AUTHENTICATION_REQUEST_REPLY\000"
 16419      455F4155 
 16419      5448454E 
 16419      54494341 
 16419      54494F4E 
 16420              	.LASF688:
 16421 28e8 54696D65 		.ascii	"Timer_ClearInterrupt\000"
 16421      725F436C 
 16421      65617249 
 16421      6E746572 
ARM GAS  C:\Users\Helon\AppData\Local\Temp\cckZyeCc.s 			page 366


 16421      72757074 
 16422              	.LASF101:
 16423 28fd 4359424C 		.ascii	"CYBLE_ERROR_L2CAP_PSM_WRONG_ENCODING\000"
 16423      455F4552 
 16423      524F525F 
 16423      4C324341 
 16423      505F5053 
 16424              	.LASF443:
 16425 2922 4359424C 		.ascii	"CYBLE_EVT_PASSC_NOTIFICATION\000"
 16425      455F4556 
 16425      545F5041 
 16425      5353435F 
 16425      4E4F5449 
 16426              	.LASF307:
 16427 293f 4359424C 		.ascii	"CYBLE_EVT_BLSS_NOTIFICATION_DISABLED\000"
 16427      455F4556 
 16427      545F424C 
 16427      53535F4E 
 16427      4F544946 
 16428              	.LASF552:
 16429 2964 4C414444 		.ascii	"LADDR\000"
 16429      5200
 16430              	.LASF420:
 16431 296a 4359424C 		.ascii	"CYBLE_EVT_HTSC_WRITE_CHAR_RESPONSE\000"
 16431      455F4556 
 16431      545F4854 
 16431      53435F57 
 16431      52495445 
 16432              	.LASF248:
 16433 298d 6C697374 		.ascii	"list\000"
 16433      00
 16434              	.LASF87:
 16435 2992 4359424C 		.ascii	"CYBLE_EVT_MAX\000"
 16435      455F4556 
 16435      545F4D41 
 16435      5800
 16436              	.LASF48:
 16437 29a0 4359424C 		.ascii	"CYBLE_EVT_GAPC_SCAN_START_STOP\000"
 16437      455F4556 
 16437      545F4741 
 16437      50435F53 
 16437      43414E5F 
 16438              	.LASF557:
 16439 29bf 434F4E4E 		.ascii	"CONNI\000"
 16439      4900
 16440              	.LASF282:
 16441 29c5 4359424C 		.ascii	"CYBLE_EVT_ANSS_NOTIFICATION_ENABLED\000"
 16441      455F4556 
 16441      545F414E 
 16441      53535F4E 
 16441      4F544946 
 16442              	.LASF161:
 16443 29e9 4359424C 		.ascii	"CYBLE_GAPP_ADV_T\000"
 16443      455F4741 
 16443      50505F41 
 16443      44565F54 
 16443      00
ARM GAS  C:\Users\Helon\AppData\Local\Temp\cckZyeCc.s 			page 367


 16444              	.LASF187:
 16445 29fa 4359424C 		.ascii	"CYBLE_GAP_AUTH_FAILED_REASON_T\000"
 16445      455F4741 
 16445      505F4155 
 16445      54485F46 
 16445      41494C45 
 16446              	.LASF62:
 16447 2a19 4359424C 		.ascii	"CYBLE_EVT_GATTS_WRITE_REQ\000"
 16447      455F4556 
 16447      545F4741 
 16447      5454535F 
 16447      57524954 
 16448              	.LASF665:
 16449 2a33 436F6E6E 		.ascii	"ConnParam\000"
 16449      50617261 
 16449      6D00
 16450              	.LASF202:
 16451 2a3d 61647644 		.ascii	"advData\000"
 16451      61746100 
 16452              	.LASF602:
 16453 2a45 53747269 		.ascii	"String\000"
 16453      6E6700
 16454              	.LASF71:
 16455 2a4c 4359424C 		.ascii	"CYBLE_EVT_GATTS_DATA_SIGNED_CMD_REQ\000"
 16455      455F4556 
 16455      545F4741 
 16455      5454535F 
 16455      44415441 
 16456              	.LASF531:
 16457 2a70 74784275 		.ascii	"txBufferSize\000"
 16457      66666572 
 16457      53697A65 
 16457      00
 16458              	.LASF484:
 16459 2a7d 4359424C 		.ascii	"CYBLE_EVT_UDSC_WRITE_CHAR_RESPONSE\000"
 16459      455F4556 
 16459      545F5544 
 16459      53435F57 
 16459      52495445 
 16460              	.LASF637:
 16461 2aa0 75617274 		.ascii	"uartIdleCount\000"
 16461      49646C65 
 16461      436F756E 
 16461      7400
 16462              	.LASF495:
 16463 2aae 4359424C 		.ascii	"CYBLE_EVT_WPTSC_INDICATION\000"
 16463      455F4556 
 16463      545F5750 
 16463      5453435F 
 16463      494E4449 
 16464              	.LASF574:
 16465 2ac9 44657669 		.ascii	"DeviceAddr\000"
 16465      63654164 
 16465      647200
 16466              	.LASF40:
 16467 2ad4 4359424C 		.ascii	"CYBLE_EVT_GAP_PASSKEY_DISPLAY_REQUEST\000"
 16467      455F4556 
ARM GAS  C:\Users\Helon\AppData\Local\Temp\cckZyeCc.s 			page 368


 16467      545F4741 
 16467      505F5041 
 16467      53534B45 
 16468              	.LASF113:
 16469 2afa 4359424C 		.ascii	"CYBLE_ERROR_IND_DISABLED\000"
 16469      455F4552 
 16469      524F525F 
 16469      494E445F 
 16469      44495341 
 16470              	.LASF112:
 16471 2b13 4359424C 		.ascii	"CYBLE_ERROR_NTF_DISABLED\000"
 16471      455F4552 
 16471      524F525F 
 16471      4E54465F 
 16471      44495341 
 16472              	.LASF728:
 16473 2b2c 4379426C 		.ascii	"CyBle_GapAuthReq\000"
 16473      655F4761 
 16473      70417574 
 16473      68526571 
 16473      00
 16474              	.LASF609:
 16475 2b3d 436F6E6E 		.ascii	"Connect_Device\000"
 16475      6563745F 
 16475      44657669 
 16475      636500
 16476              	.LASF657:
 16477 2b4c 54726F75 		.ascii	"TroughtTest_Flag\000"
 16477      67687454 
 16477      6573745F 
 16477      466C6167 
 16477      00
 16478              	.LASF59:
 16479 2b5d 4359424C 		.ascii	"CYBLE_EVT_GATTC_READ_RSP\000"
 16479      455F4556 
 16479      545F4741 
 16479      5454435F 
 16479      52454144 
 16480              	.LASF157:
 16481 2b76 4359424C 		.ascii	"CYBLE_GAPP_CONNECTABLE_HIGH_DC_DIRECTED_ADV\000"
 16481      455F4741 
 16481      50505F43 
 16481      4F4E4E45 
 16481      43544142 
 16482              	.LASF364:
 16483 2ba2 4359424C 		.ascii	"CYBLE_EVT_DISC_READ_CHAR_RESPONSE\000"
 16483      455F4556 
 16483      545F4449 
 16483      53435F52 
 16483      4541445F 
 16484              	.LASF78:
 16485 2bc4 4359424C 		.ascii	"CYBLE_EVT_L2CAP_CBFC_CONN_CNF\000"
 16485      455F4556 
 16485      545F4C32 
 16485      4341505F 
 16485      43424643 
 16486              	.LASF315:
ARM GAS  C:\Users\Helon\AppData\Local\Temp\cckZyeCc.s 			page 369


 16487 2be2 4359424C 		.ascii	"CYBLE_EVT_BMSC_WRITE_CHAR_RESPONSE\000"
 16487      455F4556 
 16487      545F424D 
 16487      53435F57 
 16487      52495445 
 16488              	.LASF421:
 16489 2c05 4359424C 		.ascii	"CYBLE_EVT_HTSC_READ_DESCR_RESPONSE\000"
 16489      455F4556 
 16489      545F4854 
 16489      53435F52 
 16489      4541445F 
 16490              	.LASF507:
 16491 2c28 4359424C 		.ascii	"CYBLE_DEBUG_EVT_BLESS_INT\000"
 16491      455F4445 
 16491      4255475F 
 16491      4556545F 
 16491      424C4553 
 16492              	.LASF384:
 16493 2c42 4359424C 		.ascii	"CYBLE_EVT_GLSS_WRITE_CHAR\000"
 16493      455F4556 
 16493      545F474C 
 16493      53535F57 
 16493      52495445 
 16494              	.LASF491:
 16495 2c5c 4359424C 		.ascii	"CYBLE_EVT_WPTSS_INDICATION_DISABLED\000"
 16495      455F4556 
 16495      545F5750 
 16495      5453535F 
 16495      494E4449 
 16496              	.LASF210:
 16497 2c80 61647654 		.ascii	"advTo\000"
 16497      6F00
 16498              	.LASF709:
 16499 2c86 7374726E 		.ascii	"strncmp\000"
 16499      636D7000 
 16500              	.LASF320:
 16501 2c8e 4359424C 		.ascii	"CYBLE_EVT_CGMSS_NOTIFICATION_ENABLED\000"
 16501      455F4556 
 16501      545F4347 
 16501      4D53535F 
 16501      4E4F5449 
 16502              	.LASF134:
 16503 2cb3 4359424C 		.ascii	"CYBLE_LL_PWR_LVL_NEG_6_DBM\000"
 16503      455F4C4C 
 16503      5F505752 
 16503      5F4C564C 
 16503      5F4E4547 
 16504              	.LASF253:
 16505 2cce 4359424C 		.ascii	"CYBLE_GATTC_FIND_INFO_RSP_PARAM_T\000"
 16505      455F4741 
 16505      5454435F 
 16505      46494E44 
 16505      5F494E46 
 16506              	.LASF406:
 16507 2cf0 4359424C 		.ascii	"CYBLE_EVT_HRSC_NOTIFICATION\000"
 16507      455F4556 
 16507      545F4852 
ARM GAS  C:\Users\Helon\AppData\Local\Temp\cckZyeCc.s 			page 370


 16507      53435F4E 
 16507      4F544946 
 16508              	.LASF452:
 16509 2d0c 4359424C 		.ascii	"CYBLE_EVT_RSCSS_INDICATION_CONFIRMATION\000"
 16509      455F4556 
 16509      545F5253 
 16509      4353535F 
 16509      494E4449 
 16510              	.LASF682:
 16511 2d34 54696D65 		.ascii	"Timer_Enable\000"
 16511      725F456E 
 16511      61626C65 
 16511      00
 16512              	.LASF627:
 16513 2d41 41647650 		.ascii	"AdvParam\000"
 16513      6172616D 
 16513      00
 16514              	.LASF401:
 16515 2d4a 4359424C 		.ascii	"CYBLE_EVT_HIDSC_READ_DESCR_RESPONSE\000"
 16515      455F4556 
 16515      545F4849 
 16515      4453435F 
 16515      52454144 
 16516              	.LASF407:
 16517 2d6e 4359424C 		.ascii	"CYBLE_EVT_HRSC_READ_CHAR_RESPONSE\000"
 16517      455F4556 
 16517      545F4852 
 16517      53435F52 
 16517      4541445F 
 16518              	.LASF292:
 16519 2d90 4359424C 		.ascii	"CYBLE_EVT_BASC_NOTIFICATION\000"
 16519      455F4556 
 16519      545F4241 
 16519      53435F4E 
 16519      4F544946 
 16520              	.LASF174:
 16521 2dac 4359424C 		.ascii	"CYBLE_GAP_AUTH_ERROR_NONE\000"
 16521      455F4741 
 16521      505F4155 
 16521      54485F45 
 16521      52524F52 
 16522              	.LASF46:
 16523 2dc6 4359424C 		.ascii	"CYBLE_EVT_GAP_ENCRYPT_CHANGE\000"
 16523      455F4556 
 16523      545F4741 
 16523      505F454E 
 16523      43525950 
 16524              	.LASF476:
 16525 2de3 4359424C 		.ascii	"CYBLE_EVT_UDSS_INDICATION_CONFIRMED\000"
 16525      455F4556 
 16525      545F5544 
 16525      53535F49 
 16525      4E444943 
 16526              	.LASF638:
 16527 2e07 75617274 		.ascii	"uartTxDataNtf\000"
 16527      54784461 
 16527      74614E74 
ARM GAS  C:\Users\Helon\AppData\Local\Temp\cckZyeCc.s 			page 371


 16527      6600
 16528              	.LASF570:
 16529 2e15 494F4341 		.ascii	"IOCAP\000"
 16529      5000
 16530              	.LASF439:
 16531 2e1b 4359424C 		.ascii	"CYBLE_EVT_NDCSC_READ_CHAR_RESPONSE\000"
 16531      455F4556 
 16531      545F4E44 
 16531      4353435F 
 16531      52454144 
 16532              	.LASF698:
 16533 2e3e 4354535F 		.ascii	"CTS_SetDriveMode\000"
 16533      53657444 
 16533      72697665 
 16533      4D6F6465 
 16533      00
 16534              	.LASF268:
 16535 2e4f 4359424C 		.ascii	"CYBLE_EVT_GATTC_DESCR_DUPLICATION\000"
 16535      455F4556 
 16535      545F4741 
 16535      5454435F 
 16535      44455343 
 16536              	.LASF736:
 16537 2e71 5F5F6275 		.ascii	"__builtin_puts\000"
 16537      696C7469 
 16537      6E5F7075 
 16537      747300
 16538              	.LASF730:
 16539 2e80 55415254 		.ascii	"UART_UartGetByte\000"
 16539      5F556172 
 16539      74476574 
 16539      42797465 
 16539      00
 16540              	.LASF53:
 16541 2e91 4359424C 		.ascii	"CYBLE_EVT_GATTS_XCNHG_MTU_REQ\000"
 16541      455F4556 
 16541      545F4741 
 16541      5454535F 
 16541      58434E48 
 16542              	.LASF477:
 16543 2eaf 4359424C 		.ascii	"CYBLE_EVT_UDSS_NOTIFICATION_ENABLED\000"
 16543      455F4556 
 16543      545F5544 
 16543      53535F4E 
 16543      4F544946 
 16544              	.LASF650:
 16545 2ed3 4C6F7750 		.ascii	"LowPower_EN\000"
 16545      6F776572 
 16545      5F454E00 
 16546              	.LASF176:
 16547 2edf 4359424C 		.ascii	"CYBLE_GAP_AUTH_ERROR_OOB_DATA_NOT_AVAILABLE\000"
 16547      455F4741 
 16547      505F4155 
 16547      54485F45 
 16547      52524F52 
 16548              	.LASF534:
 16549 2f0b 6D756C74 		.ascii	"multiprocAcceptAddr\000"
ARM GAS  C:\Users\Helon\AppData\Local\Temp\cckZyeCc.s 			page 372


 16549      6970726F 
 16549      63416363 
 16549      65707441 
 16549      64647200 
 16550              	.LASF28:
 16551 2f1f 63796973 		.ascii	"cyisraddress\000"
 16551      72616464 
 16551      72657373 
 16551      00
 16552              	.LASF429:
 16553 2f2c 4359424C 		.ascii	"CYBLE_EVT_LNSS_INDICATION_CONFIRMED\000"
 16553      455F4556 
 16553      545F4C4E 
 16553      53535F49 
 16553      4E444943 
 16554              	.LASF615:
 16555 2f50 70625372 		.ascii	"pbSrc\000"
 16555      6300
 16556              	.LASF501:
 16557 2f56 4359424C 		.ascii	"CYBLE_EVT_WSSS_INDICATION_DISABLED\000"
 16557      455F4556 
 16557      545F5753 
 16557      53535F49 
 16557      4E444943 
 16558              	.LASF289:
 16559 2f79 4359424C 		.ascii	"CYBLE_EVT_ANSC_WRITE_DESCR_RESPONSE\000"
 16559      455F4556 
 16559      545F414E 
 16559      53435F57 
 16559      52495445 
 16560              	.LASF435:
 16561 2f9d 4359424C 		.ascii	"CYBLE_EVT_LNSC_READ_CHAR_RESPONSE\000"
 16561      455F4556 
 16561      545F4C4E 
 16561      53435F52 
 16561      4541445F 
 16562              	.LASF0:
 16563 2fbf 5F5F696E 		.ascii	"__int8_t\000"
 16563      74385F74 
 16563      00
 16564              	.LASF117:
 16565 2fc8 4359424C 		.ascii	"CYBLE_BLESS_ACTIVE\000"
 16565      455F424C 
 16565      4553535F 
 16565      41435449 
 16565      564500
 16566              	.LASF226:
 16567 2fdb 4359424C 		.ascii	"CYBLE_GAP_CONN_PARAM_UPDATED_IN_CONTROLLER_T\000"
 16567      455F4741 
 16567      505F434F 
 16567      4E4E5F50 
 16567      4152414D 
 16568              	.LASF515:
 16569 3008 4359424C 		.ascii	"CYBLE_STATE_T\000"
 16569      455F5354 
 16569      4154455F 
 16569      5400
ARM GAS  C:\Users\Helon\AppData\Local\Temp\cckZyeCc.s 			page 373


 16570              	.LASF611:
 16571 3016 5478506F 		.ascii	"TxPower_Handler\000"
 16571      7765725F 
 16571      48616E64 
 16571      6C657200 
 16572              	.LASF647:
 16573 3026 44657669 		.ascii	"DeviceCount\000"
 16573      6365436F 
 16573      756E7400 
 16574              	.LASF259:
 16575 3032 4359424C 		.ascii	"CYBLE_EVT_GATTS_INDICATION_ENABLED\000"
 16575      455F4556 
 16575      545F4741 
 16575      5454535F 
 16575      494E4449 
 16576              	.LASF12:
 16577 3055 6C6F6E67 		.ascii	"long long unsigned int\000"
 16577      206C6F6E 
 16577      6720756E 
 16577      7369676E 
 16577      65642069 
 16578              	.LASF722:
 16579 306c 4379426C 		.ascii	"CyBle_GapcStartScan\000"
 16579      655F4761 
 16579      70635374 
 16579      61727453 
 16579      63616E00 
 16580              	.LASF33:
 16581 3080 4359424C 		.ascii	"CYBLE_EVT_TIMEOUT\000"
 16581      455F4556 
 16581      545F5449 
 16581      4D454F55 
 16581      5400
 16582              	.LASF361:
 16583 3092 4359424C 		.ascii	"CYBLE_EVT_CTSC_READ_DESCR_RESPONSE\000"
 16583      455F4556 
 16583      545F4354 
 16583      53435F52 
 16583      4541445F 
 16584              	.LASF672:
 16585 30b5 53544F50 		.ascii	"STOP_SCAN_FLAG\000"
 16585      5F534341 
 16585      4E5F464C 
 16585      414700
 16586              	.LASF17:
 16587 30c4 75696E74 		.ascii	"uint16_t\000"
 16587      31365F74 
 16587      00
 16588              	.LASF27:
 16589 30cd 72656733 		.ascii	"reg32\000"
 16589      3200
 16590              	.LASF566:
 16591 30d3 4E4F5449 		.ascii	"NOTIFY\000"
 16591      465900
 16592              	.LASF251:
 16593 30da 68616E64 		.ascii	"handleValueList\000"
 16593      6C655661 
ARM GAS  C:\Users\Helon\AppData\Local\Temp\cckZyeCc.s 			page 374


 16593      6C75654C 
 16593      69737400 
 16594              	.LASF526:
 16595 30ea 64726F70 		.ascii	"dropOnParityErr\000"
 16595      4F6E5061 
 16595      72697479 
 16595      45727200 
 16596              	.LASF115:
 16597 30fa 4359424C 		.ascii	"CYBLE_ERROR_INVALID_STATE\000"
 16597      455F4552 
 16597      524F525F 
 16597      494E5641 
 16597      4C49445F 
 16598              	.LASF227:
 16599 3114 4359424C 		.ascii	"CYBLE_GATT_DB_ATTR_HANDLE_T\000"
 16599      455F4741 
 16599      54545F44 
 16599      425F4154 
 16599      54525F48 
 16600              	.LASF522:
 16601 3130 656E6162 		.ascii	"enableIrdaLowPower\000"
 16601      6C654972 
 16601      64614C6F 
 16601      77506F77 
 16601      657200
 16602              	.LASF81:
 16603 3143 4359424C 		.ascii	"CYBLE_EVT_L2CAP_CBFC_DATA_READ\000"
 16603      455F4556 
 16603      545F4C32 
 16603      4341505F 
 16603      43424643 
 16604              	.LASF301:
 16605 3162 4359424C 		.ascii	"CYBLE_EVT_BCSC_READ_DESCR_RESPONSE\000"
 16605      455F4556 
 16605      545F4243 
 16605      53435F52 
 16605      4541445F 
 16606              	.LASF233:
 16607 3185 76616C75 		.ascii	"value\000"
 16607      6500
 16608              	.LASF337:
 16609 318b 4359424C 		.ascii	"CYBLE_EVT_CPSC_NOTIFICATION\000"
 16609      455F4556 
 16609      545F4350 
 16609      53435F4E 
 16609      4F544946 
 16610              	.LASF312:
 16611 31a7 4359424C 		.ascii	"CYBLE_EVT_BLSC_WRITE_DESCR_RESPONSE\000"
 16611      455F4556 
 16611      545F424C 
 16611      53435F57 
 16611      52495445 
 16612              	.LASF655:
 16613 31cb 436F6E6E 		.ascii	"Conn_or_Disconn_Idx\000"
 16613      5F6F725F 
 16613      44697363 
 16613      6F6E6E5F 
ARM GAS  C:\Users\Helon\AppData\Local\Temp\cckZyeCc.s 			page 375


 16613      49647800 
 16614              	.LASF690:
 16615 31df 4379426C 		.ascii	"CyBle_EnterLPM\000"
 16615      655F456E 
 16615      7465724C 
 16615      504D00
 16616              	.LASF662:
 16617 31ee 436F6D6D 		.ascii	"CommandMode\000"
 16617      616E644D 
 16617      6F646500 
 16618              	.LASF434:
 16619 31fa 4359424C 		.ascii	"CYBLE_EVT_LNSC_NOTIFICATION\000"
 16619      455F4556 
 16619      545F4C4E 
 16619      53435F4E 
 16619      4F544946 
 16620              	.LASF636:
 16621 3216 75617274 		.ascii	"uartTxDataLength\000"
 16621      54784461 
 16621      74614C65 
 16621      6E677468 
 16621      00
 16622              	.LASF596:
 16623 3227 44495649 		.ascii	"DIVIDER_CLOCK\000"
 16623      4445525F 
 16623      434C4F43 
 16623      4B00
 16624              	.LASF359:
 16625 3235 4359424C 		.ascii	"CYBLE_EVT_CTSC_NOTIFICATION\000"
 16625      455F4556 
 16625      545F4354 
 16625      53435F4E 
 16625      4F544946 
 16626              	.LASF671:
 16627 3251 53747269 		.ascii	"StringArry\000"
 16627      6E674172 
 16627      727900
 16628              	.LASF679:
 16629 325c 55415254 		.ascii	"UART_SpiUartWriteTxData\000"
 16629      5F537069 
 16629      55617274 
 16629      57726974 
 16629      65547844 
 16630              	.LASF380:
 16631 3274 4359424C 		.ascii	"CYBLE_EVT_GLSS_INDICATION_DISABLED\000"
 16631      455F4556 
 16631      545F474C 
 16631      53535F49 
 16631      4E444943 
 16632              	.LASF153:
 16633 3297 4359424C 		.ascii	"CYBLE_GAP_SCAN_TO\000"
 16633      455F4741 
 16633      505F5343 
 16633      414E5F54 
 16633      4F00
 16634              	.LASF680:
 16635 32a9 55415254 		.ascii	"UART_UartPutString\000"
ARM GAS  C:\Users\Helon\AppData\Local\Temp\cckZyeCc.s 			page 376


 16635      5F556172 
 16635      74507574 
 16635      53747269 
 16635      6E6700
 16636              	.LASF163:
 16637 32bc 4359424C 		.ascii	"CYBLE_GAPC_CONN_DIRECTED_ADV\000"
 16637      455F4741 
 16637      50435F43 
 16637      4F4E4E5F 
 16637      44495245 
 16638              	.LASF266:
 16639 32d9 4359424C 		.ascii	"CYBLE_EVT_GATTC_SRVC_DUPLICATION\000"
 16639      455F4556 
 16639      545F4741 
 16639      5454435F 
 16639      53525643 
 16640              	.LASF724:
 16641 32fa 5363616E 		.ascii	"ScanDeviceInfoInit\000"
 16641      44657669 
 16641      6365496E 
 16641      666F496E 
 16641      697400
 16642              	.LASF427:
 16643 330d 4359424C 		.ascii	"CYBLE_EVT_LNSS_INDICATION_ENABLED\000"
 16643      455F4556 
 16643      545F4C4E 
 16643      53535F49 
 16643      4E444943 
 16644              	.LASF151:
 16645 332f 4359424C 		.ascii	"CYBLE_GAP_BD_ADDR_T\000"
 16645      455F4741 
 16645      505F4244 
 16645      5F414444 
 16645      525F5400 
 16646              	.LASF408:
 16647 3343 4359424C 		.ascii	"CYBLE_EVT_HRSC_WRITE_CHAR_RESPONSE\000"
 16647      455F4556 
 16647      545F4852 
 16647      53435F57 
 16647      52495445 
 16648              	.LASF584:
 16649 3366 68616E64 		.ascii	"handleValueNotification\000"
 16649      6C655661 
 16649      6C75654E 
 16649      6F746966 
 16649      69636174 
 16650              	.LASF651:
 16651 337e 52585F42 		.ascii	"RX_BUFFER\000"
 16651      55464645 
 16651      5200
 16652              	.LASF677:
 16653 3388 4379426C 		.ascii	"CyBle_GapcConnectionParamUpdateRequest\000"
 16653      655F4761 
 16653      7063436F 
 16653      6E6E6563 
 16653      74696F6E 
 16654              	.LASF715:
ARM GAS  C:\Users\Helon\AppData\Local\Temp\cckZyeCc.s 			page 377


 16655 33af 6D656D73 		.ascii	"memset\000"
 16655      657400
 16656              	.LASF152:
 16657 33b6 4359424C 		.ascii	"CYBLE_GAP_ADV_MODE_TO\000"
 16657      455F4741 
 16657      505F4144 
 16657      565F4D4F 
 16657      44455F54 
 16658              	.LASF440:
 16659 33cc 4359424C 		.ascii	"CYBLE_EVT_PASSS_NOTIFICATION_ENABLED\000"
 16659      455F4556 
 16659      545F5041 
 16659      5353535F 
 16659      4E4F5449 
 16660              	.LASF242:
 16661 33f1 68616E64 		.ascii	"handleValPair\000"
 16661      6C655661 
 16661      6C506169 
 16661      7200
 16662              	.LASF274:
 16663 33ff 4359424C 		.ascii	"CYBLE_EVT_ANCSS_NOTIFICATION_DISABLED\000"
 16663      455F4556 
 16663      545F414E 
 16663      4353535F 
 16663      4E4F5449 
 16664              	.LASF582:
 16665 3425 5363616E 		.ascii	"Scan_Result\000"
 16665      5F526573 
 16665      756C7400 
 16666              	.LASF239:
 16667 3431 636F6E6E 		.ascii	"connHandle\000"
 16667      48616E64 
 16667      6C6500
 16668              	.LASF4:
 16669 343c 5F5F696E 		.ascii	"__int16_t\000"
 16669      7431365F 
 16669      7400
 16670              	.LASF548:
 16671 3446 52455345 		.ascii	"RESET\000"
 16671      5400
 16672              	.LASF291:
 16673 344c 4359424C 		.ascii	"CYBLE_EVT_BASS_NOTIFICATION_DISABLED\000"
 16673      455F4556 
 16673      545F4241 
 16673      53535F4E 
 16673      4F544946 
 16674              	.LASF203:
 16675 3471 61647644 		.ascii	"advDataLen\000"
 16675      6174614C 
 16675      656E00
 16676              	.LASF402:
 16677 347c 4359424C 		.ascii	"CYBLE_EVT_HIDSC_WRITE_DESCR_RESPONSE\000"
 16677      455F4556 
 16677      545F4849 
 16677      4453435F 
 16677      57524954 
 16678              	.LASF329:
ARM GAS  C:\Users\Helon\AppData\Local\Temp\cckZyeCc.s 			page 378


 16679 34a1 4359424C 		.ascii	"CYBLE_EVT_CPSS_NOTIFICATION_ENABLED\000"
 16679      455F4556 
 16679      545F4350 
 16679      53535F4E 
 16679      4F544946 
 16680              	.LASF179:
 16681 34c5 4359424C 		.ascii	"CYBLE_GAP_AUTH_ERROR_PAIRING_NOT_SUPPORTED\000"
 16681      455F4741 
 16681      505F4155 
 16681      54485F45 
 16681      52524F52 
 16682              	.LASF537:
 16683 34f0 656E6162 		.ascii	"enableInterrupt\000"
 16683      6C65496E 
 16683      74657272 
 16683      75707400 
 16684              	.LASF472:
 16685 3500 4359424C 		.ascii	"CYBLE_EVT_TPSC_READ_DESCR_RESPONSE\000"
 16685      455F4556 
 16685      545F5450 
 16685      53435F52 
 16685      4541445F 
 16686              	.LASF155:
 16687 3523 4359424C 		.ascii	"CYBLE_GENERIC_TO\000"
 16687      455F4745 
 16687      4E455249 
 16687      435F544F 
 16687      00
 16688              	.LASF211:
 16689 3534 4359424C 		.ascii	"CYBLE_GAPP_DISC_MODE_INFO_T\000"
 16689      455F4741 
 16689      50505F44 
 16689      4953435F 
 16689      4D4F4445 
 16690              	.LASF654:
 16691 3550 436F6E6E 		.ascii	"Conn_Or_Disconn_Info\000"
 16691      5F4F725F 
 16691      44697363 
 16691      6F6E6E5F 
 16691      496E666F 
 16692              	.LASF487:
 16693 3565 4359424C 		.ascii	"CYBLE_EVT_UDSC_ERROR_RESPONSE\000"
 16693      455F4556 
 16693      545F5544 
 16693      53435F45 
 16693      52524F52 
 16694              	.LASF57:
 16695 3583 4359424C 		.ascii	"CYBLE_EVT_GATTC_FIND_INFO_RSP\000"
 16695      455F4556 
 16695      545F4741 
 16695      5454435F 
 16695      46494E44 
 16696              	.LASF56:
 16697 35a1 4359424C 		.ascii	"CYBLE_EVT_GATTC_READ_BY_TYPE_RSP\000"
 16697      455F4556 
 16697      545F4741 
 16697      5454435F 
ARM GAS  C:\Users\Helon\AppData\Local\Temp\cckZyeCc.s 			page 379


 16697      52454144 
 16698              	.LASF441:
 16699 35c2 4359424C 		.ascii	"CYBLE_EVT_PASSS_NOTIFICATION_DISABLED\000"
 16699      455F4556 
 16699      545F5041 
 16699      5353535F 
 16699      4E4F5449 
 16700              	.LASF327:
 16701 35e8 4359424C 		.ascii	"CYBLE_EVT_CGMSC_READ_DESCR_RESPONSE\000"
 16701      455F4556 
 16701      545F4347 
 16701      4D53435F 
 16701      52454144 
 16702              	.LASF707:
 16703 360c 6D616C6C 		.ascii	"malloc\000"
 16703      6F6300
 16704              	.LASF399:
 16705 3613 4359424C 		.ascii	"CYBLE_EVT_HIDSC_READ_CHAR_RESPONSE\000"
 16705      455F4556 
 16705      545F4849 
 16705      4453435F 
 16705      52454144 
 16706              	.LASF521:
 16707 3636 6F766572 		.ascii	"oversample\000"
 16707      73616D70 
 16707      6C6500
 16708              	.LASF520:
 16709 3641 73746F70 		.ascii	"stopBits\000"
 16709      42697473 
 16709      00
 16710              	.LASF732:
 16711 364a 4379426C 		.ascii	"CyBle_ProcessEvents\000"
 16711      655F5072 
 16711      6F636573 
 16711      73457665 
 16711      6E747300 
 16712              	.LASF622:
 16713 365e 41647644 		.ascii	"AdvData\000"
 16713      61746100 
 16714              	.LASF469:
 16715 3666 4359424C 		.ascii	"CYBLE_EVT_TPSS_NOTIFICATION_DISABLED\000"
 16715      455F4556 
 16715      545F5450 
 16715      53535F4E 
 16715      4F544946 
 16716              	.LASF466:
 16717 368b 4359424C 		.ascii	"CYBLE_EVT_SCPSC_READ_DESCR_RESPONSE\000"
 16717      455F4556 
 16717      545F5343 
 16717      5053435F 
 16717      52454144 
 16718              	.LASF410:
 16719 36af 4359424C 		.ascii	"CYBLE_EVT_HRSC_WRITE_DESCR_RESPONSE\000"
 16719      455F4556 
 16719      545F4852 
 16719      53435F57 
 16719      52495445 
ARM GAS  C:\Users\Helon\AppData\Local\Temp\cckZyeCc.s 			page 380


 16720              	.LASF432:
 16721 36d3 4359424C 		.ascii	"CYBLE_EVT_LNSS_WRITE_CHAR\000"
 16721      455F4556 
 16721      545F4C4E 
 16721      53535F57 
 16721      52495445 
 16722              	.LASF370:
 16723 36ed 4359424C 		.ascii	"CYBLE_EVT_ESSS_CHAR_WRITE\000"
 16723      455F4556 
 16723      545F4553 
 16723      53535F43 
 16723      4841525F 
 16724              	.LASF63:
 16725 3707 4359424C 		.ascii	"CYBLE_EVT_GATTC_WRITE_RSP\000"
 16725      455F4556 
 16725      545F4741 
 16725      5454435F 
 16725      57524954 
 16726              	.LASF365:
 16727 3721 4359424C 		.ascii	"CYBLE_EVT_ESSS_NOTIFICATION_ENABLED\000"
 16727      455F4556 
 16727      545F4553 
 16727      53535F4E 
 16727      4F544946 
 16728              	.LASF706:
 16729 3745 73747263 		.ascii	"strchr\000"
 16729      687200
 16730              	.LASF514:
 16731 374c 4359424C 		.ascii	"CYBLE_STATE_DISCONNECTED\000"
 16731      455F5354 
 16731      4154455F 
 16731      44495343 
 16731      4F4E4E45 
 16732              	.LASF387:
 16733 3765 4359424C 		.ascii	"CYBLE_EVT_GLSC_READ_CHAR_RESPONSE\000"
 16733      455F4556 
 16733      545F474C 
 16733      53435F52 
 16733      4541445F 
 16734              	.LASF564:
 16735 3787 44495341 		.ascii	"DISALLCHAR\000"
 16735      4C4C4348 
 16735      415200
 16736              	.LASF642:
 16737 3792 5F5F6374 		.ascii	"__ctype_ptr__\000"
 16737      7970655F 
 16737      7074725F 
 16737      5F00
 16738              	.LASF603:
 16739 37a0 53656E64 		.ascii	"SendNotification\000"
 16739      4E6F7469 
 16739      66696361 
 16739      74696F6E 
 16739      00
 16740              	.LASF454:
 16741 37b1 4359424C 		.ascii	"CYBLE_EVT_RSCSC_NOTIFICATION\000"
 16741      455F4556 
ARM GAS  C:\Users\Helon\AppData\Local\Temp\cckZyeCc.s 			page 381


 16741      545F5253 
 16741      4353435F 
 16741      4E4F5449 
 16742              	.LASF649:
 16743 37ce 636F6E66 		.ascii	"configUart\000"
 16743      69675561 
 16743      727400
 16744              	.LASF693:
 16745 37d9 43795379 		.ascii	"CySysPmDeepSleep\000"
 16745      73506D44 
 16745      65657053 
 16745      6C656570 
 16745      00
 16746              	.LASF43:
 16747 37ea 4359424C 		.ascii	"CYBLE_EVT_GAPP_ADVERTISEMENT_START_STOP\000"
 16747      455F4556 
 16747      545F4741 
 16747      50505F41 
 16747      44564552 
 16748              	.LASF207:
 16749 3812 4359424C 		.ascii	"CYBLE_GAPP_SCAN_RSP_DATA_T\000"
 16749      455F4741 
 16749      50505F53 
 16749      43414E5F 
 16749      5253505F 
 16750              	.LASF498:
 16751 382d 4359424C 		.ascii	"CYBLE_EVT_WPTSC_READ_DESCR_RESPONSE\000"
 16751      455F4556 
 16751      545F5750 
 16751      5453435F 
 16751      52454144 
 16752              	.LASF276:
 16753 3851 4359424C 		.ascii	"CYBLE_EVT_ANCSC_NOTIFICATION\000"
 16753      455F4556 
 16753      545F414E 
 16753      4353435F 
 16753      4E4F5449 
 16754              	.LASF326:
 16755 386e 4359424C 		.ascii	"CYBLE_EVT_CGMSC_WRITE_CHAR_RESPONSE\000"
 16755      455F4556 
 16755      545F4347 
 16755      4D53435F 
 16755      57524954 
 16756              	.LASF381:
 16757 3892 4359424C 		.ascii	"CYBLE_EVT_GLSS_INDICATION_CONFIRMED\000"
 16757      455F4556 
 16757      545F474C 
 16757      53535F49 
 16757      4E444943 
 16758              	.LASF19:
 16759 38b6 75696E74 		.ascii	"uint8\000"
 16759      3800
 16760              	.LASF419:
 16761 38bc 4359424C 		.ascii	"CYBLE_EVT_HTSC_READ_CHAR_RESPONSE\000"
 16761      455F4556 
 16761      545F4854 
 16761      53435F52 
ARM GAS  C:\Users\Helon\AppData\Local\Temp\cckZyeCc.s 			page 382


 16761      4541445F 
 16762              	.LASF607:
 16763 38de 53656E64 		.ascii	"SendDataStruct\000"
 16763      44617461 
 16763      53747275 
 16763      637400
 16764              	.LASF664:
 16765 38ed 696F6361 		.ascii	"iocapability\000"
 16765      70616269 
 16765      6C697479 
 16765      00
 16766              	.LASF595:
 16767 38fa 53657455 		.ascii	"SetUartConfiguration\000"
 16767      61727443 
 16767      6F6E6669 
 16767      67757261 
 16767      74696F6E 
 16768              	.LASF188:
 16769 390f 73656375 		.ascii	"security\000"
 16769      72697479 
 16769      00
 16770              	.LASF447:
 16771 3918 4359424C 		.ascii	"CYBLE_EVT_PASSC_WRITE_DESCR_RESPONSE\000"
 16771      455F4556 
 16771      545F5041 
 16771      5353435F 
 16771      57524954 
 16772              	.LASF646:
 16773 393d 6379426C 		.ascii	"cyBle_connHandle\000"
 16773      655F636F 
 16773      6E6E4861 
 16773      6E646C65 
 16773      00
 16774              	.LASF569:
 16775 394e 41555448 		.ascii	"AUTH\000"
 16775      00
 16776              	.LASF5:
 16777 3953 73686F72 		.ascii	"short int\000"
 16777      7420696E 
 16777      7400
 16778              	.LASF191:
 16779 395d 61757468 		.ascii	"authErr\000"
 16779      45727200 
 16780              	.LASF720:
 16781 3965 4379426C 		.ascii	"CyBle_GapSetLocalName\000"
 16781      655F4761 
 16781      70536574 
 16781      4C6F6361 
 16781      6C4E616D 
 16782              	.LASF313:
 16783 397b 4359424C 		.ascii	"CYBLE_EVT_BMSS_WRITE_CHAR\000"
 16783      455F4556 
 16783      545F424D 
 16783      53535F57 
 16783      52495445 
 16784              	.LASF516:
 16785 3995 6D6F6465 		.ascii	"mode\000"
ARM GAS  C:\Users\Helon\AppData\Local\Temp\cckZyeCc.s 			page 383


 16785      00
 16786              	.LASF260:
 16787 399a 4359424C 		.ascii	"CYBLE_EVT_GATTS_INDICATION_DISABLED\000"
 16787      455F4556 
 16787      545F4741 
 16787      5454535F 
 16787      494E4449 
 16788              	.LASF164:
 16789 39be 4359424C 		.ascii	"CYBLE_GAPC_SCAN_UNDIRECTED_ADV\000"
 16789      455F4741 
 16789      50435F53 
 16789      43414E5F 
 16789      554E4449 
 16790              	.LASF604:
 16791 39dd 4150495F 		.ascii	"API_RESULT\000"
 16791      52455355 
 16791      4C5400
 16792              	.LASF206:
 16793 39e8 7363616E 		.ascii	"scanRspDataLen\000"
 16793      52737044 
 16793      6174614C 
 16793      656E00
 16794              	.LASF729:
 16795 39f7 55415254 		.ascii	"UART_SpiUartGetRxBufferSize\000"
 16795      5F537069 
 16795      55617274 
 16795      47657452 
 16795      78427566 
 16796              	.LASF593:
 16797 3a13 4D795F49 		.ascii	"My_ISR_UART\000"
 16797      53525F55 
 16797      41525400 
 16798              	.LASF560:
 16799 3a1f 434F4E4E 		.ascii	"CONNT\000"
 16799      5400
 16800              	.LASF297:
 16801 3a25 4359424C 		.ascii	"CYBLE_EVT_BCSS_INDICATION_DISABLED\000"
 16801      455F4556 
 16801      545F4243 
 16801      53535F49 
 16801      4E444943 
 16802              	.LASF324:
 16803 3a48 4359424C 		.ascii	"CYBLE_EVT_CGMSC_NOTIFICATION\000"
 16803      455F4556 
 16803      545F4347 
 16803      4D53435F 
 16803      4E4F5449 
 16804              	.LASF16:
 16805 3a65 696E7431 		.ascii	"int16_t\000"
 16805      365F7400 
 16806              	.LASF50:
 16807 3a6d 4359424C 		.ascii	"CYBLE_EVT_GATTC_ERROR_RSP\000"
 16807      455F4556 
 16807      545F4741 
 16807      5454435F 
 16807      4552524F 
 16808              	.LASF172:
ARM GAS  C:\Users\Helon\AppData\Local\Temp\cckZyeCc.s 			page 384


 16809 3a87 4359424C 		.ascii	"CYBLE_GAP_IOCAP_KEYBOARD_DISPLAY\000"
 16809      455F4741 
 16809      505F494F 
 16809      4341505F 
 16809      4B455942 
 16810              	.LASF238:
 16811 3aa8 4359424C 		.ascii	"CYBLE_GATT_ATTR_HANDLE_RANGE_T\000"
 16811      455F4741 
 16811      54545F41 
 16811      5454525F 
 16811      48414E44 
 16812              	.LASF376:
 16813 3ac7 4359424C 		.ascii	"CYBLE_EVT_ESSC_WRITE_CHAR_RESPONSE\000"
 16813      455F4556 
 16813      545F4553 
 16813      53435F57 
 16813      52495445 
 16814              	.LASF550:
 16815 3aea 56455253 		.ascii	"VERSION\000"
 16815      494F4E00 
 16816              	.LASF281:
 16817 3af2 4359424C 		.ascii	"CYBLE_EVT_ANCSC_ERROR_RESPONSE\000"
 16817      455F4556 
 16817      545F414E 
 16817      4353435F 
 16817      4552524F 
 16818              	.LASF252:
 16819 3b11 75756964 		.ascii	"uuidFormat\000"
 16819      466F726D 
 16819      617400
 16820              	.LASF379:
 16821 3b1c 4359424C 		.ascii	"CYBLE_EVT_GLSS_INDICATION_ENABLED\000"
 16821      455F4556 
 16821      545F474C 
 16821      53535F49 
 16821      4E444943 
 16822              	.LASF284:
 16823 3b3e 4359424C 		.ascii	"CYBLE_EVT_ANSS_CHAR_WRITE\000"
 16823      455F4556 
 16823      545F414E 
 16823      53535F43 
 16823      4841525F 
 16824              	.LASF708:
 16825 3b58 7374726E 		.ascii	"strncpy\000"
 16825      63707900 
 16826              	.LASF158:
 16827 3b60 4359424C 		.ascii	"CYBLE_GAPP_SCANNABLE_UNDIRECTED_ADV\000"
 16827      455F4741 
 16827      50505F53 
 16827      43414E4E 
 16827      41424C45 
 16828              	.LASF77:
 16829 3b84 4359424C 		.ascii	"CYBLE_EVT_L2CAP_CBFC_CONN_IND\000"
 16829      455F4556 
 16829      545F4C32 
 16829      4341505F 
 16829      43424643 
ARM GAS  C:\Users\Helon\AppData\Local\Temp\cckZyeCc.s 			page 385


 16830              	.LASF66:
 16831 3ba2 4359424C 		.ascii	"CYBLE_EVT_GATTS_EXEC_WRITE_REQ\000"
 16831      455F4556 
 16831      545F4741 
 16831      5454535F 
 16831      45584543 
 16832              	.LASF37:
 16833 3bc1 4359424C 		.ascii	"CYBLE_EVT_GAPC_SCAN_PROGRESS_RESULT\000"
 16833      455F4556 
 16833      545F4741 
 16833      50435F53 
 16833      43414E5F 
 16834              	.LASF358:
 16835 3be5 4359424C 		.ascii	"CYBLE_EVT_CTSS_CHAR_WRITE\000"
 16835      455F4556 
 16835      545F4354 
 16835      53535F43 
 16835      4841525F 
 16836              	.LASF474:
 16837 3bff 4359424C 		.ascii	"CYBLE_EVT_UDSS_INDICATION_ENABLED\000"
 16837      455F4556 
 16837      545F5544 
 16837      53535F49 
 16837      4E444943 
 16838              	.LASF644:
 16839 3c21 6379426C 		.ascii	"cyBle_discoveryModeInfo\000"
 16839      655F6469 
 16839      73636F76 
 16839      6572794D 
 16839      6F646549 
 16840              	.LASF213:
 16841 3c39 70656572 		.ascii	"peerAddrType\000"
 16841      41646472 
 16841      54797065 
 16841      00
 16842              	.LASF696:
 16843 3c46 436F6E6E 		.ascii	"Connected_LED_SetDriveMode\000"
 16843      65637465 
 16843      645F4C45 
 16843      445F5365 
 16843      74447269 
 16844              	.LASF97:
 16845 3c61 4359424C 		.ascii	"CYBLE_ERROR_GAP_ROLE\000"
 16845      455F4552 
 16845      524F525F 
 16845      4741505F 
 16845      524F4C45 
 16846              	.LASF413:
 16847 3c76 4359424C 		.ascii	"CYBLE_EVT_HTSS_INDICATION_ENABLED\000"
 16847      455F4556 
 16847      545F4854 
 16847      53535F49 
 16847      4E444943 
 16848              	.LASF670:
 16849 3c98 72656164 		.ascii	"readRequestData\000"
 16849      52657175 
 16849      65737444 
ARM GAS  C:\Users\Helon\AppData\Local\Temp\cckZyeCc.s 			page 386


 16849      61746100 
 16850              	.LASF485:
 16851 3ca8 4359424C 		.ascii	"CYBLE_EVT_UDSC_READ_DESCR_RESPONSE\000"
 16851      455F4556 
 16851      545F5544 
 16851      53435F52 
 16851      4541445F 
 16852              	.LASF237:
 16853 3ccb 656E6448 		.ascii	"endHandle\000"
 16853      616E646C 
 16853      6500
 16854              	.LASF293:
 16855 3cd5 4359424C 		.ascii	"CYBLE_EVT_BASC_READ_CHAR_RESPONSE\000"
 16855      455F4556 
 16855      545F4241 
 16855      53435F52 
 16855      4541445F 
 16856              	.LASF386:
 16857 3cf7 4359424C 		.ascii	"CYBLE_EVT_GLSC_NOTIFICATION\000"
 16857      455F4556 
 16857      545F474C 
 16857      53435F4E 
 16857      4F544946 
 16858              	.LASF149:
 16859 3d13 62644164 		.ascii	"bdAddr\000"
 16859      647200
 16860              	.LASF464:
 16861 3d1a 4359424C 		.ascii	"CYBLE_EVT_SCPSS_SCAN_INT_WIN_CHAR_WRITE\000"
 16861      455F4556 
 16861      545F5343 
 16861      5053535F 
 16861      5343414E 
 16862              	.LASF695:
 16863 3d42 53746174 		.ascii	"Status_LED_SetDriveMode\000"
 16863      75735F4C 
 16863      45445F53 
 16863      65744472 
 16863      6976654D 
 16864              	.LASF426:
 16865 3d5a 4359424C 		.ascii	"CYBLE_EVT_LLSC_WRITE_CHAR_RESPONSE\000"
 16865      455F4556 
 16865      545F4C4C 
 16865      53435F57 
 16865      52495445 
 16866              	.LASF127:
 16867 3d7d 4359424C 		.ascii	"CYBLE_BLESS_STATE_ECO_STABLE\000"
 16867      455F424C 
 16867      4553535F 
 16867      53544154 
 16867      455F4543 
 16868              	.LASF167:
 16869 3d9a 4359424C 		.ascii	"CYBLE_GAPC_ADV_EVENT_T\000"
 16869      455F4741 
 16869      50435F41 
 16869      44565F45 
 16869      56454E54 
 16870              	.LASF94:
ARM GAS  C:\Users\Helon\AppData\Local\Temp\cckZyeCc.s 			page 387


 16871 3db1 4359424C 		.ascii	"CYBLE_ERROR_NO_CONNECTION\000"
 16871      455F4552 
 16871      524F525F 
 16871      4E4F5F43 
 16871      4F4E4E45 
 16872              	.LASF138:
 16873 3dcb 4359424C 		.ascii	"CYBLE_LL_PWR_LVL_0_DBM\000"
 16873      455F4C4C 
 16873      5F505752 
 16873      5F4C564C 
 16873      5F305F44 
 16874              	.LASF347:
 16875 3de2 4359424C 		.ascii	"CYBLE_EVT_CSCSS_INDICATION_DISABLED\000"
 16875      455F4556 
 16875      545F4353 
 16875      4353535F 
 16875      494E4449 
 16876              	.LASF675:
 16877 3e06 6D656D63 		.ascii	"memcpy\000"
 16877      707900
 16878              	.LASF120:
 16879 3e0d 4359424C 		.ascii	"CYBLE_BLESS_HIBERNATE\000"
 16879      455F424C 
 16879      4553535F 
 16879      48494245 
 16879      524E4154 
 16880              	.LASF142:
 16881 3e23 4359424C 		.ascii	"CYBLE_LL_ADV_CH_TYPE\000"
 16881      455F4C4C 
 16881      5F414456 
 16881      5F43485F 
 16881      54595045 
 16882              	.LASF316:
 16883 3e38 4359424C 		.ascii	"CYBLE_EVT_BMSC_READ_DESCR_RESPONSE\000"
 16883      455F4556 
 16883      545F424D 
 16883      53435F52 
 16883      4541445F 
 16884              	.LASF86:
 16885 3e5b 4359424C 		.ascii	"CYBLE_EVT_LE_PING_AUTH_TIMEOUT\000"
 16885      455F4556 
 16885      545F4C45 
 16885      5F50494E 
 16885      475F4155 
 16886              	.LASF116:
 16887 3e7a 4359424C 		.ascii	"CYBLE_API_RESULT_T\000"
 16887      455F4150 
 16887      495F5245 
 16887      53554C54 
 16887      5F5400
 16888              	.LASF318:
 16889 3e8d 4359424C 		.ascii	"CYBLE_EVT_CGMSS_INDICATION_DISABLED\000"
 16889      455F4556 
 16889      545F4347 
 16889      4D53535F 
 16889      494E4449 
 16890              	.LASF130:
ARM GAS  C:\Users\Helon\AppData\Local\Temp\cckZyeCc.s 			page 388


 16891 3eb1 4359424C 		.ascii	"CYBLE_BLESS_STATE_INVALID\000"
 16891      455F424C 
 16891      4553535F 
 16891      53544154 
 16891      455F494E 
 16892              	.LASF283:
 16893 3ecb 4359424C 		.ascii	"CYBLE_EVT_ANSS_NOTIFICATION_DISABLED\000"
 16893      455F4556 
 16893      545F414E 
 16893      53535F4E 
 16893      4F544946 
 16894              	.LASF734:
 16895 3ef0 2E5C424C 		.ascii	".\\BLEApplication.c\000"
 16895      45417070 
 16895      6C696361 
 16895      74696F6E 
 16895      2E6300
 16896              	.LASF272:
 16897 3f03 4359424C 		.ascii	"CYBLE_EVT_GATTC_DISCOVERY_COMPLETE\000"
 16897      455F4556 
 16897      545F4741 
 16897      5454435F 
 16897      44495343 
 16898              	.LASF244:
 16899 3f26 4359424C 		.ascii	"CYBLE_GATTC_FIND_INFO_REQ_T\000"
 16899      455F4741 
 16899      5454435F 
 16899      46494E44 
 16899      5F494E46 
 16900              	.LASF322:
 16901 3f42 4359424C 		.ascii	"CYBLE_EVT_CGMSS_WRITE_CHAR\000"
 16901      455F4556 
 16901      545F4347 
 16901      4D53535F 
 16901      57524954 
 16902              	.LASF390:
 16903 3f5d 4359424C 		.ascii	"CYBLE_EVT_GLSC_WRITE_DESCR_RESPONSE\000"
 16903      455F4556 
 16903      545F474C 
 16903      53435F57 
 16903      52495445 
 16904              	.LASF212:
 16905 3f81 6576656E 		.ascii	"eventType\000"
 16905      74547970 
 16905      6500
 16906              	.LASF69:
 16907 3f8b 4359424C 		.ascii	"CYBLE_EVT_GATTC_HANDLE_VALUE_IND\000"
 16907      455F4556 
 16907      545F4741 
 16907      5454435F 
 16907      48414E44 
 16908              	.LASF343:
 16909 3fac 4359424C 		.ascii	"CYBLE_EVT_CPSC_SCAN_PROGRESS_RESULT\000"
 16909      455F4556 
 16909      545F4350 
 16909      53435F53 
 16909      43414E5F 
ARM GAS  C:\Users\Helon\AppData\Local\Temp\cckZyeCc.s 			page 389


 16910              	.LASF458:
 16911 3fd0 4359424C 		.ascii	"CYBLE_EVT_RSCSC_READ_DESCR_RESPONSE\000"
 16911      455F4556 
 16911      545F5253 
 16911      4353435F 
 16911      52454144 
 16912              	.LASF697:
 16913 3ff4 436F6E6E 		.ascii	"Connected_LED_Write\000"
 16913      65637465 
 16913      645F4C45 
 16913      445F5772 
 16913      69746500 
 16914              	.LASF580:
 16915 4008 6576656E 		.ascii	"eventCode\000"
 16915      74436F64 
 16915      6500
 16916              	.LASF100:
 16917 4012 4359424C 		.ascii	"CYBLE_ERROR_SEC_FAILED\000"
 16917      455F4552 
 16917      524F525F 
 16917      5345435F 
 16917      4641494C 
 16918              	.LASF703:
 16919 4029 6973725F 		.ascii	"isr_UserButton_StartEx\000"
 16919      55736572 
 16919      42757474 
 16919      6F6E5F53 
 16919      74617274 
 16920              	.LASF18:
 16921 4040 75696E74 		.ascii	"uint32_t\000"
 16921      33325F74 
 16921      00
 16922              	.LASF221:
 16923 4049 636F6E6E 		.ascii	"connLatency\000"
 16923      4C617465 
 16923      6E637900 
 16924              	.LASF684:
 16925 4055 6973725F 		.ascii	"isr_UserButton_ClearPending\000"
 16925      55736572 
 16925      42757474 
 16925      6F6E5F43 
 16925      6C656172 
 16926              	.LASF169:
 16927 4071 4359424C 		.ascii	"CYBLE_GAP_IOCAP_DISPLAY_YESNO\000"
 16927      455F4741 
 16927      505F494F 
 16927      4341505F 
 16927      44495350 
 16928              	.LASF624:
 16929 408f 53747241 		.ascii	"StrAdvDataLength\000"
 16929      64764461 
 16929      74614C65 
 16929      6E677468 
 16929      00
 16930              	.LASF422:
 16931 40a0 4359424C 		.ascii	"CYBLE_EVT_HTSC_WRITE_DESCR_RESPONSE\000"
 16931      455F4556 
ARM GAS  C:\Users\Helon\AppData\Local\Temp\cckZyeCc.s 			page 390


 16931      545F4854 
 16931      53435F57 
 16931      52495445 
 16932              	.LASF49:
 16933 40c4 4359424C 		.ascii	"CYBLE_EVT_GAP_KEYINFO_EXCHNGE_CMPLT\000"
 16933      455F4556 
 16933      545F4741 
 16933      505F4B45 
 16933      59494E46 
 16934              	.LASF499:
 16935 40e8 4359424C 		.ascii	"CYBLE_EVT_WPTSC_WRITE_DESCR_RESPONSE\000"
 16935      455F4556 
 16935      545F5750 
 16935      5453435F 
 16935      57524954 
 16936              	.LASF148:
 16937 410d 4359424C 		.ascii	"CYBLE_BLESS_PWR_IN_DB_T\000"
 16937      455F424C 
 16937      4553535F 
 16937      5057525F 
 16937      494E5F44 
 16938              	.LASF144:
 16939 4125 4359424C 		.ascii	"CYBLE_LL_MAX_CH_TYPE\000"
 16939      455F4C4C 
 16939      5F4D4158 
 16939      5F43485F 
 16939      54595045 
 16940              	.LASF699:
 16941 413a 4354535F 		.ascii	"CTS_Write\000"
 16941      57726974 
 16941      6500
 16942              	.LASF74:
 16943 4144 4359424C 		.ascii	"CYBLE_EVT_L2CAP_CONN_PARAM_UPDATE_REQ\000"
 16943      455F4556 
 16943      545F4C32 
 16943      4341505F 
 16943      434F4E4E 
 16944              	.LASF321:
 16945 416a 4359424C 		.ascii	"CYBLE_EVT_CGMSS_NOTIFICATION_DISABLED\000"
 16945      455F4556 
 16945      545F4347 
 16945      4D53535F 
 16945      4E4F5449 
 16946              	.LASF576:
 16947 4190 44657669 		.ascii	"DeviceList\000"
 16947      63654C69 
 16947      737400
 16948              	.LASF710:
 16949 419b 66726565 		.ascii	"free\000"
 16949      00
 16950              	.LASF220:
 16951 41a0 636F6E6E 		.ascii	"connIntvMax\000"
 16951      496E7476 
 16951      4D617800 
 16952              	.LASF594:
 16953 41ac 436F6E66 		.ascii	"ConfigUartInit\000"
 16953      69675561 
ARM GAS  C:\Users\Helon\AppData\Local\Temp\cckZyeCc.s 			page 391


 16953      7274496E 
 16953      697400
 16954              	.LASF544:
 16955 41bb 63747350 		.ascii	"ctsPolarity\000"
 16955      6F6C6172 
 16955      69747900 
 16956              	.LASF263:
 16957 41c7 4359424C 		.ascii	"CYBLE_EVT_GATTC_INCL_DISCOVERY_FAILED\000"
 16957      455F4556 
 16957      545F4741 
 16957      5454435F 
 16957      494E434C 
 16958              	.LASF558:
 16959 41ed 524F4C45 		.ascii	"ROLE\000"
 16959      00
 16960              	.LASF225:
 16961 41f2 636F6E6E 		.ascii	"connIntv\000"
 16961      496E7476 
 16961      00
 16962              	.LASF7:
 16963 41fb 73686F72 		.ascii	"short unsigned int\000"
 16963      7420756E 
 16963      7369676E 
 16963      65642069 
 16963      6E7400
 16964              	.LASF658:
 16965 420e 63686172 		.ascii	"charNotificationEnabled\000"
 16965      4E6F7469 
 16965      66696361 
 16965      74696F6E 
 16965      456E6162 
 16966              	.LASF600:
 16967 4226 53657269 		.ascii	"SerialArryLength\000"
 16967      616C4172 
 16967      72794C65 
 16967      6E677468 
 16967      00
 16968              	.LASF617:
 16969 4237 50617273 		.ascii	"Parser_UartData\000"
 16969      65725F55 
 16969      61727444 
 16969      61746100 
 16970              	.LASF198:
 16971 4247 64697265 		.ascii	"directAddr\000"
 16971      63744164 
 16971      647200
 16972              	.LASF510:
 16973 4252 4359424C 		.ascii	"CYBLE_STATE_CONNECTED\000"
 16973      455F5354 
 16973      4154455F 
 16973      434F4E4E 
 16973      45435445 
 16974              	.LASF231:
 16975 4268 61637475 		.ascii	"actualLen\000"
 16975      616C4C65 
 16975      6E00
 16976              	.LASF199:
ARM GAS  C:\Users\Helon\AppData\Local\Temp\cckZyeCc.s 			page 392


 16977 4272 61647643 		.ascii	"advChannelMap\000"
 16977      68616E6E 
 16977      656C4D61 
 16977      7000
 16978              	.LASF275:
 16979 4280 4359424C 		.ascii	"CYBLE_EVT_ANCSS_WRITE_CHAR\000"
 16979      455F4556 
 16979      545F414E 
 16979      4353535F 
 16979      57524954 
 16980              	.LASF385:
 16981 429b 4359424C 		.ascii	"CYBLE_EVT_GLSC_INDICATION\000"
 16981      455F4556 
 16981      545F474C 
 16981      53435F49 
 16981      4E444943 
 16982              	.LASF156:
 16983 42b5 4359424C 		.ascii	"CYBLE_GAPP_CONNECTABLE_UNDIRECTED_ADV\000"
 16983      455F4741 
 16983      50505F43 
 16983      4F4E4E45 
 16983      43544142 
 16984              	.LASF335:
 16985 42db 4359424C 		.ascii	"CYBLE_EVT_CPSS_BROADCAST_DISABLED\000"
 16985      455F4556 
 16985      545F4350 
 16985      53535F42 
 16985      524F4144 
 16986              	.LASF618:
 16987 42fd 41745F43 		.ascii	"At_Command_Idex\000"
 16987      6F6D6D61 
 16987      6E645F49 
 16987      64657800 
 16988              	.LASF545:
 16989 430d 72747352 		.ascii	"rtsRxFifoLevel\000"
 16989      78466966 
 16989      6F4C6576 
 16989      656C00
 16990              	.LASF229:
 16991 431c 61747449 		.ascii	"attId\000"
 16991      6400
 16992              	.LASF90:
 16993 4322 4359424C 		.ascii	"CYBLE_ERROR_INVALID_OPERATION\000"
 16993      455F4552 
 16993      524F525F 
 16993      494E5641 
 16993      4C49445F 
 16994              	.LASF35:
 16995 4340 4359424C 		.ascii	"CYBLE_EVT_HCI_STATUS\000"
 16995      455F4556 
 16995      545F4843 
 16995      495F5354 
 16995      41545553 
 16996              	.LASF711:
 16997 4355 4379426C 		.ascii	"CyBle_GattsNotification\000"
 16997      655F4761 
 16997      7474734E 
ARM GAS  C:\Users\Helon\AppData\Local\Temp\cckZyeCc.s 			page 393


 16997      6F746966 
 16997      69636174 
 16998              	.LASF52:
 16999 436d 4359424C 		.ascii	"CYBLE_EVT_GATT_DISCONNECT_IND\000"
 16999      455F4556 
 16999      545F4741 
 16999      54545F44 
 16999      4953434F 
 17000              	.LASF222:
 17001 438b 73757065 		.ascii	"supervisionTO\000"
 17001      72766973 
 17001      696F6E54 
 17001      4F00
 17002              	.LASF154:
 17003 4399 4359424C 		.ascii	"CYBLE_GATT_RSP_TO\000"
 17003      455F4741 
 17003      54545F52 
 17003      53505F54 
 17003      4F00
 17004              	.LASF258:
 17005 43ab 4359424C 		.ascii	"CYBLE_KEY_EXCHANGE_INFO_REQUEST_REPLY\000"
 17005      455F4B45 
 17005      595F4558 
 17005      4348414E 
 17005      47455F49 
 17006              	.LASF84:
 17007 43d1 4359424C 		.ascii	"CYBLE_EVT_L2CAP_CBFC_DATA_WRITE_IND\000"
 17007      455F4556 
 17007      545F4C32 
 17007      4341505F 
 17007      43424643 
 17008              	.LASF527:
 17009 43f5 64726F70 		.ascii	"dropOnFrameErr\000"
 17009      4F6E4672 
 17009      616D6545 
 17009      727200
 17010              	.LASF256:
 17011 4404 4359424C 		.ascii	"CYBLE_PASSKEY_ENTRY_REQUEST_REPLY\000"
 17011      455F5041 
 17011      53534B45 
 17011      595F454E 
 17011      5452595F 
 17012              	.LASF533:
 17013 4426 656E6162 		.ascii	"enableMultiproc\000"
 17013      6C654D75 
 17013      6C746970 
 17013      726F6300 
 17014              	.LASF217:
 17015 4436 72737369 		.ascii	"rssi\000"
 17015      00
 17016              	.LASF302:
 17017 443b 4359424C 		.ascii	"CYBLE_EVT_BCSC_WRITE_DESCR_RESPONSE\000"
 17017      455F4556 
 17017      545F4243 
 17017      53435F57 
 17017      52495445 
 17018              	.LASF525:
ARM GAS  C:\Users\Helon\AppData\Local\Temp\cckZyeCc.s 			page 394


 17019 445f 656E6162 		.ascii	"enableInvertedRx\000"
 17019      6C65496E 
 17019      76657274 
 17019      65645278 
 17019      00
 17020              	.LASF480:
 17021 4470 4359424C 		.ascii	"CYBLE_EVT_UDSS_WRITE_CHAR\000"
 17021      455F4556 
 17021      545F5544 
 17021      53535F57 
 17021      52495445 
 17022              	.LASF216:
 17023 448a 64617461 		.ascii	"data\000"
 17023      00
 17024              	.LASF285:
 17025 448f 4359424C 		.ascii	"CYBLE_EVT_ANSC_NOTIFICATION\000"
 17025      455F4556 
 17025      545F414E 
 17025      53435F4E 
 17025      4F544946 
 17026              	.LASF45:
 17027 44ab 4359424C 		.ascii	"CYBLE_EVT_GAP_DEVICE_DISCONNECTED\000"
 17027      455F4556 
 17027      545F4741 
 17027      505F4445 
 17027      56494345 
 17028              	.LASF393:
 17029 44cd 4359424C 		.ascii	"CYBLE_EVT_HIDSS_BOOT_MODE_ENTER\000"
 17029      455F4556 
 17029      545F4849 
 17029      4453535F 
 17029      424F4F54 
 17030              	.LASF70:
 17031 44ed 4359424C 		.ascii	"CYBLE_EVT_GATTS_HANDLE_VALUE_CNF\000"
 17031      455F4556 
 17031      545F4741 
 17031      5454535F 
 17031      48414E44 
 17032              	.LASF354:
 17033 450e 4359424C 		.ascii	"CYBLE_EVT_CSCSC_READ_DESCR_RESPONSE\000"
 17033      455F4556 
 17033      545F4353 
 17033      4353435F 
 17033      52454144 
 17034              	.LASF218:
 17035 4532 4359424C 		.ascii	"CYBLE_GAPC_ADV_REPORT_T\000"
 17035      455F4741 
 17035      50435F41 
 17035      44565F52 
 17035      45504F52 
 17036              	.LASF20:
 17037 454a 75696E74 		.ascii	"uint16\000"
 17037      313600
 17038              	.LASF648:
 17039 4551 44657669 		.ascii	"DeviceInfo\000"
 17039      6365496E 
 17039      666F00
ARM GAS  C:\Users\Helon\AppData\Local\Temp\cckZyeCc.s 			page 395


 17040              	.LASF278:
 17041 455c 4359424C 		.ascii	"CYBLE_EVT_ANCSC_WRITE_CHAR_RESPONSE\000"
 17041      455F4556 
 17041      545F414E 
 17041      4353435F 
 17041      57524954 
 17042              	.LASF196:
 17043 4580 6F776E41 		.ascii	"ownAddrType\000"
 17043      64647254 
 17043      79706500 
 17044              	.LASF98:
 17045 458c 4359424C 		.ascii	"CYBLE_ERROR_TX_POWER_READ\000"
 17045      455F4552 
 17045      524F525F 
 17045      54585F50 
 17045      4F574552 
 17046              	.LASF448:
 17047 45a6 4359424C 		.ascii	"CYBLE_EVT_RSCSS_NOTIFICATION_ENABLED\000"
 17047      455F4556 
 17047      545F5253 
 17047      4353535F 
 17047      4E4F5449 
 17048              	.LASF504:
 17049 45cb 4359424C 		.ascii	"CYBLE_EVT_WSSC_READ_CHAR_RESPONSE\000"
 17049      455F4556 
 17049      545F5753 
 17049      53435F52 
 17049      4541445F 
 17050              	.LASF549:
 17051 45ed 52454641 		.ascii	"REFAC\000"
 17051      4300
 17052              	.LASF571:
 17053 45f3 436F6E6E 		.ascii	"Connect_Idx\000"
 17053      6563745F 
 17053      49647800 
 17054              	.LASF128:
 17055 45ff 4359424C 		.ascii	"CYBLE_BLESS_STATE_DEEPSLEEP\000"
 17055      455F424C 
 17055      4553535F 
 17055      53544154 
 17055      455F4445 
 17056              	.LASF418:
 17057 461b 4359424C 		.ascii	"CYBLE_EVT_HTSC_INDICATION\000"
 17057      455F4556 
 17057      545F4854 
 17057      53435F49 
 17057      4E444943 
 17058              	.LASF391:
 17059 4635 4359424C 		.ascii	"CYBLE_EVT_HIDSS_NOTIFICATION_ENABLED\000"
 17059      455F4556 
 17059      545F4849 
 17059      4453535F 
 17059      4E4F5449 
 17060              	.LASF415:
 17061 465a 4359424C 		.ascii	"CYBLE_EVT_HTSS_INDICATION_CONFIRMED\000"
 17061      455F4556 
 17061      545F4854 
ARM GAS  C:\Users\Helon\AppData\Local\Temp\cckZyeCc.s 			page 396


 17061      53535F49 
 17061      4E444943 
 17062              	.LASF194:
 17063 467e 61647649 		.ascii	"advIntvMax\000"
 17063      6E74764D 
 17063      617800
 17064              	.LASF492:
 17065 4689 4359424C 		.ascii	"CYBLE_EVT_WPTSS_INDICATION_CONFIRMED\000"
 17065      455F4556 
 17065      545F5750 
 17065      5453535F 
 17065      494E4449 
 17066              	.LASF405:
 17067 46ae 4359424C 		.ascii	"CYBLE_EVT_HRSS_NOTIFICATION_DISABLED\000"
 17067      455F4556 
 17067      545F4852 
 17067      53535F4E 
 17067      4F544946 
 17068              		.ident	"GCC: (GNU Tools for ARM Embedded Processors) 4.9.3 20150303 (release) [ARM/embedded-4_9-br
