ARM GAS  C:\Users\Helon\AppData\Local\Temp\ccoPKzhl.s 			page 1


   1              		.cpu cortex-m0
   2              		.fpu softvfp
   3              		.eabi_attribute 20, 1
   4              		.eabi_attribute 21, 1
   5              		.eabi_attribute 23, 3
   6              		.eabi_attribute 24, 1
   7              		.eabi_attribute 25, 1
   8              		.eabi_attribute 26, 1
   9              		.eabi_attribute 30, 1
  10              		.eabi_attribute 34, 0
  11              		.eabi_attribute 18, 4
  12              		.code	16
  13              		.file	"BLEApplication.c"
  14              		.text
  15              	.Ltext0:
  16              		.cfi_sections	.debug_frame
  17              		.section	.rodata.cst2,"aM",%progbits,2
  18              		.align	1
  19              	.LC35:
  20 0000 0002     		.short	512
  21              		.section	.text.StackEventHandler,"ax",%progbits
  22              		.align	2
  23              		.global	StackEventHandler
  24              		.code	16
  25              		.thumb_func
  26              		.type	StackEventHandler, %function
  27              	StackEventHandler:
  28              	.LFB35:
  29              		.file 1 ".\\BLEApplication.c"
   1:.\BLEApplication.c **** /* ========================================
   2:.\BLEApplication.c ****  *
   3:.\BLEApplication.c ****  * Copyright YOUR COMPANY, THE YEAR
   4:.\BLEApplication.c ****  * All Rights Reserved
   5:.\BLEApplication.c ****  * UNPUBLISHED, LICENSED SOFTWARE.
   6:.\BLEApplication.c ****  *
   7:.\BLEApplication.c ****  * CONFIDENTIAL AND PROPRIETARY INFORMATION
   8:.\BLEApplication.c ****  * WHICH IS THE PROPERTY OF your company.
   9:.\BLEApplication.c ****  *
  10:.\BLEApplication.c ****  * ========================================
  11:.\BLEApplication.c **** */
  12:.\BLEApplication.c **** #include<project.h>
  13:.\BLEApplication.c **** #include "BLEApplication.h"
  14:.\BLEApplication.c **** #include<stdio.h>
  15:.\BLEApplication.c **** #include "BLEClient.h"
  16:.\BLEApplication.c **** #include <malloc.h>
  17:.\BLEApplication.c **** #include "WriteUserSFlash.h"
  18:.\BLEApplication.c **** /***************************************
  19:.\BLEApplication.c **** * Â§ñÈÉ®ÂÖ®Â±ÄÂèòÈáèÂ£∞Êòé
  20:.\BLEApplication.c **** ***************************************/
  21:.\BLEApplication.c **** extern uint8_t StartScan;
  22:.\BLEApplication.c **** extern uint8_t DeviceCount;
  23:.\BLEApplication.c **** extern CYBLE_DEVICE_INFO DeviceInfo[DeviceListCount];
  24:.\BLEApplication.c **** //extern uint8_t DeviceList[DeviceListCount];
  25:.\BLEApplication.c **** /***************************************
  26:.\BLEApplication.c **** * ÂÖ®Â±ÄÂèòÈáè
  27:.\BLEApplication.c **** ***************************************/
  28:.\BLEApplication.c **** UART_UART_INIT_STRUCT configUart;
ARM GAS  C:\Users\Helon\AppData\Local\Temp\ccoPKzhl.s 			page 2


  29:.\BLEApplication.c **** uint8_t LowPower_EN=TURE;
  30:.\BLEApplication.c **** uint8_t RX_BUFFER[BUFFER_LENGHTH]={0};
  31:.\BLEApplication.c **** uint8_t Buffer_Length=0;
  32:.\BLEApplication.c **** uint8_t rx_isover=FALSE;
  33:.\BLEApplication.c **** uint8_t RxFlag=OVER;
  34:.\BLEApplication.c **** //uint8_t SleepMode=TURE;
  35:.\BLEApplication.c **** CYBLE_CONN_OR_DISCONN_INFO Conn_Or_Disconn_Info;
  36:.\BLEApplication.c **** uint8_t Conn_or_Disconn_Idx=0;
  37:.\BLEApplication.c **** //uint8 bufferRx[UART_RX_BUFFER + 1u];     /* RX software buffer requires one extra entry for corre
  38:.\BLEApplication.c **** //uint8 bufferTx[UART_TX_BUFFER];           /* TX software buffer */ 
  39:.\BLEApplication.c **** uint8_t MTU_REQ_FLAG=TURE;
  40:.\BLEApplication.c **** uint8_t TroughtTest_Flag=FALSE;
  41:.\BLEApplication.c **** uint8_t charNotificationEnabled = FALSE;
  42:.\BLEApplication.c **** uint32 totalByteCounter = 0;
  43:.\BLEApplication.c **** uint8_t Role=Peripheral;//ÈªòËÆ§ÊòØPeripheral
  44:.\BLEApplication.c **** uint8 buffer[20];
  45:.\BLEApplication.c **** uint16 negotiatedMtu = DEFAULT_MTU_SIZE;
  46:.\BLEApplication.c **** uint8_t CommandMode=AT_COMMAND_MODE;
  47:.\BLEApplication.c **** uint32 testCount=0;
  48:.\BLEApplication.c **** uint8_t iocapability=CYBLE_GAP_IOCAP_DISPLAY_ONLY;
  49:.\BLEApplication.c **** CYBLE_GAP_CONN_PARAM_UPDATED_IN_CONTROLLER_T ConnParam;
  50:.\BLEApplication.c **** uint8_t KEYBOARD=FALSE;
  51:.\BLEApplication.c **** uint8_t AUTHFLAG=FALSE;
  52:.\BLEApplication.c **** uint8_t SleepMode=TURE;
  53:.\BLEApplication.c **** //CYBLE_GAPP_DISC_MODE_INFO_T updateadvparam;
  54:.\BLEApplication.c **** //uint8_t ExitThrought[]={
  55:.\BLEApplication.c **** //    0x11,0x24,0xFB,0x1E,0x1F,0x24,0x19,0x16,0x29};
  56:.\BLEApplication.c **** //CYBLE_CONN_HANDLE_T	connHandle=
  57:.\BLEApplication.c **** //{
  58:.\BLEApplication.c **** //    CYBLE_TROUGHPUT_SERVICE_CUSTOM_CHARACTERISTIC_CLIENT_CHARACTERISTIC_CONFIGURATION_DESC_HANDLE
  59:.\BLEApplication.c **** //    0x00
  60:.\BLEApplication.c **** //};
  61:.\BLEApplication.c **** CYBLE_GAP_BD_ADDR_T DeviceAddr;//Â≠òÊîæÊú¨Êú∫ÁöÑMACÂú∞ÂùÄ,‰∏çËÉΩÂÅö‰∏∫Â±ÄÈÉ®ÂèòÈáèÂê¶ÂàôËé∑ÂèñÁöÑÂú
  62:.\BLEApplication.c **** uint8_t _10sIsOver=FALSE;
  63:.\BLEApplication.c **** uint8 cccdNotifEnabledValue[] = {0x01, 0x00};
  64:.\BLEApplication.c **** CYBLE_GATT_VALUE_T cccdNotifFlagSetStruct =
  65:.\BLEApplication.c **** {
  66:.\BLEApplication.c ****     cccdNotifEnabledValue,
  67:.\BLEApplication.c ****     2,
  68:.\BLEApplication.c ****     0
  69:.\BLEApplication.c **** };
  70:.\BLEApplication.c **** //    Êõ¥Êñ∞ËøûÊé•Èó¥ÈöîÂèÇÊï∞ÔºåÊèêÈ´òÈÄè‰º†ÈÄüÁéáÔºå‰ΩÜ‰ºöÂ¢ûÂä†ÂäüËÄó
  71:.\BLEApplication.c **** CYBLE_GAP_CONN_UPDATE_PARAM_T connParam={
  72:.\BLEApplication.c ****     0x10,
  73:.\BLEApplication.c ****     0x10,
  74:.\BLEApplication.c ****     0,
  75:.\BLEApplication.c ****     1000
  76:.\BLEApplication.c **** };
  77:.\BLEApplication.c **** CYBLE_GATTC_WRITE_REQ_T writeRequestData;
  78:.\BLEApplication.c **** CYBLE_GATTC_READ_REQ_T readRequestData=CYBLE_TROUGHPUT_SERVICE_CUSTOM_CHARACTERISTIC_CLIENT_CHARACT
  79:.\BLEApplication.c **** //ATÂëΩ‰ª§ÂàóË°®
  80:.\BLEApplication.c **** char * StringArry[]={
  81:.\BLEApplication.c ****                      AT_RESET,AT_REFAC,AT_VERSION,AT_BAUD,AT_LADDR,AT_NAME,
  82:.\BLEApplication.c ****                      AT_CPIN,AT_TXP,AT_ADVD,AT_ADVI,AT_CONNI,AT_ROLE,AT_SCAN,
  83:.\BLEApplication.c ****                      AT_CONNT,AT_DISCONN,AT_LOGIN,AT_TX,AT_RSSI,AT_DISALLCHAR,
  84:.\BLEApplication.c ****                      AT,AT_SPEED,AT_NOTIFY,AT_STAUS,AT_ADVS,AT_AUTH,AT_IOCAP,AT_SLEEP
  85:.\BLEApplication.c ****                     };
ARM GAS  C:\Users\Helon\AppData\Local\Temp\ccoPKzhl.s 			page 3


  86:.\BLEApplication.c **** uint8_t STOP_SCAN_FLAG=FALSE;
  87:.\BLEApplication.c **** uint8_t Baud_rate_idx='7';//ÈªòËÆ§ÊòØ115200
  88:.\BLEApplication.c **** /******************************************************************************
  89:.\BLEApplication.c **** * Function Name: StackEventHandler
  90:.\BLEApplication.c **** ***************************************************************************//**
  91:.\BLEApplication.c **** * 
  92:.\BLEApplication.c **** *  Â§ÑÁêÜËìùÁâôÂçèËÆÆÊ†à‰∫ã‰ª∂
  93:.\BLEApplication.c **** * 
  94:.\BLEApplication.c **** * \return
  95:.\BLEApplication.c **** *  None
  96:.\BLEApplication.c **** * 
  97:.\BLEApplication.c **** ******************************************************************************/
  98:.\BLEApplication.c **** void StackEventHandler(uint32 eventCode, void *eventParam)
  99:.\BLEApplication.c **** {
  30              		.loc 1 99 0
  31              		.cfi_startproc
  32              	.LVL0:
  33 0000 70B5     		push	{r4, r5, r6, lr}
  34              		.cfi_def_cfa_offset 16
  35              		.cfi_offset 4, -16
  36              		.cfi_offset 5, -12
  37              		.cfi_offset 6, -8
  38              		.cfi_offset 14, -4
  39 0002 90B0     		sub	sp, sp, #64
  40              		.cfi_def_cfa_offset 80
  41              	.LVL1:
 100:.\BLEApplication.c ****     CYBLE_GAPC_ADV_REPORT_T	Scan_Result;
 101:.\BLEApplication.c **** //    CYBLE_API_RESULT_T API_RESULT=0;
 102:.\BLEApplication.c ****     CYBLE_GATTC_FIND_INFO_RSP_PARAM_T DisAllCharResult;  
 103:.\BLEApplication.c ****     uint8_t i=0;
 104:.\BLEApplication.c ****     CYBLE_GATTC_HANDLE_VALUE_NTF_PARAM_T * handleValueNotification;
 105:.\BLEApplication.c ****     CYBLE_GATTS_WRITE_REQ_PARAM_T writeParam;  
 106:.\BLEApplication.c **** //    uint32 PassKey=0;
 107:.\BLEApplication.c **** //    CYBLE_GATTC_READ_RSP_PARAM_T readParam;
 108:.\BLEApplication.c ****     switch(eventCode)
  42              		.loc 1 108 0
  43 0004 5228     		cmp	r0, #82
  44 0006 00D9     		bls	.LCB16
  45 0008 4DE1     		b	.L1	@long jump
  46              	.LCB16:
  47 000a 0C1C     		mov	r4, r1
  48 000c 8000     		lsl	r0, r0, #2
  49              	.LVL2:
  50 000e A74B     		ldr	r3, .L41
  51 0010 1B58     		ldr	r3, [r3, r0]
  52 0012 9F46     		mov	pc, r3
  53              		.section	.rodata
  54              		.align	2
  55              	.L4:
  56 0000 A6020000 		.word	.L1
  57 0004 14000000 		.word	.L3
  58 0008 5E000000 		.word	.L5
  59 000c A6020000 		.word	.L1
  60 0010 A6020000 		.word	.L1
  61 0014 A6020000 		.word	.L1
  62 0018 A6020000 		.word	.L1
  63 001c A6020000 		.word	.L1
ARM GAS  C:\Users\Helon\AppData\Local\Temp\ccoPKzhl.s 			page 4


  64 0020 A6020000 		.word	.L1
  65 0024 A6020000 		.word	.L1
  66 0028 A6020000 		.word	.L1
  67 002c A6020000 		.word	.L1
  68 0030 A6020000 		.word	.L1
  69 0034 A6020000 		.word	.L1
  70 0038 A6020000 		.word	.L1
  71 003c A6020000 		.word	.L1
  72 0040 A6020000 		.word	.L1
  73 0044 A6020000 		.word	.L1
  74 0048 A6020000 		.word	.L1
  75 004c A6020000 		.word	.L1
  76 0050 A6020000 		.word	.L1
  77 0054 A6020000 		.word	.L1
  78 0058 A6020000 		.word	.L1
  79 005c A6020000 		.word	.L1
  80 0060 A6020000 		.word	.L1
  81 0064 A6020000 		.word	.L1
  82 0068 A6020000 		.word	.L1
  83 006c A6020000 		.word	.L1
  84 0070 A6020000 		.word	.L1
  85 0074 A6020000 		.word	.L1
  86 0078 A6020000 		.word	.L1
  87 007c A6020000 		.word	.L1
  88 0080 34000000 		.word	.L6
  89 0084 5E020000 		.word	.L7
  90 0088 7C020000 		.word	.L8
  91 008c 72020000 		.word	.L9
  92 0090 8A020000 		.word	.L10
  93 0094 98020000 		.word	.L11
  94 0098 A6020000 		.word	.L1
  95 009c 72000000 		.word	.L12
  96 00a0 F2000000 		.word	.L13
  97 00a4 A6020000 		.word	.L1
  98 00a8 BA000000 		.word	.L14
  99 00ac 46000000 		.word	.L15
 100 00b0 A6020000 		.word	.L1
 101 00b4 A6020000 		.word	.L1
 102 00b8 A6020000 		.word	.L1
 103 00bc A6020000 		.word	.L1
 104 00c0 A6020000 		.word	.L1
 105 00c4 A6020000 		.word	.L1
 106 00c8 A6020000 		.word	.L1
 107 00cc A6020000 		.word	.L1
 108 00d0 A6020000 		.word	.L1
 109 00d4 A6020000 		.word	.L1
 110 00d8 A6020000 		.word	.L1
 111 00dc A6020000 		.word	.L1
 112 00e0 A6020000 		.word	.L1
 113 00e4 A6020000 		.word	.L1
 114 00e8 A6020000 		.word	.L1
 115 00ec A6020000 		.word	.L1
 116 00f0 A6020000 		.word	.L1
 117 00f4 A6020000 		.word	.L1
 118 00f8 A6020000 		.word	.L1
 119 00fc A6020000 		.word	.L1
 120 0100 A6020000 		.word	.L1
ARM GAS  C:\Users\Helon\AppData\Local\Temp\ccoPKzhl.s 			page 5


 121 0104 A6020000 		.word	.L1
 122 0108 A6020000 		.word	.L1
 123 010c CC000000 		.word	.L16
 124 0110 C4000000 		.word	.L17
 125 0114 A6020000 		.word	.L1
 126 0118 A6020000 		.word	.L1
 127 011c 2A020000 		.word	.L18
 128 0120 A6020000 		.word	.L1
 129 0124 A6020000 		.word	.L1
 130 0128 A6020000 		.word	.L1
 131 012c A6020000 		.word	.L1
 132 0130 A6020000 		.word	.L1
 133 0134 A6020000 		.word	.L1
 134 0138 6C010000 		.word	.L19
 135 013c A6020000 		.word	.L1
 136 0140 A6020000 		.word	.L1
 137 0144 A6020000 		.word	.L1
 138 0148 D4010000 		.word	.L20
 139              		.section	.text.StackEventHandler
 140              	.L3:
 109:.\BLEApplication.c ****     {
 110:.\BLEApplication.c ****         case CYBLE_EVT_STACK_ON:
 111:.\BLEApplication.c ****             printf("BLE is Ready\r\n");
 141              		.loc 1 111 0
 142 0014 A648     		ldr	r0, .L41+4
 143 0016 FFF7FEFF 		bl	puts
 144              	.LVL3:
 145              	.L22:
 112:.\BLEApplication.c ****             while((UART_SpiUartGetTxBufferSize() + UART_GET_TX_FIFO_SR_VALID) != 0);//Á≠âÂæÖ‰∏≤Âè£Á
 146              		.loc 1 112 0 discriminator 5
 147 001a FFF7FEFF 		bl	UART_SpiUartGetTxBufferSize
 148              	.LVL4:
 149 001e A54B     		ldr	r3, .L41+8
 150 0020 1B68     		ldr	r3, [r3]
 151 0022 8022     		mov	r2, #128
 152 0024 1202     		lsl	r2, r2, #8
 153 0026 1340     		and	r3, r2
 154 0028 00D0     		beq	.L21
 155              		.loc 1 112 0 is_stmt 0
 156 002a 0123     		mov	r3, #1
 157              	.L21:
 158              		.loc 1 112 0 discriminator 4
 159 002c C318     		add	r3, r0, r3
 160 002e 002B     		cmp	r3, #0
 161 0030 F3D1     		bne	.L22
 162 0032 38E1     		b	.L1
 163              	.LVL5:
 164              	.L6:
 113:.\BLEApplication.c **** //            StartScan=TRUE;            
 114:.\BLEApplication.c ****         break;
 115:.\BLEApplication.c ****         case CYBLE_EVT_GAPC_SCAN_PROGRESS_RESULT:
 116:.\BLEApplication.c ****             Scan_Result=*(CYBLE_GAPC_ADV_REPORT_T *)eventParam;
 165              		.loc 1 116 0 is_stmt 1
 166 0034 0BA8     		add	r0, sp, #44
 167 0036 031C     		mov	r3, r0
 168 0038 26CC     		ldmia	r4!, {r1, r2, r5}
 169 003a 26C3     		stmia	r3!, {r1, r2, r5}
ARM GAS  C:\Users\Helon\AppData\Local\Temp\ccoPKzhl.s 			page 6


 170              	.LVL6:
 171 003c 06CC     		ldmia	r4!, {r1, r2}
 172 003e 06C3     		stmia	r3!, {r1, r2}
 173              	.LVL7:
 117:.\BLEApplication.c ****             HandleScanDevices(&Scan_Result);               
 174              		.loc 1 117 0
 175 0040 FFF7FEFF 		bl	HandleScanDevices
 176              	.LVL8:
 118:.\BLEApplication.c **** //            CyBle_GapcStopScan();
 119:.\BLEApplication.c ****         break;
 177              		.loc 1 119 0
 178 0044 2FE1     		b	.L1
 179              	.LVL9:
 180              	.L15:
 120:.\BLEApplication.c ****         case CYBLE_EVT_GAPC_SCAN_START_STOP:
 121:.\BLEApplication.c ****             if(STOP_SCAN_FLAG)
 181              		.loc 1 121 0
 182 0046 9C4B     		ldr	r3, .L41+12
 183 0048 1B78     		ldrb	r3, [r3]
 184 004a 002B     		cmp	r3, #0
 185 004c 00D1     		bne	.LCB73
 186 004e 2AE1     		b	.L1	@long jump
 187              	.LCB73:
 122:.\BLEApplication.c ****             {
 123:.\BLEApplication.c ****                 STOP_SCAN_FLAG=FALSE;             
 188              		.loc 1 123 0
 189 0050 0022     		mov	r2, #0
 190 0052 994B     		ldr	r3, .L41+12
 191 0054 1A70     		strb	r2, [r3]
 124:.\BLEApplication.c ****                 printf("+SCAN_STOP\r\n");
 192              		.loc 1 124 0
 193 0056 9948     		ldr	r0, .L41+16
 194 0058 FFF7FEFF 		bl	puts
 195              	.LVL10:
 196 005c 23E1     		b	.L1
 197              	.LVL11:
 198              	.L5:
 125:.\BLEApplication.c ****             }
 126:.\BLEApplication.c ****             
 127:.\BLEApplication.c ****         break;
 128:.\BLEApplication.c ****         //ÂΩìClientÊâ´ÊèèÂà∞ServerÁöÑDB‰πãÂêéÊâç‰ºöËß¶ÂèëËØ•‰∫ã‰ª∂ÔºåÂâçÊèêÊòØclientÂíåserverËøûÊé•
 129:.\BLEApplication.c ****         case CYBLE_EVT_GATTC_DISCOVERY_COMPLETE:
 130:.\BLEApplication.c ****             
 131:.\BLEApplication.c ****         break;        
 132:.\BLEApplication.c ****         case CYBLE_EVT_TIMEOUT:                         
 133:.\BLEApplication.c ****             if(*(uint8_t*)eventParam==CYBLE_GAP_SCAN_TO)
 199              		.loc 1 133 0
 200 005e 0B78     		ldrb	r3, [r1]
 201 0060 022B     		cmp	r3, #2
 202 0062 00D0     		beq	.LCB88
 203 0064 1FE1     		b	.L1	@long jump
 204              	.LCB88:
 134:.\BLEApplication.c ****             {   
 135:.\BLEApplication.c ****                 CyBle_GapcStopScan();
 205              		.loc 1 135 0
 206 0066 FFF7FEFF 		bl	CyBle_GapcStopScan
 207              	.LVL12:
ARM GAS  C:\Users\Helon\AppData\Local\Temp\ccoPKzhl.s 			page 7


 136:.\BLEApplication.c ****                 printf("+SCAN_CMP\r\n");                    
 208              		.loc 1 136 0
 209 006a 9548     		ldr	r0, .L41+20
 210 006c FFF7FEFF 		bl	puts
 211              	.LVL13:
 212 0070 19E1     		b	.L1
 213              	.LVL14:
 214              	.L12:
 137:.\BLEApplication.c ****             }
 138:.\BLEApplication.c ****             //ÂπøÊí≠Ë∂ÖÊó∂
 139:.\BLEApplication.c **** //            if(*(uint8_t*)eventParam==CYBLE_GAP_ADV_MODE_TO)
 140:.\BLEApplication.c **** //            {
 141:.\BLEApplication.c **** //                CyBle_GappStartAdvertisement(CYBLE_ADVERTISING_SLOW);
 142:.\BLEApplication.c **** //            }
 143:.\BLEApplication.c ****         break;
 144:.\BLEApplication.c ****         case CYBLE_EVT_GAPP_ADVERTISEMENT_START_STOP:
 145:.\BLEApplication.c **** //            if(CYBLE_STATE_ADVERTISING!=CyBle_GetState())
 146:.\BLEApplication.c **** //            {
 147:.\BLEApplication.c **** //                CyBle_GappStartAdvertisement(CYBLE_ADVERTISING_SLOW);
 148:.\BLEApplication.c **** //            }
 149:.\BLEApplication.c ****         break;
 150:.\BLEApplication.c ****         case CYBLE_EVT_GAP_DEVICE_CONNECTED:
 151:.\BLEApplication.c **** //            Ëé∑ÂèñËøûÊé•ÂèÇÊï∞‰ø°ÊÅØ
 152:.\BLEApplication.c ****             ConnParam=*(CYBLE_GAP_CONN_PARAM_UPDATED_IN_CONTROLLER_T *)eventParam;            
 215              		.loc 1 152 0
 216 0072 9448     		ldr	r0, .L41+24
 217 0074 0822     		mov	r2, #8
 218 0076 FFF7FEFF 		bl	memcpy
 219              	.LVL15:
 153:.\BLEApplication.c ****             if(Role==Peripheral)
 220              		.loc 1 153 0
 221 007a 8F4B     		ldr	r3, .L41+12
 222 007c 5B78     		ldrb	r3, [r3, #1]
 223 007e 002B     		cmp	r3, #0
 224 0080 08D1     		bne	.L23
 154:.\BLEApplication.c ****             {
 155:.\BLEApplication.c ****                 printf("+CONN_EVT=OK\r\n");
 225              		.loc 1 155 0
 226 0082 9148     		ldr	r0, .L41+28
 227 0084 FFF7FEFF 		bl	puts
 228              	.LVL16:
 156:.\BLEApplication.c ****                 CyBle_L2capLeConnectionParamUpdateRequest(cyBle_connHandle.bdHandle,&connParam);
 229              		.loc 1 156 0
 230 0088 904B     		ldr	r3, .L41+32
 231 008a 1878     		ldrb	r0, [r3]
 232 008c 9049     		ldr	r1, .L41+36
 233 008e FFF7FEFF 		bl	CyBle_L2capLeConnectionParamUpdateRequest
 234              	.LVL17:
 235 0092 08E1     		b	.L1
 236              	.L23:
 157:.\BLEApplication.c ****             }
 158:.\BLEApplication.c ****             else
 159:.\BLEApplication.c ****             {
 160:.\BLEApplication.c ****                 printf("+CONN_EVT=<%d,OK>\r\n",Conn_or_Disconn_Idx);   
 237              		.loc 1 160 0
 238 0094 884B     		ldr	r3, .L41+12
 239 0096 9978     		ldrb	r1, [r3, #2]
ARM GAS  C:\Users\Helon\AppData\Local\Temp\ccoPKzhl.s 			page 8


 240 0098 8E48     		ldr	r0, .L41+40
 241 009a FFF7FEFF 		bl	printf
 242              	.LVL18:
 161:.\BLEApplication.c **** //                ‰∏é‰ªéÊú∫ËøûÊé•ÊàêÂäüÂêéÔºå‰∏ªÊú∫ÂèëËµ∑ËøûÊé•Èó¥ÈöîÊõ¥Êñ∞ËØ∑Ê±Ç
 162:.\BLEApplication.c ****                 CyBle_GapcConnectionParamUpdateRequest(cyBle_connHandle.bdHandle,&connParam);
 243              		.loc 1 162 0
 244 009e 8B4C     		ldr	r4, .L41+32
 245              	.LVL19:
 246 00a0 2078     		ldrb	r0, [r4]
 247 00a2 8B49     		ldr	r1, .L41+36
 248 00a4 FFF7FEFF 		bl	CyBle_GapcConnectionParamUpdateRequest
 249              	.LVL20:
 163:.\BLEApplication.c ****                                 /* Initiate an MTU exchange request CYBLE_GATT_MTU*/
 164:.\BLEApplication.c ****                 CyBle_GattcExchangeMtuReq(cyBle_connHandle,CYBLE_GATT_MTU);
 250              		.loc 1 164 0
 251 00a8 2378     		ldrb	r3, [r4]
 252 00aa 6078     		ldrb	r0, [r4, #1]
 253 00ac 0002     		lsl	r0, r0, #8
 254 00ae 1843     		orr	r0, r3
 255 00b0 8021     		mov	r1, #128
 256 00b2 8900     		lsl	r1, r1, #2
 257 00b4 FFF7FEFF 		bl	CyBle_GattcExchangeMtuReq
 258              	.LVL21:
 259 00b8 F5E0     		b	.L1
 260              	.LVL22:
 261              	.L14:
 165:.\BLEApplication.c ****             }
 166:.\BLEApplication.c **** //            //‰∏ªÊú∫ÂèëÈÄÅÁöÑMTU exchange request
 167:.\BLEApplication.c **** //            if(MTU_REQ_FLAG)
 168:.\BLEApplication.c **** //            {
 169:.\BLEApplication.c **** //                MTU_REQ_FLAG=FALSE;
 170:.\BLEApplication.c **** //                /* Initiate an MTU exchange request */
 171:.\BLEApplication.c **** //                CyBle_GattcExchangeMtuReq(cyBle_connHandle, CYBLE_GATT_MTU);
 172:.\BLEApplication.c **** //            }
 173:.\BLEApplication.c ****         break;
 174:.\BLEApplication.c ****         case CYBLE_EVT_GAP_CONNECTION_UPDATE_COMPLETE: 
 175:.\BLEApplication.c **** //            Ëé∑ÂèñËøûÊé•ÂèÇÊï∞‰ø°ÊÅØ
 176:.\BLEApplication.c ****             ConnParam=*(CYBLE_GAP_CONN_PARAM_UPDATED_IN_CONTROLLER_T *)eventParam;
 262              		.loc 1 176 0
 263 00ba 8248     		ldr	r0, .L41+24
 264 00bc 0822     		mov	r2, #8
 265 00be FFF7FEFF 		bl	memcpy
 266              	.LVL23:
 177:.\BLEApplication.c **** //            printf("+UPDATECONN_EVT=OK\r\n");
 178:.\BLEApplication.c **** //            if(Role==Central)
 179:.\BLEApplication.c **** //                Timer_Enable();
 180:.\BLEApplication.c ****         break;
 267              		.loc 1 180 0
 268 00c2 F0E0     		b	.L1
 269              	.LVL24:
 270              	.L17:
 181:.\BLEApplication.c **** //            ‰∏ªÊú∫Êé•Êî∂‰ªéÊú∫ÁöÑMTU‰∫§Êç¢ÂìçÂ∫î
 182:.\BLEApplication.c ****         case CYBLE_EVT_GATTC_XCHNG_MTU_RSP:            
 183:.\BLEApplication.c ****             negotiatedMtu=((CYBLE_GATT_XCHG_MTU_PARAM_T *)eventParam)->mtu;
 271              		.loc 1 183 0
 272 00c4 4A88     		ldrh	r2, [r1, #2]
 273 00c6 824B     		ldr	r3, .L41+36
ARM GAS  C:\Users\Helon\AppData\Local\Temp\ccoPKzhl.s 			page 9


 274 00c8 1A81     		strh	r2, [r3, #8]
 184:.\BLEApplication.c **** //            printf("mtu is %d\r\n",negotiatedMtu);
 185:.\BLEApplication.c ****             /* Enable notifications on the characteristic to get data from the 
 186:.\BLEApplication.c ****              * Server.
 187:.\BLEApplication.c ****              */
 188:.\BLEApplication.c **** //            TroughtTest_Flag=TURE;  
 189:.\BLEApplication.c **** //            UART_UartPutString("Calculating throughput. Please wait...\n\r");
 190:.\BLEApplication.c **** //            Timer_Enable();
 191:.\BLEApplication.c **** //            printf("'MTU Exchange Response' received from server device\r\n");
 192:.\BLEApplication.c **** //            if(0x00==writeRequestData.value.val[0])
 193:.\BLEApplication.c **** //                writeRequestData.value.val[0]=0x01;
 194:.\BLEApplication.c **** //            writeRequestData.attrHandle=CYBLE_TROUGHPUT_SERVICE_SPEEDTEST_CHAR_HANDLE;
 195:.\BLEApplication.c **** //            CyBle_GattcWriteCharacteristicValue(cyBle_connHandle, &writeRequestData);   
 196:.\BLEApplication.c **** //            printf("Notify slave is %d",API_RESULT);
 197:.\BLEApplication.c **** //            while((UART_SpiUartGetTxBufferSize() + UART_GET_TX_FIFO_SR_VALID) != 0);//Á≠âÂæÖ‰∏≤Âè
 198:.\BLEApplication.c ****             break;
 275              		.loc 1 198 0
 276 00ca ECE0     		b	.L1
 277              	.L16:
 199:.\BLEApplication.c ****         /* GATT MTU exchange request - Update the negotiated MTU value */
 200:.\BLEApplication.c **** //            ÂÅö‰∏∫‰ªéÊú∫Êó∂Êé•Êî∂‰∏ªÊú∫ÂèëÈÄÅËøáÊù•ÁöÑMTU‰∫§Êç¢ËØ∑Ê±Ç
 201:.\BLEApplication.c ****         case CYBLE_EVT_GATTS_XCNHG_MTU_REQ:            
 202:.\BLEApplication.c ****             negotiatedMtu = (((CYBLE_GATT_XCHG_MTU_PARAM_T *)eventParam)->mtu < CYBLE_GATT_MTU) ?
 278              		.loc 1 202 0
 279 00cc 4A88     		ldrh	r2, [r1, #2]
 280 00ce 131C     		add	r3, r2, #0
 281 00d0 8021     		mov	r1, #128
 282              	.LVL25:
 283 00d2 8900     		lsl	r1, r1, #2
 284 00d4 8A42     		cmp	r2, r1
 285 00d6 01D9     		bls	.L24
 286 00d8 7F4B     		ldr	r3, .L41+44
 287 00da 1B88     		ldrh	r3, [r3]
 288              	.L24:
 289 00dc 99B2     		uxth	r1, r3
 290 00de 7C4A     		ldr	r2, .L41+36
 291 00e0 1381     		strh	r3, [r2, #8]
 203:.\BLEApplication.c ****                             ((CYBLE_GATT_XCHG_MTU_PARAM_T *)eventParam)->mtu : CYBLE_GATT_MTU;
 204:.\BLEApplication.c ****             CyBle_GattsExchangeMtuRsp(cyBle_connHandle,negotiatedMtu);                            
 292              		.loc 1 204 0
 293 00e2 7A4A     		ldr	r2, .L41+32
 294 00e4 1378     		ldrb	r3, [r2]
 295 00e6 5078     		ldrb	r0, [r2, #1]
 296 00e8 0002     		lsl	r0, r0, #8
 297 00ea 1843     		orr	r0, r3
 298 00ec FFF7FEFF 		bl	CyBle_GattsExchangeMtuRsp
 299              	.LVL26:
 205:.\BLEApplication.c **** //                            printf("mtu is %d\r\n",negotiatedMtu);
 206:.\BLEApplication.c **** //            printf("'MTU Exchange Request' received from GATT client device\r\n");
 207:.\BLEApplication.c ****         break;
 300              		.loc 1 207 0
 301 00f0 D9E0     		b	.L1
 302              	.LVL27:
 303              	.L13:
 208:.\BLEApplication.c ****         case CYBLE_EVT_GAP_DEVICE_DISCONNECTED:   
 209:.\BLEApplication.c ****             cyBle_discoveryModeInfo.advTo = CYBLE_FAST_ADV_TIMEOUT;
 304              		.loc 1 209 0
ARM GAS  C:\Users\Helon\AppData\Local\Temp\ccoPKzhl.s 			page 10


 305 00f2 7A4B     		ldr	r3, .L41+48
 306 00f4 1E22     		mov	r2, #30
 307 00f6 1A82     		strh	r2, [r3, #16]
 210:.\BLEApplication.c ****             cyBle_discoveryModeInfo.advParam->advIntvMin = CYBLE_FAST_ADV_INT_MIN;
 308              		.loc 1 210 0
 309 00f8 0232     		add	r2, r2, #2
 310 00fa 5968     		ldr	r1, [r3, #4]
 311              	.LVL28:
 312 00fc 0A80     		strh	r2, [r1]
 211:.\BLEApplication.c ****             cyBle_discoveryModeInfo.advParam->advIntvMax = CYBLE_FAST_ADV_INT_MAX;                 
 313              		.loc 1 211 0
 314 00fe 5B68     		ldr	r3, [r3, #4]
 315 0100 5A80     		strh	r2, [r3, #2]
 212:.\BLEApplication.c ****             if(Role==Peripheral)
 316              		.loc 1 212 0
 317 0102 6D4B     		ldr	r3, .L41+12
 318 0104 5B78     		ldrb	r3, [r3, #1]
 319 0106 002B     		cmp	r3, #0
 320 0108 0FD1     		bne	.L25
 213:.\BLEApplication.c ****             {
 214:.\BLEApplication.c ****                printf("+DISCONN_EVT=<0x%02X>\r\n",*(uint8_t*)eventParam);
 321              		.loc 1 214 0
 322 010a 2178     		ldrb	r1, [r4]
 323 010c 7448     		ldr	r0, .L41+52
 324 010e FFF7FEFF 		bl	printf
 325              	.LVL29:
 215:.\BLEApplication.c ****                if(!SleepMode)
 326              		.loc 1 215 0
 327 0112 6F4B     		ldr	r3, .L41+36
 328 0114 9B7A     		ldrb	r3, [r3, #10]
 329 0116 002B     		cmp	r3, #0
 330 0118 03D1     		bne	.L26
 216:.\BLEApplication.c ****                {
 217:.\BLEApplication.c ****                    CyBle_GappStartAdvertisement(CYBLE_ADVERTISING_SLOW);
 331              		.loc 1 217 0
 332 011a 0120     		mov	r0, #1
 333 011c FFF7FEFF 		bl	CyBle_GappStartAdvertisement
 334              	.LVL30:
 335 0120 14E0     		b	.L30
 336              	.L26:
 218:.\BLEApplication.c ****                }
 219:.\BLEApplication.c ****                else
 220:.\BLEApplication.c ****                {
 221:.\BLEApplication.c ****                    LowPower_EN=TURE;
 337              		.loc 1 221 0
 338 0122 0122     		mov	r2, #1
 339 0124 6A4B     		ldr	r3, .L41+36
 340 0126 DA72     		strb	r2, [r3, #11]
 341 0128 10E0     		b	.L30
 342              	.L25:
 222:.\BLEApplication.c ****                }
 223:.\BLEApplication.c ****             }
 224:.\BLEApplication.c ****             else
 225:.\BLEApplication.c ****             {
 226:.\BLEApplication.c ****                printf("+DISCONN_EVT=<%d,0x%02X>\r\n",Conn_or_Disconn_Idx,*(uint8_t*)eventParam);
 343              		.loc 1 226 0
 344 012a 2278     		ldrb	r2, [r4]
ARM GAS  C:\Users\Helon\AppData\Local\Temp\ccoPKzhl.s 			page 11


 345 012c 624B     		ldr	r3, .L41+12
 346 012e 9978     		ldrb	r1, [r3, #2]
 347 0130 6C48     		ldr	r0, .L41+56
 348 0132 FFF7FEFF 		bl	printf
 349              	.LVL31:
 227:.\BLEApplication.c ****                if(!SleepMode)
 350              		.loc 1 227 0
 351 0136 664B     		ldr	r3, .L41+36
 352 0138 9B7A     		ldrb	r3, [r3, #10]
 353 013a 002B     		cmp	r3, #0
 354 013c 03D1     		bne	.L28
 228:.\BLEApplication.c ****                {
 229:.\BLEApplication.c ****                    CyBle_GapcStartScan(CYBLE_SCANNING_SLOW);
 355              		.loc 1 229 0
 356 013e 0120     		mov	r0, #1
 357 0140 FFF7FEFF 		bl	CyBle_GapcStartScan
 358              	.LVL32:
 359 0144 02E0     		b	.L30
 360              	.L28:
 230:.\BLEApplication.c ****                }
 231:.\BLEApplication.c ****                else
 232:.\BLEApplication.c ****                {
 233:.\BLEApplication.c ****                    LowPower_EN=TURE;
 361              		.loc 1 233 0
 362 0146 0122     		mov	r2, #1
 363 0148 614B     		ldr	r3, .L41+36
 364 014a DA72     		strb	r2, [r3, #11]
 365              	.L30:
 234:.\BLEApplication.c ****                }
 235:.\BLEApplication.c ****             }
 236:.\BLEApplication.c ****             while((UART_SpiUartGetTxBufferSize() + UART_GET_TX_FIFO_SR_VALID) != 0);//Á≠âÂæÖ‰∏≤Âè£Á
 366              		.loc 1 236 0 discriminator 5
 367 014c FFF7FEFF 		bl	UART_SpiUartGetTxBufferSize
 368              	.LVL33:
 369 0150 584B     		ldr	r3, .L41+8
 370 0152 1B68     		ldr	r3, [r3]
 371 0154 8022     		mov	r2, #128
 372 0156 1202     		lsl	r2, r2, #8
 373 0158 1340     		and	r3, r2
 374 015a 00D0     		beq	.L29
 375              		.loc 1 236 0 is_stmt 0
 376 015c 0123     		mov	r3, #1
 377              	.L29:
 378              		.loc 1 236 0 discriminator 4
 379 015e C318     		add	r3, r0, r3
 380 0160 002B     		cmp	r3, #0
 381 0162 F3D1     		bne	.L30
 237:.\BLEApplication.c **** //            LowPower_EN=TURE;
 238:.\BLEApplication.c ****             AUTHFLAG=FALSE;            
 382              		.loc 1 238 0 is_stmt 1
 383 0164 0022     		mov	r2, #0
 384 0166 544B     		ldr	r3, .L41+12
 385 0168 DA70     		strb	r2, [r3, #3]
 239:.\BLEApplication.c ****         break;
 386              		.loc 1 239 0
 387 016a 9CE0     		b	.L1
 388              	.LVL34:
ARM GAS  C:\Users\Helon\AppData\Local\Temp\ccoPKzhl.s 			page 12


 389              	.L19:
 240:.\BLEApplication.c **** //            ‰ªéÊú∫Êé•Êî∂‰∏ªÊú∫ÁöÑÂÜôËØ∑Ê±ÇÔºåÂπ∂‰∏î‰ªéÊú∫‰∏çÈúÄË¶ÅÂÜôÂìçÂ∫î
 241:.\BLEApplication.c ****         case CYBLE_EVT_GATTS_WRITE_CMD_REQ:
 242:.\BLEApplication.c ****             writeParam = *(CYBLE_GATTS_WRITE_REQ_PARAM_T *)eventParam;
 390              		.loc 1 242 0
 391 016c 03AB     		add	r3, sp, #12
 392 016e 07CC     		ldmia	r4!, {r0, r1, r2}
 393 0170 07C3     		stmia	r3!, {r0, r1, r2}
 394              	.LVL35:
 395 0172 2468     		ldr	r4, [r4]
 396              	.LVL36:
 397 0174 1C60     		str	r4, [r3]
 243:.\BLEApplication.c ****             //Ëá™ÂÆö‰πâÊúçÂä°ÁöÑCUSTOM Characteristic
 244:.\BLEApplication.c ****             if(writeParam.handleValPair.attrHandle == 
 398              		.loc 1 244 0
 399 0176 A4B2     		uxth	r4, r4
 400 0178 0E2C     		cmp	r4, #14
 401 017a 14D1     		bne	.L31
 245:.\BLEApplication.c ****                CYBLE_TROUGHPUT_SERVICE_CUSTOM_CHARACTERISTIC_CHAR_HANDLE)
 246:.\BLEApplication.c ****             {
 247:.\BLEApplication.c ****                 if(CommandMode==THROUGHT_MODE)
 402              		.loc 1 247 0
 403 017c 4E4B     		ldr	r3, .L41+12
 404 017e 1B79     		ldrb	r3, [r3, #4]
 405 0180 012B     		cmp	r3, #1
 406 0182 10D1     		bne	.L31
 248:.\BLEApplication.c ****                 {
 249:.\BLEApplication.c ****                     testCount+=writeParam.handleValPair.value.len;    
 407              		.loc 1 249 0
 408 0184 03AB     		add	r3, sp, #12
 409 0186 1E89     		ldrh	r6, [r3, #8]
 410 0188 4B4A     		ldr	r2, .L41+12
 411 018a 9368     		ldr	r3, [r2, #8]
 412 018c F318     		add	r3, r6, r3
 413 018e 9360     		str	r3, [r2, #8]
 250:.\BLEApplication.c **** //                printf("0x");
 251:.\BLEApplication.c **** //                UART_UartPutString("0x");
 252:.\BLEApplication.c ****                     for(i=0;i<writeParam.handleValPair.value.len;i++)
 414              		.loc 1 252 0
 415 0190 0025     		mov	r5, #0
 416 0192 05E0     		b	.L32
 417              	.LVL37:
 418              	.L33:
 253:.\BLEApplication.c ****                     {                    
 254:.\BLEApplication.c ****     //                    printf("%02X",writeParam.handleValPair.value.val[i]);
 255:.\BLEApplication.c ****                         UART_UartPutChar(writeParam.handleValPair.value.val[i]);
 419              		.loc 1 255 0 discriminator 3
 420 0194 049B     		ldr	r3, [sp, #16]
 421 0196 585D     		ldrb	r0, [r3, r5]
 422 0198 FFF7FEFF 		bl	UART_SpiUartWriteTxData
 423              	.LVL38:
 252:.\BLEApplication.c ****                     {                    
 424              		.loc 1 252 0 discriminator 3
 425 019c 0135     		add	r5, r5, #1
 426              	.LVL39:
 427 019e EDB2     		uxtb	r5, r5
 428              	.LVL40:
ARM GAS  C:\Users\Helon\AppData\Local\Temp\ccoPKzhl.s 			page 13


 429              	.L32:
 252:.\BLEApplication.c ****                     {                    
 430              		.loc 1 252 0 is_stmt 0 discriminator 1
 431 01a0 ABB2     		uxth	r3, r5
 432 01a2 9E42     		cmp	r6, r3
 433 01a4 F6D8     		bhi	.L33
 434              	.LVL41:
 435              	.L31:
 256:.\BLEApplication.c ****                     }  
 257:.\BLEApplication.c ****                 }
 258:.\BLEApplication.c **** //                UART_UartPutString("\r\n");
 259:.\BLEApplication.c **** //                printf("\r\n");
 260:.\BLEApplication.c **** //                UART_SpiUartWriteTxData(testCount);
 261:.\BLEApplication.c **** //                printf("%ld\r\n",testCount);
 262:.\BLEApplication.c **** //                printf("+RX=<0x");
 263:.\BLEApplication.c **** //                for(i=0;i<writeParam.handleValPair.value.len;i++)
 264:.\BLEApplication.c **** //                {
 265:.\BLEApplication.c **** //                    printf("%02X",writeParam.handleValPair.value.val[i]);
 266:.\BLEApplication.c **** //                }
 267:.\BLEApplication.c **** //                printf(">\r\n");
 268:.\BLEApplication.c ****             } 
 269:.\BLEApplication.c ****              //Ëá™ÂÆö‰πâÊúçÂä°ÁöÑClient Characteristic
 270:.\BLEApplication.c ****             if(writeParam.handleValPair.attrHandle == 
 436              		.loc 1 270 0 is_stmt 1
 437 01a6 0F2C     		cmp	r4, #15
 438 01a8 00D0     		beq	.LCB327
 439 01aa 7CE0     		b	.L1	@long jump
 440              	.LCB327:
 271:.\BLEApplication.c ****                CYBLE_TROUGHPUT_SERVICE_CUSTOM_CHARACTERISTIC_CLIENT_CHARACTERISTIC_CONFIGURATION_DE
 272:.\BLEApplication.c ****             {
 273:.\BLEApplication.c ****                 charNotificationEnabled = writeParam.handleValPair.value.val[0];  
 441              		.loc 1 273 0
 442 01ac 049B     		ldr	r3, [sp, #16]
 443 01ae 1B78     		ldrb	r3, [r3]
 444 01b0 414A     		ldr	r2, .L41+12
 445 01b2 1373     		strb	r3, [r2, #12]
 274:.\BLEApplication.c ****                 if(charNotificationEnabled)
 446              		.loc 1 274 0
 447 01b4 002B     		cmp	r3, #0
 448 01b6 06D0     		beq	.L34
 275:.\BLEApplication.c ****                 {               
 276:.\BLEApplication.c ****                     CommandMode=THROUGHT_MODE;
 449              		.loc 1 276 0
 450 01b8 0122     		mov	r2, #1
 451 01ba 3F4B     		ldr	r3, .L41+12
 452 01bc 1A71     		strb	r2, [r3, #4]
 277:.\BLEApplication.c ****                     printf("+MODE=<THROUGHT_MODE>\r\n");
 453              		.loc 1 277 0
 454 01be 4A48     		ldr	r0, .L41+60
 455 01c0 FFF7FEFF 		bl	puts
 456              	.LVL42:
 457 01c4 6FE0     		b	.L1
 458              	.L34:
 278:.\BLEApplication.c ****                 }
 279:.\BLEApplication.c ****                 else
 280:.\BLEApplication.c ****                 {
 281:.\BLEApplication.c ****                     CommandMode=AT_COMMAND_MODE;
ARM GAS  C:\Users\Helon\AppData\Local\Temp\ccoPKzhl.s 			page 14


 459              		.loc 1 281 0
 460 01c6 0022     		mov	r2, #0
 461 01c8 3B4B     		ldr	r3, .L41+12
 462 01ca 1A71     		strb	r2, [r3, #4]
 282:.\BLEApplication.c ****                     printf("+MODE=<AT_COMMAND_MODE>\r\n");
 463              		.loc 1 282 0
 464 01cc 4748     		ldr	r0, .L41+64
 465 01ce FFF7FEFF 		bl	puts
 466              	.LVL43:
 467 01d2 68E0     		b	.L1
 468              	.LVL44:
 469              	.L20:
 283:.\BLEApplication.c ****                 }
 284:.\BLEApplication.c ****             }   
 285:.\BLEApplication.c ****         break;
 286:.\BLEApplication.c ****         /* Check if the Client Characteristic Configuration Descriptor is
 287:.\BLEApplication.c ****          * written to. Notification is enabled or disabled accordingly.
 288:.\BLEApplication.c ****         */
 289:.\BLEApplication.c **** //            ‰ªéÊú∫Êé•Êî∂‰∏ªÊú∫ÁöÑÂÜôËØ∑Ê±ÇÔºåÂπ∂‰∏î‰ªéÊú∫Ë¶ÅÊúâÂÜôÂìçÂ∫î
 290:.\BLEApplication.c ****         case CYBLE_EVT_GATTS_WRITE_REQ:
 291:.\BLEApplication.c **** //            writeParam = *(CYBLE_GATTS_WRITE_REQ_PARAM_T *)eventParam;
 292:.\BLEApplication.c **** //            //Ëá™ÂÆö‰πâÊúçÂä°ÁöÑCUSTOM Characteristic
 293:.\BLEApplication.c **** //            if(writeParam.handleValPair.attrHandle == 
 294:.\BLEApplication.c **** //               CYBLE_TROUGHPUT_SERVICE_CUSTOM_CHARACTERISTIC_CHAR_HANDLE)
 295:.\BLEApplication.c **** //            {
 296:.\BLEApplication.c **** //                testCount+=writeParam.handleValPair.value.len;
 297:.\BLEApplication.c **** ////                UART_SpiUartWriteTxData(testCount);
 298:.\BLEApplication.c **** ////                printf("%ld\r\n",testCount);
 299:.\BLEApplication.c **** ////                printf("+RX=<0x");
 300:.\BLEApplication.c **** ////                for(i=0;i<writeParam.handleValPair.value.len;i++)
 301:.\BLEApplication.c **** ////                {
 302:.\BLEApplication.c **** ////                    printf("%02X",writeParam.handleValPair.value.val[i]);
 303:.\BLEApplication.c **** ////                }
 304:.\BLEApplication.c **** ////                printf(">\r\n");
 305:.\BLEApplication.c **** //            } 
 306:.\BLEApplication.c **** //            //Ëá™ÂÆö‰πâÊúçÂä°ÁöÑClient Characteristic
 307:.\BLEApplication.c **** //            if(writeParam.handleValPair.attrHandle == 
 308:.\BLEApplication.c **** //               CYBLE_TROUGHPUT_SERVICE_CUSTOM_CHARACTERISTIC_CLIENT_CHARACTERISTIC_CONFIGURATION_
 309:.\BLEApplication.c **** //            {
 310:.\BLEApplication.c **** //                charNotificationEnabled = writeParam.handleValPair.value.val[0];  
 311:.\BLEApplication.c **** //                if(charNotificationEnabled)
 312:.\BLEApplication.c **** //                {               
 313:.\BLEApplication.c **** //                    CommandMode=THROUGHT_MODE;
 314:.\BLEApplication.c **** //                    printf("+MODE=<THROUGHT_MODE>\r\n");
 315:.\BLEApplication.c **** //                }
 316:.\BLEApplication.c **** //                else
 317:.\BLEApplication.c **** //                {
 318:.\BLEApplication.c **** //                    CommandMode=AT_COMMAND_MODE;
 319:.\BLEApplication.c **** //                    printf("+MODE=<AT_COMMAND_MODE>\r\n");
 320:.\BLEApplication.c **** //                }
 321:.\BLEApplication.c **** //            }   
 322:.\BLEApplication.c **** //            //Ëá™ÂÆö‰πâÊúçÂä°ÁöÑSPEEDTEST Characteristic
 323:.\BLEApplication.c **** //            if(writeParam.handleValPair.attrHandle == 
 324:.\BLEApplication.c **** //               CYBLE_TROUGHPUT_SERVICE_SPEEDTEST_CHAR_HANDLE)
 325:.\BLEApplication.c **** //            {
 326:.\BLEApplication.c **** //                TroughtTest_Flag = writeParam.handleValPair.value.val[0];                
 327:.\BLEApplication.c **** //            }               
ARM GAS  C:\Users\Helon\AppData\Local\Temp\ccoPKzhl.s 			page 15


 328:.\BLEApplication.c **** //            CyBle_GattsWriteRsp(cyBle_connHandle);
 329:.\BLEApplication.c ****         break;
 330:.\BLEApplication.c **** //        ÂÅö‰∏∫‰∏ªÊú∫Êó∂ÔºåÊé•Êî∂Âà∞‰ªéÊú∫ÁöÑÂÜôÂìçÂ∫î
 331:.\BLEApplication.c ****         case CYBLE_EVT_GATTC_WRITE_RSP:
 332:.\BLEApplication.c ****             /* Write response for the CCCD write; this means that the
 333:.\BLEApplication.c ****              * notifications are now enabled.
 334:.\BLEApplication.c ****              * Start timing measurements to calculate throughput.
 335:.\BLEApplication.c ****              */
 336:.\BLEApplication.c **** //            if(TroughtTest_Flag)//‰ªÖ‰ªÖÂìçÂ∫îÊµãËØïÈÄè‰º†ÈÄüÁéáÊåá‰ª§,ÂÖ∂‰ªñÂÜôËØ∑Ê±Ç‰∏çÂìçÂ∫î
 337:.\BLEApplication.c **** //            {                
 338:.\BLEApplication.c **** ////                TroughtTest_Flag=FALSE;
 339:.\BLEApplication.c **** //                UART_UartPutString("Calculating throughput. Please wait...\n\r");
 340:.\BLEApplication.c **** //                Timer_Enable();
 341:.\BLEApplication.c **** //            }
 342:.\BLEApplication.c ****         break;
 343:.\BLEApplication.c **** //        case CYBLE_EVT_GATTC_READ_RSP:
 344:.\BLEApplication.c **** //            readParam=*(CYBLE_GATTC_READ_RSP_PARAM_T*)eventParam;
 345:.\BLEApplication.c **** //            if((readParam.value.val[0]))
 346:.\BLEApplication.c **** //                printf("+NOTIFY=<ENABLE>\r\n");
 347:.\BLEApplication.c **** //            else
 348:.\BLEApplication.c **** //                printf("+NOTIFY=<DISABLE>\r\n");
 349:.\BLEApplication.c **** //        break;
 350:.\BLEApplication.c **** //        Êé•Êî∂‰ªéÊú∫ÂèëÈÄÅËøáÊù•ÁöÑÈÄè‰º†Êï∞ÊçÆ            
 351:.\BLEApplication.c ****         case CYBLE_EVT_GATTC_HANDLE_VALUE_NTF:
 352:.\BLEApplication.c ****             if(TroughtTest_Flag==TRUE)
 470              		.loc 1 352 0
 471 01d4 384B     		ldr	r3, .L41+12
 472 01d6 5B7B     		ldrb	r3, [r3, #13]
 473 01d8 012B     		cmp	r3, #1
 474 01da 0DD1     		bne	.L35
 353:.\BLEApplication.c ****             {
 354:.\BLEApplication.c ****                 if(Central==Role)//‰ªÖÊµãËØïÈÄè‰º†ÈÄüÁéáÊó∂ÊúâÊïà
 475              		.loc 1 354 0
 476 01dc 364B     		ldr	r3, .L41+12
 477 01de 5B78     		ldrb	r3, [r3, #1]
 478 01e0 012B     		cmp	r3, #1
 479 01e2 60D1     		bne	.L1
 480              	.LVL45:
 355:.\BLEApplication.c ****                 {
 356:.\BLEApplication.c ****                     handleValueNotification = (CYBLE_GATTC_HANDLE_VALUE_NTF_PARAM_T *)eventParam;
 357:.\BLEApplication.c ****                     if(handleValueNotification->handleValPair.attrHandle == 0x000E)//NotifyÊùÉÈôêÁö
 481              		.loc 1 357 0
 482 01e4 8B89     		ldrh	r3, [r1, #12]
 483 01e6 0E2B     		cmp	r3, #14
 484 01e8 5DD1     		bne	.L1
 358:.\BLEApplication.c ****                     {
 359:.\BLEApplication.c ****         //                printf("Len is %d",handleValueNotification->handleValPair.value.len);
 360:.\BLEApplication.c ****                         totalByteCounter += handleValueNotification->handleValPair.value.len;
 485              		.loc 1 360 0
 486 01ea 0B89     		ldrh	r3, [r1, #8]
 487 01ec 324A     		ldr	r2, .L41+12
 488 01ee 1169     		ldr	r1, [r2, #16]
 489              	.LVL46:
 490 01f0 8C46     		mov	ip, r1
 491 01f2 6344     		add	r3, r3, ip
 492 01f4 1361     		str	r3, [r2, #16]
 493 01f6 56E0     		b	.L1
ARM GAS  C:\Users\Helon\AppData\Local\Temp\ccoPKzhl.s 			page 16


 494              	.LVL47:
 495              	.L35:
 361:.\BLEApplication.c ****                     }
 362:.\BLEApplication.c ****     //                printf("ReceviceNotification\r\n");
 363:.\BLEApplication.c ****                 }
 364:.\BLEApplication.c ****             }
 365:.\BLEApplication.c ****             else
 366:.\BLEApplication.c ****             {
 367:.\BLEApplication.c ****                 if(Central==Role)//Êé•Êî∂‰ªéÊú∫ÂèëÈÄÅËøáÊù•ÁöÑÈÄè‰º†Êï∞ÊçÆ
 496              		.loc 1 367 0
 497 01f8 2F4B     		ldr	r3, .L41+12
 498 01fa 5B78     		ldrb	r3, [r3, #1]
 499 01fc 012B     		cmp	r3, #1
 500 01fe 52D1     		bne	.L1
 501              	.LVL48:
 368:.\BLEApplication.c ****                 {
 369:.\BLEApplication.c ****                     handleValueNotification = (CYBLE_GATTC_HANDLE_VALUE_NTF_PARAM_T *)eventParam;
 370:.\BLEApplication.c ****                     if(handleValueNotification->handleValPair.attrHandle == 0x000E)//NotifyÊùÉÈôêÁö
 502              		.loc 1 370 0
 503 0200 8B89     		ldrh	r3, [r1, #12]
 504 0202 0E2B     		cmp	r3, #14
 505 0204 4FD1     		bne	.L1
 371:.\BLEApplication.c ****                     {
 372:.\BLEApplication.c ****         //                printf("Len is %d",handleValueNotification->handleValPair.value.len);
 373:.\BLEApplication.c ****     //                    totalByteCounter += handleValueNotification->handleValPair.value.len;
 374:.\BLEApplication.c ****     //                    printf("%ld\r\n",totalByteCounter);
 375:.\BLEApplication.c **** //                        printf("+RX=<0x");
 376:.\BLEApplication.c ****                           if(CommandMode==THROUGHT_MODE)
 506              		.loc 1 376 0
 507 0206 2C4B     		ldr	r3, .L41+12
 508 0208 1B79     		ldrb	r3, [r3, #4]
 509 020a 012B     		cmp	r3, #1
 510 020c 4BD1     		bne	.L1
 511 020e 06E0     		b	.L40
 512              	.LVL49:
 513              	.L37:
 377:.\BLEApplication.c ****                           {
 378:.\BLEApplication.c ****                             for(i=0;i<handleValueNotification->handleValPair.value.len;i++)
 379:.\BLEApplication.c ****                             {
 380:.\BLEApplication.c ****     //                            printf("%02X",handleValueNotification->handleValPair.value.val[i]
 381:.\BLEApplication.c ****                                 UART_UartPutChar(handleValueNotification->handleValPair.value.val[i
 514              		.loc 1 381 0 discriminator 3
 515 0210 6368     		ldr	r3, [r4, #4]
 516 0212 585D     		ldrb	r0, [r3, r5]
 517 0214 FFF7FEFF 		bl	UART_SpiUartWriteTxData
 518              	.LVL50:
 378:.\BLEApplication.c ****                             {
 519              		.loc 1 378 0 discriminator 3
 520 0218 0135     		add	r5, r5, #1
 521              	.LVL51:
 522 021a EDB2     		uxtb	r5, r5
 523              	.LVL52:
 524 021c 00E0     		b	.L36
 525              	.LVL53:
 526              	.L40:
 527 021e 0025     		mov	r5, #0
 528              	.LVL54:
ARM GAS  C:\Users\Helon\AppData\Local\Temp\ccoPKzhl.s 			page 17


 529              	.L36:
 378:.\BLEApplication.c ****                             {
 530              		.loc 1 378 0 is_stmt 0 discriminator 1
 531 0220 ABB2     		uxth	r3, r5
 532 0222 2289     		ldrh	r2, [r4, #8]
 533 0224 9342     		cmp	r3, r2
 534 0226 F3D3     		bcc	.L37
 535 0228 3DE0     		b	.L1
 536              	.LVL55:
 537              	.L18:
 382:.\BLEApplication.c ****                             }
 383:.\BLEApplication.c ****                           }
 384:.\BLEApplication.c **** //                        printf("\r\n");
 385:.\BLEApplication.c ****                     }
 386:.\BLEApplication.c ****                 }
 387:.\BLEApplication.c ****             }
 388:.\BLEApplication.c ****             break;
 389:.\BLEApplication.c **** //        case CYBLE_EVT_GATTC_READ_BY_TYPE_RSP:
 390:.\BLEApplication.c **** //            DisAllCharResult=*((CYBLE_GATTC_READ_BY_TYPE_RSP_PARAM_T*)eventParam);
 391:.\BLEApplication.c **** //            printf("characteristic declaration is 0x%04X\r\n",DisAllCharResult.connHandle.bdHandl
 392:.\BLEApplication.c **** //            printf("attrLen is %d\r\n",DisAllCharResult.attrData.attrLen);   
 393:.\BLEApplication.c **** //            for(i=0;i<DisAllCharResult.attrData.attrLen;)
 394:.\BLEApplication.c **** //            {
 395:.\BLEApplication.c **** //                printf("Attribute Handle is 0x%02X%02X\r\n",DisAllCharResult.attrData.attrValue[i
 396:.\BLEApplication.c **** //                printf("Properties is 0x%02X\r\n",DisAllCharResult.attrData.attrValue[i+2]); 
 397:.\BLEApplication.c **** //                printf("Pointer Handle is 0x%02X%02X\r\n",DisAllCharResult.attrData.attrValue[i+4
 398:.\BLEApplication.c **** //                printf("UUID is 0x%02X%02X\r\n",DisAllCharResult.attrData.attrValue[i+6],DisAllCh
 399:.\BLEApplication.c **** //                i+=7;
 400:.\BLEApplication.c **** //            }
 401:.\BLEApplication.c **** ////            printf("uuid16 is 0x%04X\r\n",DisAllCharResult.uuid.uuid16); 
 402:.\BLEApplication.c **** ////            printf("uuidFormat is 0x%04X\r\n",DisAllCharResult.uuidFormat); 
 403:.\BLEApplication.c **** ////            printf("valueHandle is 0x%04X\r\n",DisAllCharResult.valueHandle);            
 404:.\BLEApplication.c **** //        break;
 405:.\BLEApplication.c **** //        Êü•ÊâæServerÁöÑÊâÄÊúâÁâπÂæÅÂÄº
 406:.\BLEApplication.c ****         case CYBLE_EVT_GATTC_FIND_INFO_RSP:
 407:.\BLEApplication.c ****             DisAllCharResult=*((CYBLE_GATTC_FIND_INFO_RSP_PARAM_T *)eventParam);
 538              		.loc 1 407 0 is_stmt 1
 539 022a 07AB     		add	r3, sp, #28
 540 022c 07CC     		ldmia	r4!, {r0, r1, r2}
 541 022e 07C3     		stmia	r3!, {r0, r1, r2}
 542              	.LVL56:
 543 0230 1A1C     		mov	r2, r3
 544 0232 2368     		ldr	r3, [r4]
 545 0234 1360     		str	r3, [r2]
 408:.\BLEApplication.c **** //            printf("+DISALLCHAR=<0x%02X%02X,",);
 409:.\BLEApplication.c **** //            printf("connHandle is 0x%04X\r\n",DisAllCharResult.connHandle.bdHandle);
 410:.\BLEApplication.c **** //            printf("uuidFormat is %d\r\n",DisAllCharResult.uuidFormat);
 411:.\BLEApplication.c **** //            printf("byteCount is %d\r\n",DisAllCharResult.handleValueList.byteCount);
 412:.\BLEApplication.c ****             for(i=0;i<DisAllCharResult.handleValueList.byteCount;)
 546              		.loc 1 412 0
 547 0236 0024     		mov	r4, #0
 548              	.LVL57:
 549 0238 0BE0     		b	.L38
 550              	.LVL58:
 551              	.L39:
 413:.\BLEApplication.c ****             {                
 414:.\BLEApplication.c ****                 printf("+DIS_EVT=<0x%02X%02X,0x%02X%02X>\r\n",
ARM GAS  C:\Users\Helon\AppData\Local\Temp\ccoPKzhl.s 			page 18


 415:.\BLEApplication.c ****                     DisAllCharResult.handleValueList.list[i+1],DisAllCharResult.handleValueList.lis
 552              		.loc 1 415 0
 553 023a 089B     		ldr	r3, [sp, #32]
 554 023c 1819     		add	r0, r3, r4
 555 023e 4178     		ldrb	r1, [r0, #1]
 556 0240 1A5D     		ldrb	r2, [r3, r4]
 416:.\BLEApplication.c ****                     DisAllCharResult.handleValueList.list[i+3],DisAllCharResult.handleValueList.lis
 557              		.loc 1 416 0
 558 0242 C378     		ldrb	r3, [r0, #3]
 559 0244 8078     		ldrb	r0, [r0, #2]
 414:.\BLEApplication.c ****                     DisAllCharResult.handleValueList.list[i+1],DisAllCharResult.handleValueList.lis
 560              		.loc 1 414 0
 561 0246 0090     		str	r0, [sp]
 562 0248 2948     		ldr	r0, .L41+68
 563 024a FFF7FEFF 		bl	printf
 564              	.LVL59:
 417:.\BLEApplication.c ****                 i=i+4;
 565              		.loc 1 417 0
 566 024e 0434     		add	r4, r4, #4
 567              	.LVL60:
 568 0250 E4B2     		uxtb	r4, r4
 569              	.LVL61:
 570              	.L38:
 412:.\BLEApplication.c ****             {                
 571              		.loc 1 412 0 discriminator 1
 572 0252 A3B2     		uxth	r3, r4
 573 0254 07AA     		add	r2, sp, #28
 574 0256 1289     		ldrh	r2, [r2, #8]
 575 0258 9342     		cmp	r3, r2
 576 025a EED3     		bcc	.L39
 577 025c 23E0     		b	.L1
 578              	.LVL62:
 579              	.L7:
 418:.\BLEApplication.c ****             }
 419:.\BLEApplication.c ****         break;
 420:.\BLEApplication.c ****         case CYBLE_EVT_GAP_AUTH_REQ:
 421:.\BLEApplication.c ****             if(Role==Peripheral)//‰ªéÊú∫Êé•Êî∂‰∏ªÊú∫ÂèëËµ∑ËÆ§ËØÅËØ∑Ê±Ç
 580              		.loc 1 421 0
 581 025e 164B     		ldr	r3, .L41+12
 582 0260 5B78     		ldrb	r3, [r3, #1]
 583 0262 002B     		cmp	r3, #0
 584 0264 1FD1     		bne	.L1
 422:.\BLEApplication.c ****             {
 423:.\BLEApplication.c ****                 CyBle_GappAuthReqReply(cyBle_connHandle.bdHandle,&cyBle_authInfo);
 585              		.loc 1 423 0
 586 0266 194B     		ldr	r3, .L41+32
 587 0268 1878     		ldrb	r0, [r3]
 588 026a 2249     		ldr	r1, .L41+72
 589              	.LVL63:
 590 026c FFF7FEFF 		bl	CyBle_GappAuthReqReply
 591              	.LVL64:
 592 0270 19E0     		b	.L1
 593              	.LVL65:
 594              	.L9:
 424:.\BLEApplication.c ****             }
 425:.\BLEApplication.c ****             else
 426:.\BLEApplication.c ****             {
ARM GAS  C:\Users\Helon\AppData\Local\Temp\ccoPKzhl.s 			page 19


 427:.\BLEApplication.c **** //                CyBle_GappAuthReq();
 428:.\BLEApplication.c ****             }
 429:.\BLEApplication.c ****         break;    
 430:.\BLEApplication.c ****         case CYBLE_EVT_GAP_PASSKEY_DISPLAY_REQUEST://ÊòæÁ§∫ÈöèÊú∫‰∫ßÁîüÁöÑÈÖçÂØπÁ†Å
 431:.\BLEApplication.c **** //            PassKey=*(uint32*)eventParam;            
 432:.\BLEApplication.c ****             printf("+AUTHKEY=<%lu>\r\n",*(uint32 *)eventParam);
 595              		.loc 1 432 0
 596 0272 0968     		ldr	r1, [r1]
 597              	.LVL66:
 598 0274 2048     		ldr	r0, .L41+76
 599 0276 FFF7FEFF 		bl	printf
 600              	.LVL67:
 433:.\BLEApplication.c ****         break;
 601              		.loc 1 433 0
 602 027a 14E0     		b	.L1
 603              	.LVL68:
 604              	.L8:
 434:.\BLEApplication.c ****         case CYBLE_EVT_GAP_PASSKEY_ENTRY_REQUEST:
 435:.\BLEApplication.c ****             KEYBOARD=TURE;//Ê†áËÆ∞Ê≠§Êó∂Ê≠§ËÆæÂ§áÂÖ∑ÊúâËæìÂÖ•ËÉΩÂäõ
 605              		.loc 1 435 0
 606 027c 0122     		mov	r2, #1
 607 027e 0E4B     		ldr	r3, .L41+12
 608 0280 1A75     		strb	r2, [r3, #20]
 436:.\BLEApplication.c ****             printf("Please Input PassKey:\r\n");            
 609              		.loc 1 436 0
 610 0282 1E48     		ldr	r0, .L41+80
 611 0284 FFF7FEFF 		bl	puts
 612              	.LVL69:
 437:.\BLEApplication.c ****         break;
 613              		.loc 1 437 0
 614 0288 0DE0     		b	.L1
 615              	.LVL70:
 616              	.L10:
 438:.\BLEApplication.c ****         case CYBLE_EVT_GAP_AUTH_COMPLETE:
 439:.\BLEApplication.c ****              printf("+AUTH=OK\r\n");
 617              		.loc 1 439 0
 618 028a 1D48     		ldr	r0, .L41+84
 619 028c FFF7FEFF 		bl	puts
 620              	.LVL71:
 440:.\BLEApplication.c ****              AUTHFLAG=TURE;
 621              		.loc 1 440 0
 622 0290 0122     		mov	r2, #1
 623 0292 094B     		ldr	r3, .L41+12
 624 0294 DA70     		strb	r2, [r3, #3]
 441:.\BLEApplication.c ****         break;
 625              		.loc 1 441 0
 626 0296 06E0     		b	.L1
 627              	.LVL72:
 628              	.L11:
 442:.\BLEApplication.c ****         case CYBLE_EVT_GAP_AUTH_FAILED:            
 443:.\BLEApplication.c ****             printf("AT+ERR=%d\r\n",*(CYBLE_GAP_AUTH_FAILED_REASON_T*)eventParam);
 629              		.loc 1 443 0
 630 0298 0978     		ldrb	r1, [r1]
 631              	.LVL73:
 632 029a 1A48     		ldr	r0, .L41+88
 633 029c FFF7FEFF 		bl	printf
 634              	.LVL74:
ARM GAS  C:\Users\Helon\AppData\Local\Temp\ccoPKzhl.s 			page 20


 444:.\BLEApplication.c ****             AUTHFLAG=FALSE;
 635              		.loc 1 444 0
 636 02a0 0022     		mov	r2, #0
 637 02a2 054B     		ldr	r3, .L41+12
 638 02a4 DA70     		strb	r2, [r3, #3]
 639              	.LVL75:
 640              	.L1:
 445:.\BLEApplication.c ****         break;
 446:.\BLEApplication.c ****         default:
 447:.\BLEApplication.c ****         break;
 448:.\BLEApplication.c ****     
 449:.\BLEApplication.c ****     }
 450:.\BLEApplication.c **** }
 641              		.loc 1 450 0
 642 02a6 10B0     		add	sp, sp, #64
 643              		@ sp needed
 644 02a8 70BD     		pop	{r4, r5, r6, pc}
 645              	.L42:
 646 02aa C046     		.align	2
 647              	.L41:
 648 02ac 00000000 		.word	.L4
 649 02b0 00000000 		.word	.LC1
 650 02b4 08022440 		.word	1076101640
 651 02b8 00000000 		.word	.LANCHOR0
 652 02bc 10000000 		.word	.LC4
 653 02c0 1C000000 		.word	.LC6
 654 02c4 00000000 		.word	ConnParam
 655 02c8 28000000 		.word	.LC9
 656 02cc 00000000 		.word	cyBle_connHandle
 657 02d0 00000000 		.word	.LANCHOR1
 658 02d4 38000000 		.word	.LC13
 659 02d8 00000000 		.word	.LC35
 660 02dc 00000000 		.word	cyBle_discoveryModeInfo
 661 02e0 4C000000 		.word	.LC16
 662 02e4 64000000 		.word	.LC18
 663 02e8 80000000 		.word	.LC20
 664 02ec 98000000 		.word	.LC22
 665 02f0 B4000000 		.word	.LC24
 666 02f4 00000000 		.word	cyBle_authInfo
 667 02f8 D8000000 		.word	.LC27
 668 02fc EC000000 		.word	.LC29
 669 0300 04010000 		.word	.LC31
 670 0304 10010000 		.word	.LC33
 671              		.cfi_endproc
 672              	.LFE35:
 673              		.size	StackEventHandler, .-StackEventHandler
 674              		.section	.text.MyTimerIsr,"ax",%progbits
 675              		.align	2
 676              		.global	MyTimerIsr
 677              		.code	16
 678              		.thumb_func
 679              		.type	MyTimerIsr, %function
 680              	MyTimerIsr:
 681              	.LFB45:
 451:.\BLEApplication.c **** 
 452:.\BLEApplication.c **** 
 453:.\BLEApplication.c **** /******************************************************************************
ARM GAS  C:\Users\Helon\AppData\Local\Temp\ccoPKzhl.s 			page 21


 454:.\BLEApplication.c **** * Function Name: LowPowerManagement
 455:.\BLEApplication.c **** ***************************************************************************//**
 456:.\BLEApplication.c **** * 
 457:.\BLEApplication.c **** *  BLE‰ΩéÂäüËÄóÁÆ°ÁêÜ
 458:.\BLEApplication.c **** * 
 459:.\BLEApplication.c **** * \return
 460:.\BLEApplication.c **** *  None
 461:.\BLEApplication.c **** * 
 462:.\BLEApplication.c **** ******************************************************************************/
 463:.\BLEApplication.c **** //uint8_t size=0,ch[10]={0},i=0;
 464:.\BLEApplication.c **** void LowPowerManagement(void)
 465:.\BLEApplication.c **** {
 466:.\BLEApplication.c ****     /* Local variable to store the status of BLESS Hardware block */
 467:.\BLEApplication.c **** 		CYBLE_LP_MODE_T sleepMode;
 468:.\BLEApplication.c **** 		CYBLE_BLESS_STATE_T blessState;
 469:.\BLEApplication.c **** 	
 470:.\BLEApplication.c **** 		/* Put BLESS into Deep Sleep and check the return status */
 471:.\BLEApplication.c **** 		sleepMode = CyBle_EnterLPM(CYBLE_BLESS_DEEPSLEEP);
 472:.\BLEApplication.c **** 		
 473:.\BLEApplication.c **** 		/* Disable global interrupt to prevent changes from any other interrupt ISR */
 474:.\BLEApplication.c **** 		CyGlobalIntDisable;
 475:.\BLEApplication.c **** 	
 476:.\BLEApplication.c **** 		/* Check the Status of BLESS */
 477:.\BLEApplication.c **** 		blessState = CyBle_GetBleSsState();
 478:.\BLEApplication.c **** 
 479:.\BLEApplication.c **** 		if(sleepMode == CYBLE_BLESS_DEEPSLEEP)
 480:.\BLEApplication.c **** 		{
 481:.\BLEApplication.c **** 		    /* If the ECO has started or the BLESS can go to Deep Sleep, then place CPU 
 482:.\BLEApplication.c **** 			* to Deep Sleep */
 483:.\BLEApplication.c **** 			if(blessState == CYBLE_BLESS_STATE_ECO_ON || blessState == CYBLE_BLESS_STATE_DEEPSLEEP)
 484:.\BLEApplication.c **** 		    {
 485:.\BLEApplication.c **** //                printf("Device is going into DeepSleep!\r\n");
 486:.\BLEApplication.c ****                 Status_LED_Write(LED_ON);             
 487:.\BLEApplication.c ****                 while((UART_SpiUartGetTxBufferSize() + UART_GET_TX_FIFO_SR_VALID) != 0);//Á≠âÂæÖ‰∏≤
 488:.\BLEApplication.c ****                 UART_Sleep();
 489:.\BLEApplication.c **** 		        CySysPmDeepSleep();
 490:.\BLEApplication.c ****                 UART_Wakeup();
 491:.\BLEApplication.c ****                 CyDelay(5);
 492:.\BLEApplication.c ****                 UART_SpiUartClearRxBuffer();//Ê∏ÖÈô§‰∏≤Âè£Êé•Êî∂ÁºìÂÜ≤Âå∫
 493:.\BLEApplication.c ****                 UART_RX_WAKEUP_IRQ_ClearPending();
 494:.\BLEApplication.c **** //                UART_SCB_IRQ_ClearPending();
 495:.\BLEApplication.c ****                 UART_rx_wake_ClearInterrupt();                
 496:.\BLEApplication.c **** //                UART_RX_WAKEUP_IRQ_Disable();
 497:.\BLEApplication.c **** //                UART_UartPutString("Device is WakeUp!\r\n");                
 498:.\BLEApplication.c **** //                Âî§ÈÜíÂêé‰ΩøËÉΩ‰∏≤Âè£Êé•Êî∂‰∏≠Êñ≠
 499:.\BLEApplication.c **** //                  UART_SetCustomInterruptHandler(My_ISR_UART);            
 500:.\BLEApplication.c ****                 LowPower_EN=FALSE;
 501:.\BLEApplication.c ****                 Status_LED_Write(LED_OFF);  
 502:.\BLEApplication.c **** 
 503:.\BLEApplication.c **** 		 	}
 504:.\BLEApplication.c **** 		}
 505:.\BLEApplication.c **** 		else if(sleepMode == CYBLE_BLESS_SLEEP)
 506:.\BLEApplication.c **** 		{
 507:.\BLEApplication.c **** 		    if(blessState != CYBLE_BLESS_STATE_EVENT_CLOSE)
 508:.\BLEApplication.c **** 		    {
 509:.\BLEApplication.c **** 				/* If the BLESS hardware block cannot go to Deep Sleep and BLE Event has not 
 510:.\BLEApplication.c **** 				* closed yet, then place CPU to Sleep */ 
ARM GAS  C:\Users\Helon\AppData\Local\Temp\ccoPKzhl.s 			page 22


 511:.\BLEApplication.c **** 		        CySysPmSleep();  
 512:.\BLEApplication.c **** 		    }
 513:.\BLEApplication.c **** 		}
 514:.\BLEApplication.c **** 		/* Re-enable global interrupt mask after wakeup */
 515:.\BLEApplication.c **** 		CyGlobalIntEnable;           
 516:.\BLEApplication.c ****         
 517:.\BLEApplication.c **** }
 518:.\BLEApplication.c **** 
 519:.\BLEApplication.c **** /******************************************************************************
 520:.\BLEApplication.c **** * Function Name: MY_ISR_USERBUTTON
 521:.\BLEApplication.c **** ***************************************************************************//**
 522:.\BLEApplication.c **** * 
 523:.\BLEApplication.c **** *  Âî§ÈÜíÊåâÈîÆ‰∏≠Êñ≠Â§ÑÁêÜÂáΩÊï∞
 524:.\BLEApplication.c **** * 
 525:.\BLEApplication.c **** * \return
 526:.\BLEApplication.c **** *  None
 527:.\BLEApplication.c **** * 
 528:.\BLEApplication.c **** ******************************************************************************/
 529:.\BLEApplication.c **** CY_ISR(MY_ISR_USERBUTTON)
 530:.\BLEApplication.c **** {
 531:.\BLEApplication.c **** //    isr_UserButton_ClearPending();
 532:.\BLEApplication.c **** //    UserButton_ClearInterrupt();
 533:.\BLEApplication.c **** ////    Ê∏ÖÈô§‰∏≤Âè£Êé•Êî∂ÁºìÂÜ≤Âå∫,Èò≤Ê≠¢‰øÆÊîπ‰∫Ü‰∏≤Âè£Ê≥¢ÁâπÁéá‰πãÂêé,ÂèëÈÄÅÁ´ØÊú™ÂèäÊó∂Áõ∏Â∫îÁö
 534:.\BLEApplication.c **** //    memset(RX_BUFFER,0,sizeof(RX_BUFFER));
 535:.\BLEApplication.c **** //    Buffer_Length=0;
 536:.\BLEApplication.c **** //    if(Peripheral==Role)
 537:.\BLEApplication.c **** //    {
 538:.\BLEApplication.c **** //        CyBle_GappStartAdvertisement(CYBLE_ADVERTISING_FAST);
 539:.\BLEApplication.c **** //    }
 540:.\BLEApplication.c **** //    StartScan=TRUE;
 541:.\BLEApplication.c **** //    printf("test!\r\n");
 542:.\BLEApplication.c **** }
 543:.\BLEApplication.c **** /******************************************************************************
 544:.\BLEApplication.c **** * Function Name: My_ISR_UART
 545:.\BLEApplication.c **** ***************************************************************************//**
 546:.\BLEApplication.c **** * 
 547:.\BLEApplication.c **** *  ‰∏≤Âè£Êé•Êî∂‰∏≠Êñ≠Â§ÑÁêÜÂáΩÊï∞
 548:.\BLEApplication.c **** * 
 549:.\BLEApplication.c **** * \return
 550:.\BLEApplication.c **** *  None
 551:.\BLEApplication.c **** * 
 552:.\BLEApplication.c **** ******************************************************************************/
 553:.\BLEApplication.c **** CY_ISR(My_ISR_UART)
 554:.\BLEApplication.c **** {
 555:.\BLEApplication.c **** //    uint8_t rxdata;
 556:.\BLEApplication.c ****     if(UART_GetRxInterruptSourceMasked()&UART_INTR_RX_NOT_EMPTY)//Âà§Êñ≠Êé•Êî∂‰∏≠Êñ≠ÁöÑÁ±ªÂûã
 557:.\BLEApplication.c ****     {
 558:.\BLEApplication.c ****         rx_isover=TURE;
 559:.\BLEApplication.c ****         //ËØªÂèñ‰∏≤Âè£Êï∞ÊçÆ
 560:.\BLEApplication.c **** //        rxdata=UART_UartGetByte();
 561:.\BLEApplication.c **** //        if(rxdata!='\n')
 562:.\BLEApplication.c **** //        {
 563:.\BLEApplication.c **** //          RX_BUFFER[Buffer_Length]=rxdata;//ËØªÂèñ‰∏≤Âè£Êé•Êî∂ÁºìÂÜ≤Âå∫ÁöÑÊï∞ÊçÆ
 564:.\BLEApplication.c **** //          Buffer_Length++;
 565:.\BLEApplication.c **** //        }
 566:.\BLEApplication.c **** //        else
 567:.\BLEApplication.c **** //        {          
ARM GAS  C:\Users\Helon\AppData\Local\Temp\ccoPKzhl.s 			page 23


 568:.\BLEApplication.c **** //          RX_BUFFER[Buffer_Length]=rxdata;//ËØªÂèñ‰∏≤Âè£Êé•Êî∂ÁºìÂÜ≤Âå∫ÁöÑÊï∞ÊçÆ
 569:.\BLEApplication.c **** //          rx_isover=TURE;
 570:.\BLEApplication.c **** //        }
 571:.\BLEApplication.c ****     }
 572:.\BLEApplication.c **** //    UART_SpiUartClearRxBuffer();//Ê∏ÖÈô§‰∏≤Âè£Êé•Êî∂ÁºìÂÜ≤Âå∫
 573:.\BLEApplication.c **** //    UART_RX_WAKEUP_IRQ_ClearPending();
 574:.\BLEApplication.c **** //    UART_SCB_IRQ_ClearPending();
 575:.\BLEApplication.c **** //    UART_rx_wake_ClearInterrupt();    
 576:.\BLEApplication.c ****     UART_ClearRxInterruptSource(UART_INTR_RX_NOT_EMPTY);
 577:.\BLEApplication.c ****   
 578:.\BLEApplication.c **** }
 579:.\BLEApplication.c **** 
 580:.\BLEApplication.c **** /******************************************************************************
 581:.\BLEApplication.c **** * Function Name: SystemInitialization
 582:.\BLEApplication.c **** ***************************************************************************//**
 583:.\BLEApplication.c **** * 
 584:.\BLEApplication.c **** *  BLEÂçèËÆÆÊ†à„ÄÅÂ§ñËÆæÂàùÂßãÂåñ
 585:.\BLEApplication.c **** * 
 586:.\BLEApplication.c **** * \return
 587:.\BLEApplication.c **** *  None
 588:.\BLEApplication.c **** * 
 589:.\BLEApplication.c **** ******************************************************************************/
 590:.\BLEApplication.c **** void SystemInitialization(void)
 591:.\BLEApplication.c **** {
 592:.\BLEApplication.c **** //    ÊµÅÊéßÂºïËÑöÁöÑÂàùÂßãÂåñ
 593:.\BLEApplication.c ****     CTS_SetDriveMode(CTS_DM_STRONG);//ÊµÅÊéßÂºïËÑöËÆæÁΩÆ‰∏∫Êé®ÊåΩËæìÂá∫
 594:.\BLEApplication.c ****     CTS_Write(CTS_OFF);//ÊµÅÊéßÊòØ‰ΩéÁîµÂπ≥ÊúâÊïà
 595:.\BLEApplication.c **** //    uint16_t counter;
 596:.\BLEApplication.c ****     //Â≠òÊîæNotifyÂÄºÁöÑÊï∞ÁªÑÂàùÂßãÂåñ
 597:.\BLEApplication.c **** //    for(counter = 0; counter < 20; counter++)
 598:.\BLEApplication.c **** //    {
 599:.\BLEApplication.c **** //        buffer[counter] = counter;
 600:.\BLEApplication.c **** //    }
 601:.\BLEApplication.c **** //    ÂàùÂßãÂåñÂÜôËØ∑Ê±ÇÊï∞ÊçÆ
 602:.\BLEApplication.c ****     writeRequestData.attrHandle=CYBLE_TROUGHPUT_SERVICE_CUSTOM_CHARACTERISTIC_CLIENT_CHARACTERISTIC
 603:.\BLEApplication.c ****     writeRequestData.value=cccdNotifFlagSetStruct;
 604:.\BLEApplication.c **** //    ÂàùÂßãÂåñÂπøÊí≠Èó¥ÈöîÂíåÂπøÂëäË∂ÖÊó∂Êó∂Èó¥
 605:.\BLEApplication.c **** //    updateadvparam.advParam->advIntvMin=CYBLE_FAST_ADV_INT_MIN;
 606:.\BLEApplication.c **** //    updateadvparam.advParam->advIntvMax=CYBLE_FAST_ADV_INT_MAX;
 607:.\BLEApplication.c **** //    updateadvparam.advTo=CYBLE_FAST_ADV_TIMEOUT;
 608:.\BLEApplication.c **** //    ConfigUartInit();
 609:.\BLEApplication.c **** //    SetUartConfiguration(BAUD_9600);    
 610:.\BLEApplication.c ****     Timer_Init();
 611:.\BLEApplication.c ****     TimerInterrupt_StartEx(MyTimerIsr);
 612:.\BLEApplication.c ****     UART_Start();
 613:.\BLEApplication.c ****   //    UART_SCB_IRQ_StartEx(My_ISR_UART);   
 614:.\BLEApplication.c **** //    isr_UserButton_StartEx(MY_ISR_USERBUTTON);
 615:.\BLEApplication.c ****     LedInit();
 616:.\BLEApplication.c ****     CyBle_Start(StackEventHandler);
 617:.\BLEApplication.c ****     
 618:.\BLEApplication.c **** }
 619:.\BLEApplication.c **** 
 620:.\BLEApplication.c **** /******************************************************************************
 621:.\BLEApplication.c **** * Function Name: ConfigUartInit
 622:.\BLEApplication.c **** ***************************************************************************//**
 623:.\BLEApplication.c **** * 
 624:.\BLEApplication.c **** *  UARTÈÖçÁΩÆÂàùÂßãÂåñ
ARM GAS  C:\Users\Helon\AppData\Local\Temp\ccoPKzhl.s 			page 24


 625:.\BLEApplication.c **** * 
 626:.\BLEApplication.c **** * \return
 627:.\BLEApplication.c **** *  None   
 628:.\BLEApplication.c **** * 
 629:.\BLEApplication.c **** ******************************************************************************/
 630:.\BLEApplication.c **** void ConfigUartInit(void)
 631:.\BLEApplication.c **** {   
 632:.\BLEApplication.c **** //    configUart.mode=UART_UART_MODE_STD;         /* mode: Standard */ 
 633:.\BLEApplication.c **** //    configUart.direction=UART_UART_TX_RX;       /* direction: RX + TX */ 
 634:.\BLEApplication.c **** //    configUart.dataBits=8;                      /* dataBits: 8 bits */
 635:.\BLEApplication.c **** //    configUart.parity=UART_UART_PARITY_NONE;    /* parity: None */
 636:.\BLEApplication.c **** //    configUart.stopBits=UART_UART_STOP_BITS_1;  /* stopBits: 1 bit */ 
 637:.\BLEApplication.c **** //    configUart.oversample=16;                   /* oversample: 16u */
 638:.\BLEApplication.c **** //    configUart.enableIrdaLowPower=0;            /* enableIrdaLowPower: disable */
 639:.\BLEApplication.c **** //    configUart.enableMedianFilter=1;            /* enableMedianFilter: enable */
 640:.\BLEApplication.c **** //    configUart.enableRetryNack=0;               /* enableRetryNack: disable */
 641:.\BLEApplication.c **** //    configUart.enableInvertedRx=0;              /* enableInvertedRx: disable */
 642:.\BLEApplication.c **** //    configUart.dropOnParityErr=0;               /* dropOnParityErr: disable */
 643:.\BLEApplication.c **** //    configUart.dropOnFrameErr=0;                /* dropOnFrameErr: disable */
 644:.\BLEApplication.c **** //    configUart.enableWake=0;                    /* enableWake: disable */
 645:.\BLEApplication.c **** //    configUart.rxBufferSize=UART_RX_BUFFER;   /* rxBufferSize: software buffer 10 bytes */
 646:.\BLEApplication.c **** //    configUart.rxBuffer=bufferRx;               /* rxBuffer: RX software buffer enable */ 
 647:.\BLEApplication.c **** //    configUart.txBufferSize=UART_TX_BUFFER;   /* txBufferSize: software buffer 10 bytes */
 648:.\BLEApplication.c **** //    configUart.txBuffer=bufferTx;               /* txBuffer: TX software buffer enable */
 649:.\BLEApplication.c **** //    configUart.enableMultiproc=0;               /* enableMultiproc: disable */
 650:.\BLEApplication.c **** //    configUart.multiprocAcceptAddr=0;           /* multiprocAcceptAddr: disable */ 
 651:.\BLEApplication.c **** //    configUart.multiprocAddr=0;                 /* multiprocAddr: N/A for this configuration */ 
 652:.\BLEApplication.c **** //    configUart.multiprocAddrMask=0;             /* multiprocAddrMask: N/A for this configuration 
 653:.\BLEApplication.c **** //    configUart.enableInterrupt=1;               /* enableInterrupt: enable to process software bu
 654:.\BLEApplication.c **** //    configUart.rxInterruptMask=UART_INTR_RX_NOT_EMPTY; /* rxInterruptMask: enable NOT_EMPTY for R
 655:.\BLEApplication.c **** //    configUart.rxTriggerLevel=0;               /* rxTriggerLevel: N/A for this configuration */ 
 656:.\BLEApplication.c **** //    configUart.txInterruptMask=0;              /* txInterruptMask: NOT_FULL is enabled when there
 657:.\BLEApplication.c **** //    configUart.txTriggerLevel=0;               /* txTriggerLevel: N/A for this configuration */ 
 658:.\BLEApplication.c **** }
 659:.\BLEApplication.c **** /******************************************************************************
 660:.\BLEApplication.c **** * Function Name: SetUartConfiguration
 661:.\BLEApplication.c **** ***************************************************************************//**
 662:.\BLEApplication.c **** * 
 663:.\BLEApplication.c **** *  ËÆæÁΩÆ‰∏≤Âè£ÈÖçÁΩÆ
 664:.\BLEApplication.c **** * \param  DIVIDER_CLOCK:ÈÖçÁΩÆÊ≥¢ÁâπÁéáÁöÑÊó∂ÈíüÂàÜÈ¢ëÔºå‰∏çÂêåÁöÑÈ¢ëÁéáÂàÜÈ¢ëÁ≥ªÁªü‰∏çÂêå„ÄÇ
 665:.\BLEApplication.c **** * \return
 666:.\BLEApplication.c **** *   CYRET_SUCCESS    //Successful
 667:.\BLEApplication.c **** *   CYRET_BAD_PARAM  //Uknowns operation mode - no actions 
 668:.\BLEApplication.c **** ******************************************************************************/
 669:.\BLEApplication.c **** void SetUartConfiguration(uint32_t DIVIDER_CLOCK) 
 670:.\BLEApplication.c **** {
 671:.\BLEApplication.c **** //    cystatus status = CYRET_SUCCESS; 
 672:.\BLEApplication.c **** //    UART_Stop();                    /* Disable component before configuration change */ 
 673:.\BLEApplication.c **** //    /* Change clock divider */
 674:.\BLEApplication.c **** //    UART_CLOCK_Stop();
 675:.\BLEApplication.c **** //    UART_CLOCK_SetFractionalDividerRegister(DIVIDER_CLOCK, 0u); 
 676:.\BLEApplication.c **** //    UART_CLOCK_Start();
 677:.\BLEApplication.c **** //    /* Configure to UART operation */ 
 678:.\BLEApplication.c **** //    UART_UartInit(&configUart);          
 679:.\BLEApplication.c **** //    UART_Start();                       /* Enable component after configuration change */     
 680:.\BLEApplication.c **** }
 681:.\BLEApplication.c **** 
ARM GAS  C:\Users\Helon\AppData\Local\Temp\ccoPKzhl.s 			page 25


 682:.\BLEApplication.c **** /******************************************************************************
 683:.\BLEApplication.c **** * Function Name: LedInit
 684:.\BLEApplication.c **** ***************************************************************************//**
 685:.\BLEApplication.c **** * 
 686:.\BLEApplication.c **** *  Áä∂ÊÄÅÁÅØÂàùÂßãÂåñ
 687:.\BLEApplication.c **** * 
 688:.\BLEApplication.c **** * \return
 689:.\BLEApplication.c **** *  None
 690:.\BLEApplication.c **** * 
 691:.\BLEApplication.c **** ******************************************************************************/
 692:.\BLEApplication.c **** void LedInit(void)
 693:.\BLEApplication.c **** {
 694:.\BLEApplication.c ****     Status_LED_SetDriveMode(Status_LED_DM_STRONG);
 695:.\BLEApplication.c ****     Connected_LED_SetDriveMode(Connected_LED_DM_STRONG);
 696:.\BLEApplication.c ****     Status_LED_Write(LED_OFF);
 697:.\BLEApplication.c ****     Connected_LED_Write(LED_OFF);
 698:.\BLEApplication.c **** }
 699:.\BLEApplication.c **** 
 700:.\BLEApplication.c **** /******************************************************************************
 701:.\BLEApplication.c **** * Function Name: Parser_UartData
 702:.\BLEApplication.c **** ***************************************************************************//**
 703:.\BLEApplication.c **** * 
 704:.\BLEApplication.c **** *  Ëß£ÊûêÊé•Êî∂Âà∞ÁöÑ‰∏≤Âè£Êï∞ÊçÆ
 705:.\BLEApplication.c **** * \param  SerialData:ÊåáÂêëcharÂûãÁöÑÊåáÈíà
 706:.\BLEApplication.c **** * \return
 707:.\BLEApplication.c **** *  None
 708:.\BLEApplication.c **** * 
 709:.\BLEApplication.c **** ******************************************************************************/
 710:.\BLEApplication.c **** void Parser_UartData(const char* SerialData)
 711:.\BLEApplication.c **** {
 712:.\BLEApplication.c ****     if(NULL==SerialData)
 713:.\BLEApplication.c ****         return;
 714:.\BLEApplication.c ****     uint8_t At_Command_Idex=0,i=0;
 715:.\BLEApplication.c ****     uint8_t idx=0;    
 716:.\BLEApplication.c ****     int16_t AdvMin,AdvMax;
 717:.\BLEApplication.c ****     char8 Name[27]={0};
 718:.\BLEApplication.c ****     char AdvData[31]={0};
 719:.\BLEApplication.c ****     char StrAdvData[62]={0};
 720:.\BLEApplication.c ****     char StrAdvDataLength[2]={0};
 721:.\BLEApplication.c ****     char AdvDataLength=0;
 722:.\BLEApplication.c ****     char AdvParamArray[2]={0};
 723:.\BLEApplication.c ****     char AdvParam=0;
 724:.\BLEApplication.c ****     uint8 DeviceNameLen[1]={0};
 725:.\BLEApplication.c ****     uint32 WriteDataToFlash=0;
 726:.\BLEApplication.c **** //    volatile uint8_t test=0;
 727:.\BLEApplication.c **** //    double connintv=0;
 728:.\BLEApplication.c **** //    uint16 supervisionTO=0;
 729:.\BLEApplication.c ****     CYBLE_API_RESULT_T API_RESULT=0;
 730:.\BLEApplication.c ****     uint8_t STAUS_T=0;
 731:.\BLEApplication.c ****     CYBLE_GATTC_FIND_INFO_REQ_T range;    
 732:.\BLEApplication.c ****     CYBLE_GAPP_DISC_DATA_T advDiscData;
 733:.\BLEApplication.c **** //    CYBLE_CONN_HANDLE_T  connHandle; 
 734:.\BLEApplication.c **** //     uint8 bdHandle=0;
 735:.\BLEApplication.c ****     At_Command_Idex=Command_Identify(SerialData);
 736:.\BLEApplication.c ****     switch(At_Command_Idex)
 737:.\BLEApplication.c ****     {
 738:.\BLEApplication.c **** //        ÊµãËØï‰∏≤Âè£ÊòØÂê¶Ê≠£Â∏∏----‰∏ª‰ªéÊúâÊïà
ARM GAS  C:\Users\Helon\AppData\Local\Temp\ccoPKzhl.s 			page 26


 739:.\BLEApplication.c ****         case _AT:
 740:.\BLEApplication.c **** //            printf("OK\r\n");
 741:.\BLEApplication.c ****             printf("AT+OK\r\n");
 742:.\BLEApplication.c ****         break;
 743:.\BLEApplication.c **** //        ËΩØÂ§ç‰Ωç----‰∏ª‰ªéÊúâÊïà
 744:.\BLEApplication.c ****         case RESET:
 745:.\BLEApplication.c ****             if(SerialData[9]=='1')
 746:.\BLEApplication.c ****             {
 747:.\BLEApplication.c ****                 printf("AT+OK\r\n");
 748:.\BLEApplication.c ****                 while((UART_SpiUartGetTxBufferSize() + UART_GET_TX_FIFO_SR_VALID) != 0);//Á≠âÂæÖ‰∏≤
 749:.\BLEApplication.c ****                 CySoftwareReset();
 750:.\BLEApplication.c ****             }
 751:.\BLEApplication.c ****             else
 752:.\BLEApplication.c ****             {
 753:.\BLEApplication.c ****                 printf("AT+ERR=5\r\n");//Ë°®Á§∫Ê≤°ÊúâËØ•ATÂëΩ‰ª§     
 754:.\BLEApplication.c ****             }
 755:.\BLEApplication.c ****         break;
 756:.\BLEApplication.c ****         case REFAC:
 757:.\BLEApplication.c ****         break;
 758:.\BLEApplication.c **** //         ÂΩìÂâçÂõ∫‰ª∂ÁâàÊú¨ÁöÑÊü•ËØ¢
 759:.\BLEApplication.c ****         case VERSION:
 760:.\BLEApplication.c ****             if(SerialData[11]=='?')
 761:.\BLEApplication.c ****                 printf("+VERSION=Ver1.5\r\n");
 762:.\BLEApplication.c ****             else
 763:.\BLEApplication.c ****             {
 764:.\BLEApplication.c ****                 printf("AT+ERR=5\r\n");//Ë°®Á§∫Ê≤°ÊúâËØ•ATÂëΩ‰ª§     
 765:.\BLEApplication.c ****             }
 766:.\BLEApplication.c ****         break;
 767:.\BLEApplication.c **** //            ÊöÇÊó∂Êó†ÊïàÔºåÂõ∫ÂÆö‰∏∫9600ÁöÑÊ≥¢ÁâπÁéá
 768:.\BLEApplication.c ****         case BAUD:
 769:.\BLEApplication.c ****             printf("AT+ERR=5\r\n");//Ë°®Á§∫Ê≤°ÊúâËØ•ATÂëΩ‰ª§ 
 770:.\BLEApplication.c **** //            idx=SerialData[8];             
 771:.\BLEApplication.c **** //            UartBuadRate_Handler(idx);
 772:.\BLEApplication.c ****         break;
 773:.\BLEApplication.c **** //            MACÂú∞ÂùÄÊü•ËØ¢----‰∏ª‰ªéÊúâÊïà
 774:.\BLEApplication.c ****         case LADDR:
 775:.\BLEApplication.c ****             idx=SerialData[9]; 
 776:.\BLEApplication.c ****             if('?'==idx)
 777:.\BLEApplication.c ****             {
 778:.\BLEApplication.c ****                 CyBle_GetDeviceAddress(&DeviceAddr);
 779:.\BLEApplication.c ****                 printf("+LADDR:<0x%02X%02X%02X%02X%02X%02X>\r\n",                  
 780:.\BLEApplication.c ****                     DeviceAddr.bdAddr[5],
 781:.\BLEApplication.c ****                     DeviceAddr.bdAddr[4],
 782:.\BLEApplication.c ****                     DeviceAddr.bdAddr[3],
 783:.\BLEApplication.c ****                     DeviceAddr.bdAddr[2],
 784:.\BLEApplication.c ****                     DeviceAddr.bdAddr[1],
 785:.\BLEApplication.c ****                     DeviceAddr.bdAddr[0]                             
 786:.\BLEApplication.c ****                   );
 787:.\BLEApplication.c ****             }
 788:.\BLEApplication.c ****             else
 789:.\BLEApplication.c ****             {
 790:.\BLEApplication.c ****                 printf("AT+ERR=5\r\n");//Ë°®Á§∫Ê≤°ÊúâËØ•ATÂëΩ‰ª§ 
 791:.\BLEApplication.c ****             }
 792:.\BLEApplication.c ****         break;
 793:.\BLEApplication.c **** //                ËÆæÂ§áÂêçÊü•ËØ¢Âèä‰øÆÊîπ---‰ªéÊú∫ÊúâÊïà
 794:.\BLEApplication.c ****         case NAME:
 795:.\BLEApplication.c ****              idx=SerialData[8];
ARM GAS  C:\Users\Helon\AppData\Local\Temp\ccoPKzhl.s 			page 27


 796:.\BLEApplication.c ****              if(Peripheral==Role)
 797:.\BLEApplication.c ****              {
 798:.\BLEApplication.c ****                 switch(idx)
 799:.\BLEApplication.c ****                 {
 800:.\BLEApplication.c ****                     case '?':
 801:.\BLEApplication.c ****                         CyBle_GapGetLocalName(Name);
 802:.\BLEApplication.c ****                         printf("+NAME=<%s>\r\n",Name);
 803:.\BLEApplication.c **** //                        free(Name);
 804:.\BLEApplication.c ****                     break;
 805:.\BLEApplication.c ****                     case '<':
 806:.\BLEApplication.c ****                         if((strchr((char*)(SerialData+9),'>')-(SerialData+9))>23)
 807:.\BLEApplication.c ****                         {
 808:.\BLEApplication.c ****                             printf("AT+ERR=6\r\n");//Ë°®Á§∫ËÆæÁΩÆÁöÑËÆæÂ§áÂêçÂ≠óËøáÈïø
 809:.\BLEApplication.c ****                             return;
 810:.\BLEApplication.c ****                         }
 811:.\BLEApplication.c ****                         if((CYBLE_STATE_CONNECTED!=CyBle_GetState()))
 812:.\BLEApplication.c ****                         {
 813:.\BLEApplication.c ****                             CyBle_GappStopAdvertisement();
 814:.\BLEApplication.c ****                             memset(Name,0,sizeof(char8)*27);
 815:.\BLEApplication.c ****                             DeviceNameLen[0]=Buffer_Length-11;
 816:.\BLEApplication.c ****                             memcpy(Name,RX_BUFFER+9,DeviceNameLen[0]);
 817:.\BLEApplication.c ****                             WriteUserSFlashRow(1,DeviceNameLen,1,0x00);//Â∞ÜËÆæÂ§áÂêçÂ≠óÈïøÂ∫¶ÂÜôÂÖ
 818:.\BLEApplication.c ****                             WriteUserSFlashRow(2,Name,DeviceNameLen[0],0x00);//Â∞ÜËÆæÂ§áÂêçÂÜôÂÖ•SF
 819:.\BLEApplication.c ****                             API_RESULT=CyBle_GapSetLocalName(Name);                            
 820:.\BLEApplication.c ****                             if(API_RESULT==CYBLE_ERROR_OK)
 821:.\BLEApplication.c ****                             {
 822:.\BLEApplication.c ****                                 printf("AT+OK\r\n");
 823:.\BLEApplication.c **** //                                printf("AT+ NAME=<%s>\r\n",Name);
 824:.\BLEApplication.c **** //                                printf("OK\r\n");
 825:.\BLEApplication.c ****                             }
 826:.\BLEApplication.c ****                             else
 827:.\BLEApplication.c ****                             {
 828:.\BLEApplication.c ****                                 printf("AT+ERR=2\r\n");//Ë°®Á§∫ÂëΩ‰ª§ËÆæÁΩÆÂ§±Ë¥•
 829:.\BLEApplication.c ****                             }
 830:.\BLEApplication.c **** //                            free(Name);
 831:.\BLEApplication.c **** //                            CyBle_GappStartAdvertisement(CYBLE_ADVERTISING_FAST);
 832:.\BLEApplication.c ****                         }
 833:.\BLEApplication.c ****                         else
 834:.\BLEApplication.c ****                         {
 835:.\BLEApplication.c ****                                 printf("AT+ERR=3\r\n");//Ë°®Á§∫ÂΩìÂâçÁä∂ÊÄÅ‰∏çÊîØÊåÅËØ•ÂëΩ‰ª§
 836:.\BLEApplication.c **** //                            printf("+NAME=<INVALID>\r\n"); 
 837:.\BLEApplication.c ****                         }
 838:.\BLEApplication.c ****                     break;
 839:.\BLEApplication.c ****                     default:
 840:.\BLEApplication.c ****                         printf("AT+ERR=5\r\n");//Ë°®Á§∫Ê≤°ÊúâËØ•ATÂëΩ‰ª§ 
 841:.\BLEApplication.c ****                     break;
 842:.\BLEApplication.c ****                 }                   
 843:.\BLEApplication.c ****              }
 844:.\BLEApplication.c ****              else
 845:.\BLEApplication.c ****              {
 846:.\BLEApplication.c **** //                printf("+NAME=<INVALID>\r\n"); 
 847:.\BLEApplication.c ****                 printf("AT+ERR=4\r\n");//Ë°®Á§∫ÂΩìÂâçËßíËâ≤‰∏çÊîØÊåÅËØ•ÂëΩ‰ª§ 
 848:.\BLEApplication.c ****              }
 849:.\BLEApplication.c ****                 
 850:.\BLEApplication.c ****         break;
 851:.\BLEApplication.c ****         case CPIN:
 852:.\BLEApplication.c ****         break;
ARM GAS  C:\Users\Helon\AppData\Local\Temp\ccoPKzhl.s 			page 28


 853:.\BLEApplication.c **** //            ÂèëÂ∞ÑÂäüÁéáÊü•ËØ¢Âèä‰øÆÊîπ----‰ªéÊú∫ÊúâÊïà
 854:.\BLEApplication.c ****         case TXP:
 855:.\BLEApplication.c ****             idx=SerialData[7];
 856:.\BLEApplication.c ****             if(Role==Peripheral)
 857:.\BLEApplication.c ****                 TxPower_Handler(idx);
 858:.\BLEApplication.c ****              else
 859:.\BLEApplication.c ****             {
 860:.\BLEApplication.c **** //                printf("+TXP=<INVALID>\r\n"); 
 861:.\BLEApplication.c ****                 printf("AT+ERR=4\r\n");//Ë°®Á§∫ÂΩìÂâçËßíËâ≤‰∏çÊîØÊåÅËØ•ÂëΩ‰ª§ 
 862:.\BLEApplication.c ****             }
 863:.\BLEApplication.c ****         break;
 864:.\BLEApplication.c **** //            ÂπøÊí≠Êï∞ÊçÆÁöÑ‰øÆÊîπÂèäÊü•ËØ¢----‰ªéÊú∫ÊúâÊïà
 865:.\BLEApplication.c ****         case ADVD:
 866:.\BLEApplication.c ****             idx=SerialData[8];
 867:.\BLEApplication.c ****             if(Peripheral==Role)
 868:.\BLEApplication.c ****             {
 869:.\BLEApplication.c ****                 switch(idx)
 870:.\BLEApplication.c ****                 {
 871:.\BLEApplication.c ****                     case '<':
 872:.\BLEApplication.c ****                         if(CYBLE_STATE_ADVERTISING!=CyBle_GetState())
 873:.\BLEApplication.c ****                         {
 874:.\BLEApplication.c ****                             if((strchr((char*)(SerialData+9),'>')-(SerialData+9))>31)
 875:.\BLEApplication.c ****                             {
 876:.\BLEApplication.c ****                                 printf("AT+ERR=9\r\n");//Ë°®Á§∫ËÆæÁΩÆÁöÑÂπøÊí≠Êï∞ÊçÆÈïøÂ∫¶ËøáÈïø
 877:.\BLEApplication.c ****                                 return;
 878:.\BLEApplication.c ****                             }
 879:.\BLEApplication.c ****                             memset(advDiscData.advData,0,CYBLE_GAP_MAX_ADV_DATA_LEN);
 880:.\BLEApplication.c ****                             memcpy(StrAdvDataLength,SerialData+9,2);
 881:.\BLEApplication.c ****                             StrToHex(&AdvDataLength,StrAdvDataLength,1);
 882:.\BLEApplication.c ****                             advDiscData.advDataLen=AdvDataLength;
 883:.\BLEApplication.c ****                             memcpy(StrAdvData,SerialData+12,AdvDataLength*2);
 884:.\BLEApplication.c ****                             StrToHex(AdvData,StrAdvData,sizeof(StrAdvData)/sizeof(char)/2);
 885:.\BLEApplication.c ****                             memcpy(advDiscData.advData,AdvData,advDiscData.advDataLen);
 886:.\BLEApplication.c ****                             API_RESULT=CyBle_GapUpdateAdvData(&advDiscData,NULL);
 887:.\BLEApplication.c ****                             if(CYBLE_ERROR_OK==API_RESULT)
 888:.\BLEApplication.c ****                             {
 889:.\BLEApplication.c ****     //                            printf("+ADVD=<SUCCESS>\r\n");
 890:.\BLEApplication.c ****                                 cyBle_discoveryModeInfo.advData->advDataLen=AdvDataLength;
 891:.\BLEApplication.c ****                                 memcpy(cyBle_discoveryModeInfo.advData->advData,AdvData,AdvDataLeng
 892:.\BLEApplication.c ****                                 printf("AT+OK\r\n");
 893:.\BLEApplication.c ****                             }
 894:.\BLEApplication.c ****                             else
 895:.\BLEApplication.c ****                             {
 896:.\BLEApplication.c ****                                 printf("AT+ERR=2\r\n");//Ë°®Á§∫ÂëΩ‰ª§ËÆæÁΩÆÂ§±Ë¥•
 897:.\BLEApplication.c ****                             }
 898:.\BLEApplication.c ****                         }
 899:.\BLEApplication.c ****                         else
 900:.\BLEApplication.c ****                         {
 901:.\BLEApplication.c ****                             printf("AT+ERR=3\r\n");//Ë°®Á§∫ÂΩìÂâçÁä∂ÊÄÅ‰∏çÊîØÊåÅËØ•ÂëΩ‰ª§
 902:.\BLEApplication.c ****                         }
 903:.\BLEApplication.c ****                     break;                        
 904:.\BLEApplication.c ****                     case '?':
 905:.\BLEApplication.c ****                         if(CYBLE_STATE_ADVERTISING==CyBle_GetState())
 906:.\BLEApplication.c ****                         {
 907:.\BLEApplication.c ****                             printf("+ADVD=<0x");
 908:.\BLEApplication.c ****                             for(i=0;i<cyBle_discoveryModeInfo.advData->advDataLen;i++)
 909:.\BLEApplication.c ****                             {
ARM GAS  C:\Users\Helon\AppData\Local\Temp\ccoPKzhl.s 			page 29


 910:.\BLEApplication.c ****                                 printf("%02X",cyBle_discoveryModeInfo.advData->advData[i]);
 911:.\BLEApplication.c ****                             }
 912:.\BLEApplication.c ****                             printf(">\r\n");
 913:.\BLEApplication.c ****                         }
 914:.\BLEApplication.c ****                         else
 915:.\BLEApplication.c ****                         {
 916:.\BLEApplication.c ****                             printf("AT+ERR=3\r\n");//Ë°®Á§∫ÂΩìÂâçÁä∂ÊÄÅ‰∏çÊîØÊåÅËØ•ÂëΩ‰ª§
 917:.\BLEApplication.c ****                         }
 918:.\BLEApplication.c ****                         
 919:.\BLEApplication.c ****                     break;
 920:.\BLEApplication.c ****                     default:
 921:.\BLEApplication.c ****                         printf("AT+ERR=5\r\n");//Ë°®Á§∫Ê≤°ÊúâËØ•ATÂëΩ‰ª§ 
 922:.\BLEApplication.c ****                     break;
 923:.\BLEApplication.c ****                 }                
 924:.\BLEApplication.c ****             }                
 925:.\BLEApplication.c ****             else
 926:.\BLEApplication.c ****             {
 927:.\BLEApplication.c **** //                printf("+ADVD=<INVALID>\r\n");
 928:.\BLEApplication.c ****                 printf("AT+ERR=4\r\n");//Ë°®Á§∫ÂΩìÂâçËßíËâ≤‰∏çÊîØÊåÅËØ•ÂëΩ‰ª§
 929:.\BLEApplication.c ****             }
 930:.\BLEApplication.c ****         break;
 931:.\BLEApplication.c **** //            ÂπøÊí≠Èó¥ÈöîÁöÑ‰øÆÊîπÂèäÊü•ËØ¢----‰ªéÊú∫ÊúâÊïà
 932:.\BLEApplication.c ****         case ADVI:            
 933:.\BLEApplication.c ****             if(Role==Peripheral)
 934:.\BLEApplication.c ****             {
 935:.\BLEApplication.c ****                 idx=SerialData[8];  
 936:.\BLEApplication.c ****                 if((CYBLE_STATE_CONNECTED!=CyBle_GetState()))
 937:.\BLEApplication.c ****                 {
 938:.\BLEApplication.c ****                     switch(idx)
 939:.\BLEApplication.c ****                     {
 940:.\BLEApplication.c ****                         case '?':
 941:.\BLEApplication.c ****                         AdvMin=(cyBle_discoveryModeInfo.advParam->advIntvMin)*0.625;
 942:.\BLEApplication.c ****                         AdvMax=(cyBle_discoveryModeInfo.advParam->advIntvMax)*0.625;               
 943:.\BLEApplication.c ****                         printf("+ADVI=<MIN=%hdms,MAX=%hdms,TIMEOUT=%hus>\r\n",AdvMin,
 944:.\BLEApplication.c ****                         AdvMax,cyBle_discoveryModeInfo.advTo);
 945:.\BLEApplication.c ****                         while((UART_SpiUartGetTxBufferSize() + UART_GET_TX_FIFO_SR_VALID) != 0);//Á
 946:.\BLEApplication.c ****                         break;
 947:.\BLEApplication.c ****                         case '<':
 948:.\BLEApplication.c ****     //                    Âè™ÊúâÂÅúÊ≠¢ÂπøÊí≠‰∫Ü‰øÆÊîπÊâçÊúâÊïà
 949:.\BLEApplication.c ****                         if(CYBLE_STATE_ADVERTISING!=CyBle_GetState())
 950:.\BLEApplication.c ****                         {
 951:.\BLEApplication.c ****              //              Ëé∑ÂèñAdvMinÂÄº
 952:.\BLEApplication.c ****                             AdvParamArray[0]=SerialData[9];
 953:.\BLEApplication.c ****                             AdvParamArray[1]=SerialData[10];
 954:.\BLEApplication.c ****                             StrToHex(&AdvParam,AdvParamArray,1);
 955:.\BLEApplication.c ****                             cyBle_discoveryModeInfo.advParam->advIntvMin=AdvParam;
 956:.\BLEApplication.c ****         //                    Ëé∑ÂèñAdvMaxÂÄº
 957:.\BLEApplication.c ****                             AdvParamArray[0]=SerialData[12];
 958:.\BLEApplication.c ****                             AdvParamArray[1]=SerialData[13];
 959:.\BLEApplication.c ****                             StrToHex(&AdvParam,AdvParamArray,1);
 960:.\BLEApplication.c ****                             cyBle_discoveryModeInfo.advParam->advIntvMax=AdvParam;
 961:.\BLEApplication.c ****         //                      Ëé∑ÂèñAdvToÂÄº
 962:.\BLEApplication.c ****                             AdvParamArray[0]=SerialData[15];
 963:.\BLEApplication.c ****                             AdvParamArray[1]=SerialData[16];
 964:.\BLEApplication.c ****                             StrToHex(&AdvParam,AdvParamArray,1);
 965:.\BLEApplication.c ****                             cyBle_discoveryModeInfo.advTo=AdvParam;
 966:.\BLEApplication.c ****                             printf("AT+OK\r\n");
ARM GAS  C:\Users\Helon\AppData\Local\Temp\ccoPKzhl.s 			page 30


 967:.\BLEApplication.c **** //                            printf("%s",SerialData);
 968:.\BLEApplication.c **** //                            printf("OK\r\n");
 969:.\BLEApplication.c ****                         }
 970:.\BLEApplication.c ****                         else
 971:.\BLEApplication.c ****                         {
 972:.\BLEApplication.c **** //                             printf("+ADVI=<INVALID>\r\n");
 973:.\BLEApplication.c ****                             printf("AT+ERR=3\r\n");//Ë°®Á§∫ÂΩìÂâçÁä∂ÊÄÅ‰∏çÊîØÊåÅËØ•ÂëΩ‰ª§
 974:.\BLEApplication.c ****                         }
 975:.\BLEApplication.c ****                         break;
 976:.\BLEApplication.c ****                         default:
 977:.\BLEApplication.c ****                             printf("AT+ERR=5\r\n");//Ë°®Á§∫Ê≤°ÊúâËØ•ATÂëΩ‰ª§ 
 978:.\BLEApplication.c ****                         break;
 979:.\BLEApplication.c ****                     }  
 980:.\BLEApplication.c ****                 }
 981:.\BLEApplication.c ****                 else
 982:.\BLEApplication.c ****                 {
 983:.\BLEApplication.c ****                     printf("AT+ERR=3\r\n");//Ë°®Á§∫ÂΩìÂâçÁä∂ÊÄÅ‰∏çÊîØÊåÅËØ•ÂëΩ‰ª§
 984:.\BLEApplication.c ****                 }
 985:.\BLEApplication.c ****                                             
 986:.\BLEApplication.c ****             }
 987:.\BLEApplication.c ****             else
 988:.\BLEApplication.c ****             {
 989:.\BLEApplication.c **** //                printf("+ADVI=<INVALID>\r\n");
 990:.\BLEApplication.c ****                 printf("AT+ERR=4\r\n");//Ë°®Á§∫ÂΩìÂâçËßíËâ≤‰∏çÊîØÊåÅËØ•ÂëΩ‰ª§
 991:.\BLEApplication.c ****             }
 992:.\BLEApplication.c ****             
 993:.\BLEApplication.c ****         break;
 994:.\BLEApplication.c **** //            ËøûÊé•Èó¥ÈöîÁöÑ‰øÆÊîπÂèäÊü•ËØ¢----‰∏ªÊú∫ÊúâÊïàÔºåÊü•ËØ¢Âàô‰∏ª‰ªéÊúâÊïà
 995:.\BLEApplication.c ****         case CONNI:  
 996:.\BLEApplication.c ****             idx=SerialData[9];
 997:.\BLEApplication.c ****             switch(idx)
 998:.\BLEApplication.c ****             {
 999:.\BLEApplication.c ****                 case '?':
1000:.\BLEApplication.c ****                 if(CYBLE_STATE_CONNECTED==CyBle_GetState())
1001:.\BLEApplication.c ****                 {
1002:.\BLEApplication.c **** //                    connintv=(ConnParam.connIntv)*1.25;
1003:.\BLEApplication.c **** //                    supervisionTO=(ConnParam.supervisionTO)*10;
1004:.\BLEApplication.c ****                     printf("+CONNI=<CONNINTV=0x%04X,CONNTO=0x%04X,CONNLATENCY=0x%04X>\r\n",ConnPara
1005:.\BLEApplication.c ****                     ConnParam.supervisionTO,ConnParam.connLatency);
1006:.\BLEApplication.c ****                 }
1007:.\BLEApplication.c ****                 else
1008:.\BLEApplication.c ****                 {
1009:.\BLEApplication.c **** //                    printf("+CONNI=<INVALID>\r\n");
1010:.\BLEApplication.c ****                     printf("AT+ERR=3\r\n");//Ë°®Á§∫ÂΩìÂâçÁä∂ÊÄÅ‰∏çÊîØÊåÅËØ•ÂëΩ‰ª§
1011:.\BLEApplication.c ****                 }
1012:.\BLEApplication.c ****                 break;
1013:.\BLEApplication.c ****                 case '<':
1014:.\BLEApplication.c **** //                Âè™Êúâ‰∏ªÊú∫ÂèØ‰ª•Êõ¥ÊîπËøûÊé•ÂèÇÊï∞
1015:.\BLEApplication.c ****                 if(Role==Central)
1016:.\BLEApplication.c ****                 {
1017:.\BLEApplication.c ****                     if(CYBLE_STATE_CONNECTED==CyBle_GetState())
1018:.\BLEApplication.c ****                     {
1019:.\BLEApplication.c ****                         //                    Ëé∑ÂèñÊúÄÂ∞èËøûÊé•Èó¥Èöî
1020:.\BLEApplication.c ****                         AdvParamArray[0]=SerialData[10];
1021:.\BLEApplication.c ****                         AdvParamArray[1]=SerialData[11];
1022:.\BLEApplication.c ****                         StrToHex(&AdvParam,AdvParamArray,1);
1023:.\BLEApplication.c ****                         connParam.connIntvMin=AdvParam;
ARM GAS  C:\Users\Helon\AppData\Local\Temp\ccoPKzhl.s 			page 31


1024:.\BLEApplication.c ****     //                    Ëé∑ÂèñÊúÄÂ§ßËøûÊé•Èó¥Èöî                    
1025:.\BLEApplication.c ****                         AdvParamArray[0]=SerialData[13];
1026:.\BLEApplication.c ****                         AdvParamArray[1]=SerialData[14];
1027:.\BLEApplication.c ****                         StrToHex(&AdvParam,AdvParamArray,1);
1028:.\BLEApplication.c ****                         connParam.connIntvMax=AdvParam;
1029:.\BLEApplication.c ****     //                    ÂèëËµ∑ËøûÊé•Èó¥ÈöîÊõ¥Êñ∞ËØ∑Ê±Ç
1030:.\BLEApplication.c ****                         API_RESULT=CyBle_GapcConnectionParamUpdateRequest(cyBle_connHandle.bdHandle
1031:.\BLEApplication.c ****                         if(CYBLE_ERROR_OK==API_RESULT)
1032:.\BLEApplication.c ****                         {
1033:.\BLEApplication.c ****                             printf("AT+OK\r\n");
1034:.\BLEApplication.c ****     //                        printf("%s",SerialData);
1035:.\BLEApplication.c ****     //                        printf("OK\r\n");
1036:.\BLEApplication.c ****                         }
1037:.\BLEApplication.c ****                         else
1038:.\BLEApplication.c ****                         {
1039:.\BLEApplication.c ****     //                        printf("+CONNI=<FAIL>\r\n");
1040:.\BLEApplication.c ****                             printf("AT+ERR=2\r\n");//Ë°®Á§∫ÂëΩ‰ª§ËÆæÁΩÆÂ§±Ë¥•
1041:.\BLEApplication.c ****                         }
1042:.\BLEApplication.c ****                         
1043:.\BLEApplication.c ****                     }
1044:.\BLEApplication.c ****                     else
1045:.\BLEApplication.c ****                     {
1046:.\BLEApplication.c ****                         printf("AT+ERR=3\r\n");//Ë°®Á§∫ÂΩìÂâçÁä∂ÊÄÅ‰∏çÊîØÊåÅËØ•ÂëΩ‰ª§
1047:.\BLEApplication.c ****                     }
1048:.\BLEApplication.c **** 
1049:.\BLEApplication.c ****                 }
1050:.\BLEApplication.c ****                 else
1051:.\BLEApplication.c ****                 {
1052:.\BLEApplication.c **** //                    printf("+CONNI=<INVALID>\r\n");
1053:.\BLEApplication.c ****                     printf("AT+ERR=4\r\n");//Ë°®Á§∫ÂΩìÂâçËßíËâ≤‰∏çÊîØÊåÅËØ•ÂëΩ‰ª§
1054:.\BLEApplication.c ****                 }
1055:.\BLEApplication.c ****                 break;
1056:.\BLEApplication.c ****                 default:
1057:.\BLEApplication.c ****                     printf("AT+ERR=5\r\n");//Ë°®Á§∫Ê≤°ÊúâËØ•ATÂëΩ‰ª§ 
1058:.\BLEApplication.c ****                 break;
1059:.\BLEApplication.c ****             }
1060:.\BLEApplication.c ****             
1061:.\BLEApplication.c ****         break;
1062:.\BLEApplication.c **** //              ‰∏ª‰ªé‰∏Ä‰ΩìÂàáÊç¢ÂëΩ‰ª§-----‰∏ª‰ªéÊúâÊïà
1063:.\BLEApplication.c ****         case ROLE:
1064:.\BLEApplication.c ****             idx=SerialData[8];
1065:.\BLEApplication.c ****             switch(idx)
1066:.\BLEApplication.c ****             {
1067:.\BLEApplication.c ****                 case '?':
1068:.\BLEApplication.c ****                     if(Peripheral==Role)
1069:.\BLEApplication.c ****                     {
1070:.\BLEApplication.c ****                         printf("+ROLE:<Peripheral>\r\n");
1071:.\BLEApplication.c ****                     }
1072:.\BLEApplication.c ****                     else
1073:.\BLEApplication.c ****                     {
1074:.\BLEApplication.c ****                         printf("+ROLE:<Central>\r\n");
1075:.\BLEApplication.c ****                     }
1076:.\BLEApplication.c ****                 break;
1077:.\BLEApplication.c **** //                    0Ôºö‰ªéÊú∫(Slave)
1078:.\BLEApplication.c ****                 case '0':
1079:.\BLEApplication.c ****                     if(CYBLE_STATE_CONNECTED!=CyBle_GetState())
1080:.\BLEApplication.c ****                     {
ARM GAS  C:\Users\Helon\AppData\Local\Temp\ccoPKzhl.s 			page 32


1081:.\BLEApplication.c ****                         WriteDataToFlash=Peripheral;//ÊääÂΩìÂâçÁöÑÂÄºÂÜôÂÖ•Flash‰∏≠,Áî®‰∫éÂ§ç‰ΩçÊó∂
1082:.\BLEApplication.c ****                         if(USER_SFLASH_WRITE_SUCCESSFUL==WriteUserSFlashRow(0,&WriteDataToFlash,1,0
1083:.\BLEApplication.c ****                         {
1084:.\BLEApplication.c ****                             //ÂÅúÊ≠¢Êâ´Êèè
1085:.\BLEApplication.c ****                             CyBle_GapcStopScan();
1086:.\BLEApplication.c ****                             //ÂºÄÂßãÂπøÊí≠
1087:.\BLEApplication.c ****                             CyBle_GappStartAdvertisement(CYBLE_ADVERTISING_FAST);
1088:.\BLEApplication.c ****                             Role=Peripheral;
1089:.\BLEApplication.c ****                             printf("AT+OK\r\n");
1090:.\BLEApplication.c **** //                            printf("+ROLE:<Peripheral>\r\n");
1091:.\BLEApplication.c **** //                            printf("OK\r\n");
1092:.\BLEApplication.c ****                         }  
1093:.\BLEApplication.c ****                         
1094:.\BLEApplication.c ****                     } 
1095:.\BLEApplication.c ****                     else
1096:.\BLEApplication.c ****                     {
1097:.\BLEApplication.c ****                         printf("AT+ERR=3\r\n");//Ë°®Á§∫ÂΩìÂâçÁä∂ÊÄÅ‰∏çÊîØÊåÅËØ•ÂëΩ‰ª§
1098:.\BLEApplication.c ****                     }
1099:.\BLEApplication.c ****                 break;
1100:.\BLEApplication.c **** //                     1Ôºö‰∏ªÊú∫(Master)
1101:.\BLEApplication.c ****                 case '1':
1102:.\BLEApplication.c ****                     if(CYBLE_STATE_CONNECTED!=CyBle_GetState())
1103:.\BLEApplication.c ****                     {
1104:.\BLEApplication.c ****                         WriteDataToFlash=Central;
1105:.\BLEApplication.c ****                         if(USER_SFLASH_WRITE_SUCCESSFUL==WriteUserSFlashRow(0,&WriteDataToFlash,1,0
1106:.\BLEApplication.c ****                         {
1107:.\BLEApplication.c **** //                        ÂÅúÊ≠¢ÂπøÊí≠
1108:.\BLEApplication.c ****                             CyBle_GappStopAdvertisement();
1109:.\BLEApplication.c **** //                        ÂºÄÂßãÊâ´Êèè
1110:.\BLEApplication.c ****                             CyBle_GapcStartScan(CYBLE_SCANNING_FAST);
1111:.\BLEApplication.c ****                             Role=Central;
1112:.\BLEApplication.c ****                             printf("AT+OK\r\n");
1113:.\BLEApplication.c **** //                            printf("+ROLE:<Central>\r\n");
1114:.\BLEApplication.c **** //                            printf("OK\r\n");
1115:.\BLEApplication.c ****                         }
1116:.\BLEApplication.c **** 
1117:.\BLEApplication.c ****                     }
1118:.\BLEApplication.c ****                     else
1119:.\BLEApplication.c ****                     {
1120:.\BLEApplication.c ****                         printf("AT+ERR=3\r\n");//Ë°®Á§∫ÂΩìÂâçÁä∂ÊÄÅ‰∏çÊîØÊåÅËØ•ÂëΩ‰ª§
1121:.\BLEApplication.c ****                     }
1122:.\BLEApplication.c ****                     
1123:.\BLEApplication.c ****                 break;
1124:.\BLEApplication.c ****                 default:
1125:.\BLEApplication.c ****                     printf("AT+ERR=5\r\n");//Ë°®Á§∫Ê≤°ÊúâËØ•ATÂëΩ‰ª§ 
1126:.\BLEApplication.c ****                 break;                    
1127:.\BLEApplication.c ****             }
1128:.\BLEApplication.c ****         break;
1129:.\BLEApplication.c **** ////            Êü•ËØ¢ÊâÄÊúâÁöÑÁâπÂæÅÊèèËø∞Á¨¶----‰∏ªÊú∫ÊúâÊïà
1130:.\BLEApplication.c ****         case DISALLCHAR:
1131:.\BLEApplication.c ****             if(Role==Central)
1132:.\BLEApplication.c ****             {
1133:.\BLEApplication.c ****                 range.startHandle=0x0001;
1134:.\BLEApplication.c ****                 range.endHandle=0xFFFF;       
1135:.\BLEApplication.c ****                 API_RESULT=CyBle_GattcDiscoverAllCharacteristicDescriptors(cyBle_connHandle,&range)
1136:.\BLEApplication.c ****             }
1137:.\BLEApplication.c ****             else
ARM GAS  C:\Users\Helon\AppData\Local\Temp\ccoPKzhl.s 			page 33


1138:.\BLEApplication.c ****             {
1139:.\BLEApplication.c ****                 printf("AT+ERR=4\r\n");//Ë°®Á§∫ÂΩìÂâçËßíËâ≤‰∏çÊîØÊåÅËØ•ÂëΩ‰ª§
1140:.\BLEApplication.c **** //                printf("+DISALLCHAR=<INVALID>\r\n");
1141:.\BLEApplication.c ****             }
1142:.\BLEApplication.c ****         break;
1143:.\BLEApplication.c **** //            Êâ´ÊèèÂë®Âõ¥ÁöÑBLEËÆæÂ§á----‰∏ªÊú∫ÊúâÊïà
1144:.\BLEApplication.c ****         case SCAN:
1145:.\BLEApplication.c ****             if(Role==Central)
1146:.\BLEApplication.c ****             {
1147:.\BLEApplication.c ****                 if(SerialData[8]=='1')
1148:.\BLEApplication.c ****                 {
1149:.\BLEApplication.c ****                     if(CYBLE_STATE_CONNECTED!=CyBle_GetState())
1150:.\BLEApplication.c ****                     {
1151:.\BLEApplication.c ****                         ScanDeviceInfoInit();
1152:.\BLEApplication.c ****                         if(CYBLE_ERROR_OK==CyBle_GapcStartScan(CYBLE_SCANNING_FAST))
1153:.\BLEApplication.c ****                         {
1154:.\BLEApplication.c ****                             printf("AT+OK\r\n");  
1155:.\BLEApplication.c ****                         }
1156:.\BLEApplication.c ****                         else
1157:.\BLEApplication.c ****                         {
1158:.\BLEApplication.c ****                             printf("AT+ERR=2\r\n");//Ë°®Á§∫ÂëΩ‰ª§ËÆæÁΩÆÂ§±Ë¥•
1159:.\BLEApplication.c ****                         }
1160:.\BLEApplication.c ****                     }
1161:.\BLEApplication.c ****                     else
1162:.\BLEApplication.c ****                     {
1163:.\BLEApplication.c ****                         printf("AT+ERR=3\r\n");//Ë°®Á§∫ÂΩìÂâçÁä∂ÊÄÅ‰∏çÊîØÊåÅËØ•ÂëΩ‰ª§
1164:.\BLEApplication.c ****                     }
1165:.\BLEApplication.c ****                     
1166:.\BLEApplication.c ****                 }
1167:.\BLEApplication.c ****                 else if(SerialData[8]=='0')
1168:.\BLEApplication.c ****                 {
1169:.\BLEApplication.c ****                     if(CYBLE_STATE_SCANNING==CyBle_GetState())
1170:.\BLEApplication.c ****                     {
1171:.\BLEApplication.c ****                         ScanDeviceInfoInit();
1172:.\BLEApplication.c ****                         CyBle_GapcStopScan();                                   
1173:.\BLEApplication.c ****                         STOP_SCAN_FLAG=TRUE;
1174:.\BLEApplication.c ****                         printf("AT+OK\r\n"); 
1175:.\BLEApplication.c ****                     }
1176:.\BLEApplication.c ****                     else
1177:.\BLEApplication.c ****                     {
1178:.\BLEApplication.c ****                         printf("AT+ERR=3\r\n");//Ë°®Á§∫ÂΩìÂâçÁä∂ÊÄÅ‰∏çÊîØÊåÅËØ•ÂëΩ‰ª§
1179:.\BLEApplication.c ****                     }
1180:.\BLEApplication.c ****                 }
1181:.\BLEApplication.c ****                 else if(SerialData[8]=='?')
1182:.\BLEApplication.c ****                 {
1183:.\BLEApplication.c ****                     for(i=0;i<DeviceCount;i++)
1184:.\BLEApplication.c ****                     {
1185:.\BLEApplication.c ****                         printf("+INQ_SCAN:<%d,0x%02X%02X%02X%02X%02X%02X>\r\n",
1186:.\BLEApplication.c ****                         DeviceInfo[i].idx,
1187:.\BLEApplication.c ****                         DeviceInfo[i].DeviceList.bdAddr[5],
1188:.\BLEApplication.c ****                         DeviceInfo[i].DeviceList.bdAddr[4],
1189:.\BLEApplication.c ****                         DeviceInfo[i].DeviceList.bdAddr[3],
1190:.\BLEApplication.c ****                         DeviceInfo[i].DeviceList.bdAddr[2],
1191:.\BLEApplication.c ****                         DeviceInfo[i].DeviceList.bdAddr[1],
1192:.\BLEApplication.c ****                         DeviceInfo[i].DeviceList.bdAddr[0]                             
1193:.\BLEApplication.c ****                       );
1194:.\BLEApplication.c ****     //                  while((UART_SpiUartGetTxBufferSize() + UART_GET_TX_FIFO_SR_VALID) != 0);//Á
ARM GAS  C:\Users\Helon\AppData\Local\Temp\ccoPKzhl.s 			page 34


1195:.\BLEApplication.c ****                     }
1196:.\BLEApplication.c ****                 }
1197:.\BLEApplication.c ****                 else
1198:.\BLEApplication.c ****                 {
1199:.\BLEApplication.c ****                     printf("AT+ERR=5\r\n");//Ë°®Á§∫Ê≤°ÊúâËØ•ATÂëΩ‰ª§ 
1200:.\BLEApplication.c ****                 }
1201:.\BLEApplication.c ****             }
1202:.\BLEApplication.c ****             else
1203:.\BLEApplication.c ****             {
1204:.\BLEApplication.c **** //                printf("+SCAN=<INVALID>\r\n");
1205:.\BLEApplication.c ****                 printf("AT+ERR=4\r\n");//Ë°®Á§∫ÂΩìÂâçËßíËâ≤‰∏çÊîØÊåÅËØ•ÂëΩ‰ª§
1206:.\BLEApplication.c ****             }
1207:.\BLEApplication.c ****         break;
1208:.\BLEApplication.c **** //            ËøûÊé•ÈÄâ‰∏≠ÁöÑBLEËÆæÂ§á-----‰∏ªÊú∫ÊúâÊïà
1209:.\BLEApplication.c ****         case CONNT:
1210:.\BLEApplication.c ****             if(Role==Central)
1211:.\BLEApplication.c ****             {
1212:.\BLEApplication.c ****                 idx=SerialData[9];
1213:.\BLEApplication.c ****                 Connect_Device(idx);      
1214:.\BLEApplication.c ****             }
1215:.\BLEApplication.c ****             else
1216:.\BLEApplication.c ****             {
1217:.\BLEApplication.c **** //                printf("+CONNT=<INVALID>\r\n");
1218:.\BLEApplication.c ****                 printf("AT+ERR=4\r\n");//Ë°®Á§∫ÂΩìÂâçËßíËâ≤‰∏çÊîØÊåÅËØ•ÂëΩ‰ª§
1219:.\BLEApplication.c ****             }
1220:.\BLEApplication.c ****         break;
1221:.\BLEApplication.c **** //            Êñ≠ÂºÄËøûÊé•----‰∏ª‰ªéÊúâÊïà
1222:.\BLEApplication.c ****         case DISCONN:
1223:.\BLEApplication.c ****             if(CYBLE_STATE_CONNECTED==CyBle_GetState())
1224:.\BLEApplication.c ****             {
1225:.\BLEApplication.c ****                 idx=SerialData[11];
1226:.\BLEApplication.c ****                 if(Role==Central)
1227:.\BLEApplication.c ****                 {
1228:.\BLEApplication.c ****                     switch(idx)
1229:.\BLEApplication.c ****                     {
1230:.\BLEApplication.c ****                         case '1':
1231:.\BLEApplication.c ****                             API_RESULT=CyBle_GapDisconnect(cyBle_connHandle.bdHandle);
1232:.\BLEApplication.c ****                             if(CYBLE_ERROR_OK!=API_RESULT)  
1233:.\BLEApplication.c ****                             {
1234:.\BLEApplication.c ****                                 printf("AT+ERR=<%d,0x%02X>\r\n",idx-0x30,API_RESULT);              
1235:.\BLEApplication.c ****                             }
1236:.\BLEApplication.c ****                             else
1237:.\BLEApplication.c ****                             {
1238:.\BLEApplication.c ****                                 //Êñ≠ÂºÄËøûÊé•ÂêéÔºåÂ∫îËØ•Ê∏ÖÁ©∫ËøûÊé•ÂàóË°®ÂØπÂ∫îÁöÑÂÜÖÂÆπ
1239:.\BLEApplication.c ****                                 for(i=0;i<Conn_Or_Disconn_Info.Connected_Count;i++)
1240:.\BLEApplication.c ****                                 {
1241:.\BLEApplication.c ****                                     if(1==Conn_Or_Disconn_Info.Connect_Idx[i])
1242:.\BLEApplication.c ****                                     {
1243:.\BLEApplication.c ****                                         Conn_Or_Disconn_Info.Connected_Count--;
1244:.\BLEApplication.c ****                                         memset(Conn_Or_Disconn_Info.DeviceAddr[i].bdAddr,0,6);
1245:.\BLEApplication.c ****                                         Conn_Or_Disconn_Info.Connect_Idx[i]=0;
1246:.\BLEApplication.c ****                                         Conn_Or_Disconn_Info.Disconn_Idx[0]=idx-0x30;
1247:.\BLEApplication.c ****                                         Conn_or_Disconn_Idx=idx-0x30;
1248:.\BLEApplication.c ****                                         break;
1249:.\BLEApplication.c ****                                     }
1250:.\BLEApplication.c ****                                 }
1251:.\BLEApplication.c ****                                 printf("AT+OK\r\n");
ARM GAS  C:\Users\Helon\AppData\Local\Temp\ccoPKzhl.s 			page 35


1252:.\BLEApplication.c ****                             }
1253:.\BLEApplication.c ****                         break;
1254:.\BLEApplication.c ****                         case '2':
1255:.\BLEApplication.c ****                             API_RESULT=CyBle_GapDisconnect(cyBle_connHandle.bdHandle);
1256:.\BLEApplication.c ****                             if(CYBLE_ERROR_OK!=API_RESULT)  
1257:.\BLEApplication.c ****                             {
1258:.\BLEApplication.c ****                                 printf("AT+ERR=<%d,0x%02X>\r\n",idx-0x30,API_RESULT);              
1259:.\BLEApplication.c ****                             }
1260:.\BLEApplication.c ****                             else
1261:.\BLEApplication.c ****                             {
1262:.\BLEApplication.c ****                                 //Êñ≠ÂºÄËøûÊé•ÂêéÔºåÂ∫îËØ•Ê∏ÖÁ©∫ËøûÊé•ÂàóË°®ÂØπÂ∫îÁöÑÂÜÖÂÆπ
1263:.\BLEApplication.c ****                                 for(i=0;i<Conn_Or_Disconn_Info.Connected_Count;i++)
1264:.\BLEApplication.c ****                                 {
1265:.\BLEApplication.c ****                                     if(1==Conn_Or_Disconn_Info.Connect_Idx[i])
1266:.\BLEApplication.c ****                                     {
1267:.\BLEApplication.c ****                                         Conn_Or_Disconn_Info.Connected_Count--;
1268:.\BLEApplication.c ****                                         memset(Conn_Or_Disconn_Info.DeviceAddr[i].bdAddr,0,6);
1269:.\BLEApplication.c ****                                         Conn_Or_Disconn_Info.Connect_Idx[i]=0;
1270:.\BLEApplication.c ****                                         Conn_Or_Disconn_Info.Disconn_Idx[0]=idx-0x30;
1271:.\BLEApplication.c ****                                         Conn_or_Disconn_Idx=idx-0x30;
1272:.\BLEApplication.c ****                                         break;
1273:.\BLEApplication.c ****                                     }
1274:.\BLEApplication.c ****                                 }
1275:.\BLEApplication.c ****                                 printf("AT+OK\r\n");
1276:.\BLEApplication.c ****                             }
1277:.\BLEApplication.c ****                         break;
1278:.\BLEApplication.c ****                         case '3':
1279:.\BLEApplication.c ****                             API_RESULT=CyBle_GapDisconnect(cyBle_connHandle.bdHandle);
1280:.\BLEApplication.c ****                             if(CYBLE_ERROR_OK!=API_RESULT)  
1281:.\BLEApplication.c ****                             {
1282:.\BLEApplication.c ****                                 printf("AT+ERR=<%d,0x%02X>\r\n",idx-0x30,API_RESULT);              
1283:.\BLEApplication.c ****                             }
1284:.\BLEApplication.c ****                             else
1285:.\BLEApplication.c ****                             {
1286:.\BLEApplication.c ****                                 //Êñ≠ÂºÄËøûÊé•ÂêéÔºåÂ∫îËØ•Ê∏ÖÁ©∫ËøûÊé•ÂàóË°®ÂØπÂ∫îÁöÑÂÜÖÂÆπ
1287:.\BLEApplication.c ****                                 for(i=0;i<Conn_Or_Disconn_Info.Connected_Count;i++)
1288:.\BLEApplication.c ****                                 {
1289:.\BLEApplication.c ****                                     if(1==Conn_Or_Disconn_Info.Connect_Idx[i])
1290:.\BLEApplication.c ****                                     {
1291:.\BLEApplication.c ****                                         Conn_Or_Disconn_Info.Connected_Count--;
1292:.\BLEApplication.c ****                                         memset(Conn_Or_Disconn_Info.DeviceAddr[i].bdAddr,0,6);
1293:.\BLEApplication.c ****                                         Conn_Or_Disconn_Info.Connect_Idx[i]=0;
1294:.\BLEApplication.c ****                                         Conn_Or_Disconn_Info.Disconn_Idx[0]=idx-0x30;
1295:.\BLEApplication.c ****                                         Conn_or_Disconn_Idx=idx-0x30;
1296:.\BLEApplication.c ****                                         break;
1297:.\BLEApplication.c ****                                     }
1298:.\BLEApplication.c ****                                 }
1299:.\BLEApplication.c ****                                 printf("AT+OK\r\n");
1300:.\BLEApplication.c ****                             }
1301:.\BLEApplication.c ****                         break;
1302:.\BLEApplication.c ****                         case '4':
1303:.\BLEApplication.c ****                             API_RESULT=CyBle_GapDisconnect(cyBle_connHandle.bdHandle);
1304:.\BLEApplication.c ****                             if(CYBLE_ERROR_OK!=API_RESULT)  
1305:.\BLEApplication.c ****                             {
1306:.\BLEApplication.c ****                                 printf("AT+ERR=<%d,0x%02X>\r\n",idx-0x30,API_RESULT);              
1307:.\BLEApplication.c ****                             }
1308:.\BLEApplication.c ****                             else
ARM GAS  C:\Users\Helon\AppData\Local\Temp\ccoPKzhl.s 			page 36


1309:.\BLEApplication.c ****                             {
1310:.\BLEApplication.c ****                                 //Êñ≠ÂºÄËøûÊé•ÂêéÔºåÂ∫îËØ•Ê∏ÖÁ©∫ËøûÊé•ÂàóË°®ÂØπÂ∫îÁöÑÂÜÖÂÆπ
1311:.\BLEApplication.c ****                                 for(i=0;i<Conn_Or_Disconn_Info.Connected_Count;i++)
1312:.\BLEApplication.c ****                                 {
1313:.\BLEApplication.c ****                                     if(1==Conn_Or_Disconn_Info.Connect_Idx[i])
1314:.\BLEApplication.c ****                                     {
1315:.\BLEApplication.c ****                                         Conn_Or_Disconn_Info.Connected_Count--;
1316:.\BLEApplication.c ****                                         memset(Conn_Or_Disconn_Info.DeviceAddr[i].bdAddr,0,6);
1317:.\BLEApplication.c ****                                         Conn_Or_Disconn_Info.Connect_Idx[i]=0;
1318:.\BLEApplication.c ****                                         Conn_Or_Disconn_Info.Disconn_Idx[0]=idx-0x30;
1319:.\BLEApplication.c ****                                         Conn_or_Disconn_Idx=idx-0x30;
1320:.\BLEApplication.c ****                                         break;
1321:.\BLEApplication.c ****                                     }
1322:.\BLEApplication.c ****                                 }
1323:.\BLEApplication.c ****                                 printf("AT+OK\r\n");
1324:.\BLEApplication.c ****                             }
1325:.\BLEApplication.c ****                         break;  
1326:.\BLEApplication.c ****                         default:
1327:.\BLEApplication.c ****                             printf("AT+ERR=5\r\n");//Ë°®Á§∫Ê≤°ÊúâËØ•ATÂëΩ‰ª§ 
1328:.\BLEApplication.c ****                         break;
1329:.\BLEApplication.c ****                     }
1330:.\BLEApplication.c ****                 }
1331:.\BLEApplication.c ****                 else
1332:.\BLEApplication.c ****                 {
1333:.\BLEApplication.c ****                     if(idx=='1')
1334:.\BLEApplication.c ****                     {                        
1335:.\BLEApplication.c ****                         API_RESULT=CyBle_GapDisconnect(cyBle_connHandle.bdHandle);
1336:.\BLEApplication.c ****                         if(CYBLE_ERROR_OK!=API_RESULT)  
1337:.\BLEApplication.c ****                         {
1338:.\BLEApplication.c ****                             printf("AT+ERR=<0x%02X>\r\n",API_RESULT);                    
1339:.\BLEApplication.c ****                         }
1340:.\BLEApplication.c ****                     }
1341:.\BLEApplication.c ****                     else
1342:.\BLEApplication.c ****                     {
1343:.\BLEApplication.c ****                         printf("AT+ERR=5\r\n");//Ë°®Á§∫Ê≤°ÊúâËØ•ATÂëΩ‰ª§
1344:.\BLEApplication.c ****                     }
1345:.\BLEApplication.c ****                 }
1346:.\BLEApplication.c ****             }
1347:.\BLEApplication.c ****             else
1348:.\BLEApplication.c ****             {
1349:.\BLEApplication.c ****                 printf("AT+ERR=3\r\n");//Ë°®Á§∫ÂΩìÂâçÁä∂ÊÄÅ‰∏çÊîØÊåÅËØ•ÂëΩ‰ª§
1350:.\BLEApplication.c ****             }
1351:.\BLEApplication.c ****             
1352:.\BLEApplication.c ****         break;
1353:.\BLEApplication.c ****         case LOGIN:
1354:.\BLEApplication.c ****         break;
1355:.\BLEApplication.c ****         case TX:
1356:.\BLEApplication.c ****         break;
1357:.\BLEApplication.c **** //            ‰∏ªÊú∫Êåá‰ª§ËØªÂèñ‰ªéÊú∫ÁöÑRSSI----‰∏ª‰ªéÊú∫ÊúâÊïà
1358:.\BLEApplication.c ****         case RSSI:
1359:.\BLEApplication.c ****             if(CYBLE_STATE_CONNECTED==CyBle_GetState())
1360:.\BLEApplication.c ****             {
1361:.\BLEApplication.c ****                 idx=SerialData[8];
1362:.\BLEApplication.c ****                 if(idx=='?')
1363:.\BLEApplication.c ****                     printf("+RSSI:<%ddBm>\r\n",CyBle_GetRssi());
1364:.\BLEApplication.c ****                 else
1365:.\BLEApplication.c ****                 {
ARM GAS  C:\Users\Helon\AppData\Local\Temp\ccoPKzhl.s 			page 37


1366:.\BLEApplication.c ****                     printf("AT+ERR=5\r\n");//Ë°®Á§∫Ê≤°ÊúâËØ•ATÂëΩ‰ª§
1367:.\BLEApplication.c ****                 }
1368:.\BLEApplication.c ****             }
1369:.\BLEApplication.c ****             else
1370:.\BLEApplication.c ****             {
1371:.\BLEApplication.c ****                printf("AT+ERR=3\r\n");//Ë°®Á§∫ÂΩìÂâçÁä∂ÊÄÅ‰∏çÊîØÊåÅËØ•ÂëΩ‰ª§ 
1372:.\BLEApplication.c ****             }
1373:.\BLEApplication.c ****         break;     
1374:.\BLEApplication.c **** //            ÈÄè‰º†ÈÄüÁéáÊµãËØï----‰∏ªÊúâÊïà
1375:.\BLEApplication.c ****         case SPEED:
1376:.\BLEApplication.c ****             idx=SerialData[9];
1377:.\BLEApplication.c ****             if('?'==idx)
1378:.\BLEApplication.c ****             {
1379:.\BLEApplication.c ****                 printf("%ld\r\n",testCount);
1380:.\BLEApplication.c ****                 testCount=0;
1381:.\BLEApplication.c ****             }
1382:.\BLEApplication.c ****             else
1383:.\BLEApplication.c ****             {
1384:.\BLEApplication.c ****                printf("AT+ERR=5\r\n");//Ë°®Á§∫Ê≤°ÊúâËØ•ATÂëΩ‰ª§ 
1385:.\BLEApplication.c ****             }
1386:.\BLEApplication.c **** //            if(CYBLE_STATE_CONNECTED==CyBle_GetState()&&(Central==Role))//ÂΩì‰∏î‰ªÖÂΩìÊòØËøûÊé•Áä
1387:.\BLEApplication.c **** //            {
1388:.\BLEApplication.c **** //                idx=SerialData[9];
1389:.\BLEApplication.c **** ////                MTU_REQ_FLAG=TRUE;                
1390:.\BLEApplication.c **** //                if('?'==idx)
1391:.\BLEApplication.c **** //                {                           
1392:.\BLEApplication.c **** //                    printf("Test Start\r\n");
1393:.\BLEApplication.c **** //                    Timer_Enable();
1394:.\BLEApplication.c **** //                    //‰∏ªÊú∫ÂèëÈÄÅÁöÑMTU exchange request
1395:.\BLEApplication.c **** ////                    if(MTU_REQ_FLAG^FALSE)
1396:.\BLEApplication.c **** ////                    {
1397:.\BLEApplication.c **** ////                        TroughtTest_Flag=TURE;                        
1398:.\BLEApplication.c **** ////                        MTU_REQ_FLAG=FALSE;
1399:.\BLEApplication.c **** ////                        API_RESULT=CyBle_GattcExchangeMtuReq(cyBle_connHandle, CYBLE_GATT_MTU);
1400:.\BLEApplication.c **** //////                        printf("GattcExchangeMtuReq is %d\r\n",API_RESULT);
1401:.\BLEApplication.c **** ////                        break;
1402:.\BLEApplication.c **** ////                    }
1403:.\BLEApplication.c **** ////                    else
1404:.\BLEApplication.c **** ////                    {
1405:.\BLEApplication.c **** //////                        TroughtTest_Flag=TURE;
1406:.\BLEApplication.c **** //////                        charNotificationEnabled = TURE;
1407:.\BLEApplication.c **** ////                        totalByteCounter=0;
1408:.\BLEApplication.c **** //////                        UART_UartPutString("Calculating throughput. Please wait...\n\r");
1409:.\BLEApplication.c **** //////                        Timer_Enable();
1410:.\BLEApplication.c **** ////                        writeRequestData.value.val[0]=0x01;
1411:.\BLEApplication.c **** ////                        writeRequestData.attrHandle=CYBLE_TROUGHPUT_SERVICE_SPEEDTEST_CHAR_HAND
1412:.\BLEApplication.c **** ////                        API_RESULT=CyBle_GattcWriteCharacteristicValue(cyBle_connHandle, &write
1413:.\BLEApplication.c **** ////                        if(CYBLE_ERROR_OK==API_RESULT)
1414:.\BLEApplication.c **** ////                        {
1415:.\BLEApplication.c **** ////                            CyBle_ProcessEvents();
1416:.\BLEApplication.c **** ////                        }                       
1417:.\BLEApplication.c **** ////                        printf("CyBle_GattcWriteCharacteristicDescriptors is %d\r\n",API_RESULT
1418:.\BLEApplication.c **** ////                    }
1419:.\BLEApplication.c **** //                }    
1420:.\BLEApplication.c **** ////            break;
1421:.\BLEApplication.c **** //            }
1422:.\BLEApplication.c **** //            else
ARM GAS  C:\Users\Helon\AppData\Local\Temp\ccoPKzhl.s 			page 38


1423:.\BLEApplication.c **** //            {                
1424:.\BLEApplication.c **** //            }
1425:.\BLEApplication.c ****         break;
1426:.\BLEApplication.c **** //            ‰ΩøËÉΩNotifyÂ±ûÊÄßÁöÑÁâπÂæÅÂÄº-----‰∏ªÊú∫ÊúâÊïàÔºå‰ΩÜÊòØ‰ªéÊú∫‰πüÂèØ‰ª•ÊúâÊïàÂè™ÊòØ‰∏
1427:.\BLEApplication.c ****         case NOTIFY:
1428:.\BLEApplication.c ****             idx=SerialData[10];
1429:.\BLEApplication.c ****             if((CYBLE_STATE_CONNECTED==CyBle_GetState())&&(Central==Role))//‰∏ªÊú∫Ê®°Âºè‰∏ã‰∏îÊòØAT
1430:.\BLEApplication.c ****              {                  
1431:.\BLEApplication.c ****                 switch(idx)
1432:.\BLEApplication.c ****                 {
1433:.\BLEApplication.c **** //                    //ÂÖ≥Èó≠ÈÄè‰º†ÈÄöÈÅì,Âú®ÈÄè‰º†Ê®°Âºè‰∏ã‰∏ç‰ºöËøõÊù•ËøôÈáå
1434:.\BLEApplication.c ****                     case '0':
1435:.\BLEApplication.c **** //                        writeRequestData.value.val[0]=0x00;
1436:.\BLEApplication.c **** //                        writeRequestData.attrHandle=CYBLE_TROUGHPUT_SERVICE_CUSTOM_CHARACTERISTIC
1437:.\BLEApplication.c **** //                        API_RESULT=CyBle_GattcWriteCharacteristicValue(cyBle_connHandle, &writeRe
1438:.\BLEApplication.c **** //                        if(CYBLE_ERROR_OK==API_RESULT)
1439:.\BLEApplication.c **** //                        {
1440:.\BLEApplication.c ****                         CommandMode=AT_COMMAND_MODE;
1441:.\BLEApplication.c ****                         printf("+MODE=<AT_COMMAND_MODE>\r\n");
1442:.\BLEApplication.c **** //                        }
1443:.\BLEApplication.c **** ////                        printf("CyBle_GattcWriteCharacteristicValue is %d\r\n",API_RESULT);
1444:.\BLEApplication.c ****                     break;
1445:.\BLEApplication.c **** //                    ÊâìÂºÄÈÄè‰º†ÈÄöÈÅì
1446:.\BLEApplication.c ****                     case '1':
1447:.\BLEApplication.c ****                         writeRequestData.value.val[0]=0x01;
1448:.\BLEApplication.c ****                         writeRequestData.attrHandle=CYBLE_TROUGHPUT_SERVICE_CUSTOM_CHARACTERISTIC_C
1449:.\BLEApplication.c ****                         API_RESULT=CyBle_GattcWriteWithoutResponse(cyBle_connHandle, &writeRequestD
1450:.\BLEApplication.c ****                         if(CYBLE_ERROR_OK==API_RESULT)
1451:.\BLEApplication.c ****                         {
1452:.\BLEApplication.c ****                             CommandMode=THROUGHT_MODE;
1453:.\BLEApplication.c ****                             printf("+MODE=<THROUGHT_MODE>\r\n");
1454:.\BLEApplication.c ****                         }
1455:.\BLEApplication.c **** //                        printf("CyBle_GattcWriteCharacteristicValue is %d\r\n",API_RESULT);
1456:.\BLEApplication.c ****                     break;
1457:.\BLEApplication.c ****                     case '?'://‰∏ªÊú∫Ê®°Âºè‰∏ãÔºåËÉΩÊé•Êî∂Âà∞ËØ•ÂëΩ‰ª§Âàô‰∏ÄÂÆöÊòØATÂëΩ‰ª§Ê®°Âºè
1458:.\BLEApplication.c ****                         printf("+MODE=<AT_COMMAND_MODE>\r\n");                       
1459:.\BLEApplication.c ****                     break;
1460:.\BLEApplication.c ****                     default:
1461:.\BLEApplication.c ****                         printf("AT+ERR=5\r\n");//Ë°®Á§∫Ê≤°ÊúâËØ•ATÂëΩ‰ª§
1462:.\BLEApplication.c ****                     break;
1463:.\BLEApplication.c **** //                        API_RESULT=CyBle_GattcReadCharacteristicValue(cyBle_connHandle,readReques
1464:.\BLEApplication.c **** //                        printf("CyBle_GattcReadCharacteristicDescriptors is %d\r\n",API_RESULT); 
1465:.\BLEApplication.c ****                         
1466:.\BLEApplication.c **** //                    break;
1467:.\BLEApplication.c ****                 }
1468:.\BLEApplication.c ****             }
1469:.\BLEApplication.c ****             else if((CYBLE_STATE_CONNECTED==CyBle_GetState())&&(Peripheral==Role))//‰ªéÊú∫Ê®°Âºè‰∏ã
1470:.\BLEApplication.c ****             {
1471:.\BLEApplication.c ****                 switch(idx)
1472:.\BLEApplication.c ****                 {
1473:.\BLEApplication.c ****                     case '0':
1474:.\BLEApplication.c ****                         CommandMode=AT_COMMAND_MODE;
1475:.\BLEApplication.c ****                         printf("+MODE=<AT_COMMAND_MODE>\r\n");
1476:.\BLEApplication.c ****                     break;
1477:.\BLEApplication.c ****                     case '1'://‰ªéÊú∫Ê®°Âºè‰∏îATÂëΩ‰ª§Ê®°Âºè‰∏ãÔºåÊâìÂºÄ‰ªéÊú∫Áªô‰∏ªÊú∫ÁöÑÈÄè‰º†ÈÄö
1478:.\BLEApplication.c ****                         CommandMode=THROUGHT_MODE;
1479:.\BLEApplication.c ****                         printf("+MODE=<THROUGHT_MODE>\r\n");
ARM GAS  C:\Users\Helon\AppData\Local\Temp\ccoPKzhl.s 			page 39


1480:.\BLEApplication.c ****                     break;
1481:.\BLEApplication.c ****                     case '?'://‰ªéÊú∫Ê®°Âºè‰∏ãÔºåËÉΩÊé•Êî∂Âà∞ËØ•ÂëΩ‰ª§Âàô‰∏ÄÂÆöÊòØATÂëΩ‰ª§Ê®°Âºè
1482:.\BLEApplication.c ****                         printf("+MODE=<AT_COMMAND_MODE>\r\n");                       
1483:.\BLEApplication.c ****                     break;
1484:.\BLEApplication.c ****                     default:
1485:.\BLEApplication.c ****                         printf("AT+ERR=5\r\n");//Ë°®Á§∫Ê≤°ÊúâËØ•ATÂëΩ‰ª§
1486:.\BLEApplication.c ****                     break;
1487:.\BLEApplication.c **** 
1488:.\BLEApplication.c ****                 }
1489:.\BLEApplication.c **** //                printf("+NOTIFY=<INVALID>\r\n");
1490:.\BLEApplication.c ****             }
1491:.\BLEApplication.c ****             else
1492:.\BLEApplication.c ****             {
1493:.\BLEApplication.c **** //                printf("+NOTIFY=<INVALID>\r\n");
1494:.\BLEApplication.c ****                 printf("AT+ERR=3\r\n");//Ë°®Á§∫ÂΩìÂâçÁä∂ÊÄÅ‰∏çÊîØÊåÅËØ•ÂëΩ‰ª§
1495:.\BLEApplication.c ****             }
1496:.\BLEApplication.c ****         break;
1497:.\BLEApplication.c **** //            ÂΩìÂâçBLEËÆæÂ§áÁä∂ÊÄÅÊü•ËØ¢----‰∏ª‰ªéÊúâÊïà
1498:.\BLEApplication.c ****         case STAUS:
1499:.\BLEApplication.c ****             idx=SerialData[9];            
1500:.\BLEApplication.c ****             if(idx=='?')
1501:.\BLEApplication.c ****             {
1502:.\BLEApplication.c ****                 STAUS_T=CyBle_GetState();
1503:.\BLEApplication.c ****                 switch(STAUS_T)
1504:.\BLEApplication.c ****                 {
1505:.\BLEApplication.c ****                     case 0:
1506:.\BLEApplication.c ****                         printf("+STAUS=<STATE_STOPPED>\r\n");
1507:.\BLEApplication.c ****                     break;
1508:.\BLEApplication.c ****                     case 1:
1509:.\BLEApplication.c ****                         printf("+STAUS=<STATE_INITIALIZING>\r\n");
1510:.\BLEApplication.c ****                     break;
1511:.\BLEApplication.c ****                     case 2:
1512:.\BLEApplication.c ****                         printf("+STAUS=<STATE_CONNECTED>\r\n");
1513:.\BLEApplication.c ****                     break;
1514:.\BLEApplication.c ****                     case 3:
1515:.\BLEApplication.c ****                         printf("+STAUS=<STATE_ADVERTISING>\r\n");
1516:.\BLEApplication.c ****                     break;
1517:.\BLEApplication.c ****                     case 4:
1518:.\BLEApplication.c ****                         printf("+STAUS=<STATE_SCANNING>\r\n");
1519:.\BLEApplication.c ****                     break;
1520:.\BLEApplication.c ****                     case 5:
1521:.\BLEApplication.c ****                         printf("+STAUS=<STATE_CONNECTING>\r\n");
1522:.\BLEApplication.c ****                     break;
1523:.\BLEApplication.c ****                     case 6:
1524:.\BLEApplication.c ****                         printf("+STAUS=<STATE_DISCONNECTED>\r\n");
1525:.\BLEApplication.c ****                     break;
1526:.\BLEApplication.c ****                     default:
1527:.\BLEApplication.c ****                     break;
1528:.\BLEApplication.c ****                 }
1529:.\BLEApplication.c ****             }
1530:.\BLEApplication.c ****             else
1531:.\BLEApplication.c ****             {
1532:.\BLEApplication.c ****                 printf("AT+ERR=5\r\n");//Ë°®Á§∫Ê≤°ÊúâËØ•ATÂëΩ‰ª§
1533:.\BLEApplication.c ****             }
1534:.\BLEApplication.c ****         break;
1535:.\BLEApplication.c **** //            ÂπøÊí≠ÁöÑÊâìÂºÄ‰∏éÂÖ≥Èó≠-----‰ªéÊú∫ÊúâÊïà
1536:.\BLEApplication.c ****         case ADVS:            
ARM GAS  C:\Users\Helon\AppData\Local\Temp\ccoPKzhl.s 			page 40


1537:.\BLEApplication.c ****             idx=SerialData[8];            
1538:.\BLEApplication.c ****             if(Role==Peripheral)
1539:.\BLEApplication.c ****             {
1540:.\BLEApplication.c ****                 if(CYBLE_STATE_CONNECTED!=CyBle_GetState())
1541:.\BLEApplication.c ****                 {
1542:.\BLEApplication.c ****                     if(idx=='1')//ÂºÄÂßãÂπøÊí≠
1543:.\BLEApplication.c ****                     {
1544:.\BLEApplication.c ****                         if(CYBLE_STATE_ADVERTISING!=CyBle_GetState())
1545:.\BLEApplication.c ****                         {
1546:.\BLEApplication.c ****                             API_RESULT=CyBle_GappStartAdvertisement(CYBLE_ADVERTISING_FAST);
1547:.\BLEApplication.c ****                             if(CYBLE_ERROR_OK==API_RESULT)
1548:.\BLEApplication.c ****                             {
1549:.\BLEApplication.c ****     //                           printf("+ADV=<ENABLE>\r\n");
1550:.\BLEApplication.c ****                                 printf("AT+OK\r\n");
1551:.\BLEApplication.c ****                             }
1552:.\BLEApplication.c ****                             else
1553:.\BLEApplication.c ****                             {
1554:.\BLEApplication.c ****                                 printf("AT+ERR=2\r\n");//Ë°®Á§∫ÂëΩ‰ª§ËÆæÁΩÆÂ§±Ë¥•
1555:.\BLEApplication.c ****                             }
1556:.\BLEApplication.c ****                         }
1557:.\BLEApplication.c ****                         else
1558:.\BLEApplication.c ****                         {
1559:.\BLEApplication.c ****     //                        printf("+ADV=<ENABLE>\r\n");
1560:.\BLEApplication.c ****                             printf("AT+ERR=3\r\n");//Ë°®Á§∫ÂΩìÂâçÁä∂ÊÄÅ‰∏çÊîØÊåÅËØ•ÂëΩ‰ª§
1561:.\BLEApplication.c ****                         }
1562:.\BLEApplication.c ****                     }
1563:.\BLEApplication.c ****                     else if(idx=='0')//ÂÖ≥Èó≠ÂπøÊí≠
1564:.\BLEApplication.c ****                     {
1565:.\BLEApplication.c ****                         if(CYBLE_STATE_ADVERTISING==CyBle_GetState())
1566:.\BLEApplication.c ****                         {
1567:.\BLEApplication.c ****                             CyBle_GappStopAdvertisement();
1568:.\BLEApplication.c ****                             printf("AT+OK\r\n");
1569:.\BLEApplication.c ****     //                        printf("+ADV=<DISABLE>\r\n");                        
1570:.\BLEApplication.c ****                         }
1571:.\BLEApplication.c ****                         else
1572:.\BLEApplication.c ****                         {
1573:.\BLEApplication.c ****     //                        printf("+ADV=<DISABLE>\r\n");  
1574:.\BLEApplication.c ****                             printf("AT+ERR=3\r\n");//Ë°®Á§∫ÂΩìÂâçÁä∂ÊÄÅ‰∏çÊîØÊåÅËØ•ÂëΩ‰ª§
1575:.\BLEApplication.c ****                         }
1576:.\BLEApplication.c ****                     }
1577:.\BLEApplication.c ****                     else
1578:.\BLEApplication.c ****                     {
1579:.\BLEApplication.c ****                         printf("AT+ERR=5\r\n");//Ë°®Á§∫Ê≤°ÊúâËØ•ATÂëΩ‰ª§
1580:.\BLEApplication.c ****                     }
1581:.\BLEApplication.c ****                 }
1582:.\BLEApplication.c ****                 else
1583:.\BLEApplication.c ****                 {
1584:.\BLEApplication.c ****     //                printf("+ADV=<INVALID>\r\n"); 
1585:.\BLEApplication.c ****                     printf("AT+ERR=3\r\n");//Ë°®Á§∫ÂΩìÂâçÁä∂ÊÄÅ‰∏çÊîØÊåÅËØ•ÂëΩ‰ª§
1586:.\BLEApplication.c ****                 }
1587:.\BLEApplication.c ****             }
1588:.\BLEApplication.c ****             else
1589:.\BLEApplication.c ****             {
1590:.\BLEApplication.c **** //                printf("+CONNT=<INVALID>\r\n");
1591:.\BLEApplication.c ****                 printf("AT+ERR=4\r\n");//Ë°®Á§∫ÂΩìÂâçËßíËâ≤‰∏çÊîØÊåÅËØ•ÂëΩ‰ª§
1592:.\BLEApplication.c ****             }
1593:.\BLEApplication.c ****         break;
ARM GAS  C:\Users\Helon\AppData\Local\Temp\ccoPKzhl.s 			page 41


1594:.\BLEApplication.c **** //            ËÆæÁΩÆËÆæÂ§áIOÁöÑËÉΩÂäõ-----‰∏ª‰ªéÊúâÊïà
1595:.\BLEApplication.c ****         case IOCAP:
1596:.\BLEApplication.c ****             idx=SerialData[9];
1597:.\BLEApplication.c ****             if(CYBLE_STATE_CONNECTED!=CyBle_GetState())
1598:.\BLEApplication.c ****             {                
1599:.\BLEApplication.c ****                 switch(idx)
1600:.\BLEApplication.c ****                 {
1601:.\BLEApplication.c ****                     case '0':
1602:.\BLEApplication.c ****                     API_RESULT=CyBle_GapSetIoCap(CYBLE_GAP_IOCAP_DISPLAY_ONLY);
1603:.\BLEApplication.c ****                     if(API_RESULT==CYBLE_ERROR_OK)
1604:.\BLEApplication.c ****                     {
1605:.\BLEApplication.c **** //                        printf("+IOCAP=<DISPLAY_ONLY>\r\n");
1606:.\BLEApplication.c ****                         printf("AT+OK\r\n");
1607:.\BLEApplication.c ****                         iocapability=CYBLE_GAP_IOCAP_DISPLAY_ONLY;
1608:.\BLEApplication.c ****                     }
1609:.\BLEApplication.c ****                     else
1610:.\BLEApplication.c ****                     {
1611:.\BLEApplication.c ****                         printf("AT+ERR=2\r\n");//Ë°®Á§∫ÂëΩ‰ª§ËÆæÁΩÆÂ§±Ë¥•
1612:.\BLEApplication.c ****                     }
1613:.\BLEApplication.c ****                     break;
1614:.\BLEApplication.c ****                     case '1':
1615:.\BLEApplication.c ****                     API_RESULT=CyBle_GapSetIoCap(CYBLE_GAP_IOCAP_DISPLAY_YESNO);
1616:.\BLEApplication.c ****                     if(API_RESULT==CYBLE_ERROR_OK)
1617:.\BLEApplication.c ****                     {
1618:.\BLEApplication.c **** //                        printf("+IOCAP=<DISPLAY_YESNO>\r\n");
1619:.\BLEApplication.c ****                         printf("AT+OK\r\n");
1620:.\BLEApplication.c ****                         iocapability=CYBLE_GAP_IOCAP_DISPLAY_YESNO;
1621:.\BLEApplication.c ****                     }
1622:.\BLEApplication.c ****                     else
1623:.\BLEApplication.c ****                     {
1624:.\BLEApplication.c ****                         printf("AT+ERR=2\r\n");//Ë°®Á§∫ÂëΩ‰ª§ËÆæÁΩÆÂ§±Ë¥•
1625:.\BLEApplication.c ****                     }
1626:.\BLEApplication.c ****                     break;
1627:.\BLEApplication.c ****                     case '2':
1628:.\BLEApplication.c ****                     API_RESULT=CyBle_GapSetIoCap(CYBLE_GAP_IOCAP_KEYBOARD_ONLY);
1629:.\BLEApplication.c ****                     if(API_RESULT==CYBLE_ERROR_OK)
1630:.\BLEApplication.c ****                     {
1631:.\BLEApplication.c **** //                        printf("+IOCAP=<KEYBOARD_ONLY>\r\n");
1632:.\BLEApplication.c ****                         printf("AT+OK\r\n");
1633:.\BLEApplication.c ****                         iocapability=CYBLE_GAP_IOCAP_KEYBOARD_ONLY;
1634:.\BLEApplication.c ****                     }
1635:.\BLEApplication.c ****                     else
1636:.\BLEApplication.c ****                     {
1637:.\BLEApplication.c ****                         printf("AT+ERR=2\r\n");//Ë°®Á§∫ÂëΩ‰ª§ËÆæÁΩÆÂ§±Ë¥•
1638:.\BLEApplication.c ****                     }
1639:.\BLEApplication.c ****                     break;
1640:.\BLEApplication.c ****                     case '3':
1641:.\BLEApplication.c ****                     API_RESULT=CyBle_GapSetIoCap(CYBLE_GAP_IOCAP_NOINPUT_NOOUTPUT);
1642:.\BLEApplication.c ****                     if(API_RESULT==CYBLE_ERROR_OK)
1643:.\BLEApplication.c ****                     {
1644:.\BLEApplication.c **** //                        printf("+IOCAP=<NOINPUT_NOOUTPUT>\r\n");
1645:.\BLEApplication.c ****                         printf("AT+OK\r\n");
1646:.\BLEApplication.c ****                         iocapability=CYBLE_GAP_IOCAP_NOINPUT_NOOUTPUT;
1647:.\BLEApplication.c ****                     }
1648:.\BLEApplication.c ****                     else
1649:.\BLEApplication.c ****                     {
1650:.\BLEApplication.c ****                         printf("AT+ERR=2\r\n");//Ë°®Á§∫ÂëΩ‰ª§ËÆæÁΩÆÂ§±Ë¥•
ARM GAS  C:\Users\Helon\AppData\Local\Temp\ccoPKzhl.s 			page 42


1651:.\BLEApplication.c ****                     }
1652:.\BLEApplication.c ****                     break;
1653:.\BLEApplication.c ****                     case '4':
1654:.\BLEApplication.c ****                     API_RESULT=CyBle_GapSetIoCap(CYBLE_GAP_IOCAP_KEYBOARD_DISPLAY);
1655:.\BLEApplication.c ****                     if(API_RESULT==CYBLE_ERROR_OK)
1656:.\BLEApplication.c ****                     {
1657:.\BLEApplication.c **** //                        printf("+IOCAP=<KEYBOARD_DISPLAY>\r\n");
1658:.\BLEApplication.c ****                         printf("AT+OK\r\n");
1659:.\BLEApplication.c ****                         iocapability=CYBLE_GAP_IOCAP_KEYBOARD_DISPLAY;
1660:.\BLEApplication.c ****                     }
1661:.\BLEApplication.c ****                     else
1662:.\BLEApplication.c ****                     {
1663:.\BLEApplication.c ****                         printf("AT+ERR=2\r\n");//Ë°®Á§∫ÂëΩ‰ª§ËÆæÁΩÆÂ§±Ë¥•
1664:.\BLEApplication.c ****                     }
1665:.\BLEApplication.c ****                     break;
1666:.\BLEApplication.c ****                     case '?':
1667:.\BLEApplication.c ****                         switch(iocapability)
1668:.\BLEApplication.c ****                         {
1669:.\BLEApplication.c ****                             case 0:
1670:.\BLEApplication.c ****                                 printf("+IOCAP=<DISPLAY_ONLY>\r\n");
1671:.\BLEApplication.c ****                             break;
1672:.\BLEApplication.c ****                             case 1:
1673:.\BLEApplication.c ****                                 printf("+IOCAP=<DISPLAY_YESNO>\r\n");
1674:.\BLEApplication.c ****                             break;
1675:.\BLEApplication.c ****                             case 2:
1676:.\BLEApplication.c ****                                 printf("+IOCAP=<KEYBOARD_ONLY>\r\n");
1677:.\BLEApplication.c ****                             break;
1678:.\BLEApplication.c ****                             case 3:
1679:.\BLEApplication.c ****                                 printf("+IOCAP=<NOINPUT_NOOUTPUT>\r\n");
1680:.\BLEApplication.c ****                             break;
1681:.\BLEApplication.c ****                             case 4:
1682:.\BLEApplication.c ****                                 printf("+IOCAP=<KEYBOARD_DISPLAY>\r\n");
1683:.\BLEApplication.c ****                             break;
1684:.\BLEApplication.c ****                         }
1685:.\BLEApplication.c ****                     break;
1686:.\BLEApplication.c ****                     default:
1687:.\BLEApplication.c ****                         printf("AT+ERR=5\r\n");//Ë°®Á§∫Ê≤°ÊúâËØ•ATÂëΩ‰ª§
1688:.\BLEApplication.c ****                     break;
1689:.\BLEApplication.c ****                 }   
1690:.\BLEApplication.c ****             }            
1691:.\BLEApplication.c ****             else
1692:.\BLEApplication.c ****             {
1693:.\BLEApplication.c **** //                printf("+IOCAP=<INVALID>\r\n");
1694:.\BLEApplication.c ****                 printf("AT+ERR=3\r\n");//Ë°®Á§∫ÂΩìÂâçÁä∂ÊÄÅ‰∏çÊîØÊåÅËØ•ÂëΩ‰ª§
1695:.\BLEApplication.c ****             }
1696:.\BLEApplication.c ****         break;
1697:.\BLEApplication.c **** //            ÂèëËµ∑ÈÖçÂØπËØ∑Ê±Ç-----‰∏ª‰ªéÊúâÊïà            
1698:.\BLEApplication.c ****         case AUTH:
1699:.\BLEApplication.c ****             idx=SerialData[8];
1700:.\BLEApplication.c ****             if(idx=='?')
1701:.\BLEApplication.c ****             {
1702:.\BLEApplication.c ****                 if(AUTHFLAG)
1703:.\BLEApplication.c ****                     printf("+AUTH=<ENABLE>\r\n");
1704:.\BLEApplication.c ****                 else
1705:.\BLEApplication.c ****                     printf("+AUTH=<DISABLE>\r\n");
1706:.\BLEApplication.c ****             }
1707:.\BLEApplication.c ****             else if(idx=='1')
ARM GAS  C:\Users\Helon\AppData\Local\Temp\ccoPKzhl.s 			page 43


1708:.\BLEApplication.c ****             {
1709:.\BLEApplication.c ****                 if(!AUTHFLAG)
1710:.\BLEApplication.c ****                 {
1711:.\BLEApplication.c **** //                  ÂèëÈÄÅËÆ§ËØÅËØ∑Ê±Ç  
1712:.\BLEApplication.c ****                     API_RESULT=CyBle_GapAuthReq(cyBle_connHandle.bdHandle,&cyBle_authInfo); 
1713:.\BLEApplication.c ****                     if(API_RESULT==CYBLE_ERROR_OK)
1714:.\BLEApplication.c ****                     {
1715:.\BLEApplication.c ****                         printf("AT+OK\r\n");
1716:.\BLEApplication.c ****                     }
1717:.\BLEApplication.c ****                     else
1718:.\BLEApplication.c ****                     {
1719:.\BLEApplication.c ****                         printf("AT+ERR=2\r\n");//Ë°®Á§∫ÂëΩ‰ª§ËÆæÁΩÆÂ§±Ë¥•
1720:.\BLEApplication.c ****                     }
1721:.\BLEApplication.c ****                 }                                  
1722:.\BLEApplication.c ****                 else
1723:.\BLEApplication.c ****                 {
1724:.\BLEApplication.c ****                     printf("AT+ERR=3\r\n");//Ë°®Á§∫ÂΩìÂâçÁä∂ÊÄÅ‰∏çÊîØÊåÅËØ•ÂëΩ‰ª§
1725:.\BLEApplication.c ****                 }
1726:.\BLEApplication.c ****                     
1727:.\BLEApplication.c **** //                    printf("+AUTH=<INVALID>\r\n");
1728:.\BLEApplication.c ****             }
1729:.\BLEApplication.c ****             else
1730:.\BLEApplication.c ****             {
1731:.\BLEApplication.c ****                 printf("AT+ERR=5\r\n");//Ë°®Á§∫Ê≤°ÊúâËØ•ATÂëΩ‰ª§
1732:.\BLEApplication.c ****             }
1733:.\BLEApplication.c ****         break;
1734:.\BLEApplication.c **** //            ËÆæÁΩÆ‰ΩéÂäüËÄóËÉΩÂäõ-----‰∏ª‰ªéÊúâÊïà            
1735:.\BLEApplication.c ****         case SLEEP:
1736:.\BLEApplication.c ****             idx=SerialData[9];
1737:.\BLEApplication.c ****             switch(idx)
1738:.\BLEApplication.c ****             {
1739:.\BLEApplication.c ****                 case '0':
1740:.\BLEApplication.c **** //                    LowPower_EN=FALSE;
1741:.\BLEApplication.c ****                     SleepMode=FALSE;
1742:.\BLEApplication.c ****                     printf("AT+OK\r\n");
1743:.\BLEApplication.c ****                 break;
1744:.\BLEApplication.c ****                 case '1':
1745:.\BLEApplication.c **** //                    LowPower_EN=TURE;
1746:.\BLEApplication.c ****                     SleepMode=TURE;
1747:.\BLEApplication.c ****                     printf("AT+OK\r\n");
1748:.\BLEApplication.c ****                 break;
1749:.\BLEApplication.c ****                 case '?':
1750:.\BLEApplication.c ****                     if(SleepMode)
1751:.\BLEApplication.c ****                         printf("+SLEEPMODE=<ENABLE>\r\n");
1752:.\BLEApplication.c ****                     else
1753:.\BLEApplication.c ****                         printf("+SLEEPMODE=<DISABLE>\r\n");
1754:.\BLEApplication.c ****                 break;
1755:.\BLEApplication.c ****                 default:
1756:.\BLEApplication.c ****                     printf("AT+ERR=5\r\n");//Ë°®Á§∫Ê≤°ÊúâËØ•ATÂëΩ‰ª§
1757:.\BLEApplication.c ****                 break;
1758:.\BLEApplication.c ****             }
1759:.\BLEApplication.c ****         break;
1760:.\BLEApplication.c ****         default:
1761:.\BLEApplication.c ****             printf("AT+ERR=5\r\n");//Ë°®Á§∫Ê≤°ÊúâËØ•ATÂëΩ‰ª§
1762:.\BLEApplication.c ****         break;
1763:.\BLEApplication.c ****     }
1764:.\BLEApplication.c ****         
ARM GAS  C:\Users\Helon\AppData\Local\Temp\ccoPKzhl.s 			page 44


1765:.\BLEApplication.c **** }
1766:.\BLEApplication.c **** 
1767:.\BLEApplication.c **** /******************************************************************************
1768:.\BLEApplication.c **** * Function Name: Command_Identify
1769:.\BLEApplication.c **** ***************************************************************************//**
1770:.\BLEApplication.c **** * 
1771:.\BLEApplication.c **** *  ËØÜÂà´ATÂëΩ‰ª§
1772:.\BLEApplication.c **** * \param  SerialData:ÊåáÂêëcharÂûãÁöÑÊåáÈíà
1773:.\BLEApplication.c **** * \return ËøîÂõûATÂëΩ‰ª§Âú®ATÂëΩ‰ª§ÂàóË°®‰∏≠ÁöÑÁ¥¢ÂºïÂÄº
1774:.\BLEApplication.c **** *  
1775:.\BLEApplication.c **** * 
1776:.\BLEApplication.c **** ******************************************************************************/
1777:.\BLEApplication.c **** uint8_t Command_Identify(const char* SerialData)
1778:.\BLEApplication.c **** {
1779:.\BLEApplication.c ****     if(NULL==SerialData)
1780:.\BLEApplication.c ****         return FALSE;
1781:.\BLEApplication.c ****     uint8_t SerialArryLength=0,i=0,location;    
1782:.\BLEApplication.c **** //    char String[20]={0};
1783:.\BLEApplication.c ****     if(0==strcmp(SerialData,"AT\r\n"))
1784:.\BLEApplication.c ****     {
1785:.\BLEApplication.c **** //        printf("OK\r\n");
1786:.\BLEApplication.c ****         return _AT;
1787:.\BLEApplication.c ****     }
1788:.\BLEApplication.c ****     //Ëé∑ÂèñATÂëΩ‰ª§Á≠âÂè∑ÁöÑ‰ΩçÁΩÆÔºåÂ¶Ç‚ÄúAT+RESET=1‚Äù‰∏≠‚Äú=‚ÄùÂè∑ÁöÑ‰ΩçÁΩÆÊòØ8.
1789:.\BLEApplication.c ****     location=strchr((char*)SerialData,'=')-SerialData;
1790:.\BLEApplication.c ****     if(location>11)
1791:.\BLEApplication.c ****     {
1792:.\BLEApplication.c ****         return 0xff;
1793:.\BLEApplication.c ****     }
1794:.\BLEApplication.c **** //    Âä®ÊÄÅÂàÜÈÖçÂ†ÜÁ©∫Èó¥
1795:.\BLEApplication.c ****     char* String=malloc(sizeof(char)*location);
1796:.\BLEApplication.c ****     //‰øùÂ≠òATÂëΩ‰ª§Á≠âÂè∑ÂâçÁöÑÊï∞ÊçÆ.
1797:.\BLEApplication.c ****     strncpy(String,SerialData,location);
1798:.\BLEApplication.c ****     SerialArryLength=sizeof(StringArry)/sizeof(StringArry[0]);   
1799:.\BLEApplication.c **** //    ÂåπÈÖçATÂëΩ‰ª§ÂàóË°®‰∏≠ATÂëΩ‰ª§ÁöÑ‰ΩçÁΩÆ
1800:.\BLEApplication.c ****     for(i=0;i<SerialArryLength;i++)
1801:.\BLEApplication.c ****     {
1802:.\BLEApplication.c ****         if(strncmp((char*)String,StringArry[i],location)==0)
1803:.\BLEApplication.c ****         {
1804:.\BLEApplication.c ****             break;
1805:.\BLEApplication.c ****         }
1806:.\BLEApplication.c **** //        printf("%s\r\n",StringArry[i]);
1807:.\BLEApplication.c **** //        printf("%d\r\n",strcmp((char*)String,StringArry[i]));
1808:.\BLEApplication.c ****     }
1809:.\BLEApplication.c **** //    ÈáäÊîæ‰πãÂâçÂàÜÈÖçÁöÑÂ†ÜÁ©∫Èó¥
1810:.\BLEApplication.c ****     free(String);
1811:.\BLEApplication.c ****     return i;
1812:.\BLEApplication.c **** }
1813:.\BLEApplication.c **** 
1814:.\BLEApplication.c **** /*******************************************************************************
1815:.\BLEApplication.c **** * Function Name: MyTimerIsr()
1816:.\BLEApplication.c **** ********************************************************************************
1817:.\BLEApplication.c **** * Summary:
1818:.\BLEApplication.c **** * Interrupt service routine for the timer block.
1819:.\BLEApplication.c **** *
1820:.\BLEApplication.c **** * Parameters:
1821:.\BLEApplication.c **** * None
ARM GAS  C:\Users\Helon\AppData\Local\Temp\ccoPKzhl.s 			page 45


1822:.\BLEApplication.c **** *
1823:.\BLEApplication.c **** * Return:
1824:.\BLEApplication.c **** * None
1825:.\BLEApplication.c **** *
1826:.\BLEApplication.c **** * Theory:
1827:.\BLEApplication.c **** * The ISR is fired when the timer reaches terminal count. In the ISR, the total
1828:.\BLEApplication.c **** * number of bytes received until now is cached locally (to avoid any potential 
1829:.\BLEApplication.c **** * race conditions) and then the throughput is calculated from it.
1830:.\BLEApplication.c **** * Since the ISR fires 10 seconds after the timer is started, the total number
1831:.\BLEApplication.c **** * of bytes is divided by 10. The bytes are converted to kilobytes by dividing 
1832:.\BLEApplication.c **** * by 1024. It is then converted to kilo bits by multiplying the result by 8.
1833:.\BLEApplication.c **** *
1834:.\BLEApplication.c **** * Side Effects:
1835:.\BLEApplication.c **** * None
1836:.\BLEApplication.c **** *
1837:.\BLEApplication.c **** *******************************************************************************/
1838:.\BLEApplication.c **** CY_ISR(MyTimerIsr)
1839:.\BLEApplication.c **** {
 682              		.loc 1 1839 0
 683              		.cfi_startproc
 684 0000 38B5     		push	{r3, r4, r5, lr}
 685              		.cfi_def_cfa_offset 16
 686              		.cfi_offset 3, -16
 687              		.cfi_offset 4, -12
 688              		.cfi_offset 5, -8
 689              		.cfi_offset 14, -4
1840:.\BLEApplication.c **** //    uint32 cachedTotalByteCounter = totalByteCounter;
1841:.\BLEApplication.c **** //    uint32 throughput;
1842:.\BLEApplication.c ****     static uint32 timercount=0;
1843:.\BLEApplication.c ****     Timer_ClearInterrupt(Timer_INTR_MASK_TC);
 690              		.loc 1 1843 0
 691 0002 0120     		mov	r0, #1
 692 0004 FFF7FEFF 		bl	Timer_ClearInterrupt
 693              	.LVL76:
1844:.\BLEApplication.c ****     _10sIsOver=TURE;
 694              		.loc 1 1844 0
 695 0008 094A     		ldr	r2, .L45
 696 000a 0123     		mov	r3, #1
 697 000c 5375     		strb	r3, [r2, #21]
1845:.\BLEApplication.c ****     timercount++;
 698              		.loc 1 1845 0
 699 000e 9369     		ldr	r3, [r2, #24]
 700 0010 0133     		add	r3, r3, #1
 701 0012 9361     		str	r3, [r2, #24]
1846:.\BLEApplication.c ****     if(timercount==10001)
 702              		.loc 1 1846 0
 703 0014 074A     		ldr	r2, .L45+4
 704 0016 9342     		cmp	r3, r2
 705 0018 08D1     		bne	.L43
1847:.\BLEApplication.c ****     {
1848:.\BLEApplication.c ****         _10sIsOver=FALSE;
 706              		.loc 1 1848 0
 707 001a 054C     		ldr	r4, .L45
 708 001c 0025     		mov	r5, #0
 709 001e 6575     		strb	r5, [r4, #21]
1849:.\BLEApplication.c ****         Timer_Stop();
 710              		.loc 1 1849 0
ARM GAS  C:\Users\Helon\AppData\Local\Temp\ccoPKzhl.s 			page 46


 711 0020 FFF7FEFF 		bl	Timer_Stop
 712              	.LVL77:
1850:.\BLEApplication.c ****         timercount=0;
 713              		.loc 1 1850 0
 714 0024 A561     		str	r5, [r4, #24]
1851:.\BLEApplication.c ****         printf("Send Compelete!\r\n");
 715              		.loc 1 1851 0
 716 0026 0448     		ldr	r0, .L45+8
 717 0028 FFF7FEFF 		bl	puts
 718              	.LVL78:
 719              	.L43:
1852:.\BLEApplication.c ****         
1853:.\BLEApplication.c ****     }
1854:.\BLEApplication.c **** //    charNotificationEnabled=FALSE;
1855:.\BLEApplication.c **** //    TroughtTest_Flag=FALSE;
1856:.\BLEApplication.c **** //    TroughtTest_Flag=FALSE;
1857:.\BLEApplication.c ****     /* Total bytes received in 10 seconds converted to Kilo bits per second */
1858:.\BLEApplication.c **** //    printf("totalByteCounter is %ld",totalByteCounter);
1859:.\BLEApplication.c **** //    while((UART_SpiUartGetTxBufferSize() + UART_GET_TX_FIFO_SR_VALID) != 0);//Á≠âÂæÖ‰∏≤Âè£ÁºìÂÜ≤Â
1860:.\BLEApplication.c **** //    throughput = (cachedTotalByteCounter >> 7) / 10;
1861:.\BLEApplication.c **** //    printf("\r\n+SPEED=<%ldkbps>\r\n",throughput);      
1862:.\BLEApplication.c **** //    CyBle_GattcWriteCharacteristicDescriptors(cyBle_connHandle, &writeRequestData);
1863:.\BLEApplication.c **** }
 720              		.loc 1 1863 0
 721              		@ sp needed
 722 002c 38BD     		pop	{r3, r4, r5, pc}
 723              	.L46:
 724 002e C046     		.align	2
 725              	.L45:
 726 0030 00000000 		.word	.LANCHOR0
 727 0034 11270000 		.word	10001
 728 0038 1C010000 		.word	.LC37
 729              		.cfi_endproc
 730              	.LFE45:
 731              		.size	MyTimerIsr, .-MyTimerIsr
 732              		.section	.text.LowPowerManagement,"ax",%progbits
 733              		.align	2
 734              		.global	LowPowerManagement
 735              		.code	16
 736              		.thumb_func
 737              		.type	LowPowerManagement, %function
 738              	LowPowerManagement:
 739              	.LFB36:
 465:.\BLEApplication.c ****     /* Local variable to store the status of BLESS Hardware block */
 740              		.loc 1 465 0
 741              		.cfi_startproc
 742 0000 10B5     		push	{r4, lr}
 743              		.cfi_def_cfa_offset 8
 744              		.cfi_offset 4, -8
 745              		.cfi_offset 14, -4
 471:.\BLEApplication.c **** 		
 746              		.loc 1 471 0
 747 0002 0320     		mov	r0, #3
 748 0004 FFF7FEFF 		bl	CyBle_EnterLPM
 749              	.LVL79:
 750 0008 041C     		mov	r4, r0
 751              	.LVL80:
ARM GAS  C:\Users\Helon\AppData\Local\Temp\ccoPKzhl.s 			page 47


 474:.\BLEApplication.c **** 	
 752              		.loc 1 474 0
 753              	@ 474 ".\BLEApplication.c" 1
 754 000a 72B6     		CPSID   i
 755              	@ 0 "" 2
 477:.\BLEApplication.c **** 
 756              		.loc 1 477 0
 757              		.code	16
 758 000c FFF7FEFF 		bl	CyBle_GetBleSsState
 759              	.LVL81:
 479:.\BLEApplication.c **** 		{
 760              		.loc 1 479 0
 761 0010 032C     		cmp	r4, #3
 762 0012 28D1     		bne	.L48
 483:.\BLEApplication.c **** 		    {
 763              		.loc 1 483 0
 764 0014 0428     		cmp	r0, #4
 765 0016 01D0     		beq	.L49
 483:.\BLEApplication.c **** 		    {
 766              		.loc 1 483 0 is_stmt 0 discriminator 1
 767 0018 0628     		cmp	r0, #6
 768 001a 2AD1     		bne	.L50
 769              	.L49:
 486:.\BLEApplication.c ****                 while((UART_SpiUartGetTxBufferSize() + UART_GET_TX_FIFO_SR_VALID) != 0);//Á≠âÂæÖ‰∏≤
 770              		.loc 1 486 0 is_stmt 1
 771 001c 0020     		mov	r0, #0
 772              	.LVL82:
 773 001e FFF7FEFF 		bl	Status_LED_Write
 774              	.LVL83:
 775              	.L52:
 487:.\BLEApplication.c ****                 UART_Sleep();
 776              		.loc 1 487 0 discriminator 5
 777 0022 FFF7FEFF 		bl	UART_SpiUartGetTxBufferSize
 778              	.LVL84:
 779 0026 144B     		ldr	r3, .L53
 780 0028 1B68     		ldr	r3, [r3]
 781 002a 8022     		mov	r2, #128
 782 002c 1202     		lsl	r2, r2, #8
 783 002e 1340     		and	r3, r2
 784 0030 00D0     		beq	.L51
 487:.\BLEApplication.c ****                 UART_Sleep();
 785              		.loc 1 487 0 is_stmt 0
 786 0032 0123     		mov	r3, #1
 787              	.L51:
 487:.\BLEApplication.c ****                 UART_Sleep();
 788              		.loc 1 487 0 discriminator 4
 789 0034 C318     		add	r3, r0, r3
 790 0036 002B     		cmp	r3, #0
 791 0038 F3D1     		bne	.L52
 488:.\BLEApplication.c **** 		        CySysPmDeepSleep();
 792              		.loc 1 488 0 is_stmt 1
 793 003a FFF7FEFF 		bl	UART_Sleep
 794              	.LVL85:
 489:.\BLEApplication.c ****                 UART_Wakeup();
 795              		.loc 1 489 0
 796 003e FFF7FEFF 		bl	CySysPmDeepSleep
 797              	.LVL86:
ARM GAS  C:\Users\Helon\AppData\Local\Temp\ccoPKzhl.s 			page 48


 490:.\BLEApplication.c ****                 CyDelay(5);
 798              		.loc 1 490 0
 799 0042 FFF7FEFF 		bl	UART_Wakeup
 800              	.LVL87:
 491:.\BLEApplication.c ****                 UART_SpiUartClearRxBuffer();//Ê∏ÖÈô§‰∏≤Âè£Êé•Êî∂ÁºìÂÜ≤Âå∫
 801              		.loc 1 491 0
 802 0046 0520     		mov	r0, #5
 803 0048 FFF7FEFF 		bl	CyDelay
 804              	.LVL88:
 492:.\BLEApplication.c ****                 UART_RX_WAKEUP_IRQ_ClearPending();
 805              		.loc 1 492 0
 806 004c FFF7FEFF 		bl	UART_SpiUartClearRxBuffer
 807              	.LVL89:
 493:.\BLEApplication.c **** //                UART_SCB_IRQ_ClearPending();
 808              		.loc 1 493 0
 809 0050 FFF7FEFF 		bl	UART_RX_WAKEUP_IRQ_ClearPending
 810              	.LVL90:
 495:.\BLEApplication.c **** //                UART_RX_WAKEUP_IRQ_Disable();
 811              		.loc 1 495 0
 812 0054 FFF7FEFF 		bl	UART_rx_wake_ClearInterrupt
 813              	.LVL91:
 500:.\BLEApplication.c ****                 Status_LED_Write(LED_OFF);  
 814              		.loc 1 500 0
 815 0058 0022     		mov	r2, #0
 816 005a 084B     		ldr	r3, .L53+4
 817 005c DA72     		strb	r2, [r3, #11]
 501:.\BLEApplication.c **** 
 818              		.loc 1 501 0
 819 005e 0120     		mov	r0, #1
 820 0060 FFF7FEFF 		bl	Status_LED_Write
 821              	.LVL92:
 822 0064 05E0     		b	.L50
 823              	.LVL93:
 824              	.L48:
 505:.\BLEApplication.c **** 		{
 825              		.loc 1 505 0
 826 0066 022C     		cmp	r4, #2
 827 0068 03D1     		bne	.L50
 507:.\BLEApplication.c **** 		    {
 828              		.loc 1 507 0
 829 006a 0228     		cmp	r0, #2
 830 006c 01D0     		beq	.L50
 511:.\BLEApplication.c **** 		    }
 831              		.loc 1 511 0
 832 006e FFF7FEFF 		bl	CySysPmSleep
 833              	.LVL94:
 834              	.L50:
 515:.\BLEApplication.c ****         
 835              		.loc 1 515 0
 836              	@ 515 ".\BLEApplication.c" 1
 837 0072 62B6     		CPSIE   i
 838              	@ 0 "" 2
 517:.\BLEApplication.c **** 
 839              		.loc 1 517 0
 840              		.code	16
 841              		@ sp needed
 842              	.LVL95:
ARM GAS  C:\Users\Helon\AppData\Local\Temp\ccoPKzhl.s 			page 49


 843 0074 10BD     		pop	{r4, pc}
 844              	.L54:
 845 0076 C046     		.align	2
 846              	.L53:
 847 0078 08022440 		.word	1076101640
 848 007c 00000000 		.word	.LANCHOR1
 849              		.cfi_endproc
 850              	.LFE36:
 851              		.size	LowPowerManagement, .-LowPowerManagement
 852              		.section	.text.MY_ISR_USERBUTTON,"ax",%progbits
 853              		.align	2
 854              		.global	MY_ISR_USERBUTTON
 855              		.code	16
 856              		.thumb_func
 857              		.type	MY_ISR_USERBUTTON, %function
 858              	MY_ISR_USERBUTTON:
 859              	.LFB37:
 530:.\BLEApplication.c **** //    isr_UserButton_ClearPending();
 860              		.loc 1 530 0
 861              		.cfi_startproc
 542:.\BLEApplication.c **** /******************************************************************************
 862              		.loc 1 542 0
 863              		@ sp needed
 864 0000 7047     		bx	lr
 865              		.cfi_endproc
 866              	.LFE37:
 867              		.size	MY_ISR_USERBUTTON, .-MY_ISR_USERBUTTON
 868 0002 C046     		.section	.text.My_ISR_UART,"ax",%progbits
 869              		.align	2
 870              		.global	My_ISR_UART
 871              		.code	16
 872              		.thumb_func
 873              		.type	My_ISR_UART, %function
 874              	My_ISR_UART:
 875              	.LFB38:
 554:.\BLEApplication.c **** //    uint8_t rxdata;
 876              		.loc 1 554 0
 877              		.cfi_startproc
 556:.\BLEApplication.c ****     {
 878              		.loc 1 556 0
 879 0000 054B     		ldr	r3, .L58
 880 0002 1B68     		ldr	r3, [r3]
 881 0004 5B07     		lsl	r3, r3, #29
 882 0006 02D5     		bpl	.L57
 558:.\BLEApplication.c ****         //ËØªÂèñ‰∏≤Âè£Êï∞ÊçÆ
 883              		.loc 1 558 0
 884 0008 0122     		mov	r2, #1
 885 000a 044B     		ldr	r3, .L58+4
 886 000c 1A77     		strb	r2, [r3, #28]
 887              	.L57:
 576:.\BLEApplication.c ****   
 888              		.loc 1 576 0
 889 000e 0422     		mov	r2, #4
 890 0010 034B     		ldr	r3, .L58+8
 891 0012 1A60     		str	r2, [r3]
 578:.\BLEApplication.c **** 
 892              		.loc 1 578 0
ARM GAS  C:\Users\Helon\AppData\Local\Temp\ccoPKzhl.s 			page 50


 893              		@ sp needed
 894 0014 7047     		bx	lr
 895              	.L59:
 896 0016 C046     		.align	2
 897              	.L58:
 898 0018 CC0F2440 		.word	1076105164
 899 001c 00000000 		.word	.LANCHOR0
 900 0020 C00F2440 		.word	1076105152
 901              		.cfi_endproc
 902              	.LFE38:
 903              		.size	My_ISR_UART, .-My_ISR_UART
 904              		.section	.text.ConfigUartInit,"ax",%progbits
 905              		.align	2
 906              		.global	ConfigUartInit
 907              		.code	16
 908              		.thumb_func
 909              		.type	ConfigUartInit, %function
 910              	ConfigUartInit:
 911              	.LFB40:
 631:.\BLEApplication.c **** //    configUart.mode=UART_UART_MODE_STD;         /* mode: Standard */ 
 912              		.loc 1 631 0
 913              		.cfi_startproc
 658:.\BLEApplication.c **** /******************************************************************************
 914              		.loc 1 658 0
 915              		@ sp needed
 916 0000 7047     		bx	lr
 917              		.cfi_endproc
 918              	.LFE40:
 919              		.size	ConfigUartInit, .-ConfigUartInit
 920 0002 C046     		.section	.text.SetUartConfiguration,"ax",%progbits
 921              		.align	2
 922              		.global	SetUartConfiguration
 923              		.code	16
 924              		.thumb_func
 925              		.type	SetUartConfiguration, %function
 926              	SetUartConfiguration:
 927              	.LFB41:
 670:.\BLEApplication.c **** //    cystatus status = CYRET_SUCCESS; 
 928              		.loc 1 670 0
 929              		.cfi_startproc
 930              	.LVL96:
 680:.\BLEApplication.c **** 
 931              		.loc 1 680 0
 932              		@ sp needed
 933 0000 7047     		bx	lr
 934              		.cfi_endproc
 935              	.LFE41:
 936              		.size	SetUartConfiguration, .-SetUartConfiguration
 937 0002 C046     		.section	.text.LedInit,"ax",%progbits
 938              		.align	2
 939              		.global	LedInit
 940              		.code	16
 941              		.thumb_func
 942              		.type	LedInit, %function
 943              	LedInit:
 944              	.LFB42:
 693:.\BLEApplication.c ****     Status_LED_SetDriveMode(Status_LED_DM_STRONG);
ARM GAS  C:\Users\Helon\AppData\Local\Temp\ccoPKzhl.s 			page 51


 945              		.loc 1 693 0
 946              		.cfi_startproc
 947 0000 08B5     		push	{r3, lr}
 948              		.cfi_def_cfa_offset 8
 949              		.cfi_offset 3, -8
 950              		.cfi_offset 14, -4
 694:.\BLEApplication.c ****     Connected_LED_SetDriveMode(Connected_LED_DM_STRONG);
 951              		.loc 1 694 0
 952 0002 0620     		mov	r0, #6
 953 0004 FFF7FEFF 		bl	Status_LED_SetDriveMode
 954              	.LVL97:
 695:.\BLEApplication.c ****     Status_LED_Write(LED_OFF);
 955              		.loc 1 695 0
 956 0008 0620     		mov	r0, #6
 957 000a FFF7FEFF 		bl	Connected_LED_SetDriveMode
 958              	.LVL98:
 696:.\BLEApplication.c ****     Connected_LED_Write(LED_OFF);
 959              		.loc 1 696 0
 960 000e 0120     		mov	r0, #1
 961 0010 FFF7FEFF 		bl	Status_LED_Write
 962              	.LVL99:
 697:.\BLEApplication.c **** }
 963              		.loc 1 697 0
 964 0014 0120     		mov	r0, #1
 965 0016 FFF7FEFF 		bl	Connected_LED_Write
 966              	.LVL100:
 698:.\BLEApplication.c **** 
 967              		.loc 1 698 0
 968              		@ sp needed
 969 001a 08BD     		pop	{r3, pc}
 970              		.cfi_endproc
 971              	.LFE42:
 972              		.size	LedInit, .-LedInit
 973              		.section	.text.SystemInitialization,"ax",%progbits
 974              		.align	2
 975              		.global	SystemInitialization
 976              		.code	16
 977              		.thumb_func
 978              		.type	SystemInitialization, %function
 979              	SystemInitialization:
 980              	.LFB39:
 591:.\BLEApplication.c **** //    ÊµÅÊéßÂºïËÑöÁöÑÂàùÂßãÂåñ
 981              		.loc 1 591 0
 982              		.cfi_startproc
 983 0000 08B5     		push	{r3, lr}
 984              		.cfi_def_cfa_offset 8
 985              		.cfi_offset 3, -8
 986              		.cfi_offset 14, -4
 593:.\BLEApplication.c ****     CTS_Write(CTS_OFF);//ÊµÅÊéßÊòØ‰ΩéÁîµÂπ≥ÊúâÊïà
 987              		.loc 1 593 0
 988 0002 0620     		mov	r0, #6
 989 0004 FFF7FEFF 		bl	CTS_SetDriveMode
 990              	.LVL101:
 594:.\BLEApplication.c **** //    uint16_t counter;
 991              		.loc 1 594 0
 992 0008 0120     		mov	r0, #1
 993 000a FFF7FEFF 		bl	CTS_Write
ARM GAS  C:\Users\Helon\AppData\Local\Temp\ccoPKzhl.s 			page 52


 994              	.LVL102:
 602:.\BLEApplication.c ****     writeRequestData.value=cccdNotifFlagSetStruct;
 995              		.loc 1 602 0
 996 000e 0A4A     		ldr	r2, .L64
 997 0010 0F23     		mov	r3, #15
 998 0012 1381     		strh	r3, [r2, #8]
 603:.\BLEApplication.c **** //    ÂàùÂßãÂåñÂπøÊí≠Èó¥ÈöîÂíåÂπøÂëäË∂ÖÊó∂Êó∂Èó¥
 999              		.loc 1 603 0
 1000 0014 094B     		ldr	r3, .L64+4
 1001 0016 0C33     		add	r3, r3, #12
 1002 0018 03CB     		ldmia	r3!, {r0, r1}
 1003 001a 03C2     		stmia	r2!, {r0, r1}
 610:.\BLEApplication.c ****     TimerInterrupt_StartEx(MyTimerIsr);
 1004              		.loc 1 610 0
 1005 001c FFF7FEFF 		bl	Timer_Init
 1006              	.LVL103:
 611:.\BLEApplication.c ****     UART_Start();
 1007              		.loc 1 611 0
 1008 0020 0748     		ldr	r0, .L64+8
 1009 0022 FFF7FEFF 		bl	TimerInterrupt_StartEx
 1010              	.LVL104:
 612:.\BLEApplication.c ****   //    UART_SCB_IRQ_StartEx(My_ISR_UART);   
 1011              		.loc 1 612 0
 1012 0026 FFF7FEFF 		bl	UART_Start
 1013              	.LVL105:
 615:.\BLEApplication.c ****     CyBle_Start(StackEventHandler);
 1014              		.loc 1 615 0
 1015 002a FFF7FEFF 		bl	LedInit
 1016              	.LVL106:
 616:.\BLEApplication.c ****     
 1017              		.loc 1 616 0
 1018 002e 0548     		ldr	r0, .L64+12
 1019 0030 FFF7FEFF 		bl	CyBle_Start
 1020              	.LVL107:
 618:.\BLEApplication.c **** 
 1021              		.loc 1 618 0
 1022              		@ sp needed
 1023 0034 08BD     		pop	{r3, pc}
 1024              	.L65:
 1025 0036 C046     		.align	2
 1026              	.L64:
 1027 0038 00000000 		.word	writeRequestData
 1028 003c 00000000 		.word	.LANCHOR1
 1029 0040 00000000 		.word	MyTimerIsr
 1030 0044 00000000 		.word	StackEventHandler
 1031              		.cfi_endproc
 1032              	.LFE39:
 1033              		.size	SystemInitialization, .-SystemInitialization
 1034              		.section	.text.Command_Identify,"ax",%progbits
 1035              		.align	2
 1036              		.global	Command_Identify
 1037              		.code	16
 1038              		.thumb_func
 1039              		.type	Command_Identify, %function
 1040              	Command_Identify:
 1041              	.LFB44:
1778:.\BLEApplication.c ****     if(NULL==SerialData)
ARM GAS  C:\Users\Helon\AppData\Local\Temp\ccoPKzhl.s 			page 53


 1042              		.loc 1 1778 0
 1043              		.cfi_startproc
 1044              	.LVL108:
 1045 0000 70B5     		push	{r4, r5, r6, lr}
 1046              		.cfi_def_cfa_offset 16
 1047              		.cfi_offset 4, -16
 1048              		.cfi_offset 5, -12
 1049              		.cfi_offset 6, -8
 1050              		.cfi_offset 14, -4
1779:.\BLEApplication.c ****         return FALSE;
 1051              		.loc 1 1779 0
 1052 0002 0028     		cmp	r0, #0
 1053 0004 2CD0     		beq	.L71
 1054 0006 041C     		mov	r4, r0
 1055              	.LVL109:
1783:.\BLEApplication.c ****     {
 1056              		.loc 1 1783 0
 1057 0008 1849     		ldr	r1, .L74
 1058 000a FFF7FEFF 		bl	strcmp
 1059              	.LVL110:
 1060 000e 0028     		cmp	r0, #0
 1061 0010 28D0     		beq	.L72
1789:.\BLEApplication.c ****     if(location>11)
 1062              		.loc 1 1789 0
 1063 0012 201C     		mov	r0, r4
 1064 0014 3D21     		mov	r1, #61
 1065 0016 FFF7FEFF 		bl	strchr
 1066              	.LVL111:
 1067 001a 001B     		sub	r0, r0, r4
 1068 001c C3B2     		uxtb	r3, r0
 1069              	.LVL112:
1790:.\BLEApplication.c ****     {
 1070              		.loc 1 1790 0
 1071 001e 0B2B     		cmp	r3, #11
 1072 0020 22D8     		bhi	.L73
 1073 0022 FF25     		mov	r5, #255
 1074 0024 0540     		and	r5, r0
1795:.\BLEApplication.c ****     //‰øùÂ≠òATÂëΩ‰ª§Á≠âÂè∑ÂâçÁöÑÊï∞ÊçÆ.
 1075              		.loc 1 1795 0
 1076 0026 281C     		mov	r0, r5
 1077 0028 FFF7FEFF 		bl	malloc
 1078              	.LVL113:
 1079 002c 061C     		mov	r6, r0
 1080              	.LVL114:
1797:.\BLEApplication.c ****     SerialArryLength=sizeof(StringArry)/sizeof(StringArry[0]);   
 1081              		.loc 1 1797 0
 1082 002e 211C     		mov	r1, r4
 1083 0030 2A1C     		mov	r2, r5
 1084 0032 FFF7FEFF 		bl	strncpy
 1085              	.LVL115:
1800:.\BLEApplication.c ****     {
 1086              		.loc 1 1800 0
 1087 0036 0024     		mov	r4, #0
 1088              	.LVL116:
 1089 0038 0BE0     		b	.L68
 1090              	.LVL117:
 1091              	.L70:
ARM GAS  C:\Users\Helon\AppData\Local\Temp\ccoPKzhl.s 			page 54


1802:.\BLEApplication.c ****         {
 1092              		.loc 1 1802 0
 1093 003a A300     		lsl	r3, r4, #2
 1094 003c 0C4A     		ldr	r2, .L74+4
 1095 003e D318     		add	r3, r2, r3
 1096 0040 5969     		ldr	r1, [r3, #20]
 1097 0042 301C     		mov	r0, r6
 1098 0044 2A1C     		mov	r2, r5
 1099 0046 FFF7FEFF 		bl	strncmp
 1100              	.LVL118:
 1101 004a 0028     		cmp	r0, #0
 1102 004c 03D0     		beq	.L69
1800:.\BLEApplication.c ****     {
 1103              		.loc 1 1800 0 discriminator 2
 1104 004e 0134     		add	r4, r4, #1
 1105              	.LVL119:
 1106 0050 E4B2     		uxtb	r4, r4
 1107              	.LVL120:
 1108              	.L68:
1800:.\BLEApplication.c ****     {
 1109              		.loc 1 1800 0 is_stmt 0 discriminator 1
 1110 0052 1A2C     		cmp	r4, #26
 1111 0054 F1D9     		bls	.L70
 1112              	.L69:
1810:.\BLEApplication.c ****     return i;
 1113              		.loc 1 1810 0 is_stmt 1
 1114 0056 301C     		mov	r0, r6
 1115 0058 FFF7FEFF 		bl	free
 1116              	.LVL121:
1811:.\BLEApplication.c **** }
 1117              		.loc 1 1811 0
 1118 005c 201C     		mov	r0, r4
 1119 005e 04E0     		b	.L67
 1120              	.LVL122:
 1121              	.L71:
1780:.\BLEApplication.c ****     uint8_t SerialArryLength=0,i=0,location;    
 1122              		.loc 1 1780 0
 1123 0060 0020     		mov	r0, #0
 1124              	.LVL123:
 1125 0062 02E0     		b	.L67
 1126              	.LVL124:
 1127              	.L72:
1786:.\BLEApplication.c ****     }
 1128              		.loc 1 1786 0
 1129 0064 1320     		mov	r0, #19
 1130 0066 00E0     		b	.L67
 1131              	.LVL125:
 1132              	.L73:
1792:.\BLEApplication.c ****     }
 1133              		.loc 1 1792 0
 1134 0068 FF20     		mov	r0, #255
 1135              	.LVL126:
 1136              	.L67:
1812:.\BLEApplication.c **** 
 1137              		.loc 1 1812 0
 1138              		@ sp needed
 1139 006a 70BD     		pop	{r4, r5, r6, pc}
ARM GAS  C:\Users\Helon\AppData\Local\Temp\ccoPKzhl.s 			page 55


 1140              	.L75:
 1141              		.align	2
 1142              	.L74:
 1143 006c 30010000 		.word	.LC45
 1144 0070 00000000 		.word	.LANCHOR1
 1145              		.cfi_endproc
 1146              	.LFE44:
 1147              		.size	Command_Identify, .-Command_Identify
 1148              		.section	.text.SendNotification,"ax",%progbits
 1149              		.align	2
 1150              		.global	SendNotification
 1151              		.code	16
 1152              		.thumb_func
 1153              		.type	SendNotification, %function
 1154              	SendNotification:
 1155              	.LFB46:
1864:.\BLEApplication.c **** 
1865:.\BLEApplication.c **** /*******************************************************************************
1866:.\BLEApplication.c **** * Function Name: SendNotification()
1867:.\BLEApplication.c **** ********************************************************************************
1868:.\BLEApplication.c **** * Summary:
1869:.\BLEApplication.c **** * This function creates a notification packet and sends it.
1870:.\BLEApplication.c **** *
1871:.\BLEApplication.c **** * Parameters:
1872:.\BLEApplication.c **** * None
1873:.\BLEApplication.c **** *
1874:.\BLEApplication.c **** * Return:
1875:.\BLEApplication.c **** * None
1876:.\BLEApplication.c **** *
1877:.\BLEApplication.c **** * Theory:
1878:.\BLEApplication.c **** * The function creates a notification packet for the custom characteristic and 
1879:.\BLEApplication.c **** * sends it over BLE. The amount of data sent for the characteristic is equal 
1880:.\BLEApplication.c **** * to (negotiated MTU size - 3) bytes.
1881:.\BLEApplication.c **** *
1882:.\BLEApplication.c **** * Side Effects:
1883:.\BLEApplication.c **** * None
1884:.\BLEApplication.c **** *
1885:.\BLEApplication.c **** *******************************************************************************/
1886:.\BLEApplication.c **** void SendNotification(uint8_t*val,uint16_t len)
1887:.\BLEApplication.c **** {
 1156              		.loc 1 1887 0
 1157              		.cfi_startproc
 1158              	.LVL127:
 1159 0000 00B5     		push	{lr}
 1160              		.cfi_def_cfa_offset 4
 1161              		.cfi_offset 14, -4
 1162 0002 85B0     		sub	sp, sp, #20
 1163              		.cfi_def_cfa_offset 24
 1164              	.LVL128:
1888:.\BLEApplication.c **** //    uint8   index;
1889:.\BLEApplication.c **** //    uint8   uartTxData[negotiatedMtu - 3];
1890:.\BLEApplication.c ****     CYBLE_API_RESULT_T API_RESULT=0;
1891:.\BLEApplication.c **** //    uint16_t uartTxDataLength;
1892:.\BLEApplication.c **** //    static uint16 uartIdleCount = UART_IDLE_TIMEOUT;
1893:.\BLEApplication.c **** ////    Uart_Char=UART_UartGetChar();
1894:.\BLEApplication.c **** //    CYBLE_GATTS_HANDLE_VALUE_NTF_T      uartTxDataNtf;
1895:.\BLEApplication.c ****     
ARM GAS  C:\Users\Helon\AppData\Local\Temp\ccoPKzhl.s 			page 56


1896:.\BLEApplication.c ****     /* Create a new notification packet */
1897:.\BLEApplication.c ****     CYBLE_GATTS_HANDLE_VALUE_NTF_T notificationPacket;
1898:.\BLEApplication.c **** //    CYBLE_API_RESULT_T API_RESULT;
1899:.\BLEApplication.c ****     /* Update Notification packet with the data.
1900:.\BLEApplication.c ****      * Maximum data which can be sent is equal to (Negotiated MTU - 3) bytes.
1901:.\BLEApplication.c ****      */
1902:.\BLEApplication.c ****     notificationPacket.attrHandle = CYBLE_TROUGHPUT_SERVICE_CUSTOM_CHARACTERISTIC_CHAR_HANDLE;
 1165              		.loc 1 1902 0
 1166 0004 01AB     		add	r3, sp, #4
 1167 0006 0E22     		mov	r2, #14
 1168 0008 1A81     		strh	r2, [r3, #8]
1903:.\BLEApplication.c ****     notificationPacket.value.val = val;   
 1169              		.loc 1 1903 0
 1170 000a 0190     		str	r0, [sp, #4]
1904:.\BLEApplication.c ****     notificationPacket.value.len = len - 3;
 1171              		.loc 1 1904 0
 1172 000c 0339     		sub	r1, r1, #3
 1173              	.LVL129:
 1174 000e 9980     		strh	r1, [r3, #4]
1905:.\BLEApplication.c **** //    notificationPacket.value.actualLen=0x00;
1906:.\BLEApplication.c ****     /* Report data to BLE component */
1907:.\BLEApplication.c ****     CyBle_GattsNotification(cyBle_connHandle, &notificationPacket);
 1175              		.loc 1 1907 0
 1176 0010 0649     		ldr	r1, .L77
 1177 0012 0A78     		ldrb	r2, [r1]
 1178 0014 4878     		ldrb	r0, [r1, #1]
 1179              	.LVL130:
 1180 0016 0002     		lsl	r0, r0, #8
 1181 0018 1043     		orr	r0, r2
 1182 001a 191C     		mov	r1, r3
 1183 001c FFF7FEFF 		bl	CyBle_GattsNotification
 1184              	.LVL131:
1908:.\BLEApplication.c ****     printf("SendNotification is %d\r\n",API_RESULT);
 1185              		.loc 1 1908 0
 1186 0020 0348     		ldr	r0, .L77+4
 1187 0022 0021     		mov	r1, #0
 1188 0024 FFF7FEFF 		bl	printf
 1189              	.LVL132:
1909:.\BLEApplication.c **** }
 1190              		.loc 1 1909 0
 1191 0028 05B0     		add	sp, sp, #20
 1192              		@ sp needed
 1193 002a 00BD     		pop	{pc}
 1194              	.L78:
 1195              		.align	2
 1196              	.L77:
 1197 002c 00000000 		.word	cyBle_connHandle
 1198 0030 38010000 		.word	.LC49
 1199              		.cfi_endproc
 1200              	.LFE46:
 1201              		.size	SendNotification, .-SendNotification
 1202              		.section	.text.SendData_toSlave,"ax",%progbits
 1203              		.align	2
 1204              		.global	SendData_toSlave
 1205              		.code	16
 1206              		.thumb_func
 1207              		.type	SendData_toSlave, %function
ARM GAS  C:\Users\Helon\AppData\Local\Temp\ccoPKzhl.s 			page 57


 1208              	SendData_toSlave:
 1209              	.LFB47:
1910:.\BLEApplication.c **** /******************************************************************************
1911:.\BLEApplication.c **** * Function Name: SendData_toSlave
1912:.\BLEApplication.c **** ***************************************************************************//**
1913:.\BLEApplication.c **** * 
1914:.\BLEApplication.c **** *  MasterÁªôSlaveÂèëÊï∞ÊçÆ
1915:.\BLEApplication.c **** * \param  val:ÊåáÂêëË¶ÅÂèëÈÄÅÁöÑÊï∞ÊçÆÁöÑÈ¶ñÂú∞ÂùÄ
1916:.\BLEApplication.c **** * \param  len:Ë¶ÅÂèëÈÄÅÁöÑÊï∞ÊçÆÁöÑÈïøÂ∫¶
1917:.\BLEApplication.c **** * \return none
1918:.\BLEApplication.c **** *  
1919:.\BLEApplication.c **** * 
1920:.\BLEApplication.c **** ******************************************************************************/
1921:.\BLEApplication.c **** void SendData_toSlave(uint8_t*val,uint16_t len)
1922:.\BLEApplication.c **** {
 1210              		.loc 1 1922 0
 1211              		.cfi_startproc
 1212              	.LVL133:
 1213 0000 00B5     		push	{lr}
 1214              		.cfi_def_cfa_offset 4
 1215              		.cfi_offset 14, -4
 1216 0002 87B0     		sub	sp, sp, #28
 1217              		.cfi_def_cfa_offset 32
 1218              	.LVL134:
1923:.\BLEApplication.c **** //    uint8 cccdNotifEnabledValue[] = {0x01, 0x00};
1924:.\BLEApplication.c ****     CYBLE_API_RESULT_T API_RESULT=0;
1925:.\BLEApplication.c ****     CYBLE_GATT_VALUE_T SendDataStruct =
 1219              		.loc 1 1925 0
 1220 0004 04AB     		add	r3, sp, #16
 1221 0006 0490     		str	r0, [sp, #16]
 1222 0008 9980     		strh	r1, [r3, #4]
 1223 000a 0022     		mov	r2, #0
 1224 000c DA80     		strh	r2, [r3, #6]
1926:.\BLEApplication.c ****     {
1927:.\BLEApplication.c ****         val,
1928:.\BLEApplication.c ****         len,
1929:.\BLEApplication.c ****         0
1930:.\BLEApplication.c ****     };
1931:.\BLEApplication.c ****     CYBLE_GATTC_WRITE_REQ_T writeRequestData;
1932:.\BLEApplication.c ****     writeRequestData.attrHandle=CYBLE_TROUGHPUT_SERVICE_CUSTOM_CHARACTERISTIC_CHAR_HANDLE;
 1225              		.loc 1 1932 0
 1226 000e 01AA     		add	r2, sp, #4
 1227 0010 0E21     		mov	r1, #14
 1228              	.LVL135:
 1229 0012 1181     		strh	r1, [r2, #8]
1933:.\BLEApplication.c ****     writeRequestData.value=SendDataStruct;
 1230              		.loc 1 1933 0
 1231 0014 03CB     		ldmia	r3!, {r0, r1}
 1232 0016 03C2     		stmia	r2!, {r0, r1}
 1233              	.LVL136:
 1234              	.L81:
1934:.\BLEApplication.c **** //    CyBle_GattcWriteCharacteristicValue(cyBle_connHandle,&writeRequestData);
1935:.\BLEApplication.c ****     do{
1936:.\BLEApplication.c ****         API_RESULT=CyBle_GattcWriteWithoutResponse(cyBle_connHandle,&writeRequestData);
 1235              		.loc 1 1936 0 discriminator 2
 1236 0018 074A     		ldr	r2, .L82
 1237 001a 1378     		ldrb	r3, [r2]
ARM GAS  C:\Users\Helon\AppData\Local\Temp\ccoPKzhl.s 			page 58


 1238 001c 5078     		ldrb	r0, [r2, #1]
 1239 001e 0002     		lsl	r0, r0, #8
 1240 0020 1843     		orr	r0, r3
 1241 0022 01A9     		add	r1, sp, #4
 1242 0024 FFF7FEFF 		bl	CyBle_GattcWriteWithoutResponse
 1243              	.LVL137:
1937:.\BLEApplication.c ****       }
1938:.\BLEApplication.c ****     while((CYBLE_ERROR_OK != API_RESULT)  && (CYBLE_STATE_CONNECTED == cyBle_state));
 1244              		.loc 1 1938 0 discriminator 2
 1245 0028 0028     		cmp	r0, #0
 1246 002a 03D0     		beq	.L79
 1247              		.loc 1 1938 0 is_stmt 0 discriminator 1
 1248 002c 034B     		ldr	r3, .L82+4
 1249 002e 1B78     		ldrb	r3, [r3]
 1250 0030 022B     		cmp	r3, #2
 1251 0032 F1D0     		beq	.L81
 1252              	.L79:
1939:.\BLEApplication.c ****     
1940:.\BLEApplication.c ****     
1941:.\BLEApplication.c **** }
 1253              		.loc 1 1941 0 is_stmt 1
 1254 0034 07B0     		add	sp, sp, #28
 1255              		@ sp needed
 1256 0036 00BD     		pop	{pc}
 1257              	.L83:
 1258              		.align	2
 1259              	.L82:
 1260 0038 00000000 		.word	cyBle_connHandle
 1261 003c 00000000 		.word	cyBle_state
 1262              		.cfi_endproc
 1263              	.LFE47:
 1264              		.size	SendData_toSlave, .-SendData_toSlave
 1265              		.section	.text.Connect_Device,"ax",%progbits
 1266              		.align	2
 1267              		.global	Connect_Device
 1268              		.code	16
 1269              		.thumb_func
 1270              		.type	Connect_Device, %function
 1271              	Connect_Device:
 1272              	.LFB49:
1942:.\BLEApplication.c **** /******************************************************************************
1943:.\BLEApplication.c **** * Function Name: Slave_UartHandler
1944:.\BLEApplication.c **** ***************************************************************************//**
1945:.\BLEApplication.c **** * 
1946:.\BLEApplication.c **** *  Âú®Master_SlaveÊ®°Âºè‰∏ãÂ§ÑÁêÜ‰∏≤Âè£Êåá‰ª§
1947:.\BLEApplication.c **** * \param  none
1948:.\BLEApplication.c **** * \return none
1949:.\BLEApplication.c **** *  
1950:.\BLEApplication.c **** * 
1951:.\BLEApplication.c **** ******************************************************************************/
1952:.\BLEApplication.c **** void Master_Slave_UartHandler(uint8_t Role)
1953:.\BLEApplication.c **** {
1954:.\BLEApplication.c ****     uint8_t Uart_Char=0;
1955:.\BLEApplication.c ****     uint32 passkey=0;
1956:.\BLEApplication.c ****     uint32 pow;
1957:.\BLEApplication.c ****     uint8   index;
1958:.\BLEApplication.c ****     uint8   uartTxData[negotiatedMtu - 3];
ARM GAS  C:\Users\Helon\AppData\Local\Temp\ccoPKzhl.s 			page 59


1959:.\BLEApplication.c ****     CYBLE_API_RESULT_T API_RESULT=0;
1960:.\BLEApplication.c ****     uint16_t uartTxDataLength;
1961:.\BLEApplication.c ****     static uint16 uartIdleCount = UART_IDLE_TIMEOUT;
1962:.\BLEApplication.c **** //    Uart_Char=UART_UartGetChar();
1963:.\BLEApplication.c ****     CYBLE_GATTS_HANDLE_VALUE_NTF_T      uartTxDataNtf;
1964:.\BLEApplication.c ****     uartTxDataLength = UART_SpiUartGetRxBufferSize();//Âè™ÊúâËØªÂèñÂÆå‰∫ÜRX_BufferÊâçÊ∏Ö0
1965:.\BLEApplication.c ****     #ifdef  FLOW_CONTROL//Ê≠§Â§ÑÊúÄÂ•ΩÁΩÆ‰∏ÄGPIOÂè£‰∏∫‰ΩéÁîµÂπ≥ÂëäËØâÂèëÈÄÅÊñπÂÅúÊ≠¢ÂèëÈÄÅÊï∞ÊçÆ
1966:.\BLEApplication.c ****         if(uartTxDataLength>=(UART_RX_BUFFER/2))
1967:.\BLEApplication.c ****         {
1968:.\BLEApplication.c ****             UART_RX_INT_DISABLE();
1969:.\BLEApplication.c ****             CTS_Write(CTS_ON);
1970:.\BLEApplication.c ****         }
1971:.\BLEApplication.c ****         else
1972:.\BLEApplication.c ****         {
1973:.\BLEApplication.c ****             UART_RX_INT_ENABLE();
1974:.\BLEApplication.c ****             CTS_Write(CTS_OFF);
1975:.\BLEApplication.c ****         }
1976:.\BLEApplication.c ****     #endif
1977:.\BLEApplication.c **** //        Â§ÑÁêÜ‰∏≤Âè£‰ø°ÊÅØ,‰∏çÈááÁî®‰∏≠Êñ≠ÁöÑÊñπÂºè,ÈááÂèñ‰∏≠Êñ≠‰ºöÂΩ±ÂìçÈÄè‰º†ÈÄüÁéá
1978:.\BLEApplication.c ****     if((0!=uartTxDataLength)&&((CommandMode==THROUGHT_MODE)))
1979:.\BLEApplication.c ****     {   
1980:.\BLEApplication.c ****         if(uartTxDataLength>=negotiatedMtu-3)
1981:.\BLEApplication.c ****         {
1982:.\BLEApplication.c ****             uartIdleCount=UART_IDLE_TIMEOUT;
1983:.\BLEApplication.c ****             uartTxDataLength=negotiatedMtu-3;
1984:.\BLEApplication.c ****         }
1985:.\BLEApplication.c ****         else//Â¶ÇÊûúÂ∞è‰∫é20Â≠óËäÇÂàôÁ≠â‰∏™100ms,Â¶ÇÊûú100msÂêéËøòÊòØÂ∞ë‰∫é20Â≠óËäÇÂàôÈÄè‰º†Âá∫Âéª
1986:.\BLEApplication.c ****         {
1987:.\BLEApplication.c ****             if(--uartIdleCount == 0)
1988:.\BLEApplication.c ****             {
1989:.\BLEApplication.c ****                 /*uartTxDataLength remains unchanged */;
1990:.\BLEApplication.c ****             }
1991:.\BLEApplication.c ****             else
1992:.\BLEApplication.c ****             {
1993:.\BLEApplication.c ****                 uartTxDataLength = 0;
1994:.\BLEApplication.c ****             }
1995:.\BLEApplication.c ****         }
1996:.\BLEApplication.c ****         if(0!=uartTxDataLength)
1997:.\BLEApplication.c ****         {
1998:.\BLEApplication.c ****             uartIdleCount=UART_IDLE_TIMEOUT;
1999:.\BLEApplication.c ****             for(index=0;index<uartTxDataLength;index++)//‰∏çÁÆ°ÊòØ‰∏ªÊú∫ËøòÊòØ‰ªéÊú∫ÔºåÂú®ÈÄè‰º†Ê®°
2000:.\BLEApplication.c ****             {
2001:.\BLEApplication.c ****                 uartTxData[index] = (uint8) UART_UartGetByte();
2002:.\BLEApplication.c ****             }
2003:.\BLEApplication.c ****             if(0==memcmp("AT+NOTIFY=0",uartTxData,11))//Âú®ÈÄè‰º†Ê®°Âºè‰∏ãÔºåÂà§Êñ≠ÊòØ‰∏çÊòØË¶ÅÈÄÄÂ
2004:.\BLEApplication.c ****             {
2005:.\BLEApplication.c ****                 if(Role==Central) //‰∏ªÊú∫Ê®°Âºè‰∏ãÈÄÄÂá∫ÈÄè‰º†Ê®°Âºè
2006:.\BLEApplication.c ****                 {
2007:.\BLEApplication.c ****                     writeRequestData.value.val[0]=0x00;
2008:.\BLEApplication.c ****                     writeRequestData.attrHandle=CYBLE_TROUGHPUT_SERVICE_CUSTOM_CHARACTERISTIC_CLIEN
2009:.\BLEApplication.c ****                     API_RESULT=CyBle_GattcWriteCharacteristicValue(cyBle_connHandle, &writeRequestD
2010:.\BLEApplication.c ****                     if(CYBLE_ERROR_OK==API_RESULT)
2011:.\BLEApplication.c ****                     {
2012:.\BLEApplication.c ****                         CommandMode=AT_COMMAND_MODE;
2013:.\BLEApplication.c ****                         Buffer_Length=0;
2014:.\BLEApplication.c ****                         memset(RX_BUFFER,0,sizeof(RX_BUFFER));
2015:.\BLEApplication.c ****                         printf("+MODE=<AT_COMMAND_MODE>\r\n");
ARM GAS  C:\Users\Helon\AppData\Local\Temp\ccoPKzhl.s 			page 60


2016:.\BLEApplication.c ****                     }
2017:.\BLEApplication.c ****                 }
2018:.\BLEApplication.c ****                 else //‰ªéÊú∫Ê®°Âºè‰∏ãÈÄÄÂá∫ÈÄè‰º†Ê®°Âºè
2019:.\BLEApplication.c ****                 {
2020:.\BLEApplication.c ****                     CommandMode=AT_COMMAND_MODE;
2021:.\BLEApplication.c ****                     Buffer_Length=0;
2022:.\BLEApplication.c ****                     memset(RX_BUFFER,0,sizeof(RX_BUFFER));
2023:.\BLEApplication.c ****                     printf("+MODE=<AT_COMMAND_MODE>\r\n");
2024:.\BLEApplication.c ****                 }
2025:.\BLEApplication.c ****                 return;
2026:.\BLEApplication.c ****             }  
2027:.\BLEApplication.c ****             if(0==memcmp("AT+NOTIFY=?",uartTxData,11))//‰∏çÁÆ°‰∏ªÊú∫ËøòÊòØ‰ªéÊú∫ÔºåÂú®ÈÄè‰º†Ê®°Âºè‰
2028:.\BLEApplication.c ****             {
2029:.\BLEApplication.c ****                 Buffer_Length=0;
2030:.\BLEApplication.c ****                 memset(RX_BUFFER,0,sizeof(RX_BUFFER));
2031:.\BLEApplication.c ****                 printf("+MODE=<THROUGHT_MODE>\r\n");
2032:.\BLEApplication.c ****                 return;
2033:.\BLEApplication.c ****             }
2034:.\BLEApplication.c ****             else if(Peripheral==Role)//‰ªéÊú∫Áªô‰∏ªÊú∫ÂèëÈÄÅÈÄè‰º†Êï∞ÊçÆ
2035:.\BLEApplication.c ****             {
2036:.\BLEApplication.c ****                while(CyBle_GattGetBusStatus()!= CYBLE_STACK_STATE_FREE);//Âè™ÊúâÂΩìËìùÁâôÂçèËÆÆÊ†àÁ
2037:.\BLEApplication.c ****                 uartTxDataNtf.value.val  = uartTxData;
2038:.\BLEApplication.c ****                 uartTxDataNtf.value.len  = uartTxDataLength;
2039:.\BLEApplication.c ****                 uartTxDataNtf.attrHandle = CYBLE_TROUGHPUT_SERVICE_CUSTOM_CHARACTERISTIC_CHAR_HANDL
2040:.\BLEApplication.c **** //                #ifdef FLOW_CONTROL
2041:.\BLEApplication.c **** //                    UART_RX_INT_DISABLE();
2042:.\BLEApplication.c **** //                #endif
2043:.\BLEApplication.c ****                 do
2044:.\BLEApplication.c ****                 {
2045:.\BLEApplication.c ****                     API_RESULT = CyBle_GattsNotification(cyBle_connHandle, &uartTxDataNtf);
2046:.\BLEApplication.c ****                     CyBle_ProcessEvents();
2047:.\BLEApplication.c ****                 }
2048:.\BLEApplication.c ****                 while((CYBLE_ERROR_OK != API_RESULT)  && (CYBLE_STATE_CONNECTED == cyBle_state));
2049:.\BLEApplication.c **** //                testCount+=uartTxDataLength;
2050:.\BLEApplication.c ****             }
2051:.\BLEApplication.c ****             else////‰∏ªÊú∫Áªô‰ªéÊú∫ÂèëÈÄÅÈÄè‰º†Êï∞ÊçÆ
2052:.\BLEApplication.c ****             {
2053:.\BLEApplication.c ****                 #ifdef FLOW_CONTROL
2054:.\BLEApplication.c ****                     UART_RX_INT_DISABLE();
2055:.\BLEApplication.c ****                 #endif
2056:.\BLEApplication.c ****                 while(CyBle_GattGetBusStatus()!= CYBLE_STACK_STATE_FREE);//Âè™ÊúâÂΩìËìùÁâôÂçèËÆÆÊ†à
2057:.\BLEApplication.c ****                 SendData_toSlave(uartTxData,uartTxDataLength);
2058:.\BLEApplication.c ****             }
2059:.\BLEApplication.c ****         }
2060:.\BLEApplication.c ****         return ;
2061:.\BLEApplication.c ****     }
2062:.\BLEApplication.c ****     else if(0!=uartTxDataLength)
2063:.\BLEApplication.c ****     {   
2064:.\BLEApplication.c ****         RxFlag=START;
2065:.\BLEApplication.c ****         if(KEYBOARD)
2066:.\BLEApplication.c ****         {
2067:.\BLEApplication.c ****            KEYBOARD=FALSE;
2068:.\BLEApplication.c ****         /*Set the passkey to zero before receiving New passkey */
2069:.\BLEApplication.c ****             passkey = 0u;
2070:.\BLEApplication.c ****             pow = 100000ul;
2071:.\BLEApplication.c ****             
2072:.\BLEApplication.c ****             /*Get 6 digit number from UART terminal*/
ARM GAS  C:\Users\Helon\AppData\Local\Temp\ccoPKzhl.s 			page 61


2073:.\BLEApplication.c ****             for(index = 0u; index < CYBLE_GAP_USER_PASSKEY_SIZE; index++)
2074:.\BLEApplication.c ****             {
2075:.\BLEApplication.c ****                 while((Uart_Char = UART_UartGetChar()) == 0);
2076:.\BLEApplication.c ****                 
2077:.\BLEApplication.c ****                 /* accept the digits that are in between the range '0' and '9'  */
2078:.\BLEApplication.c ****                 if((Uart_Char >= '0') && (Uart_Char <= '9'))  
2079:.\BLEApplication.c ****                 {
2080:.\BLEApplication.c ****                     passkey += (uint32)(Uart_Char - '0') * pow;
2081:.\BLEApplication.c ****                     pow /= 10u;
2082:.\BLEApplication.c **** //                    UART_UartPutChar(Uart_Char); 
2083:.\BLEApplication.c ****                 }
2084:.\BLEApplication.c ****                 else  /* If entered digit is not in between the rnage '0' and '9'*/
2085:.\BLEApplication.c ****                 {
2086:.\BLEApplication.c ****                     printf("+AUTHKEY=<INVALID>\r\n");
2087:.\BLEApplication.c ****                     break;
2088:.\BLEApplication.c ****                 }
2089:.\BLEApplication.c ****             }            
2090:.\BLEApplication.c ****             /*Send Pass key Response to to create an Authenticated Link*/
2091:.\BLEApplication.c ****             API_RESULT = CyBle_GapAuthPassKeyReply(cyBle_connHandle.bdHandle,passkey,1);         
2092:.\BLEApplication.c ****             /*Check the result of CyBle_GapAuthPassKeyReply*/
2093:.\BLEApplication.c ****             if(API_RESULT== CYBLE_ERROR_INVALID_PARAMETER)
2094:.\BLEApplication.c ****             {
2095:.\BLEApplication.c ****                 printf("CYBLE_ERROR_INVALID_PARAMETER \r\n");               
2096:.\BLEApplication.c ****             }
2097:.\BLEApplication.c ****             else if(API_RESULT==CYBLE_ERROR_MEMORY_ALLOCATION_FAILED)
2098:.\BLEApplication.c ****             {
2099:.\BLEApplication.c ****                 printf("CYBLE_ERROR_MEMORY_ALLOCATION_FAILED\r\n");
2100:.\BLEApplication.c ****             }
2101:.\BLEApplication.c ****             else if(API_RESULT==CYBLE_ERROR_NO_DEVICE_ENTITY)
2102:.\BLEApplication.c ****             {
2103:.\BLEApplication.c ****                 printf("CYBLE_ERROR_NO_DEVICE_ENTITY\r\n");
2104:.\BLEApplication.c ****             }
2105:.\BLEApplication.c ****             else if(API_RESULT==CYBLE_ERROR_OK)
2106:.\BLEApplication.c ****             {
2107:.\BLEApplication.c ****                 printf("+AUTHKEY=<SUCCESFULLY>\r\n");
2108:.\BLEApplication.c ****             }
2109:.\BLEApplication.c ****         }
2110:.\BLEApplication.c ****         else
2111:.\BLEApplication.c ****         {
2112:.\BLEApplication.c ****             Uart_Char=(uint8) UART_UartGetByte();
2113:.\BLEApplication.c ****             if('\n'!=Uart_Char)
2114:.\BLEApplication.c ****             {
2115:.\BLEApplication.c ****     //            if(CommandMode==THROUGHT_MODE)
2116:.\BLEApplication.c ****     //            {
2117:.\BLEApplication.c ****     //                RX_BUFFER[Buffer_Length]=Uart_Char-0x30;//ËØªÂèñ‰∏≤Âè£Êé•Êî∂ÁºìÂÜ≤Âå∫ÁöÑÊï∞Êç
2118:.\BLEApplication.c ****     //                Buffer_Length++;
2119:.\BLEApplication.c ****     //            }
2120:.\BLEApplication.c ****     //            else
2121:.\BLEApplication.c ****     //            {
2122:.\BLEApplication.c ****                     RX_BUFFER[Buffer_Length]=Uart_Char;//ËØªÂèñ‰∏≤Âè£Êé•Êî∂ÁºìÂÜ≤Âå∫ÁöÑÊï∞ÊçÆ
2123:.\BLEApplication.c ****                     Buffer_Length++;
2124:.\BLEApplication.c ****     //            }                      
2125:.\BLEApplication.c ****             }
2126:.\BLEApplication.c ****             else
2127:.\BLEApplication.c ****             {
2128:.\BLEApplication.c ****                 uartIdleCount=UART_IDLE_TIMEOUT;
2129:.\BLEApplication.c ****                 RxFlag=OVER;
ARM GAS  C:\Users\Helon\AppData\Local\Temp\ccoPKzhl.s 			page 62


2130:.\BLEApplication.c ****             //‰∏≤Âè£Êé•Êî∂ÁöÑÊï∞ÊçÆÈïøÂ∫¶Ê∏ÖÈõ∂,‰ª•‰æø‰∏ã‰∏ÄÊù°ÂëΩ‰ª§ËøáÊù•Êó∂ËøòÊòØÂ≠òÊîæÂú®Êï∞ÁªÑ
2131:.\BLEApplication.c ****                 RX_BUFFER[Buffer_Length]=Uart_Char;//ËØªÂèñ‰∏≤Âè£Êé•Êî∂ÁºìÂÜ≤Âå∫ÁöÑÊï∞ÊçÆ          
2132:.\BLEApplication.c ****                 Parser_UartData((char*)RX_BUFFER);
2133:.\BLEApplication.c ****                 Buffer_Length=0;
2134:.\BLEApplication.c ****                 memset(RX_BUFFER,0,sizeof(RX_BUFFER));
2135:.\BLEApplication.c ****     //            if(CommandMode==THROUGHT_MODE)
2136:.\BLEApplication.c ****     //            {
2137:.\BLEApplication.c ****     //                
2138:.\BLEApplication.c ****     //                if(Role==Peripheral)
2139:.\BLEApplication.c ****     //                    SendNotification(RX_BUFFER,Buffer_Length+3);
2140:.\BLEApplication.c ****     //                else
2141:.\BLEApplication.c ****     //                    SendData_toSlave(RX_BUFFER,Buffer_Length);
2142:.\BLEApplication.c ****     //                //‰∏≤Âè£Êé•Êî∂ÁöÑÊï∞ÊçÆÈïøÂ∫¶Ê∏ÖÈõ∂,‰ª•‰æø‰∏ã‰∏ÄÊù°ÂëΩ‰ª§ËøáÊù•Êó∂ËøòÊòØÂ≠òÊî
2143:.\BLEApplication.c ****     //                Buffer_Length=0;
2144:.\BLEApplication.c ****     //                memset(RX_BUFFER,0,sizeof(RX_BUFFER));
2145:.\BLEApplication.c ****     //            }
2146:.\BLEApplication.c ****     //            else
2147:.\BLEApplication.c ****     //            {
2148:.\BLEApplication.c ****     //                
2149:.\BLEApplication.c ****     //            }
2150:.\BLEApplication.c ****             }
2151:.\BLEApplication.c ****         }    
2152:.\BLEApplication.c ****     }
2153:.\BLEApplication.c ****     else
2154:.\BLEApplication.c ****     {
2155:.\BLEApplication.c ****         if(RxFlag)//Â¶ÇÊûú‰∏≤Âè£100msÂÜÖÊ≤°ÊúâÊé•Êî∂Âà∞ÂõûËΩ¶Êç¢Ë°åÁ¨¶Êó∂ÔºåÂàôËÆ§‰∏∫ËØ•ATÂëΩ‰ª§Êó†
2156:.\BLEApplication.c ****         {
2157:.\BLEApplication.c ****             if(--uartIdleCount == 0)
2158:.\BLEApplication.c ****             {
2159:.\BLEApplication.c ****                 RxFlag=OVER;
2160:.\BLEApplication.c ****                 uartIdleCount=UART_IDLE_TIMEOUT;
2161:.\BLEApplication.c ****                 Buffer_Length=0;
2162:.\BLEApplication.c ****                 memset(RX_BUFFER,0,sizeof(RX_BUFFER));
2163:.\BLEApplication.c ****                 printf("AT+ERR=7\r\n");//ATÂëΩ‰ª§Ê≤°ÊúâÂõûËΩ¶Êç¢Ë°å
2164:.\BLEApplication.c ****                 /*uartTxDataLength remains unchanged */;
2165:.\BLEApplication.c ****             }
2166:.\BLEApplication.c ****         }
2167:.\BLEApplication.c ****     }
2168:.\BLEApplication.c **** }
2169:.\BLEApplication.c **** 
2170:.\BLEApplication.c **** /******************************************************************************
2171:.\BLEApplication.c **** * Function Name: Connect_Device
2172:.\BLEApplication.c **** ***************************************************************************//**
2173:.\BLEApplication.c **** * 
2174:.\BLEApplication.c **** *  ËøûÊé•Êâ´ÊèèÂàóË°®‰∏≠ÁöÑSlaveËÆæÂ§á
2175:.\BLEApplication.c **** * \param  idx:Êâ´ÊèèÂàóË°®‰∏≠ÁöÑÁ¥¢ÂºïÂè∑
2176:.\BLEApplication.c **** * \return none
2177:.\BLEApplication.c **** *  
2178:.\BLEApplication.c **** * 
2179:.\BLEApplication.c **** ******************************************************************************/
2180:.\BLEApplication.c **** void Connect_Device(uint8_t idx)
2181:.\BLEApplication.c **** {
 1273              		.loc 1 2181 0
 1274              		.cfi_startproc
 1275              	.LVL138:
 1276 0000 F0B5     		push	{r4, r5, r6, r7, lr}
 1277              		.cfi_def_cfa_offset 20
ARM GAS  C:\Users\Helon\AppData\Local\Temp\ccoPKzhl.s 			page 63


 1278              		.cfi_offset 4, -20
 1279              		.cfi_offset 5, -16
 1280              		.cfi_offset 6, -12
 1281              		.cfi_offset 7, -8
 1282              		.cfi_offset 14, -4
 1283 0002 85B0     		sub	sp, sp, #20
 1284              		.cfi_def_cfa_offset 40
 1285 0004 041C     		mov	r4, r0
 1286              	.LVL139:
2182:.\BLEApplication.c ****     CYBLE_API_RESULT_T API_RESULT=0;
2183:.\BLEApplication.c ****     uint8_t i=0;
2184:.\BLEApplication.c ****     if(Role==Central)
 1287              		.loc 1 2184 0
 1288 0006 744B     		ldr	r3, .L102
 1289 0008 5B78     		ldrb	r3, [r3, #1]
 1290 000a 012B     		cmp	r3, #1
 1291 000c 00D0     		beq	.LCB1119
 1292 000e DDE0     		b	.L85	@long jump
 1293              	.LCB1119:
2185:.\BLEApplication.c ****     {
2186:.\BLEApplication.c ****         switch(idx)
 1294              		.loc 1 2186 0
 1295 0010 031C     		mov	r3, r0
 1296 0012 313B     		sub	r3, r3, #49
 1297 0014 DAB2     		uxtb	r2, r3
 1298 0016 0E2A     		cmp	r2, #14
 1299 0018 00D9     		bls	.LCB1124
 1300 001a DAE0     		b	.L84	@long jump
 1301              	.LCB1124:
 1302 001c 9300     		lsl	r3, r2, #2
 1303 001e 6F4A     		ldr	r2, .L102+4
 1304 0020 D358     		ldr	r3, [r2, r3]
 1305 0022 9F46     		mov	pc, r3
 1306              		.section	.rodata
 1307              		.align	2
 1308              	.L88:
 1309 014c 24000000 		.word	.L87
 1310 0150 7C000000 		.word	.L89
 1311 0154 D4000000 		.word	.L90
 1312 0158 2C010000 		.word	.L91
 1313 015c D2010000 		.word	.L84
 1314 0160 D2010000 		.word	.L84
 1315 0164 D2010000 		.word	.L84
 1316 0168 D2010000 		.word	.L84
 1317 016c D2010000 		.word	.L84
 1318 0170 D2010000 		.word	.L84
 1319 0174 D2010000 		.word	.L84
 1320 0178 D2010000 		.word	.L84
 1321 017c D2010000 		.word	.L84
 1322 0180 D2010000 		.word	.L84
 1323 0184 84010000 		.word	.L92
 1324              		.section	.text.Connect_Device
 1325              	.L87:
2187:.\BLEApplication.c ****         {
2188:.\BLEApplication.c ****             case '1':
2189:.\BLEApplication.c ****                 API_RESULT=CyBle_GapcConnectDevice(&DeviceInfo[idx-1-0x30].DeviceList);
 1326              		.loc 1 2189 0
ARM GAS  C:\Users\Helon\AppData\Local\Temp\ccoPKzhl.s 			page 64


 1327 0024 051C     		mov	r5, r0
 1328 0026 313D     		sub	r5, r5, #49
 1329 0028 2B01     		lsl	r3, r5, #4
 1330 002a 5B1B     		sub	r3, r3, r5
 1331 002c 5B00     		lsl	r3, r3, #1
 1332 002e 6C48     		ldr	r0, .L102+8
 1333              	.LVL140:
 1334 0030 1818     		add	r0, r3, r0
 1335 0032 FFF7FEFF 		bl	CyBle_GapcConnectDevice
 1336              	.LVL141:
 1337 0036 021E     		sub	r2, r0, #0
 1338              	.LVL142:
2190:.\BLEApplication.c ****                 if(CYBLE_ERROR_OK!=API_RESULT)  
 1339              		.loc 1 2190 0
 1340 0038 05D0     		beq	.L93
2191:.\BLEApplication.c ****                 {
2192:.\BLEApplication.c ****                     printf("AT+ERR=<%d,0x%02X>\r\n",idx-0x30,API_RESULT);                    
 1341              		.loc 1 2192 0
 1342 003a 211C     		mov	r1, r4
 1343 003c 3039     		sub	r1, r1, #48
 1344 003e 6948     		ldr	r0, .L102+12
 1345              	.LVL143:
 1346 0040 FFF7FEFF 		bl	printf
 1347              	.LVL144:
 1348 0044 C5E0     		b	.L84
 1349              	.LVL145:
 1350              	.L93:
2193:.\BLEApplication.c ****                 }
2194:.\BLEApplication.c ****                 else
2195:.\BLEApplication.c ****                 {
2196:.\BLEApplication.c ****                     Conn_Or_Disconn_Info.Connected_Count++;
 1351              		.loc 1 2196 0
 1352 0046 6848     		ldr	r0, .L102+16
 1353              	.LVL146:
 1354 0048 037A     		ldrb	r3, [r0, #8]
 1355 004a 0133     		add	r3, r3, #1
 1356 004c DBB2     		uxtb	r3, r3
 1357 004e 0372     		strb	r3, [r0, #8]
2197:.\BLEApplication.c ****                     Conn_Or_Disconn_Info.Connect_Idx[Conn_Or_Disconn_Info.Connected_Count-1]=idx-0x
 1358              		.loc 1 2197 0
 1359 0050 013B     		sub	r3, r3, #1
 1360 0052 303C     		sub	r4, r4, #48
 1361 0054 E4B2     		uxtb	r4, r4
 1362 0056 C454     		strb	r4, [r0, r3]
2198:.\BLEApplication.c ****                     Conn_or_Disconn_Idx=idx-0x30;
 1363              		.loc 1 2198 0
 1364 0058 5F4A     		ldr	r2, .L102
 1365 005a 9470     		strb	r4, [r2, #2]
2199:.\BLEApplication.c ****                     memcpy(Conn_Or_Disconn_Info.DeviceAddr[Conn_Or_Disconn_Info.Connected_Count-1].
 1366              		.loc 1 2199 0
 1367 005c DA00     		lsl	r2, r3, #3
 1368 005e D31A     		sub	r3, r2, r3
 1369 0060 C018     		add	r0, r0, r3
 1370 0062 2901     		lsl	r1, r5, #4
 1371 0064 4D1B     		sub	r5, r1, r5
 1372 0066 6D00     		lsl	r5, r5, #1
 1373 0068 0930     		add	r0, r0, #9
ARM GAS  C:\Users\Helon\AppData\Local\Temp\ccoPKzhl.s 			page 65


 1374 006a 5D49     		ldr	r1, .L102+8
 1375 006c 4919     		add	r1, r1, r5
 1376 006e 0622     		mov	r2, #6
 1377 0070 FFF7FEFF 		bl	memcpy
 1378              	.LVL147:
2200:.\BLEApplication.c ****                            DeviceInfo[idx-1-0x30].DeviceList.bdAddr,6);  
2201:.\BLEApplication.c ****                     printf("AT+OK\r\n");
 1379              		.loc 1 2201 0
 1380 0074 5D48     		ldr	r0, .L102+20
 1381 0076 FFF7FEFF 		bl	puts
 1382              	.LVL148:
 1383 007a AAE0     		b	.L84
 1384              	.LVL149:
 1385              	.L89:
2202:.\BLEApplication.c **** //                        CyBle_GapGetPeerBdHandle(bdHandle,&DeviceInfo[idx-1-0x30].DeviceList);
2203:.\BLEApplication.c **** //                        printf("0x%02X\r\n",*bdHandle);  
2204:.\BLEApplication.c ****                 }
2205:.\BLEApplication.c ****             break;
2206:.\BLEApplication.c ****             case '2':
2207:.\BLEApplication.c ****                 API_RESULT=CyBle_GapcConnectDevice(&DeviceInfo[idx-1-0x30].DeviceList);
 1386              		.loc 1 2207 0
 1387 007c 051C     		mov	r5, r0
 1388 007e 313D     		sub	r5, r5, #49
 1389 0080 2B01     		lsl	r3, r5, #4
 1390 0082 5B1B     		sub	r3, r3, r5
 1391 0084 5B00     		lsl	r3, r3, #1
 1392 0086 5648     		ldr	r0, .L102+8
 1393              	.LVL150:
 1394 0088 1818     		add	r0, r3, r0
 1395 008a FFF7FEFF 		bl	CyBle_GapcConnectDevice
 1396              	.LVL151:
 1397 008e 021E     		sub	r2, r0, #0
 1398              	.LVL152:
2208:.\BLEApplication.c ****                 if(CYBLE_ERROR_OK!=API_RESULT)  
 1399              		.loc 1 2208 0
 1400 0090 05D0     		beq	.L94
2209:.\BLEApplication.c ****                 {
2210:.\BLEApplication.c ****                     printf("AT+ERR=<%d,0x%02X>\r\n",idx-0x30,API_RESULT);                    
 1401              		.loc 1 2210 0
 1402 0092 211C     		mov	r1, r4
 1403 0094 3039     		sub	r1, r1, #48
 1404 0096 5348     		ldr	r0, .L102+12
 1405              	.LVL153:
 1406 0098 FFF7FEFF 		bl	printf
 1407              	.LVL154:
 1408 009c 99E0     		b	.L84
 1409              	.LVL155:
 1410              	.L94:
2211:.\BLEApplication.c ****                 }
2212:.\BLEApplication.c ****                 else
2213:.\BLEApplication.c ****                 {
2214:.\BLEApplication.c ****                     Conn_Or_Disconn_Info.Connected_Count++;
 1411              		.loc 1 2214 0
 1412 009e 5248     		ldr	r0, .L102+16
 1413              	.LVL156:
 1414 00a0 037A     		ldrb	r3, [r0, #8]
 1415 00a2 0133     		add	r3, r3, #1
ARM GAS  C:\Users\Helon\AppData\Local\Temp\ccoPKzhl.s 			page 66


 1416 00a4 DBB2     		uxtb	r3, r3
 1417 00a6 0372     		strb	r3, [r0, #8]
2215:.\BLEApplication.c ****                     Conn_Or_Disconn_Info.Connect_Idx[Conn_Or_Disconn_Info.Connected_Count-1]=idx-0x
 1418              		.loc 1 2215 0
 1419 00a8 013B     		sub	r3, r3, #1
 1420 00aa 303C     		sub	r4, r4, #48
 1421 00ac E4B2     		uxtb	r4, r4
 1422 00ae C454     		strb	r4, [r0, r3]
2216:.\BLEApplication.c ****                     Conn_or_Disconn_Idx=idx-0x30;
 1423              		.loc 1 2216 0
 1424 00b0 494A     		ldr	r2, .L102
 1425 00b2 9470     		strb	r4, [r2, #2]
2217:.\BLEApplication.c ****                     memcpy(Conn_Or_Disconn_Info.DeviceAddr[Conn_Or_Disconn_Info.Connected_Count-1].
 1426              		.loc 1 2217 0
 1427 00b4 DA00     		lsl	r2, r3, #3
 1428 00b6 D31A     		sub	r3, r2, r3
 1429 00b8 C018     		add	r0, r0, r3
 1430 00ba 2901     		lsl	r1, r5, #4
 1431 00bc 4D1B     		sub	r5, r1, r5
 1432 00be 6D00     		lsl	r5, r5, #1
 1433 00c0 0930     		add	r0, r0, #9
 1434 00c2 4749     		ldr	r1, .L102+8
 1435 00c4 4919     		add	r1, r1, r5
 1436 00c6 0622     		mov	r2, #6
 1437 00c8 FFF7FEFF 		bl	memcpy
 1438              	.LVL157:
2218:.\BLEApplication.c ****                            DeviceInfo[idx-1-0x30].DeviceList.bdAddr,6);
2219:.\BLEApplication.c ****                     printf("AT+OK\r\n");
 1439              		.loc 1 2219 0
 1440 00cc 4748     		ldr	r0, .L102+20
 1441 00ce FFF7FEFF 		bl	puts
 1442              	.LVL158:
 1443 00d2 7EE0     		b	.L84
 1444              	.LVL159:
 1445              	.L90:
2220:.\BLEApplication.c ****                 }
2221:.\BLEApplication.c ****             break;
2222:.\BLEApplication.c ****             case '3':
2223:.\BLEApplication.c ****                 API_RESULT=CyBle_GapcConnectDevice(&DeviceInfo[idx-1-0x30].DeviceList);
 1446              		.loc 1 2223 0
 1447 00d4 051C     		mov	r5, r0
 1448 00d6 313D     		sub	r5, r5, #49
 1449 00d8 2B01     		lsl	r3, r5, #4
 1450 00da 5B1B     		sub	r3, r3, r5
 1451 00dc 5B00     		lsl	r3, r3, #1
 1452 00de 4048     		ldr	r0, .L102+8
 1453              	.LVL160:
 1454 00e0 1818     		add	r0, r3, r0
 1455 00e2 FFF7FEFF 		bl	CyBle_GapcConnectDevice
 1456              	.LVL161:
 1457 00e6 021E     		sub	r2, r0, #0
 1458              	.LVL162:
2224:.\BLEApplication.c ****                 if(CYBLE_ERROR_OK!=API_RESULT)  
 1459              		.loc 1 2224 0
 1460 00e8 05D0     		beq	.L95
2225:.\BLEApplication.c ****                 {
2226:.\BLEApplication.c ****                     printf("AT+ERR=<%d,0x%02X>\r\n",idx-0x30,API_RESULT);                    
ARM GAS  C:\Users\Helon\AppData\Local\Temp\ccoPKzhl.s 			page 67


 1461              		.loc 1 2226 0
 1462 00ea 211C     		mov	r1, r4
 1463 00ec 3039     		sub	r1, r1, #48
 1464 00ee 3D48     		ldr	r0, .L102+12
 1465              	.LVL163:
 1466 00f0 FFF7FEFF 		bl	printf
 1467              	.LVL164:
 1468 00f4 6DE0     		b	.L84
 1469              	.LVL165:
 1470              	.L95:
2227:.\BLEApplication.c ****                 }
2228:.\BLEApplication.c ****                 else
2229:.\BLEApplication.c ****                 {
2230:.\BLEApplication.c ****                     Conn_Or_Disconn_Info.Connected_Count++;
 1471              		.loc 1 2230 0
 1472 00f6 3C48     		ldr	r0, .L102+16
 1473              	.LVL166:
 1474 00f8 037A     		ldrb	r3, [r0, #8]
 1475 00fa 0133     		add	r3, r3, #1
 1476 00fc DBB2     		uxtb	r3, r3
 1477 00fe 0372     		strb	r3, [r0, #8]
2231:.\BLEApplication.c ****                     Conn_Or_Disconn_Info.Connect_Idx[Conn_Or_Disconn_Info.Connected_Count-1]=idx-0x
 1478              		.loc 1 2231 0
 1479 0100 013B     		sub	r3, r3, #1
 1480 0102 303C     		sub	r4, r4, #48
 1481 0104 E4B2     		uxtb	r4, r4
 1482 0106 C454     		strb	r4, [r0, r3]
2232:.\BLEApplication.c ****                     Conn_or_Disconn_Idx=idx-0x30;
 1483              		.loc 1 2232 0
 1484 0108 334A     		ldr	r2, .L102
 1485 010a 9470     		strb	r4, [r2, #2]
2233:.\BLEApplication.c ****                     memcpy(Conn_Or_Disconn_Info.DeviceAddr[Conn_Or_Disconn_Info.Connected_Count-1].
 1486              		.loc 1 2233 0
 1487 010c DA00     		lsl	r2, r3, #3
 1488 010e D31A     		sub	r3, r2, r3
 1489 0110 C018     		add	r0, r0, r3
 1490 0112 2901     		lsl	r1, r5, #4
 1491 0114 4D1B     		sub	r5, r1, r5
 1492 0116 6D00     		lsl	r5, r5, #1
 1493 0118 0930     		add	r0, r0, #9
 1494 011a 3149     		ldr	r1, .L102+8
 1495 011c 4919     		add	r1, r1, r5
 1496 011e 0622     		mov	r2, #6
 1497 0120 FFF7FEFF 		bl	memcpy
 1498              	.LVL167:
2234:.\BLEApplication.c ****                            DeviceInfo[idx-1-0x30].DeviceList.bdAddr,6);
2235:.\BLEApplication.c ****                     printf("AT+OK\r\n");
 1499              		.loc 1 2235 0
 1500 0124 3148     		ldr	r0, .L102+20
 1501 0126 FFF7FEFF 		bl	puts
 1502              	.LVL168:
 1503 012a 52E0     		b	.L84
 1504              	.LVL169:
 1505              	.L91:
2236:.\BLEApplication.c ****                 }
2237:.\BLEApplication.c ****             break;
2238:.\BLEApplication.c ****             case '4':
ARM GAS  C:\Users\Helon\AppData\Local\Temp\ccoPKzhl.s 			page 68


2239:.\BLEApplication.c ****                 API_RESULT=CyBle_GapcConnectDevice(&DeviceInfo[idx-1-0x30].DeviceList);
 1506              		.loc 1 2239 0
 1507 012c 051C     		mov	r5, r0
 1508 012e 313D     		sub	r5, r5, #49
 1509 0130 2B01     		lsl	r3, r5, #4
 1510 0132 5B1B     		sub	r3, r3, r5
 1511 0134 5B00     		lsl	r3, r3, #1
 1512 0136 2A48     		ldr	r0, .L102+8
 1513              	.LVL170:
 1514 0138 1818     		add	r0, r3, r0
 1515 013a FFF7FEFF 		bl	CyBle_GapcConnectDevice
 1516              	.LVL171:
 1517 013e 021E     		sub	r2, r0, #0
 1518              	.LVL172:
2240:.\BLEApplication.c ****                 if(CYBLE_ERROR_OK!=API_RESULT)  
 1519              		.loc 1 2240 0
 1520 0140 05D0     		beq	.L96
2241:.\BLEApplication.c ****                 {
2242:.\BLEApplication.c ****                     printf("AT+ERR=<%d,0x%02X>\r\n",idx-0x30,API_RESULT);                    
 1521              		.loc 1 2242 0
 1522 0142 211C     		mov	r1, r4
 1523 0144 3039     		sub	r1, r1, #48
 1524 0146 2748     		ldr	r0, .L102+12
 1525              	.LVL173:
 1526 0148 FFF7FEFF 		bl	printf
 1527              	.LVL174:
 1528 014c 41E0     		b	.L84
 1529              	.LVL175:
 1530              	.L96:
2243:.\BLEApplication.c ****                 }
2244:.\BLEApplication.c ****                 else
2245:.\BLEApplication.c ****                 {
2246:.\BLEApplication.c ****                     Conn_Or_Disconn_Info.Connected_Count++;
 1531              		.loc 1 2246 0
 1532 014e 2648     		ldr	r0, .L102+16
 1533              	.LVL176:
 1534 0150 037A     		ldrb	r3, [r0, #8]
 1535 0152 0133     		add	r3, r3, #1
 1536 0154 DBB2     		uxtb	r3, r3
 1537 0156 0372     		strb	r3, [r0, #8]
2247:.\BLEApplication.c ****                     Conn_Or_Disconn_Info.Connect_Idx[Conn_Or_Disconn_Info.Connected_Count-1]=idx-0x
 1538              		.loc 1 2247 0
 1539 0158 013B     		sub	r3, r3, #1
 1540 015a 303C     		sub	r4, r4, #48
 1541 015c E4B2     		uxtb	r4, r4
 1542 015e C454     		strb	r4, [r0, r3]
2248:.\BLEApplication.c ****                     Conn_or_Disconn_Idx=idx-0x30;
 1543              		.loc 1 2248 0
 1544 0160 1D4A     		ldr	r2, .L102
 1545 0162 9470     		strb	r4, [r2, #2]
2249:.\BLEApplication.c ****                     memcpy(Conn_Or_Disconn_Info.DeviceAddr[Conn_Or_Disconn_Info.Connected_Count-1].
 1546              		.loc 1 2249 0
 1547 0164 DA00     		lsl	r2, r3, #3
 1548 0166 D31A     		sub	r3, r2, r3
 1549 0168 C018     		add	r0, r0, r3
 1550 016a 2901     		lsl	r1, r5, #4
 1551 016c 4D1B     		sub	r5, r1, r5
ARM GAS  C:\Users\Helon\AppData\Local\Temp\ccoPKzhl.s 			page 69


 1552 016e 6D00     		lsl	r5, r5, #1
 1553 0170 0930     		add	r0, r0, #9
 1554 0172 1B49     		ldr	r1, .L102+8
 1555 0174 4919     		add	r1, r1, r5
 1556 0176 0622     		mov	r2, #6
 1557 0178 FFF7FEFF 		bl	memcpy
 1558              	.LVL177:
2250:.\BLEApplication.c ****                            DeviceInfo[idx-1-0x30].DeviceList.bdAddr,6);
2251:.\BLEApplication.c ****                     printf("AT+OK\r\n");
 1559              		.loc 1 2251 0
 1560 017c 1B48     		ldr	r0, .L102+20
 1561 017e FFF7FEFF 		bl	puts
 1562              	.LVL178:
 1563 0182 26E0     		b	.L84
 1564              	.LVL179:
 1565              	.L92:
2252:.\BLEApplication.c ****                 }
2253:.\BLEApplication.c ****             break;
2254:.\BLEApplication.c ****             case '?':
2255:.\BLEApplication.c ****                 if(CYBLE_STATE_CONNECTED==CyBle_GetState())
 1566              		.loc 1 2255 0
 1567 0184 1A4B     		ldr	r3, .L102+24
 1568 0186 1B78     		ldrb	r3, [r3]
 1569 0188 022B     		cmp	r3, #2
 1570 018a 15D0     		beq	.L100
 1571 018c 1AE0     		b	.L101
 1572              	.LVL180:
 1573              	.L99:
2256:.\BLEApplication.c ****                 {
2257:.\BLEApplication.c ****                     for(i=0;i<Conn_Or_Disconn_Info.Connected_Count;i++)
2258:.\BLEApplication.c ****                     {
2259:.\BLEApplication.c ****                         printf("+INQ_CONN:<%d,0x%02X%02X%02X%02X%02X%02X>\r\n",
2260:.\BLEApplication.c ****                         Conn_Or_Disconn_Info.Connect_Idx[i],
 1574              		.loc 1 2260 0 discriminator 3
 1575 018e 1648     		ldr	r0, .L102+16
 1576 0190 015D     		ldrb	r1, [r0, r4]
2261:.\BLEApplication.c ****                         Conn_Or_Disconn_Info.DeviceAddr[i].bdAddr[5],
 1577              		.loc 1 2261 0 discriminator 3
 1578 0192 E300     		lsl	r3, r4, #3
 1579 0194 1B1B     		sub	r3, r3, r4
 1580 0196 C018     		add	r0, r0, r3
 1581 0198 827B     		ldrb	r2, [r0, #14]
2262:.\BLEApplication.c ****                         Conn_Or_Disconn_Info.DeviceAddr[i].bdAddr[4],
 1582              		.loc 1 2262 0 discriminator 3
 1583 019a 437B     		ldrb	r3, [r0, #13]
2263:.\BLEApplication.c ****                         Conn_Or_Disconn_Info.DeviceAddr[i].bdAddr[3],
 1584              		.loc 1 2263 0 discriminator 3
 1585 019c 077B     		ldrb	r7, [r0, #12]
2264:.\BLEApplication.c ****                         Conn_Or_Disconn_Info.DeviceAddr[i].bdAddr[2],
 1586              		.loc 1 2264 0 discriminator 3
 1587 019e C67A     		ldrb	r6, [r0, #11]
2265:.\BLEApplication.c ****                         Conn_Or_Disconn_Info.DeviceAddr[i].bdAddr[1],
 1588              		.loc 1 2265 0 discriminator 3
 1589 01a0 857A     		ldrb	r5, [r0, #10]
2266:.\BLEApplication.c ****                         Conn_Or_Disconn_Info.DeviceAddr[i].bdAddr[0]
 1590              		.loc 1 2266 0 discriminator 3
 1591 01a2 407A     		ldrb	r0, [r0, #9]
ARM GAS  C:\Users\Helon\AppData\Local\Temp\ccoPKzhl.s 			page 70


2259:.\BLEApplication.c ****                         Conn_Or_Disconn_Info.Connect_Idx[i],
 1592              		.loc 1 2259 0 discriminator 3
 1593 01a4 0097     		str	r7, [sp]
 1594 01a6 0196     		str	r6, [sp, #4]
 1595 01a8 0295     		str	r5, [sp, #8]
 1596 01aa 0390     		str	r0, [sp, #12]
 1597 01ac 1148     		ldr	r0, .L102+28
 1598 01ae FFF7FEFF 		bl	printf
 1599              	.LVL181:
2257:.\BLEApplication.c ****                     {
 1600              		.loc 1 2257 0 discriminator 3
 1601 01b2 0134     		add	r4, r4, #1
 1602              	.LVL182:
 1603 01b4 E4B2     		uxtb	r4, r4
 1604              	.LVL183:
 1605 01b6 00E0     		b	.L97
 1606              	.LVL184:
 1607              	.L100:
 1608 01b8 0024     		mov	r4, #0
 1609              	.LVL185:
 1610              	.L97:
2257:.\BLEApplication.c ****                     {
 1611              		.loc 1 2257 0 is_stmt 0 discriminator 1
 1612 01ba 0B4B     		ldr	r3, .L102+16
 1613 01bc 1B7A     		ldrb	r3, [r3, #8]
 1614 01be A342     		cmp	r3, r4
 1615 01c0 E5D8     		bhi	.L99
 1616 01c2 06E0     		b	.L84
 1617              	.LVL186:
 1618              	.L101:
2267:.\BLEApplication.c ****                       );
2268:.\BLEApplication.c ****                     }
2269:.\BLEApplication.c ****                 }
2270:.\BLEApplication.c ****                 else
2271:.\BLEApplication.c ****                 {
2272:.\BLEApplication.c ****                     printf("AT+ERR=3\r\n");//Ë°®Á§∫ÂΩìÂâçÁä∂ÊÄÅ‰∏çÊîØÊåÅËØ•ÂëΩ‰ª§
 1619              		.loc 1 2272 0 is_stmt 1
 1620 01c4 0C48     		ldr	r0, .L102+32
 1621              	.LVL187:
 1622 01c6 FFF7FEFF 		bl	puts
 1623              	.LVL188:
 1624 01ca 02E0     		b	.L84
 1625              	.LVL189:
 1626              	.L85:
2273:.\BLEApplication.c ****                 }
2274:.\BLEApplication.c ****                 
2275:.\BLEApplication.c ****             break;
2276:.\BLEApplication.c ****         }
2277:.\BLEApplication.c ****     }
2278:.\BLEApplication.c ****     else
2279:.\BLEApplication.c ****     {
2280:.\BLEApplication.c ****         printf("AT+ERR=4\r\n");//Ë°®Á§∫ÂΩìÂâçËßíËâ≤‰∏çÊîØÊåÅËØ•ÂëΩ‰ª§ 
 1627              		.loc 1 2280 0
 1628 01cc 0B48     		ldr	r0, .L102+36
 1629              	.LVL190:
 1630 01ce FFF7FEFF 		bl	puts
 1631              	.LVL191:
ARM GAS  C:\Users\Helon\AppData\Local\Temp\ccoPKzhl.s 			page 71


 1632              	.L84:
2281:.\BLEApplication.c ****     }
2282:.\BLEApplication.c **** }
 1633              		.loc 1 2282 0
 1634 01d2 05B0     		add	sp, sp, #20
 1635              		@ sp needed
 1636 01d4 F0BD     		pop	{r4, r5, r6, r7, pc}
 1637              	.L103:
 1638 01d6 C046     		.align	2
 1639              	.L102:
 1640 01d8 00000000 		.word	.LANCHOR0
 1641 01dc 4C010000 		.word	.L88
 1642 01e0 00000000 		.word	DeviceInfo
 1643 01e4 54010000 		.word	.LC56
 1644 01e8 00000000 		.word	Conn_Or_Disconn_Info
 1645 01ec 6C010000 		.word	.LC59
 1646 01f0 00000000 		.word	cyBle_state
 1647 01f4 74010000 		.word	.LC62
 1648 01f8 A0010000 		.word	.LC64
 1649 01fc AC010000 		.word	.LC66
 1650              		.cfi_endproc
 1651              	.LFE49:
 1652              		.size	Connect_Device, .-Connect_Device
 1653              		.section	.text.UartBuadRate_Handler,"ax",%progbits
 1654              		.align	2
 1655              		.global	UartBuadRate_Handler
 1656              		.code	16
 1657              		.thumb_func
 1658              		.type	UartBuadRate_Handler, %function
 1659              	UartBuadRate_Handler:
 1660              	.LFB50:
2283:.\BLEApplication.c **** /******************************************************************************
2284:.\BLEApplication.c **** * Function Name: UartBuadRate_Handler
2285:.\BLEApplication.c **** ***************************************************************************//**
2286:.\BLEApplication.c **** * 
2287:.\BLEApplication.c **** *  ËÆæÂ§á‰∏≤Âè£Ê≥¢ÁâπÁéáÊàñËÄÖÊü•ËØ¢ÂΩìÂâçÁöÑ‰∏≤Âè£Ê≥¢ÁâπÁéá
2288:.\BLEApplication.c **** * \param  idx:ËÆæÁΩÆÁöÑÊ≥¢ÁâπÁéáÂÄºÊàñÊü•ËØ¢Ê≥¢ÁâπÁéáÁöÑÁä∂ÊÄÅ
2289:.\BLEApplication.c **** * \return none
2290:.\BLEApplication.c **** *  
2291:.\BLEApplication.c **** * 
2292:.\BLEApplication.c **** ******************************************************************************/
2293:.\BLEApplication.c **** void UartBuadRate_Handler(uint8_t idx)
2294:.\BLEApplication.c **** {
 1661              		.loc 1 2294 0
 1662              		.cfi_startproc
 1663              	.LVL192:
 1664 0000 10B5     		push	{r4, lr}
 1665              		.cfi_def_cfa_offset 8
 1666              		.cfi_offset 4, -8
 1667              		.cfi_offset 14, -4
 1668 0002 041C     		mov	r4, r0
2295:.\BLEApplication.c ****     switch(idx)
 1669              		.loc 1 2295 0
 1670 0004 031C     		mov	r3, r0
 1671 0006 303B     		sub	r3, r3, #48
 1672 0008 DAB2     		uxtb	r2, r3
 1673 000a 312A     		cmp	r2, #49
ARM GAS  C:\Users\Helon\AppData\Local\Temp\ccoPKzhl.s 			page 72


 1674 000c 00D9     		bls	.LCB1497
 1675 000e D4E1     		b	.L104	@long jump
 1676              	.LCB1497:
 1677 0010 9300     		lsl	r3, r2, #2
 1678 0012 BA4A     		ldr	r2, .L175
 1679 0014 D358     		ldr	r3, [r2, r3]
 1680 0016 9F46     		mov	pc, r3
 1681              		.section	.rodata
 1682              		.align	2
 1683              	.L107:
 1684 0188 18000000 		.word	.L106
 1685 018c 42000000 		.word	.L108
 1686 0190 6C000000 		.word	.L109
 1687 0194 96000000 		.word	.L110
 1688 0198 C0000000 		.word	.L111
 1689 019c EA000000 		.word	.L112
 1690 01a0 14010000 		.word	.L113
 1691 01a4 3E010000 		.word	.L114
 1692 01a8 68010000 		.word	.L115
 1693 01ac 92010000 		.word	.L116
 1694 01b0 BA030000 		.word	.L104
 1695 01b4 BA030000 		.word	.L104
 1696 01b8 BA030000 		.word	.L104
 1697 01bc BA030000 		.word	.L104
 1698 01c0 BA030000 		.word	.L104
 1699 01c4 E6010000 		.word	.L117
 1700 01c8 BA030000 		.word	.L104
 1701 01cc BC010000 		.word	.L118
 1702 01d0 BA030000 		.word	.L104
 1703 01d4 BA030000 		.word	.L104
 1704 01d8 BA030000 		.word	.L104
 1705 01dc BA030000 		.word	.L104
 1706 01e0 BA030000 		.word	.L104
 1707 01e4 BA030000 		.word	.L104
 1708 01e8 BA030000 		.word	.L104
 1709 01ec BA030000 		.word	.L104
 1710 01f0 BA030000 		.word	.L104
 1711 01f4 BA030000 		.word	.L104
 1712 01f8 BA030000 		.word	.L104
 1713 01fc BA030000 		.word	.L104
 1714 0200 BA030000 		.word	.L104
 1715 0204 BA030000 		.word	.L104
 1716 0208 BA030000 		.word	.L104
 1717 020c BA030000 		.word	.L104
 1718 0210 BA030000 		.word	.L104
 1719 0214 BA030000 		.word	.L104
 1720 0218 BA030000 		.word	.L104
 1721 021c BA030000 		.word	.L104
 1722 0220 BA030000 		.word	.L104
 1723 0224 BA030000 		.word	.L104
 1724 0228 BA030000 		.word	.L104
 1725 022c BA030000 		.word	.L104
 1726 0230 BA030000 		.word	.L104
 1727 0234 BA030000 		.word	.L104
 1728 0238 BA030000 		.word	.L104
 1729 023c BA030000 		.word	.L104
 1730 0240 BA030000 		.word	.L104
ARM GAS  C:\Users\Helon\AppData\Local\Temp\ccoPKzhl.s 			page 73


 1731 0244 BA030000 		.word	.L104
 1732 0248 BA030000 		.word	.L104
 1733 024c BC010000 		.word	.L118
 1734              		.section	.text.UartBuadRate_Handler
 1735              	.L106:
2296:.\BLEApplication.c ****     {
2297:.\BLEApplication.c **** //                1200
2298:.\BLEApplication.c ****         case '0':                     
2299:.\BLEApplication.c ****              printf("AT+BAUD=<1200>\r\n");
 1736              		.loc 1 2299 0
 1737 0018 B948     		ldr	r0, .L175+4
 1738              	.LVL193:
 1739 001a FFF7FEFF 		bl	puts
 1740              	.LVL194:
2300:.\BLEApplication.c ****              printf("OK\r\n");
 1741              		.loc 1 2300 0
 1742 001e B948     		ldr	r0, .L175+8
 1743 0020 FFF7FEFF 		bl	puts
 1744              	.LVL195:
 1745              	.L120:
2301:.\BLEApplication.c ****              while((UART_SpiUartGetTxBufferSize() + UART_GET_TX_FIFO_SR_VALID) != 0);//Á≠âÂæÖ‰∏≤Âè£
 1746              		.loc 1 2301 0 discriminator 5
 1747 0024 FFF7FEFF 		bl	UART_SpiUartGetTxBufferSize
 1748              	.LVL196:
 1749 0028 B74B     		ldr	r3, .L175+12
 1750 002a 1B68     		ldr	r3, [r3]
 1751 002c 8022     		mov	r2, #128
 1752 002e 1202     		lsl	r2, r2, #8
 1753 0030 1340     		and	r3, r2
 1754 0032 00D0     		beq	.L119
 1755              		.loc 1 2301 0 is_stmt 0
 1756 0034 0123     		mov	r3, #1
 1757              	.L119:
 1758              		.loc 1 2301 0 discriminator 4
 1759 0036 C318     		add	r3, r0, r3
 1760 0038 002B     		cmp	r3, #0
 1761 003a F3D1     		bne	.L120
2302:.\BLEApplication.c ****              SetUartConfiguration(BAUD_1200);
2303:.\BLEApplication.c ****              Baud_rate_idx=idx;
 1762              		.loc 1 2303 0 is_stmt 1
 1763 003c B34B     		ldr	r3, .L175+16
 1764 003e 1C70     		strb	r4, [r3]
2304:.\BLEApplication.c ****         break;
 1765              		.loc 1 2304 0
 1766 0040 BBE1     		b	.L104
 1767              	.LVL197:
 1768              	.L108:
2305:.\BLEApplication.c **** //                2400
2306:.\BLEApplication.c ****         case '1':
2307:.\BLEApplication.c ****              printf("AT+BAUD=<2400>\r\n");
 1769              		.loc 1 2307 0
 1770 0042 B348     		ldr	r0, .L175+20
 1771              	.LVL198:
 1772 0044 FFF7FEFF 		bl	puts
 1773              	.LVL199:
2308:.\BLEApplication.c ****              printf("OK\r\n");
 1774              		.loc 1 2308 0
ARM GAS  C:\Users\Helon\AppData\Local\Temp\ccoPKzhl.s 			page 74


 1775 0048 AE48     		ldr	r0, .L175+8
 1776 004a FFF7FEFF 		bl	puts
 1777              	.LVL200:
 1778              	.L122:
2309:.\BLEApplication.c ****              while((UART_SpiUartGetTxBufferSize() + UART_GET_TX_FIFO_SR_VALID) != 0);//Á≠âÂæÖ‰∏≤Âè£
 1779              		.loc 1 2309 0 discriminator 5
 1780 004e FFF7FEFF 		bl	UART_SpiUartGetTxBufferSize
 1781              	.LVL201:
 1782 0052 AD4B     		ldr	r3, .L175+12
 1783 0054 1B68     		ldr	r3, [r3]
 1784 0056 8022     		mov	r2, #128
 1785 0058 1202     		lsl	r2, r2, #8
 1786 005a 1340     		and	r3, r2
 1787 005c 00D0     		beq	.L121
 1788              		.loc 1 2309 0 is_stmt 0
 1789 005e 0123     		mov	r3, #1
 1790              	.L121:
 1791              		.loc 1 2309 0 discriminator 4
 1792 0060 C318     		add	r3, r0, r3
 1793 0062 002B     		cmp	r3, #0
 1794 0064 F3D1     		bne	.L122
2310:.\BLEApplication.c ****              SetUartConfiguration(BAUD_2400);
2311:.\BLEApplication.c ****              Baud_rate_idx=idx;
 1795              		.loc 1 2311 0 is_stmt 1
 1796 0066 A94B     		ldr	r3, .L175+16
 1797 0068 1C70     		strb	r4, [r3]
2312:.\BLEApplication.c ****         break;
 1798              		.loc 1 2312 0
 1799 006a A6E1     		b	.L104
 1800              	.LVL202:
 1801              	.L109:
2313:.\BLEApplication.c **** //                4800
2314:.\BLEApplication.c ****         case '2':
2315:.\BLEApplication.c ****              printf("AT+BAUD=<4800>\r\n");
 1802              		.loc 1 2315 0
 1803 006c A948     		ldr	r0, .L175+24
 1804              	.LVL203:
 1805 006e FFF7FEFF 		bl	puts
 1806              	.LVL204:
2316:.\BLEApplication.c ****              printf("OK\r\n");
 1807              		.loc 1 2316 0
 1808 0072 A448     		ldr	r0, .L175+8
 1809 0074 FFF7FEFF 		bl	puts
 1810              	.LVL205:
 1811              	.L124:
2317:.\BLEApplication.c ****              while((UART_SpiUartGetTxBufferSize() + UART_GET_TX_FIFO_SR_VALID) != 0);//Á≠âÂæÖ‰∏≤Âè£
 1812              		.loc 1 2317 0 discriminator 5
 1813 0078 FFF7FEFF 		bl	UART_SpiUartGetTxBufferSize
 1814              	.LVL206:
 1815 007c A24B     		ldr	r3, .L175+12
 1816 007e 1B68     		ldr	r3, [r3]
 1817 0080 8022     		mov	r2, #128
 1818 0082 1202     		lsl	r2, r2, #8
 1819 0084 1340     		and	r3, r2
 1820 0086 00D0     		beq	.L123
 1821              		.loc 1 2317 0 is_stmt 0
 1822 0088 0123     		mov	r3, #1
ARM GAS  C:\Users\Helon\AppData\Local\Temp\ccoPKzhl.s 			page 75


 1823              	.L123:
 1824              		.loc 1 2317 0 discriminator 4
 1825 008a C318     		add	r3, r0, r3
 1826 008c 002B     		cmp	r3, #0
 1827 008e F3D1     		bne	.L124
2318:.\BLEApplication.c ****              SetUartConfiguration(BAUD_4800);
2319:.\BLEApplication.c ****              Baud_rate_idx=idx;
 1828              		.loc 1 2319 0 is_stmt 1
 1829 0090 9E4B     		ldr	r3, .L175+16
 1830 0092 1C70     		strb	r4, [r3]
2320:.\BLEApplication.c ****         break;
 1831              		.loc 1 2320 0
 1832 0094 91E1     		b	.L104
 1833              	.LVL207:
 1834              	.L110:
2321:.\BLEApplication.c **** //                9600
2322:.\BLEApplication.c ****         case '3':
2323:.\BLEApplication.c ****              printf("AT+BAUD=<9600>\r\n");
 1835              		.loc 1 2323 0
 1836 0096 A048     		ldr	r0, .L175+28
 1837              	.LVL208:
 1838 0098 FFF7FEFF 		bl	puts
 1839              	.LVL209:
2324:.\BLEApplication.c ****              printf("OK\r\n");
 1840              		.loc 1 2324 0
 1841 009c 9948     		ldr	r0, .L175+8
 1842 009e FFF7FEFF 		bl	puts
 1843              	.LVL210:
 1844              	.L126:
2325:.\BLEApplication.c ****              while((UART_SpiUartGetTxBufferSize() + UART_GET_TX_FIFO_SR_VALID) != 0);//Á≠âÂæÖ‰∏≤Âè£
 1845              		.loc 1 2325 0 discriminator 5
 1846 00a2 FFF7FEFF 		bl	UART_SpiUartGetTxBufferSize
 1847              	.LVL211:
 1848 00a6 984B     		ldr	r3, .L175+12
 1849 00a8 1B68     		ldr	r3, [r3]
 1850 00aa 8022     		mov	r2, #128
 1851 00ac 1202     		lsl	r2, r2, #8
 1852 00ae 1340     		and	r3, r2
 1853 00b0 00D0     		beq	.L125
 1854              		.loc 1 2325 0 is_stmt 0
 1855 00b2 0123     		mov	r3, #1
 1856              	.L125:
 1857              		.loc 1 2325 0 discriminator 4
 1858 00b4 C318     		add	r3, r0, r3
 1859 00b6 002B     		cmp	r3, #0
 1860 00b8 F3D1     		bne	.L126
2326:.\BLEApplication.c ****              SetUartConfiguration(BAUD_9600);
2327:.\BLEApplication.c ****              Baud_rate_idx=idx;
 1861              		.loc 1 2327 0 is_stmt 1
 1862 00ba 944B     		ldr	r3, .L175+16
 1863 00bc 1C70     		strb	r4, [r3]
2328:.\BLEApplication.c ****         break;
 1864              		.loc 1 2328 0
 1865 00be 7CE1     		b	.L104
 1866              	.LVL212:
 1867              	.L111:
2329:.\BLEApplication.c ****         case '4':
ARM GAS  C:\Users\Helon\AppData\Local\Temp\ccoPKzhl.s 			page 76


2330:.\BLEApplication.c ****              printf("AT+BAUD=<19200>\r\n");
 1868              		.loc 1 2330 0
 1869 00c0 9648     		ldr	r0, .L175+32
 1870              	.LVL213:
 1871 00c2 FFF7FEFF 		bl	puts
 1872              	.LVL214:
2331:.\BLEApplication.c ****              printf("OK\r\n");
 1873              		.loc 1 2331 0
 1874 00c6 8F48     		ldr	r0, .L175+8
 1875 00c8 FFF7FEFF 		bl	puts
 1876              	.LVL215:
 1877              	.L128:
2332:.\BLEApplication.c ****              while((UART_SpiUartGetTxBufferSize() + UART_GET_TX_FIFO_SR_VALID) != 0);//Á≠âÂæÖ‰∏≤Âè£
 1878              		.loc 1 2332 0 discriminator 5
 1879 00cc FFF7FEFF 		bl	UART_SpiUartGetTxBufferSize
 1880              	.LVL216:
 1881 00d0 8D4B     		ldr	r3, .L175+12
 1882 00d2 1B68     		ldr	r3, [r3]
 1883 00d4 8022     		mov	r2, #128
 1884 00d6 1202     		lsl	r2, r2, #8
 1885 00d8 1340     		and	r3, r2
 1886 00da 00D0     		beq	.L127
 1887              		.loc 1 2332 0 is_stmt 0
 1888 00dc 0123     		mov	r3, #1
 1889              	.L127:
 1890              		.loc 1 2332 0 discriminator 4
 1891 00de C318     		add	r3, r0, r3
 1892 00e0 002B     		cmp	r3, #0
 1893 00e2 F3D1     		bne	.L128
2333:.\BLEApplication.c ****              SetUartConfiguration(BAUD_19200);
2334:.\BLEApplication.c ****              Baud_rate_idx=idx;
 1894              		.loc 1 2334 0 is_stmt 1
 1895 00e4 894B     		ldr	r3, .L175+16
 1896 00e6 1C70     		strb	r4, [r3]
2335:.\BLEApplication.c ****         break;
 1897              		.loc 1 2335 0
 1898 00e8 67E1     		b	.L104
 1899              	.LVL217:
 1900              	.L112:
2336:.\BLEApplication.c ****         case '5':
2337:.\BLEApplication.c ****              printf("AT+BAUD=<38400>\r\n");
 1901              		.loc 1 2337 0
 1902 00ea 8D48     		ldr	r0, .L175+36
 1903              	.LVL218:
 1904 00ec FFF7FEFF 		bl	puts
 1905              	.LVL219:
2338:.\BLEApplication.c ****              printf("OK\r\n");
 1906              		.loc 1 2338 0
 1907 00f0 8448     		ldr	r0, .L175+8
 1908 00f2 FFF7FEFF 		bl	puts
 1909              	.LVL220:
 1910              	.L130:
2339:.\BLEApplication.c ****              while((UART_SpiUartGetTxBufferSize() + UART_GET_TX_FIFO_SR_VALID) != 0);//Á≠âÂæÖ‰∏≤Âè£
 1911              		.loc 1 2339 0 discriminator 5
 1912 00f6 FFF7FEFF 		bl	UART_SpiUartGetTxBufferSize
 1913              	.LVL221:
 1914 00fa 834B     		ldr	r3, .L175+12
ARM GAS  C:\Users\Helon\AppData\Local\Temp\ccoPKzhl.s 			page 77


 1915 00fc 1B68     		ldr	r3, [r3]
 1916 00fe 8022     		mov	r2, #128
 1917 0100 1202     		lsl	r2, r2, #8
 1918 0102 1340     		and	r3, r2
 1919 0104 00D0     		beq	.L129
 1920              		.loc 1 2339 0 is_stmt 0
 1921 0106 0123     		mov	r3, #1
 1922              	.L129:
 1923              		.loc 1 2339 0 discriminator 4
 1924 0108 C318     		add	r3, r0, r3
 1925 010a 002B     		cmp	r3, #0
 1926 010c F3D1     		bne	.L130
2340:.\BLEApplication.c ****              SetUartConfiguration(BAUD_38400);
2341:.\BLEApplication.c ****              Baud_rate_idx=idx;
 1927              		.loc 1 2341 0 is_stmt 1
 1928 010e 7F4B     		ldr	r3, .L175+16
 1929 0110 1C70     		strb	r4, [r3]
2342:.\BLEApplication.c ****         break;
 1930              		.loc 1 2342 0
 1931 0112 52E1     		b	.L104
 1932              	.LVL222:
 1933              	.L113:
2343:.\BLEApplication.c **** //                57600
2344:.\BLEApplication.c ****         case '6':
2345:.\BLEApplication.c ****              printf("AT+BAUD=<57600>\r\n");
 1934              		.loc 1 2345 0
 1935 0114 8348     		ldr	r0, .L175+40
 1936              	.LVL223:
 1937 0116 FFF7FEFF 		bl	puts
 1938              	.LVL224:
2346:.\BLEApplication.c ****              printf("OK\r\n");
 1939              		.loc 1 2346 0
 1940 011a 7A48     		ldr	r0, .L175+8
 1941 011c FFF7FEFF 		bl	puts
 1942              	.LVL225:
 1943              	.L132:
2347:.\BLEApplication.c ****              while((UART_SpiUartGetTxBufferSize() + UART_GET_TX_FIFO_SR_VALID) != 0);//Á≠âÂæÖ‰∏≤Âè£
 1944              		.loc 1 2347 0 discriminator 5
 1945 0120 FFF7FEFF 		bl	UART_SpiUartGetTxBufferSize
 1946              	.LVL226:
 1947 0124 784B     		ldr	r3, .L175+12
 1948 0126 1B68     		ldr	r3, [r3]
 1949 0128 8022     		mov	r2, #128
 1950 012a 1202     		lsl	r2, r2, #8
 1951 012c 1340     		and	r3, r2
 1952 012e 00D0     		beq	.L131
 1953              		.loc 1 2347 0 is_stmt 0
 1954 0130 0123     		mov	r3, #1
 1955              	.L131:
 1956              		.loc 1 2347 0 discriminator 4
 1957 0132 C318     		add	r3, r0, r3
 1958 0134 002B     		cmp	r3, #0
 1959 0136 F3D1     		bne	.L132
2348:.\BLEApplication.c ****              SetUartConfiguration(BAUD_57600);
2349:.\BLEApplication.c ****              Baud_rate_idx=idx;
 1960              		.loc 1 2349 0 is_stmt 1
 1961 0138 744B     		ldr	r3, .L175+16
ARM GAS  C:\Users\Helon\AppData\Local\Temp\ccoPKzhl.s 			page 78


 1962 013a 1C70     		strb	r4, [r3]
2350:.\BLEApplication.c ****         break;
 1963              		.loc 1 2350 0
 1964 013c 3DE1     		b	.L104
 1965              	.LVL227:
 1966              	.L114:
2351:.\BLEApplication.c ****         case '7':
2352:.\BLEApplication.c ****              printf("AT+BAUD=<115200>\r\n");
 1967              		.loc 1 2352 0
 1968 013e 7A48     		ldr	r0, .L175+44
 1969              	.LVL228:
 1970 0140 FFF7FEFF 		bl	puts
 1971              	.LVL229:
2353:.\BLEApplication.c ****              printf("OK\r\n");
 1972              		.loc 1 2353 0
 1973 0144 6F48     		ldr	r0, .L175+8
 1974 0146 FFF7FEFF 		bl	puts
 1975              	.LVL230:
 1976              	.L134:
2354:.\BLEApplication.c ****              while((UART_SpiUartGetTxBufferSize() + UART_GET_TX_FIFO_SR_VALID) != 0);//Á≠âÂæÖ‰∏≤Âè£
 1977              		.loc 1 2354 0 discriminator 5
 1978 014a FFF7FEFF 		bl	UART_SpiUartGetTxBufferSize
 1979              	.LVL231:
 1980 014e 6E4B     		ldr	r3, .L175+12
 1981 0150 1B68     		ldr	r3, [r3]
 1982 0152 8022     		mov	r2, #128
 1983 0154 1202     		lsl	r2, r2, #8
 1984 0156 1340     		and	r3, r2
 1985 0158 00D0     		beq	.L133
 1986              		.loc 1 2354 0 is_stmt 0
 1987 015a 0123     		mov	r3, #1
 1988              	.L133:
 1989              		.loc 1 2354 0 discriminator 4
 1990 015c C318     		add	r3, r0, r3
 1991 015e 002B     		cmp	r3, #0
 1992 0160 F3D1     		bne	.L134
2355:.\BLEApplication.c ****              SetUartConfiguration(BAUD_115200);
2356:.\BLEApplication.c ****              Baud_rate_idx=idx;
 1993              		.loc 1 2356 0 is_stmt 1
 1994 0162 6A4B     		ldr	r3, .L175+16
 1995 0164 1C70     		strb	r4, [r3]
2357:.\BLEApplication.c ****         break;
 1996              		.loc 1 2357 0
 1997 0166 28E1     		b	.L104
 1998              	.LVL232:
 1999              	.L115:
2358:.\BLEApplication.c ****         case '8':
2359:.\BLEApplication.c ****              printf("AT+BAUD=<230400>\r\n");
 2000              		.loc 1 2359 0
 2001 0168 7048     		ldr	r0, .L175+48
 2002              	.LVL233:
 2003 016a FFF7FEFF 		bl	puts
 2004              	.LVL234:
2360:.\BLEApplication.c ****              printf("OK\r\n");
 2005              		.loc 1 2360 0
 2006 016e 6548     		ldr	r0, .L175+8
 2007 0170 FFF7FEFF 		bl	puts
ARM GAS  C:\Users\Helon\AppData\Local\Temp\ccoPKzhl.s 			page 79


 2008              	.LVL235:
 2009              	.L136:
2361:.\BLEApplication.c ****              while((UART_SpiUartGetTxBufferSize() + UART_GET_TX_FIFO_SR_VALID) != 0);//Á≠âÂæÖ‰∏≤Âè£
 2010              		.loc 1 2361 0 discriminator 5
 2011 0174 FFF7FEFF 		bl	UART_SpiUartGetTxBufferSize
 2012              	.LVL236:
 2013 0178 634B     		ldr	r3, .L175+12
 2014 017a 1B68     		ldr	r3, [r3]
 2015 017c 8022     		mov	r2, #128
 2016 017e 1202     		lsl	r2, r2, #8
 2017 0180 1340     		and	r3, r2
 2018 0182 00D0     		beq	.L135
 2019              		.loc 1 2361 0 is_stmt 0
 2020 0184 0123     		mov	r3, #1
 2021              	.L135:
 2022              		.loc 1 2361 0 discriminator 4
 2023 0186 C318     		add	r3, r0, r3
 2024 0188 002B     		cmp	r3, #0
 2025 018a F3D1     		bne	.L136
2362:.\BLEApplication.c ****              SetUartConfiguration(BAUD_230400);
2363:.\BLEApplication.c ****              Baud_rate_idx=idx;
 2026              		.loc 1 2363 0 is_stmt 1
 2027 018c 5F4B     		ldr	r3, .L175+16
 2028 018e 1C70     		strb	r4, [r3]
2364:.\BLEApplication.c ****         break;
 2029              		.loc 1 2364 0
 2030 0190 13E1     		b	.L104
 2031              	.LVL237:
 2032              	.L116:
2365:.\BLEApplication.c ****         case '9':
2366:.\BLEApplication.c ****              printf("AT+BAUD=<460800>\r\n");
 2033              		.loc 1 2366 0
 2034 0192 6748     		ldr	r0, .L175+52
 2035              	.LVL238:
 2036 0194 FFF7FEFF 		bl	puts
 2037              	.LVL239:
2367:.\BLEApplication.c ****              printf("OK\r\n");
 2038              		.loc 1 2367 0
 2039 0198 5A48     		ldr	r0, .L175+8
 2040 019a FFF7FEFF 		bl	puts
 2041              	.LVL240:
 2042              	.L138:
2368:.\BLEApplication.c ****              while((UART_SpiUartGetTxBufferSize() + UART_GET_TX_FIFO_SR_VALID) != 0);//Á≠âÂæÖ‰∏≤Âè£
 2043              		.loc 1 2368 0 discriminator 5
 2044 019e FFF7FEFF 		bl	UART_SpiUartGetTxBufferSize
 2045              	.LVL241:
 2046 01a2 594B     		ldr	r3, .L175+12
 2047 01a4 1B68     		ldr	r3, [r3]
 2048 01a6 8022     		mov	r2, #128
 2049 01a8 1202     		lsl	r2, r2, #8
 2050 01aa 1340     		and	r3, r2
 2051 01ac 00D0     		beq	.L137
 2052              		.loc 1 2368 0 is_stmt 0
 2053 01ae 0123     		mov	r3, #1
 2054              	.L137:
 2055              		.loc 1 2368 0 discriminator 4
 2056 01b0 C318     		add	r3, r0, r3
ARM GAS  C:\Users\Helon\AppData\Local\Temp\ccoPKzhl.s 			page 80


 2057 01b2 002B     		cmp	r3, #0
 2058 01b4 F3D1     		bne	.L138
2369:.\BLEApplication.c ****              SetUartConfiguration(BAUD_460800);
2370:.\BLEApplication.c ****              Baud_rate_idx=idx;
 2059              		.loc 1 2370 0 is_stmt 1
 2060 01b6 554B     		ldr	r3, .L175+16
 2061 01b8 1C70     		strb	r4, [r3]
2371:.\BLEApplication.c ****         break;
 2062              		.loc 1 2371 0
 2063 01ba FEE0     		b	.L104
 2064              	.LVL242:
 2065              	.L118:
2372:.\BLEApplication.c ****         case 'a':
2373:.\BLEApplication.c ****         case 'A':
2374:.\BLEApplication.c ****              printf("AT+BAUD=<921600>\r\n");
 2066              		.loc 1 2374 0
 2067 01bc 5D48     		ldr	r0, .L175+56
 2068              	.LVL243:
 2069 01be FFF7FEFF 		bl	puts
 2070              	.LVL244:
2375:.\BLEApplication.c ****              printf("OK\r\n");
 2071              		.loc 1 2375 0
 2072 01c2 5048     		ldr	r0, .L175+8
 2073 01c4 FFF7FEFF 		bl	puts
 2074              	.LVL245:
 2075              	.L140:
2376:.\BLEApplication.c ****              while((UART_SpiUartGetTxBufferSize() + UART_GET_TX_FIFO_SR_VALID) != 0);//Á≠âÂæÖ‰∏≤Âè£
 2076              		.loc 1 2376 0 discriminator 5
 2077 01c8 FFF7FEFF 		bl	UART_SpiUartGetTxBufferSize
 2078              	.LVL246:
 2079 01cc 4E4B     		ldr	r3, .L175+12
 2080 01ce 1B68     		ldr	r3, [r3]
 2081 01d0 8022     		mov	r2, #128
 2082 01d2 1202     		lsl	r2, r2, #8
 2083 01d4 1340     		and	r3, r2
 2084 01d6 00D0     		beq	.L139
 2085              		.loc 1 2376 0 is_stmt 0
 2086 01d8 0123     		mov	r3, #1
 2087              	.L139:
 2088              		.loc 1 2376 0 discriminator 4
 2089 01da C318     		add	r3, r0, r3
 2090 01dc 002B     		cmp	r3, #0
 2091 01de F3D1     		bne	.L140
2377:.\BLEApplication.c ****              SetUartConfiguration(BAUD_921600);
2378:.\BLEApplication.c ****              Baud_rate_idx=idx;
 2092              		.loc 1 2378 0 is_stmt 1
 2093 01e0 4A4B     		ldr	r3, .L175+16
 2094 01e2 1C70     		strb	r4, [r3]
2379:.\BLEApplication.c ****         break;
 2095              		.loc 1 2379 0
 2096 01e4 E9E0     		b	.L104
 2097              	.LVL247:
 2098              	.L117:
2380:.\BLEApplication.c ****         case '?':
2381:.\BLEApplication.c ****             switch(Baud_rate_idx)
 2099              		.loc 1 2381 0
 2100 01e6 494B     		ldr	r3, .L175+16
ARM GAS  C:\Users\Helon\AppData\Local\Temp\ccoPKzhl.s 			page 81


 2101 01e8 1B78     		ldrb	r3, [r3]
 2102 01ea 303B     		sub	r3, r3, #48
 2103 01ec DAB2     		uxtb	r2, r3
 2104 01ee 312A     		cmp	r2, #49
 2105 01f0 00D9     		bls	.LCB1855
 2106 01f2 E2E0     		b	.L104	@long jump
 2107              	.LCB1855:
 2108 01f4 9300     		lsl	r3, r2, #2
