ARM GAS  C:\Users\Helon\AppData\Local\Temp\ccnsjCdd.s 			page 1


   1              		.cpu cortex-m0
   2              		.fpu softvfp
   3              		.eabi_attribute 20, 1
   4              		.eabi_attribute 21, 1
   5              		.eabi_attribute 23, 3
   6              		.eabi_attribute 24, 1
   7              		.eabi_attribute 25, 1
   8              		.eabi_attribute 26, 1
   9              		.eabi_attribute 30, 1
  10              		.eabi_attribute 34, 0
  11              		.eabi_attribute 18, 4
  12              		.code	16
  13              		.file	"TimerInterrupt.c"
  14              		.text
  15              	.Ltext0:
  16              		.cfi_sections	.debug_frame
  17              		.section	.text.TimerInterrupt_Interrupt,"ax",%progbits
  18              		.align	2
  19              		.global	TimerInterrupt_Interrupt
  20              		.code	16
  21              		.thumb_func
  22              		.type	TimerInterrupt_Interrupt, %function
  23              	TimerInterrupt_Interrupt:
  24              	.LFB5:
  25              		.file 1 ".\\Generated_Source\\PSoC4\\TimerInterrupt.c"
   1:.\Generated_Source\PSoC4/TimerInterrupt.c **** /*******************************************************************************
   2:.\Generated_Source\PSoC4/TimerInterrupt.c **** * File Name: TimerInterrupt.c  
   3:.\Generated_Source\PSoC4/TimerInterrupt.c **** * Version 1.70
   4:.\Generated_Source\PSoC4/TimerInterrupt.c **** *
   5:.\Generated_Source\PSoC4/TimerInterrupt.c **** *  Description:
   6:.\Generated_Source\PSoC4/TimerInterrupt.c **** *   API for controlling the state of an interrupt.
   7:.\Generated_Source\PSoC4/TimerInterrupt.c **** *
   8:.\Generated_Source\PSoC4/TimerInterrupt.c **** *
   9:.\Generated_Source\PSoC4/TimerInterrupt.c **** *  Note:
  10:.\Generated_Source\PSoC4/TimerInterrupt.c **** *
  11:.\Generated_Source\PSoC4/TimerInterrupt.c **** ********************************************************************************
  12:.\Generated_Source\PSoC4/TimerInterrupt.c **** * Copyright 2008-2015, Cypress Semiconductor Corporation.  All rights reserved.
  13:.\Generated_Source\PSoC4/TimerInterrupt.c **** * You may use this file only in accordance with the license, terms, conditions, 
  14:.\Generated_Source\PSoC4/TimerInterrupt.c **** * disclaimers, and limitations in the end user license agreement accompanying 
  15:.\Generated_Source\PSoC4/TimerInterrupt.c **** * the software package with which this file was provided.
  16:.\Generated_Source\PSoC4/TimerInterrupt.c **** *******************************************************************************/
  17:.\Generated_Source\PSoC4/TimerInterrupt.c **** 
  18:.\Generated_Source\PSoC4/TimerInterrupt.c **** 
  19:.\Generated_Source\PSoC4/TimerInterrupt.c **** #include <cydevice_trm.h>
  20:.\Generated_Source\PSoC4/TimerInterrupt.c **** #include <CyLib.h>
  21:.\Generated_Source\PSoC4/TimerInterrupt.c **** #include <TimerInterrupt.h>
  22:.\Generated_Source\PSoC4/TimerInterrupt.c **** #include "cyapicallbacks.h"
  23:.\Generated_Source\PSoC4/TimerInterrupt.c **** 
  24:.\Generated_Source\PSoC4/TimerInterrupt.c **** #if !defined(TimerInterrupt__REMOVED) /* Check for removal by optimization */
  25:.\Generated_Source\PSoC4/TimerInterrupt.c **** 
  26:.\Generated_Source\PSoC4/TimerInterrupt.c **** /*******************************************************************************
  27:.\Generated_Source\PSoC4/TimerInterrupt.c **** *  Place your includes, defines and code here 
  28:.\Generated_Source\PSoC4/TimerInterrupt.c **** ********************************************************************************/
  29:.\Generated_Source\PSoC4/TimerInterrupt.c **** /* `#START TimerInterrupt_intc` */
  30:.\Generated_Source\PSoC4/TimerInterrupt.c **** 
  31:.\Generated_Source\PSoC4/TimerInterrupt.c **** /* `#END` */
  32:.\Generated_Source\PSoC4/TimerInterrupt.c **** 
ARM GAS  C:\Users\Helon\AppData\Local\Temp\ccnsjCdd.s 			page 2


  33:.\Generated_Source\PSoC4/TimerInterrupt.c **** extern cyisraddress CyRamVectors[CYINT_IRQ_BASE + CY_NUM_INTERRUPTS];
  34:.\Generated_Source\PSoC4/TimerInterrupt.c **** 
  35:.\Generated_Source\PSoC4/TimerInterrupt.c **** /* Declared in startup, used to set unused interrupts to. */
  36:.\Generated_Source\PSoC4/TimerInterrupt.c **** CY_ISR_PROTO(IntDefaultHandler);
  37:.\Generated_Source\PSoC4/TimerInterrupt.c **** 
  38:.\Generated_Source\PSoC4/TimerInterrupt.c **** 
  39:.\Generated_Source\PSoC4/TimerInterrupt.c **** /*******************************************************************************
  40:.\Generated_Source\PSoC4/TimerInterrupt.c **** * Function Name: TimerInterrupt_Start
  41:.\Generated_Source\PSoC4/TimerInterrupt.c **** ********************************************************************************
  42:.\Generated_Source\PSoC4/TimerInterrupt.c **** *
  43:.\Generated_Source\PSoC4/TimerInterrupt.c **** * Summary:
  44:.\Generated_Source\PSoC4/TimerInterrupt.c **** *  Set up the interrupt and enable it. This function disables the interrupt, 
  45:.\Generated_Source\PSoC4/TimerInterrupt.c **** *  sets the default interrupt vector, sets the priority from the value in the
  46:.\Generated_Source\PSoC4/TimerInterrupt.c **** *  Design Wide Resources Interrupt Editor, then enables the interrupt to the 
  47:.\Generated_Source\PSoC4/TimerInterrupt.c **** *  interrupt controller.
  48:.\Generated_Source\PSoC4/TimerInterrupt.c **** *
  49:.\Generated_Source\PSoC4/TimerInterrupt.c **** * Parameters:  
  50:.\Generated_Source\PSoC4/TimerInterrupt.c **** *   None
  51:.\Generated_Source\PSoC4/TimerInterrupt.c **** *
  52:.\Generated_Source\PSoC4/TimerInterrupt.c **** * Return:
  53:.\Generated_Source\PSoC4/TimerInterrupt.c **** *   None
  54:.\Generated_Source\PSoC4/TimerInterrupt.c **** *
  55:.\Generated_Source\PSoC4/TimerInterrupt.c **** *******************************************************************************/
  56:.\Generated_Source\PSoC4/TimerInterrupt.c **** void TimerInterrupt_Start(void)
  57:.\Generated_Source\PSoC4/TimerInterrupt.c **** {
  58:.\Generated_Source\PSoC4/TimerInterrupt.c ****     /* For all we know the interrupt is active. */
  59:.\Generated_Source\PSoC4/TimerInterrupt.c ****     TimerInterrupt_Disable();
  60:.\Generated_Source\PSoC4/TimerInterrupt.c **** 
  61:.\Generated_Source\PSoC4/TimerInterrupt.c ****     /* Set the ISR to point to the TimerInterrupt Interrupt. */
  62:.\Generated_Source\PSoC4/TimerInterrupt.c ****     TimerInterrupt_SetVector(&TimerInterrupt_Interrupt);
  63:.\Generated_Source\PSoC4/TimerInterrupt.c **** 
  64:.\Generated_Source\PSoC4/TimerInterrupt.c ****     /* Set the priority. */
  65:.\Generated_Source\PSoC4/TimerInterrupt.c ****     TimerInterrupt_SetPriority((uint8)TimerInterrupt_INTC_PRIOR_NUMBER);
  66:.\Generated_Source\PSoC4/TimerInterrupt.c **** 
  67:.\Generated_Source\PSoC4/TimerInterrupt.c ****     /* Enable it. */
  68:.\Generated_Source\PSoC4/TimerInterrupt.c ****     TimerInterrupt_Enable();
  69:.\Generated_Source\PSoC4/TimerInterrupt.c **** }
  70:.\Generated_Source\PSoC4/TimerInterrupt.c **** 
  71:.\Generated_Source\PSoC4/TimerInterrupt.c **** 
  72:.\Generated_Source\PSoC4/TimerInterrupt.c **** /*******************************************************************************
  73:.\Generated_Source\PSoC4/TimerInterrupt.c **** * Function Name: TimerInterrupt_StartEx
  74:.\Generated_Source\PSoC4/TimerInterrupt.c **** ********************************************************************************
  75:.\Generated_Source\PSoC4/TimerInterrupt.c **** *
  76:.\Generated_Source\PSoC4/TimerInterrupt.c **** * Summary:
  77:.\Generated_Source\PSoC4/TimerInterrupt.c **** *  Sets up the interrupt and enables it. This function disables the interrupt,
  78:.\Generated_Source\PSoC4/TimerInterrupt.c **** *  sets the interrupt vector based on the address passed in, sets the priority 
  79:.\Generated_Source\PSoC4/TimerInterrupt.c **** *  from the value in the Design Wide Resources Interrupt Editor, then enables 
  80:.\Generated_Source\PSoC4/TimerInterrupt.c **** *  the interrupt to the interrupt controller.
  81:.\Generated_Source\PSoC4/TimerInterrupt.c **** *  
  82:.\Generated_Source\PSoC4/TimerInterrupt.c **** *  When defining ISR functions, the CY_ISR and CY_ISR_PROTO macros should be 
  83:.\Generated_Source\PSoC4/TimerInterrupt.c **** *  used to provide consistent definition across compilers:
  84:.\Generated_Source\PSoC4/TimerInterrupt.c **** *  
  85:.\Generated_Source\PSoC4/TimerInterrupt.c **** *  Function definition example:
  86:.\Generated_Source\PSoC4/TimerInterrupt.c **** *   CY_ISR(MyISR)
  87:.\Generated_Source\PSoC4/TimerInterrupt.c **** *   {
  88:.\Generated_Source\PSoC4/TimerInterrupt.c **** *   }
  89:.\Generated_Source\PSoC4/TimerInterrupt.c **** *   Function prototype example:
ARM GAS  C:\Users\Helon\AppData\Local\Temp\ccnsjCdd.s 			page 3


  90:.\Generated_Source\PSoC4/TimerInterrupt.c **** *   CY_ISR_PROTO(MyISR);
  91:.\Generated_Source\PSoC4/TimerInterrupt.c **** *
  92:.\Generated_Source\PSoC4/TimerInterrupt.c **** * Parameters:  
  93:.\Generated_Source\PSoC4/TimerInterrupt.c **** *   address: Address of the ISR to set in the interrupt vector table.
  94:.\Generated_Source\PSoC4/TimerInterrupt.c **** *
  95:.\Generated_Source\PSoC4/TimerInterrupt.c **** * Return:
  96:.\Generated_Source\PSoC4/TimerInterrupt.c **** *   None
  97:.\Generated_Source\PSoC4/TimerInterrupt.c **** *
  98:.\Generated_Source\PSoC4/TimerInterrupt.c **** *******************************************************************************/
  99:.\Generated_Source\PSoC4/TimerInterrupt.c **** void TimerInterrupt_StartEx(cyisraddress address)
 100:.\Generated_Source\PSoC4/TimerInterrupt.c **** {
 101:.\Generated_Source\PSoC4/TimerInterrupt.c ****     /* For all we know the interrupt is active. */
 102:.\Generated_Source\PSoC4/TimerInterrupt.c ****     TimerInterrupt_Disable();
 103:.\Generated_Source\PSoC4/TimerInterrupt.c **** 
 104:.\Generated_Source\PSoC4/TimerInterrupt.c ****     /* Set the ISR to point to the TimerInterrupt Interrupt. */
 105:.\Generated_Source\PSoC4/TimerInterrupt.c ****     TimerInterrupt_SetVector(address);
 106:.\Generated_Source\PSoC4/TimerInterrupt.c **** 
 107:.\Generated_Source\PSoC4/TimerInterrupt.c ****     /* Set the priority. */
 108:.\Generated_Source\PSoC4/TimerInterrupt.c ****     TimerInterrupt_SetPriority((uint8)TimerInterrupt_INTC_PRIOR_NUMBER);
 109:.\Generated_Source\PSoC4/TimerInterrupt.c **** 
 110:.\Generated_Source\PSoC4/TimerInterrupt.c ****     /* Enable it. */
 111:.\Generated_Source\PSoC4/TimerInterrupt.c ****     TimerInterrupt_Enable();
 112:.\Generated_Source\PSoC4/TimerInterrupt.c **** }
 113:.\Generated_Source\PSoC4/TimerInterrupt.c **** 
 114:.\Generated_Source\PSoC4/TimerInterrupt.c **** 
 115:.\Generated_Source\PSoC4/TimerInterrupt.c **** /*******************************************************************************
 116:.\Generated_Source\PSoC4/TimerInterrupt.c **** * Function Name: TimerInterrupt_Stop
 117:.\Generated_Source\PSoC4/TimerInterrupt.c **** ********************************************************************************
 118:.\Generated_Source\PSoC4/TimerInterrupt.c **** *
 119:.\Generated_Source\PSoC4/TimerInterrupt.c **** * Summary:
 120:.\Generated_Source\PSoC4/TimerInterrupt.c **** *   Disables and removes the interrupt.
 121:.\Generated_Source\PSoC4/TimerInterrupt.c **** *
 122:.\Generated_Source\PSoC4/TimerInterrupt.c **** * Parameters:  
 123:.\Generated_Source\PSoC4/TimerInterrupt.c **** *   None
 124:.\Generated_Source\PSoC4/TimerInterrupt.c **** *
 125:.\Generated_Source\PSoC4/TimerInterrupt.c **** * Return:
 126:.\Generated_Source\PSoC4/TimerInterrupt.c **** *   None
 127:.\Generated_Source\PSoC4/TimerInterrupt.c **** *
 128:.\Generated_Source\PSoC4/TimerInterrupt.c **** *******************************************************************************/
 129:.\Generated_Source\PSoC4/TimerInterrupt.c **** void TimerInterrupt_Stop(void)
 130:.\Generated_Source\PSoC4/TimerInterrupt.c **** {
 131:.\Generated_Source\PSoC4/TimerInterrupt.c ****     /* Disable this interrupt. */
 132:.\Generated_Source\PSoC4/TimerInterrupt.c ****     TimerInterrupt_Disable();
 133:.\Generated_Source\PSoC4/TimerInterrupt.c **** 
 134:.\Generated_Source\PSoC4/TimerInterrupt.c ****     /* Set the ISR to point to the passive one. */
 135:.\Generated_Source\PSoC4/TimerInterrupt.c ****     TimerInterrupt_SetVector(&IntDefaultHandler);
 136:.\Generated_Source\PSoC4/TimerInterrupt.c **** }
 137:.\Generated_Source\PSoC4/TimerInterrupt.c **** 
 138:.\Generated_Source\PSoC4/TimerInterrupt.c **** 
 139:.\Generated_Source\PSoC4/TimerInterrupt.c **** /*******************************************************************************
 140:.\Generated_Source\PSoC4/TimerInterrupt.c **** * Function Name: TimerInterrupt_Interrupt
 141:.\Generated_Source\PSoC4/TimerInterrupt.c **** ********************************************************************************
 142:.\Generated_Source\PSoC4/TimerInterrupt.c **** *
 143:.\Generated_Source\PSoC4/TimerInterrupt.c **** * Summary:
 144:.\Generated_Source\PSoC4/TimerInterrupt.c **** *   The default Interrupt Service Routine for TimerInterrupt.
 145:.\Generated_Source\PSoC4/TimerInterrupt.c **** *
 146:.\Generated_Source\PSoC4/TimerInterrupt.c **** *   Add custom code between the START and END comments to keep the next version
ARM GAS  C:\Users\Helon\AppData\Local\Temp\ccnsjCdd.s 			page 4


 147:.\Generated_Source\PSoC4/TimerInterrupt.c **** *   of this file from over-writing your code.
 148:.\Generated_Source\PSoC4/TimerInterrupt.c **** *
 149:.\Generated_Source\PSoC4/TimerInterrupt.c **** *   Note You may use either the default ISR by using this API, or you may define
 150:.\Generated_Source\PSoC4/TimerInterrupt.c **** *   your own separate ISR through ISR_StartEx().
 151:.\Generated_Source\PSoC4/TimerInterrupt.c **** *
 152:.\Generated_Source\PSoC4/TimerInterrupt.c **** * Parameters:  
 153:.\Generated_Source\PSoC4/TimerInterrupt.c **** *   None
 154:.\Generated_Source\PSoC4/TimerInterrupt.c **** *
 155:.\Generated_Source\PSoC4/TimerInterrupt.c **** * Return:
 156:.\Generated_Source\PSoC4/TimerInterrupt.c **** *   None
 157:.\Generated_Source\PSoC4/TimerInterrupt.c **** *
 158:.\Generated_Source\PSoC4/TimerInterrupt.c **** *******************************************************************************/
 159:.\Generated_Source\PSoC4/TimerInterrupt.c **** CY_ISR(TimerInterrupt_Interrupt)
 160:.\Generated_Source\PSoC4/TimerInterrupt.c **** {
  26              		.loc 1 160 0
  27              		.cfi_startproc
 161:.\Generated_Source\PSoC4/TimerInterrupt.c ****     #ifdef TimerInterrupt_INTERRUPT_INTERRUPT_CALLBACK
 162:.\Generated_Source\PSoC4/TimerInterrupt.c ****         TimerInterrupt_Interrupt_InterruptCallback();
 163:.\Generated_Source\PSoC4/TimerInterrupt.c ****     #endif /* TimerInterrupt_INTERRUPT_INTERRUPT_CALLBACK */ 
 164:.\Generated_Source\PSoC4/TimerInterrupt.c **** 
 165:.\Generated_Source\PSoC4/TimerInterrupt.c ****     /*  Place your Interrupt code here. */
 166:.\Generated_Source\PSoC4/TimerInterrupt.c ****     /* `#START TimerInterrupt_Interrupt` */
 167:.\Generated_Source\PSoC4/TimerInterrupt.c **** 
 168:.\Generated_Source\PSoC4/TimerInterrupt.c ****     /* `#END` */
 169:.\Generated_Source\PSoC4/TimerInterrupt.c **** }
  28              		.loc 1 169 0
  29              		@ sp needed
  30 0000 7047     		bx	lr
  31              		.cfi_endproc
  32              	.LFE5:
  33              		.size	TimerInterrupt_Interrupt, .-TimerInterrupt_Interrupt
  34 0002 C046     		.section	.text.TimerInterrupt_SetVector,"ax",%progbits
  35              		.align	2
  36              		.global	TimerInterrupt_SetVector
  37              		.code	16
  38              		.thumb_func
  39              		.type	TimerInterrupt_SetVector, %function
  40              	TimerInterrupt_SetVector:
  41              	.LFB6:
 170:.\Generated_Source\PSoC4/TimerInterrupt.c **** 
 171:.\Generated_Source\PSoC4/TimerInterrupt.c **** 
 172:.\Generated_Source\PSoC4/TimerInterrupt.c **** /*******************************************************************************
 173:.\Generated_Source\PSoC4/TimerInterrupt.c **** * Function Name: TimerInterrupt_SetVector
 174:.\Generated_Source\PSoC4/TimerInterrupt.c **** ********************************************************************************
 175:.\Generated_Source\PSoC4/TimerInterrupt.c **** *
 176:.\Generated_Source\PSoC4/TimerInterrupt.c **** * Summary:
 177:.\Generated_Source\PSoC4/TimerInterrupt.c **** *   Change the ISR vector for the Interrupt. Note calling TimerInterrupt_Start
 178:.\Generated_Source\PSoC4/TimerInterrupt.c **** *   will override any effect this method would have had. To set the vector 
 179:.\Generated_Source\PSoC4/TimerInterrupt.c **** *   before the component has been started use TimerInterrupt_StartEx instead.
 180:.\Generated_Source\PSoC4/TimerInterrupt.c **** * 
 181:.\Generated_Source\PSoC4/TimerInterrupt.c **** *   When defining ISR functions, the CY_ISR and CY_ISR_PROTO macros should be 
 182:.\Generated_Source\PSoC4/TimerInterrupt.c **** *   used to provide consistent definition across compilers:
 183:.\Generated_Source\PSoC4/TimerInterrupt.c **** *
 184:.\Generated_Source\PSoC4/TimerInterrupt.c **** *   Function definition example:
 185:.\Generated_Source\PSoC4/TimerInterrupt.c **** *   CY_ISR(MyISR)
 186:.\Generated_Source\PSoC4/TimerInterrupt.c **** *   {
 187:.\Generated_Source\PSoC4/TimerInterrupt.c **** *   }
ARM GAS  C:\Users\Helon\AppData\Local\Temp\ccnsjCdd.s 			page 5


 188:.\Generated_Source\PSoC4/TimerInterrupt.c **** *
 189:.\Generated_Source\PSoC4/TimerInterrupt.c **** *   Function prototype example:
 190:.\Generated_Source\PSoC4/TimerInterrupt.c **** *     CY_ISR_PROTO(MyISR);
 191:.\Generated_Source\PSoC4/TimerInterrupt.c **** *
 192:.\Generated_Source\PSoC4/TimerInterrupt.c **** * Parameters:
 193:.\Generated_Source\PSoC4/TimerInterrupt.c **** *   address: Address of the ISR to set in the interrupt vector table.
 194:.\Generated_Source\PSoC4/TimerInterrupt.c **** *
 195:.\Generated_Source\PSoC4/TimerInterrupt.c **** * Return:
 196:.\Generated_Source\PSoC4/TimerInterrupt.c **** *   None
 197:.\Generated_Source\PSoC4/TimerInterrupt.c **** *
 198:.\Generated_Source\PSoC4/TimerInterrupt.c **** *******************************************************************************/
 199:.\Generated_Source\PSoC4/TimerInterrupt.c **** void TimerInterrupt_SetVector(cyisraddress address)
 200:.\Generated_Source\PSoC4/TimerInterrupt.c **** {
  42              		.loc 1 200 0
  43              		.cfi_startproc
  44              	.LVL0:
 201:.\Generated_Source\PSoC4/TimerInterrupt.c ****     CyRamVectors[CYINT_IRQ_BASE + TimerInterrupt__INTC_NUMBER] = address;
  45              		.loc 1 201 0
  46 0000 8423     		mov	r3, #132
  47 0002 014A     		ldr	r2, .L3
  48 0004 D050     		str	r0, [r2, r3]
 202:.\Generated_Source\PSoC4/TimerInterrupt.c **** }
  49              		.loc 1 202 0
  50              		@ sp needed
  51 0006 7047     		bx	lr
  52              	.L4:
  53              		.align	2
  54              	.L3:
  55 0008 00000000 		.word	CyRamVectors
  56              		.cfi_endproc
  57              	.LFE6:
  58              		.size	TimerInterrupt_SetVector, .-TimerInterrupt_SetVector
  59              		.section	.text.TimerInterrupt_GetVector,"ax",%progbits
  60              		.align	2
  61              		.global	TimerInterrupt_GetVector
  62              		.code	16
  63              		.thumb_func
  64              		.type	TimerInterrupt_GetVector, %function
  65              	TimerInterrupt_GetVector:
  66              	.LFB7:
 203:.\Generated_Source\PSoC4/TimerInterrupt.c **** 
 204:.\Generated_Source\PSoC4/TimerInterrupt.c **** 
 205:.\Generated_Source\PSoC4/TimerInterrupt.c **** /*******************************************************************************
 206:.\Generated_Source\PSoC4/TimerInterrupt.c **** * Function Name: TimerInterrupt_GetVector
 207:.\Generated_Source\PSoC4/TimerInterrupt.c **** ********************************************************************************
 208:.\Generated_Source\PSoC4/TimerInterrupt.c **** *
 209:.\Generated_Source\PSoC4/TimerInterrupt.c **** * Summary:
 210:.\Generated_Source\PSoC4/TimerInterrupt.c **** *   Gets the "address" of the current ISR vector for the Interrupt.
 211:.\Generated_Source\PSoC4/TimerInterrupt.c **** *
 212:.\Generated_Source\PSoC4/TimerInterrupt.c **** * Parameters:
 213:.\Generated_Source\PSoC4/TimerInterrupt.c **** *   None
 214:.\Generated_Source\PSoC4/TimerInterrupt.c **** *
 215:.\Generated_Source\PSoC4/TimerInterrupt.c **** * Return:
 216:.\Generated_Source\PSoC4/TimerInterrupt.c **** *   Address of the ISR in the interrupt vector table.
 217:.\Generated_Source\PSoC4/TimerInterrupt.c **** *
 218:.\Generated_Source\PSoC4/TimerInterrupt.c **** *******************************************************************************/
 219:.\Generated_Source\PSoC4/TimerInterrupt.c **** cyisraddress TimerInterrupt_GetVector(void)
ARM GAS  C:\Users\Helon\AppData\Local\Temp\ccnsjCdd.s 			page 6


 220:.\Generated_Source\PSoC4/TimerInterrupt.c **** {
  67              		.loc 1 220 0
  68              		.cfi_startproc
 221:.\Generated_Source\PSoC4/TimerInterrupt.c ****     return CyRamVectors[CYINT_IRQ_BASE + TimerInterrupt__INTC_NUMBER];
  69              		.loc 1 221 0
  70 0000 8423     		mov	r3, #132
  71 0002 014A     		ldr	r2, .L6
  72 0004 D058     		ldr	r0, [r2, r3]
 222:.\Generated_Source\PSoC4/TimerInterrupt.c **** }
  73              		.loc 1 222 0
  74              		@ sp needed
  75 0006 7047     		bx	lr
  76              	.L7:
  77              		.align	2
  78              	.L6:
  79 0008 00000000 		.word	CyRamVectors
  80              		.cfi_endproc
  81              	.LFE7:
  82              		.size	TimerInterrupt_GetVector, .-TimerInterrupt_GetVector
  83              		.section	.text.TimerInterrupt_SetPriority,"ax",%progbits
  84              		.align	2
  85              		.global	TimerInterrupt_SetPriority
  86              		.code	16
  87              		.thumb_func
  88              		.type	TimerInterrupt_SetPriority, %function
  89              	TimerInterrupt_SetPriority:
  90              	.LFB8:
 223:.\Generated_Source\PSoC4/TimerInterrupt.c **** 
 224:.\Generated_Source\PSoC4/TimerInterrupt.c **** 
 225:.\Generated_Source\PSoC4/TimerInterrupt.c **** /*******************************************************************************
 226:.\Generated_Source\PSoC4/TimerInterrupt.c **** * Function Name: TimerInterrupt_SetPriority
 227:.\Generated_Source\PSoC4/TimerInterrupt.c **** ********************************************************************************
 228:.\Generated_Source\PSoC4/TimerInterrupt.c **** *
 229:.\Generated_Source\PSoC4/TimerInterrupt.c **** * Summary:
 230:.\Generated_Source\PSoC4/TimerInterrupt.c **** *   Sets the Priority of the Interrupt. 
 231:.\Generated_Source\PSoC4/TimerInterrupt.c **** *
 232:.\Generated_Source\PSoC4/TimerInterrupt.c **** *   Note calling TimerInterrupt_Start or TimerInterrupt_StartEx will 
 233:.\Generated_Source\PSoC4/TimerInterrupt.c **** *   override any effect this API would have had. This API should only be called
 234:.\Generated_Source\PSoC4/TimerInterrupt.c **** *   after TimerInterrupt_Start or TimerInterrupt_StartEx has been called. 
 235:.\Generated_Source\PSoC4/TimerInterrupt.c **** *   To set the initial priority for the component, use the Design-Wide Resources
 236:.\Generated_Source\PSoC4/TimerInterrupt.c **** *   Interrupt Editor.
 237:.\Generated_Source\PSoC4/TimerInterrupt.c **** *
 238:.\Generated_Source\PSoC4/TimerInterrupt.c **** *   Note This API has no effect on Non-maskable interrupt NMI).
 239:.\Generated_Source\PSoC4/TimerInterrupt.c **** *
 240:.\Generated_Source\PSoC4/TimerInterrupt.c **** * Parameters:
 241:.\Generated_Source\PSoC4/TimerInterrupt.c **** *   priority: Priority of the interrupt, 0 being the highest priority
 242:.\Generated_Source\PSoC4/TimerInterrupt.c **** *             PSoC 3 and PSoC 5LP: Priority is from 0 to 7.
 243:.\Generated_Source\PSoC4/TimerInterrupt.c **** *             PSoC 4: Priority is from 0 to 3.
 244:.\Generated_Source\PSoC4/TimerInterrupt.c **** *
 245:.\Generated_Source\PSoC4/TimerInterrupt.c **** * Return:
 246:.\Generated_Source\PSoC4/TimerInterrupt.c **** *   None
 247:.\Generated_Source\PSoC4/TimerInterrupt.c **** *
 248:.\Generated_Source\PSoC4/TimerInterrupt.c **** *******************************************************************************/
 249:.\Generated_Source\PSoC4/TimerInterrupt.c **** void TimerInterrupt_SetPriority(uint8 priority)
 250:.\Generated_Source\PSoC4/TimerInterrupt.c **** {
  91              		.loc 1 250 0
  92              		.cfi_startproc
ARM GAS  C:\Users\Helon\AppData\Local\Temp\ccnsjCdd.s 			page 7


  93              	.LVL1:
  94 0000 10B5     		push	{r4, lr}
  95              		.cfi_def_cfa_offset 8
  96              		.cfi_offset 4, -8
  97              		.cfi_offset 14, -4
  98 0002 041C     		mov	r4, r0
  99              	.LVL2:
 251:.\Generated_Source\PSoC4/TimerInterrupt.c **** 	uint8 interruptState;
 252:.\Generated_Source\PSoC4/TimerInterrupt.c ****     uint32 priorityOffset = ((TimerInterrupt__INTC_NUMBER % 4u) * 8u) + 6u;
 253:.\Generated_Source\PSoC4/TimerInterrupt.c ****     
 254:.\Generated_Source\PSoC4/TimerInterrupt.c **** 	interruptState = CyEnterCriticalSection();
 100              		.loc 1 254 0
 101 0004 FFF7FEFF 		bl	CyEnterCriticalSection
 102              	.LVL3:
 255:.\Generated_Source\PSoC4/TimerInterrupt.c ****     *TimerInterrupt_INTC_PRIOR = (*TimerInterrupt_INTC_PRIOR & (uint32)(~TimerInterrupt__INTC_PRIOR
 103              		.loc 1 255 0
 104 0008 044A     		ldr	r2, .L9
 105 000a 1168     		ldr	r1, [r2]
 106 000c 044B     		ldr	r3, .L9+4
 107 000e 0B40     		and	r3, r1
 256:.\Generated_Source\PSoC4/TimerInterrupt.c ****                                     ((uint32)priority << priorityOffset);
 108              		.loc 1 256 0
 109 0010 A403     		lsl	r4, r4, #14
 255:.\Generated_Source\PSoC4/TimerInterrupt.c ****     *TimerInterrupt_INTC_PRIOR = (*TimerInterrupt_INTC_PRIOR & (uint32)(~TimerInterrupt__INTC_PRIOR
 110              		.loc 1 255 0
 111 0012 1C43     		orr	r4, r3
 112 0014 1460     		str	r4, [r2]
 257:.\Generated_Source\PSoC4/TimerInterrupt.c **** 	CyExitCriticalSection(interruptState);
 113              		.loc 1 257 0
 114 0016 FFF7FEFF 		bl	CyExitCriticalSection
 115              	.LVL4:
 258:.\Generated_Source\PSoC4/TimerInterrupt.c **** }
 116              		.loc 1 258 0
 117              		@ sp needed
 118 001a 10BD     		pop	{r4, pc}
 119              	.L10:
 120              		.align	2
 121              	.L9:
 122 001c 10E400E0 		.word	-536812528
 123 0020 FF3FFFFF 		.word	-49153
 124              		.cfi_endproc
 125              	.LFE8:
 126              		.size	TimerInterrupt_SetPriority, .-TimerInterrupt_SetPriority
 127              		.section	.text.TimerInterrupt_GetPriority,"ax",%progbits
 128              		.align	2
 129              		.global	TimerInterrupt_GetPriority
 130              		.code	16
 131              		.thumb_func
 132              		.type	TimerInterrupt_GetPriority, %function
 133              	TimerInterrupt_GetPriority:
 134              	.LFB9:
 259:.\Generated_Source\PSoC4/TimerInterrupt.c **** 
 260:.\Generated_Source\PSoC4/TimerInterrupt.c **** 
 261:.\Generated_Source\PSoC4/TimerInterrupt.c **** /*******************************************************************************
 262:.\Generated_Source\PSoC4/TimerInterrupt.c **** * Function Name: TimerInterrupt_GetPriority
 263:.\Generated_Source\PSoC4/TimerInterrupt.c **** ********************************************************************************
 264:.\Generated_Source\PSoC4/TimerInterrupt.c **** *
ARM GAS  C:\Users\Helon\AppData\Local\Temp\ccnsjCdd.s 			page 8


 265:.\Generated_Source\PSoC4/TimerInterrupt.c **** * Summary:
 266:.\Generated_Source\PSoC4/TimerInterrupt.c **** *   Gets the Priority of the Interrupt.
 267:.\Generated_Source\PSoC4/TimerInterrupt.c **** *
 268:.\Generated_Source\PSoC4/TimerInterrupt.c **** * Parameters:
 269:.\Generated_Source\PSoC4/TimerInterrupt.c **** *   None
 270:.\Generated_Source\PSoC4/TimerInterrupt.c **** *
 271:.\Generated_Source\PSoC4/TimerInterrupt.c **** * Return:
 272:.\Generated_Source\PSoC4/TimerInterrupt.c **** *   Priority of the interrupt, 0 being the highest priority
 273:.\Generated_Source\PSoC4/TimerInterrupt.c **** *    PSoC 3 and PSoC 5LP: Priority is from 0 to 7.
 274:.\Generated_Source\PSoC4/TimerInterrupt.c **** *    PSoC 4: Priority is from 0 to 3.
 275:.\Generated_Source\PSoC4/TimerInterrupt.c **** *
 276:.\Generated_Source\PSoC4/TimerInterrupt.c **** *******************************************************************************/
 277:.\Generated_Source\PSoC4/TimerInterrupt.c **** uint8 TimerInterrupt_GetPriority(void)
 278:.\Generated_Source\PSoC4/TimerInterrupt.c **** {
 135              		.loc 1 278 0
 136              		.cfi_startproc
 137              	.LVL5:
 279:.\Generated_Source\PSoC4/TimerInterrupt.c ****     uint32 priority;
 280:.\Generated_Source\PSoC4/TimerInterrupt.c **** 	uint32 priorityOffset = ((TimerInterrupt__INTC_NUMBER % 4u) * 8u) + 6u;
 281:.\Generated_Source\PSoC4/TimerInterrupt.c **** 
 282:.\Generated_Source\PSoC4/TimerInterrupt.c ****     priority = (*TimerInterrupt_INTC_PRIOR & TimerInterrupt__INTC_PRIOR_MASK) >> priorityOffset;
 138              		.loc 1 282 0
 139 0000 024B     		ldr	r3, .L12
 140 0002 1868     		ldr	r0, [r3]
 141 0004 0004     		lsl	r0, r0, #16
 142              	.LVL6:
 283:.\Generated_Source\PSoC4/TimerInterrupt.c **** 
 284:.\Generated_Source\PSoC4/TimerInterrupt.c ****     return (uint8)priority;
 143              		.loc 1 284 0
 144 0006 800F     		lsr	r0, r0, #30
 145              	.LVL7:
 285:.\Generated_Source\PSoC4/TimerInterrupt.c **** }
 146              		.loc 1 285 0
 147              		@ sp needed
 148 0008 7047     		bx	lr
 149              	.L13:
 150 000a C046     		.align	2
 151              	.L12:
 152 000c 10E400E0 		.word	-536812528
 153              		.cfi_endproc
 154              	.LFE9:
 155              		.size	TimerInterrupt_GetPriority, .-TimerInterrupt_GetPriority
 156              		.section	.text.TimerInterrupt_Enable,"ax",%progbits
 157              		.align	2
 158              		.global	TimerInterrupt_Enable
 159              		.code	16
 160              		.thumb_func
 161              		.type	TimerInterrupt_Enable, %function
 162              	TimerInterrupt_Enable:
 163              	.LFB10:
 286:.\Generated_Source\PSoC4/TimerInterrupt.c **** 
 287:.\Generated_Source\PSoC4/TimerInterrupt.c **** 
 288:.\Generated_Source\PSoC4/TimerInterrupt.c **** /*******************************************************************************
 289:.\Generated_Source\PSoC4/TimerInterrupt.c **** * Function Name: TimerInterrupt_Enable
 290:.\Generated_Source\PSoC4/TimerInterrupt.c **** ********************************************************************************
 291:.\Generated_Source\PSoC4/TimerInterrupt.c **** *
 292:.\Generated_Source\PSoC4/TimerInterrupt.c **** * Summary:
ARM GAS  C:\Users\Helon\AppData\Local\Temp\ccnsjCdd.s 			page 9


 293:.\Generated_Source\PSoC4/TimerInterrupt.c **** *   Enables the interrupt to the interrupt controller. Do not call this function
 294:.\Generated_Source\PSoC4/TimerInterrupt.c **** *   unless ISR_Start() has been called or the functionality of the ISR_Start() 
 295:.\Generated_Source\PSoC4/TimerInterrupt.c **** *   function, which sets the vector and the priority, has been called.
 296:.\Generated_Source\PSoC4/TimerInterrupt.c **** *
 297:.\Generated_Source\PSoC4/TimerInterrupt.c **** * Parameters:
 298:.\Generated_Source\PSoC4/TimerInterrupt.c **** *   None
 299:.\Generated_Source\PSoC4/TimerInterrupt.c **** *
 300:.\Generated_Source\PSoC4/TimerInterrupt.c **** * Return:
 301:.\Generated_Source\PSoC4/TimerInterrupt.c **** *   None
 302:.\Generated_Source\PSoC4/TimerInterrupt.c **** *
 303:.\Generated_Source\PSoC4/TimerInterrupt.c **** *******************************************************************************/
 304:.\Generated_Source\PSoC4/TimerInterrupt.c **** void TimerInterrupt_Enable(void)
 305:.\Generated_Source\PSoC4/TimerInterrupt.c **** {
 164              		.loc 1 305 0
 165              		.cfi_startproc
 306:.\Generated_Source\PSoC4/TimerInterrupt.c ****     /* Enable the general interrupt. */
 307:.\Generated_Source\PSoC4/TimerInterrupt.c ****     *TimerInterrupt_INTC_SET_EN = TimerInterrupt__INTC_MASK;
 166              		.loc 1 307 0
 167 0000 8022     		mov	r2, #128
 168 0002 9202     		lsl	r2, r2, #10
 169 0004 014B     		ldr	r3, .L15
 170 0006 1A60     		str	r2, [r3]
 308:.\Generated_Source\PSoC4/TimerInterrupt.c **** }
 171              		.loc 1 308 0
 172              		@ sp needed
 173 0008 7047     		bx	lr
 174              	.L16:
 175 000a C046     		.align	2
 176              	.L15:
 177 000c 00E100E0 		.word	-536813312
 178              		.cfi_endproc
 179              	.LFE10:
 180              		.size	TimerInterrupt_Enable, .-TimerInterrupt_Enable
 181              		.section	.text.TimerInterrupt_GetState,"ax",%progbits
 182              		.align	2
 183              		.global	TimerInterrupt_GetState
 184              		.code	16
 185              		.thumb_func
 186              		.type	TimerInterrupt_GetState, %function
 187              	TimerInterrupt_GetState:
 188              	.LFB11:
 309:.\Generated_Source\PSoC4/TimerInterrupt.c **** 
 310:.\Generated_Source\PSoC4/TimerInterrupt.c **** 
 311:.\Generated_Source\PSoC4/TimerInterrupt.c **** /*******************************************************************************
 312:.\Generated_Source\PSoC4/TimerInterrupt.c **** * Function Name: TimerInterrupt_GetState
 313:.\Generated_Source\PSoC4/TimerInterrupt.c **** ********************************************************************************
 314:.\Generated_Source\PSoC4/TimerInterrupt.c **** *
 315:.\Generated_Source\PSoC4/TimerInterrupt.c **** * Summary:
 316:.\Generated_Source\PSoC4/TimerInterrupt.c **** *   Gets the state (enabled, disabled) of the Interrupt.
 317:.\Generated_Source\PSoC4/TimerInterrupt.c **** *
 318:.\Generated_Source\PSoC4/TimerInterrupt.c **** * Parameters:
 319:.\Generated_Source\PSoC4/TimerInterrupt.c **** *   None
 320:.\Generated_Source\PSoC4/TimerInterrupt.c **** *
 321:.\Generated_Source\PSoC4/TimerInterrupt.c **** * Return:
 322:.\Generated_Source\PSoC4/TimerInterrupt.c **** *   1 if enabled, 0 if disabled.
 323:.\Generated_Source\PSoC4/TimerInterrupt.c **** *
 324:.\Generated_Source\PSoC4/TimerInterrupt.c **** *******************************************************************************/
ARM GAS  C:\Users\Helon\AppData\Local\Temp\ccnsjCdd.s 			page 10


 325:.\Generated_Source\PSoC4/TimerInterrupt.c **** uint8 TimerInterrupt_GetState(void)
 326:.\Generated_Source\PSoC4/TimerInterrupt.c **** {
 189              		.loc 1 326 0
 190              		.cfi_startproc
 327:.\Generated_Source\PSoC4/TimerInterrupt.c ****     /* Get the state of the general interrupt. */
 328:.\Generated_Source\PSoC4/TimerInterrupt.c ****     return ((*TimerInterrupt_INTC_SET_EN & (uint32)TimerInterrupt__INTC_MASK) != 0u) ? 1u:0u;
 191              		.loc 1 328 0
 192 0000 034B     		ldr	r3, .L20
 193 0002 1B68     		ldr	r3, [r3]
 194 0004 9B03     		lsl	r3, r3, #14
 195 0006 01D5     		bpl	.L19
 196 0008 0120     		mov	r0, #1
 197 000a 00E0     		b	.L18
 198              	.L19:
 199 000c 0020     		mov	r0, #0
 200              	.L18:
 329:.\Generated_Source\PSoC4/TimerInterrupt.c **** }
 201              		.loc 1 329 0 discriminator 4
 202              		@ sp needed
 203 000e 7047     		bx	lr
 204              	.L21:
 205              		.align	2
 206              	.L20:
 207 0010 00E100E0 		.word	-536813312
 208              		.cfi_endproc
 209              	.LFE11:
 210              		.size	TimerInterrupt_GetState, .-TimerInterrupt_GetState
 211              		.section	.text.TimerInterrupt_Disable,"ax",%progbits
 212              		.align	2
 213              		.global	TimerInterrupt_Disable
 214              		.code	16
 215              		.thumb_func
 216              		.type	TimerInterrupt_Disable, %function
 217              	TimerInterrupt_Disable:
 218              	.LFB12:
 330:.\Generated_Source\PSoC4/TimerInterrupt.c **** 
 331:.\Generated_Source\PSoC4/TimerInterrupt.c **** 
 332:.\Generated_Source\PSoC4/TimerInterrupt.c **** /*******************************************************************************
 333:.\Generated_Source\PSoC4/TimerInterrupt.c **** * Function Name: TimerInterrupt_Disable
 334:.\Generated_Source\PSoC4/TimerInterrupt.c **** ********************************************************************************
 335:.\Generated_Source\PSoC4/TimerInterrupt.c **** *
 336:.\Generated_Source\PSoC4/TimerInterrupt.c **** * Summary:
 337:.\Generated_Source\PSoC4/TimerInterrupt.c **** *   Disables the Interrupt in the interrupt controller.
 338:.\Generated_Source\PSoC4/TimerInterrupt.c **** *
 339:.\Generated_Source\PSoC4/TimerInterrupt.c **** * Parameters:
 340:.\Generated_Source\PSoC4/TimerInterrupt.c **** *   None
 341:.\Generated_Source\PSoC4/TimerInterrupt.c **** *
 342:.\Generated_Source\PSoC4/TimerInterrupt.c **** * Return:
 343:.\Generated_Source\PSoC4/TimerInterrupt.c **** *   None
 344:.\Generated_Source\PSoC4/TimerInterrupt.c **** *
 345:.\Generated_Source\PSoC4/TimerInterrupt.c **** *******************************************************************************/
 346:.\Generated_Source\PSoC4/TimerInterrupt.c **** void TimerInterrupt_Disable(void)
 347:.\Generated_Source\PSoC4/TimerInterrupt.c **** {
 219              		.loc 1 347 0
 220              		.cfi_startproc
 348:.\Generated_Source\PSoC4/TimerInterrupt.c ****     /* Disable the general interrupt. */
 349:.\Generated_Source\PSoC4/TimerInterrupt.c ****     *TimerInterrupt_INTC_CLR_EN = TimerInterrupt__INTC_MASK;
ARM GAS  C:\Users\Helon\AppData\Local\Temp\ccnsjCdd.s 			page 11


 221              		.loc 1 349 0
 222 0000 8022     		mov	r2, #128
 223 0002 9202     		lsl	r2, r2, #10
 224 0004 014B     		ldr	r3, .L23
 225 0006 1A60     		str	r2, [r3]
 350:.\Generated_Source\PSoC4/TimerInterrupt.c **** }
 226              		.loc 1 350 0
 227              		@ sp needed
 228 0008 7047     		bx	lr
 229              	.L24:
 230 000a C046     		.align	2
 231              	.L23:
 232 000c 80E100E0 		.word	-536813184
 233              		.cfi_endproc
 234              	.LFE12:
 235              		.size	TimerInterrupt_Disable, .-TimerInterrupt_Disable
 236              		.section	.text.TimerInterrupt_Start,"ax",%progbits
 237              		.align	2
 238              		.global	TimerInterrupt_Start
 239              		.code	16
 240              		.thumb_func
 241              		.type	TimerInterrupt_Start, %function
 242              	TimerInterrupt_Start:
 243              	.LFB2:
  57:.\Generated_Source\PSoC4/TimerInterrupt.c ****     /* For all we know the interrupt is active. */
 244              		.loc 1 57 0
 245              		.cfi_startproc
 246 0000 08B5     		push	{r3, lr}
 247              		.cfi_def_cfa_offset 8
 248              		.cfi_offset 3, -8
 249              		.cfi_offset 14, -4
  59:.\Generated_Source\PSoC4/TimerInterrupt.c **** 
 250              		.loc 1 59 0
 251 0002 FFF7FEFF 		bl	TimerInterrupt_Disable
 252              	.LVL8:
  62:.\Generated_Source\PSoC4/TimerInterrupt.c **** 
 253              		.loc 1 62 0
 254 0006 0448     		ldr	r0, .L26
 255 0008 FFF7FEFF 		bl	TimerInterrupt_SetVector
 256              	.LVL9:
  65:.\Generated_Source\PSoC4/TimerInterrupt.c **** 
 257              		.loc 1 65 0
 258 000c 0320     		mov	r0, #3
 259 000e FFF7FEFF 		bl	TimerInterrupt_SetPriority
 260              	.LVL10:
  68:.\Generated_Source\PSoC4/TimerInterrupt.c **** }
 261              		.loc 1 68 0
 262 0012 FFF7FEFF 		bl	TimerInterrupt_Enable
 263              	.LVL11:
  69:.\Generated_Source\PSoC4/TimerInterrupt.c **** 
 264              		.loc 1 69 0
 265              		@ sp needed
 266 0016 08BD     		pop	{r3, pc}
 267              	.L27:
 268              		.align	2
 269              	.L26:
 270 0018 00000000 		.word	TimerInterrupt_Interrupt
ARM GAS  C:\Users\Helon\AppData\Local\Temp\ccnsjCdd.s 			page 12


 271              		.cfi_endproc
 272              	.LFE2:
 273              		.size	TimerInterrupt_Start, .-TimerInterrupt_Start
 274              		.section	.text.TimerInterrupt_StartEx,"ax",%progbits
 275              		.align	2
 276              		.global	TimerInterrupt_StartEx
 277              		.code	16
 278              		.thumb_func
 279              		.type	TimerInterrupt_StartEx, %function
 280              	TimerInterrupt_StartEx:
 281              	.LFB3:
 100:.\Generated_Source\PSoC4/TimerInterrupt.c ****     /* For all we know the interrupt is active. */
 282              		.loc 1 100 0
 283              		.cfi_startproc
 284              	.LVL12:
 285 0000 10B5     		push	{r4, lr}
 286              		.cfi_def_cfa_offset 8
 287              		.cfi_offset 4, -8
 288              		.cfi_offset 14, -4
 289 0002 041C     		mov	r4, r0
 102:.\Generated_Source\PSoC4/TimerInterrupt.c **** 
 290              		.loc 1 102 0
 291 0004 FFF7FEFF 		bl	TimerInterrupt_Disable
 292              	.LVL13:
 105:.\Generated_Source\PSoC4/TimerInterrupt.c **** 
 293              		.loc 1 105 0
 294 0008 201C     		mov	r0, r4
 295 000a FFF7FEFF 		bl	TimerInterrupt_SetVector
 296              	.LVL14:
 108:.\Generated_Source\PSoC4/TimerInterrupt.c **** 
 297              		.loc 1 108 0
 298 000e 0320     		mov	r0, #3
 299 0010 FFF7FEFF 		bl	TimerInterrupt_SetPriority
 300              	.LVL15:
 111:.\Generated_Source\PSoC4/TimerInterrupt.c **** }
 301              		.loc 1 111 0
 302 0014 FFF7FEFF 		bl	TimerInterrupt_Enable
 303              	.LVL16:
 112:.\Generated_Source\PSoC4/TimerInterrupt.c **** 
 304              		.loc 1 112 0
 305              		@ sp needed
 306              	.LVL17:
 307 0018 10BD     		pop	{r4, pc}
 308              		.cfi_endproc
 309              	.LFE3:
 310              		.size	TimerInterrupt_StartEx, .-TimerInterrupt_StartEx
 311 001a C046     		.section	.text.TimerInterrupt_Stop,"ax",%progbits
 312              		.align	2
 313              		.global	TimerInterrupt_Stop
 314              		.code	16
 315              		.thumb_func
 316              		.type	TimerInterrupt_Stop, %function
 317              	TimerInterrupt_Stop:
 318              	.LFB4:
 130:.\Generated_Source\PSoC4/TimerInterrupt.c ****     /* Disable this interrupt. */
 319              		.loc 1 130 0
 320              		.cfi_startproc
ARM GAS  C:\Users\Helon\AppData\Local\Temp\ccnsjCdd.s 			page 13


 321 0000 08B5     		push	{r3, lr}
 322              		.cfi_def_cfa_offset 8
 323              		.cfi_offset 3, -8
 324              		.cfi_offset 14, -4
 132:.\Generated_Source\PSoC4/TimerInterrupt.c **** 
 325              		.loc 1 132 0
 326 0002 FFF7FEFF 		bl	TimerInterrupt_Disable
 327              	.LVL18:
 135:.\Generated_Source\PSoC4/TimerInterrupt.c **** }
 328              		.loc 1 135 0
 329 0006 0248     		ldr	r0, .L30
 330 0008 FFF7FEFF 		bl	TimerInterrupt_SetVector
 331              	.LVL19:
 136:.\Generated_Source\PSoC4/TimerInterrupt.c **** 
 332              		.loc 1 136 0
 333              		@ sp needed
 334 000c 08BD     		pop	{r3, pc}
 335              	.L31:
 336 000e C046     		.align	2
 337              	.L30:
 338 0010 00000000 		.word	IntDefaultHandler
 339              		.cfi_endproc
 340              	.LFE4:
 341              		.size	TimerInterrupt_Stop, .-TimerInterrupt_Stop
 342              		.section	.text.TimerInterrupt_SetPending,"ax",%progbits
 343              		.align	2
 344              		.global	TimerInterrupt_SetPending
 345              		.code	16
 346              		.thumb_func
 347              		.type	TimerInterrupt_SetPending, %function
 348              	TimerInterrupt_SetPending:
 349              	.LFB13:
 351:.\Generated_Source\PSoC4/TimerInterrupt.c **** 
 352:.\Generated_Source\PSoC4/TimerInterrupt.c **** 
 353:.\Generated_Source\PSoC4/TimerInterrupt.c **** /*******************************************************************************
 354:.\Generated_Source\PSoC4/TimerInterrupt.c **** * Function Name: TimerInterrupt_SetPending
 355:.\Generated_Source\PSoC4/TimerInterrupt.c **** ********************************************************************************
 356:.\Generated_Source\PSoC4/TimerInterrupt.c **** *
 357:.\Generated_Source\PSoC4/TimerInterrupt.c **** * Summary:
 358:.\Generated_Source\PSoC4/TimerInterrupt.c **** *   Causes the Interrupt to enter the pending state, a software method of
 359:.\Generated_Source\PSoC4/TimerInterrupt.c **** *   generating the interrupt.
 360:.\Generated_Source\PSoC4/TimerInterrupt.c **** *
 361:.\Generated_Source\PSoC4/TimerInterrupt.c **** * Parameters:
 362:.\Generated_Source\PSoC4/TimerInterrupt.c **** *   None
 363:.\Generated_Source\PSoC4/TimerInterrupt.c **** *
 364:.\Generated_Source\PSoC4/TimerInterrupt.c **** * Return:
 365:.\Generated_Source\PSoC4/TimerInterrupt.c **** *   None
 366:.\Generated_Source\PSoC4/TimerInterrupt.c **** *
 367:.\Generated_Source\PSoC4/TimerInterrupt.c **** * Side Effects:
 368:.\Generated_Source\PSoC4/TimerInterrupt.c **** *   If interrupts are enabled and the interrupt is set up properly, the ISR is
 369:.\Generated_Source\PSoC4/TimerInterrupt.c **** *   entered (depending on the priority of this interrupt and other pending 
 370:.\Generated_Source\PSoC4/TimerInterrupt.c **** *   interrupts).
 371:.\Generated_Source\PSoC4/TimerInterrupt.c **** *
 372:.\Generated_Source\PSoC4/TimerInterrupt.c **** *******************************************************************************/
 373:.\Generated_Source\PSoC4/TimerInterrupt.c **** void TimerInterrupt_SetPending(void)
 374:.\Generated_Source\PSoC4/TimerInterrupt.c **** {
 350              		.loc 1 374 0
ARM GAS  C:\Users\Helon\AppData\Local\Temp\ccnsjCdd.s 			page 14


 351              		.cfi_startproc
 375:.\Generated_Source\PSoC4/TimerInterrupt.c ****     *TimerInterrupt_INTC_SET_PD = TimerInterrupt__INTC_MASK;
 352              		.loc 1 375 0
 353 0000 8022     		mov	r2, #128
 354 0002 9202     		lsl	r2, r2, #10
 355 0004 014B     		ldr	r3, .L33
 356 0006 1A60     		str	r2, [r3]
 376:.\Generated_Source\PSoC4/TimerInterrupt.c **** }
 357              		.loc 1 376 0
 358              		@ sp needed
 359 0008 7047     		bx	lr
 360              	.L34:
 361 000a C046     		.align	2
 362              	.L33:
 363 000c 00E200E0 		.word	-536813056
 364              		.cfi_endproc
 365              	.LFE13:
 366              		.size	TimerInterrupt_SetPending, .-TimerInterrupt_SetPending
 367              		.section	.text.TimerInterrupt_ClearPending,"ax",%progbits
 368              		.align	2
 369              		.global	TimerInterrupt_ClearPending
 370              		.code	16
 371              		.thumb_func
 372              		.type	TimerInterrupt_ClearPending, %function
 373              	TimerInterrupt_ClearPending:
 374              	.LFB14:
 377:.\Generated_Source\PSoC4/TimerInterrupt.c **** 
 378:.\Generated_Source\PSoC4/TimerInterrupt.c **** 
 379:.\Generated_Source\PSoC4/TimerInterrupt.c **** /*******************************************************************************
 380:.\Generated_Source\PSoC4/TimerInterrupt.c **** * Function Name: TimerInterrupt_ClearPending
 381:.\Generated_Source\PSoC4/TimerInterrupt.c **** ********************************************************************************
 382:.\Generated_Source\PSoC4/TimerInterrupt.c **** *
 383:.\Generated_Source\PSoC4/TimerInterrupt.c **** * Summary:
 384:.\Generated_Source\PSoC4/TimerInterrupt.c **** *   Clears a pending interrupt in the interrupt controller.
 385:.\Generated_Source\PSoC4/TimerInterrupt.c **** *
 386:.\Generated_Source\PSoC4/TimerInterrupt.c **** *   Note Some interrupt sources are clear-on-read and require the block 
 387:.\Generated_Source\PSoC4/TimerInterrupt.c **** *   interrupt/status register to be read/cleared with the appropriate block API 
 388:.\Generated_Source\PSoC4/TimerInterrupt.c **** *   (GPIO, UART, and so on). Otherwise the ISR will continue to remain in 
 389:.\Generated_Source\PSoC4/TimerInterrupt.c **** *   pending state even though the interrupt itself is cleared using this API.
 390:.\Generated_Source\PSoC4/TimerInterrupt.c **** *
 391:.\Generated_Source\PSoC4/TimerInterrupt.c **** * Parameters:
 392:.\Generated_Source\PSoC4/TimerInterrupt.c **** *   None
 393:.\Generated_Source\PSoC4/TimerInterrupt.c **** *
 394:.\Generated_Source\PSoC4/TimerInterrupt.c **** * Return:
 395:.\Generated_Source\PSoC4/TimerInterrupt.c **** *   None
 396:.\Generated_Source\PSoC4/TimerInterrupt.c **** *
 397:.\Generated_Source\PSoC4/TimerInterrupt.c **** *******************************************************************************/
 398:.\Generated_Source\PSoC4/TimerInterrupt.c **** void TimerInterrupt_ClearPending(void)
 399:.\Generated_Source\PSoC4/TimerInterrupt.c **** {
 375              		.loc 1 399 0
 376              		.cfi_startproc
 400:.\Generated_Source\PSoC4/TimerInterrupt.c ****     *TimerInterrupt_INTC_CLR_PD = TimerInterrupt__INTC_MASK;
 377              		.loc 1 400 0
 378 0000 8022     		mov	r2, #128
 379 0002 9202     		lsl	r2, r2, #10
 380 0004 014B     		ldr	r3, .L36
 381 0006 1A60     		str	r2, [r3]
ARM GAS  C:\Users\Helon\AppData\Local\Temp\ccnsjCdd.s 			page 15


 401:.\Generated_Source\PSoC4/TimerInterrupt.c **** }
 382              		.loc 1 401 0
 383              		@ sp needed
 384 0008 7047     		bx	lr
 385              	.L37:
 386 000a C046     		.align	2
 387              	.L36:
 388 000c 80E200E0 		.word	-536812928
 389              		.cfi_endproc
 390              	.LFE14:
 391              		.size	TimerInterrupt_ClearPending, .-TimerInterrupt_ClearPending
 392              		.text
 393              	.Letext0:
 394              		.file 2 "Generated_Source\\PSoC4/cytypes.h"
 395              		.file 3 "Generated_Source\\PSoC4/CyLib.h"