ARM GAS  C:\Users\Helon\AppData\Local\Temp\ccfRxaTo.s 			page 1


   1              		.cpu cortex-m0
   2              		.fpu softvfp
   3              		.eabi_attribute 20, 1
   4              		.eabi_attribute 21, 1
   5              		.eabi_attribute 23, 3
   6              		.eabi_attribute 24, 1
   7              		.eabi_attribute 25, 1
   8              		.eabi_attribute 26, 1
   9              		.eabi_attribute 30, 1
  10              		.eabi_attribute 34, 0
  11              		.eabi_attribute 18, 4
  12              		.code	16
  13              		.file	"UART_SPI.c"
  14              		.text
  15              	.Ltext0:
  16              		.cfi_sections	.debug_frame
  17              		.section	.text.UART_SpiPostEnable,"ax",%progbits
  18              		.align	2
  19              		.global	UART_SpiPostEnable
  20              		.code	16
  21              		.thumb_func
  22              		.type	UART_SpiPostEnable, %function
  23              	UART_SpiPostEnable:
  24              	.LFB3:
  25              		.file 1 ".\\Generated_Source\\PSoC4\\UART_SPI.c"
   1:.\Generated_Source\PSoC4/UART_SPI.c **** /*******************************************************************************
   2:.\Generated_Source\PSoC4/UART_SPI.c **** * File Name: UART_SPI.c
   3:.\Generated_Source\PSoC4/UART_SPI.c **** * Version 3.0
   4:.\Generated_Source\PSoC4/UART_SPI.c **** *
   5:.\Generated_Source\PSoC4/UART_SPI.c **** * Description:
   6:.\Generated_Source\PSoC4/UART_SPI.c **** *  This file provides the source code to the API for the SCB Component in
   7:.\Generated_Source\PSoC4/UART_SPI.c **** *  SPI mode.
   8:.\Generated_Source\PSoC4/UART_SPI.c **** *
   9:.\Generated_Source\PSoC4/UART_SPI.c **** * Note:
  10:.\Generated_Source\PSoC4/UART_SPI.c **** *
  11:.\Generated_Source\PSoC4/UART_SPI.c **** *******************************************************************************
  12:.\Generated_Source\PSoC4/UART_SPI.c **** * Copyright 2013-2015, Cypress Semiconductor Corporation.  All rights reserved.
  13:.\Generated_Source\PSoC4/UART_SPI.c **** * You may use this file only in accordance with the license, terms, conditions,
  14:.\Generated_Source\PSoC4/UART_SPI.c **** * disclaimers, and limitations in the end user license agreement accompanying
  15:.\Generated_Source\PSoC4/UART_SPI.c **** * the software package with which this file was provided.
  16:.\Generated_Source\PSoC4/UART_SPI.c **** *******************************************************************************/
  17:.\Generated_Source\PSoC4/UART_SPI.c **** 
  18:.\Generated_Source\PSoC4/UART_SPI.c **** #include "UART_PVT.h"
  19:.\Generated_Source\PSoC4/UART_SPI.c **** #include "UART_SPI_UART_PVT.h"
  20:.\Generated_Source\PSoC4/UART_SPI.c **** 
  21:.\Generated_Source\PSoC4/UART_SPI.c **** #if(UART_SCB_MODE_UNCONFIG_CONST_CFG)
  22:.\Generated_Source\PSoC4/UART_SPI.c **** 
  23:.\Generated_Source\PSoC4/UART_SPI.c ****     /***************************************
  24:.\Generated_Source\PSoC4/UART_SPI.c ****     *  Configuration Structure Initialization
  25:.\Generated_Source\PSoC4/UART_SPI.c ****     ***************************************/
  26:.\Generated_Source\PSoC4/UART_SPI.c **** 
  27:.\Generated_Source\PSoC4/UART_SPI.c ****     const UART_SPI_INIT_STRUCT UART_configSpi =
  28:.\Generated_Source\PSoC4/UART_SPI.c ****     {
  29:.\Generated_Source\PSoC4/UART_SPI.c ****         UART_SPI_MODE,
  30:.\Generated_Source\PSoC4/UART_SPI.c ****         UART_SPI_SUB_MODE,
  31:.\Generated_Source\PSoC4/UART_SPI.c ****         UART_SPI_CLOCK_MODE,
  32:.\Generated_Source\PSoC4/UART_SPI.c ****         UART_SPI_OVS_FACTOR,
ARM GAS  C:\Users\Helon\AppData\Local\Temp\ccfRxaTo.s 			page 2


  33:.\Generated_Source\PSoC4/UART_SPI.c ****         UART_SPI_MEDIAN_FILTER_ENABLE,
  34:.\Generated_Source\PSoC4/UART_SPI.c ****         UART_SPI_LATE_MISO_SAMPLE_ENABLE,
  35:.\Generated_Source\PSoC4/UART_SPI.c ****         UART_SPI_WAKE_ENABLE,
  36:.\Generated_Source\PSoC4/UART_SPI.c ****         UART_SPI_RX_DATA_BITS_NUM,
  37:.\Generated_Source\PSoC4/UART_SPI.c ****         UART_SPI_TX_DATA_BITS_NUM,
  38:.\Generated_Source\PSoC4/UART_SPI.c ****         UART_SPI_BITS_ORDER,
  39:.\Generated_Source\PSoC4/UART_SPI.c ****         UART_SPI_TRANSFER_SEPARATION,
  40:.\Generated_Source\PSoC4/UART_SPI.c ****         0u,
  41:.\Generated_Source\PSoC4/UART_SPI.c ****         NULL,
  42:.\Generated_Source\PSoC4/UART_SPI.c ****         0u,
  43:.\Generated_Source\PSoC4/UART_SPI.c ****         NULL,
  44:.\Generated_Source\PSoC4/UART_SPI.c ****         (uint32) UART_SCB_IRQ_INTERNAL,
  45:.\Generated_Source\PSoC4/UART_SPI.c ****         UART_SPI_INTR_RX_MASK,
  46:.\Generated_Source\PSoC4/UART_SPI.c ****         UART_SPI_RX_TRIGGER_LEVEL,
  47:.\Generated_Source\PSoC4/UART_SPI.c ****         UART_SPI_INTR_TX_MASK,
  48:.\Generated_Source\PSoC4/UART_SPI.c ****         UART_SPI_TX_TRIGGER_LEVEL,
  49:.\Generated_Source\PSoC4/UART_SPI.c ****         (uint8) UART_SPI_BYTE_MODE_ENABLE,
  50:.\Generated_Source\PSoC4/UART_SPI.c ****         (uint8) UART_SPI_FREE_RUN_SCLK_ENABLE,
  51:.\Generated_Source\PSoC4/UART_SPI.c ****         (uint8) UART_SPI_SS_POLARITY
  52:.\Generated_Source\PSoC4/UART_SPI.c ****     };
  53:.\Generated_Source\PSoC4/UART_SPI.c **** 
  54:.\Generated_Source\PSoC4/UART_SPI.c **** 
  55:.\Generated_Source\PSoC4/UART_SPI.c ****     /*******************************************************************************
  56:.\Generated_Source\PSoC4/UART_SPI.c ****     * Function Name: UART_SpiInit
  57:.\Generated_Source\PSoC4/UART_SPI.c ****     ********************************************************************************
  58:.\Generated_Source\PSoC4/UART_SPI.c ****     *
  59:.\Generated_Source\PSoC4/UART_SPI.c ****     * Summary:
  60:.\Generated_Source\PSoC4/UART_SPI.c ****     *  Configures the SCB for the SPI operation.
  61:.\Generated_Source\PSoC4/UART_SPI.c ****     *
  62:.\Generated_Source\PSoC4/UART_SPI.c ****     * Parameters:
  63:.\Generated_Source\PSoC4/UART_SPI.c ****     *  config:  Pointer to a structure that contains the following ordered list of
  64:.\Generated_Source\PSoC4/UART_SPI.c ****     *           fields. These fields match the selections available in the
  65:.\Generated_Source\PSoC4/UART_SPI.c ****     *           customizer.
  66:.\Generated_Source\PSoC4/UART_SPI.c ****     *
  67:.\Generated_Source\PSoC4/UART_SPI.c ****     * Return:
  68:.\Generated_Source\PSoC4/UART_SPI.c ****     *  None
  69:.\Generated_Source\PSoC4/UART_SPI.c ****     *
  70:.\Generated_Source\PSoC4/UART_SPI.c ****     *******************************************************************************/
  71:.\Generated_Source\PSoC4/UART_SPI.c ****     void UART_SpiInit(const UART_SPI_INIT_STRUCT *config)
  72:.\Generated_Source\PSoC4/UART_SPI.c ****     {
  73:.\Generated_Source\PSoC4/UART_SPI.c ****         if(NULL == config)
  74:.\Generated_Source\PSoC4/UART_SPI.c ****         {
  75:.\Generated_Source\PSoC4/UART_SPI.c ****             CYASSERT(0u != 0u); /* Halt execution due to bad function parameter */
  76:.\Generated_Source\PSoC4/UART_SPI.c ****         }
  77:.\Generated_Source\PSoC4/UART_SPI.c ****         else
  78:.\Generated_Source\PSoC4/UART_SPI.c ****         {
  79:.\Generated_Source\PSoC4/UART_SPI.c ****             /* Configure pins */
  80:.\Generated_Source\PSoC4/UART_SPI.c ****             UART_SetPins(UART_SCB_MODE_SPI, config->mode, UART_DUMMY_PARAM);
  81:.\Generated_Source\PSoC4/UART_SPI.c **** 
  82:.\Generated_Source\PSoC4/UART_SPI.c ****             /* Store internal configuration */
  83:.\Generated_Source\PSoC4/UART_SPI.c ****             UART_scbMode       = (uint8) UART_SCB_MODE_SPI;
  84:.\Generated_Source\PSoC4/UART_SPI.c ****             UART_scbEnableWake = (uint8) config->enableWake;
  85:.\Generated_Source\PSoC4/UART_SPI.c ****             UART_scbEnableIntr = (uint8) config->enableInterrupt;
  86:.\Generated_Source\PSoC4/UART_SPI.c **** 
  87:.\Generated_Source\PSoC4/UART_SPI.c ****             /* Set RX direction internal variables */
  88:.\Generated_Source\PSoC4/UART_SPI.c ****             UART_rxBuffer      =         config->rxBuffer;
  89:.\Generated_Source\PSoC4/UART_SPI.c ****             UART_rxDataBits    = (uint8) config->rxDataBits;
ARM GAS  C:\Users\Helon\AppData\Local\Temp\ccfRxaTo.s 			page 3


  90:.\Generated_Source\PSoC4/UART_SPI.c ****             UART_rxBufferSize  = (uint8) config->rxBufferSize;
  91:.\Generated_Source\PSoC4/UART_SPI.c **** 
  92:.\Generated_Source\PSoC4/UART_SPI.c ****             /* Set TX direction internal variables */
  93:.\Generated_Source\PSoC4/UART_SPI.c ****             UART_txBuffer      =         config->txBuffer;
  94:.\Generated_Source\PSoC4/UART_SPI.c ****             UART_txDataBits    = (uint8) config->txDataBits;
  95:.\Generated_Source\PSoC4/UART_SPI.c ****             UART_txBufferSize  = (uint8) config->txBufferSize;
  96:.\Generated_Source\PSoC4/UART_SPI.c **** 
  97:.\Generated_Source\PSoC4/UART_SPI.c ****             /* Configure SPI interface */
  98:.\Generated_Source\PSoC4/UART_SPI.c ****             UART_CTRL_REG     = UART_GET_CTRL_OVS(config->oversample)           |
  99:.\Generated_Source\PSoC4/UART_SPI.c ****                                             UART_GET_CTRL_BYTE_MODE(config->enableByteMode) |
 100:.\Generated_Source\PSoC4/UART_SPI.c ****                                             UART_GET_CTRL_EC_AM_MODE(config->enableWake)    |
 101:.\Generated_Source\PSoC4/UART_SPI.c ****                                             UART_CTRL_SPI;
 102:.\Generated_Source\PSoC4/UART_SPI.c **** 
 103:.\Generated_Source\PSoC4/UART_SPI.c ****             UART_SPI_CTRL_REG = UART_GET_SPI_CTRL_CONTINUOUS    (config->transferSeperation)  |
 104:.\Generated_Source\PSoC4/UART_SPI.c ****                                             UART_GET_SPI_CTRL_SELECT_PRECEDE(config->submode &
 105:.\Generated_Source\PSoC4/UART_SPI.c ****                                                                           UART_SPI_MODE_TI_PRECEDES
 106:.\Generated_Source\PSoC4/UART_SPI.c ****                                             UART_GET_SPI_CTRL_SCLK_MODE     (config->sclkMode)     
 107:.\Generated_Source\PSoC4/UART_SPI.c ****                                             UART_GET_SPI_CTRL_LATE_MISO_SAMPLE(config->enableLateSa
 108:.\Generated_Source\PSoC4/UART_SPI.c ****                                             UART_GET_SPI_CTRL_SCLK_CONTINUOUS(config->enableFreeRun
 109:.\Generated_Source\PSoC4/UART_SPI.c ****                                             UART_GET_SPI_CTRL_SSEL_POLARITY (config->polaritySs)   
 110:.\Generated_Source\PSoC4/UART_SPI.c ****                                             UART_GET_SPI_CTRL_SUB_MODE      (config->submode)      
 111:.\Generated_Source\PSoC4/UART_SPI.c ****                                             UART_GET_SPI_CTRL_MASTER_MODE   (config->mode);
 112:.\Generated_Source\PSoC4/UART_SPI.c **** 
 113:.\Generated_Source\PSoC4/UART_SPI.c ****             /* Configure RX direction */
 114:.\Generated_Source\PSoC4/UART_SPI.c ****             UART_RX_CTRL_REG     =  UART_GET_RX_CTRL_DATA_WIDTH(config->rxDataBits)         |
 115:.\Generated_Source\PSoC4/UART_SPI.c ****                                                 UART_GET_RX_CTRL_BIT_ORDER (config->bitOrder)      
 116:.\Generated_Source\PSoC4/UART_SPI.c ****                                                 UART_GET_RX_CTRL_MEDIAN    (config->enableMedianFil
 117:.\Generated_Source\PSoC4/UART_SPI.c ****                                                 UART_SPI_RX_CTRL;
 118:.\Generated_Source\PSoC4/UART_SPI.c **** 
 119:.\Generated_Source\PSoC4/UART_SPI.c ****             UART_RX_FIFO_CTRL_REG = UART_GET_RX_FIFO_CTRL_TRIGGER_LEVEL(config->rxTriggerLevel);
 120:.\Generated_Source\PSoC4/UART_SPI.c **** 
 121:.\Generated_Source\PSoC4/UART_SPI.c ****             /* Configure TX direction */
 122:.\Generated_Source\PSoC4/UART_SPI.c ****             UART_TX_CTRL_REG      = UART_GET_TX_CTRL_DATA_WIDTH(config->txDataBits) |
 123:.\Generated_Source\PSoC4/UART_SPI.c ****                                                 UART_GET_TX_CTRL_BIT_ORDER (config->bitOrder)   |
 124:.\Generated_Source\PSoC4/UART_SPI.c ****                                                 UART_SPI_TX_CTRL;
 125:.\Generated_Source\PSoC4/UART_SPI.c **** 
 126:.\Generated_Source\PSoC4/UART_SPI.c ****             UART_TX_FIFO_CTRL_REG = UART_GET_TX_FIFO_CTRL_TRIGGER_LEVEL(config->txTriggerLevel);
 127:.\Generated_Source\PSoC4/UART_SPI.c **** 
 128:.\Generated_Source\PSoC4/UART_SPI.c ****             /* Configure interrupt with SPI handler but do not enable it */
 129:.\Generated_Source\PSoC4/UART_SPI.c ****             CyIntDisable    (UART_ISR_NUMBER);
 130:.\Generated_Source\PSoC4/UART_SPI.c ****             CyIntSetPriority(UART_ISR_NUMBER, UART_ISR_PRIORITY);
 131:.\Generated_Source\PSoC4/UART_SPI.c ****             (void) CyIntSetVector(UART_ISR_NUMBER, &UART_SPI_UART_ISR);
 132:.\Generated_Source\PSoC4/UART_SPI.c **** 
 133:.\Generated_Source\PSoC4/UART_SPI.c ****             /* Configure interrupt sources */
 134:.\Generated_Source\PSoC4/UART_SPI.c ****             UART_INTR_I2C_EC_MASK_REG = UART_NO_INTR_SOURCES;
 135:.\Generated_Source\PSoC4/UART_SPI.c ****             UART_INTR_SPI_EC_MASK_REG = UART_NO_INTR_SOURCES;
 136:.\Generated_Source\PSoC4/UART_SPI.c ****             UART_INTR_SLAVE_MASK_REG  = UART_GET_SPI_INTR_SLAVE_MASK(config->rxInterruptMask);
 137:.\Generated_Source\PSoC4/UART_SPI.c ****             UART_INTR_MASTER_MASK_REG = UART_GET_SPI_INTR_MASTER_MASK(config->txInterruptMask);
 138:.\Generated_Source\PSoC4/UART_SPI.c ****             UART_INTR_RX_MASK_REG     = UART_GET_SPI_INTR_RX_MASK(config->rxInterruptMask);
 139:.\Generated_Source\PSoC4/UART_SPI.c ****             UART_INTR_TX_MASK_REG     = UART_GET_SPI_INTR_TX_MASK(config->txInterruptMask);
 140:.\Generated_Source\PSoC4/UART_SPI.c **** 
 141:.\Generated_Source\PSoC4/UART_SPI.c ****             /* Set active SS0 */
 142:.\Generated_Source\PSoC4/UART_SPI.c ****             UART_SpiSetActiveSlaveSelect(UART_SPI_SLAVE_SELECT0);
 143:.\Generated_Source\PSoC4/UART_SPI.c **** 
 144:.\Generated_Source\PSoC4/UART_SPI.c ****             /* Clear RX buffer indexes */
 145:.\Generated_Source\PSoC4/UART_SPI.c ****             UART_rxBufferHead     = 0u;
 146:.\Generated_Source\PSoC4/UART_SPI.c ****             UART_rxBufferTail     = 0u;
ARM GAS  C:\Users\Helon\AppData\Local\Temp\ccfRxaTo.s 			page 4


 147:.\Generated_Source\PSoC4/UART_SPI.c ****             UART_rxBufferOverflow = 0u;
 148:.\Generated_Source\PSoC4/UART_SPI.c **** 
 149:.\Generated_Source\PSoC4/UART_SPI.c ****             /* Clear TX buffer indexes */
 150:.\Generated_Source\PSoC4/UART_SPI.c ****             UART_txBufferHead = 0u;
 151:.\Generated_Source\PSoC4/UART_SPI.c ****             UART_txBufferTail = 0u;
 152:.\Generated_Source\PSoC4/UART_SPI.c ****         }
 153:.\Generated_Source\PSoC4/UART_SPI.c ****     }
 154:.\Generated_Source\PSoC4/UART_SPI.c **** 
 155:.\Generated_Source\PSoC4/UART_SPI.c **** #else
 156:.\Generated_Source\PSoC4/UART_SPI.c **** 
 157:.\Generated_Source\PSoC4/UART_SPI.c ****     /*******************************************************************************
 158:.\Generated_Source\PSoC4/UART_SPI.c ****     * Function Name: UART_SpiInit
 159:.\Generated_Source\PSoC4/UART_SPI.c ****     ********************************************************************************
 160:.\Generated_Source\PSoC4/UART_SPI.c ****     *
 161:.\Generated_Source\PSoC4/UART_SPI.c ****     * Summary:
 162:.\Generated_Source\PSoC4/UART_SPI.c ****     *  Configures the SCB for the SPI operation.
 163:.\Generated_Source\PSoC4/UART_SPI.c ****     *
 164:.\Generated_Source\PSoC4/UART_SPI.c ****     * Parameters:
 165:.\Generated_Source\PSoC4/UART_SPI.c ****     *  None
 166:.\Generated_Source\PSoC4/UART_SPI.c ****     *
 167:.\Generated_Source\PSoC4/UART_SPI.c ****     * Return:
 168:.\Generated_Source\PSoC4/UART_SPI.c ****     *  None
 169:.\Generated_Source\PSoC4/UART_SPI.c ****     *
 170:.\Generated_Source\PSoC4/UART_SPI.c ****     *******************************************************************************/
 171:.\Generated_Source\PSoC4/UART_SPI.c ****     void UART_SpiInit(void)
 172:.\Generated_Source\PSoC4/UART_SPI.c ****     {
 173:.\Generated_Source\PSoC4/UART_SPI.c ****         /* Configure SPI interface */
 174:.\Generated_Source\PSoC4/UART_SPI.c ****         UART_CTRL_REG     = UART_SPI_DEFAULT_CTRL;
 175:.\Generated_Source\PSoC4/UART_SPI.c ****         UART_SPI_CTRL_REG = UART_SPI_DEFAULT_SPI_CTRL;
 176:.\Generated_Source\PSoC4/UART_SPI.c **** 
 177:.\Generated_Source\PSoC4/UART_SPI.c ****         /* Configure TX and RX direction */
 178:.\Generated_Source\PSoC4/UART_SPI.c ****         UART_RX_CTRL_REG      = UART_SPI_DEFAULT_RX_CTRL;
 179:.\Generated_Source\PSoC4/UART_SPI.c ****         UART_RX_FIFO_CTRL_REG = UART_SPI_DEFAULT_RX_FIFO_CTRL;
 180:.\Generated_Source\PSoC4/UART_SPI.c **** 
 181:.\Generated_Source\PSoC4/UART_SPI.c ****         /* Configure TX and RX direction */
 182:.\Generated_Source\PSoC4/UART_SPI.c ****         UART_TX_CTRL_REG      = UART_SPI_DEFAULT_TX_CTRL;
 183:.\Generated_Source\PSoC4/UART_SPI.c ****         UART_TX_FIFO_CTRL_REG = UART_SPI_DEFAULT_TX_FIFO_CTRL;
 184:.\Generated_Source\PSoC4/UART_SPI.c **** 
 185:.\Generated_Source\PSoC4/UART_SPI.c ****         /* Configure interrupt with SPI handler but do not enable it */
 186:.\Generated_Source\PSoC4/UART_SPI.c ****     #if(UART_SCB_IRQ_INTERNAL)
 187:.\Generated_Source\PSoC4/UART_SPI.c ****             CyIntDisable    (UART_ISR_NUMBER);
 188:.\Generated_Source\PSoC4/UART_SPI.c ****             CyIntSetPriority(UART_ISR_NUMBER, UART_ISR_PRIORITY);
 189:.\Generated_Source\PSoC4/UART_SPI.c ****             (void) CyIntSetVector(UART_ISR_NUMBER, &UART_SPI_UART_ISR);
 190:.\Generated_Source\PSoC4/UART_SPI.c ****     #endif /* (UART_SCB_IRQ_INTERNAL) */
 191:.\Generated_Source\PSoC4/UART_SPI.c **** 
 192:.\Generated_Source\PSoC4/UART_SPI.c ****         /* Configure interrupt sources */
 193:.\Generated_Source\PSoC4/UART_SPI.c ****         UART_INTR_I2C_EC_MASK_REG = UART_SPI_DEFAULT_INTR_I2C_EC_MASK;
 194:.\Generated_Source\PSoC4/UART_SPI.c ****         UART_INTR_SPI_EC_MASK_REG = UART_SPI_DEFAULT_INTR_SPI_EC_MASK;
 195:.\Generated_Source\PSoC4/UART_SPI.c ****         UART_INTR_SLAVE_MASK_REG  = UART_SPI_DEFAULT_INTR_SLAVE_MASK;
 196:.\Generated_Source\PSoC4/UART_SPI.c ****         UART_INTR_MASTER_MASK_REG = UART_SPI_DEFAULT_INTR_MASTER_MASK;
 197:.\Generated_Source\PSoC4/UART_SPI.c ****         UART_INTR_RX_MASK_REG     = UART_SPI_DEFAULT_INTR_RX_MASK;
 198:.\Generated_Source\PSoC4/UART_SPI.c ****         UART_INTR_TX_MASK_REG     = UART_SPI_DEFAULT_INTR_TX_MASK;
 199:.\Generated_Source\PSoC4/UART_SPI.c **** 
 200:.\Generated_Source\PSoC4/UART_SPI.c ****         /* Set active SS0 for master */
 201:.\Generated_Source\PSoC4/UART_SPI.c ****     #if (UART_SPI_MASTER_CONST)
 202:.\Generated_Source\PSoC4/UART_SPI.c ****         UART_SpiSetActiveSlaveSelect(UART_SPI_SLAVE_SELECT0);
 203:.\Generated_Source\PSoC4/UART_SPI.c ****     #endif /* (UART_SPI_MASTER_CONST) */
ARM GAS  C:\Users\Helon\AppData\Local\Temp\ccfRxaTo.s 			page 5


 204:.\Generated_Source\PSoC4/UART_SPI.c **** 
 205:.\Generated_Source\PSoC4/UART_SPI.c ****     #if(UART_INTERNAL_RX_SW_BUFFER_CONST)
 206:.\Generated_Source\PSoC4/UART_SPI.c ****         UART_rxBufferHead     = 0u;
 207:.\Generated_Source\PSoC4/UART_SPI.c ****         UART_rxBufferTail     = 0u;
 208:.\Generated_Source\PSoC4/UART_SPI.c ****         UART_rxBufferOverflow = 0u;
 209:.\Generated_Source\PSoC4/UART_SPI.c ****     #endif /* (UART_INTERNAL_RX_SW_BUFFER_CONST) */
 210:.\Generated_Source\PSoC4/UART_SPI.c **** 
 211:.\Generated_Source\PSoC4/UART_SPI.c ****     #if(UART_INTERNAL_TX_SW_BUFFER_CONST)
 212:.\Generated_Source\PSoC4/UART_SPI.c ****         UART_txBufferHead = 0u;
 213:.\Generated_Source\PSoC4/UART_SPI.c ****         UART_txBufferTail = 0u;
 214:.\Generated_Source\PSoC4/UART_SPI.c ****     #endif /* (UART_INTERNAL_TX_SW_BUFFER_CONST) */
 215:.\Generated_Source\PSoC4/UART_SPI.c ****     }
 216:.\Generated_Source\PSoC4/UART_SPI.c **** #endif /* (UART_SCB_MODE_UNCONFIG_CONST_CFG) */
 217:.\Generated_Source\PSoC4/UART_SPI.c **** 
 218:.\Generated_Source\PSoC4/UART_SPI.c **** 
 219:.\Generated_Source\PSoC4/UART_SPI.c **** /*******************************************************************************
 220:.\Generated_Source\PSoC4/UART_SPI.c **** * Function Name: UART_SpiPostEnable
 221:.\Generated_Source\PSoC4/UART_SPI.c **** ********************************************************************************
 222:.\Generated_Source\PSoC4/UART_SPI.c **** *
 223:.\Generated_Source\PSoC4/UART_SPI.c **** * Summary:
 224:.\Generated_Source\PSoC4/UART_SPI.c **** *  Restores HSIOM settings for the SPI master output pins (SCLK and/or SS0-SS3) 
 225:.\Generated_Source\PSoC4/UART_SPI.c **** *  to be controlled by the SCB SPI.
 226:.\Generated_Source\PSoC4/UART_SPI.c **** *
 227:.\Generated_Source\PSoC4/UART_SPI.c **** * Parameters:
 228:.\Generated_Source\PSoC4/UART_SPI.c **** *  None
 229:.\Generated_Source\PSoC4/UART_SPI.c **** *
 230:.\Generated_Source\PSoC4/UART_SPI.c **** * Return:
 231:.\Generated_Source\PSoC4/UART_SPI.c **** *  None
 232:.\Generated_Source\PSoC4/UART_SPI.c **** *
 233:.\Generated_Source\PSoC4/UART_SPI.c **** *******************************************************************************/
 234:.\Generated_Source\PSoC4/UART_SPI.c **** void UART_SpiPostEnable(void)
 235:.\Generated_Source\PSoC4/UART_SPI.c **** {
  26              		.loc 1 235 0
  27              		.cfi_startproc
 236:.\Generated_Source\PSoC4/UART_SPI.c **** #if(UART_SCB_MODE_UNCONFIG_CONST_CFG)
 237:.\Generated_Source\PSoC4/UART_SPI.c **** 
 238:.\Generated_Source\PSoC4/UART_SPI.c ****     if (UART_CHECK_SPI_MASTER)
  28              		.loc 1 238 0
  29 0000 014B     		ldr	r3, .L2
  30 0002 1B68     		ldr	r3, [r3]
 239:.\Generated_Source\PSoC4/UART_SPI.c ****     {
 240:.\Generated_Source\PSoC4/UART_SPI.c ****     #if (UART_CTS_SCLK_PIN)
 241:.\Generated_Source\PSoC4/UART_SPI.c ****         /* Set SCB SPI to drive output pin */
 242:.\Generated_Source\PSoC4/UART_SPI.c ****         UART_SET_HSIOM_SEL(UART_CTS_SCLK_HSIOM_REG, UART_CTS_SCLK_HSIOM_MASK,
 243:.\Generated_Source\PSoC4/UART_SPI.c ****                                        UART_CTS_SCLK_HSIOM_POS, UART_HSIOM_SPI_SEL);
 244:.\Generated_Source\PSoC4/UART_SPI.c ****     #endif /* (UART_CTS_SCLK_PIN) */
 245:.\Generated_Source\PSoC4/UART_SPI.c **** 
 246:.\Generated_Source\PSoC4/UART_SPI.c ****     #if (UART_RTS_SS0_PIN)
 247:.\Generated_Source\PSoC4/UART_SPI.c ****         /* Set SCB SPI to drive output pin */
 248:.\Generated_Source\PSoC4/UART_SPI.c ****         UART_SET_HSIOM_SEL(UART_RTS_SS0_HSIOM_REG, UART_RTS_SS0_HSIOM_MASK,
 249:.\Generated_Source\PSoC4/UART_SPI.c ****                                        UART_RTS_SS0_HSIOM_POS, UART_HSIOM_SPI_SEL);
 250:.\Generated_Source\PSoC4/UART_SPI.c ****     #endif /* (UART_RTS_SS0_PIN) */
 251:.\Generated_Source\PSoC4/UART_SPI.c **** 
 252:.\Generated_Source\PSoC4/UART_SPI.c ****     #if (UART_SS1_PIN)
 253:.\Generated_Source\PSoC4/UART_SPI.c ****         /* Set SCB SPI to drive output pin */
 254:.\Generated_Source\PSoC4/UART_SPI.c ****         UART_SET_HSIOM_SEL(UART_SS1_HSIOM_REG, UART_SS1_HSIOM_MASK,
 255:.\Generated_Source\PSoC4/UART_SPI.c ****                                        UART_SS1_HSIOM_POS, UART_HSIOM_SPI_SEL);
ARM GAS  C:\Users\Helon\AppData\Local\Temp\ccfRxaTo.s 			page 6


 256:.\Generated_Source\PSoC4/UART_SPI.c ****     #endif /* (UART_SS1_PIN) */
 257:.\Generated_Source\PSoC4/UART_SPI.c **** 
 258:.\Generated_Source\PSoC4/UART_SPI.c ****     #if (UART_SS2_PIN)
 259:.\Generated_Source\PSoC4/UART_SPI.c ****         /* Set SCB SPI to drive output pin */
 260:.\Generated_Source\PSoC4/UART_SPI.c ****         UART_SET_HSIOM_SEL(UART_SS2_HSIOM_REG, UART_SS2_HSIOM_MASK,
 261:.\Generated_Source\PSoC4/UART_SPI.c ****                                        UART_SS2_HSIOM_POS, UART_HSIOM_SPI_SEL);
 262:.\Generated_Source\PSoC4/UART_SPI.c ****     #endif /* (UART_SS2_PIN) */
 263:.\Generated_Source\PSoC4/UART_SPI.c **** 
 264:.\Generated_Source\PSoC4/UART_SPI.c ****     #if (UART_SS3_PIN)
 265:.\Generated_Source\PSoC4/UART_SPI.c ****         /* Set SCB SPI to drive output pin */
 266:.\Generated_Source\PSoC4/UART_SPI.c ****         UART_SET_HSIOM_SEL(UART_SS3_HSIOM_REG, UART_SS3_HSIOM_MASK,
 267:.\Generated_Source\PSoC4/UART_SPI.c ****                                        UART_SS3_HSIOM_POS, UART_HSIOM_SPI_SEL);
 268:.\Generated_Source\PSoC4/UART_SPI.c ****     #endif /* (UART_SS3_PIN) */
 269:.\Generated_Source\PSoC4/UART_SPI.c ****     }
 270:.\Generated_Source\PSoC4/UART_SPI.c **** 
 271:.\Generated_Source\PSoC4/UART_SPI.c **** #else
 272:.\Generated_Source\PSoC4/UART_SPI.c **** 
 273:.\Generated_Source\PSoC4/UART_SPI.c **** #if (UART_SPI_MASTER_SCLK_PIN)
 274:.\Generated_Source\PSoC4/UART_SPI.c ****     /* Set SCB SPI to drive output pin */
 275:.\Generated_Source\PSoC4/UART_SPI.c ****     UART_SET_HSIOM_SEL(UART_SCLK_M_HSIOM_REG, UART_SCLK_M_HSIOM_MASK,
 276:.\Generated_Source\PSoC4/UART_SPI.c ****                                    UART_SCLK_M_HSIOM_POS, UART_HSIOM_SPI_SEL);
 277:.\Generated_Source\PSoC4/UART_SPI.c **** #endif /* (UART_MISO_SDA_TX_PIN_PIN) */
 278:.\Generated_Source\PSoC4/UART_SPI.c **** 
 279:.\Generated_Source\PSoC4/UART_SPI.c **** #if (UART_SPI_MASTER_SS0_PIN)
 280:.\Generated_Source\PSoC4/UART_SPI.c ****     /* Set SCB SPI to drive output pin */
 281:.\Generated_Source\PSoC4/UART_SPI.c ****     UART_SET_HSIOM_SEL(UART_SS0_M_HSIOM_REG, UART_SS0_M_HSIOM_MASK,
 282:.\Generated_Source\PSoC4/UART_SPI.c ****                                    UART_SS0_M_HSIOM_POS, UART_HSIOM_SPI_SEL);
 283:.\Generated_Source\PSoC4/UART_SPI.c **** #endif /* (UART_SPI_MASTER_SS0_PIN) */
 284:.\Generated_Source\PSoC4/UART_SPI.c **** 
 285:.\Generated_Source\PSoC4/UART_SPI.c **** #if (UART_SPI_MASTER_SS1_PIN)
 286:.\Generated_Source\PSoC4/UART_SPI.c ****     /* Set SCB SPI to drive output pin */
 287:.\Generated_Source\PSoC4/UART_SPI.c ****     UART_SET_HSIOM_SEL(UART_SS1_M_HSIOM_REG, UART_SS1_M_HSIOM_MASK,
 288:.\Generated_Source\PSoC4/UART_SPI.c ****                                    UART_SS1_M_HSIOM_POS, UART_HSIOM_SPI_SEL);
 289:.\Generated_Source\PSoC4/UART_SPI.c **** #endif /* (UART_SPI_MASTER_SS1_PIN) */
 290:.\Generated_Source\PSoC4/UART_SPI.c **** 
 291:.\Generated_Source\PSoC4/UART_SPI.c **** #if (UART_SPI_MASTER_SS2_PIN)
 292:.\Generated_Source\PSoC4/UART_SPI.c ****     /* Set SCB SPI to drive output pin */
 293:.\Generated_Source\PSoC4/UART_SPI.c ****     UART_SET_HSIOM_SEL(UART_SS2_M_HSIOM_REG, UART_SS2_M_HSIOM_MASK,
 294:.\Generated_Source\PSoC4/UART_SPI.c ****                                    UART_SS2_M_HSIOM_POS, UART_HSIOM_SPI_SEL);
 295:.\Generated_Source\PSoC4/UART_SPI.c **** #endif /* (UART_SPI_MASTER_SS2_PIN) */
 296:.\Generated_Source\PSoC4/UART_SPI.c **** 
 297:.\Generated_Source\PSoC4/UART_SPI.c **** #if (UART_SPI_MASTER_SS3_PIN)
 298:.\Generated_Source\PSoC4/UART_SPI.c ****     /* Set SCB SPI to drive output pin */
 299:.\Generated_Source\PSoC4/UART_SPI.c ****     UART_SET_HSIOM_SEL(UART_SS3_M_HSIOM_REG, UART_SS3_M_HSIOM_MASK,
 300:.\Generated_Source\PSoC4/UART_SPI.c ****                                    UART_SS3_M_HSIOM_POS, UART_HSIOM_SPI_SEL);
 301:.\Generated_Source\PSoC4/UART_SPI.c **** #endif /* (UART_SPI_MASTER_SS3_PIN) */
 302:.\Generated_Source\PSoC4/UART_SPI.c **** 
 303:.\Generated_Source\PSoC4/UART_SPI.c **** #endif /* (UART_SCB_MODE_UNCONFIG_CONST_CFG) */
 304:.\Generated_Source\PSoC4/UART_SPI.c **** }
  31              		.loc 1 304 0
  32              		@ sp needed
  33 0004 7047     		bx	lr
  34              	.L3:
  35 0006 C046     		.align	2
  36              	.L2:
  37 0008 20002440 		.word	1076101152
  38              		.cfi_endproc
ARM GAS  C:\Users\Helon\AppData\Local\Temp\ccfRxaTo.s 			page 7


  39              	.LFE3:
  40              		.size	UART_SpiPostEnable, .-UART_SpiPostEnable
  41              		.section	.text.UART_SpiStop,"ax",%progbits
  42              		.align	2
  43              		.global	UART_SpiStop
  44              		.code	16
  45              		.thumb_func
  46              		.type	UART_SpiStop, %function
  47              	UART_SpiStop:
  48              	.LFB4:
 305:.\Generated_Source\PSoC4/UART_SPI.c **** 
 306:.\Generated_Source\PSoC4/UART_SPI.c **** 
 307:.\Generated_Source\PSoC4/UART_SPI.c **** /*******************************************************************************
 308:.\Generated_Source\PSoC4/UART_SPI.c **** * Function Name: UART_SpiStop
 309:.\Generated_Source\PSoC4/UART_SPI.c **** ********************************************************************************
 310:.\Generated_Source\PSoC4/UART_SPI.c **** *
 311:.\Generated_Source\PSoC4/UART_SPI.c **** * Summary:
 312:.\Generated_Source\PSoC4/UART_SPI.c **** *  Changes the HSIOM settings for the SPI master output pins (SCLK and/or SS0-SS3) to
 313:.\Generated_Source\PSoC4/UART_SPI.c **** *  keep them inactive after the block is disabled. The output pins are
 314:.\Generated_Source\PSoC4/UART_SPI.c **** *  controlled by the GPIO data register.
 315:.\Generated_Source\PSoC4/UART_SPI.c **** *
 316:.\Generated_Source\PSoC4/UART_SPI.c **** * Parameters:
 317:.\Generated_Source\PSoC4/UART_SPI.c **** *  None
 318:.\Generated_Source\PSoC4/UART_SPI.c **** *
 319:.\Generated_Source\PSoC4/UART_SPI.c **** * Return:
 320:.\Generated_Source\PSoC4/UART_SPI.c **** *  None
 321:.\Generated_Source\PSoC4/UART_SPI.c **** *
 322:.\Generated_Source\PSoC4/UART_SPI.c **** *******************************************************************************/
 323:.\Generated_Source\PSoC4/UART_SPI.c **** void UART_SpiStop(void)
 324:.\Generated_Source\PSoC4/UART_SPI.c **** {
  49              		.loc 1 324 0
  50              		.cfi_startproc
 325:.\Generated_Source\PSoC4/UART_SPI.c **** #if(UART_SCB_MODE_UNCONFIG_CONST_CFG)
 326:.\Generated_Source\PSoC4/UART_SPI.c **** 
 327:.\Generated_Source\PSoC4/UART_SPI.c ****     if (UART_CHECK_SPI_MASTER)
  51              		.loc 1 327 0
  52 0000 014B     		ldr	r3, .L5
  53 0002 1B68     		ldr	r3, [r3]
 328:.\Generated_Source\PSoC4/UART_SPI.c ****     {
 329:.\Generated_Source\PSoC4/UART_SPI.c ****     #if (UART_SCLK_PIN)
 330:.\Generated_Source\PSoC4/UART_SPI.c ****         /* Set output pin state after block is disabled */
 331:.\Generated_Source\PSoC4/UART_SPI.c ****         UART_uart_cts_spi_sclk_Write(UART_GET_SPI_SCLK_INACTIVE);
 332:.\Generated_Source\PSoC4/UART_SPI.c **** 
 333:.\Generated_Source\PSoC4/UART_SPI.c ****         /* Set GPIO to drive output pin */
 334:.\Generated_Source\PSoC4/UART_SPI.c ****         UART_SET_HSIOM_SEL(UART_SCLK_HSIOM_REG, UART_SCLK_HSIOM_MASK,
 335:.\Generated_Source\PSoC4/UART_SPI.c ****                                        UART_SCLK_HSIOM_POS, UART_HSIOM_GPIO_SEL);
 336:.\Generated_Source\PSoC4/UART_SPI.c ****     #endif /* (UART_MISO_SDA_TX_PIN_PIN) */
 337:.\Generated_Source\PSoC4/UART_SPI.c **** 
 338:.\Generated_Source\PSoC4/UART_SPI.c ****     #if (UART_SS0_PIN)
 339:.\Generated_Source\PSoC4/UART_SPI.c ****         /* Set output pin state after block is disabled */
 340:.\Generated_Source\PSoC4/UART_SPI.c ****         UART_uart_rts_spi_ss0_Write(UART_GET_SPI_SS0_INACTIVE);
 341:.\Generated_Source\PSoC4/UART_SPI.c **** 
 342:.\Generated_Source\PSoC4/UART_SPI.c ****         /* Set GPIO to drive output pin */
 343:.\Generated_Source\PSoC4/UART_SPI.c ****         UART_SET_HSIOM_SEL(UART_SS0_HSIOM_REG, UART_SS0_HSIOM_MASK,
 344:.\Generated_Source\PSoC4/UART_SPI.c ****                                        UART_SS0_HSIOM_POS, UART_HSIOM_GPIO_SEL);
 345:.\Generated_Source\PSoC4/UART_SPI.c ****     #endif /* (UART_SS0_PIN) */
 346:.\Generated_Source\PSoC4/UART_SPI.c **** 
ARM GAS  C:\Users\Helon\AppData\Local\Temp\ccfRxaTo.s 			page 8


 347:.\Generated_Source\PSoC4/UART_SPI.c ****     #if (UART_SS1_PIN)
 348:.\Generated_Source\PSoC4/UART_SPI.c ****         /* Set output pin state after block is disabled */
 349:.\Generated_Source\PSoC4/UART_SPI.c ****         UART_spi_ss1_Write(UART_GET_SPI_SS1_INACTIVE);
 350:.\Generated_Source\PSoC4/UART_SPI.c **** 
 351:.\Generated_Source\PSoC4/UART_SPI.c ****         /* Set GPIO to drive output pin */
 352:.\Generated_Source\PSoC4/UART_SPI.c ****         UART_SET_HSIOM_SEL(UART_SS1_HSIOM_REG, UART_SS1_HSIOM_MASK,
 353:.\Generated_Source\PSoC4/UART_SPI.c ****                                        UART_SS1_HSIOM_POS, UART_HSIOM_GPIO_SEL);
 354:.\Generated_Source\PSoC4/UART_SPI.c ****     #endif /* (UART_SS1_PIN) */
 355:.\Generated_Source\PSoC4/UART_SPI.c **** 
 356:.\Generated_Source\PSoC4/UART_SPI.c ****     #if (UART_SS2_PIN)
 357:.\Generated_Source\PSoC4/UART_SPI.c ****         /* Set output pin state after block is disabled */
 358:.\Generated_Source\PSoC4/UART_SPI.c ****         UART_spi_ss2_Write(UART_GET_SPI_SS2_INACTIVE);
 359:.\Generated_Source\PSoC4/UART_SPI.c **** 
 360:.\Generated_Source\PSoC4/UART_SPI.c ****         /* Set GPIO to drive output pin */
 361:.\Generated_Source\PSoC4/UART_SPI.c ****         UART_SET_HSIOM_SEL(UART_SS2_HSIOM_REG, UART_SS2_HSIOM_MASK,
 362:.\Generated_Source\PSoC4/UART_SPI.c ****                                        UART_SS2_HSIOM_POS, UART_HSIOM_GPIO_SEL);
 363:.\Generated_Source\PSoC4/UART_SPI.c ****     #endif /* (UART_SS2_PIN) */
 364:.\Generated_Source\PSoC4/UART_SPI.c **** 
 365:.\Generated_Source\PSoC4/UART_SPI.c ****     #if (UART_SS3_PIN)
 366:.\Generated_Source\PSoC4/UART_SPI.c ****         /* Set output pin state after block is disabled */
 367:.\Generated_Source\PSoC4/UART_SPI.c ****         UART_spi_ss3_Write(UART_GET_SPI_SS3_INACTIVE);
 368:.\Generated_Source\PSoC4/UART_SPI.c **** 
 369:.\Generated_Source\PSoC4/UART_SPI.c ****         /* Set GPIO to drive output pin */
 370:.\Generated_Source\PSoC4/UART_SPI.c ****         UART_SET_HSIOM_SEL(UART_SS3_HSIOM_REG, UART_SS3_HSIOM_MASK,
 371:.\Generated_Source\PSoC4/UART_SPI.c ****                                        UART_SS3_HSIOM_POS, UART_HSIOM_GPIO_SEL);
 372:.\Generated_Source\PSoC4/UART_SPI.c ****     #endif /* (UART_SS3_PIN) */
 373:.\Generated_Source\PSoC4/UART_SPI.c ****     }
 374:.\Generated_Source\PSoC4/UART_SPI.c **** 
 375:.\Generated_Source\PSoC4/UART_SPI.c **** #else
 376:.\Generated_Source\PSoC4/UART_SPI.c **** 
 377:.\Generated_Source\PSoC4/UART_SPI.c **** #if (UART_SPI_MASTER_SCLK_PIN)
 378:.\Generated_Source\PSoC4/UART_SPI.c ****     /* Set output pin state after block is disabled */
 379:.\Generated_Source\PSoC4/UART_SPI.c ****     UART_sclk_m_Write(UART_GET_SPI_SCLK_INACTIVE);
 380:.\Generated_Source\PSoC4/UART_SPI.c **** 
 381:.\Generated_Source\PSoC4/UART_SPI.c ****     /* Set GPIO to drive output pin */
 382:.\Generated_Source\PSoC4/UART_SPI.c ****     UART_SET_HSIOM_SEL(UART_SCLK_M_HSIOM_REG, UART_SCLK_M_HSIOM_MASK,
 383:.\Generated_Source\PSoC4/UART_SPI.c ****                                    UART_SCLK_M_HSIOM_POS, UART_HSIOM_GPIO_SEL);
 384:.\Generated_Source\PSoC4/UART_SPI.c **** #endif /* (UART_MISO_SDA_TX_PIN_PIN) */
 385:.\Generated_Source\PSoC4/UART_SPI.c **** 
 386:.\Generated_Source\PSoC4/UART_SPI.c **** #if (UART_SPI_MASTER_SS0_PIN)
 387:.\Generated_Source\PSoC4/UART_SPI.c ****     /* Set output pin state after block is disabled */
 388:.\Generated_Source\PSoC4/UART_SPI.c ****     UART_ss0_m_Write(UART_GET_SPI_SS0_INACTIVE);
 389:.\Generated_Source\PSoC4/UART_SPI.c **** 
 390:.\Generated_Source\PSoC4/UART_SPI.c ****     /* Set GPIO to drive output pin */
 391:.\Generated_Source\PSoC4/UART_SPI.c ****     UART_SET_HSIOM_SEL(UART_SS0_M_HSIOM_REG, UART_SS0_M_HSIOM_MASK,
 392:.\Generated_Source\PSoC4/UART_SPI.c ****                                    UART_SS0_M_HSIOM_POS, UART_HSIOM_GPIO_SEL);
 393:.\Generated_Source\PSoC4/UART_SPI.c **** #endif /* (UART_SPI_MASTER_SS0_PIN) */
 394:.\Generated_Source\PSoC4/UART_SPI.c **** 
 395:.\Generated_Source\PSoC4/UART_SPI.c **** #if (UART_SPI_MASTER_SS1_PIN)
 396:.\Generated_Source\PSoC4/UART_SPI.c ****     /* Set output pin state after block is disabled */
 397:.\Generated_Source\PSoC4/UART_SPI.c ****     UART_ss1_m_Write(UART_GET_SPI_SS1_INACTIVE);
 398:.\Generated_Source\PSoC4/UART_SPI.c **** 
 399:.\Generated_Source\PSoC4/UART_SPI.c ****     /* Set GPIO to drive output pin */
 400:.\Generated_Source\PSoC4/UART_SPI.c ****     UART_SET_HSIOM_SEL(UART_SS1_M_HSIOM_REG, UART_SS1_M_HSIOM_MASK,
 401:.\Generated_Source\PSoC4/UART_SPI.c ****                                    UART_SS1_M_HSIOM_POS, UART_HSIOM_GPIO_SEL);
 402:.\Generated_Source\PSoC4/UART_SPI.c **** #endif /* (UART_SPI_MASTER_SS1_PIN) */
 403:.\Generated_Source\PSoC4/UART_SPI.c **** 
ARM GAS  C:\Users\Helon\AppData\Local\Temp\ccfRxaTo.s 			page 9


 404:.\Generated_Source\PSoC4/UART_SPI.c **** #if (UART_SPI_MASTER_SS2_PIN)
 405:.\Generated_Source\PSoC4/UART_SPI.c ****     /* Set output pin state after block is disabled */
 406:.\Generated_Source\PSoC4/UART_SPI.c ****     UART_ss2_m_Write(UART_GET_SPI_SS2_INACTIVE);
 407:.\Generated_Source\PSoC4/UART_SPI.c **** 
 408:.\Generated_Source\PSoC4/UART_SPI.c ****     /* Set GPIO to drive output pin */
 409:.\Generated_Source\PSoC4/UART_SPI.c ****     UART_SET_HSIOM_SEL(UART_SS2_M_HSIOM_REG, UART_SS2_M_HSIOM_MASK,
 410:.\Generated_Source\PSoC4/UART_SPI.c ****                                    UART_SS2_M_HSIOM_POS, UART_HSIOM_GPIO_SEL);
 411:.\Generated_Source\PSoC4/UART_SPI.c **** #endif /* (UART_SPI_MASTER_SS2_PIN) */
 412:.\Generated_Source\PSoC4/UART_SPI.c **** 
 413:.\Generated_Source\PSoC4/UART_SPI.c **** #if (UART_SPI_MASTER_SS3_PIN)
 414:.\Generated_Source\PSoC4/UART_SPI.c ****     /* Set output pin state after block is disabled */
 415:.\Generated_Source\PSoC4/UART_SPI.c ****     UART_ss3_m_Write(UART_GET_SPI_SS3_INACTIVE);
 416:.\Generated_Source\PSoC4/UART_SPI.c **** 
 417:.\Generated_Source\PSoC4/UART_SPI.c ****     /* Set GPIO to drive output pin */
 418:.\Generated_Source\PSoC4/UART_SPI.c ****     UART_SET_HSIOM_SEL(UART_SS3_M_HSIOM_REG, UART_SS3_M_HSIOM_MASK,
 419:.\Generated_Source\PSoC4/UART_SPI.c ****                                    UART_SS3_M_HSIOM_POS, UART_HSIOM_GPIO_SEL);
 420:.\Generated_Source\PSoC4/UART_SPI.c **** #endif /* (UART_SPI_MASTER_SS3_PIN) */
 421:.\Generated_Source\PSoC4/UART_SPI.c **** 
 422:.\Generated_Source\PSoC4/UART_SPI.c **** #endif /* (UART_SCB_MODE_UNCONFIG_CONST_CFG) */
 423:.\Generated_Source\PSoC4/UART_SPI.c **** }
  54              		.loc 1 423 0
  55              		@ sp needed
  56 0004 7047     		bx	lr
  57              	.L6:
  58 0006 C046     		.align	2
  59              	.L5:
  60 0008 20002440 		.word	1076101152
  61              		.cfi_endproc
  62              	.LFE4:
  63              		.size	UART_SpiStop, .-UART_SpiStop
  64              		.section	.text.UART_SpiSetActiveSlaveSelect,"ax",%progbits
  65              		.align	2
  66              		.global	UART_SpiSetActiveSlaveSelect
  67              		.code	16
  68              		.thumb_func
  69              		.type	UART_SpiSetActiveSlaveSelect, %function
  70              	UART_SpiSetActiveSlaveSelect:
  71              	.LFB5:
 424:.\Generated_Source\PSoC4/UART_SPI.c **** 
 425:.\Generated_Source\PSoC4/UART_SPI.c **** 
 426:.\Generated_Source\PSoC4/UART_SPI.c **** #if (UART_SPI_MASTER_CONST)
 427:.\Generated_Source\PSoC4/UART_SPI.c ****     /*******************************************************************************
 428:.\Generated_Source\PSoC4/UART_SPI.c ****     * Function Name: UART_SetActiveSlaveSelect
 429:.\Generated_Source\PSoC4/UART_SPI.c ****     ********************************************************************************
 430:.\Generated_Source\PSoC4/UART_SPI.c ****     *
 431:.\Generated_Source\PSoC4/UART_SPI.c ****     * Summary:
 432:.\Generated_Source\PSoC4/UART_SPI.c ****     *  Selects one of the four slave select lines to be active during the transfer.
 433:.\Generated_Source\PSoC4/UART_SPI.c ****     *  After initialization the active slave select line is 0.
 434:.\Generated_Source\PSoC4/UART_SPI.c ****     *  The component should be in one of the following states to change the active
 435:.\Generated_Source\PSoC4/UART_SPI.c ****     *  slave select signal source correctly:
 436:.\Generated_Source\PSoC4/UART_SPI.c ****     *   - The component is disabled
 437:.\Generated_Source\PSoC4/UART_SPI.c ****     *   - The component has completed transfer (TX FIFO is empty and the
 438:.\Generated_Source\PSoC4/UART_SPI.c ****     *     SCB_INTR_MASTER_SPI_DONE status is set)
 439:.\Generated_Source\PSoC4/UART_SPI.c ****     *  This function does not check that these conditions are met.
 440:.\Generated_Source\PSoC4/UART_SPI.c ****     *  This function is only applicable to SPI Master mode of operation.
 441:.\Generated_Source\PSoC4/UART_SPI.c ****     *
 442:.\Generated_Source\PSoC4/UART_SPI.c ****     * Parameters:
ARM GAS  C:\Users\Helon\AppData\Local\Temp\ccfRxaTo.s 			page 10


 443:.\Generated_Source\PSoC4/UART_SPI.c ****     *  slaveSelect: slave select line which will be active while the following
 444:.\Generated_Source\PSoC4/UART_SPI.c ****     *               transfer.
 445:.\Generated_Source\PSoC4/UART_SPI.c ****     *   UART_SPI_SLAVE_SELECT0 - Slave select 0
 446:.\Generated_Source\PSoC4/UART_SPI.c ****     *   UART_SPI_SLAVE_SELECT1 - Slave select 1
 447:.\Generated_Source\PSoC4/UART_SPI.c ****     *   UART_SPI_SLAVE_SELECT2 - Slave select 2
 448:.\Generated_Source\PSoC4/UART_SPI.c ****     *   UART_SPI_SLAVE_SELECT3 - Slave select 3
 449:.\Generated_Source\PSoC4/UART_SPI.c ****     *
 450:.\Generated_Source\PSoC4/UART_SPI.c ****     * Return:
 451:.\Generated_Source\PSoC4/UART_SPI.c ****     *  None
 452:.\Generated_Source\PSoC4/UART_SPI.c ****     *
 453:.\Generated_Source\PSoC4/UART_SPI.c ****     *******************************************************************************/
 454:.\Generated_Source\PSoC4/UART_SPI.c ****     void UART_SpiSetActiveSlaveSelect(uint32 slaveSelect)
 455:.\Generated_Source\PSoC4/UART_SPI.c ****     {
  72              		.loc 1 455 0
  73              		.cfi_startproc
  74              	.LVL0:
 456:.\Generated_Source\PSoC4/UART_SPI.c ****         uint32 spiCtrl;
 457:.\Generated_Source\PSoC4/UART_SPI.c **** 
 458:.\Generated_Source\PSoC4/UART_SPI.c ****         spiCtrl = UART_SPI_CTRL_REG;
  75              		.loc 1 458 0
  76 0000 0549     		ldr	r1, .L8
  77 0002 0A68     		ldr	r2, [r1]
  78              	.LVL1:
 459:.\Generated_Source\PSoC4/UART_SPI.c **** 
 460:.\Generated_Source\PSoC4/UART_SPI.c ****         spiCtrl &= (uint32) ~UART_SPI_CTRL_SLAVE_SELECT_MASK;
  79              		.loc 1 460 0
  80 0004 054B     		ldr	r3, .L8+4
  81 0006 1340     		and	r3, r2
  82              	.LVL2:
 461:.\Generated_Source\PSoC4/UART_SPI.c ****         spiCtrl |= (uint32)  UART_GET_SPI_CTRL_SS(slaveSelect);
  83              		.loc 1 461 0
  84 0008 8006     		lsl	r0, r0, #26
  85              	.LVL3:
  86 000a C022     		mov	r2, #192
  87 000c 1205     		lsl	r2, r2, #20
  88 000e 1040     		and	r0, r2
  89 0010 1843     		orr	r0, r3
  90              	.LVL4:
 462:.\Generated_Source\PSoC4/UART_SPI.c **** 
 463:.\Generated_Source\PSoC4/UART_SPI.c ****         UART_SPI_CTRL_REG = spiCtrl;
  91              		.loc 1 463 0
  92 0012 0860     		str	r0, [r1]
 464:.\Generated_Source\PSoC4/UART_SPI.c ****     }
  93              		.loc 1 464 0
  94              		@ sp needed
  95 0014 7047     		bx	lr
  96              	.L9:
  97 0016 C046     		.align	2
  98              	.L8:
  99 0018 20002440 		.word	1076101152
 100 001c FFFFFFF3 		.word	-201326593
 101              		.cfi_endproc
 102              	.LFE5:
 103              		.size	UART_SpiSetActiveSlaveSelect, .-UART_SpiSetActiveSlaveSelect
 104              		.section	.text.UART_SpiInit,"ax",%progbits
 105              		.align	2
 106              		.global	UART_SpiInit
ARM GAS  C:\Users\Helon\AppData\Local\Temp\ccfRxaTo.s 			page 11


 107              		.code	16
 108              		.thumb_func
 109              		.type	UART_SpiInit, %function
 110              	UART_SpiInit:
 111              	.LFB2:
  72:.\Generated_Source\PSoC4/UART_SPI.c ****         if(NULL == config)
 112              		.loc 1 72 0
 113              		.cfi_startproc
 114              	.LVL5:
 115 0000 38B5     		push	{r3, r4, r5, lr}
 116              		.cfi_def_cfa_offset 16
 117              		.cfi_offset 3, -16
 118              		.cfi_offset 4, -12
 119              		.cfi_offset 5, -8
 120              		.cfi_offset 14, -4
 121 0002 041E     		sub	r4, r0, #0
  73:.\Generated_Source\PSoC4/UART_SPI.c ****         {
 122              		.loc 1 73 0
 123 0004 03D1     		bne	.L11
  75:.\Generated_Source\PSoC4/UART_SPI.c ****         }
 124              		.loc 1 75 0 discriminator 1
 125 0006 0020     		mov	r0, #0
 126              	.LVL6:
 127 0008 FFF7FEFF 		bl	CyHalt
 128              	.LVL7:
 129 000c CCE0     		b	.L10
 130              	.LVL8:
 131              	.L11:
  80:.\Generated_Source\PSoC4/UART_SPI.c **** 
 132              		.loc 1 80 0
 133 000e 0220     		mov	r0, #2
 134              	.LVL9:
 135 0010 2168     		ldr	r1, [r4]
 136 0012 0022     		mov	r2, #0
 137 0014 FFF7FEFF 		bl	UART_SetPins
 138              	.LVL10:
  83:.\Generated_Source\PSoC4/UART_SPI.c ****             UART_scbEnableWake = (uint8) config->enableWake;
 139              		.loc 1 83 0
 140 0018 0222     		mov	r2, #2
 141 001a 644B     		ldr	r3, .L25
 142 001c 1A70     		strb	r2, [r3]
  84:.\Generated_Source\PSoC4/UART_SPI.c ****             UART_scbEnableIntr = (uint8) config->enableInterrupt;
 143              		.loc 1 84 0
 144 001e A369     		ldr	r3, [r4, #24]
 145 0020 634A     		ldr	r2, .L25+4
 146 0022 1370     		strb	r3, [r2]
  85:.\Generated_Source\PSoC4/UART_SPI.c **** 
 147              		.loc 1 85 0
 148 0024 634A     		ldr	r2, .L25+8
 149 0026 E16B     		ldr	r1, [r4, #60]
 150 0028 1170     		strb	r1, [r2]
  88:.\Generated_Source\PSoC4/UART_SPI.c ****             UART_rxDataBits    = (uint8) config->rxDataBits;
 151              		.loc 1 88 0
 152 002a 634A     		ldr	r2, .L25+12
 153 002c 216B     		ldr	r1, [r4, #48]
 154 002e 1160     		str	r1, [r2]
  89:.\Generated_Source\PSoC4/UART_SPI.c ****             UART_rxBufferSize  = (uint8) config->rxBufferSize;
ARM GAS  C:\Users\Helon\AppData\Local\Temp\ccfRxaTo.s 			page 12


 155              		.loc 1 89 0
 156 0030 217F     		ldrb	r1, [r4, #28]
 157 0032 624A     		ldr	r2, .L25+16
 158 0034 1170     		strb	r1, [r2]
  90:.\Generated_Source\PSoC4/UART_SPI.c **** 
 159              		.loc 1 90 0
 160 0036 FF22     		mov	r2, #255
 161 0038 E16A     		ldr	r1, [r4, #44]
 162 003a 1140     		and	r1, r2
 163 003c 6048     		ldr	r0, .L25+20
 164 003e 0160     		str	r1, [r0]
  93:.\Generated_Source\PSoC4/UART_SPI.c ****             UART_txDataBits    = (uint8) config->txDataBits;
 165              		.loc 1 93 0
 166 0040 6049     		ldr	r1, .L25+24
 167 0042 A06B     		ldr	r0, [r4, #56]
 168 0044 0860     		str	r0, [r1]
  94:.\Generated_Source\PSoC4/UART_SPI.c ****             UART_txBufferSize  = (uint8) config->txBufferSize;
 169              		.loc 1 94 0
 170 0046 6049     		ldr	r1, .L25+28
 171 0048 206A     		ldr	r0, [r4, #32]
 172 004a 0870     		strb	r0, [r1]
  95:.\Generated_Source\PSoC4/UART_SPI.c **** 
 173              		.loc 1 95 0
 174 004c 616B     		ldr	r1, [r4, #52]
 175 004e 0A40     		and	r2, r1
 176 0050 5E49     		ldr	r1, .L25+32
 177 0052 0A60     		str	r2, [r1]
  98:.\Generated_Source\PSoC4/UART_SPI.c ****                                             UART_GET_CTRL_BYTE_MODE(config->enableByteMode) |
 178              		.loc 1 98 0
 179 0054 E268     		ldr	r2, [r4, #12]
 180 0056 013A     		sub	r2, r2, #1
 181 0058 0F21     		mov	r1, #15
 182 005a 0A40     		and	r2, r1
  99:.\Generated_Source\PSoC4/UART_SPI.c ****                                             UART_GET_CTRL_EC_AM_MODE(config->enableWake)    |
 183              		.loc 1 99 0
 184 005c 4131     		add	r1, r1, #65
 185 005e 615C     		ldrb	r1, [r4, r1]
 186 0060 0029     		cmp	r1, #0
 187 0062 02D0     		beq	.L23
 188 0064 8021     		mov	r1, #128
 189 0066 0901     		lsl	r1, r1, #4
 190 0068 00E0     		b	.L13
 191              	.L23:
 192 006a 0021     		mov	r1, #0
 193              	.L13:
  98:.\Generated_Source\PSoC4/UART_SPI.c ****                                             UART_GET_CTRL_BYTE_MODE(config->enableByteMode) |
 194              		.loc 1 98 0
 195 006c 0A43     		orr	r2, r1
 100:.\Generated_Source\PSoC4/UART_SPI.c ****                                             UART_CTRL_SPI;
 196              		.loc 1 100 0
 197 006e 002B     		cmp	r3, #0
 198 0070 01D0     		beq	.L14
 199 0072 8023     		mov	r3, #128
 200 0074 5B00     		lsl	r3, r3, #1
 201              	.L14:
  99:.\Generated_Source\PSoC4/UART_SPI.c ****                                             UART_GET_CTRL_EC_AM_MODE(config->enableWake)    |
 202              		.loc 1 99 0
ARM GAS  C:\Users\Helon\AppData\Local\Temp\ccfRxaTo.s 			page 13


 203 0076 1343     		orr	r3, r2
 100:.\Generated_Source\PSoC4/UART_SPI.c ****                                             UART_CTRL_SPI;
 204              		.loc 1 100 0
 205 0078 8022     		mov	r2, #128
 206 007a 5204     		lsl	r2, r2, #17
 207 007c 1343     		orr	r3, r2
  98:.\Generated_Source\PSoC4/UART_SPI.c ****                                             UART_GET_CTRL_BYTE_MODE(config->enableByteMode) |
 208              		.loc 1 98 0
 209 007e 544A     		ldr	r2, .L25+36
 210 0080 1360     		str	r3, [r2]
 103:.\Generated_Source\PSoC4/UART_SPI.c ****                                             UART_GET_SPI_CTRL_SELECT_PRECEDE(config->submode &
 211              		.loc 1 103 0
 212 0082 A16A     		ldr	r1, [r4, #40]
 213 0084 0029     		cmp	r1, #0
 214 0086 00D0     		beq	.L15
 215 0088 0121     		mov	r1, #1
 216              	.L15:
 104:.\Generated_Source\PSoC4/UART_SPI.c ****                                                                           UART_SPI_MODE_TI_PRECEDES
 217              		.loc 1 104 0
 218 008a 6568     		ldr	r5, [r4, #4]
 219 008c 1022     		mov	r2, #16
 220 008e 131C     		mov	r3, r2
 221 0090 2B40     		and	r3, r5
 222 0092 00D0     		beq	.L16
 223 0094 0223     		mov	r3, #2
 224              	.L16:
 103:.\Generated_Source\PSoC4/UART_SPI.c ****                                             UART_GET_SPI_CTRL_SELECT_PRECEDE(config->submode &
 225              		.loc 1 103 0
 226 0096 1943     		orr	r1, r3
 106:.\Generated_Source\PSoC4/UART_SPI.c ****                                             UART_GET_SPI_CTRL_LATE_MISO_SAMPLE(config->enableLateSa
 227              		.loc 1 106 0
 228 0098 A368     		ldr	r3, [r4, #8]
 229 009a 9A00     		lsl	r2, r3, #2
 230 009c 0C23     		mov	r3, #12
 231 009e 1340     		and	r3, r2
 105:.\Generated_Source\PSoC4/UART_SPI.c ****                                             UART_GET_SPI_CTRL_SCLK_MODE     (config->sclkMode)     
 232              		.loc 1 105 0
 233 00a0 0B43     		orr	r3, r1
 107:.\Generated_Source\PSoC4/UART_SPI.c ****                                             UART_GET_SPI_CTRL_SCLK_CONTINUOUS(config->enableFreeRun
 234              		.loc 1 107 0
 235 00a2 6069     		ldr	r0, [r4, #20]
 236 00a4 0028     		cmp	r0, #0
 237 00a6 00D0     		beq	.L17
 238 00a8 1020     		mov	r0, #16
 239              	.L17:
 106:.\Generated_Source\PSoC4/UART_SPI.c ****                                             UART_GET_SPI_CTRL_LATE_MISO_SAMPLE(config->enableLateSa
 240              		.loc 1 106 0
 241 00aa 1843     		orr	r0, r3
 108:.\Generated_Source\PSoC4/UART_SPI.c ****                                             UART_GET_SPI_CTRL_SSEL_POLARITY (config->polaritySs)   
 242              		.loc 1 108 0
 243 00ac 5123     		mov	r3, #81
 244 00ae E35C     		ldrb	r3, [r4, r3]
 245 00b0 002B     		cmp	r3, #0
 246 00b2 01D0     		beq	.L24
 247 00b4 2023     		mov	r3, #32
 248 00b6 00E0     		b	.L18
 249              	.L24:
ARM GAS  C:\Users\Helon\AppData\Local\Temp\ccfRxaTo.s 			page 14


 250 00b8 0023     		mov	r3, #0
 251              	.L18:
 107:.\Generated_Source\PSoC4/UART_SPI.c ****                                             UART_GET_SPI_CTRL_SCLK_CONTINUOUS(config->enableFreeRun
 252              		.loc 1 107 0
 253 00ba 0343     		orr	r3, r0
 109:.\Generated_Source\PSoC4/UART_SPI.c ****                                             UART_GET_SPI_CTRL_SUB_MODE      (config->submode)      
 254              		.loc 1 109 0
 255 00bc 5222     		mov	r2, #82
 256 00be A05C     		ldrb	r0, [r4, r2]
 257 00c0 0002     		lsl	r0, r0, #8
 258 00c2 F021     		mov	r1, #240
 259 00c4 0901     		lsl	r1, r1, #4
 260 00c6 0840     		and	r0, r1
 108:.\Generated_Source\PSoC4/UART_SPI.c ****                                             UART_GET_SPI_CTRL_SSEL_POLARITY (config->polaritySs)   
 261              		.loc 1 108 0
 262 00c8 1843     		orr	r0, r3
 110:.\Generated_Source\PSoC4/UART_SPI.c ****                                             UART_GET_SPI_CTRL_MASTER_MODE   (config->mode);
 263              		.loc 1 110 0
 264 00ca 2B06     		lsl	r3, r5, #24
 265 00cc C021     		mov	r1, #192
 266 00ce 8904     		lsl	r1, r1, #18
 267 00d0 0B40     		and	r3, r1
 268 00d2 1A1C     		mov	r2, r3
 109:.\Generated_Source\PSoC4/UART_SPI.c ****                                             UART_GET_SPI_CTRL_SUB_MODE      (config->submode)      
 269              		.loc 1 109 0
 270 00d4 031C     		mov	r3, r0
 271 00d6 1343     		orr	r3, r2
 111:.\Generated_Source\PSoC4/UART_SPI.c **** 
 272              		.loc 1 111 0
 273 00d8 2268     		ldr	r2, [r4]
 274 00da 002A     		cmp	r2, #0
 275 00dc 01D0     		beq	.L19
 276 00de 8022     		mov	r2, #128
 277 00e0 1206     		lsl	r2, r2, #24
 278              	.L19:
 110:.\Generated_Source\PSoC4/UART_SPI.c ****                                             UART_GET_SPI_CTRL_MASTER_MODE   (config->mode);
 279              		.loc 1 110 0
 280 00e2 1343     		orr	r3, r2
 103:.\Generated_Source\PSoC4/UART_SPI.c ****                                             UART_GET_SPI_CTRL_SELECT_PRECEDE(config->submode &
 281              		.loc 1 103 0
 282 00e4 3B4A     		ldr	r2, .L25+40
 283 00e6 1360     		str	r3, [r2]
 114:.\Generated_Source\PSoC4/UART_SPI.c ****                                                 UART_GET_RX_CTRL_BIT_ORDER (config->bitOrder)      
 284              		.loc 1 114 0
 285 00e8 E369     		ldr	r3, [r4, #28]
 286 00ea 013B     		sub	r3, r3, #1
 287 00ec 0F22     		mov	r2, #15
 288 00ee 1340     		and	r3, r2
 115:.\Generated_Source\PSoC4/UART_SPI.c ****                                                 UART_GET_RX_CTRL_MEDIAN    (config->enableMedianFil
 289              		.loc 1 115 0
 290 00f0 626A     		ldr	r2, [r4, #36]
 291 00f2 002A     		cmp	r2, #0
 292 00f4 01D0     		beq	.L20
 293 00f6 8022     		mov	r2, #128
 294 00f8 5200     		lsl	r2, r2, #1
 295              	.L20:
 114:.\Generated_Source\PSoC4/UART_SPI.c ****                                                 UART_GET_RX_CTRL_BIT_ORDER (config->bitOrder)      
ARM GAS  C:\Users\Helon\AppData\Local\Temp\ccfRxaTo.s 			page 15


 296              		.loc 1 114 0
 297 00fa 1A43     		orr	r2, r3
 116:.\Generated_Source\PSoC4/UART_SPI.c ****                                                 UART_SPI_RX_CTRL;
 298              		.loc 1 116 0
 299 00fc 2369     		ldr	r3, [r4, #16]
 300 00fe 002B     		cmp	r3, #0
 301 0100 01D0     		beq	.L21
 302 0102 8023     		mov	r3, #128
 303 0104 9B00     		lsl	r3, r3, #2
 304              	.L21:
 115:.\Generated_Source\PSoC4/UART_SPI.c ****                                                 UART_GET_RX_CTRL_MEDIAN    (config->enableMedianFil
 305              		.loc 1 115 0
 306 0106 1343     		orr	r3, r2
 116:.\Generated_Source\PSoC4/UART_SPI.c ****                                                 UART_SPI_RX_CTRL;
 307              		.loc 1 116 0
 308 0108 8022     		mov	r2, #128
 309 010a 1206     		lsl	r2, r2, #24
 310 010c 1343     		orr	r3, r2
 114:.\Generated_Source\PSoC4/UART_SPI.c ****                                                 UART_GET_RX_CTRL_BIT_ORDER (config->bitOrder)      
 311              		.loc 1 114 0
 312 010e 324A     		ldr	r2, .L25+44
 313 0110 1360     		str	r3, [r2]
 119:.\Generated_Source\PSoC4/UART_SPI.c **** 
 314              		.loc 1 119 0
 315 0112 0F22     		mov	r2, #15
 316 0114 616C     		ldr	r1, [r4, #68]
 317 0116 1140     		and	r1, r2
 318 0118 304B     		ldr	r3, .L25+48
 319 011a 1960     		str	r1, [r3]
 122:.\Generated_Source\PSoC4/UART_SPI.c ****                                                 UART_GET_TX_CTRL_BIT_ORDER (config->bitOrder)   |
 320              		.loc 1 122 0
 321 011c 236A     		ldr	r3, [r4, #32]
 322 011e 013B     		sub	r3, r3, #1
 323 0120 1A40     		and	r2, r3
 123:.\Generated_Source\PSoC4/UART_SPI.c ****                                                 UART_SPI_TX_CTRL;
 324              		.loc 1 123 0
 325 0122 636A     		ldr	r3, [r4, #36]
 326 0124 002B     		cmp	r3, #0
 327 0126 01D0     		beq	.L22
 328 0128 8023     		mov	r3, #128
 329 012a 5B00     		lsl	r3, r3, #1
 330              	.L22:
 122:.\Generated_Source\PSoC4/UART_SPI.c ****                                                 UART_GET_TX_CTRL_BIT_ORDER (config->bitOrder)   |
 331              		.loc 1 122 0
 332 012c 1343     		orr	r3, r2
 123:.\Generated_Source\PSoC4/UART_SPI.c ****                                                 UART_SPI_TX_CTRL;
 333              		.loc 1 123 0
 334 012e 8022     		mov	r2, #128
 335 0130 1206     		lsl	r2, r2, #24
 336 0132 1343     		orr	r3, r2
 122:.\Generated_Source\PSoC4/UART_SPI.c ****                                                 UART_GET_TX_CTRL_BIT_ORDER (config->bitOrder)   |
 337              		.loc 1 122 0
 338 0134 2A4A     		ldr	r2, .L25+52
 339 0136 1360     		str	r3, [r2]
 126:.\Generated_Source\PSoC4/UART_SPI.c **** 
 340              		.loc 1 126 0
 341 0138 0F23     		mov	r3, #15
ARM GAS  C:\Users\Helon\AppData\Local\Temp\ccfRxaTo.s 			page 16


 342 013a E26C     		ldr	r2, [r4, #76]
 343 013c 1340     		and	r3, r2
 344 013e 294A     		ldr	r2, .L25+56
 345 0140 1360     		str	r3, [r2]
 129:.\Generated_Source\PSoC4/UART_SPI.c ****             CyIntSetPriority(UART_ISR_NUMBER, UART_ISR_PRIORITY);
 346              		.loc 1 129 0
 347 0142 0920     		mov	r0, #9
 348 0144 FFF7FEFF 		bl	CyIntDisable
 349              	.LVL11:
 130:.\Generated_Source\PSoC4/UART_SPI.c ****             (void) CyIntSetVector(UART_ISR_NUMBER, &UART_SPI_UART_ISR);
 350              		.loc 1 130 0
 351 0148 0920     		mov	r0, #9
 352 014a 0321     		mov	r1, #3
 353 014c FFF7FEFF 		bl	CyIntSetPriority
 354              	.LVL12:
 131:.\Generated_Source\PSoC4/UART_SPI.c **** 
 355              		.loc 1 131 0
 356 0150 0920     		mov	r0, #9
 357 0152 2549     		ldr	r1, .L25+60
 358 0154 FFF7FEFF 		bl	CyIntSetVector
 359              	.LVL13:
 134:.\Generated_Source\PSoC4/UART_SPI.c ****             UART_INTR_SPI_EC_MASK_REG = UART_NO_INTR_SOURCES;
 360              		.loc 1 134 0
 361 0158 0025     		mov	r5, #0
 362 015a 244B     		ldr	r3, .L25+64
 363 015c 1D60     		str	r5, [r3]
 135:.\Generated_Source\PSoC4/UART_SPI.c ****             UART_INTR_SLAVE_MASK_REG  = UART_GET_SPI_INTR_SLAVE_MASK(config->rxInterruptMask);
 364              		.loc 1 135 0
 365 015e 244B     		ldr	r3, .L25+68
 366 0160 1D60     		str	r5, [r3]
 136:.\Generated_Source\PSoC4/UART_SPI.c ****             UART_INTR_MASTER_MASK_REG = UART_GET_SPI_INTR_MASTER_MASK(config->txInterruptMask);
 367              		.loc 1 136 0
 368 0162 8023     		mov	r3, #128
 369 0164 1B01     		lsl	r3, r3, #4
 370 0166 226C     		ldr	r2, [r4, #64]
 371 0168 1340     		and	r3, r2
 372 016a 224A     		ldr	r2, .L25+72
 373 016c 1360     		str	r3, [r2]
 137:.\Generated_Source\PSoC4/UART_SPI.c ****             UART_INTR_RX_MASK_REG     = UART_GET_SPI_INTR_RX_MASK(config->rxInterruptMask);
 374              		.loc 1 137 0
 375 016e 8023     		mov	r3, #128
 376 0170 9B00     		lsl	r3, r3, #2
 377 0172 A26C     		ldr	r2, [r4, #72]
 378 0174 1340     		and	r3, r2
 379 0176 204A     		ldr	r2, .L25+76
 380 0178 1360     		str	r3, [r2]
 138:.\Generated_Source\PSoC4/UART_SPI.c ****             UART_INTR_TX_MASK_REG     = UART_GET_SPI_INTR_TX_MASK(config->txInterruptMask);
 381              		.loc 1 138 0
 382 017a 204B     		ldr	r3, .L25+80
 383 017c 226C     		ldr	r2, [r4, #64]
 384 017e 1340     		and	r3, r2
 385 0180 1F4A     		ldr	r2, .L25+84
 386 0182 1360     		str	r3, [r2]
 139:.\Generated_Source\PSoC4/UART_SPI.c **** 
 387              		.loc 1 139 0
 388 0184 A26C     		ldr	r2, [r4, #72]
 389 0186 1F4B     		ldr	r3, .L25+88
ARM GAS  C:\Users\Helon\AppData\Local\Temp\ccfRxaTo.s 			page 17


 390 0188 1340     		and	r3, r2
 391 018a 1F4A     		ldr	r2, .L25+92
 392 018c 1360     		str	r3, [r2]
 142:.\Generated_Source\PSoC4/UART_SPI.c **** 
 393              		.loc 1 142 0
 394 018e 0020     		mov	r0, #0
 395 0190 FFF7FEFF 		bl	UART_SpiSetActiveSlaveSelect
 396              	.LVL14:
 145:.\Generated_Source\PSoC4/UART_SPI.c ****             UART_rxBufferTail     = 0u;
 397              		.loc 1 145 0
 398 0194 1D4B     		ldr	r3, .L25+96
 399 0196 1D60     		str	r5, [r3]
 146:.\Generated_Source\PSoC4/UART_SPI.c ****             UART_rxBufferOverflow = 0u;
 400              		.loc 1 146 0
 401 0198 1D4B     		ldr	r3, .L25+100
 402 019a 1D60     		str	r5, [r3]
 147:.\Generated_Source\PSoC4/UART_SPI.c **** 
 403              		.loc 1 147 0
 404 019c 1D4B     		ldr	r3, .L25+104
 405 019e 1D70     		strb	r5, [r3]
 150:.\Generated_Source\PSoC4/UART_SPI.c ****             UART_txBufferTail = 0u;
 406              		.loc 1 150 0
 407 01a0 1D4B     		ldr	r3, .L25+108
 408 01a2 1D60     		str	r5, [r3]
 151:.\Generated_Source\PSoC4/UART_SPI.c ****         }
 409              		.loc 1 151 0
 410 01a4 1D4B     		ldr	r3, .L25+112
 411 01a6 1D60     		str	r5, [r3]
 412              	.L10:
 153:.\Generated_Source\PSoC4/UART_SPI.c **** 
 413              		.loc 1 153 0
 414              		@ sp needed
 415              	.LVL15:
 416 01a8 38BD     		pop	{r3, r4, r5, pc}
 417              	.L26:
 418 01aa C046     		.align	2
 419              	.L25:
 420 01ac 00000000 		.word	UART_scbMode
 421 01b0 00000000 		.word	UART_scbEnableWake
 422 01b4 00000000 		.word	UART_scbEnableIntr
 423 01b8 00000000 		.word	UART_rxBuffer
 424 01bc 00000000 		.word	UART_rxDataBits
 425 01c0 00000000 		.word	UART_rxBufferSize
 426 01c4 00000000 		.word	UART_txBuffer
 427 01c8 00000000 		.word	UART_txDataBits
 428 01cc 00000000 		.word	UART_txBufferSize
 429 01d0 00002440 		.word	1076101120
 430 01d4 20002440 		.word	1076101152
 431 01d8 00032440 		.word	1076101888
 432 01dc 04032440 		.word	1076101892
 433 01e0 00022440 		.word	1076101632
 434 01e4 04022440 		.word	1076101636
 435 01e8 00000000 		.word	UART_SPI_UART_ISR
 436 01ec 880E2440 		.word	1076104840
 437 01f0 C80E2440 		.word	1076104904
 438 01f4 480F2440 		.word	1076105032
 439 01f8 080F2440 		.word	1076104968
ARM GAS  C:\Users\Helon\AppData\Local\Temp\ccfRxaTo.s 			page 18


 440 01fc FFF7FFFF 		.word	-2049
 441 0200 C80F2440 		.word	1076105160
 442 0204 FFFDFFFF 		.word	-513
 443 0208 880F2440 		.word	1076105096
 444 020c 00000000 		.word	UART_rxBufferHead
 445 0210 00000000 		.word	UART_rxBufferTail
 446 0214 00000000 		.word	UART_rxBufferOverflow
 447 0218 00000000 		.word	UART_txBufferHead
 448 021c 00000000 		.word	UART_txBufferTail
 449              		.cfi_endproc
 450              	.LFE2:
 451              		.size	UART_SpiInit, .-UART_SpiInit
 452              		.section	.text.UART_SpiSetSlaveSelectPolarity,"ax",%progbits
 453              		.align	2
 454              		.global	UART_SpiSetSlaveSelectPolarity
 455              		.code	16
 456              		.thumb_func
 457              		.type	UART_SpiSetSlaveSelectPolarity, %function
 458              	UART_SpiSetSlaveSelectPolarity:
 459              	.LFB6:
 465:.\Generated_Source\PSoC4/UART_SPI.c **** #endif /* (UART_SPI_MASTER_CONST) */
 466:.\Generated_Source\PSoC4/UART_SPI.c **** 
 467:.\Generated_Source\PSoC4/UART_SPI.c **** 
 468:.\Generated_Source\PSoC4/UART_SPI.c **** #if !(UART_CY_SCBIP_V0 || UART_CY_SCBIP_V1)
 469:.\Generated_Source\PSoC4/UART_SPI.c ****     /*******************************************************************************
 470:.\Generated_Source\PSoC4/UART_SPI.c ****     * Function Name: UART_SpiSetSlaveSelectPolarity
 471:.\Generated_Source\PSoC4/UART_SPI.c ****     ********************************************************************************
 472:.\Generated_Source\PSoC4/UART_SPI.c ****     *
 473:.\Generated_Source\PSoC4/UART_SPI.c ****     * Summary:
 474:.\Generated_Source\PSoC4/UART_SPI.c ****     *  Sets active polarity for slave select line.
 475:.\Generated_Source\PSoC4/UART_SPI.c ****     *  The component should be in one of the following states to change the active
 476:.\Generated_Source\PSoC4/UART_SPI.c ****     *  slave select signal source correctly:
 477:.\Generated_Source\PSoC4/UART_SPI.c ****     *   - The component is disabled.
 478:.\Generated_Source\PSoC4/UART_SPI.c ****     *   - The component has completed transfer.
 479:.\Generated_Source\PSoC4/UART_SPI.c ****     *  This function does not check that these conditions are met.
 480:.\Generated_Source\PSoC4/UART_SPI.c ****     *
 481:.\Generated_Source\PSoC4/UART_SPI.c ****     * Parameters:
 482:.\Generated_Source\PSoC4/UART_SPI.c ****     *  slaveSelect: slave select line to change active polarity.
 483:.\Generated_Source\PSoC4/UART_SPI.c ****     *   UART_SPI_SLAVE_SELECT0 - Slave select 0
 484:.\Generated_Source\PSoC4/UART_SPI.c ****     *   UART_SPI_SLAVE_SELECT1 - Slave select 1
 485:.\Generated_Source\PSoC4/UART_SPI.c ****     *   UART_SPI_SLAVE_SELECT2 - Slave select 2
 486:.\Generated_Source\PSoC4/UART_SPI.c ****     *   UART_SPI_SLAVE_SELECT3 - Slave select 3
 487:.\Generated_Source\PSoC4/UART_SPI.c ****     *
 488:.\Generated_Source\PSoC4/UART_SPI.c ****     *  polarity: active polarity of slave select line.
 489:.\Generated_Source\PSoC4/UART_SPI.c ****     *   UART_SPI_SS_ACTIVE_LOW  - Slave select is active low
 490:.\Generated_Source\PSoC4/UART_SPI.c ****     *   UART_SPI_SS_ACTIVE_HIGH - Slave select is active high
 491:.\Generated_Source\PSoC4/UART_SPI.c ****     *
 492:.\Generated_Source\PSoC4/UART_SPI.c ****     * Return:
 493:.\Generated_Source\PSoC4/UART_SPI.c ****     *  None
 494:.\Generated_Source\PSoC4/UART_SPI.c ****     *
 495:.\Generated_Source\PSoC4/UART_SPI.c ****     *******************************************************************************/
 496:.\Generated_Source\PSoC4/UART_SPI.c ****     void UART_SpiSetSlaveSelectPolarity(uint32 slaveSelect, uint32 polarity)
 497:.\Generated_Source\PSoC4/UART_SPI.c ****     {
 460              		.loc 1 497 0
 461              		.cfi_startproc
 462              	.LVL16:
 498:.\Generated_Source\PSoC4/UART_SPI.c ****         uint32 ssPolarity;
ARM GAS  C:\Users\Helon\AppData\Local\Temp\ccfRxaTo.s 			page 19


 499:.\Generated_Source\PSoC4/UART_SPI.c **** 
 500:.\Generated_Source\PSoC4/UART_SPI.c ****         /* Get position of the polarity bit associated with slave select line */
 501:.\Generated_Source\PSoC4/UART_SPI.c ****         ssPolarity = UART_GET_SPI_CTRL_SSEL_POLARITY((uint32) 1u << slaveSelect);
 463              		.loc 1 501 0
 464 0000 8023     		mov	r3, #128
 465 0002 5B00     		lsl	r3, r3, #1
 466 0004 8340     		lsl	r3, r3, r0
 467 0006 181C     		mov	r0, r3
 468              	.LVL17:
 469 0008 F023     		mov	r3, #240
 470 000a 1B01     		lsl	r3, r3, #4
 471 000c 1840     		and	r0, r3
 472              	.LVL18:
 502:.\Generated_Source\PSoC4/UART_SPI.c **** 
 503:.\Generated_Source\PSoC4/UART_SPI.c ****         if (0u != polarity)
 473              		.loc 1 503 0
 474 000e 0029     		cmp	r1, #0
 475 0010 04D0     		beq	.L28
 504:.\Generated_Source\PSoC4/UART_SPI.c ****         {
 505:.\Generated_Source\PSoC4/UART_SPI.c ****             UART_SPI_CTRL_REG |= (uint32)  ssPolarity;
 476              		.loc 1 505 0
 477 0012 054B     		ldr	r3, .L30
 478 0014 1A68     		ldr	r2, [r3]
 479 0016 1043     		orr	r0, r2
 480              	.LVL19:
 481 0018 1860     		str	r0, [r3]
 482 001a 03E0     		b	.L27
 483              	.LVL20:
 484              	.L28:
 506:.\Generated_Source\PSoC4/UART_SPI.c ****         }
 507:.\Generated_Source\PSoC4/UART_SPI.c ****         else
 508:.\Generated_Source\PSoC4/UART_SPI.c ****         {
 509:.\Generated_Source\PSoC4/UART_SPI.c ****             UART_SPI_CTRL_REG &= (uint32) ~ssPolarity;
 485              		.loc 1 509 0
 486 001c 024A     		ldr	r2, .L30
 487 001e 1368     		ldr	r3, [r2]
 488 0020 8343     		bic	r3, r0
 489 0022 1360     		str	r3, [r2]
 490              	.LVL21:
 491              	.L27:
 510:.\Generated_Source\PSoC4/UART_SPI.c ****         }
 511:.\Generated_Source\PSoC4/UART_SPI.c ****     }
 492              		.loc 1 511 0
 493              		@ sp needed
 494 0024 7047     		bx	lr
 495              	.L31:
 496 0026 C046     		.align	2
 497              	.L30:
 498 0028 20002440 		.word	1076101152
 499              		.cfi_endproc
 500              	.LFE6:
 501              		.size	UART_SpiSetSlaveSelectPolarity, .-UART_SpiSetSlaveSelectPolarity
 502              		.section	.text.UART_SpiSaveConfig,"ax",%progbits
 503              		.align	2
 504              		.global	UART_SpiSaveConfig
 505              		.code	16
 506              		.thumb_func
ARM GAS  C:\Users\Helon\AppData\Local\Temp\ccfRxaTo.s 			page 20


 507              		.type	UART_SpiSaveConfig, %function
 508              	UART_SpiSaveConfig:
 509              	.LFB7:
 512:.\Generated_Source\PSoC4/UART_SPI.c **** #endif /* !(UART_CY_SCBIP_V0 || UART_CY_SCBIP_V1) */
 513:.\Generated_Source\PSoC4/UART_SPI.c **** 
 514:.\Generated_Source\PSoC4/UART_SPI.c **** 
 515:.\Generated_Source\PSoC4/UART_SPI.c **** #if(UART_SPI_WAKE_ENABLE_CONST)
 516:.\Generated_Source\PSoC4/UART_SPI.c ****     /*******************************************************************************
 517:.\Generated_Source\PSoC4/UART_SPI.c ****     * Function Name: UART_SpiSaveConfig
 518:.\Generated_Source\PSoC4/UART_SPI.c ****     ********************************************************************************
 519:.\Generated_Source\PSoC4/UART_SPI.c ****     *
 520:.\Generated_Source\PSoC4/UART_SPI.c ****     * Summary:
 521:.\Generated_Source\PSoC4/UART_SPI.c ****     *  Clears INTR_SPI_EC.WAKE_UP and enables it. This interrupt
 522:.\Generated_Source\PSoC4/UART_SPI.c ****     *  source triggers when the master assigns the SS line and wakes up the device.
 523:.\Generated_Source\PSoC4/UART_SPI.c ****     *
 524:.\Generated_Source\PSoC4/UART_SPI.c ****     * Parameters:
 525:.\Generated_Source\PSoC4/UART_SPI.c ****     *  None
 526:.\Generated_Source\PSoC4/UART_SPI.c ****     *
 527:.\Generated_Source\PSoC4/UART_SPI.c ****     * Return:
 528:.\Generated_Source\PSoC4/UART_SPI.c ****     *  None
 529:.\Generated_Source\PSoC4/UART_SPI.c ****     *
 530:.\Generated_Source\PSoC4/UART_SPI.c ****     *******************************************************************************/
 531:.\Generated_Source\PSoC4/UART_SPI.c ****     void UART_SpiSaveConfig(void)
 532:.\Generated_Source\PSoC4/UART_SPI.c ****     {
 510              		.loc 1 532 0
 511              		.cfi_startproc
 533:.\Generated_Source\PSoC4/UART_SPI.c ****         UART_ClearSpiExtClkInterruptSource(UART_INTR_SPI_EC_WAKE_UP);
 512              		.loc 1 533 0
 513 0000 0123     		mov	r3, #1
 514 0002 024A     		ldr	r2, .L33
 515 0004 1360     		str	r3, [r2]
 534:.\Generated_Source\PSoC4/UART_SPI.c ****         UART_SetSpiExtClkInterruptMode(UART_INTR_SPI_EC_WAKE_UP);
 516              		.loc 1 534 0
 517 0006 024A     		ldr	r2, .L33+4
 518 0008 1360     		str	r3, [r2]
 535:.\Generated_Source\PSoC4/UART_SPI.c ****     }
 519              		.loc 1 535 0
 520              		@ sp needed
 521 000a 7047     		bx	lr
 522              	.L34:
 523              		.align	2
 524              	.L33:
 525 000c C00E2440 		.word	1076104896
 526 0010 C80E2440 		.word	1076104904
 527              		.cfi_endproc
 528              	.LFE7:
 529              		.size	UART_SpiSaveConfig, .-UART_SpiSaveConfig
 530              		.section	.text.UART_SpiRestoreConfig,"ax",%progbits
 531              		.align	2
 532              		.global	UART_SpiRestoreConfig
 533              		.code	16
 534              		.thumb_func
 535              		.type	UART_SpiRestoreConfig, %function
 536              	UART_SpiRestoreConfig:
 537              	.LFB8:
 536:.\Generated_Source\PSoC4/UART_SPI.c **** 
 537:.\Generated_Source\PSoC4/UART_SPI.c **** 
ARM GAS  C:\Users\Helon\AppData\Local\Temp\ccfRxaTo.s 			page 21


 538:.\Generated_Source\PSoC4/UART_SPI.c ****     /*******************************************************************************
 539:.\Generated_Source\PSoC4/UART_SPI.c ****     * Function Name: UART_SpiRestoreConfig
 540:.\Generated_Source\PSoC4/UART_SPI.c ****     ********************************************************************************
 541:.\Generated_Source\PSoC4/UART_SPI.c ****     *
 542:.\Generated_Source\PSoC4/UART_SPI.c ****     * Summary:
 543:.\Generated_Source\PSoC4/UART_SPI.c ****     *  Disables the INTR_SPI_EC.WAKE_UP interrupt source. After wakeup
 544:.\Generated_Source\PSoC4/UART_SPI.c ****     *  slave does not drive the MISO line and the master receives 0xFF.
 545:.\Generated_Source\PSoC4/UART_SPI.c ****     *
 546:.\Generated_Source\PSoC4/UART_SPI.c ****     * Parameters:
 547:.\Generated_Source\PSoC4/UART_SPI.c ****     *  None
 548:.\Generated_Source\PSoC4/UART_SPI.c ****     *
 549:.\Generated_Source\PSoC4/UART_SPI.c ****     * Return:
 550:.\Generated_Source\PSoC4/UART_SPI.c ****     *  None
 551:.\Generated_Source\PSoC4/UART_SPI.c ****     *
 552:.\Generated_Source\PSoC4/UART_SPI.c ****     *******************************************************************************/
 553:.\Generated_Source\PSoC4/UART_SPI.c ****     void UART_SpiRestoreConfig(void)
 554:.\Generated_Source\PSoC4/UART_SPI.c ****     {
 538              		.loc 1 554 0
 539              		.cfi_startproc
 555:.\Generated_Source\PSoC4/UART_SPI.c ****         UART_SetSpiExtClkInterruptMode(UART_NO_INTR_SOURCES);
 540              		.loc 1 555 0
 541 0000 0022     		mov	r2, #0
 542 0002 014B     		ldr	r3, .L36
 543 0004 1A60     		str	r2, [r3]
 556:.\Generated_Source\PSoC4/UART_SPI.c ****     }
 544              		.loc 1 556 0
 545              		@ sp needed
 546 0006 7047     		bx	lr
 547              	.L37:
 548              		.align	2
 549              	.L36:
 550 0008 C80E2440 		.word	1076104904
 551              		.cfi_endproc
 552              	.LFE8:
 553              		.size	UART_SpiRestoreConfig, .-UART_SpiRestoreConfig
 554              		.global	UART_configSpi
 555              		.section	.rodata
 556              		.align	2
 557              		.type	UART_configSpi, %object
 558              		.size	UART_configSpi, 84
 559              	UART_configSpi:
 560 0000 00000000 		.word	0
 561 0004 00000000 		.word	0
 562 0008 00000000 		.word	0
 563 000c 10000000 		.word	16
 564 0010 00000000 		.word	0
 565 0014 00000000 		.word	0
 566 0018 00000000 		.word	0
 567 001c 08000000 		.word	8
 568 0020 08000000 		.word	8
 569 0024 01000000 		.word	1
 570 0028 01000000 		.word	1
 571 002c 00000000 		.word	0
 572 0030 00000000 		.word	0
 573 0034 00000000 		.word	0
 574 0038 00000000 		.word	0
 575 003c 01000000 		.word	1
ARM GAS  C:\Users\Helon\AppData\Local\Temp\ccfRxaTo.s 			page 22


 576 0040 00000000 		.word	0
 577 0044 07000000 		.word	7
 578 0048 00000000 		.word	0
 579 004c 00000000 		.word	0
 580 0050 00       		.byte	0
 581 0051 00       		.byte	0
 582 0052 00       		.byte	0
 583 0053 00       		.space	1
 584              		.text
 585              	.Letext0:
 586              		.file 2 "Generated_Source\\PSoC4/cytypes.h"
 587              		.file 3 ".\\Generated_Source\\PSoC4\\UART_SPI_UART.h"
 588              		.file 4 ".\\Generated_Source\\PSoC4\\UART_PVT.h"
 589              		.file 5 ".\\Generated_Source\\PSoC4\\UART_SPI_UART_PVT.h"
 590              		.file 6 "Generated_Source\\PSoC4/CyLib.h"