ARM GAS  C:\Users\Helon\AppData\Local\Temp\ccieO5Yt.s 			page 1


   1              		.cpu cortex-m0
   2              		.fpu softvfp
   3              		.eabi_attribute 20, 1
   4              		.eabi_attribute 21, 1
   5              		.eabi_attribute 23, 3
   6              		.eabi_attribute 24, 1
   7              		.eabi_attribute 25, 1
   8              		.eabi_attribute 26, 1
   9              		.eabi_attribute 30, 1
  10              		.eabi_attribute 34, 0
  11              		.eabi_attribute 18, 4
  12              		.code	16
  13              		.file	"UART_EZI2C.c"
  14              		.text
  15              	.Ltext0:
  16              		.cfi_sections	.debug_frame
  17              		.section	.text.UART_EzI2CUpdateRxMatchReg,"ax",%progbits
  18              		.align	2
  19              		.code	16
  20              		.thumb_func
  21              		.type	UART_EzI2CUpdateRxMatchReg, %function
  22              	UART_EzI2CUpdateRxMatchReg:
  23              	.LFB9:
  24              		.file 1 ".\\Generated_Source\\PSoC4\\UART_EZI2C.c"
   1:.\Generated_Source\PSoC4/UART_EZI2C.c **** /*******************************************************************************
   2:.\Generated_Source\PSoC4/UART_EZI2C.c **** * File Name: UART_EZI2C.c
   3:.\Generated_Source\PSoC4/UART_EZI2C.c **** * Version 3.0
   4:.\Generated_Source\PSoC4/UART_EZI2C.c **** *
   5:.\Generated_Source\PSoC4/UART_EZI2C.c **** * Description:
   6:.\Generated_Source\PSoC4/UART_EZI2C.c **** *  This file provides the source code to the API for the SCB Component in
   7:.\Generated_Source\PSoC4/UART_EZI2C.c **** *  EZI2C mode.
   8:.\Generated_Source\PSoC4/UART_EZI2C.c **** *
   9:.\Generated_Source\PSoC4/UART_EZI2C.c **** * Note:
  10:.\Generated_Source\PSoC4/UART_EZI2C.c **** *
  11:.\Generated_Source\PSoC4/UART_EZI2C.c **** *******************************************************************************
  12:.\Generated_Source\PSoC4/UART_EZI2C.c **** * Copyright 2013-2015, Cypress Semiconductor Corporation.  All rights reserved.
  13:.\Generated_Source\PSoC4/UART_EZI2C.c **** * You may use this file only in accordance with the license, terms, conditions,
  14:.\Generated_Source\PSoC4/UART_EZI2C.c **** * disclaimers, and limitations in the end user license agreement accompanying
  15:.\Generated_Source\PSoC4/UART_EZI2C.c **** * the software package with which this file was provided.
  16:.\Generated_Source\PSoC4/UART_EZI2C.c **** *******************************************************************************/
  17:.\Generated_Source\PSoC4/UART_EZI2C.c **** 
  18:.\Generated_Source\PSoC4/UART_EZI2C.c **** #include "UART_PVT.h"
  19:.\Generated_Source\PSoC4/UART_EZI2C.c **** #include "UART_EZI2C_PVT.h"
  20:.\Generated_Source\PSoC4/UART_EZI2C.c **** 
  21:.\Generated_Source\PSoC4/UART_EZI2C.c **** 
  22:.\Generated_Source\PSoC4/UART_EZI2C.c **** /***************************************
  23:.\Generated_Source\PSoC4/UART_EZI2C.c **** *      EZI2C Private Vars
  24:.\Generated_Source\PSoC4/UART_EZI2C.c **** ***************************************/
  25:.\Generated_Source\PSoC4/UART_EZI2C.c **** 
  26:.\Generated_Source\PSoC4/UART_EZI2C.c **** volatile uint8 UART_curStatus; /* Status byte */
  27:.\Generated_Source\PSoC4/UART_EZI2C.c **** uint8 UART_fsmState;           /* FSM state   */
  28:.\Generated_Source\PSoC4/UART_EZI2C.c **** 
  29:.\Generated_Source\PSoC4/UART_EZI2C.c **** /* Variables intended to be used with Buffer 1: Primary slave address */
  30:.\Generated_Source\PSoC4/UART_EZI2C.c **** volatile uint8 * UART_dataBuffer1; /* Pointer to data buffer 1 */
  31:.\Generated_Source\PSoC4/UART_EZI2C.c **** uint16 UART_bufSizeBuf1; /* Size of buffer 1 in bytes      */
  32:.\Generated_Source\PSoC4/UART_EZI2C.c **** uint16 UART_protectBuf1; /* Start index of write protected area buffer 1 */
  33:.\Generated_Source\PSoC4/UART_EZI2C.c **** uint16 UART_offsetBuf1; /* Current offset within buffer 1 */
ARM GAS  C:\Users\Helon\AppData\Local\Temp\ccieO5Yt.s 			page 2


  34:.\Generated_Source\PSoC4/UART_EZI2C.c **** uint16 UART_indexBuf1;  /* Current index within buffer 1  */
  35:.\Generated_Source\PSoC4/UART_EZI2C.c **** 
  36:.\Generated_Source\PSoC4/UART_EZI2C.c **** #if(UART_SECONDARY_ADDRESS_ENABLE_CONST)
  37:.\Generated_Source\PSoC4/UART_EZI2C.c ****     uint8 UART_addrBuf1; /* Primary slave address. Used for software comparison   */
  38:.\Generated_Source\PSoC4/UART_EZI2C.c ****     uint8 UART_addrBuf2; /* Secondary slave address. Used for software comparison */
  39:.\Generated_Source\PSoC4/UART_EZI2C.c **** 
  40:.\Generated_Source\PSoC4/UART_EZI2C.c ****     /* Variables intended to be used with Buffer 2: Primary slave address */
  41:.\Generated_Source\PSoC4/UART_EZI2C.c ****     volatile uint8 * UART_dataBuffer2; /* Pointer to data buffer 2 */
  42:.\Generated_Source\PSoC4/UART_EZI2C.c ****     uint16 UART_bufSizeBuf2; /* Size of buffer 2 in bytes      */
  43:.\Generated_Source\PSoC4/UART_EZI2C.c ****     uint16 UART_protectBuf2; /* Start index of write protected area buffer 2 */
  44:.\Generated_Source\PSoC4/UART_EZI2C.c ****     uint16 UART_offsetBuf2; /* Current offset within buffer 2 */
  45:.\Generated_Source\PSoC4/UART_EZI2C.c ****     uint16 UART_indexBuf2;  /* Current index within buffer 2  */
  46:.\Generated_Source\PSoC4/UART_EZI2C.c **** #endif /* (UART_SECONDARY_ADDRESS_ENABLE_CONST) */
  47:.\Generated_Source\PSoC4/UART_EZI2C.c **** 
  48:.\Generated_Source\PSoC4/UART_EZI2C.c **** 
  49:.\Generated_Source\PSoC4/UART_EZI2C.c **** /***************************************
  50:.\Generated_Source\PSoC4/UART_EZI2C.c **** *      EZI2C Private Functions
  51:.\Generated_Source\PSoC4/UART_EZI2C.c **** ***************************************/
  52:.\Generated_Source\PSoC4/UART_EZI2C.c **** 
  53:.\Generated_Source\PSoC4/UART_EZI2C.c **** #if(UART_SECONDARY_ADDRESS_ENABLE_CONST)
  54:.\Generated_Source\PSoC4/UART_EZI2C.c ****     static uint32 UART_EzI2CUpdateRxMatchReg(uint32 addr1, uint32 addr2);
  55:.\Generated_Source\PSoC4/UART_EZI2C.c **** #endif /* (UART_SECONDARY_ADDRESS_ENABLE_CONST) */
  56:.\Generated_Source\PSoC4/UART_EZI2C.c **** 
  57:.\Generated_Source\PSoC4/UART_EZI2C.c **** #if(UART_SCB_MODE_UNCONFIG_CONST_CFG)
  58:.\Generated_Source\PSoC4/UART_EZI2C.c **** 
  59:.\Generated_Source\PSoC4/UART_EZI2C.c ****     /***************************************
  60:.\Generated_Source\PSoC4/UART_EZI2C.c ****     *  Configuration Structure Initialization
  61:.\Generated_Source\PSoC4/UART_EZI2C.c ****     ***************************************/
  62:.\Generated_Source\PSoC4/UART_EZI2C.c **** 
  63:.\Generated_Source\PSoC4/UART_EZI2C.c ****     /* Constant configuration of EZI2C */
  64:.\Generated_Source\PSoC4/UART_EZI2C.c ****     const UART_EZI2C_INIT_STRUCT UART_configEzI2C =
  65:.\Generated_Source\PSoC4/UART_EZI2C.c ****     {
  66:.\Generated_Source\PSoC4/UART_EZI2C.c ****         UART_EZI2C_CLOCK_STRETCHING,
  67:.\Generated_Source\PSoC4/UART_EZI2C.c ****         UART_EZI2C_MEDIAN_FILTER_ENABLE,
  68:.\Generated_Source\PSoC4/UART_EZI2C.c ****         UART_EZI2C_NUMBER_OF_ADDRESSES,
  69:.\Generated_Source\PSoC4/UART_EZI2C.c ****         UART_EZI2C_PRIMARY_SLAVE_ADDRESS,
  70:.\Generated_Source\PSoC4/UART_EZI2C.c ****         UART_EZI2C_SECONDARY_SLAVE_ADDRESS,
  71:.\Generated_Source\PSoC4/UART_EZI2C.c ****         UART_EZI2C_SUB_ADDRESS_SIZE,
  72:.\Generated_Source\PSoC4/UART_EZI2C.c ****         UART_EZI2C_WAKE_ENABLE,
  73:.\Generated_Source\PSoC4/UART_EZI2C.c ****         UART_EZI2C_BYTE_MODE_ENABLE
  74:.\Generated_Source\PSoC4/UART_EZI2C.c ****     };
  75:.\Generated_Source\PSoC4/UART_EZI2C.c **** 
  76:.\Generated_Source\PSoC4/UART_EZI2C.c ****     /*******************************************************************************
  77:.\Generated_Source\PSoC4/UART_EZI2C.c ****     * Function Name: UART_EzI2CInit
  78:.\Generated_Source\PSoC4/UART_EZI2C.c ****     ********************************************************************************
  79:.\Generated_Source\PSoC4/UART_EZI2C.c ****     *
  80:.\Generated_Source\PSoC4/UART_EZI2C.c ****     * Summary:
  81:.\Generated_Source\PSoC4/UART_EZI2C.c ****     *  Configures the SCB for the EZI2C operation.
  82:.\Generated_Source\PSoC4/UART_EZI2C.c ****     *
  83:.\Generated_Source\PSoC4/UART_EZI2C.c ****     * Parameters:
  84:.\Generated_Source\PSoC4/UART_EZI2C.c ****     *  config:  Pointer to a structure that contains the following ordered list of
  85:.\Generated_Source\PSoC4/UART_EZI2C.c ****     *           fields. These fields match the selections available in the
  86:.\Generated_Source\PSoC4/UART_EZI2C.c ****     *           customizer.
  87:.\Generated_Source\PSoC4/UART_EZI2C.c ****     *
  88:.\Generated_Source\PSoC4/UART_EZI2C.c ****     * Return:
  89:.\Generated_Source\PSoC4/UART_EZI2C.c ****     *  None
  90:.\Generated_Source\PSoC4/UART_EZI2C.c ****     *
ARM GAS  C:\Users\Helon\AppData\Local\Temp\ccieO5Yt.s 			page 3


  91:.\Generated_Source\PSoC4/UART_EZI2C.c ****     *******************************************************************************/
  92:.\Generated_Source\PSoC4/UART_EZI2C.c ****     void UART_EzI2CInit(const UART_EZI2C_INIT_STRUCT *config)
  93:.\Generated_Source\PSoC4/UART_EZI2C.c ****     {
  94:.\Generated_Source\PSoC4/UART_EZI2C.c ****         if(NULL == config)
  95:.\Generated_Source\PSoC4/UART_EZI2C.c ****         {
  96:.\Generated_Source\PSoC4/UART_EZI2C.c ****             CYASSERT(0u != 0u); /* Halt execution due to bad function parameter */
  97:.\Generated_Source\PSoC4/UART_EZI2C.c ****         }
  98:.\Generated_Source\PSoC4/UART_EZI2C.c ****         else
  99:.\Generated_Source\PSoC4/UART_EZI2C.c ****         {
 100:.\Generated_Source\PSoC4/UART_EZI2C.c ****             /* Configure pins */
 101:.\Generated_Source\PSoC4/UART_EZI2C.c ****             UART_SetPins(UART_SCB_MODE_EZI2C, UART_DUMMY_PARAM,
 102:.\Generated_Source\PSoC4/UART_EZI2C.c ****                                                                       UART_DUMMY_PARAM);
 103:.\Generated_Source\PSoC4/UART_EZI2C.c **** 
 104:.\Generated_Source\PSoC4/UART_EZI2C.c ****             /* Store internal configuration */
 105:.\Generated_Source\PSoC4/UART_EZI2C.c ****             UART_scbMode       = (uint8) UART_SCB_MODE_EZI2C;
 106:.\Generated_Source\PSoC4/UART_EZI2C.c ****             UART_scbEnableWake = (uint8) config->enableWake;
 107:.\Generated_Source\PSoC4/UART_EZI2C.c ****             UART_scbEnableIntr = (uint8) UART_SCB_IRQ_INTERNAL;
 108:.\Generated_Source\PSoC4/UART_EZI2C.c **** 
 109:.\Generated_Source\PSoC4/UART_EZI2C.c ****             UART_numberOfAddr  = (uint8) config->numberOfAddresses;
 110:.\Generated_Source\PSoC4/UART_EZI2C.c ****             UART_subAddrSize   = (uint8) config->subAddrSize;
 111:.\Generated_Source\PSoC4/UART_EZI2C.c **** 
 112:.\Generated_Source\PSoC4/UART_EZI2C.c ****         #if (UART_CY_SCBIP_V0)
 113:.\Generated_Source\PSoC4/UART_EZI2C.c ****             /* Adjust SDA filter settings. Ticket ID#150521 */
 114:.\Generated_Source\PSoC4/UART_EZI2C.c ****             UART_SET_I2C_CFG_SDA_FILT_TRIM(UART_EC_AM_I2C_CFG_SDA_FILT_TRIM);
 115:.\Generated_Source\PSoC4/UART_EZI2C.c ****         #endif /* (UART_CY_SCBIP_V0) */
 116:.\Generated_Source\PSoC4/UART_EZI2C.c **** 
 117:.\Generated_Source\PSoC4/UART_EZI2C.c ****             /* Adjust AF and DF filter settings, AF = 1, DF = 0. Ticket ID#176179 */
 118:.\Generated_Source\PSoC4/UART_EZI2C.c ****             UART_I2C_CFG_ANALOG_FITER_ENABLE;
 119:.\Generated_Source\PSoC4/UART_EZI2C.c **** 
 120:.\Generated_Source\PSoC4/UART_EZI2C.c ****             /* Configure I2C interface */
 121:.\Generated_Source\PSoC4/UART_EZI2C.c ****             UART_CTRL_REG     = UART_GET_CTRL_BYTE_MODE  (config->enableByteMode)    |
 122:.\Generated_Source\PSoC4/UART_EZI2C.c ****                                             UART_GET_CTRL_ADDR_ACCEPT(config->numberOfAddresses) |
 123:.\Generated_Source\PSoC4/UART_EZI2C.c ****                                             UART_GET_CTRL_EC_AM_MODE (config->enableWake);
 124:.\Generated_Source\PSoC4/UART_EZI2C.c **** 
 125:.\Generated_Source\PSoC4/UART_EZI2C.c ****             UART_I2C_CTRL_REG = UART_EZI2C_CTRL;
 126:.\Generated_Source\PSoC4/UART_EZI2C.c **** 
 127:.\Generated_Source\PSoC4/UART_EZI2C.c ****             /* Configure RX direction */
 128:.\Generated_Source\PSoC4/UART_EZI2C.c ****             UART_RX_CTRL_REG = UART_EZI2C_RX_CTRL |
 129:.\Generated_Source\PSoC4/UART_EZI2C.c ****                                         UART_GET_RX_CTRL_MEDIAN(UART_DIGITAL_FILTER_DISABLE);
 130:.\Generated_Source\PSoC4/UART_EZI2C.c ****                                                 ;
 131:.\Generated_Source\PSoC4/UART_EZI2C.c ****             UART_RX_FIFO_CTRL_REG = UART_CLEAR_REG;
 132:.\Generated_Source\PSoC4/UART_EZI2C.c **** 
 133:.\Generated_Source\PSoC4/UART_EZI2C.c ****             /* Set default address and mask */
 134:.\Generated_Source\PSoC4/UART_EZI2C.c ****             if(UART_EZI2C_PRIMARY_ADDRESS == config->numberOfAddresses)
 135:.\Generated_Source\PSoC4/UART_EZI2C.c ****             {
 136:.\Generated_Source\PSoC4/UART_EZI2C.c ****                 UART_RX_MATCH_REG = UART_EzI2CUpdateRxMatchReg(config->primarySlaveAddr,
 137:.\Generated_Source\PSoC4/UART_EZI2C.c ****                                                                                        config->prim
 138:.\Generated_Source\PSoC4/UART_EZI2C.c ****             }
 139:.\Generated_Source\PSoC4/UART_EZI2C.c ****             else
 140:.\Generated_Source\PSoC4/UART_EZI2C.c ****             {
 141:.\Generated_Source\PSoC4/UART_EZI2C.c ****                 UART_RX_MATCH_REG = UART_EzI2CUpdateRxMatchReg(config->primarySlaveAddr,
 142:.\Generated_Source\PSoC4/UART_EZI2C.c ****                                                                                        config->seco
 143:.\Generated_Source\PSoC4/UART_EZI2C.c ****             }
 144:.\Generated_Source\PSoC4/UART_EZI2C.c **** 
 145:.\Generated_Source\PSoC4/UART_EZI2C.c ****             /* Configure TX direction */
 146:.\Generated_Source\PSoC4/UART_EZI2C.c ****             UART_TX_CTRL_REG      = UART_EZI2C_TX_CTRL;
 147:.\Generated_Source\PSoC4/UART_EZI2C.c ****             UART_TX_FIFO_CTRL_REG = ((0u != (config->enableClockStretch)) ?
ARM GAS  C:\Users\Helon\AppData\Local\Temp\ccieO5Yt.s 			page 4


 148:.\Generated_Source\PSoC4/UART_EZI2C.c ****                                                  UART_CLEAR_REG : UART_EZI2C_TX_FIFO_CTRL);
 149:.\Generated_Source\PSoC4/UART_EZI2C.c **** 
 150:.\Generated_Source\PSoC4/UART_EZI2C.c ****             /* Configure interrupt sources */
 151:.\Generated_Source\PSoC4/UART_EZI2C.c ****         #if (!UART_CY_SCBIP_V1)
 152:.\Generated_Source\PSoC4/UART_EZI2C.c ****            UART_INTR_SPI_EC_MASK_REG = UART_NO_INTR_SOURCES;
 153:.\Generated_Source\PSoC4/UART_EZI2C.c ****         #endif /* (!UART_CY_SCBIP_V1) */
 154:.\Generated_Source\PSoC4/UART_EZI2C.c **** 
 155:.\Generated_Source\PSoC4/UART_EZI2C.c ****             UART_INTR_I2C_EC_MASK_REG = UART_NO_INTR_SOURCES;
 156:.\Generated_Source\PSoC4/UART_EZI2C.c ****             UART_INTR_MASTER_MASK_REG = UART_NO_INTR_SOURCES;
 157:.\Generated_Source\PSoC4/UART_EZI2C.c ****             UART_INTR_SLAVE_MASK_REG  = UART_EZI2C_INTR_SLAVE_MASK;
 158:.\Generated_Source\PSoC4/UART_EZI2C.c ****             UART_INTR_TX_MASK_REG     = UART_NO_INTR_SOURCES;
 159:.\Generated_Source\PSoC4/UART_EZI2C.c **** 
 160:.\Generated_Source\PSoC4/UART_EZI2C.c ****             /* Configure interrupt with EZI2C handler but do not enable it */
 161:.\Generated_Source\PSoC4/UART_EZI2C.c ****             CyIntDisable    (UART_ISR_NUMBER);
 162:.\Generated_Source\PSoC4/UART_EZI2C.c ****             CyIntSetPriority(UART_ISR_NUMBER, UART_ISR_PRIORITY);
 163:.\Generated_Source\PSoC4/UART_EZI2C.c ****             (void) CyIntSetVector(UART_ISR_NUMBER, (0u != (config->enableClockStretch)) ?
 164:.\Generated_Source\PSoC4/UART_EZI2C.c ****                                                                       (&UART_EZI2C_STRETCH_ISR) :
 165:.\Generated_Source\PSoC4/UART_EZI2C.c ****                                                                       (&UART_EZI2C_NO_STRETCH_ISR))
 166:.\Generated_Source\PSoC4/UART_EZI2C.c **** 
 167:.\Generated_Source\PSoC4/UART_EZI2C.c ****             if(0u != (config->enableClockStretch))
 168:.\Generated_Source\PSoC4/UART_EZI2C.c ****             {
 169:.\Generated_Source\PSoC4/UART_EZI2C.c ****                 /* Configure interrupt sources */
 170:.\Generated_Source\PSoC4/UART_EZI2C.c ****                 UART_INTR_SLAVE_MASK_REG |= UART_INTR_SLAVE_I2C_ADDR_MATCH;
 171:.\Generated_Source\PSoC4/UART_EZI2C.c ****                 UART_INTR_RX_MASK_REG     = UART_NO_INTR_SOURCES;
 172:.\Generated_Source\PSoC4/UART_EZI2C.c ****             }
 173:.\Generated_Source\PSoC4/UART_EZI2C.c ****             else
 174:.\Generated_Source\PSoC4/UART_EZI2C.c ****             {
 175:.\Generated_Source\PSoC4/UART_EZI2C.c ****                 /* Enable Auto ACK/NACK features */
 176:.\Generated_Source\PSoC4/UART_EZI2C.c ****                 UART_I2C_CTRL_REG |= UART_EZI2C_CTRL_AUTO;
 177:.\Generated_Source\PSoC4/UART_EZI2C.c **** 
 178:.\Generated_Source\PSoC4/UART_EZI2C.c ****                 /* Configure RX interrupt source */
 179:.\Generated_Source\PSoC4/UART_EZI2C.c ****                 UART_INTR_SLAVE_MASK_REG |= UART_INTR_SLAVE_I2C_START;
 180:.\Generated_Source\PSoC4/UART_EZI2C.c ****                 UART_INTR_RX_MASK_REG     = UART_INTR_RX_NOT_EMPTY;
 181:.\Generated_Source\PSoC4/UART_EZI2C.c ****             }
 182:.\Generated_Source\PSoC4/UART_EZI2C.c **** 
 183:.\Generated_Source\PSoC4/UART_EZI2C.c ****             /* Configure global variables */
 184:.\Generated_Source\PSoC4/UART_EZI2C.c ****             UART_fsmState = UART_EZI2C_FSM_IDLE;
 185:.\Generated_Source\PSoC4/UART_EZI2C.c **** 
 186:.\Generated_Source\PSoC4/UART_EZI2C.c ****             UART_curStatus  = 0u;
 187:.\Generated_Source\PSoC4/UART_EZI2C.c ****             UART_indexBuf1  = 0u;
 188:.\Generated_Source\PSoC4/UART_EZI2C.c ****             UART_offsetBuf1 = 0u;
 189:.\Generated_Source\PSoC4/UART_EZI2C.c ****             UART_indexBuf2  = 0u;
 190:.\Generated_Source\PSoC4/UART_EZI2C.c ****             UART_offsetBuf2 = 0u;
 191:.\Generated_Source\PSoC4/UART_EZI2C.c **** 
 192:.\Generated_Source\PSoC4/UART_EZI2C.c ****             UART_addrBuf1 = (uint8) config->primarySlaveAddr;
 193:.\Generated_Source\PSoC4/UART_EZI2C.c ****             UART_addrBuf2 = (uint8) config->secondarySlaveAddr;
 194:.\Generated_Source\PSoC4/UART_EZI2C.c ****         }
 195:.\Generated_Source\PSoC4/UART_EZI2C.c ****     }
 196:.\Generated_Source\PSoC4/UART_EZI2C.c **** 
 197:.\Generated_Source\PSoC4/UART_EZI2C.c **** #else
 198:.\Generated_Source\PSoC4/UART_EZI2C.c **** 
 199:.\Generated_Source\PSoC4/UART_EZI2C.c ****     /*******************************************************************************
 200:.\Generated_Source\PSoC4/UART_EZI2C.c ****     * Function Name: UART_EzI2CInit
 201:.\Generated_Source\PSoC4/UART_EZI2C.c ****     ********************************************************************************
 202:.\Generated_Source\PSoC4/UART_EZI2C.c ****     *
 203:.\Generated_Source\PSoC4/UART_EZI2C.c ****     * Summary:
 204:.\Generated_Source\PSoC4/UART_EZI2C.c ****     *  Configures the SCB for the EZI2C operation.
ARM GAS  C:\Users\Helon\AppData\Local\Temp\ccieO5Yt.s 			page 5


 205:.\Generated_Source\PSoC4/UART_EZI2C.c ****     *
 206:.\Generated_Source\PSoC4/UART_EZI2C.c ****     * Parameters:
 207:.\Generated_Source\PSoC4/UART_EZI2C.c ****     *  None
 208:.\Generated_Source\PSoC4/UART_EZI2C.c ****     *
 209:.\Generated_Source\PSoC4/UART_EZI2C.c ****     * Return:
 210:.\Generated_Source\PSoC4/UART_EZI2C.c ****     *  None
 211:.\Generated_Source\PSoC4/UART_EZI2C.c ****     *
 212:.\Generated_Source\PSoC4/UART_EZI2C.c ****     *******************************************************************************/
 213:.\Generated_Source\PSoC4/UART_EZI2C.c ****     void UART_EzI2CInit(void)
 214:.\Generated_Source\PSoC4/UART_EZI2C.c ****     {
 215:.\Generated_Source\PSoC4/UART_EZI2C.c ****         /* Configure I2C interface */
 216:.\Generated_Source\PSoC4/UART_EZI2C.c ****         UART_CTRL_REG     = UART_EZI2C_DEFAULT_CTRL;
 217:.\Generated_Source\PSoC4/UART_EZI2C.c ****         UART_I2C_CTRL_REG = UART_EZI2C_DEFAULT_I2C_CTRL;
 218:.\Generated_Source\PSoC4/UART_EZI2C.c **** 
 219:.\Generated_Source\PSoC4/UART_EZI2C.c ****     #if (UART_CY_SCBIP_V0)
 220:.\Generated_Source\PSoC4/UART_EZI2C.c ****         /* Adjust SDA filter settings. Ticket ID#150521 */
 221:.\Generated_Source\PSoC4/UART_EZI2C.c ****         UART_SET_I2C_CFG_SDA_FILT_TRIM(UART_EC_AM_I2C_CFG_SDA_FILT_TRIM);
 222:.\Generated_Source\PSoC4/UART_EZI2C.c ****     #endif /* (UART_CY_SCBIP_V0) */
 223:.\Generated_Source\PSoC4/UART_EZI2C.c **** 
 224:.\Generated_Source\PSoC4/UART_EZI2C.c ****         /* Configure RX direction */
 225:.\Generated_Source\PSoC4/UART_EZI2C.c ****         UART_RX_CTRL_REG      = UART_EZI2C_DEFAULT_RX_CTRL;
 226:.\Generated_Source\PSoC4/UART_EZI2C.c ****         UART_RX_FIFO_CTRL_REG = UART_EZI2C_DEFAULT_RX_FIFO_CTRL;
 227:.\Generated_Source\PSoC4/UART_EZI2C.c **** 
 228:.\Generated_Source\PSoC4/UART_EZI2C.c ****         /* Set default address and mask */
 229:.\Generated_Source\PSoC4/UART_EZI2C.c ****         UART_RX_MATCH_REG     = UART_EZI2C_DEFAULT_RX_MATCH;
 230:.\Generated_Source\PSoC4/UART_EZI2C.c **** 
 231:.\Generated_Source\PSoC4/UART_EZI2C.c ****         /* Configure TX direction */
 232:.\Generated_Source\PSoC4/UART_EZI2C.c ****         UART_TX_CTRL_REG      = UART_EZI2C_DEFAULT_TX_CTRL;
 233:.\Generated_Source\PSoC4/UART_EZI2C.c ****         UART_TX_FIFO_CTRL_REG = UART_EZI2C_DEFAULT_TX_FIFO_CTRL;
 234:.\Generated_Source\PSoC4/UART_EZI2C.c **** 
 235:.\Generated_Source\PSoC4/UART_EZI2C.c ****         /* Configure interrupt with EZI2C handler but do not enable it */
 236:.\Generated_Source\PSoC4/UART_EZI2C.c ****     #if !defined (CY_EXTERNAL_INTERRUPT_CONFIG)
 237:.\Generated_Source\PSoC4/UART_EZI2C.c ****         CyIntDisable    (UART_ISR_NUMBER);
 238:.\Generated_Source\PSoC4/UART_EZI2C.c ****         CyIntSetPriority(UART_ISR_NUMBER, UART_ISR_PRIORITY);
 239:.\Generated_Source\PSoC4/UART_EZI2C.c **** 
 240:.\Generated_Source\PSoC4/UART_EZI2C.c ****     #if (UART_EZI2C_SCL_STRETCH_ENABLE_CONST)
 241:.\Generated_Source\PSoC4/UART_EZI2C.c ****         (void) CyIntSetVector(UART_ISR_NUMBER, &UART_EZI2C_STRETCH_ISR);
 242:.\Generated_Source\PSoC4/UART_EZI2C.c ****     #else
 243:.\Generated_Source\PSoC4/UART_EZI2C.c ****         (void) CyIntSetVector(UART_ISR_NUMBER, &UART_EZI2C_NO_STRETCH_ISR);
 244:.\Generated_Source\PSoC4/UART_EZI2C.c ****     #endif /* (UART_EZI2C_SCL_STRETCH_ENABLE_CONST) */
 245:.\Generated_Source\PSoC4/UART_EZI2C.c **** 
 246:.\Generated_Source\PSoC4/UART_EZI2C.c ****     #endif /* !defined (CY_EXTERNAL_INTERRUPT_CONFIG) */
 247:.\Generated_Source\PSoC4/UART_EZI2C.c **** 
 248:.\Generated_Source\PSoC4/UART_EZI2C.c ****         /* Configure interrupt sources */
 249:.\Generated_Source\PSoC4/UART_EZI2C.c ****     #if (!UART_CY_SCBIP_V1)
 250:.\Generated_Source\PSoC4/UART_EZI2C.c ****         UART_INTR_SPI_EC_MASK_REG = UART_EZI2C_DEFAULT_INTR_SPI_EC_MASK;
 251:.\Generated_Source\PSoC4/UART_EZI2C.c ****     #endif /* (!UART_CY_SCBIP_V1) */
 252:.\Generated_Source\PSoC4/UART_EZI2C.c **** 
 253:.\Generated_Source\PSoC4/UART_EZI2C.c ****         UART_INTR_I2C_EC_MASK_REG = UART_EZI2C_DEFAULT_INTR_I2C_EC_MASK;
 254:.\Generated_Source\PSoC4/UART_EZI2C.c ****         UART_INTR_SLAVE_MASK_REG  = UART_EZI2C_DEFAULT_INTR_SLAVE_MASK;
 255:.\Generated_Source\PSoC4/UART_EZI2C.c ****         UART_INTR_MASTER_MASK_REG = UART_EZI2C_DEFAULT_INTR_MASTER_MASK;
 256:.\Generated_Source\PSoC4/UART_EZI2C.c ****         UART_INTR_RX_MASK_REG     = UART_EZI2C_DEFAULT_INTR_RX_MASK;
 257:.\Generated_Source\PSoC4/UART_EZI2C.c ****         UART_INTR_TX_MASK_REG     = UART_EZI2C_DEFAULT_INTR_TX_MASK;
 258:.\Generated_Source\PSoC4/UART_EZI2C.c **** 
 259:.\Generated_Source\PSoC4/UART_EZI2C.c ****         /* Configure global variables */
 260:.\Generated_Source\PSoC4/UART_EZI2C.c ****         UART_fsmState = UART_EZI2C_FSM_IDLE;
 261:.\Generated_Source\PSoC4/UART_EZI2C.c **** 
ARM GAS  C:\Users\Helon\AppData\Local\Temp\ccieO5Yt.s 			page 6


 262:.\Generated_Source\PSoC4/UART_EZI2C.c ****         UART_curStatus  = 0u;
 263:.\Generated_Source\PSoC4/UART_EZI2C.c ****         UART_indexBuf1  = 0u;
 264:.\Generated_Source\PSoC4/UART_EZI2C.c ****         UART_offsetBuf1 = 0u;
 265:.\Generated_Source\PSoC4/UART_EZI2C.c **** 
 266:.\Generated_Source\PSoC4/UART_EZI2C.c ****     #if(UART_SECONDARY_ADDRESS_ENABLE_CONST)
 267:.\Generated_Source\PSoC4/UART_EZI2C.c ****         UART_indexBuf2  = 0u;
 268:.\Generated_Source\PSoC4/UART_EZI2C.c ****         UART_offsetBuf2 = 0u;
 269:.\Generated_Source\PSoC4/UART_EZI2C.c **** 
 270:.\Generated_Source\PSoC4/UART_EZI2C.c ****         UART_addrBuf1 = UART_EZI2C_PRIMARY_SLAVE_ADDRESS;
 271:.\Generated_Source\PSoC4/UART_EZI2C.c ****         UART_addrBuf2 = UART_EZI2C_SECONDARY_SLAVE_ADDRESS;
 272:.\Generated_Source\PSoC4/UART_EZI2C.c ****     #endif /* (UART_SECONDARY_ADDRESS_ENABLE_CONST) */
 273:.\Generated_Source\PSoC4/UART_EZI2C.c ****     }
 274:.\Generated_Source\PSoC4/UART_EZI2C.c **** #endif /* (UART_SCB_MODE_UNCONFIG_CONST_CFG) */
 275:.\Generated_Source\PSoC4/UART_EZI2C.c **** 
 276:.\Generated_Source\PSoC4/UART_EZI2C.c **** 
 277:.\Generated_Source\PSoC4/UART_EZI2C.c **** /*******************************************************************************
 278:.\Generated_Source\PSoC4/UART_EZI2C.c **** * Function Name: UART_EzI2CStop
 279:.\Generated_Source\PSoC4/UART_EZI2C.c **** ********************************************************************************
 280:.\Generated_Source\PSoC4/UART_EZI2C.c **** *
 281:.\Generated_Source\PSoC4/UART_EZI2C.c **** * Summary:
 282:.\Generated_Source\PSoC4/UART_EZI2C.c **** *  Resets the EZI2C FSM into the default state.
 283:.\Generated_Source\PSoC4/UART_EZI2C.c **** *
 284:.\Generated_Source\PSoC4/UART_EZI2C.c **** * Parameters:
 285:.\Generated_Source\PSoC4/UART_EZI2C.c **** *  None
 286:.\Generated_Source\PSoC4/UART_EZI2C.c **** *
 287:.\Generated_Source\PSoC4/UART_EZI2C.c **** * Return:
 288:.\Generated_Source\PSoC4/UART_EZI2C.c **** *  None
 289:.\Generated_Source\PSoC4/UART_EZI2C.c **** *
 290:.\Generated_Source\PSoC4/UART_EZI2C.c **** *******************************************************************************/
 291:.\Generated_Source\PSoC4/UART_EZI2C.c **** void UART_EzI2CStop(void)
 292:.\Generated_Source\PSoC4/UART_EZI2C.c **** {
 293:.\Generated_Source\PSoC4/UART_EZI2C.c ****     UART_fsmState = UART_EZI2C_FSM_IDLE;
 294:.\Generated_Source\PSoC4/UART_EZI2C.c **** }
 295:.\Generated_Source\PSoC4/UART_EZI2C.c **** 
 296:.\Generated_Source\PSoC4/UART_EZI2C.c **** 
 297:.\Generated_Source\PSoC4/UART_EZI2C.c **** /*******************************************************************************
 298:.\Generated_Source\PSoC4/UART_EZI2C.c **** * Function Name: UART_EzI2CGetActivity
 299:.\Generated_Source\PSoC4/UART_EZI2C.c **** ********************************************************************************
 300:.\Generated_Source\PSoC4/UART_EZI2C.c **** *
 301:.\Generated_Source\PSoC4/UART_EZI2C.c **** * Summary:
 302:.\Generated_Source\PSoC4/UART_EZI2C.c **** *  Returns the EZI2C slave status.
 303:.\Generated_Source\PSoC4/UART_EZI2C.c **** *  The read, write and error status flags reset to zero after this function
 304:.\Generated_Source\PSoC4/UART_EZI2C.c **** *  call. The busy status flag is cleared when the transaction intended for
 305:.\Generated_Source\PSoC4/UART_EZI2C.c **** *  the EZI2C slave completes.
 306:.\Generated_Source\PSoC4/UART_EZI2C.c **** *
 307:.\Generated_Source\PSoC4/UART_EZI2C.c **** * Parameters:
 308:.\Generated_Source\PSoC4/UART_EZI2C.c **** *  None
 309:.\Generated_Source\PSoC4/UART_EZI2C.c **** *
 310:.\Generated_Source\PSoC4/UART_EZI2C.c **** * Return:
 311:.\Generated_Source\PSoC4/UART_EZI2C.c **** *  Returns the status of the EZI2C Slave activity.
 312:.\Generated_Source\PSoC4/UART_EZI2C.c **** *
 313:.\Generated_Source\PSoC4/UART_EZI2C.c **** *******************************************************************************/
 314:.\Generated_Source\PSoC4/UART_EZI2C.c **** uint32 UART_EzI2CGetActivity(void)
 315:.\Generated_Source\PSoC4/UART_EZI2C.c **** {
 316:.\Generated_Source\PSoC4/UART_EZI2C.c ****     uint32 status;
 317:.\Generated_Source\PSoC4/UART_EZI2C.c **** 
 318:.\Generated_Source\PSoC4/UART_EZI2C.c ****     UART_DisableInt();  /* Lock from interruption */
ARM GAS  C:\Users\Helon\AppData\Local\Temp\ccieO5Yt.s 			page 7


 319:.\Generated_Source\PSoC4/UART_EZI2C.c **** 
 320:.\Generated_Source\PSoC4/UART_EZI2C.c ****     status = UART_curStatus;
 321:.\Generated_Source\PSoC4/UART_EZI2C.c **** 
 322:.\Generated_Source\PSoC4/UART_EZI2C.c ****     /* Relay on address match event from HW as bus busy status */
 323:.\Generated_Source\PSoC4/UART_EZI2C.c ****     if(UART_EZI2C_SCL_STRETCH_DISABLE)
 324:.\Generated_Source\PSoC4/UART_EZI2C.c ****     {
 325:.\Generated_Source\PSoC4/UART_EZI2C.c ****         /* For UART_CY_SCBIP_V0 the wake is prohibited by customizer */
 326:.\Generated_Source\PSoC4/UART_EZI2C.c ****         if(UART_EZI2C_EC_AM_ENABLE)
 327:.\Generated_Source\PSoC4/UART_EZI2C.c ****         {
 328:.\Generated_Source\PSoC4/UART_EZI2C.c ****             status |= UART_CHECK_INTR_I2C_EC(UART_INTR_I2C_EC_WAKE_UP) ?
 329:.\Generated_Source\PSoC4/UART_EZI2C.c ****                         UART_EZI2C_STATUS_BUSY : 0u;
 330:.\Generated_Source\PSoC4/UART_EZI2C.c ****         }
 331:.\Generated_Source\PSoC4/UART_EZI2C.c ****         else
 332:.\Generated_Source\PSoC4/UART_EZI2C.c ****         {
 333:.\Generated_Source\PSoC4/UART_EZI2C.c ****             status |= UART_CHECK_INTR_SLAVE(UART_INTR_SLAVE_I2C_ADDR_MATCH) ?
 334:.\Generated_Source\PSoC4/UART_EZI2C.c ****                         UART_EZI2C_STATUS_BUSY : 0u;
 335:.\Generated_Source\PSoC4/UART_EZI2C.c ****         }
 336:.\Generated_Source\PSoC4/UART_EZI2C.c ****         
 337:.\Generated_Source\PSoC4/UART_EZI2C.c ****     }
 338:.\Generated_Source\PSoC4/UART_EZI2C.c ****     
 339:.\Generated_Source\PSoC4/UART_EZI2C.c **** 
 340:.\Generated_Source\PSoC4/UART_EZI2C.c ****     UART_curStatus &= ((uint8) ~UART_EZI2C_CLEAR_STATUS);
 341:.\Generated_Source\PSoC4/UART_EZI2C.c **** 
 342:.\Generated_Source\PSoC4/UART_EZI2C.c ****     UART_EnableInt();   /* Release lock */
 343:.\Generated_Source\PSoC4/UART_EZI2C.c **** 
 344:.\Generated_Source\PSoC4/UART_EZI2C.c ****     return(status);
 345:.\Generated_Source\PSoC4/UART_EZI2C.c **** }
 346:.\Generated_Source\PSoC4/UART_EZI2C.c **** 
 347:.\Generated_Source\PSoC4/UART_EZI2C.c **** 
 348:.\Generated_Source\PSoC4/UART_EZI2C.c **** /*******************************************************************************
 349:.\Generated_Source\PSoC4/UART_EZI2C.c **** * Function Name: UART_EzI2CSetAddress1
 350:.\Generated_Source\PSoC4/UART_EZI2C.c **** ********************************************************************************
 351:.\Generated_Source\PSoC4/UART_EZI2C.c **** *
 352:.\Generated_Source\PSoC4/UART_EZI2C.c **** * Summary:
 353:.\Generated_Source\PSoC4/UART_EZI2C.c **** *  Sets the primary I2C slave address.
 354:.\Generated_Source\PSoC4/UART_EZI2C.c **** *
 355:.\Generated_Source\PSoC4/UART_EZI2C.c **** * Parameters:
 356:.\Generated_Source\PSoC4/UART_EZI2C.c **** *  address: I2C slave address for the secondary device.
 357:.\Generated_Source\PSoC4/UART_EZI2C.c **** *           This address is the 7-bit right-justified slave address and does
 358:.\Generated_Source\PSoC4/UART_EZI2C.c **** *           not include the R/W bit.
 359:.\Generated_Source\PSoC4/UART_EZI2C.c **** *           This value may be any address between 0 and 127 (0x00 to 0x7F).
 360:.\Generated_Source\PSoC4/UART_EZI2C.c **** *
 361:.\Generated_Source\PSoC4/UART_EZI2C.c **** * Return:
 362:.\Generated_Source\PSoC4/UART_EZI2C.c **** *  None
 363:.\Generated_Source\PSoC4/UART_EZI2C.c **** *
 364:.\Generated_Source\PSoC4/UART_EZI2C.c **** *******************************************************************************/
 365:.\Generated_Source\PSoC4/UART_EZI2C.c **** void UART_EzI2CSetAddress1(uint32 address)
 366:.\Generated_Source\PSoC4/UART_EZI2C.c **** {
 367:.\Generated_Source\PSoC4/UART_EZI2C.c ****     if(UART_SECONDARY_ADDRESS_ENABLE)
 368:.\Generated_Source\PSoC4/UART_EZI2C.c ****     {
 369:.\Generated_Source\PSoC4/UART_EZI2C.c ****         UART_addrBuf1 = (uint8) address;
 370:.\Generated_Source\PSoC4/UART_EZI2C.c **** 
 371:.\Generated_Source\PSoC4/UART_EZI2C.c ****         UART_RX_MATCH_REG = UART_EzI2CUpdateRxMatchReg(address,
 372:.\Generated_Source\PSoC4/UART_EZI2C.c ****                                                                                (uint32) UART_addrBu
 373:.\Generated_Source\PSoC4/UART_EZI2C.c ****     }
 374:.\Generated_Source\PSoC4/UART_EZI2C.c ****     else
 375:.\Generated_Source\PSoC4/UART_EZI2C.c ****     {
ARM GAS  C:\Users\Helon\AppData\Local\Temp\ccieO5Yt.s 			page 8


 376:.\Generated_Source\PSoC4/UART_EZI2C.c ****         uint32 matchReg;
 377:.\Generated_Source\PSoC4/UART_EZI2C.c **** 
 378:.\Generated_Source\PSoC4/UART_EZI2C.c ****         matchReg = UART_RX_MATCH_REG;
 379:.\Generated_Source\PSoC4/UART_EZI2C.c **** 
 380:.\Generated_Source\PSoC4/UART_EZI2C.c ****         matchReg &= ((uint32) ~UART_RX_MATCH_ADDR_MASK);            /* Clear address bits */
 381:.\Generated_Source\PSoC4/UART_EZI2C.c ****         matchReg |= ((uint32)  UART_GET_I2C_8BIT_ADDRESS(address)); /* Set mask */
 382:.\Generated_Source\PSoC4/UART_EZI2C.c **** 
 383:.\Generated_Source\PSoC4/UART_EZI2C.c ****         UART_RX_MATCH_REG = matchReg;
 384:.\Generated_Source\PSoC4/UART_EZI2C.c ****     }
 385:.\Generated_Source\PSoC4/UART_EZI2C.c ****     
 386:.\Generated_Source\PSoC4/UART_EZI2C.c **** }
 387:.\Generated_Source\PSoC4/UART_EZI2C.c **** 
 388:.\Generated_Source\PSoC4/UART_EZI2C.c **** 
 389:.\Generated_Source\PSoC4/UART_EZI2C.c **** /*******************************************************************************
 390:.\Generated_Source\PSoC4/UART_EZI2C.c **** * Function Name: UART_EzI2CGetAddress1
 391:.\Generated_Source\PSoC4/UART_EZI2C.c **** ********************************************************************************
 392:.\Generated_Source\PSoC4/UART_EZI2C.c **** *
 393:.\Generated_Source\PSoC4/UART_EZI2C.c **** * Summary:
 394:.\Generated_Source\PSoC4/UART_EZI2C.c **** *  Gets the primary I2C slave 7-bit address.
 395:.\Generated_Source\PSoC4/UART_EZI2C.c **** *
 396:.\Generated_Source\PSoC4/UART_EZI2C.c **** * Parameters:
 397:.\Generated_Source\PSoC4/UART_EZI2C.c **** *  None
 398:.\Generated_Source\PSoC4/UART_EZI2C.c **** *
 399:.\Generated_Source\PSoC4/UART_EZI2C.c **** * Return:
 400:.\Generated_Source\PSoC4/UART_EZI2C.c **** *  Returns I2C slave address for the primary device.
 401:.\Generated_Source\PSoC4/UART_EZI2C.c **** *  This address is the 7-bit right-justified slave address and does not
 402:.\Generated_Source\PSoC4/UART_EZI2C.c **** *  include the R/W bit.
 403:.\Generated_Source\PSoC4/UART_EZI2C.c **** *  This value may be any address between 0 and 127 (0x00 to 0x7F).
 404:.\Generated_Source\PSoC4/UART_EZI2C.c **** *
 405:.\Generated_Source\PSoC4/UART_EZI2C.c **** *******************************************************************************/
 406:.\Generated_Source\PSoC4/UART_EZI2C.c **** uint32 UART_EzI2CGetAddress1(void)
 407:.\Generated_Source\PSoC4/UART_EZI2C.c **** {
 408:.\Generated_Source\PSoC4/UART_EZI2C.c ****     uint32 address;
 409:.\Generated_Source\PSoC4/UART_EZI2C.c **** 
 410:.\Generated_Source\PSoC4/UART_EZI2C.c ****     if(UART_SECONDARY_ADDRESS_ENABLE)
 411:.\Generated_Source\PSoC4/UART_EZI2C.c ****     {
 412:.\Generated_Source\PSoC4/UART_EZI2C.c ****         address = (uint32) UART_addrBuf1;
 413:.\Generated_Source\PSoC4/UART_EZI2C.c ****     }
 414:.\Generated_Source\PSoC4/UART_EZI2C.c ****     else
 415:.\Generated_Source\PSoC4/UART_EZI2C.c ****     {
 416:.\Generated_Source\PSoC4/UART_EZI2C.c ****         address = (UART_GET_RX_MATCH_ADDR(UART_RX_MATCH_REG) >>
 417:.\Generated_Source\PSoC4/UART_EZI2C.c ****                    UART_I2C_SLAVE_ADDR_POS);
 418:.\Generated_Source\PSoC4/UART_EZI2C.c ****     }
 419:.\Generated_Source\PSoC4/UART_EZI2C.c ****     
 420:.\Generated_Source\PSoC4/UART_EZI2C.c **** 
 421:.\Generated_Source\PSoC4/UART_EZI2C.c ****     return(address);
 422:.\Generated_Source\PSoC4/UART_EZI2C.c **** }
 423:.\Generated_Source\PSoC4/UART_EZI2C.c **** 
 424:.\Generated_Source\PSoC4/UART_EZI2C.c **** 
 425:.\Generated_Source\PSoC4/UART_EZI2C.c **** /*******************************************************************************
 426:.\Generated_Source\PSoC4/UART_EZI2C.c **** * Function Name: UART_EzI2CSetBuffer1
 427:.\Generated_Source\PSoC4/UART_EZI2C.c **** ********************************************************************************
 428:.\Generated_Source\PSoC4/UART_EZI2C.c **** *
 429:.\Generated_Source\PSoC4/UART_EZI2C.c **** * Summary:
 430:.\Generated_Source\PSoC4/UART_EZI2C.c **** *  Sets up the data buffer to be exposed to the I2C master on a primary slave
 431:.\Generated_Source\PSoC4/UART_EZI2C.c **** *  address request.
 432:.\Generated_Source\PSoC4/UART_EZI2C.c **** *
ARM GAS  C:\Users\Helon\AppData\Local\Temp\ccieO5Yt.s 			page 9


 433:.\Generated_Source\PSoC4/UART_EZI2C.c **** * Parameters:
 434:.\Generated_Source\PSoC4/UART_EZI2C.c **** *  bufSize: Size of the buffer in bytes.
 435:.\Generated_Source\PSoC4/UART_EZI2C.c **** *  rwBoundary: Sets how many bytes are writeable in the beginning of the buffer.
 436:.\Generated_Source\PSoC4/UART_EZI2C.c **** *              This value must be less than or equal to the buffer size.
 437:.\Generated_Source\PSoC4/UART_EZI2C.c **** *              Data located at offset rwBoundry and greater are read only.
 438:.\Generated_Source\PSoC4/UART_EZI2C.c **** *  buffer: Pointer to the data buffer.
 439:.\Generated_Source\PSoC4/UART_EZI2C.c **** *
 440:.\Generated_Source\PSoC4/UART_EZI2C.c **** * Return:
 441:.\Generated_Source\PSoC4/UART_EZI2C.c **** *  None
 442:.\Generated_Source\PSoC4/UART_EZI2C.c **** *
 443:.\Generated_Source\PSoC4/UART_EZI2C.c **** *******************************************************************************/
 444:.\Generated_Source\PSoC4/UART_EZI2C.c **** void UART_EzI2CSetBuffer1(uint32 bufSize, uint32 rwBoundary, volatile uint8 * buffer)
 445:.\Generated_Source\PSoC4/UART_EZI2C.c **** {
 446:.\Generated_Source\PSoC4/UART_EZI2C.c ****     if (NULL != buffer)
 447:.\Generated_Source\PSoC4/UART_EZI2C.c ****     {
 448:.\Generated_Source\PSoC4/UART_EZI2C.c ****         UART_DisableInt();  /* Lock from interruption */
 449:.\Generated_Source\PSoC4/UART_EZI2C.c **** 
 450:.\Generated_Source\PSoC4/UART_EZI2C.c ****         UART_dataBuffer1 =  buffer;
 451:.\Generated_Source\PSoC4/UART_EZI2C.c ****         UART_bufSizeBuf1 = (uint16) bufSize;
 452:.\Generated_Source\PSoC4/UART_EZI2C.c ****         UART_protectBuf1 = (uint16) rwBoundary;
 453:.\Generated_Source\PSoC4/UART_EZI2C.c **** 
 454:.\Generated_Source\PSoC4/UART_EZI2C.c ****         UART_EnableInt();   /* Release lock */
 455:.\Generated_Source\PSoC4/UART_EZI2C.c ****     }
 456:.\Generated_Source\PSoC4/UART_EZI2C.c **** }
 457:.\Generated_Source\PSoC4/UART_EZI2C.c **** 
 458:.\Generated_Source\PSoC4/UART_EZI2C.c **** 
 459:.\Generated_Source\PSoC4/UART_EZI2C.c **** /*******************************************************************************
 460:.\Generated_Source\PSoC4/UART_EZI2C.c **** * Function Name: UART_EzI2CSetReadBoundaryBuffer1
 461:.\Generated_Source\PSoC4/UART_EZI2C.c **** ********************************************************************************
 462:.\Generated_Source\PSoC4/UART_EZI2C.c **** *
 463:.\Generated_Source\PSoC4/UART_EZI2C.c **** * Summary:
 464:.\Generated_Source\PSoC4/UART_EZI2C.c **** *  Sets the read only boundary in the data buffer to be exposed to the I2C
 465:.\Generated_Source\PSoC4/UART_EZI2C.c **** *  master on a primary slave address request.
 466:.\Generated_Source\PSoC4/UART_EZI2C.c **** *
 467:.\Generated_Source\PSoC4/UART_EZI2C.c **** * Parameters:
 468:.\Generated_Source\PSoC4/UART_EZI2C.c **** *  rwBoundry: Sets how many bytes are writeable in the beginning of the buffer.
 469:.\Generated_Source\PSoC4/UART_EZI2C.c **** *             This value must be less than or equal to the buffer size.
 470:.\Generated_Source\PSoC4/UART_EZI2C.c **** *             Data located at offset rwBoundry and greater are read only.
 471:.\Generated_Source\PSoC4/UART_EZI2C.c **** *
 472:.\Generated_Source\PSoC4/UART_EZI2C.c **** * Return:
 473:.\Generated_Source\PSoC4/UART_EZI2C.c **** *  None
 474:.\Generated_Source\PSoC4/UART_EZI2C.c **** *
 475:.\Generated_Source\PSoC4/UART_EZI2C.c **** *******************************************************************************/
 476:.\Generated_Source\PSoC4/UART_EZI2C.c **** void UART_EzI2CSetReadBoundaryBuffer1(uint32 rwBoundary)
 477:.\Generated_Source\PSoC4/UART_EZI2C.c **** {
 478:.\Generated_Source\PSoC4/UART_EZI2C.c ****     UART_protectBuf1 = (uint16) rwBoundary;
 479:.\Generated_Source\PSoC4/UART_EZI2C.c **** }
 480:.\Generated_Source\PSoC4/UART_EZI2C.c **** 
 481:.\Generated_Source\PSoC4/UART_EZI2C.c **** 
 482:.\Generated_Source\PSoC4/UART_EZI2C.c **** #if(UART_SECONDARY_ADDRESS_ENABLE_CONST)
 483:.\Generated_Source\PSoC4/UART_EZI2C.c ****     /*******************************************************************************
 484:.\Generated_Source\PSoC4/UART_EZI2C.c ****     * Function Name: UART_EzI2CUpdateRxMatchReg
 485:.\Generated_Source\PSoC4/UART_EZI2C.c ****     ********************************************************************************
 486:.\Generated_Source\PSoC4/UART_EZI2C.c ****     *
 487:.\Generated_Source\PSoC4/UART_EZI2C.c ****     * Summary:
 488:.\Generated_Source\PSoC4/UART_EZI2C.c ****     *  Returns the value of the RX MATCH register for addr1 and addr2. The addr1 is
 489:.\Generated_Source\PSoC4/UART_EZI2C.c ****     *  accepted as the primary address and it is written to RX_MATCH.ADDRESS
ARM GAS  C:\Users\Helon\AppData\Local\Temp\ccieO5Yt.s 			page 10


 490:.\Generated_Source\PSoC4/UART_EZI2C.c ****     *  (addr1 << 0x01).
 491:.\Generated_Source\PSoC4/UART_EZI2C.c ****     *  The RX_MATCH.MASK is set as follow: addr1 and addr2 equal bits set to 1
 492:.\Generated_Source\PSoC4/UART_EZI2C.c ****     *  otherwise 0.
 493:.\Generated_Source\PSoC4/UART_EZI2C.c ****     *
 494:.\Generated_Source\PSoC4/UART_EZI2C.c ****     * Parameters:
 495:.\Generated_Source\PSoC4/UART_EZI2C.c ****     *  addr1: I2C slave address for the primary device.
 496:.\Generated_Source\PSoC4/UART_EZI2C.c ****     *  addr2: I2C slave address for the secondary device.
 497:.\Generated_Source\PSoC4/UART_EZI2C.c ****     *         This address is the 7-bit right-justified slave address and does
 498:.\Generated_Source\PSoC4/UART_EZI2C.c ****     *         not include the R/W bit.
 499:.\Generated_Source\PSoC4/UART_EZI2C.c ****     *         This value may be any address between 0 and 127 (0x00 to 0x7F).
 500:.\Generated_Source\PSoC4/UART_EZI2C.c ****     *
 501:.\Generated_Source\PSoC4/UART_EZI2C.c ****     * Return:
 502:.\Generated_Source\PSoC4/UART_EZI2C.c ****     *  Value of RX MATCH register.
 503:.\Generated_Source\PSoC4/UART_EZI2C.c ****     *
 504:.\Generated_Source\PSoC4/UART_EZI2C.c ****     *******************************************************************************/
 505:.\Generated_Source\PSoC4/UART_EZI2C.c ****     static uint32 UART_EzI2CUpdateRxMatchReg(uint32 addr1, uint32 addr2)
 506:.\Generated_Source\PSoC4/UART_EZI2C.c ****     {
  25              		.loc 1 506 0
  26              		.cfi_startproc
  27              	.LVL0:
 507:.\Generated_Source\PSoC4/UART_EZI2C.c ****         uint32 matchReg;
 508:.\Generated_Source\PSoC4/UART_EZI2C.c **** 
 509:.\Generated_Source\PSoC4/UART_EZI2C.c ****         matchReg  = ~(addr1 ^ addr2); /* If (addr1 and addr2) bit matches - mask bit equals 1, in o
  28              		.loc 1 509 0
  29 0000 4140     		eor	r1, r0
  30              	.LVL1:
  31 0002 C943     		mvn	r1, r1
  32              	.LVL2:
 510:.\Generated_Source\PSoC4/UART_EZI2C.c **** 
 511:.\Generated_Source\PSoC4/UART_EZI2C.c ****         matchReg  = (uint32) (UART_GET_I2C_8BIT_ADDRESS(matchReg) << UART_RX_MATCH_MASK_POS);
  33              		.loc 1 511 0
  34 0004 4900     		lsl	r1, r1, #1
  35              	.LVL3:
  36 0006 FF23     		mov	r3, #255
  37 0008 1940     		and	r1, r3
  38 000a 0904     		lsl	r1, r1, #16
  39              	.LVL4:
 512:.\Generated_Source\PSoC4/UART_EZI2C.c ****         matchReg |= UART_GET_I2C_8BIT_ADDRESS(addr1);
  40              		.loc 1 512 0
  41 000c 4000     		lsl	r0, r0, #1
  42              	.LVL5:
  43 000e 1840     		and	r0, r3
  44 0010 0843     		orr	r0, r1
  45              	.LVL6:
 513:.\Generated_Source\PSoC4/UART_EZI2C.c **** 
 514:.\Generated_Source\PSoC4/UART_EZI2C.c ****         return(matchReg);
 515:.\Generated_Source\PSoC4/UART_EZI2C.c ****     }
  46              		.loc 1 515 0
  47              		@ sp needed
  48 0012 7047     		bx	lr
  49              		.cfi_endproc
  50              	.LFE9:
  51              		.size	UART_EzI2CUpdateRxMatchReg, .-UART_EzI2CUpdateRxMatchReg
  52              		.section	.text.UART_EzI2CInit,"ax",%progbits
  53              		.align	2
  54              		.global	UART_EzI2CInit
  55              		.code	16
ARM GAS  C:\Users\Helon\AppData\Local\Temp\ccieO5Yt.s 			page 11


  56              		.thumb_func
  57              		.type	UART_EzI2CInit, %function
  58              	UART_EzI2CInit:
  59              	.LFB2:
  93:.\Generated_Source\PSoC4/UART_EZI2C.c ****         if(NULL == config)
  60              		.loc 1 93 0
  61              		.cfi_startproc
  62              	.LVL7:
  63 0000 10B5     		push	{r4, lr}
  64              		.cfi_def_cfa_offset 8
  65              		.cfi_offset 4, -8
  66              		.cfi_offset 14, -4
  67 0002 041E     		sub	r4, r0, #0
  94:.\Generated_Source\PSoC4/UART_EZI2C.c ****         {
  68              		.loc 1 94 0
  69 0004 03D1     		bne	.L3
  96:.\Generated_Source\PSoC4/UART_EZI2C.c ****         }
  70              		.loc 1 96 0 discriminator 1
  71 0006 0020     		mov	r0, #0
  72              	.LVL8:
  73 0008 FFF7FEFF 		bl	CyHalt
  74              	.LVL9:
  75 000c A0E0     		b	.L2
  76              	.LVL10:
  77              	.L3:
 101:.\Generated_Source\PSoC4/UART_EZI2C.c ****                                                                       UART_DUMMY_PARAM);
  78              		.loc 1 101 0
  79 000e 0820     		mov	r0, #8
  80              	.LVL11:
  81 0010 0021     		mov	r1, #0
  82 0012 0022     		mov	r2, #0
  83 0014 FFF7FEFF 		bl	UART_SetPins
  84              	.LVL12:
 105:.\Generated_Source\PSoC4/UART_EZI2C.c ****             UART_scbEnableWake = (uint8) config->enableWake;
  85              		.loc 1 105 0
  86 0018 0822     		mov	r2, #8
  87 001a 4E4B     		ldr	r3, .L18
  88 001c 1A70     		strb	r2, [r3]
 106:.\Generated_Source\PSoC4/UART_EZI2C.c ****             UART_scbEnableIntr = (uint8) UART_SCB_IRQ_INTERNAL;
  89              		.loc 1 106 0
  90 001e 227E     		ldrb	r2, [r4, #24]
  91 0020 4D4B     		ldr	r3, .L18+4
  92 0022 1A70     		strb	r2, [r3]
 107:.\Generated_Source\PSoC4/UART_EZI2C.c **** 
  93              		.loc 1 107 0
  94 0024 0122     		mov	r2, #1
  95 0026 4D4B     		ldr	r3, .L18+8
  96 0028 1A70     		strb	r2, [r3]
 109:.\Generated_Source\PSoC4/UART_EZI2C.c ****             UART_subAddrSize   = (uint8) config->subAddrSize;
  97              		.loc 1 109 0
  98 002a 227A     		ldrb	r2, [r4, #8]
  99 002c 4C4B     		ldr	r3, .L18+12
 100 002e 1A70     		strb	r2, [r3]
 110:.\Generated_Source\PSoC4/UART_EZI2C.c **** 
 101              		.loc 1 110 0
 102 0030 227D     		ldrb	r2, [r4, #20]
 103 0032 4C4B     		ldr	r3, .L18+16
ARM GAS  C:\Users\Helon\AppData\Local\Temp\ccieO5Yt.s 			page 12


 104 0034 1A70     		strb	r2, [r3]
 118:.\Generated_Source\PSoC4/UART_EZI2C.c **** 
 105              		.loc 1 118 0
 106 0036 4C4A     		ldr	r2, .L18+20
 107 0038 1368     		ldr	r3, [r2]
 108 003a 4C49     		ldr	r1, .L18+24
 109 003c 0B43     		orr	r3, r1
 110 003e 1360     		str	r3, [r2]
 121:.\Generated_Source\PSoC4/UART_EZI2C.c ****                                             UART_GET_CTRL_ADDR_ACCEPT(config->numberOfAddresses) |
 111              		.loc 1 121 0
 112 0040 237F     		ldrb	r3, [r4, #28]
 113 0042 002B     		cmp	r3, #0
 114 0044 02D0     		beq	.L15
 115 0046 8022     		mov	r2, #128
 116 0048 1201     		lsl	r2, r2, #4
 117 004a 00E0     		b	.L5
 118              	.L15:
 119 004c 0022     		mov	r2, #0
 120              	.L5:
 122:.\Generated_Source\PSoC4/UART_EZI2C.c ****                                             UART_GET_CTRL_EC_AM_MODE (config->enableWake);
 121              		.loc 1 122 0
 122 004e A368     		ldr	r3, [r4, #8]
 123 0050 002B     		cmp	r3, #0
 124 0052 01D0     		beq	.L6
 125 0054 8023     		mov	r3, #128
 126 0056 5B02     		lsl	r3, r3, #9
 127              	.L6:
 121:.\Generated_Source\PSoC4/UART_EZI2C.c ****                                             UART_GET_CTRL_ADDR_ACCEPT(config->numberOfAddresses) |
 128              		.loc 1 121 0
 129 0058 1A43     		orr	r2, r3
 123:.\Generated_Source\PSoC4/UART_EZI2C.c **** 
 130              		.loc 1 123 0
 131 005a A369     		ldr	r3, [r4, #24]
 132 005c 002B     		cmp	r3, #0
 133 005e 01D0     		beq	.L7
 134 0060 8023     		mov	r3, #128
 135 0062 5B00     		lsl	r3, r3, #1
 136              	.L7:
 122:.\Generated_Source\PSoC4/UART_EZI2C.c ****                                             UART_GET_CTRL_EC_AM_MODE (config->enableWake);
 137              		.loc 1 122 0
 138 0064 1343     		orr	r3, r2
 121:.\Generated_Source\PSoC4/UART_EZI2C.c ****                                             UART_GET_CTRL_ADDR_ACCEPT(config->numberOfAddresses) |
 139              		.loc 1 121 0
 140 0066 424A     		ldr	r2, .L18+28
 141 0068 1360     		str	r3, [r2]
 125:.\Generated_Source\PSoC4/UART_EZI2C.c **** 
 142              		.loc 1 125 0
 143 006a 424A     		ldr	r2, .L18+32
 144 006c 424B     		ldr	r3, .L18+36
 145 006e 1A60     		str	r2, [r3]
 128:.\Generated_Source\PSoC4/UART_EZI2C.c ****                                         UART_GET_RX_CTRL_MEDIAN(UART_DIGITAL_FILTER_DISABLE);
 146              		.loc 1 128 0
 147 0070 424A     		ldr	r2, .L18+40
 148 0072 434B     		ldr	r3, .L18+44
 149 0074 1A60     		str	r2, [r3]
 131:.\Generated_Source\PSoC4/UART_EZI2C.c **** 
 150              		.loc 1 131 0
ARM GAS  C:\Users\Helon\AppData\Local\Temp\ccieO5Yt.s 			page 13


 151 0076 0022     		mov	r2, #0
 152 0078 424B     		ldr	r3, .L18+48
 153 007a 1A60     		str	r2, [r3]
 134:.\Generated_Source\PSoC4/UART_EZI2C.c ****             {
 154              		.loc 1 134 0
 155 007c A368     		ldr	r3, [r4, #8]
 156 007e 002B     		cmp	r3, #0
 157 0080 06D1     		bne	.L8
 136:.\Generated_Source\PSoC4/UART_EZI2C.c ****                                                                                        config->prim
 158              		.loc 1 136 0
 159 0082 E068     		ldr	r0, [r4, #12]
 160 0084 011C     		mov	r1, r0
 161 0086 FFF7FEFF 		bl	UART_EzI2CUpdateRxMatchReg
 162              	.LVL13:
 163 008a 3F4B     		ldr	r3, .L18+52
 164 008c 1860     		str	r0, [r3]
 165 008e 05E0     		b	.L9
 166              	.L8:
 141:.\Generated_Source\PSoC4/UART_EZI2C.c ****                                                                                        config->seco
 167              		.loc 1 141 0
 168 0090 E068     		ldr	r0, [r4, #12]
 169 0092 2169     		ldr	r1, [r4, #16]
 170 0094 FFF7FEFF 		bl	UART_EzI2CUpdateRxMatchReg
 171              	.LVL14:
 172 0098 3B4B     		ldr	r3, .L18+52
 173 009a 1860     		str	r0, [r3]
 174              	.L9:
 146:.\Generated_Source\PSoC4/UART_EZI2C.c ****             UART_TX_FIFO_CTRL_REG = ((0u != (config->enableClockStretch)) ?
 175              		.loc 1 146 0
 176 009c 374A     		ldr	r2, .L18+40
 177 009e 3B4B     		ldr	r3, .L18+56
 178 00a0 1A60     		str	r2, [r3]
 148:.\Generated_Source\PSoC4/UART_EZI2C.c **** 
 179              		.loc 1 148 0
 180 00a2 2368     		ldr	r3, [r4]
 181 00a4 002B     		cmp	r3, #0
 182 00a6 01D0     		beq	.L16
 183 00a8 0022     		mov	r2, #0
 184 00aa 00E0     		b	.L10
 185              	.L16:
 186 00ac 0222     		mov	r2, #2
 187              	.L10:
 147:.\Generated_Source\PSoC4/UART_EZI2C.c ****                                                  UART_CLEAR_REG : UART_EZI2C_TX_FIFO_CTRL);
 188              		.loc 1 147 0
 189 00ae 384B     		ldr	r3, .L18+60
 190 00b0 1A60     		str	r2, [r3]
 152:.\Generated_Source\PSoC4/UART_EZI2C.c ****         #endif /* (!UART_CY_SCBIP_V1) */
 191              		.loc 1 152 0
 192 00b2 0023     		mov	r3, #0
 193 00b4 374A     		ldr	r2, .L18+64
 194 00b6 1360     		str	r3, [r2]
 155:.\Generated_Source\PSoC4/UART_EZI2C.c ****             UART_INTR_MASTER_MASK_REG = UART_NO_INTR_SOURCES;
 195              		.loc 1 155 0
 196 00b8 374A     		ldr	r2, .L18+68
 197 00ba 1360     		str	r3, [r2]
 156:.\Generated_Source\PSoC4/UART_EZI2C.c ****             UART_INTR_SLAVE_MASK_REG  = UART_EZI2C_INTR_SLAVE_MASK;
 198              		.loc 1 156 0
ARM GAS  C:\Users\Helon\AppData\Local\Temp\ccieO5Yt.s 			page 14


 199 00bc 374A     		ldr	r2, .L18+72
 200 00be 1360     		str	r3, [r2]
 157:.\Generated_Source\PSoC4/UART_EZI2C.c ****             UART_INTR_TX_MASK_REG     = UART_NO_INTR_SOURCES;
 201              		.loc 1 157 0
 202 00c0 1221     		mov	r1, #18
 203 00c2 FF31     		add	r1, r1, #255
 204 00c4 364A     		ldr	r2, .L18+76
 205 00c6 1160     		str	r1, [r2]
 158:.\Generated_Source\PSoC4/UART_EZI2C.c **** 
 206              		.loc 1 158 0
 207 00c8 364A     		ldr	r2, .L18+80
 208 00ca 1360     		str	r3, [r2]
 161:.\Generated_Source\PSoC4/UART_EZI2C.c ****             CyIntSetPriority(UART_ISR_NUMBER, UART_ISR_PRIORITY);
 209              		.loc 1 161 0
 210 00cc 0920     		mov	r0, #9
 211 00ce FFF7FEFF 		bl	CyIntDisable
 212              	.LVL15:
 162:.\Generated_Source\PSoC4/UART_EZI2C.c ****             (void) CyIntSetVector(UART_ISR_NUMBER, (0u != (config->enableClockStretch)) ?
 213              		.loc 1 162 0
 214 00d2 0920     		mov	r0, #9
 215 00d4 0321     		mov	r1, #3
 216 00d6 FFF7FEFF 		bl	CyIntSetPriority
 217              	.LVL16:
 163:.\Generated_Source\PSoC4/UART_EZI2C.c ****                                                                       (&UART_EZI2C_STRETCH_ISR) :
 218              		.loc 1 163 0
 219 00da 2368     		ldr	r3, [r4]
 220 00dc 002B     		cmp	r3, #0
 221 00de 01D0     		beq	.L17
 222 00e0 3149     		ldr	r1, .L18+84
 223 00e2 00E0     		b	.L11
 224              	.L17:
 225 00e4 3149     		ldr	r1, .L18+88
 226              	.L11:
 163:.\Generated_Source\PSoC4/UART_EZI2C.c ****                                                                       (&UART_EZI2C_STRETCH_ISR) :
 227              		.loc 1 163 0 is_stmt 0 discriminator 4
 228 00e6 0920     		mov	r0, #9
 229 00e8 FFF7FEFF 		bl	CyIntSetVector
 230              	.LVL17:
 167:.\Generated_Source\PSoC4/UART_EZI2C.c ****             {
 231              		.loc 1 167 0 is_stmt 1 discriminator 4
 232 00ec 2368     		ldr	r3, [r4]
 233 00ee 002B     		cmp	r3, #0
 234 00f0 08D0     		beq	.L12
 170:.\Generated_Source\PSoC4/UART_EZI2C.c ****                 UART_INTR_RX_MASK_REG     = UART_NO_INTR_SOURCES;
 235              		.loc 1 170 0
 236 00f2 2B4A     		ldr	r2, .L18+76
 237 00f4 1168     		ldr	r1, [r2]
 238 00f6 4023     		mov	r3, #64
 239 00f8 0B43     		orr	r3, r1
 240 00fa 1360     		str	r3, [r2]
 171:.\Generated_Source\PSoC4/UART_EZI2C.c ****             }
 241              		.loc 1 171 0
 242 00fc 0022     		mov	r2, #0
 243 00fe 2C4B     		ldr	r3, .L18+92
 244 0100 1A60     		str	r2, [r3]
 245 0102 0DE0     		b	.L13
 246              	.L12:
ARM GAS  C:\Users\Helon\AppData\Local\Temp\ccieO5Yt.s 			page 15


 176:.\Generated_Source\PSoC4/UART_EZI2C.c **** 
 247              		.loc 1 176 0
 248 0104 1C4A     		ldr	r2, .L18+36
 249 0106 1368     		ldr	r3, [r2]
 250 0108 F021     		mov	r1, #240
 251 010a 0902     		lsl	r1, r1, #8
 252 010c 0B43     		orr	r3, r1
 253 010e 1360     		str	r3, [r2]
 179:.\Generated_Source\PSoC4/UART_EZI2C.c ****                 UART_INTR_RX_MASK_REG     = UART_INTR_RX_NOT_EMPTY;
 254              		.loc 1 179 0
 255 0110 234A     		ldr	r2, .L18+76
 256 0112 1168     		ldr	r1, [r2]
 257 0114 2023     		mov	r3, #32
 258 0116 0B43     		orr	r3, r1
 259 0118 1360     		str	r3, [r2]
 180:.\Generated_Source\PSoC4/UART_EZI2C.c ****             }
 260              		.loc 1 180 0
 261 011a 0422     		mov	r2, #4
 262 011c 244B     		ldr	r3, .L18+92
 263 011e 1A60     		str	r2, [r3]
 264              	.L13:
 184:.\Generated_Source\PSoC4/UART_EZI2C.c **** 
 265              		.loc 1 184 0
 266 0120 104B     		ldr	r3, .L18+16
 267 0122 1B78     		ldrb	r3, [r3]
 268 0124 002B     		cmp	r3, #0
 269 0126 00D0     		beq	.L14
 270 0128 0223     		mov	r3, #2
 271              	.L14:
 184:.\Generated_Source\PSoC4/UART_EZI2C.c **** 
 272              		.loc 1 184 0 is_stmt 0 discriminator 4
 273 012a 224A     		ldr	r2, .L18+96
 274 012c 1370     		strb	r3, [r2]
 186:.\Generated_Source\PSoC4/UART_EZI2C.c ****             UART_indexBuf1  = 0u;
 275              		.loc 1 186 0 is_stmt 1 discriminator 4
 276 012e 0023     		mov	r3, #0
 277 0130 214A     		ldr	r2, .L18+100
 278 0132 1370     		strb	r3, [r2]
 187:.\Generated_Source\PSoC4/UART_EZI2C.c ****             UART_offsetBuf1 = 0u;
 279              		.loc 1 187 0 discriminator 4
 280 0134 214A     		ldr	r2, .L18+104
 281 0136 1380     		strh	r3, [r2]
 188:.\Generated_Source\PSoC4/UART_EZI2C.c ****             UART_indexBuf2  = 0u;
 282              		.loc 1 188 0 discriminator 4
 283 0138 214A     		ldr	r2, .L18+108
 284 013a 1380     		strh	r3, [r2]
 189:.\Generated_Source\PSoC4/UART_EZI2C.c ****             UART_offsetBuf2 = 0u;
 285              		.loc 1 189 0 discriminator 4
 286 013c 214A     		ldr	r2, .L18+112
 287 013e 1380     		strh	r3, [r2]
 190:.\Generated_Source\PSoC4/UART_EZI2C.c **** 
 288              		.loc 1 190 0 discriminator 4
 289 0140 214A     		ldr	r2, .L18+116
 290 0142 1380     		strh	r3, [r2]
 192:.\Generated_Source\PSoC4/UART_EZI2C.c ****             UART_addrBuf2 = (uint8) config->secondarySlaveAddr;
 291              		.loc 1 192 0 discriminator 4
 292 0144 227B     		ldrb	r2, [r4, #12]
ARM GAS  C:\Users\Helon\AppData\Local\Temp\ccieO5Yt.s 			page 16


 293 0146 214B     		ldr	r3, .L18+120
 294 0148 1A70     		strb	r2, [r3]
 193:.\Generated_Source\PSoC4/UART_EZI2C.c ****         }
 295              		.loc 1 193 0 discriminator 4
 296 014a 227C     		ldrb	r2, [r4, #16]
 297 014c 204B     		ldr	r3, .L18+124
 298 014e 1A70     		strb	r2, [r3]
 299              	.L2:
 195:.\Generated_Source\PSoC4/UART_EZI2C.c **** 
 300              		.loc 1 195 0
 301              		@ sp needed
 302              	.LVL18:
 303 0150 10BD     		pop	{r4, pc}
 304              	.L19:
 305 0152 C046     		.align	2
 306              	.L18:
 307 0154 00000000 		.word	UART_scbMode
 308 0158 00000000 		.word	UART_scbEnableWake
 309 015c 00000000 		.word	UART_scbEnableIntr
 310 0160 00000000 		.word	UART_numberOfAddr
 311 0164 00000000 		.word	UART_subAddrSize
 312 0168 70002440 		.word	1076101232
 313 016c 10100000 		.word	4112
 314 0170 00002440 		.word	1076101120
 315 0174 00080040 		.word	1073743872
 316 0178 60002440 		.word	1076101216
 317 017c 07010080 		.word	-2147483385
 318 0180 00032440 		.word	1076101888
 319 0184 04032440 		.word	1076101892
 320 0188 10032440 		.word	1076101904
 321 018c 00022440 		.word	1076101632
 322 0190 04022440 		.word	1076101636
 323 0194 C80E2440 		.word	1076104904
 324 0198 880E2440 		.word	1076104840
 325 019c 080F2440 		.word	1076104968
 326 01a0 480F2440 		.word	1076105032
 327 01a4 880F2440 		.word	1076105096
 328 01a8 00000000 		.word	UART_EZI2C_STRETCH_ISR
 329 01ac 00000000 		.word	UART_EZI2C_NO_STRETCH_ISR
 330 01b0 C80F2440 		.word	1076105160
 331 01b4 00000000 		.word	UART_fsmState
 332 01b8 00000000 		.word	UART_curStatus
 333 01bc 00000000 		.word	UART_indexBuf1
 334 01c0 00000000 		.word	UART_offsetBuf1
 335 01c4 00000000 		.word	UART_indexBuf2
 336 01c8 00000000 		.word	UART_offsetBuf2
 337 01cc 00000000 		.word	UART_addrBuf1
 338 01d0 00000000 		.word	UART_addrBuf2
 339              		.cfi_endproc
 340              	.LFE2:
 341              		.size	UART_EzI2CInit, .-UART_EzI2CInit
 342              		.section	.text.UART_EzI2CStop,"ax",%progbits
 343              		.align	2
 344              		.global	UART_EzI2CStop
 345              		.code	16
 346              		.thumb_func
 347              		.type	UART_EzI2CStop, %function
ARM GAS  C:\Users\Helon\AppData\Local\Temp\ccieO5Yt.s 			page 17


 348              	UART_EzI2CStop:
 349              	.LFB3:
 292:.\Generated_Source\PSoC4/UART_EZI2C.c ****     UART_fsmState = UART_EZI2C_FSM_IDLE;
 350              		.loc 1 292 0
 351              		.cfi_startproc
 293:.\Generated_Source\PSoC4/UART_EZI2C.c **** }
 352              		.loc 1 293 0
 353 0000 034B     		ldr	r3, .L22
 354 0002 1B78     		ldrb	r3, [r3]
 355 0004 002B     		cmp	r3, #0
 356 0006 00D0     		beq	.L21
 357 0008 0223     		mov	r3, #2
 358              	.L21:
 293:.\Generated_Source\PSoC4/UART_EZI2C.c **** }
 359              		.loc 1 293 0 is_stmt 0 discriminator 4
 360 000a 024A     		ldr	r2, .L22+4
 361 000c 1370     		strb	r3, [r2]
 294:.\Generated_Source\PSoC4/UART_EZI2C.c **** 
 362              		.loc 1 294 0 is_stmt 1 discriminator 4
 363              		@ sp needed
 364 000e 7047     		bx	lr
 365              	.L23:
 366              		.align	2
 367              	.L22:
 368 0010 00000000 		.word	UART_subAddrSize
 369 0014 00000000 		.word	UART_fsmState
 370              		.cfi_endproc
 371              	.LFE3:
 372              		.size	UART_EzI2CStop, .-UART_EzI2CStop
 373              		.section	.text.UART_EzI2CGetActivity,"ax",%progbits
 374              		.align	2
 375              		.global	UART_EzI2CGetActivity
 376              		.code	16
 377              		.thumb_func
 378              		.type	UART_EzI2CGetActivity, %function
 379              	UART_EzI2CGetActivity:
 380              	.LFB4:
 315:.\Generated_Source\PSoC4/UART_EZI2C.c ****     uint32 status;
 381              		.loc 1 315 0
 382              		.cfi_startproc
 383 0000 10B5     		push	{r4, lr}
 384              		.cfi_def_cfa_offset 8
 385              		.cfi_offset 4, -8
 386              		.cfi_offset 14, -4
 318:.\Generated_Source\PSoC4/UART_EZI2C.c **** 
 387              		.loc 1 318 0
 388 0002 0920     		mov	r0, #9
 389 0004 FFF7FEFF 		bl	CyIntDisable
 390              	.LVL19:
 320:.\Generated_Source\PSoC4/UART_EZI2C.c **** 
 391              		.loc 1 320 0
 392 0008 114B     		ldr	r3, .L29
 393 000a 1C78     		ldrb	r4, [r3]
 394 000c E4B2     		uxtb	r4, r4
 395              	.LVL20:
 323:.\Generated_Source\PSoC4/UART_EZI2C.c ****     {
 396              		.loc 1 323 0
ARM GAS  C:\Users\Helon\AppData\Local\Temp\ccieO5Yt.s 			page 18


 397 000e 114B     		ldr	r3, .L29+4
 398 0010 1B68     		ldr	r3, [r3]
 399 0012 5B06     		lsl	r3, r3, #25
 400 0014 12D4     		bmi	.L25
 326:.\Generated_Source\PSoC4/UART_EZI2C.c ****         {
 401              		.loc 1 326 0
 402 0016 104B     		ldr	r3, .L29+8
 403 0018 1B68     		ldr	r3, [r3]
 404 001a DB05     		lsl	r3, r3, #23
 405 001c 07D5     		bpl	.L26
 328:.\Generated_Source\PSoC4/UART_EZI2C.c ****                         UART_EZI2C_STATUS_BUSY : 0u;
 406              		.loc 1 328 0
 407 001e 0F4B     		ldr	r3, .L29+12
 408 0020 1B68     		ldr	r3, [r3]
 409 0022 0122     		mov	r2, #1
 410 0024 1340     		and	r3, r2
 329:.\Generated_Source\PSoC4/UART_EZI2C.c ****         }
 411              		.loc 1 329 0
 412 0026 00D0     		beq	.L27
 413 0028 2023     		mov	r3, #32
 414              	.L27:
 328:.\Generated_Source\PSoC4/UART_EZI2C.c ****                         UART_EZI2C_STATUS_BUSY : 0u;
 415              		.loc 1 328 0 discriminator 4
 416 002a 1C43     		orr	r4, r3
 417              	.LVL21:
 418 002c 06E0     		b	.L25
 419              	.L26:
 333:.\Generated_Source\PSoC4/UART_EZI2C.c ****                         UART_EZI2C_STATUS_BUSY : 0u;
 420              		.loc 1 333 0
 421 002e 0C4B     		ldr	r3, .L29+16
 422 0030 1B68     		ldr	r3, [r3]
 423 0032 4022     		mov	r2, #64
 424 0034 1340     		and	r3, r2
 334:.\Generated_Source\PSoC4/UART_EZI2C.c ****         }
 425              		.loc 1 334 0
 426 0036 00D0     		beq	.L28
 427 0038 2023     		mov	r3, #32
 428              	.L28:
 333:.\Generated_Source\PSoC4/UART_EZI2C.c ****                         UART_EZI2C_STATUS_BUSY : 0u;
 429              		.loc 1 333 0 discriminator 4
 430 003a 1C43     		orr	r4, r3
 431              	.LVL22:
 432              	.L25:
 340:.\Generated_Source\PSoC4/UART_EZI2C.c **** 
 433              		.loc 1 340 0
 434 003c 044A     		ldr	r2, .L29
 435 003e 1378     		ldrb	r3, [r2]
 436 0040 1F21     		mov	r1, #31
 437 0042 8B43     		bic	r3, r1
 438 0044 1370     		strb	r3, [r2]
 342:.\Generated_Source\PSoC4/UART_EZI2C.c **** 
 439              		.loc 1 342 0
 440 0046 0920     		mov	r0, #9
 441 0048 FFF7FEFF 		bl	CyIntEnable
 442              	.LVL23:
 345:.\Generated_Source\PSoC4/UART_EZI2C.c **** 
 443              		.loc 1 345 0
ARM GAS  C:\Users\Helon\AppData\Local\Temp\ccieO5Yt.s 			page 19


 444 004c 201C     		mov	r0, r4
 445              		@ sp needed
 446              	.LVL24:
 447 004e 10BD     		pop	{r4, pc}
 448              	.L30:
 449              		.align	2
 450              	.L29:
 451 0050 00000000 		.word	UART_curStatus
 452 0054 480F2440 		.word	1076105032
 453 0058 00002440 		.word	1076101120
 454 005c 800E2440 		.word	1076104832
 455 0060 400F2440 		.word	1076105024
 456              		.cfi_endproc
 457              	.LFE4:
 458              		.size	UART_EzI2CGetActivity, .-UART_EzI2CGetActivity
 459              		.section	.text.UART_EzI2CSetAddress1,"ax",%progbits
 460              		.align	2
 461              		.global	UART_EzI2CSetAddress1
 462              		.code	16
 463              		.thumb_func
 464              		.type	UART_EzI2CSetAddress1, %function
 465              	UART_EzI2CSetAddress1:
 466              	.LFB5:
 366:.\Generated_Source\PSoC4/UART_EZI2C.c ****     if(UART_SECONDARY_ADDRESS_ENABLE)
 467              		.loc 1 366 0
 468              		.cfi_startproc
 469              	.LVL25:
 470 0000 08B5     		push	{r3, lr}
 471              		.cfi_def_cfa_offset 8
 472              		.cfi_offset 3, -8
 473              		.cfi_offset 14, -4
 367:.\Generated_Source\PSoC4/UART_EZI2C.c ****     {
 474              		.loc 1 367 0
 475 0002 0B4B     		ldr	r3, .L34
 476 0004 1B78     		ldrb	r3, [r3]
 477 0006 002B     		cmp	r3, #0
 478 0008 08D0     		beq	.L32
 369:.\Generated_Source\PSoC4/UART_EZI2C.c **** 
 479              		.loc 1 369 0
 480 000a 0A4B     		ldr	r3, .L34+4
 481 000c 1870     		strb	r0, [r3]
 371:.\Generated_Source\PSoC4/UART_EZI2C.c ****                                                                                (uint32) UART_addrBu
 482              		.loc 1 371 0
 483 000e 0A4B     		ldr	r3, .L34+8
 484 0010 1978     		ldrb	r1, [r3]
 485 0012 FFF7FEFF 		bl	UART_EzI2CUpdateRxMatchReg
 486              	.LVL26:
 487 0016 094B     		ldr	r3, .L34+12
 488 0018 1860     		str	r0, [r3]
 489 001a 07E0     		b	.L31
 490              	.LVL27:
 491              	.L32:
 492              	.LBB2:
 378:.\Generated_Source\PSoC4/UART_EZI2C.c **** 
 493              		.loc 1 378 0
 494 001c 074A     		ldr	r2, .L34+12
 495 001e 1368     		ldr	r3, [r2]
ARM GAS  C:\Users\Helon\AppData\Local\Temp\ccieO5Yt.s 			page 20


 496              	.LVL28:
 380:.\Generated_Source\PSoC4/UART_EZI2C.c ****         matchReg |= ((uint32)  UART_GET_I2C_8BIT_ADDRESS(address)); /* Set mask */
 497              		.loc 1 380 0
 498 0020 FF21     		mov	r1, #255
 499 0022 8B43     		bic	r3, r1
 500              	.LVL29:
 381:.\Generated_Source\PSoC4/UART_EZI2C.c **** 
 501              		.loc 1 381 0
 502 0024 4000     		lsl	r0, r0, #1
 503              	.LVL30:
 504 0026 0840     		and	r0, r1
 505 0028 1843     		orr	r0, r3
 506              	.LVL31:
 383:.\Generated_Source\PSoC4/UART_EZI2C.c ****     }
 507              		.loc 1 383 0
 508 002a 1060     		str	r0, [r2]
 509              	.LVL32:
 510              	.L31:
 511              	.LBE2:
 386:.\Generated_Source\PSoC4/UART_EZI2C.c **** 
 512              		.loc 1 386 0
 513              		@ sp needed
 514 002c 08BD     		pop	{r3, pc}
 515              	.L35:
 516 002e C046     		.align	2
 517              	.L34:
 518 0030 00000000 		.word	UART_numberOfAddr
 519 0034 00000000 		.word	UART_addrBuf1
 520 0038 00000000 		.word	UART_addrBuf2
 521 003c 10032440 		.word	1076101904
 522              		.cfi_endproc
 523              	.LFE5:
 524              		.size	UART_EzI2CSetAddress1, .-UART_EzI2CSetAddress1
 525              		.section	.text.UART_EzI2CGetAddress1,"ax",%progbits
 526              		.align	2
 527              		.global	UART_EzI2CGetAddress1
 528              		.code	16
 529              		.thumb_func
 530              		.type	UART_EzI2CGetAddress1, %function
 531              	UART_EzI2CGetAddress1:
 532              	.LFB6:
 407:.\Generated_Source\PSoC4/UART_EZI2C.c ****     uint32 address;
 533              		.loc 1 407 0
 534              		.cfi_startproc
 410:.\Generated_Source\PSoC4/UART_EZI2C.c ****     {
 535              		.loc 1 410 0
 536 0000 054B     		ldr	r3, .L39
 537 0002 1B78     		ldrb	r3, [r3]
 538 0004 002B     		cmp	r3, #0
 539 0006 02D0     		beq	.L37
 412:.\Generated_Source\PSoC4/UART_EZI2C.c ****     }
 540              		.loc 1 412 0
 541 0008 044B     		ldr	r3, .L39+4
 542 000a 1878     		ldrb	r0, [r3]
 543              	.LVL33:
 544 000c 03E0     		b	.L38
 545              	.LVL34:
ARM GAS  C:\Users\Helon\AppData\Local\Temp\ccieO5Yt.s 			page 21


 546              	.L37:
 416:.\Generated_Source\PSoC4/UART_EZI2C.c ****                    UART_I2C_SLAVE_ADDR_POS);
 547              		.loc 1 416 0
 548 000e 044B     		ldr	r3, .L39+8
 549 0010 1868     		ldr	r0, [r3]
 550 0012 0006     		lsl	r0, r0, #24
 551 0014 400E     		lsr	r0, r0, #25
 552              	.LVL35:
 553              	.L38:
 422:.\Generated_Source\PSoC4/UART_EZI2C.c **** 
 554              		.loc 1 422 0
 555              		@ sp needed
 556 0016 7047     		bx	lr
 557              	.L40:
 558              		.align	2
 559              	.L39:
 560 0018 00000000 		.word	UART_numberOfAddr
 561 001c 00000000 		.word	UART_addrBuf1
 562 0020 10032440 		.word	1076101904
 563              		.cfi_endproc
 564              	.LFE6:
 565              		.size	UART_EzI2CGetAddress1, .-UART_EzI2CGetAddress1
 566              		.section	.text.UART_EzI2CSetBuffer1,"ax",%progbits
 567              		.align	2
 568              		.global	UART_EzI2CSetBuffer1
 569              		.code	16
 570              		.thumb_func
 571              		.type	UART_EzI2CSetBuffer1, %function
 572              	UART_EzI2CSetBuffer1:
 573              	.LFB7:
 445:.\Generated_Source\PSoC4/UART_EZI2C.c ****     if (NULL != buffer)
 574              		.loc 1 445 0
 575              		.cfi_startproc
 576              	.LVL36:
 577 0000 70B5     		push	{r4, r5, r6, lr}
 578              		.cfi_def_cfa_offset 16
 579              		.cfi_offset 4, -16
 580              		.cfi_offset 5, -12
 581              		.cfi_offset 6, -8
 582              		.cfi_offset 14, -4
 583 0002 061C     		mov	r6, r0
 584 0004 0D1C     		mov	r5, r1
 585 0006 141E     		sub	r4, r2, #0
 446:.\Generated_Source\PSoC4/UART_EZI2C.c ****     {
 586              		.loc 1 446 0
 587 0008 0BD0     		beq	.L41
 448:.\Generated_Source\PSoC4/UART_EZI2C.c **** 
 588              		.loc 1 448 0
 589 000a 0920     		mov	r0, #9
 590              	.LVL37:
 591 000c FFF7FEFF 		bl	CyIntDisable
 592              	.LVL38:
 450:.\Generated_Source\PSoC4/UART_EZI2C.c ****         UART_bufSizeBuf1 = (uint16) bufSize;
 593              		.loc 1 450 0
 594 0010 044B     		ldr	r3, .L43
 595 0012 1C60     		str	r4, [r3]
 451:.\Generated_Source\PSoC4/UART_EZI2C.c ****         UART_protectBuf1 = (uint16) rwBoundary;
ARM GAS  C:\Users\Helon\AppData\Local\Temp\ccieO5Yt.s 			page 22


 596              		.loc 1 451 0
 597 0014 044B     		ldr	r3, .L43+4
 598 0016 1E80     		strh	r6, [r3]
 452:.\Generated_Source\PSoC4/UART_EZI2C.c **** 
 599              		.loc 1 452 0
 600 0018 044B     		ldr	r3, .L43+8
 601 001a 1D80     		strh	r5, [r3]
 454:.\Generated_Source\PSoC4/UART_EZI2C.c ****     }
 602              		.loc 1 454 0
 603 001c 0920     		mov	r0, #9
 604 001e FFF7FEFF 		bl	CyIntEnable
 605              	.LVL39:
 606              	.L41:
 456:.\Generated_Source\PSoC4/UART_EZI2C.c **** 
 607              		.loc 1 456 0
 608              		@ sp needed
 609              	.LVL40:
 610              	.LVL41:
 611              	.LVL42:
 612 0022 70BD     		pop	{r4, r5, r6, pc}
 613              	.L44:
 614              		.align	2
 615              	.L43:
 616 0024 00000000 		.word	UART_dataBuffer1
 617 0028 00000000 		.word	UART_bufSizeBuf1
 618 002c 00000000 		.word	UART_protectBuf1
 619              		.cfi_endproc
 620              	.LFE7:
 621              		.size	UART_EzI2CSetBuffer1, .-UART_EzI2CSetBuffer1
 622              		.section	.text.UART_EzI2CSetReadBoundaryBuffer1,"ax",%progbits
 623              		.align	2
 624              		.global	UART_EzI2CSetReadBoundaryBuffer1
 625              		.code	16
 626              		.thumb_func
 627              		.type	UART_EzI2CSetReadBoundaryBuffer1, %function
 628              	UART_EzI2CSetReadBoundaryBuffer1:
 629              	.LFB8:
 477:.\Generated_Source\PSoC4/UART_EZI2C.c ****     UART_protectBuf1 = (uint16) rwBoundary;
 630              		.loc 1 477 0
 631              		.cfi_startproc
 632              	.LVL43:
 478:.\Generated_Source\PSoC4/UART_EZI2C.c **** }
 633              		.loc 1 478 0
 634 0000 014B     		ldr	r3, .L46
 635 0002 1880     		strh	r0, [r3]
 479:.\Generated_Source\PSoC4/UART_EZI2C.c **** 
 636              		.loc 1 479 0
 637              		@ sp needed
 638 0004 7047     		bx	lr
 639              	.L47:
 640 0006 C046     		.align	2
 641              	.L46:
 642 0008 00000000 		.word	UART_protectBuf1
 643              		.cfi_endproc
 644              	.LFE8:
 645              		.size	UART_EzI2CSetReadBoundaryBuffer1, .-UART_EzI2CSetReadBoundaryBuffer1
 646              		.section	.text.UART_EzI2CSetAddress2,"ax",%progbits
ARM GAS  C:\Users\Helon\AppData\Local\Temp\ccieO5Yt.s 			page 23


 647              		.align	2
 648              		.global	UART_EzI2CSetAddress2
 649              		.code	16
 650              		.thumb_func
 651              		.type	UART_EzI2CSetAddress2, %function
 652              	UART_EzI2CSetAddress2:
 653              	.LFB10:
 516:.\Generated_Source\PSoC4/UART_EZI2C.c **** 
 517:.\Generated_Source\PSoC4/UART_EZI2C.c ****     /*******************************************************************************
 518:.\Generated_Source\PSoC4/UART_EZI2C.c ****     * Function Name: UART_EzI2CSetAddress2
 519:.\Generated_Source\PSoC4/UART_EZI2C.c ****     ********************************************************************************
 520:.\Generated_Source\PSoC4/UART_EZI2C.c ****     *
 521:.\Generated_Source\PSoC4/UART_EZI2C.c ****     * Summary:
 522:.\Generated_Source\PSoC4/UART_EZI2C.c ****     *  Sets the secondary I2C slave address.
 523:.\Generated_Source\PSoC4/UART_EZI2C.c ****     *
 524:.\Generated_Source\PSoC4/UART_EZI2C.c ****     * Parameters:
 525:.\Generated_Source\PSoC4/UART_EZI2C.c ****     *  address: I2C slave address for the secondary device.
 526:.\Generated_Source\PSoC4/UART_EZI2C.c ****     *           This address is the 7-bit right-justified slave address and does
 527:.\Generated_Source\PSoC4/UART_EZI2C.c ****     *           not include the R/W bit.
 528:.\Generated_Source\PSoC4/UART_EZI2C.c ****     *           This value may be any address between 0 and 127 (0x00 to 0x7F).
 529:.\Generated_Source\PSoC4/UART_EZI2C.c ****     *
 530:.\Generated_Source\PSoC4/UART_EZI2C.c ****     * Return:
 531:.\Generated_Source\PSoC4/UART_EZI2C.c ****     *  None
 532:.\Generated_Source\PSoC4/UART_EZI2C.c ****     *
 533:.\Generated_Source\PSoC4/UART_EZI2C.c ****     *******************************************************************************/
 534:.\Generated_Source\PSoC4/UART_EZI2C.c ****     void UART_EzI2CSetAddress2(uint32 address)
 535:.\Generated_Source\PSoC4/UART_EZI2C.c ****     {
 654              		.loc 1 535 0
 655              		.cfi_startproc
 656              	.LVL44:
 657 0000 08B5     		push	{r3, lr}
 658              		.cfi_def_cfa_offset 8
 659              		.cfi_offset 3, -8
 660              		.cfi_offset 14, -4
 661 0002 011C     		mov	r1, r0
 536:.\Generated_Source\PSoC4/UART_EZI2C.c ****         UART_addrBuf2 = (uint8) address;
 662              		.loc 1 536 0
 663 0004 044B     		ldr	r3, .L49
 664 0006 1870     		strb	r0, [r3]
 537:.\Generated_Source\PSoC4/UART_EZI2C.c **** 
 538:.\Generated_Source\PSoC4/UART_EZI2C.c ****         UART_RX_MATCH_REG = UART_EzI2CUpdateRxMatchReg((uint32) UART_addrBuf1,
 665              		.loc 1 538 0
 666 0008 044B     		ldr	r3, .L49+4
 667 000a 1878     		ldrb	r0, [r3]
 668              	.LVL45:
 669 000c FFF7FEFF 		bl	UART_EzI2CUpdateRxMatchReg
 670              	.LVL46:
 671 0010 034B     		ldr	r3, .L49+8
 672 0012 1860     		str	r0, [r3]
 539:.\Generated_Source\PSoC4/UART_EZI2C.c ****                                                                                address);
 540:.\Generated_Source\PSoC4/UART_EZI2C.c ****     }
 673              		.loc 1 540 0
 674              		@ sp needed
 675 0014 08BD     		pop	{r3, pc}
 676              	.L50:
 677 0016 C046     		.align	2
 678              	.L49:
ARM GAS  C:\Users\Helon\AppData\Local\Temp\ccieO5Yt.s 			page 24


 679 0018 00000000 		.word	UART_addrBuf2
 680 001c 00000000 		.word	UART_addrBuf1
 681 0020 10032440 		.word	1076101904
 682              		.cfi_endproc
 683              	.LFE10:
 684              		.size	UART_EzI2CSetAddress2, .-UART_EzI2CSetAddress2
 685              		.section	.text.UART_EzI2CGetAddress2,"ax",%progbits
 686              		.align	2
 687              		.global	UART_EzI2CGetAddress2
 688              		.code	16
 689              		.thumb_func
 690              		.type	UART_EzI2CGetAddress2, %function
 691              	UART_EzI2CGetAddress2:
 692              	.LFB11:
 541:.\Generated_Source\PSoC4/UART_EZI2C.c **** 
 542:.\Generated_Source\PSoC4/UART_EZI2C.c **** 
 543:.\Generated_Source\PSoC4/UART_EZI2C.c ****     /*******************************************************************************
 544:.\Generated_Source\PSoC4/UART_EZI2C.c ****     * Function Name: UART_EzI2CGetAddress2
 545:.\Generated_Source\PSoC4/UART_EZI2C.c ****     ********************************************************************************
 546:.\Generated_Source\PSoC4/UART_EZI2C.c ****     *
 547:.\Generated_Source\PSoC4/UART_EZI2C.c ****     * Summary:
 548:.\Generated_Source\PSoC4/UART_EZI2C.c ****     *  Gets secondary the I2C slave 7-bit address.
 549:.\Generated_Source\PSoC4/UART_EZI2C.c ****     *
 550:.\Generated_Source\PSoC4/UART_EZI2C.c ****     * Parameters:
 551:.\Generated_Source\PSoC4/UART_EZI2C.c ****     *  None
 552:.\Generated_Source\PSoC4/UART_EZI2C.c ****     *
 553:.\Generated_Source\PSoC4/UART_EZI2C.c ****     * Return:
 554:.\Generated_Source\PSoC4/UART_EZI2C.c ****     *  Returns the I2C slave address for the secondary device.
 555:.\Generated_Source\PSoC4/UART_EZI2C.c ****     *  This address is a 7-bit right-justified slave address and does not
 556:.\Generated_Source\PSoC4/UART_EZI2C.c ****     *  include the R/W bit.
 557:.\Generated_Source\PSoC4/UART_EZI2C.c ****     *  This value may be any address between 0 and 127 (0x00 to 0x7F).
 558:.\Generated_Source\PSoC4/UART_EZI2C.c ****     *
 559:.\Generated_Source\PSoC4/UART_EZI2C.c ****     *******************************************************************************/
 560:.\Generated_Source\PSoC4/UART_EZI2C.c ****     uint32 UART_EzI2CGetAddress2(void)
 561:.\Generated_Source\PSoC4/UART_EZI2C.c ****     {
 693              		.loc 1 561 0
 694              		.cfi_startproc
 562:.\Generated_Source\PSoC4/UART_EZI2C.c ****         return((uint32) UART_addrBuf2);
 695              		.loc 1 562 0
 696 0000 014B     		ldr	r3, .L52
 697 0002 1878     		ldrb	r0, [r3]
 563:.\Generated_Source\PSoC4/UART_EZI2C.c ****     }
 698              		.loc 1 563 0
 699              		@ sp needed
 700 0004 7047     		bx	lr
 701              	.L53:
 702 0006 C046     		.align	2
 703              	.L52:
 704 0008 00000000 		.word	UART_addrBuf2
 705              		.cfi_endproc
 706              	.LFE11:
 707              		.size	UART_EzI2CGetAddress2, .-UART_EzI2CGetAddress2
 708              		.section	.text.UART_EzI2CSetBuffer2,"ax",%progbits
 709              		.align	2
 710              		.global	UART_EzI2CSetBuffer2
 711              		.code	16
 712              		.thumb_func
ARM GAS  C:\Users\Helon\AppData\Local\Temp\ccieO5Yt.s 			page 25


 713              		.type	UART_EzI2CSetBuffer2, %function
 714              	UART_EzI2CSetBuffer2:
 715              	.LFB12:
 564:.\Generated_Source\PSoC4/UART_EZI2C.c **** 
 565:.\Generated_Source\PSoC4/UART_EZI2C.c **** 
 566:.\Generated_Source\PSoC4/UART_EZI2C.c ****     /*******************************************************************************
 567:.\Generated_Source\PSoC4/UART_EZI2C.c ****     * Function Name: UART_EzI2CSetBuffer2
 568:.\Generated_Source\PSoC4/UART_EZI2C.c ****     ********************************************************************************
 569:.\Generated_Source\PSoC4/UART_EZI2C.c ****     *
 570:.\Generated_Source\PSoC4/UART_EZI2C.c ****     * Summary:
 571:.\Generated_Source\PSoC4/UART_EZI2C.c ****     *  Sets up the data buffer to be exposed to the I2C master on a secondary slave
 572:.\Generated_Source\PSoC4/UART_EZI2C.c ****     *  address request.
 573:.\Generated_Source\PSoC4/UART_EZI2C.c ****     *
 574:.\Generated_Source\PSoC4/UART_EZI2C.c ****     * Parameters:
 575:.\Generated_Source\PSoC4/UART_EZI2C.c ****     *  bufSize: Size of the buffer in bytes.
 576:.\Generated_Source\PSoC4/UART_EZI2C.c ****     *  rwBoundary: Sets how many bytes are writeable in the beginning of the buffer.
 577:.\Generated_Source\PSoC4/UART_EZI2C.c ****     *              This value must be less than or equal to the buffer size.
 578:.\Generated_Source\PSoC4/UART_EZI2C.c ****     *              Data located at offset rwBoundry and greater are read only.
 579:.\Generated_Source\PSoC4/UART_EZI2C.c ****     *  buffer: Pointer to the data buffer.
 580:.\Generated_Source\PSoC4/UART_EZI2C.c ****     *
 581:.\Generated_Source\PSoC4/UART_EZI2C.c ****     * Return:
 582:.\Generated_Source\PSoC4/UART_EZI2C.c ****     *  None
 583:.\Generated_Source\PSoC4/UART_EZI2C.c ****     *
 584:.\Generated_Source\PSoC4/UART_EZI2C.c ****     *******************************************************************************/
 585:.\Generated_Source\PSoC4/UART_EZI2C.c ****     void UART_EzI2CSetBuffer2(uint32 bufSize, uint32 rwBoundary, volatile uint8 * buffer)
 586:.\Generated_Source\PSoC4/UART_EZI2C.c ****     {
 716              		.loc 1 586 0
 717              		.cfi_startproc
 718              	.LVL47:
 719 0000 70B5     		push	{r4, r5, r6, lr}
 720              		.cfi_def_cfa_offset 16
 721              		.cfi_offset 4, -16
 722              		.cfi_offset 5, -12
 723              		.cfi_offset 6, -8
 724              		.cfi_offset 14, -4
 725 0002 061C     		mov	r6, r0
 726 0004 0D1C     		mov	r5, r1
 727 0006 141E     		sub	r4, r2, #0
 587:.\Generated_Source\PSoC4/UART_EZI2C.c ****         if (NULL != buffer)
 728              		.loc 1 587 0
 729 0008 0BD0     		beq	.L54
 588:.\Generated_Source\PSoC4/UART_EZI2C.c ****         {
 589:.\Generated_Source\PSoC4/UART_EZI2C.c ****             UART_DisableInt();  /* Lock from interruption */
 730              		.loc 1 589 0
 731 000a 0920     		mov	r0, #9
 732              	.LVL48:
 733 000c FFF7FEFF 		bl	CyIntDisable
 734              	.LVL49:
 590:.\Generated_Source\PSoC4/UART_EZI2C.c **** 
 591:.\Generated_Source\PSoC4/UART_EZI2C.c ****             UART_dataBuffer2 =  buffer;
 735              		.loc 1 591 0
 736 0010 044B     		ldr	r3, .L56
 737 0012 1C60     		str	r4, [r3]
 592:.\Generated_Source\PSoC4/UART_EZI2C.c ****             UART_bufSizeBuf2 = (uint16) bufSize;
 738              		.loc 1 592 0
 739 0014 044B     		ldr	r3, .L56+4
 740 0016 1E80     		strh	r6, [r3]
ARM GAS  C:\Users\Helon\AppData\Local\Temp\ccieO5Yt.s 			page 26


 593:.\Generated_Source\PSoC4/UART_EZI2C.c ****             UART_protectBuf2 = (uint16) rwBoundary;
 741              		.loc 1 593 0
 742 0018 044B     		ldr	r3, .L56+8
 743 001a 1D80     		strh	r5, [r3]
 594:.\Generated_Source\PSoC4/UART_EZI2C.c **** 
 595:.\Generated_Source\PSoC4/UART_EZI2C.c ****             UART_EnableInt();   /* Release lock */
 744              		.loc 1 595 0
 745 001c 0920     		mov	r0, #9
 746 001e FFF7FEFF 		bl	CyIntEnable
 747              	.LVL50:
 748              	.L54:
 596:.\Generated_Source\PSoC4/UART_EZI2C.c ****         }
 597:.\Generated_Source\PSoC4/UART_EZI2C.c ****     }
 749              		.loc 1 597 0
 750              		@ sp needed
 751              	.LVL51:
 752              	.LVL52:
 753              	.LVL53:
 754 0022 70BD     		pop	{r4, r5, r6, pc}
 755              	.L57:
 756              		.align	2
 757              	.L56:
 758 0024 00000000 		.word	UART_dataBuffer2
 759 0028 00000000 		.word	UART_bufSizeBuf2
 760 002c 00000000 		.word	UART_protectBuf2
 761              		.cfi_endproc
 762              	.LFE12:
 763              		.size	UART_EzI2CSetBuffer2, .-UART_EzI2CSetBuffer2
 764              		.section	.text.UART_EzI2CSetReadBoundaryBuffer2,"ax",%progbits
 765              		.align	2
 766              		.global	UART_EzI2CSetReadBoundaryBuffer2
 767              		.code	16
 768              		.thumb_func
 769              		.type	UART_EzI2CSetReadBoundaryBuffer2, %function
 770              	UART_EzI2CSetReadBoundaryBuffer2:
 771              	.LFB13:
 598:.\Generated_Source\PSoC4/UART_EZI2C.c **** 
 599:.\Generated_Source\PSoC4/UART_EZI2C.c **** 
 600:.\Generated_Source\PSoC4/UART_EZI2C.c ****     /*******************************************************************************
 601:.\Generated_Source\PSoC4/UART_EZI2C.c ****     * Function Name: UART_EzI2CSetReadBoundaryBuffer2
 602:.\Generated_Source\PSoC4/UART_EZI2C.c ****     ********************************************************************************
 603:.\Generated_Source\PSoC4/UART_EZI2C.c ****     *
 604:.\Generated_Source\PSoC4/UART_EZI2C.c ****     * Summary:
 605:.\Generated_Source\PSoC4/UART_EZI2C.c ****     *  Sets the read only boundary in the data buffer to be exposed to the I2C
 606:.\Generated_Source\PSoC4/UART_EZI2C.c ****     *  master on a secondary address request.
 607:.\Generated_Source\PSoC4/UART_EZI2C.c ****     *
 608:.\Generated_Source\PSoC4/UART_EZI2C.c ****     * Parameters:
 609:.\Generated_Source\PSoC4/UART_EZI2C.c ****     *  rwBoundary: Sets how many bytes are writeable at the beginning of the buffer.
 610:.\Generated_Source\PSoC4/UART_EZI2C.c ****     *              This value must be less than or equal to the buffer size.
 611:.\Generated_Source\PSoC4/UART_EZI2C.c ****     *              Data located at offset rwBoundry and greater are read only.
 612:.\Generated_Source\PSoC4/UART_EZI2C.c ****     *
 613:.\Generated_Source\PSoC4/UART_EZI2C.c ****     * Return:
 614:.\Generated_Source\PSoC4/UART_EZI2C.c ****     *  None
 615:.\Generated_Source\PSoC4/UART_EZI2C.c ****     *
 616:.\Generated_Source\PSoC4/UART_EZI2C.c ****     *******************************************************************************/
 617:.\Generated_Source\PSoC4/UART_EZI2C.c ****     void UART_EzI2CSetReadBoundaryBuffer2(uint32 rwBoundary)
 618:.\Generated_Source\PSoC4/UART_EZI2C.c ****     {
ARM GAS  C:\Users\Helon\AppData\Local\Temp\ccieO5Yt.s 			page 27


 772              		.loc 1 618 0
 773              		.cfi_startproc
 774              	.LVL54:
 619:.\Generated_Source\PSoC4/UART_EZI2C.c ****         UART_protectBuf2 = (uint16) rwBoundary;
 775              		.loc 1 619 0
 776 0000 014B     		ldr	r3, .L59
 777 0002 1880     		strh	r0, [r3]
 620:.\Generated_Source\PSoC4/UART_EZI2C.c ****     }
 778              		.loc 1 620 0
 779              		@ sp needed
 780 0004 7047     		bx	lr
 781              	.L60:
 782 0006 C046     		.align	2
 783              	.L59:
 784 0008 00000000 		.word	UART_protectBuf2
 785              		.cfi_endproc
 786              	.LFE13:
 787              		.size	UART_EzI2CSetReadBoundaryBuffer2, .-UART_EzI2CSetReadBoundaryBuffer2
 788              		.section	.text.UART_EzI2CSaveConfig,"ax",%progbits
 789              		.align	2
 790              		.global	UART_EzI2CSaveConfig
 791              		.code	16
 792              		.thumb_func
 793              		.type	UART_EzI2CSaveConfig, %function
 794              	UART_EzI2CSaveConfig:
 795              	.LFB14:
 621:.\Generated_Source\PSoC4/UART_EZI2C.c **** 
 622:.\Generated_Source\PSoC4/UART_EZI2C.c **** #endif /* (UART_SECONDARY_ADDRESS_ENABLE_CONST) */
 623:.\Generated_Source\PSoC4/UART_EZI2C.c **** 
 624:.\Generated_Source\PSoC4/UART_EZI2C.c **** 
 625:.\Generated_Source\PSoC4/UART_EZI2C.c **** #if(UART_EZI2C_WAKE_ENABLE_CONST)
 626:.\Generated_Source\PSoC4/UART_EZI2C.c ****     /*******************************************************************************
 627:.\Generated_Source\PSoC4/UART_EZI2C.c ****     * Function Name: UART_EzI2CSaveConfig
 628:.\Generated_Source\PSoC4/UART_EZI2C.c ****     ********************************************************************************
 629:.\Generated_Source\PSoC4/UART_EZI2C.c ****     *
 630:.\Generated_Source\PSoC4/UART_EZI2C.c ****     * Summary:
 631:.\Generated_Source\PSoC4/UART_EZI2C.c ****     *  Clock stretching is  enabled: Enables INTR_I2C_EC.WAKE_UP interrupt source.
 632:.\Generated_Source\PSoC4/UART_EZI2C.c ****     *  It triggers on the slave address match.
 633:.\Generated_Source\PSoC4/UART_EZI2C.c ****     *  Clock stretching is disabled: Waits until the I2C slave becomes free and
 634:.\Generated_Source\PSoC4/UART_EZI2C.c ****     *  disables the block to perform reconfiguration from the active mode operation
 635:.\Generated_Source\PSoC4/UART_EZI2C.c ****     *  to deep sleep with wake up on the address match: enables INTR_I2C_EC.WAKE_UP
 636:.\Generated_Source\PSoC4/UART_EZI2C.c ****     *  interrupt source and disables the INTR_S and INTR_TX interrupt sources.
 637:.\Generated_Source\PSoC4/UART_EZI2C.c ****     *  The block is disabled before reconfiguration and enabled when
 638:.\Generated_Source\PSoC4/UART_EZI2C.c ****     *  it is completed.
 639:.\Generated_Source\PSoC4/UART_EZI2C.c ****     *
 640:.\Generated_Source\PSoC4/UART_EZI2C.c ****     * Parameters:
 641:.\Generated_Source\PSoC4/UART_EZI2C.c ****     *  None
 642:.\Generated_Source\PSoC4/UART_EZI2C.c ****     *
 643:.\Generated_Source\PSoC4/UART_EZI2C.c ****     * Return:
 644:.\Generated_Source\PSoC4/UART_EZI2C.c ****     *  None
 645:.\Generated_Source\PSoC4/UART_EZI2C.c ****     *
 646:.\Generated_Source\PSoC4/UART_EZI2C.c ****     *******************************************************************************/
 647:.\Generated_Source\PSoC4/UART_EZI2C.c ****     void UART_EzI2CSaveConfig(void)
 648:.\Generated_Source\PSoC4/UART_EZI2C.c ****     {
 796              		.loc 1 648 0
 797              		.cfi_startproc
 798 0000 38B5     		push	{r3, r4, r5, lr}
ARM GAS  C:\Users\Helon\AppData\Local\Temp\ccieO5Yt.s 			page 28


 799              		.cfi_def_cfa_offset 16
 800              		.cfi_offset 3, -16
 801              		.cfi_offset 4, -12
 802              		.cfi_offset 5, -8
 803              		.cfi_offset 14, -4
 804              	.LVL55:
 649:.\Generated_Source\PSoC4/UART_EZI2C.c ****     #if(UART_CY_SCBIP_V0)
 650:.\Generated_Source\PSoC4/UART_EZI2C.c **** 
 651:.\Generated_Source\PSoC4/UART_EZI2C.c ****         if(UART_EZI2C_SCL_STRETCH_ENABLE)
 652:.\Generated_Source\PSoC4/UART_EZI2C.c ****         {
 653:.\Generated_Source\PSoC4/UART_EZI2C.c ****             /* Enable wakeup interrupt source on address match */
 654:.\Generated_Source\PSoC4/UART_EZI2C.c ****             UART_SetI2CExtClkInterruptMode(UART_INTR_I2C_EC_WAKE_UP);
 655:.\Generated_Source\PSoC4/UART_EZI2C.c ****         }
 656:.\Generated_Source\PSoC4/UART_EZI2C.c ****         
 657:.\Generated_Source\PSoC4/UART_EZI2C.c **** 
 658:.\Generated_Source\PSoC4/UART_EZI2C.c ****     #else
 659:.\Generated_Source\PSoC4/UART_EZI2C.c ****         uint8 enableInt;
 660:.\Generated_Source\PSoC4/UART_EZI2C.c **** 
 661:.\Generated_Source\PSoC4/UART_EZI2C.c ****         enableInt = (uint8) UART_INTR_I2C_EC_WAKE_UP;
 662:.\Generated_Source\PSoC4/UART_EZI2C.c **** 
 663:.\Generated_Source\PSoC4/UART_EZI2C.c ****         if(UART_EZI2C_SCL_STRETCH_ENABLE)
 805              		.loc 1 663 0
 806 0002 234B     		ldr	r3, .L67
 807 0004 1B68     		ldr	r3, [r3]
 808 0006 5B06     		lsl	r3, r3, #25
 809 0008 03D5     		bpl	.L64
 664:.\Generated_Source\PSoC4/UART_EZI2C.c ****         {
 665:.\Generated_Source\PSoC4/UART_EZI2C.c ****         #if (UART_SCB_CLK_INTERNAL)
 666:.\Generated_Source\PSoC4/UART_EZI2C.c ****             /* Disable clock to internal address match logic. Ticket ID #187931 */
 667:.\Generated_Source\PSoC4/UART_EZI2C.c ****             UART_SCBCLK_Stop();
 668:.\Generated_Source\PSoC4/UART_EZI2C.c ****         #endif /* (UART_SCB_CLK_INTERNAL) */
 669:.\Generated_Source\PSoC4/UART_EZI2C.c **** 
 670:.\Generated_Source\PSoC4/UART_EZI2C.c ****             /* Enable interrupt source to wakeup device */
 671:.\Generated_Source\PSoC4/UART_EZI2C.c ****             UART_SetI2CExtClkInterruptMode(enableInt);
 810              		.loc 1 671 0
 811 000a 0122     		mov	r2, #1
 812 000c 214B     		ldr	r3, .L67+4
 813 000e 1A60     		str	r2, [r3]
 814 0010 3DE0     		b	.L61
 815              	.LVL56:
 816              	.L64:
 672:.\Generated_Source\PSoC4/UART_EZI2C.c ****         }
 673:.\Generated_Source\PSoC4/UART_EZI2C.c ****         else
 674:.\Generated_Source\PSoC4/UART_EZI2C.c ****         {
 675:.\Generated_Source\PSoC4/UART_EZI2C.c ****             for(;;) /* Wait for end of transaction intended to slave */
 676:.\Generated_Source\PSoC4/UART_EZI2C.c ****             {
 677:.\Generated_Source\PSoC4/UART_EZI2C.c ****                 if(0u == (UART_GetI2CExtClkInterruptSource() & UART_INTR_I2C_EC_WAKE_UP))
 817              		.loc 1 677 0
 818 0012 214B     		ldr	r3, .L67+8
 819 0014 1B68     		ldr	r3, [r3]
 820 0016 DB07     		lsl	r3, r3, #31
 821 0018 FBD4     		bmi	.L64
 678:.\Generated_Source\PSoC4/UART_EZI2C.c ****                 {
 679:.\Generated_Source\PSoC4/UART_EZI2C.c ****                     enableInt = CyEnterCriticalSection();
 822              		.loc 1 679 0
 823 001a FFF7FEFF 		bl	CyEnterCriticalSection
 824              	.LVL57:
ARM GAS  C:\Users\Helon\AppData\Local\Temp\ccieO5Yt.s 			page 29


 825 001e 041C     		mov	r4, r0
 826              	.LVL58:
 680:.\Generated_Source\PSoC4/UART_EZI2C.c **** 
 681:.\Generated_Source\PSoC4/UART_EZI2C.c ****                     if(0u == (UART_GetI2CExtClkInterruptSource() & UART_INTR_I2C_EC_WAKE_UP))
 827              		.loc 1 681 0
 828 0020 1D4B     		ldr	r3, .L67+8
 829 0022 1B68     		ldr	r3, [r3]
 830 0024 DB07     		lsl	r3, r3, #31
 831 0026 2FD4     		bmi	.L65
 682:.\Generated_Source\PSoC4/UART_EZI2C.c ****                     {
 683:.\Generated_Source\PSoC4/UART_EZI2C.c ****                         /* Attempts to set NACK command before disable block */
 684:.\Generated_Source\PSoC4/UART_EZI2C.c ****                         UART_I2C_SLAVE_GENERATE_NACK;
 832              		.loc 1 684 0
 833 0028 0222     		mov	r2, #2
 834 002a 1C4B     		ldr	r3, .L67+12
 835 002c 1A60     		str	r2, [r3]
 685:.\Generated_Source\PSoC4/UART_EZI2C.c **** 
 686:.\Generated_Source\PSoC4/UART_EZI2C.c ****                         if(0u == (UART_GetI2CExtClkInterruptSource() & UART_INTR_I2C_EC_WAKE_UP))
 836              		.loc 1 686 0
 837 002e 1A4B     		ldr	r3, .L67+8
 838 0030 1B68     		ldr	r3, [r3]
 839 0032 DB07     		lsl	r3, r3, #31
 840 0034 25D4     		bmi	.L66
 687:.\Generated_Source\PSoC4/UART_EZI2C.c ****                         {
 688:.\Generated_Source\PSoC4/UART_EZI2C.c ****                             /* NACK command was set before. It is safe to disable block */
 689:.\Generated_Source\PSoC4/UART_EZI2C.c ****                             UART_CTRL_REG &= (uint32) ~UART_CTRL_ENABLED;
 841              		.loc 1 689 0
 842 0036 1A4D     		ldr	r5, .L67+16
 843 0038 2B68     		ldr	r3, [r5]
 844 003a 5B00     		lsl	r3, r3, #1
 845 003c 5B08     		lsr	r3, r3, #1
 846 003e 2B60     		str	r3, [r5]
 690:.\Generated_Source\PSoC4/UART_EZI2C.c ****                             UART_DisableInt();
 847              		.loc 1 690 0
 848 0040 0920     		mov	r0, #9
 849              	.LVL59:
 850 0042 FFF7FEFF 		bl	CyIntDisable
 851              	.LVL60:
 691:.\Generated_Source\PSoC4/UART_EZI2C.c **** 
 692:.\Generated_Source\PSoC4/UART_EZI2C.c ****                             CyExitCriticalSection(enableInt);
 852              		.loc 1 692 0
 853 0046 201C     		mov	r0, r4
 854 0048 FFF7FEFF 		bl	CyExitCriticalSection
 855              	.LVL61:
 693:.\Generated_Source\PSoC4/UART_EZI2C.c ****                             break;
 694:.\Generated_Source\PSoC4/UART_EZI2C.c ****                         }
 695:.\Generated_Source\PSoC4/UART_EZI2C.c ****                         else
 696:.\Generated_Source\PSoC4/UART_EZI2C.c ****                         {
 697:.\Generated_Source\PSoC4/UART_EZI2C.c ****                             /* Clear NACK command to prevent data NACK */
 698:.\Generated_Source\PSoC4/UART_EZI2C.c ****                             UART_I2C_SLAVE_CLEAR_NACK;
 699:.\Generated_Source\PSoC4/UART_EZI2C.c ****                         }
 700:.\Generated_Source\PSoC4/UART_EZI2C.c ****                     }
 701:.\Generated_Source\PSoC4/UART_EZI2C.c **** 
 702:.\Generated_Source\PSoC4/UART_EZI2C.c ****                     CyExitCriticalSection(enableInt);
 703:.\Generated_Source\PSoC4/UART_EZI2C.c ****                 }
 704:.\Generated_Source\PSoC4/UART_EZI2C.c ****             }
 705:.\Generated_Source\PSoC4/UART_EZI2C.c **** 
ARM GAS  C:\Users\Helon\AppData\Local\Temp\ccieO5Yt.s 			page 30


 706:.\Generated_Source\PSoC4/UART_EZI2C.c ****             /* Disable all active mode interrupt sources */
 707:.\Generated_Source\PSoC4/UART_EZI2C.c ****             UART_SetTxInterruptMode(UART_NO_INTR_SOURCES);
 856              		.loc 1 707 0
 857 004c 0023     		mov	r3, #0
 858 004e 154A     		ldr	r2, .L67+20
 859 0050 1360     		str	r3, [r2]
 708:.\Generated_Source\PSoC4/UART_EZI2C.c ****             UART_SetSlaveInterruptMode(UART_NO_INTR_SOURCES);
 860              		.loc 1 708 0
 861 0052 0F4A     		ldr	r2, .L67
 862 0054 1360     		str	r3, [r2]
 709:.\Generated_Source\PSoC4/UART_EZI2C.c ****             UART_ClearPendingInt();
 863              		.loc 1 709 0
 864 0056 0920     		mov	r0, #9
 865 0058 FFF7FEFF 		bl	CyIntClearPending
 866              	.LVL62:
 710:.\Generated_Source\PSoC4/UART_EZI2C.c ****             UART_EnableInt();
 867              		.loc 1 710 0
 868 005c 0920     		mov	r0, #9
 869 005e FFF7FEFF 		bl	CyIntEnable
 870              	.LVL63:
 711:.\Generated_Source\PSoC4/UART_EZI2C.c **** 
 712:.\Generated_Source\PSoC4/UART_EZI2C.c ****             /* Enable wakeup interrupt on address match */
 713:.\Generated_Source\PSoC4/UART_EZI2C.c ****             UART_SetI2CExtClkInterruptMode(UART_INTR_I2C_EC_WAKE_UP);
 871              		.loc 1 713 0
 872 0062 0122     		mov	r2, #1
 873 0064 0B4B     		ldr	r3, .L67+4
 874 0066 1A60     		str	r2, [r3]
 714:.\Generated_Source\PSoC4/UART_EZI2C.c **** 
 715:.\Generated_Source\PSoC4/UART_EZI2C.c ****             enableInt = CyEnterCriticalSection();
 875              		.loc 1 715 0
 876 0068 FFF7FEFF 		bl	CyEnterCriticalSection
 877              	.LVL64:
 716:.\Generated_Source\PSoC4/UART_EZI2C.c **** 
 717:.\Generated_Source\PSoC4/UART_EZI2C.c ****             UART_CTRL_REG |= (uint32) UART_CTRL_ENABLED;
 878              		.loc 1 717 0
 879 006c 2B68     		ldr	r3, [r5]
 880 006e 8022     		mov	r2, #128
 881 0070 1206     		lsl	r2, r2, #24
 882 0072 1343     		orr	r3, r2
 883 0074 2B60     		str	r3, [r5]
 718:.\Generated_Source\PSoC4/UART_EZI2C.c ****             UART_I2C_SLAVE_GENERATE_NACK;
 884              		.loc 1 718 0
 885 0076 0222     		mov	r2, #2
 886 0078 084B     		ldr	r3, .L67+12
 887 007a 1A60     		str	r2, [r3]
 719:.\Generated_Source\PSoC4/UART_EZI2C.c **** 
 720:.\Generated_Source\PSoC4/UART_EZI2C.c ****             CyExitCriticalSection(enableInt);
 888              		.loc 1 720 0
 889 007c FFF7FEFF 		bl	CyExitCriticalSection
 890              	.LVL65:
 891 0080 05E0     		b	.L61
 892              	.LVL66:
 893              	.L66:
 698:.\Generated_Source\PSoC4/UART_EZI2C.c ****                         }
 894              		.loc 1 698 0
 895 0082 0022     		mov	r2, #0
 896 0084 054B     		ldr	r3, .L67+12
ARM GAS  C:\Users\Helon\AppData\Local\Temp\ccieO5Yt.s 			page 31


 897 0086 1A60     		str	r2, [r3]
 898              	.L65:
 702:.\Generated_Source\PSoC4/UART_EZI2C.c ****                 }
 899              		.loc 1 702 0
 900 0088 FFF7FEFF 		bl	CyExitCriticalSection
 901              	.LVL67:
 902 008c C1E7     		b	.L64
 903              	.L61:
 721:.\Generated_Source\PSoC4/UART_EZI2C.c ****         }
 722:.\Generated_Source\PSoC4/UART_EZI2C.c ****         
 723:.\Generated_Source\PSoC4/UART_EZI2C.c ****     #endif /* (UART_CY_SCBIP_V0) */
 724:.\Generated_Source\PSoC4/UART_EZI2C.c ****     }
 904              		.loc 1 724 0
 905              		@ sp needed
 906 008e 38BD     		pop	{r3, r4, r5, pc}
 907              	.L68:
 908              		.align	2
 909              	.L67:
 910 0090 480F2440 		.word	1076105032
 911 0094 880E2440 		.word	1076104840
 912 0098 800E2440 		.word	1076104832
 913 009c 6C002440 		.word	1076101228
 914 00a0 00002440 		.word	1076101120
 915 00a4 880F2440 		.word	1076105096
 916              		.cfi_endproc
 917              	.LFE14:
 918              		.size	UART_EzI2CSaveConfig, .-UART_EzI2CSaveConfig
 919              		.section	.text.UART_EzI2CRestoreConfig,"ax",%progbits
 920              		.align	2
 921              		.global	UART_EzI2CRestoreConfig
 922              		.code	16
 923              		.thumb_func
 924              		.type	UART_EzI2CRestoreConfig, %function
 925              	UART_EzI2CRestoreConfig:
 926              	.LFB15:
 725:.\Generated_Source\PSoC4/UART_EZI2C.c **** 
 726:.\Generated_Source\PSoC4/UART_EZI2C.c **** 
 727:.\Generated_Source\PSoC4/UART_EZI2C.c ****     /*******************************************************************************
 728:.\Generated_Source\PSoC4/UART_EZI2C.c ****     * Function Name: UART_EzI2CRestoreConfig
 729:.\Generated_Source\PSoC4/UART_EZI2C.c ****     ********************************************************************************
 730:.\Generated_Source\PSoC4/UART_EZI2C.c ****     *
 731:.\Generated_Source\PSoC4/UART_EZI2C.c ****     * Summary:
 732:.\Generated_Source\PSoC4/UART_EZI2C.c ****     *  Clock stretching is  enabled: Disables the INTR_I2C_EC.WAKE_UP interrupt
 733:.\Generated_Source\PSoC4/UART_EZI2C.c ****     *  source.
 734:.\Generated_Source\PSoC4/UART_EZI2C.c ****     *  Clock stretching is disabled: Reconfigures the EZI2C component from
 735:.\Generated_Source\PSoC4/UART_EZI2C.c ****     *  Deep Sleep (wake up on the address match) to active operation: disables
 736:.\Generated_Source\PSoC4/UART_EZI2C.c ****     *  the INTR_I2C_EC.WAKE_UP interrupt source and restores the INTR_S
 737:.\Generated_Source\PSoC4/UART_EZI2C.c ****     *  interrupt sources to operate in the active mode.
 738:.\Generated_Source\PSoC4/UART_EZI2C.c ****     *  The block is disabled before reconfiguration and enabled when
 739:.\Generated_Source\PSoC4/UART_EZI2C.c ****     *  it is completed.
 740:.\Generated_Source\PSoC4/UART_EZI2C.c ****     *
 741:.\Generated_Source\PSoC4/UART_EZI2C.c ****     * Parameters:
 742:.\Generated_Source\PSoC4/UART_EZI2C.c ****     *  None
 743:.\Generated_Source\PSoC4/UART_EZI2C.c ****     *
 744:.\Generated_Source\PSoC4/UART_EZI2C.c ****     * Return:
 745:.\Generated_Source\PSoC4/UART_EZI2C.c ****     *  None
 746:.\Generated_Source\PSoC4/UART_EZI2C.c ****     *
ARM GAS  C:\Users\Helon\AppData\Local\Temp\ccieO5Yt.s 			page 32


 747:.\Generated_Source\PSoC4/UART_EZI2C.c ****     *******************************************************************************/
 748:.\Generated_Source\PSoC4/UART_EZI2C.c ****     void UART_EzI2CRestoreConfig(void)
 749:.\Generated_Source\PSoC4/UART_EZI2C.c ****     {
 927              		.loc 1 749 0
 928              		.cfi_startproc
 929 0000 10B5     		push	{r4, lr}
 930              		.cfi_def_cfa_offset 8
 931              		.cfi_offset 4, -8
 932              		.cfi_offset 14, -4
 750:.\Generated_Source\PSoC4/UART_EZI2C.c ****     #if(UART_CY_SCBIP_V0)
 751:.\Generated_Source\PSoC4/UART_EZI2C.c **** 
 752:.\Generated_Source\PSoC4/UART_EZI2C.c ****         if(UART_EZI2C_SCL_STRETCH_ENABLE)
 753:.\Generated_Source\PSoC4/UART_EZI2C.c ****         {
 754:.\Generated_Source\PSoC4/UART_EZI2C.c ****             /* Disable wakeup interrupt on address match */
 755:.\Generated_Source\PSoC4/UART_EZI2C.c ****             UART_SetI2CExtClkInterruptMode(UART_NO_INTR_SOURCES);
 756:.\Generated_Source\PSoC4/UART_EZI2C.c ****         }
 757:.\Generated_Source\PSoC4/UART_EZI2C.c ****         
 758:.\Generated_Source\PSoC4/UART_EZI2C.c **** 
 759:.\Generated_Source\PSoC4/UART_EZI2C.c ****     #else
 760:.\Generated_Source\PSoC4/UART_EZI2C.c **** 
 761:.\Generated_Source\PSoC4/UART_EZI2C.c ****         if(UART_EZI2C_SCL_STRETCH_ENABLE)
 933              		.loc 1 761 0
 934 0002 0E4B     		ldr	r3, .L72
 935 0004 1B68     		ldr	r3, [r3]
 936 0006 5B06     		lsl	r3, r3, #25
 937 0008 03D5     		bpl	.L70
 762:.\Generated_Source\PSoC4/UART_EZI2C.c ****         {
 763:.\Generated_Source\PSoC4/UART_EZI2C.c ****             /* Disable wakeup interrupt source on address match */
 764:.\Generated_Source\PSoC4/UART_EZI2C.c ****             UART_SetI2CExtClkInterruptMode(UART_NO_INTR_SOURCES);
 938              		.loc 1 764 0
 939 000a 0022     		mov	r2, #0
 940 000c 0C4B     		ldr	r3, .L72+4
 941 000e 1A60     		str	r2, [r3]
 942 0010 13E0     		b	.L69
 943              	.L70:
 765:.\Generated_Source\PSoC4/UART_EZI2C.c **** 
 766:.\Generated_Source\PSoC4/UART_EZI2C.c ****         #if (UART_SCB_CLK_INTERNAL)
 767:.\Generated_Source\PSoC4/UART_EZI2C.c ****             /* Enable clock to internal address match logic. Ticket ID #187931 */
 768:.\Generated_Source\PSoC4/UART_EZI2C.c ****             UART_SCBCLK_Start();
 769:.\Generated_Source\PSoC4/UART_EZI2C.c ****         #endif /* (UART_SCB_CLK_INTERNAL) */
 770:.\Generated_Source\PSoC4/UART_EZI2C.c ****         }
 771:.\Generated_Source\PSoC4/UART_EZI2C.c ****         else
 772:.\Generated_Source\PSoC4/UART_EZI2C.c ****         {
 773:.\Generated_Source\PSoC4/UART_EZI2C.c ****             /* NACK will be driven on the bus by wakeup or NACK command.
 774:.\Generated_Source\PSoC4/UART_EZI2C.c ****             * It is safe to disable block to restore active mode configuration.
 775:.\Generated_Source\PSoC4/UART_EZI2C.c ****             */
 776:.\Generated_Source\PSoC4/UART_EZI2C.c ****             UART_CTRL_REG &= (uint32) ~UART_CTRL_ENABLED;
 944              		.loc 1 776 0
 945 0012 0C4C     		ldr	r4, .L72+8
 946 0014 2368     		ldr	r3, [r4]
 947 0016 5B00     		lsl	r3, r3, #1
 948 0018 5B08     		lsr	r3, r3, #1
 949 001a 2360     		str	r3, [r4]
 777:.\Generated_Source\PSoC4/UART_EZI2C.c **** 
 778:.\Generated_Source\PSoC4/UART_EZI2C.c ****             /* Restore active mode interrupt sources */
 779:.\Generated_Source\PSoC4/UART_EZI2C.c ****             UART_SetI2CExtClkInterruptMode(UART_NO_INTR_SOURCES);
 950              		.loc 1 779 0
ARM GAS  C:\Users\Helon\AppData\Local\Temp\ccieO5Yt.s 			page 33


 951 001c 0022     		mov	r2, #0
 952 001e 084B     		ldr	r3, .L72+4
 953 0020 1A60     		str	r2, [r3]
 780:.\Generated_Source\PSoC4/UART_EZI2C.c ****             UART_SetSlaveInterruptMode(UART_EZI2C_INTR_SLAVE_MASK |
 954              		.loc 1 780 0
 955 0022 3222     		mov	r2, #50
 956 0024 FF32     		add	r2, r2, #255
 957 0026 054B     		ldr	r3, .L72
 958 0028 1A60     		str	r2, [r3]
 781:.\Generated_Source\PSoC4/UART_EZI2C.c ****                                                    UART_INTR_SLAVE_I2C_START);
 782:.\Generated_Source\PSoC4/UART_EZI2C.c ****             UART_ClearPendingInt();
 959              		.loc 1 782 0
 960 002a 0920     		mov	r0, #9
 961 002c FFF7FEFF 		bl	CyIntClearPending
 962              	.LVL68:
 783:.\Generated_Source\PSoC4/UART_EZI2C.c **** 
 784:.\Generated_Source\PSoC4/UART_EZI2C.c ****             UART_CTRL_REG |= (uint32) UART_CTRL_ENABLED;
 963              		.loc 1 784 0
 964 0030 2368     		ldr	r3, [r4]
 965 0032 8022     		mov	r2, #128
 966 0034 1206     		lsl	r2, r2, #24
 967 0036 1343     		orr	r3, r2
 968 0038 2360     		str	r3, [r4]
 969              	.L69:
 785:.\Generated_Source\PSoC4/UART_EZI2C.c ****         }
 786:.\Generated_Source\PSoC4/UART_EZI2C.c ****         
 787:.\Generated_Source\PSoC4/UART_EZI2C.c **** 
 788:.\Generated_Source\PSoC4/UART_EZI2C.c ****     #endif /* (UART_CY_SCBIP_V0) */
 789:.\Generated_Source\PSoC4/UART_EZI2C.c ****     }
 970              		.loc 1 789 0
 971              		@ sp needed
 972 003a 10BD     		pop	{r4, pc}
 973              	.L73:
 974              		.align	2
 975              	.L72:
 976 003c 480F2440 		.word	1076105032
 977 0040 880E2440 		.word	1076104840
 978 0044 00002440 		.word	1076101120
 979              		.cfi_endproc
 980              	.LFE15:
 981              		.size	UART_EzI2CRestoreConfig, .-UART_EzI2CRestoreConfig
 982              		.global	UART_configEzI2C
 983              		.comm	UART_indexBuf2,2,2
 984              		.comm	UART_offsetBuf2,2,2
 985              		.comm	UART_protectBuf2,2,2
 986              		.comm	UART_bufSizeBuf2,2,2
 987              		.comm	UART_dataBuffer2,4,4
 988              		.comm	UART_addrBuf2,1,1
 989              		.comm	UART_addrBuf1,1,1
 990              		.comm	UART_indexBuf1,2,2
 991              		.comm	UART_offsetBuf1,2,2
 992              		.comm	UART_protectBuf1,2,2
 993              		.comm	UART_bufSizeBuf1,2,2
 994              		.comm	UART_dataBuffer1,4,4
 995              		.comm	UART_fsmState,1,1
 996              		.comm	UART_curStatus,1,1
 997              		.section	.rodata
ARM GAS  C:\Users\Helon\AppData\Local\Temp\ccieO5Yt.s 			page 34


 998              		.align	2
 999              		.type	UART_configEzI2C, %object
 1000              		.size	UART_configEzI2C, 32
 1001              	UART_configEzI2C:
 1002 0000 01000000 		.word	1
 1003 0004 01000000 		.word	1
 1004 0008 00000000 		.word	0
 1005 000c 08000000 		.word	8
 1006 0010 09000000 		.word	9
 1007 0014 00000000 		.word	0
 1008 0018 00000000 		.word	0
 1009 001c 00       		.byte	0
 1010 001d 000000   		.space	3
 1011              		.text
 1012              	.Letext0:
 1013              		.file 2 "Generated_Source\\PSoC4/cytypes.h"
 1014              		.file 3 ".\\Generated_Source\\PSoC4\\UART_EZI2C.h"
 1015              		.file 4 ".\\Generated_Source\\PSoC4\\UART_PVT.h"
 1016              		.file 5 "Generated_Source\\PSoC4/CyLib.h"