ARM GAS  C:\Users\Helon\AppData\Local\Temp\ccpn4yMP.s 			page 1


   1              		.cpu cortex-m0
   2              		.fpu softvfp
   3              		.eabi_attribute 20, 1
   4              		.eabi_attribute 21, 1
   5              		.eabi_attribute 23, 3
   6              		.eabi_attribute 24, 1
   7              		.eabi_attribute 25, 1
   8              		.eabi_attribute 26, 1
   9              		.eabi_attribute 30, 1
  10              		.eabi_attribute 34, 0
  11              		.eabi_attribute 18, 4
  12              		.code	16
  13              		.file	"UART_I2C.c"
  14              		.text
  15              	.Ltext0:
  16              		.cfi_sections	.debug_frame
  17              		.section	.text.UART_I2CInit,"ax",%progbits
  18              		.align	2
  19              		.global	UART_I2CInit
  20              		.code	16
  21              		.thumb_func
  22              		.type	UART_I2CInit, %function
  23              	UART_I2CInit:
  24              	.LFB2:
  25              		.file 1 ".\\Generated_Source\\PSoC4\\UART_I2C.c"
   1:.\Generated_Source\PSoC4/UART_I2C.c **** /*******************************************************************************
   2:.\Generated_Source\PSoC4/UART_I2C.c **** * File Name: UART_I2C.c
   3:.\Generated_Source\PSoC4/UART_I2C.c **** * Version 3.0
   4:.\Generated_Source\PSoC4/UART_I2C.c **** *
   5:.\Generated_Source\PSoC4/UART_I2C.c **** * Description:
   6:.\Generated_Source\PSoC4/UART_I2C.c **** *  This file provides the source code to the API for the SCB Component in
   7:.\Generated_Source\PSoC4/UART_I2C.c **** *  I2C mode.
   8:.\Generated_Source\PSoC4/UART_I2C.c **** *
   9:.\Generated_Source\PSoC4/UART_I2C.c **** * Note:
  10:.\Generated_Source\PSoC4/UART_I2C.c **** *
  11:.\Generated_Source\PSoC4/UART_I2C.c **** *******************************************************************************
  12:.\Generated_Source\PSoC4/UART_I2C.c **** * Copyright 2013-2015, Cypress Semiconductor Corporation.  All rights reserved.
  13:.\Generated_Source\PSoC4/UART_I2C.c **** * You may use this file only in accordance with the license, terms, conditions,
  14:.\Generated_Source\PSoC4/UART_I2C.c **** * disclaimers, and limitations in the end user license agreement accompanying
  15:.\Generated_Source\PSoC4/UART_I2C.c **** * the software package with which this file was provided.
  16:.\Generated_Source\PSoC4/UART_I2C.c **** *******************************************************************************/
  17:.\Generated_Source\PSoC4/UART_I2C.c **** 
  18:.\Generated_Source\PSoC4/UART_I2C.c **** #include "UART_PVT.h"
  19:.\Generated_Source\PSoC4/UART_I2C.c **** #include "UART_I2C_PVT.h"
  20:.\Generated_Source\PSoC4/UART_I2C.c **** 
  21:.\Generated_Source\PSoC4/UART_I2C.c **** 
  22:.\Generated_Source\PSoC4/UART_I2C.c **** /***************************************
  23:.\Generated_Source\PSoC4/UART_I2C.c **** *      I2C Private Vars
  24:.\Generated_Source\PSoC4/UART_I2C.c **** ***************************************/
  25:.\Generated_Source\PSoC4/UART_I2C.c **** 
  26:.\Generated_Source\PSoC4/UART_I2C.c **** volatile uint8 UART_state;  /* Current state of I2C FSM */
  27:.\Generated_Source\PSoC4/UART_I2C.c **** 
  28:.\Generated_Source\PSoC4/UART_I2C.c **** #if(UART_SCB_MODE_UNCONFIG_CONST_CFG)
  29:.\Generated_Source\PSoC4/UART_I2C.c **** 
  30:.\Generated_Source\PSoC4/UART_I2C.c ****     /***************************************
  31:.\Generated_Source\PSoC4/UART_I2C.c ****     *  Configuration Structure Initialization
  32:.\Generated_Source\PSoC4/UART_I2C.c ****     ***************************************/
ARM GAS  C:\Users\Helon\AppData\Local\Temp\ccpn4yMP.s 			page 2


  33:.\Generated_Source\PSoC4/UART_I2C.c **** 
  34:.\Generated_Source\PSoC4/UART_I2C.c ****     /* Constant configuration of I2C */
  35:.\Generated_Source\PSoC4/UART_I2C.c ****     const UART_I2C_INIT_STRUCT UART_configI2C =
  36:.\Generated_Source\PSoC4/UART_I2C.c ****     {
  37:.\Generated_Source\PSoC4/UART_I2C.c ****         UART_I2C_MODE,
  38:.\Generated_Source\PSoC4/UART_I2C.c ****         UART_I2C_OVS_FACTOR_LOW,
  39:.\Generated_Source\PSoC4/UART_I2C.c ****         UART_I2C_OVS_FACTOR_HIGH,
  40:.\Generated_Source\PSoC4/UART_I2C.c ****         UART_I2C_MEDIAN_FILTER_ENABLE,
  41:.\Generated_Source\PSoC4/UART_I2C.c ****         UART_I2C_SLAVE_ADDRESS,
  42:.\Generated_Source\PSoC4/UART_I2C.c ****         UART_I2C_SLAVE_ADDRESS_MASK,
  43:.\Generated_Source\PSoC4/UART_I2C.c ****         UART_I2C_ACCEPT_ADDRESS,
  44:.\Generated_Source\PSoC4/UART_I2C.c ****         UART_I2C_WAKE_ENABLE,
  45:.\Generated_Source\PSoC4/UART_I2C.c ****         UART_I2C_BYTE_MODE_ENABLE,
  46:.\Generated_Source\PSoC4/UART_I2C.c ****         UART_I2C_DATA_RATE,
  47:.\Generated_Source\PSoC4/UART_I2C.c ****         UART_I2C_ACCEPT_GENERAL_CALL,
  48:.\Generated_Source\PSoC4/UART_I2C.c ****     };
  49:.\Generated_Source\PSoC4/UART_I2C.c **** 
  50:.\Generated_Source\PSoC4/UART_I2C.c ****     /*******************************************************************************
  51:.\Generated_Source\PSoC4/UART_I2C.c ****     * Function Name: UART_I2CInit
  52:.\Generated_Source\PSoC4/UART_I2C.c ****     ********************************************************************************
  53:.\Generated_Source\PSoC4/UART_I2C.c ****     *
  54:.\Generated_Source\PSoC4/UART_I2C.c ****     * Summary:
  55:.\Generated_Source\PSoC4/UART_I2C.c ****     *  Configures the SCB for I2C operation.
  56:.\Generated_Source\PSoC4/UART_I2C.c ****     *
  57:.\Generated_Source\PSoC4/UART_I2C.c ****     * Parameters:
  58:.\Generated_Source\PSoC4/UART_I2C.c ****     *  config:  Pointer to a structure that contains the following ordered list of
  59:.\Generated_Source\PSoC4/UART_I2C.c ****     *           fields. These fields match the selections available in the
  60:.\Generated_Source\PSoC4/UART_I2C.c ****     *           customizer.
  61:.\Generated_Source\PSoC4/UART_I2C.c ****     *
  62:.\Generated_Source\PSoC4/UART_I2C.c ****     * Return:
  63:.\Generated_Source\PSoC4/UART_I2C.c ****     *  None
  64:.\Generated_Source\PSoC4/UART_I2C.c ****     *
  65:.\Generated_Source\PSoC4/UART_I2C.c ****     *******************************************************************************/
  66:.\Generated_Source\PSoC4/UART_I2C.c ****     void UART_I2CInit(const UART_I2C_INIT_STRUCT *config)
  67:.\Generated_Source\PSoC4/UART_I2C.c ****     {
  26              		.loc 1 67 0
  27              		.cfi_startproc
  28              	.LVL0:
  29 0000 38B5     		push	{r3, r4, r5, lr}
  30              		.cfi_def_cfa_offset 16
  31              		.cfi_offset 3, -16
  32              		.cfi_offset 4, -12
  33              		.cfi_offset 5, -8
  34              		.cfi_offset 14, -4
  35 0002 041E     		sub	r4, r0, #0
  68:.\Generated_Source\PSoC4/UART_I2C.c ****         uint32 medianFilter;
  69:.\Generated_Source\PSoC4/UART_I2C.c ****         uint32 locEnableWake;
  70:.\Generated_Source\PSoC4/UART_I2C.c **** 
  71:.\Generated_Source\PSoC4/UART_I2C.c ****         if(NULL == config)
  36              		.loc 1 71 0
  37 0004 03D1     		bne	.L2
  72:.\Generated_Source\PSoC4/UART_I2C.c ****         {
  73:.\Generated_Source\PSoC4/UART_I2C.c ****             CYASSERT(0u != 0u); /* Halt execution due to bad function parameter */
  38              		.loc 1 73 0 discriminator 1
  39 0006 0020     		mov	r0, #0
  40              	.LVL1:
  41 0008 FFF7FEFF 		bl	CyHalt
ARM GAS  C:\Users\Helon\AppData\Local\Temp\ccpn4yMP.s 			page 3


  42              	.LVL2:
  43 000c C6E0     		b	.L1
  44              	.LVL3:
  45              	.L2:
  74:.\Generated_Source\PSoC4/UART_I2C.c ****         }
  75:.\Generated_Source\PSoC4/UART_I2C.c ****         else
  76:.\Generated_Source\PSoC4/UART_I2C.c ****         {
  77:.\Generated_Source\PSoC4/UART_I2C.c ****             /* Configure pins */
  78:.\Generated_Source\PSoC4/UART_I2C.c ****             UART_SetPins(UART_SCB_MODE_I2C, UART_DUMMY_PARAM,
  46              		.loc 1 78 0
  47 000e 0120     		mov	r0, #1
  48              	.LVL4:
  49 0010 0021     		mov	r1, #0
  50 0012 0022     		mov	r2, #0
  51 0014 FFF7FEFF 		bl	UART_SetPins
  52              	.LVL5:
  79:.\Generated_Source\PSoC4/UART_I2C.c ****                                      UART_DUMMY_PARAM);
  80:.\Generated_Source\PSoC4/UART_I2C.c **** 
  81:.\Generated_Source\PSoC4/UART_I2C.c ****             /* Store internal configuration */
  82:.\Generated_Source\PSoC4/UART_I2C.c ****             UART_scbMode       = (uint8) UART_SCB_MODE_I2C;
  53              		.loc 1 82 0
  54 0018 0123     		mov	r3, #1
  55 001a 614A     		ldr	r2, .L29
  56 001c 1370     		strb	r3, [r2]
  83:.\Generated_Source\PSoC4/UART_I2C.c ****             UART_scbEnableWake = (uint8) config->enableWake;
  57              		.loc 1 83 0
  58 001e 217F     		ldrb	r1, [r4, #28]
  59 0020 604A     		ldr	r2, .L29+4
  60 0022 1170     		strb	r1, [r2]
  84:.\Generated_Source\PSoC4/UART_I2C.c ****             UART_scbEnableIntr = (uint8) UART_SCB_IRQ_INTERNAL;
  61              		.loc 1 84 0
  62 0024 604A     		ldr	r2, .L29+8
  63 0026 1370     		strb	r3, [r2]
  85:.\Generated_Source\PSoC4/UART_I2C.c **** 
  86:.\Generated_Source\PSoC4/UART_I2C.c ****             UART_mode          = (uint8) config->mode;
  64              		.loc 1 86 0
  65 0028 2278     		ldrb	r2, [r4]
  66 002a 604B     		ldr	r3, .L29+12
  67 002c 1A70     		strb	r2, [r3]
  87:.\Generated_Source\PSoC4/UART_I2C.c ****             UART_acceptAddr    = (uint8) config->acceptAddr;
  68              		.loc 1 87 0
  69 002e 227E     		ldrb	r2, [r4, #24]
  70 0030 5F4B     		ldr	r3, .L29+16
  71 0032 1A70     		strb	r2, [r3]
  88:.\Generated_Source\PSoC4/UART_I2C.c **** 
  89:.\Generated_Source\PSoC4/UART_I2C.c ****         #if (UART_CY_SCBIP_V0)
  90:.\Generated_Source\PSoC4/UART_I2C.c ****             /* Adjust SDA filter settings. Ticket ID#150521 */
  91:.\Generated_Source\PSoC4/UART_I2C.c ****             UART_SET_I2C_CFG_SDA_FILT_TRIM(UART_EC_AM_I2C_CFG_SDA_FILT_TRIM);
  92:.\Generated_Source\PSoC4/UART_I2C.c ****         #endif /* (UART_CY_SCBIP_V0) */
  93:.\Generated_Source\PSoC4/UART_I2C.c **** 
  94:.\Generated_Source\PSoC4/UART_I2C.c ****             /* Adjust AF and DF filter settings. Ticket ID#176179 */
  95:.\Generated_Source\PSoC4/UART_I2C.c ****             if (((UART_I2C_MODE_SLAVE != config->mode) &&
  72              		.loc 1 95 0
  73 0034 2368     		ldr	r3, [r4]
  74 0036 012B     		cmp	r3, #1
  75 0038 04D0     		beq	.L4
  96:.\Generated_Source\PSoC4/UART_I2C.c ****                  (config->dataRate <= UART_I2C_DATA_RATE_FS_MODE_MAX)) ||
ARM GAS  C:\Users\Helon\AppData\Local\Temp\ccpn4yMP.s 			page 4


  76              		.loc 1 96 0 discriminator 1
  77 003a 618C     		ldrh	r1, [r4, #34]
  95:.\Generated_Source\PSoC4/UART_I2C.c ****                  (config->dataRate <= UART_I2C_DATA_RATE_FS_MODE_MAX)) ||
  78              		.loc 1 95 0 discriminator 1
  79 003c C822     		mov	r2, #200
  80 003e 5200     		lsl	r2, r2, #1
  81 0040 9142     		cmp	r1, r2
  82 0042 01D9     		bls	.L5
  83              	.L4:
  84              		.loc 1 96 0
  85 0044 012B     		cmp	r3, #1
  86 0046 06D1     		bne	.L6
  87              	.L5:
  97:.\Generated_Source\PSoC4/UART_I2C.c ****                  (UART_I2C_MODE_SLAVE == config->mode))
  98:.\Generated_Source\PSoC4/UART_I2C.c ****             {
  99:.\Generated_Source\PSoC4/UART_I2C.c ****                 /* AF = 1, DF = 0 */
 100:.\Generated_Source\PSoC4/UART_I2C.c ****                 UART_I2C_CFG_ANALOG_FITER_ENABLE;
  88              		.loc 1 100 0
  89 0048 5A4A     		ldr	r2, .L29+20
  90 004a 1368     		ldr	r3, [r2]
  91 004c 5A49     		ldr	r1, .L29+24
  92 004e 0B43     		orr	r3, r1
  93 0050 1360     		str	r3, [r2]
  94              	.LVL6:
 101:.\Generated_Source\PSoC4/UART_I2C.c ****                 medianFilter = UART_DIGITAL_FILTER_DISABLE;
  95              		.loc 1 101 0
  96 0052 0020     		mov	r0, #0
  97 0054 05E0     		b	.L7
  98              	.LVL7:
  99              	.L6:
 102:.\Generated_Source\PSoC4/UART_I2C.c ****             }
 103:.\Generated_Source\PSoC4/UART_I2C.c ****             else
 104:.\Generated_Source\PSoC4/UART_I2C.c ****             {
 105:.\Generated_Source\PSoC4/UART_I2C.c ****                 /* AF = 0, DF = 1 */
 106:.\Generated_Source\PSoC4/UART_I2C.c ****                 UART_I2C_CFG_ANALOG_FITER_DISABLE;
 100              		.loc 1 106 0
 101 0056 574A     		ldr	r2, .L29+20
 102 0058 1168     		ldr	r1, [r2]
 103 005a 584B     		ldr	r3, .L29+28
 104 005c 0B40     		and	r3, r1
 105 005e 1360     		str	r3, [r2]
 106              	.LVL8:
 107:.\Generated_Source\PSoC4/UART_I2C.c ****                 medianFilter = UART_DIGITAL_FILTER_ENABLE;
 107              		.loc 1 107 0
 108 0060 0120     		mov	r0, #1
 109              	.LVL9:
 110              	.L7:
 108:.\Generated_Source\PSoC4/UART_I2C.c ****             }
 109:.\Generated_Source\PSoC4/UART_I2C.c **** 
 110:.\Generated_Source\PSoC4/UART_I2C.c ****         #if (!UART_CY_SCBIP_V0)
 111:.\Generated_Source\PSoC4/UART_I2C.c ****             locEnableWake = (UART_I2C_MULTI_MASTER_SLAVE) ? (0u) : (config->enableWake);
 111              		.loc 1 111 0
 112 0062 524B     		ldr	r3, .L29+12
 113 0064 1B78     		ldrb	r3, [r3]
 114 0066 072B     		cmp	r3, #7
 115 0068 01D0     		beq	.L19
 116              		.loc 1 111 0 is_stmt 0 discriminator 1
ARM GAS  C:\Users\Helon\AppData\Local\Temp\ccpn4yMP.s 			page 5


 117 006a E269     		ldr	r2, [r4, #28]
 118 006c 00E0     		b	.L8
 119              	.L19:
 120              		.loc 1 111 0
 121 006e 0022     		mov	r2, #0
 122              	.L8:
 123              	.LVL10:
 112:.\Generated_Source\PSoC4/UART_I2C.c ****         #else
 113:.\Generated_Source\PSoC4/UART_I2C.c ****             locEnableWake = config->enableWake;
 114:.\Generated_Source\PSoC4/UART_I2C.c ****         #endif /* (!UART_CY_SCBIP_V0) */
 115:.\Generated_Source\PSoC4/UART_I2C.c **** 
 116:.\Generated_Source\PSoC4/UART_I2C.c ****             /* Configure I2C interface */
 117:.\Generated_Source\PSoC4/UART_I2C.c ****             UART_CTRL_REG     = UART_GET_CTRL_BYTE_MODE  (config->enableByteMode) |
 124              		.loc 1 117 0 is_stmt 1 discriminator 4
 125 0070 2023     		mov	r3, #32
 126 0072 E35C     		ldrb	r3, [r4, r3]
 127 0074 002B     		cmp	r3, #0
 128 0076 02D0     		beq	.L20
 129              		.loc 1 117 0 is_stmt 0
 130 0078 8021     		mov	r1, #128
 131 007a 0901     		lsl	r1, r1, #4
 132 007c 00E0     		b	.L9
 133              	.L20:
 134 007e 0021     		mov	r1, #0
 135              	.L9:
 118:.\Generated_Source\PSoC4/UART_I2C.c ****                                             UART_GET_CTRL_ADDR_ACCEPT(config->acceptAddr)     |
 136              		.loc 1 118 0 is_stmt 1
 137 0080 A369     		ldr	r3, [r4, #24]
 138 0082 002B     		cmp	r3, #0
 139 0084 01D0     		beq	.L10
 140 0086 8023     		mov	r3, #128
 141 0088 5B02     		lsl	r3, r3, #9
 142              	.L10:
 117:.\Generated_Source\PSoC4/UART_I2C.c ****                                             UART_GET_CTRL_ADDR_ACCEPT(config->acceptAddr)     |
 143              		.loc 1 117 0
 144 008a 0B43     		orr	r3, r1
 119:.\Generated_Source\PSoC4/UART_I2C.c ****                                             UART_GET_CTRL_EC_AM_MODE (locEnableWake);
 145              		.loc 1 119 0
 146 008c 002A     		cmp	r2, #0
 147 008e 02D0     		beq	.L21
 148 0090 8022     		mov	r2, #128
 149              	.LVL11:
 150 0092 5200     		lsl	r2, r2, #1
 151 0094 00E0     		b	.L11
 152              	.LVL12:
 153              	.L21:
 154 0096 0022     		mov	r2, #0
 155              	.LVL13:
 156              	.L11:
 118:.\Generated_Source\PSoC4/UART_I2C.c ****                                             UART_GET_CTRL_ADDR_ACCEPT(config->acceptAddr)     |
 157              		.loc 1 118 0
 158 0098 1343     		orr	r3, r2
 117:.\Generated_Source\PSoC4/UART_I2C.c ****                                             UART_GET_CTRL_ADDR_ACCEPT(config->acceptAddr)     |
 159              		.loc 1 117 0
 160 009a 494A     		ldr	r2, .L29+32
 161 009c 1360     		str	r3, [r2]
 120:.\Generated_Source\PSoC4/UART_I2C.c **** 
ARM GAS  C:\Users\Helon\AppData\Local\Temp\ccpn4yMP.s 			page 6


 121:.\Generated_Source\PSoC4/UART_I2C.c ****             UART_I2C_CTRL_REG = UART_GET_I2C_CTRL_HIGH_PHASE_OVS(config->oversampleHigh) |
 162              		.loc 1 121 0
 163 009e A368     		ldr	r3, [r4, #8]
 164 00a0 013B     		sub	r3, r3, #1
 165 00a2 0F21     		mov	r1, #15
 166 00a4 1940     		and	r1, r3
 122:.\Generated_Source\PSoC4/UART_I2C.c ****                     UART_GET_I2C_CTRL_LOW_PHASE_OVS (config->oversampleLow)                        
 167              		.loc 1 122 0
 168 00a6 6368     		ldr	r3, [r4, #4]
 169 00a8 5A1E     		sub	r2, r3, #1
 170 00aa 1201     		lsl	r2, r2, #4
 171 00ac FF23     		mov	r3, #255
 172 00ae 1340     		and	r3, r2
 121:.\Generated_Source\PSoC4/UART_I2C.c ****                     UART_GET_I2C_CTRL_LOW_PHASE_OVS (config->oversampleLow)                        
 173              		.loc 1 121 0
 174 00b0 0B43     		orr	r3, r1
 123:.\Generated_Source\PSoC4/UART_I2C.c ****                     UART_GET_I2C_CTRL_S_GENERAL_IGNORE((uint32)(0u == config->acceptGeneralAddr))  
 175              		.loc 1 123 0
 176 00b2 2422     		mov	r2, #36
 177 00b4 A25C     		ldrb	r2, [r4, r2]
 178 00b6 002A     		cmp	r2, #0
 179 00b8 01D1     		bne	.L22
 180 00ba 0132     		add	r2, r2, #1
 181 00bc 00E0     		b	.L12
 182              	.L22:
 183 00be 0022     		mov	r2, #0
 184              	.L12:
 185              		.loc 1 123 0 is_stmt 0 discriminator 4
 186 00c0 002A     		cmp	r2, #0
 187 00c2 02D0     		beq	.L23
 188              		.loc 1 123 0
 189 00c4 8022     		mov	r2, #128
 190 00c6 1201     		lsl	r2, r2, #4
 191 00c8 00E0     		b	.L13
 192              	.L23:
 193 00ca 0022     		mov	r2, #0
 194              	.L13:
 122:.\Generated_Source\PSoC4/UART_I2C.c ****                     UART_GET_I2C_CTRL_LOW_PHASE_OVS (config->oversampleLow)                        
 195              		.loc 1 122 0 is_stmt 1
 196 00cc 1343     		orr	r3, r2
 124:.\Generated_Source\PSoC4/UART_I2C.c ****                     UART_GET_I2C_CTRL_SL_MSTR_MODE  (config->mode);
 197              		.loc 1 124 0
 198 00ce 2268     		ldr	r2, [r4]
 199 00d0 9207     		lsl	r2, r2, #30
 123:.\Generated_Source\PSoC4/UART_I2C.c ****                     UART_GET_I2C_CTRL_S_GENERAL_IGNORE((uint32)(0u == config->acceptGeneralAddr))  
 200              		.loc 1 123 0
 201 00d2 1343     		orr	r3, r2
 121:.\Generated_Source\PSoC4/UART_I2C.c ****                     UART_GET_I2C_CTRL_LOW_PHASE_OVS (config->oversampleLow)                        
 202              		.loc 1 121 0
 203 00d4 3B4A     		ldr	r2, .L29+36
 204 00d6 1360     		str	r3, [r2]
 125:.\Generated_Source\PSoC4/UART_I2C.c **** 
 126:.\Generated_Source\PSoC4/UART_I2C.c ****             /* Configure RX direction */
 127:.\Generated_Source\PSoC4/UART_I2C.c ****             UART_RX_CTRL_REG      = UART_GET_RX_CTRL_MEDIAN(medianFilter) |
 205              		.loc 1 127 0
 206 00d8 0028     		cmp	r0, #0
 207 00da 01D0     		beq	.L24
ARM GAS  C:\Users\Helon\AppData\Local\Temp\ccpn4yMP.s 			page 7


 208 00dc 3A4A     		ldr	r2, .L29+40
 209 00de 00E0     		b	.L14
 210              	.L24:
 211 00e0 3A4A     		ldr	r2, .L29+44
 212              	.L14:
 213              		.loc 1 127 0 is_stmt 0 discriminator 4
 214 00e2 3B4B     		ldr	r3, .L29+48
 215 00e4 1A60     		str	r2, [r3]
 128:.\Generated_Source\PSoC4/UART_I2C.c ****                                                 UART_I2C_RX_CTRL;
 129:.\Generated_Source\PSoC4/UART_I2C.c ****             UART_RX_FIFO_CTRL_REG = UART_CLEAR_REG;
 216              		.loc 1 129 0 is_stmt 1 discriminator 4
 217 00e6 0022     		mov	r2, #0
 218 00e8 3A4B     		ldr	r3, .L29+52
 219 00ea 1A60     		str	r2, [r3]
 130:.\Generated_Source\PSoC4/UART_I2C.c **** 
 131:.\Generated_Source\PSoC4/UART_I2C.c ****             /* Set default address and mask */
 132:.\Generated_Source\PSoC4/UART_I2C.c ****             UART_RX_MATCH_REG    = ((UART_I2C_SLAVE) ?
 220              		.loc 1 132 0 discriminator 4
 221 00ec 2F4B     		ldr	r3, .L29+12
 222 00ee 1B78     		ldrb	r3, [r3]
 133:.\Generated_Source\PSoC4/UART_I2C.c ****                                                 (UART_GET_I2C_8BIT_ADDRESS(config->slaveAddr) |
 134:.\Generated_Source\PSoC4/UART_I2C.c ****                                                  UART_GET_RX_MATCH_MASK(config->slaveAddrMask)) :
 223              		.loc 1 134 0 discriminator 4
 224 00f0 DB07     		lsl	r3, r3, #31
 225 00f2 0AD5     		bpl	.L25
 133:.\Generated_Source\PSoC4/UART_I2C.c ****                                                 (UART_GET_I2C_8BIT_ADDRESS(config->slaveAddr) |
 226              		.loc 1 133 0 discriminator 1
 227 00f4 2369     		ldr	r3, [r4, #16]
 228 00f6 5B00     		lsl	r3, r3, #1
 229 00f8 FF21     		mov	r1, #255
 230 00fa 1940     		and	r1, r3
 231              		.loc 1 134 0 discriminator 1
 232 00fc 6369     		ldr	r3, [r4, #20]
 233 00fe 1B04     		lsl	r3, r3, #16
 234 0100 FF22     		mov	r2, #255
 235 0102 1204     		lsl	r2, r2, #16
 236 0104 1340     		and	r3, r2
 237 0106 0B43     		orr	r3, r1
 238 0108 00E0     		b	.L15
 239              	.L25:
 240              		.loc 1 134 0 is_stmt 0
 241 010a 0023     		mov	r3, #0
 242              	.L15:
 132:.\Generated_Source\PSoC4/UART_I2C.c ****                                                 (UART_GET_I2C_8BIT_ADDRESS(config->slaveAddr) |
 243              		.loc 1 132 0 is_stmt 1
 244 010c 324A     		ldr	r2, .L29+56
 245 010e 1360     		str	r3, [r2]
 135:.\Generated_Source\PSoC4/UART_I2C.c ****                                                 (UART_CLEAR_REG));
 136:.\Generated_Source\PSoC4/UART_I2C.c **** 
 137:.\Generated_Source\PSoC4/UART_I2C.c **** 
 138:.\Generated_Source\PSoC4/UART_I2C.c ****             /* Configure TX direction */
 139:.\Generated_Source\PSoC4/UART_I2C.c ****             UART_TX_CTRL_REG      = UART_I2C_TX_CTRL;
 246              		.loc 1 139 0
 247 0110 2E4A     		ldr	r2, .L29+44
 248 0112 324B     		ldr	r3, .L29+60
 249 0114 1A60     		str	r2, [r3]
 140:.\Generated_Source\PSoC4/UART_I2C.c ****             UART_TX_FIFO_CTRL_REG = UART_CLEAR_REG;
ARM GAS  C:\Users\Helon\AppData\Local\Temp\ccpn4yMP.s 			page 8


 250              		.loc 1 140 0
 251 0116 0025     		mov	r5, #0
 252 0118 314B     		ldr	r3, .L29+64
 253 011a 1D60     		str	r5, [r3]
 141:.\Generated_Source\PSoC4/UART_I2C.c **** 
 142:.\Generated_Source\PSoC4/UART_I2C.c ****             /* Configure interrupt with I2C handler but do not enable it */
 143:.\Generated_Source\PSoC4/UART_I2C.c ****             CyIntDisable    (UART_ISR_NUMBER);
 254              		.loc 1 143 0
 255 011c 0920     		mov	r0, #9
 256              	.LVL14:
 257 011e FFF7FEFF 		bl	CyIntDisable
 258              	.LVL15:
 144:.\Generated_Source\PSoC4/UART_I2C.c ****             CyIntSetPriority(UART_ISR_NUMBER, UART_ISR_PRIORITY);
 259              		.loc 1 144 0
 260 0122 0920     		mov	r0, #9
 261 0124 0321     		mov	r1, #3
 262 0126 FFF7FEFF 		bl	CyIntSetPriority
 263              	.LVL16:
 145:.\Generated_Source\PSoC4/UART_I2C.c ****             (void) CyIntSetVector(UART_ISR_NUMBER, &UART_I2C_ISR);
 264              		.loc 1 145 0
 265 012a 0920     		mov	r0, #9
 266 012c 2D49     		ldr	r1, .L29+68
 267 012e FFF7FEFF 		bl	CyIntSetVector
 268              	.LVL17:
 146:.\Generated_Source\PSoC4/UART_I2C.c **** 
 147:.\Generated_Source\PSoC4/UART_I2C.c ****             /* Configure interrupt sources */
 148:.\Generated_Source\PSoC4/UART_I2C.c ****         #if(!UART_CY_SCBIP_V1)
 149:.\Generated_Source\PSoC4/UART_I2C.c ****             UART_INTR_SPI_EC_MASK_REG = UART_NO_INTR_SOURCES;
 269              		.loc 1 149 0
 270 0132 2D4B     		ldr	r3, .L29+72
 271 0134 1D60     		str	r5, [r3]
 150:.\Generated_Source\PSoC4/UART_I2C.c ****         #endif /* (!UART_CY_SCBIP_V1) */
 151:.\Generated_Source\PSoC4/UART_I2C.c **** 
 152:.\Generated_Source\PSoC4/UART_I2C.c ****             UART_INTR_I2C_EC_MASK_REG = UART_NO_INTR_SOURCES;
 272              		.loc 1 152 0
 273 0136 2D4B     		ldr	r3, .L29+76
 274 0138 1D60     		str	r5, [r3]
 153:.\Generated_Source\PSoC4/UART_I2C.c ****             UART_INTR_RX_MASK_REG     = UART_NO_INTR_SOURCES;
 275              		.loc 1 153 0
 276 013a 2D4B     		ldr	r3, .L29+80
 277 013c 1D60     		str	r5, [r3]
 154:.\Generated_Source\PSoC4/UART_I2C.c ****             UART_INTR_TX_MASK_REG     = UART_NO_INTR_SOURCES;
 278              		.loc 1 154 0
 279 013e 2D4B     		ldr	r3, .L29+84
 280 0140 1D60     		str	r5, [r3]
 155:.\Generated_Source\PSoC4/UART_I2C.c **** 
 156:.\Generated_Source\PSoC4/UART_I2C.c ****             UART_INTR_SLAVE_MASK_REG  = ((UART_I2C_SLAVE) ?
 281              		.loc 1 156 0
 282 0142 1A4B     		ldr	r3, .L29+12
 283 0144 1B78     		ldrb	r3, [r3]
 157:.\Generated_Source\PSoC4/UART_I2C.c ****                             (UART_GET_INTR_SLAVE_I2C_GENERAL(config->acceptGeneralAddr) |
 158:.\Generated_Source\PSoC4/UART_I2C.c ****                              UART_I2C_INTR_SLAVE_MASK) : (UART_CLEAR_REG));
 284              		.loc 1 158 0
 285 0146 DB07     		lsl	r3, r3, #31
 286 0148 09D5     		bpl	.L26
 157:.\Generated_Source\PSoC4/UART_I2C.c ****                             (UART_GET_INTR_SLAVE_I2C_GENERAL(config->acceptGeneralAddr) |
 287              		.loc 1 157 0
ARM GAS  C:\Users\Helon\AppData\Local\Temp\ccpn4yMP.s 			page 9


 288 014a 2423     		mov	r3, #36
 289 014c E35C     		ldrb	r3, [r4, r3]
 290 014e 002B     		cmp	r3, #0
 291 0150 02D0     		beq	.L27
 292 0152 CC22     		mov	r2, #204
 293 0154 FF32     		add	r2, r2, #255
 294 0156 03E0     		b	.L16
 295              	.L27:
 296 0158 4C22     		mov	r2, #76
 297 015a FF32     		add	r2, r2, #255
 298 015c 00E0     		b	.L16
 299              	.L26:
 300              		.loc 1 158 0
 301 015e 0022     		mov	r2, #0
 302              	.L16:
 156:.\Generated_Source\PSoC4/UART_I2C.c ****                             (UART_GET_INTR_SLAVE_I2C_GENERAL(config->acceptGeneralAddr) |
 303              		.loc 1 156 0
 304 0160 254B     		ldr	r3, .L29+88
 305 0162 1A60     		str	r2, [r3]
 159:.\Generated_Source\PSoC4/UART_I2C.c **** 
 160:.\Generated_Source\PSoC4/UART_I2C.c ****             UART_INTR_MASTER_MASK_REG = ((UART_I2C_MASTER) ?
 306              		.loc 1 160 0
 307 0164 114B     		ldr	r3, .L29+12
 308 0166 1B78     		ldrb	r3, [r3]
 161:.\Generated_Source\PSoC4/UART_I2C.c ****                                                      (UART_I2C_INTR_MASTER_MASK) :
 309              		.loc 1 161 0
 310 0168 9B07     		lsl	r3, r3, #30
 311 016a 02D5     		bpl	.L28
 312 016c 1422     		mov	r2, #20
 313 016e FF32     		add	r2, r2, #255
 314 0170 00E0     		b	.L18
 315              	.L28:
 316 0172 0022     		mov	r2, #0
 317              	.L18:
 160:.\Generated_Source\PSoC4/UART_I2C.c ****                                                      (UART_I2C_INTR_MASTER_MASK) :
 318              		.loc 1 160 0
 319 0174 214B     		ldr	r3, .L29+92
 320 0176 1A60     		str	r2, [r3]
 162:.\Generated_Source\PSoC4/UART_I2C.c ****                                                      (UART_CLEAR_REG));
 163:.\Generated_Source\PSoC4/UART_I2C.c **** 
 164:.\Generated_Source\PSoC4/UART_I2C.c ****             /* Configure global variables */
 165:.\Generated_Source\PSoC4/UART_I2C.c ****             UART_state = UART_I2C_FSM_IDLE;
 321              		.loc 1 165 0
 322 0178 1022     		mov	r2, #16
 323 017a 214B     		ldr	r3, .L29+96
 324 017c 1A70     		strb	r2, [r3]
 166:.\Generated_Source\PSoC4/UART_I2C.c **** 
 167:.\Generated_Source\PSoC4/UART_I2C.c ****             /* Internal slave variables */
 168:.\Generated_Source\PSoC4/UART_I2C.c ****             UART_slStatus        = 0u;
 325              		.loc 1 168 0
 326 017e 0023     		mov	r3, #0
 327 0180 204A     		ldr	r2, .L29+100
 328 0182 1370     		strb	r3, [r2]
 169:.\Generated_Source\PSoC4/UART_I2C.c ****             UART_slRdBufIndex    = 0u;
 329              		.loc 1 169 0
 330 0184 204A     		ldr	r2, .L29+104
 331 0186 1360     		str	r3, [r2]
ARM GAS  C:\Users\Helon\AppData\Local\Temp\ccpn4yMP.s 			page 10


 170:.\Generated_Source\PSoC4/UART_I2C.c ****             UART_slWrBufIndex    = 0u;
 332              		.loc 1 170 0
 333 0188 204A     		ldr	r2, .L29+108
 334 018a 1360     		str	r3, [r2]
 171:.\Generated_Source\PSoC4/UART_I2C.c ****             UART_slOverFlowCount = 0u;
 335              		.loc 1 171 0
 336 018c 204A     		ldr	r2, .L29+112
 337 018e 1370     		strb	r3, [r2]
 172:.\Generated_Source\PSoC4/UART_I2C.c **** 
 173:.\Generated_Source\PSoC4/UART_I2C.c ****             /* Internal master variables */
 174:.\Generated_Source\PSoC4/UART_I2C.c ****             UART_mstrStatus     = 0u;
 338              		.loc 1 174 0
 339 0190 204A     		ldr	r2, .L29+116
 340 0192 1380     		strh	r3, [r2]
 175:.\Generated_Source\PSoC4/UART_I2C.c ****             UART_mstrRdBufIndex = 0u;
 341              		.loc 1 175 0
 342 0194 204A     		ldr	r2, .L29+120
 343 0196 1360     		str	r3, [r2]
 176:.\Generated_Source\PSoC4/UART_I2C.c ****             UART_mstrWrBufIndex = 0u;
 344              		.loc 1 176 0
 345 0198 204A     		ldr	r2, .L29+124
 346 019a 1360     		str	r3, [r2]
 347              	.L1:
 177:.\Generated_Source\PSoC4/UART_I2C.c ****         }
 178:.\Generated_Source\PSoC4/UART_I2C.c ****     }
 348              		.loc 1 178 0
 349              		@ sp needed
 350              	.LVL18:
 351 019c 38BD     		pop	{r3, r4, r5, pc}
 352              	.L30:
 353 019e C046     		.align	2
 354              	.L29:
 355 01a0 00000000 		.word	UART_scbMode
 356 01a4 00000000 		.word	UART_scbEnableWake
 357 01a8 00000000 		.word	UART_scbEnableIntr
 358 01ac 00000000 		.word	UART_mode
 359 01b0 00000000 		.word	UART_acceptAddr
 360 01b4 70002440 		.word	1076101232
 361 01b8 10100000 		.word	4112
 362 01bc EFEFFFFF 		.word	-4113
 363 01c0 00002440 		.word	1076101120
 364 01c4 60002440 		.word	1076101216
 365 01c8 07030080 		.word	-2147482873
 366 01cc 07010080 		.word	-2147483385
 367 01d0 00032440 		.word	1076101888
 368 01d4 04032440 		.word	1076101892
 369 01d8 10032440 		.word	1076101904
 370 01dc 00022440 		.word	1076101632
 371 01e0 04022440 		.word	1076101636
 372 01e4 00000000 		.word	UART_I2C_ISR
 373 01e8 C80E2440 		.word	1076104904
 374 01ec 880E2440 		.word	1076104840
 375 01f0 C80F2440 		.word	1076105160
 376 01f4 880F2440 		.word	1076105096
 377 01f8 480F2440 		.word	1076105032
 378 01fc 080F2440 		.word	1076104968
 379 0200 00000000 		.word	UART_state
ARM GAS  C:\Users\Helon\AppData\Local\Temp\ccpn4yMP.s 			page 11


 380 0204 00000000 		.word	UART_slStatus
 381 0208 00000000 		.word	UART_slRdBufIndex
 382 020c 00000000 		.word	UART_slWrBufIndex
 383 0210 00000000 		.word	UART_slOverFlowCount
 384 0214 00000000 		.word	UART_mstrStatus
 385 0218 00000000 		.word	UART_mstrRdBufIndex
 386 021c 00000000 		.word	UART_mstrWrBufIndex
 387              		.cfi_endproc
 388              	.LFE2:
 389              		.size	UART_I2CInit, .-UART_I2CInit
 390              		.section	.text.UART_I2CStop,"ax",%progbits
 391              		.align	2
 392              		.global	UART_I2CStop
 393              		.code	16
 394              		.thumb_func
 395              		.type	UART_I2CStop, %function
 396              	UART_I2CStop:
 397              	.LFB3:
 179:.\Generated_Source\PSoC4/UART_I2C.c **** 
 180:.\Generated_Source\PSoC4/UART_I2C.c **** #else
 181:.\Generated_Source\PSoC4/UART_I2C.c **** 
 182:.\Generated_Source\PSoC4/UART_I2C.c ****     /*******************************************************************************
 183:.\Generated_Source\PSoC4/UART_I2C.c ****     * Function Name: UART_I2CInit
 184:.\Generated_Source\PSoC4/UART_I2C.c ****     ********************************************************************************
 185:.\Generated_Source\PSoC4/UART_I2C.c ****     *
 186:.\Generated_Source\PSoC4/UART_I2C.c ****     * Summary:
 187:.\Generated_Source\PSoC4/UART_I2C.c ****     *  Configures the SCB for the I2C operation.
 188:.\Generated_Source\PSoC4/UART_I2C.c ****     *
 189:.\Generated_Source\PSoC4/UART_I2C.c ****     * Parameters:
 190:.\Generated_Source\PSoC4/UART_I2C.c ****     *  None
 191:.\Generated_Source\PSoC4/UART_I2C.c ****     *
 192:.\Generated_Source\PSoC4/UART_I2C.c ****     * Return:
 193:.\Generated_Source\PSoC4/UART_I2C.c ****     *  None
 194:.\Generated_Source\PSoC4/UART_I2C.c ****     *
 195:.\Generated_Source\PSoC4/UART_I2C.c ****     *******************************************************************************/
 196:.\Generated_Source\PSoC4/UART_I2C.c ****     void UART_I2CInit(void)
 197:.\Generated_Source\PSoC4/UART_I2C.c ****     {
 198:.\Generated_Source\PSoC4/UART_I2C.c ****     #if(UART_CY_SCBIP_V0)
 199:.\Generated_Source\PSoC4/UART_I2C.c ****         /* Adjust SDA filter settings. Ticket ID#150521 */
 200:.\Generated_Source\PSoC4/UART_I2C.c ****         UART_SET_I2C_CFG_SDA_FILT_TRIM(UART_EC_AM_I2C_CFG_SDA_FILT_TRIM);
 201:.\Generated_Source\PSoC4/UART_I2C.c ****     #endif /* (UART_CY_SCBIP_V0) */
 202:.\Generated_Source\PSoC4/UART_I2C.c **** 
 203:.\Generated_Source\PSoC4/UART_I2C.c ****         /* Adjust AF and DF filter settings. Ticket ID#176179 */
 204:.\Generated_Source\PSoC4/UART_I2C.c ****         UART_I2C_CFG_ANALOG_FITER_ENABLE_ADJ;
 205:.\Generated_Source\PSoC4/UART_I2C.c **** 
 206:.\Generated_Source\PSoC4/UART_I2C.c ****         /* Configure I2C interface */
 207:.\Generated_Source\PSoC4/UART_I2C.c ****         UART_CTRL_REG     = UART_I2C_DEFAULT_CTRL;
 208:.\Generated_Source\PSoC4/UART_I2C.c ****         UART_I2C_CTRL_REG = UART_I2C_DEFAULT_I2C_CTRL;
 209:.\Generated_Source\PSoC4/UART_I2C.c **** 
 210:.\Generated_Source\PSoC4/UART_I2C.c ****         /* Configure RX direction */
 211:.\Generated_Source\PSoC4/UART_I2C.c ****         UART_RX_CTRL_REG      = UART_I2C_DEFAULT_RX_CTRL;
 212:.\Generated_Source\PSoC4/UART_I2C.c ****         UART_RX_FIFO_CTRL_REG = UART_I2C_DEFAULT_RX_FIFO_CTRL;
 213:.\Generated_Source\PSoC4/UART_I2C.c **** 
 214:.\Generated_Source\PSoC4/UART_I2C.c ****         /* Set default address and mask */
 215:.\Generated_Source\PSoC4/UART_I2C.c ****         UART_RX_MATCH_REG     = UART_I2C_DEFAULT_RX_MATCH;
 216:.\Generated_Source\PSoC4/UART_I2C.c **** 
 217:.\Generated_Source\PSoC4/UART_I2C.c ****         /* Configure TX direction */
ARM GAS  C:\Users\Helon\AppData\Local\Temp\ccpn4yMP.s 			page 12


 218:.\Generated_Source\PSoC4/UART_I2C.c ****         UART_TX_CTRL_REG      = UART_I2C_DEFAULT_TX_CTRL;
 219:.\Generated_Source\PSoC4/UART_I2C.c ****         UART_TX_FIFO_CTRL_REG = UART_I2C_DEFAULT_TX_FIFO_CTRL;
 220:.\Generated_Source\PSoC4/UART_I2C.c **** 
 221:.\Generated_Source\PSoC4/UART_I2C.c ****         /* Configure interrupt with I2C handler but do not enable it */
 222:.\Generated_Source\PSoC4/UART_I2C.c ****         CyIntDisable    (UART_ISR_NUMBER);
 223:.\Generated_Source\PSoC4/UART_I2C.c ****         CyIntSetPriority(UART_ISR_NUMBER, UART_ISR_PRIORITY);
 224:.\Generated_Source\PSoC4/UART_I2C.c ****     #if(!UART_I2C_EXTERN_INTR_HANDLER)
 225:.\Generated_Source\PSoC4/UART_I2C.c ****         (void) CyIntSetVector(UART_ISR_NUMBER, &UART_I2C_ISR);
 226:.\Generated_Source\PSoC4/UART_I2C.c ****     #endif /* (UART_I2C_EXTERN_INTR_HANDLER) */
 227:.\Generated_Source\PSoC4/UART_I2C.c **** 
 228:.\Generated_Source\PSoC4/UART_I2C.c ****         /* Configure interrupt sources */
 229:.\Generated_Source\PSoC4/UART_I2C.c ****     #if(!UART_CY_SCBIP_V1)
 230:.\Generated_Source\PSoC4/UART_I2C.c ****         UART_INTR_SPI_EC_MASK_REG = UART_I2C_DEFAULT_INTR_SPI_EC_MASK;
 231:.\Generated_Source\PSoC4/UART_I2C.c ****     #endif /* (!UART_CY_SCBIP_V1) */
 232:.\Generated_Source\PSoC4/UART_I2C.c **** 
 233:.\Generated_Source\PSoC4/UART_I2C.c ****         UART_INTR_I2C_EC_MASK_REG = UART_I2C_DEFAULT_INTR_I2C_EC_MASK;
 234:.\Generated_Source\PSoC4/UART_I2C.c ****         UART_INTR_SLAVE_MASK_REG  = UART_I2C_DEFAULT_INTR_SLAVE_MASK;
 235:.\Generated_Source\PSoC4/UART_I2C.c ****         UART_INTR_MASTER_MASK_REG = UART_I2C_DEFAULT_INTR_MASTER_MASK;
 236:.\Generated_Source\PSoC4/UART_I2C.c ****         UART_INTR_RX_MASK_REG     = UART_I2C_DEFAULT_INTR_RX_MASK;
 237:.\Generated_Source\PSoC4/UART_I2C.c ****         UART_INTR_TX_MASK_REG     = UART_I2C_DEFAULT_INTR_TX_MASK;
 238:.\Generated_Source\PSoC4/UART_I2C.c **** 
 239:.\Generated_Source\PSoC4/UART_I2C.c ****         /* Configure global variables */
 240:.\Generated_Source\PSoC4/UART_I2C.c ****         UART_state = UART_I2C_FSM_IDLE;
 241:.\Generated_Source\PSoC4/UART_I2C.c **** 
 242:.\Generated_Source\PSoC4/UART_I2C.c ****     #if(UART_I2C_SLAVE)
 243:.\Generated_Source\PSoC4/UART_I2C.c ****         /* Internal slave variable */
 244:.\Generated_Source\PSoC4/UART_I2C.c ****         UART_slStatus        = 0u;
 245:.\Generated_Source\PSoC4/UART_I2C.c ****         UART_slRdBufIndex    = 0u;
 246:.\Generated_Source\PSoC4/UART_I2C.c ****         UART_slWrBufIndex    = 0u;
 247:.\Generated_Source\PSoC4/UART_I2C.c ****         UART_slOverFlowCount = 0u;
 248:.\Generated_Source\PSoC4/UART_I2C.c ****     #endif /* (UART_I2C_SLAVE) */
 249:.\Generated_Source\PSoC4/UART_I2C.c **** 
 250:.\Generated_Source\PSoC4/UART_I2C.c ****     #if(UART_I2C_MASTER)
 251:.\Generated_Source\PSoC4/UART_I2C.c ****     /* Internal master variable */
 252:.\Generated_Source\PSoC4/UART_I2C.c ****         UART_mstrStatus     = 0u;
 253:.\Generated_Source\PSoC4/UART_I2C.c ****         UART_mstrRdBufIndex = 0u;
 254:.\Generated_Source\PSoC4/UART_I2C.c ****         UART_mstrWrBufIndex = 0u;
 255:.\Generated_Source\PSoC4/UART_I2C.c ****     #endif /* (UART_I2C_MASTER) */
 256:.\Generated_Source\PSoC4/UART_I2C.c ****     }
 257:.\Generated_Source\PSoC4/UART_I2C.c **** #endif /* (UART_SCB_MODE_UNCONFIG_CONST_CFG) */
 258:.\Generated_Source\PSoC4/UART_I2C.c **** 
 259:.\Generated_Source\PSoC4/UART_I2C.c **** 
 260:.\Generated_Source\PSoC4/UART_I2C.c **** /*******************************************************************************
 261:.\Generated_Source\PSoC4/UART_I2C.c **** * Function Name: UART_I2CStop
 262:.\Generated_Source\PSoC4/UART_I2C.c **** ********************************************************************************
 263:.\Generated_Source\PSoC4/UART_I2C.c **** *
 264:.\Generated_Source\PSoC4/UART_I2C.c **** * Summary:
 265:.\Generated_Source\PSoC4/UART_I2C.c **** *  Resets the I2C FSM into the default state.
 266:.\Generated_Source\PSoC4/UART_I2C.c **** *
 267:.\Generated_Source\PSoC4/UART_I2C.c **** * Parameters:
 268:.\Generated_Source\PSoC4/UART_I2C.c **** *  None
 269:.\Generated_Source\PSoC4/UART_I2C.c **** *
 270:.\Generated_Source\PSoC4/UART_I2C.c **** * Return:
 271:.\Generated_Source\PSoC4/UART_I2C.c **** *  None
 272:.\Generated_Source\PSoC4/UART_I2C.c **** *
 273:.\Generated_Source\PSoC4/UART_I2C.c **** *******************************************************************************/
 274:.\Generated_Source\PSoC4/UART_I2C.c **** void UART_I2CStop(void)
ARM GAS  C:\Users\Helon\AppData\Local\Temp\ccpn4yMP.s 			page 13


 275:.\Generated_Source\PSoC4/UART_I2C.c **** {
 398              		.loc 1 275 0
 399              		.cfi_startproc
 276:.\Generated_Source\PSoC4/UART_I2C.c ****     UART_state = UART_I2C_FSM_IDLE;
 400              		.loc 1 276 0
 401 0000 1022     		mov	r2, #16
 402 0002 014B     		ldr	r3, .L32
 403 0004 1A70     		strb	r2, [r3]
 277:.\Generated_Source\PSoC4/UART_I2C.c **** }
 404              		.loc 1 277 0
 405              		@ sp needed
 406 0006 7047     		bx	lr
 407              	.L33:
 408              		.align	2
 409              	.L32:
 410 0008 00000000 		.word	UART_state
 411              		.cfi_endproc
 412              	.LFE3:
 413              		.size	UART_I2CStop, .-UART_I2CStop
 414              		.section	.text.UART_I2CSaveConfig,"ax",%progbits
 415              		.align	2
 416              		.global	UART_I2CSaveConfig
 417              		.code	16
 418              		.thumb_func
 419              		.type	UART_I2CSaveConfig, %function
 420              	UART_I2CSaveConfig:
 421              	.LFB4:
 278:.\Generated_Source\PSoC4/UART_I2C.c **** 
 279:.\Generated_Source\PSoC4/UART_I2C.c **** 
 280:.\Generated_Source\PSoC4/UART_I2C.c **** #if(UART_I2C_WAKE_ENABLE_CONST)
 281:.\Generated_Source\PSoC4/UART_I2C.c ****     /*******************************************************************************
 282:.\Generated_Source\PSoC4/UART_I2C.c ****     * Function Name: UART_I2CSaveConfig
 283:.\Generated_Source\PSoC4/UART_I2C.c ****     ********************************************************************************
 284:.\Generated_Source\PSoC4/UART_I2C.c ****     *
 285:.\Generated_Source\PSoC4/UART_I2C.c ****     * Summary:
 286:.\Generated_Source\PSoC4/UART_I2C.c ****     *  Enables UART_INTR_I2C_EC_WAKE_UP interrupt source. This interrupt
 287:.\Generated_Source\PSoC4/UART_I2C.c ****     *  triggers on address match and wakes up device.
 288:.\Generated_Source\PSoC4/UART_I2C.c ****     *
 289:.\Generated_Source\PSoC4/UART_I2C.c ****     * Parameters:
 290:.\Generated_Source\PSoC4/UART_I2C.c ****     *  None
 291:.\Generated_Source\PSoC4/UART_I2C.c ****     *
 292:.\Generated_Source\PSoC4/UART_I2C.c ****     * Return:
 293:.\Generated_Source\PSoC4/UART_I2C.c ****     *  None
 294:.\Generated_Source\PSoC4/UART_I2C.c ****     *
 295:.\Generated_Source\PSoC4/UART_I2C.c ****     *******************************************************************************/
 296:.\Generated_Source\PSoC4/UART_I2C.c ****     void UART_I2CSaveConfig(void)
 297:.\Generated_Source\PSoC4/UART_I2C.c ****     {
 422              		.loc 1 297 0
 423              		.cfi_startproc
 424 0000 08B5     		push	{r3, lr}
 425              		.cfi_def_cfa_offset 8
 426              		.cfi_offset 3, -8
 427              		.cfi_offset 14, -4
 298:.\Generated_Source\PSoC4/UART_I2C.c ****     #if (!UART_CY_SCBIP_V0)
 299:.\Generated_Source\PSoC4/UART_I2C.c ****         #if (UART_I2C_MULTI_MASTER_SLAVE_CONST && UART_I2C_WAKE_ENABLE_CONST)
 300:.\Generated_Source\PSoC4/UART_I2C.c ****             /* Enable externally clocked address match if it was not enabled before.
 301:.\Generated_Source\PSoC4/UART_I2C.c ****             * This applicable only for Multi-Master-Slave. Ticket ID#192742 */
ARM GAS  C:\Users\Helon\AppData\Local\Temp\ccpn4yMP.s 			page 14


 302:.\Generated_Source\PSoC4/UART_I2C.c ****             if (0u == (UART_CTRL_REG & UART_CTRL_EC_AM_MODE))
 428              		.loc 1 302 0
 429 0002 094B     		ldr	r3, .L36
 430 0004 1B68     		ldr	r3, [r3]
 431 0006 DB05     		lsl	r3, r3, #23
 432 0008 09D4     		bmi	.L35
 303:.\Generated_Source\PSoC4/UART_I2C.c ****             {
 304:.\Generated_Source\PSoC4/UART_I2C.c ****                 /* Enable external address match logic */
 305:.\Generated_Source\PSoC4/UART_I2C.c ****                 UART_Stop();
 433              		.loc 1 305 0
 434 000a FFF7FEFF 		bl	UART_Stop
 435              	.LVL19:
 306:.\Generated_Source\PSoC4/UART_I2C.c ****                 UART_CTRL_REG |= UART_CTRL_EC_AM_MODE;
 436              		.loc 1 306 0
 437 000e 064A     		ldr	r2, .L36
 438 0010 1368     		ldr	r3, [r2]
 439 0012 8021     		mov	r1, #128
 440 0014 4900     		lsl	r1, r1, #1
 441 0016 0B43     		orr	r3, r1
 442 0018 1360     		str	r3, [r2]
 307:.\Generated_Source\PSoC4/UART_I2C.c ****                 UART_Enable();
 443              		.loc 1 307 0
 444 001a FFF7FEFF 		bl	UART_Enable
 445              	.LVL20:
 446              	.L35:
 308:.\Generated_Source\PSoC4/UART_I2C.c ****             }
 309:.\Generated_Source\PSoC4/UART_I2C.c ****         #endif /* (UART_I2C_MULTI_MASTER_SLAVE_CONST) */
 310:.\Generated_Source\PSoC4/UART_I2C.c **** 
 311:.\Generated_Source\PSoC4/UART_I2C.c ****         #if (UART_SCB_CLK_INTERNAL)
 312:.\Generated_Source\PSoC4/UART_I2C.c ****             /* Disable clock to internal address match logic. Ticket ID#187931 */
 313:.\Generated_Source\PSoC4/UART_I2C.c ****             UART_SCBCLK_Stop();
 314:.\Generated_Source\PSoC4/UART_I2C.c ****         #endif /* (UART_SCB_CLK_INTERNAL) */
 315:.\Generated_Source\PSoC4/UART_I2C.c ****     #endif /* (!UART_CY_SCBIP_V0) */
 316:.\Generated_Source\PSoC4/UART_I2C.c **** 
 317:.\Generated_Source\PSoC4/UART_I2C.c ****         UART_SetI2CExtClkInterruptMode(UART_INTR_I2C_EC_WAKE_UP);
 447              		.loc 1 317 0
 448 001e 0122     		mov	r2, #1
 449 0020 024B     		ldr	r3, .L36+4
 450 0022 1A60     		str	r2, [r3]
 318:.\Generated_Source\PSoC4/UART_I2C.c ****     }
 451              		.loc 1 318 0
 452              		@ sp needed
 453 0024 08BD     		pop	{r3, pc}
 454              	.L37:
 455 0026 C046     		.align	2
 456              	.L36:
 457 0028 00002440 		.word	1076101120
 458 002c 880E2440 		.word	1076104840
 459              		.cfi_endproc
 460              	.LFE4:
 461              		.size	UART_I2CSaveConfig, .-UART_I2CSaveConfig
 462              		.section	.text.UART_I2CRestoreConfig,"ax",%progbits
 463              		.align	2
 464              		.global	UART_I2CRestoreConfig
 465              		.code	16
 466              		.thumb_func
 467              		.type	UART_I2CRestoreConfig, %function
ARM GAS  C:\Users\Helon\AppData\Local\Temp\ccpn4yMP.s 			page 15


 468              	UART_I2CRestoreConfig:
 469              	.LFB5:
 319:.\Generated_Source\PSoC4/UART_I2C.c **** 
 320:.\Generated_Source\PSoC4/UART_I2C.c **** 
 321:.\Generated_Source\PSoC4/UART_I2C.c ****     /*******************************************************************************
 322:.\Generated_Source\PSoC4/UART_I2C.c ****     * Function Name: UART_I2CRestoreConfig
 323:.\Generated_Source\PSoC4/UART_I2C.c ****     ********************************************************************************
 324:.\Generated_Source\PSoC4/UART_I2C.c ****     *
 325:.\Generated_Source\PSoC4/UART_I2C.c ****     * Summary:
 326:.\Generated_Source\PSoC4/UART_I2C.c ****     *  Disables UART_INTR_I2C_EC_WAKE_UP interrupt source. This interrupt
 327:.\Generated_Source\PSoC4/UART_I2C.c ****     *  triggers on address match and wakes up device.
 328:.\Generated_Source\PSoC4/UART_I2C.c ****     *
 329:.\Generated_Source\PSoC4/UART_I2C.c ****     * Parameters:
 330:.\Generated_Source\PSoC4/UART_I2C.c ****     *  None
 331:.\Generated_Source\PSoC4/UART_I2C.c ****     *
 332:.\Generated_Source\PSoC4/UART_I2C.c ****     * Return:
 333:.\Generated_Source\PSoC4/UART_I2C.c ****     *  None
 334:.\Generated_Source\PSoC4/UART_I2C.c ****     *
 335:.\Generated_Source\PSoC4/UART_I2C.c ****     *******************************************************************************/
 336:.\Generated_Source\PSoC4/UART_I2C.c ****     void UART_I2CRestoreConfig(void)
 337:.\Generated_Source\PSoC4/UART_I2C.c ****     {
 470              		.loc 1 337 0
 471              		.cfi_startproc
 338:.\Generated_Source\PSoC4/UART_I2C.c ****         /* Disable wakeup interrupt on address match */
 339:.\Generated_Source\PSoC4/UART_I2C.c ****         UART_SetI2CExtClkInterruptMode(UART_NO_INTR_SOURCES);
 472              		.loc 1 339 0
 473 0000 0022     		mov	r2, #0
 474 0002 014B     		ldr	r3, .L39
 475 0004 1A60     		str	r2, [r3]
 340:.\Generated_Source\PSoC4/UART_I2C.c **** 
 341:.\Generated_Source\PSoC4/UART_I2C.c ****     #if (!UART_CY_SCBIP_V0)
 342:.\Generated_Source\PSoC4/UART_I2C.c ****         #if (UART_SCB_CLK_INTERNAL)
 343:.\Generated_Source\PSoC4/UART_I2C.c ****             /* Enable clock to internal address match logic. Ticket ID#187931 */
 344:.\Generated_Source\PSoC4/UART_I2C.c ****             UART_SCBCLK_Start();
 345:.\Generated_Source\PSoC4/UART_I2C.c ****         #endif /* (UART_SCB_CLK_INTERNAL) */
 346:.\Generated_Source\PSoC4/UART_I2C.c ****     #endif /* (!UART_CY_SCBIP_V0) */
 347:.\Generated_Source\PSoC4/UART_I2C.c ****     }
 476              		.loc 1 347 0
 477              		@ sp needed
 478 0006 7047     		bx	lr
 479              	.L40:
 480              		.align	2
 481              	.L39:
 482 0008 880E2440 		.word	1076104840
 483              		.cfi_endproc
 484              	.LFE5:
 485              		.size	UART_I2CRestoreConfig, .-UART_I2CRestoreConfig
 486              		.global	UART_configI2C
 487              		.comm	UART_state,1,1
 488              		.section	.rodata
 489              		.align	2
 490              		.type	UART_configI2C, %object
 491              		.size	UART_configI2C, 40
 492              	UART_configI2C:
 493 0000 01000000 		.word	1
 494 0004 08000000 		.word	8
 495 0008 08000000 		.word	8
ARM GAS  C:\Users\Helon\AppData\Local\Temp\ccpn4yMP.s 			page 16


 496 000c 01000000 		.word	1
 497 0010 08000000 		.word	8
 498 0014 FE000000 		.word	254
 499 0018 00000000 		.word	0
 500 001c 00000000 		.word	0
 501 0020 00       		.byte	0
 502 0021 00       		.space	1
 503 0022 6400     		.short	100
 504 0024 00       		.byte	0
 505 0025 000000   		.space	3
 506              		.text
 507              	.Letext0:
 508              		.file 2 "Generated_Source\\PSoC4/cytypes.h"
 509              		.file 3 ".\\Generated_Source\\PSoC4\\UART_I2C.h"
 510              		.file 4 ".\\Generated_Source\\PSoC4\\UART_PVT.h"
 511              		.file 5 ".\\Generated_Source\\PSoC4\\UART_I2C_PVT.h"
 512              		.file 6 "Generated_Source\\PSoC4/CyLib.h"
 513              		.file 7 ".\\Generated_Source\\PSoC4\\UART.h"