ARM GAS  C:\Users\Helon\AppData\Local\Temp\ccEruqe3.s 			page 1


   1              		.cpu cortex-m0
   2              		.fpu softvfp
   3              		.eabi_attribute 20, 1
   4              		.eabi_attribute 21, 1
   5              		.eabi_attribute 23, 3
   6              		.eabi_attribute 24, 1
   7              		.eabi_attribute 25, 1
   8              		.eabi_attribute 26, 1
   9              		.eabi_attribute 30, 4
  10              		.eabi_attribute 34, 0
  11              		.eabi_attribute 18, 4
  12              		.code	16
  13              		.file	"BLE.c"
  14              		.text
  15              	.Ltext0:
  16              		.cfi_sections	.debug_frame
  17              		.section	.text.CyBle_ChangeAdLocalName,"ax",%progbits
  18              		.align	1
  19              		.code	16
  20              		.thumb_func
  21              		.type	CyBle_ChangeAdLocalName, %function
  22              	CyBle_ChangeAdLocalName:
  23              	.LFB14:
  24              		.file 1 ".\\Generated_Source\\PSoC4\\BLE.c"
   1:.\Generated_Source\PSoC4/BLE.c **** /***************************************************************************//**
   2:.\Generated_Source\PSoC4/BLE.c **** * \file CYBLE.c
   3:.\Generated_Source\PSoC4/BLE.c **** * \version 2.30
   4:.\Generated_Source\PSoC4/BLE.c **** * 
   5:.\Generated_Source\PSoC4/BLE.c **** * \brief
   6:.\Generated_Source\PSoC4/BLE.c **** *  This file contains the source code for the Common APIs of the BLE Component.
   7:.\Generated_Source\PSoC4/BLE.c **** * 
   8:.\Generated_Source\PSoC4/BLE.c **** ********************************************************************************
   9:.\Generated_Source\PSoC4/BLE.c **** * \copyright
  10:.\Generated_Source\PSoC4/BLE.c **** * Copyright 2014-2015, Cypress Semiconductor Corporation.  All rights reserved.
  11:.\Generated_Source\PSoC4/BLE.c **** * You may use this file only in accordance with the license, terms, conditions,
  12:.\Generated_Source\PSoC4/BLE.c **** * disclaimers, and limitations in the end user license agreement accompanying
  13:.\Generated_Source\PSoC4/BLE.c **** * the software package with which this file was provided.
  14:.\Generated_Source\PSoC4/BLE.c **** *******************************************************************************/
  15:.\Generated_Source\PSoC4/BLE.c **** 
  16:.\Generated_Source\PSoC4/BLE.c **** #include "BLE_eventHandler.h"
  17:.\Generated_Source\PSoC4/BLE.c **** #include "BLE_HAL_PVT.h"
  18:.\Generated_Source\PSoC4/BLE.c **** #include <stdlib.h>
  19:.\Generated_Source\PSoC4/BLE.c **** 
  20:.\Generated_Source\PSoC4/BLE.c **** 
  21:.\Generated_Source\PSoC4/BLE.c **** /***************************************
  22:.\Generated_Source\PSoC4/BLE.c **** * Function Prototypes
  23:.\Generated_Source\PSoC4/BLE.c **** ***************************************/
  24:.\Generated_Source\PSoC4/BLE.c **** 
  25:.\Generated_Source\PSoC4/BLE.c **** #if(CYBLE_GATT_ROLE_SERVER)
  26:.\Generated_Source\PSoC4/BLE.c ****     #if(CYBLE_GAP_ROLE_PERIPHERAL)
  27:.\Generated_Source\PSoC4/BLE.c ****         static void CyBle_ChangeAdLocalName(const char8 name[], uint8 dest);
  28:.\Generated_Source\PSoC4/BLE.c ****     #endif /* (CYBLE_GAP_ROLE_PERIPHERAL) */
  29:.\Generated_Source\PSoC4/BLE.c **** #endif /* (CYBLE_GATT_ROLE_SERVER) */
  30:.\Generated_Source\PSoC4/BLE.c ****     
  31:.\Generated_Source\PSoC4/BLE.c **** 
  32:.\Generated_Source\PSoC4/BLE.c **** /***************************************
  33:.\Generated_Source\PSoC4/BLE.c **** * Global Variables
ARM GAS  C:\Users\Helon\AppData\Local\Temp\ccEruqe3.s 			page 2


  34:.\Generated_Source\PSoC4/BLE.c **** ***************************************/
  35:.\Generated_Source\PSoC4/BLE.c **** 
  36:.\Generated_Source\PSoC4/BLE.c **** /* Indicates whether the BLE has been initialized. The variable is initialized to
  37:.\Generated_Source\PSoC4/BLE.c ****    0 and set to 1 the first time CyBle_Start() is called. This allows the component
  38:.\Generated_Source\PSoC4/BLE.c ****    to restart without reinitialization after the first call to the CyBle_Start() 
  39:.\Generated_Source\PSoC4/BLE.c ****    routine. If reinitialization of the component is required, the variable should 
  40:.\Generated_Source\PSoC4/BLE.c ****    be set to 0 before the CyBle_Start() routine is called. Alternatively, the BLE
  41:.\Generated_Source\PSoC4/BLE.c ****    can be reinitialized by calling the CyBle_Init() function.
  42:.\Generated_Source\PSoC4/BLE.c **** */
  43:.\Generated_Source\PSoC4/BLE.c **** uint8  cyBle_initVar = 0u;
  44:.\Generated_Source\PSoC4/BLE.c **** 
  45:.\Generated_Source\PSoC4/BLE.c **** /* Allocate RAM memory for stack. This buffer could be reused by application when 
  46:.\Generated_Source\PSoC4/BLE.c ****    BLE component is stopped. For export mode buffer is allocated in heap.
  47:.\Generated_Source\PSoC4/BLE.c **** */
  48:.\Generated_Source\PSoC4/BLE.c **** #if(CYBLE_SHARING_MODE_EXPORT)
  49:.\Generated_Source\PSoC4/BLE.c ****     
  50:.\Generated_Source\PSoC4/BLE.c **** uint8 *cyBle_stackMemoryRam = NULL;
  51:.\Generated_Source\PSoC4/BLE.c **** 
  52:.\Generated_Source\PSoC4/BLE.c **** #else
  53:.\Generated_Source\PSoC4/BLE.c **** 
  54:.\Generated_Source\PSoC4/BLE.c **** CYBLE_CYALIGNED_BEGIN uint8 cyBle_stackMemoryRam[CYBLE_STACK_RAM_SIZE] CYBLE_CYALIGNED_END;
  55:.\Generated_Source\PSoC4/BLE.c **** 
  56:.\Generated_Source\PSoC4/BLE.c **** #endif  /* CYBLE_SHARING_MODE_EXPORT */
  57:.\Generated_Source\PSoC4/BLE.c **** 
  58:.\Generated_Source\PSoC4/BLE.c **** #if(CYBLE_GAP_ROLE_PERIPHERAL || CYBLE_GAP_ROLE_BROADCASTER)
  59:.\Generated_Source\PSoC4/BLE.c **** 
  60:.\Generated_Source\PSoC4/BLE.c **** CYBLE_GAPP_DISC_PARAM_T cyBle_discoveryParam =
  61:.\Generated_Source\PSoC4/BLE.c **** {
  62:.\Generated_Source\PSoC4/BLE.c ****     0x0020u,    /* uint16 advertising_interval_min */
  63:.\Generated_Source\PSoC4/BLE.c ****     0x0020u,    /* uint16 advertising_interval_max */
  64:.\Generated_Source\PSoC4/BLE.c ****     CYBLE_GAPP_CONNECTABLE_UNDIRECTED_ADV, /* uint8 advertising_type */
  65:.\Generated_Source\PSoC4/BLE.c ****     0x00u,      /* uint8 own_addr_type */
  66:.\Generated_Source\PSoC4/BLE.c ****     0x00u,      /* uint8 direct_addr_type */
  67:.\Generated_Source\PSoC4/BLE.c ****     {0x00u, 0x00u, 0x00u, 0x50u, 0xA0u, 0x00u}, /* uint8* direct_addr */
  68:.\Generated_Source\PSoC4/BLE.c ****     0x07u,      /* uint8 advertising_channel_map */
  69:.\Generated_Source\PSoC4/BLE.c ****     0x00u,      /* uint8 advertising_filter_policy */
  70:.\Generated_Source\PSoC4/BLE.c **** };
  71:.\Generated_Source\PSoC4/BLE.c **** 
  72:.\Generated_Source\PSoC4/BLE.c **** CYBLE_GAPP_DISC_DATA_T cyBle_discoveryData =
  73:.\Generated_Source\PSoC4/BLE.c **** {
  74:.\Generated_Source\PSoC4/BLE.c ****     { 0x02u, 0x01u, 0x06u, 0x18u, 0x09u, 0x54u, 0x68u,
  75:.\Generated_Source\PSoC4/BLE.c ****     0x72u, 0x6Fu, 0x75u, 0x67u, 0x68u, 0x70u, 0x75u, 0x74u,
  76:.\Generated_Source\PSoC4/BLE.c ****     0x20u, 0x20u, 0x20u, 0x20u, 0x20u, 0x20u, 0x20u, 0x20u,
  77:.\Generated_Source\PSoC4/BLE.c ****     0x20u, 0x20u, 0x20u, 0x20u, 0x20u, 0x02u, 0x0Au, 0x00u }, /* uint8 advertising_data[CYBLE_MAX_A
  78:.\Generated_Source\PSoC4/BLE.c ****     0x1Fu,      /* uint8 adv_data_length */
  79:.\Generated_Source\PSoC4/BLE.c **** };
  80:.\Generated_Source\PSoC4/BLE.c **** 
  81:.\Generated_Source\PSoC4/BLE.c **** CYBLE_GAPP_SCAN_RSP_DATA_T cyBle_scanRspData =
  82:.\Generated_Source\PSoC4/BLE.c **** {
  83:.\Generated_Source\PSoC4/BLE.c ****     { 0x00u, 0x00u, 0x00u, 0x00u, 0x00u, 0x00u, 0x00u,
  84:.\Generated_Source\PSoC4/BLE.c ****     0x00u, 0x00u, 0x00u, 0x00u, 0x00u, 0x00u, 0x00u, 0x00u,
  85:.\Generated_Source\PSoC4/BLE.c ****     0x00u, 0x00u, 0x00u, 0x00u, 0x00u, 0x00u, 0x00u, 0x00u,
  86:.\Generated_Source\PSoC4/BLE.c ****     0x00u, 0x00u, 0x00u, 0x00u, 0x00u, 0x00u, 0x00u, 0x00u }, /* uint8 scan_rsp_data[CYBLE_MAX_SCAN
  87:.\Generated_Source\PSoC4/BLE.c ****     0x00u,      /* uint8 scan_rsp_data_length */
  88:.\Generated_Source\PSoC4/BLE.c **** };
  89:.\Generated_Source\PSoC4/BLE.c **** 
  90:.\Generated_Source\PSoC4/BLE.c **** /* This variable of type CYBLE_GAPP_DISC_MODE_INFO_T is present only when 
ARM GAS  C:\Users\Helon\AppData\Local\Temp\ccEruqe3.s 			page 3


  91:.\Generated_Source\PSoC4/BLE.c ****    the BLE component is configured for Peripheral GAP role or Central and 
  92:.\Generated_Source\PSoC4/BLE.c ****    Peripheral GAP role. It contains the Advertisement settings and also the 
  93:.\Generated_Source\PSoC4/BLE.c ****    Advertisement and Scan response data parameters entered in the customizer.
  94:.\Generated_Source\PSoC4/BLE.c ****    This variable can be used by advanced users to change Advertisement settings,
  95:.\Generated_Source\PSoC4/BLE.c ****    Advertisement or Scan response data in runtime. 
  96:.\Generated_Source\PSoC4/BLE.c **** */
  97:.\Generated_Source\PSoC4/BLE.c **** CYBLE_GAPP_DISC_MODE_INFO_T cyBle_discoveryModeInfo =
  98:.\Generated_Source\PSoC4/BLE.c **** {
  99:.\Generated_Source\PSoC4/BLE.c ****     0x02u,      /* uint8 discMode */
 100:.\Generated_Source\PSoC4/BLE.c ****     &cyBle_discoveryParam,
 101:.\Generated_Source\PSoC4/BLE.c ****     &cyBle_discoveryData,
 102:.\Generated_Source\PSoC4/BLE.c ****     &cyBle_scanRspData,
 103:.\Generated_Source\PSoC4/BLE.c ****     0x001Eu,    /* uint16 advTo */
 104:.\Generated_Source\PSoC4/BLE.c **** };
 105:.\Generated_Source\PSoC4/BLE.c **** 
 106:.\Generated_Source\PSoC4/BLE.c **** 
 107:.\Generated_Source\PSoC4/BLE.c **** #endif /* CYBLE_GAP_ROLE_PERIPHERAL || CYBLE_GAP_ROLE_BROADCASTER */
 108:.\Generated_Source\PSoC4/BLE.c **** 
 109:.\Generated_Source\PSoC4/BLE.c **** #if(CYBLE_GAP_ROLE_CENTRAL)
 110:.\Generated_Source\PSoC4/BLE.c ****     
 111:.\Generated_Source\PSoC4/BLE.c **** CYBLE_GAPC_CONN_PARAM_T cyBle_connectionParameters;
 112:.\Generated_Source\PSoC4/BLE.c **** 
 113:.\Generated_Source\PSoC4/BLE.c **** /* Connecting timeout is set to 30 seconds in CyBle_Init function. 
 114:.\Generated_Source\PSoC4/BLE.c ****    Not zero value starts timer in CyBle_GapcConnectDevice API.
 115:.\Generated_Source\PSoC4/BLE.c **** */
 116:.\Generated_Source\PSoC4/BLE.c **** uint16 cyBle_connectingTimeout;
 117:.\Generated_Source\PSoC4/BLE.c ****     
 118:.\Generated_Source\PSoC4/BLE.c **** #endif /* CYBLE_GAP_ROLE_CENTRAL */
 119:.\Generated_Source\PSoC4/BLE.c **** 
 120:.\Generated_Source\PSoC4/BLE.c **** #if(CYBLE_GAP_ROLE_CENTRAL || CYBLE_GAP_ROLE_OBSERVER)
 121:.\Generated_Source\PSoC4/BLE.c ****     
 122:.\Generated_Source\PSoC4/BLE.c **** /* This variable of type CYBLE_GAPC_DISC_INFO_T is present only when  
 123:.\Generated_Source\PSoC4/BLE.c ****    the BLE component is configured for Central GAP role or Central and  
 124:.\Generated_Source\PSoC4/BLE.c ****    Peripheral GAP role. It contains the Scan settings entered in the  
 125:.\Generated_Source\PSoC4/BLE.c ****    customizer. This variable can be used by advanced users to change Scan  
 126:.\Generated_Source\PSoC4/BLE.c ****    settings in runtime.
 127:.\Generated_Source\PSoC4/BLE.c **** */
 128:.\Generated_Source\PSoC4/BLE.c **** CYBLE_GAPC_DISC_INFO_T cyBle_discoveryInfo =
 129:.\Generated_Source\PSoC4/BLE.c **** {
 130:.\Generated_Source\PSoC4/BLE.c ****     0x02u,      /* discProcedure */
 131:.\Generated_Source\PSoC4/BLE.c ****     0x01u,      /* scanType */
 132:.\Generated_Source\PSoC4/BLE.c ****     0x0030u,    /* scanInterval */
 133:.\Generated_Source\PSoC4/BLE.c ****     0x0030u,    /* scanWindow */
 134:.\Generated_Source\PSoC4/BLE.c ****     0x00u,      /* ownAddrType */
 135:.\Generated_Source\PSoC4/BLE.c ****     0x00u,      /* scanFilterPolicy */
 136:.\Generated_Source\PSoC4/BLE.c ****     0x000Au,    /* scanTO */
 137:.\Generated_Source\PSoC4/BLE.c ****     0x01u,      /* filterDuplicates */
 138:.\Generated_Source\PSoC4/BLE.c **** };
 139:.\Generated_Source\PSoC4/BLE.c ****     
 140:.\Generated_Source\PSoC4/BLE.c **** #endif /* CYBLE_GAP_ROLE_CENTRAL || CYBLE_GAP_ROLE_OBSERVER */
 141:.\Generated_Source\PSoC4/BLE.c **** 
 142:.\Generated_Source\PSoC4/BLE.c **** #if((CYBLE_GAP_ROLE_PERIPHERAL || CYBLE_GAP_ROLE_CENTRAL) && (CYBLE_BONDING_REQUIREMENT == CYBLE_BO
 143:.\Generated_Source\PSoC4/BLE.c **** 
 144:.\Generated_Source\PSoC4/BLE.c **** uint8 cyBle_peerBonding;
 145:.\Generated_Source\PSoC4/BLE.c **** uint8 cyBle_pendingFlashWrite;
 146:.\Generated_Source\PSoC4/BLE.c ****     
 147:.\Generated_Source\PSoC4/BLE.c **** #endif  /* (CYBLE_BONDING_REQUIREMENT == CYBLE_BONDING_YES) */
ARM GAS  C:\Users\Helon\AppData\Local\Temp\ccEruqe3.s 			page 4


 148:.\Generated_Source\PSoC4/BLE.c **** 
 149:.\Generated_Source\PSoC4/BLE.c **** CYBLE_CALLBACK_T CyBle_ApplCallback;
 150:.\Generated_Source\PSoC4/BLE.c **** CYBLE_GAP_BD_ADDR_T cyBle_deviceAddress = {{0x00u, 0x00u, 0x00u, 0x50u, 0xA0u, 0x00u}, 0x00u };
 151:.\Generated_Source\PSoC4/BLE.c **** CYBLE_GAP_BD_ADDR_T * cyBle_sflashDeviceAddress = CYBLE_SFLASH_DEVICE_ADDRESS_PTR;
 152:.\Generated_Source\PSoC4/BLE.c **** 
 153:.\Generated_Source\PSoC4/BLE.c **** #if(CYBLE_MODE_PROFILE)
 154:.\Generated_Source\PSoC4/BLE.c ****     #if defined(__ARMCC_VERSION)
 155:.\Generated_Source\PSoC4/BLE.c ****         CY_ALIGN(CYDEV_FLS_ROW_SIZE) const uint8 cyBle_StackFlashptr[CYBLE_STACK_FLASH_SIZE] = {0u}
 156:.\Generated_Source\PSoC4/BLE.c ****     #elif defined (__GNUC__)
 157:.\Generated_Source\PSoC4/BLE.c ****         const uint8 cyBle_StackFlashptr[CYBLE_STACK_FLASH_SIZE] CY_ALIGN(CYDEV_FLS_ROW_SIZE) = {0u}
 158:.\Generated_Source\PSoC4/BLE.c ****     #elif defined (__ICCARM__)
 159:.\Generated_Source\PSoC4/BLE.c ****         #pragma data_alignment=CY_FLASH_SIZEOF_ROW
 160:.\Generated_Source\PSoC4/BLE.c ****         const uint8 cyBle_StackFlashptr[CYBLE_STACK_FLASH_SIZE] = {0u};
 161:.\Generated_Source\PSoC4/BLE.c ****     #endif  /* (__ARMCC_VERSION) */
 162:.\Generated_Source\PSoC4/BLE.c **** #endif /* (CYBLE_MODE_PROFILE) */
 163:.\Generated_Source\PSoC4/BLE.c **** 
 164:.\Generated_Source\PSoC4/BLE.c **** 
 165:.\Generated_Source\PSoC4/BLE.c **** /******************************************************************************
 166:.\Generated_Source\PSoC4/BLE.c **** * Function Name: CyBle_Init
 167:.\Generated_Source\PSoC4/BLE.c **** ***************************************************************************//**
 168:.\Generated_Source\PSoC4/BLE.c **** *
 169:.\Generated_Source\PSoC4/BLE.c **** *   Initializes the component with the parameters set in the customizer.
 170:.\Generated_Source\PSoC4/BLE.c **** * 
 171:.\Generated_Source\PSoC4/BLE.c **** *  \return
 172:.\Generated_Source\PSoC4/BLE.c **** *   None
 173:.\Generated_Source\PSoC4/BLE.c **** * 
 174:.\Generated_Source\PSoC4/BLE.c **** ******************************************************************************/
 175:.\Generated_Source\PSoC4/BLE.c **** void CyBle_Init(void)
 176:.\Generated_Source\PSoC4/BLE.c **** {
 177:.\Generated_Source\PSoC4/BLE.c ****     cyBle_eventHandlerFlag = 0u;
 178:.\Generated_Source\PSoC4/BLE.c ****     cyBle_busyStatus = CYBLE_STACK_STATE_FREE;
 179:.\Generated_Source\PSoC4/BLE.c **** 
 180:.\Generated_Source\PSoC4/BLE.c ****     #if(CYBLE_GAP_ROLE_PERIPHERAL || CYBLE_GAP_ROLE_BROADCASTER) 
 181:.\Generated_Source\PSoC4/BLE.c ****         cyBle_advertisingIntervalType = CYBLE_ADVERTISING_FAST; 
 182:.\Generated_Source\PSoC4/BLE.c ****     #endif /* (CYBLE_GAP_ROLE_PERIPHERAL || CYBLE_GAP_ROLE_BROADCASTER)  */
 183:.\Generated_Source\PSoC4/BLE.c ****     #if(CYBLE_GAP_ROLE_CENTRAL || CYBLE_GAP_ROLE_OBSERVER)
 184:.\Generated_Source\PSoC4/BLE.c ****         cyBle_scanningIntervalType = CYBLE_SCANNING_FAST; 
 185:.\Generated_Source\PSoC4/BLE.c ****     #endif /* (CYBLE_GAP_ROLE_CENTRAL || CYBLE_GAP_ROLE_OBSERVER) */
 186:.\Generated_Source\PSoC4/BLE.c ****         
 187:.\Generated_Source\PSoC4/BLE.c ****     /* Init default connection parameters. 
 188:.\Generated_Source\PSoC4/BLE.c ****        Application may change it before initiating a connection */
 189:.\Generated_Source\PSoC4/BLE.c ****     #if(CYBLE_GAP_ROLE_CENTRAL)
 190:.\Generated_Source\PSoC4/BLE.c ****         cyBle_connectionParameters.scanIntv = cyBle_discoveryInfo.scanIntv;
 191:.\Generated_Source\PSoC4/BLE.c ****         cyBle_connectionParameters.scanWindow = cyBle_discoveryInfo.scanWindow;
 192:.\Generated_Source\PSoC4/BLE.c ****         cyBle_connectionParameters.ownAddrType = cyBle_discoveryInfo.ownAddrType;
 193:.\Generated_Source\PSoC4/BLE.c ****         cyBle_connectionParameters.initiatorFilterPolicy = cyBle_discoveryInfo.scanFilterPolicy;
 194:.\Generated_Source\PSoC4/BLE.c ****         cyBle_connectionParameters.connIntvMin = CYBLE_GAPC_CONNECTION_INTERVAL_MIN;
 195:.\Generated_Source\PSoC4/BLE.c ****         cyBle_connectionParameters.connIntvMax = CYBLE_GAPC_CONNECTION_INTERVAL_MAX;
 196:.\Generated_Source\PSoC4/BLE.c ****         cyBle_connectionParameters.connLatency = CYBLE_GAPC_CONNECTION_SLAVE_LATENCY;
 197:.\Generated_Source\PSoC4/BLE.c ****         cyBle_connectionParameters.supervisionTO = CYBLE_GAPC_CONNECTION_TIME_OUT;
 198:.\Generated_Source\PSoC4/BLE.c ****         cyBle_connectionParameters.minCeLength = 0x0000u;
 199:.\Generated_Source\PSoC4/BLE.c ****         cyBle_connectionParameters.maxCeLength = 0xFFFFu;
 200:.\Generated_Source\PSoC4/BLE.c ****         
 201:.\Generated_Source\PSoC4/BLE.c ****         cyBle_connectingTimeout = CYBLE_GAPC_CONNECTING_TIMEOUT;
 202:.\Generated_Source\PSoC4/BLE.c ****     #endif /* CYBLE_GAP_ROLE_CENTRAL */
 203:.\Generated_Source\PSoC4/BLE.c **** 
 204:.\Generated_Source\PSoC4/BLE.c ****     CyBle_ServiceInit();
ARM GAS  C:\Users\Helon\AppData\Local\Temp\ccEruqe3.s 			page 5


 205:.\Generated_Source\PSoC4/BLE.c **** 
 206:.\Generated_Source\PSoC4/BLE.c ****     #if((CYBLE_GAP_ROLE_PERIPHERAL || CYBLE_GAP_ROLE_CENTRAL) && (CYBLE_BONDING_REQUIREMENT == CYBL
 207:.\Generated_Source\PSoC4/BLE.c ****         cyBle_pendingFlashWrite = 0u;
 208:.\Generated_Source\PSoC4/BLE.c ****         cyBle_peerBonding = CYBLE_GAP_BONDING_NONE;
 209:.\Generated_Source\PSoC4/BLE.c ****     #endif  /* (CYBLE_BONDING_REQUIREMENT == CYBLE_BONDING_YES) */
 210:.\Generated_Source\PSoC4/BLE.c **** 
 211:.\Generated_Source\PSoC4/BLE.c **** }
 212:.\Generated_Source\PSoC4/BLE.c **** 
 213:.\Generated_Source\PSoC4/BLE.c **** 
 214:.\Generated_Source\PSoC4/BLE.c **** /******************************************************************************
 215:.\Generated_Source\PSoC4/BLE.c **** * Function Name: CyBle_ServiceInit
 216:.\Generated_Source\PSoC4/BLE.c **** ***************************************************************************//**
 217:.\Generated_Source\PSoC4/BLE.c **** * 
 218:.\Generated_Source\PSoC4/BLE.c **** *  Initializes all included services.
 219:.\Generated_Source\PSoC4/BLE.c **** * 
 220:.\Generated_Source\PSoC4/BLE.c **** * \return
 221:.\Generated_Source\PSoC4/BLE.c **** *  None
 222:.\Generated_Source\PSoC4/BLE.c **** * 
 223:.\Generated_Source\PSoC4/BLE.c **** ******************************************************************************/
 224:.\Generated_Source\PSoC4/BLE.c **** void CyBle_ServiceInit(void)
 225:.\Generated_Source\PSoC4/BLE.c **** {
 226:.\Generated_Source\PSoC4/BLE.c ****     #if(CYBLE_GATT_ROLE_CLIENT)
 227:.\Generated_Source\PSoC4/BLE.c ****         (void)memset(&cyBle_gapc, 0, sizeof(cyBle_gapc));
 228:.\Generated_Source\PSoC4/BLE.c ****         (void)memset(&cyBle_gattc, 0, sizeof(cyBle_gattc));
 229:.\Generated_Source\PSoC4/BLE.c ****     #endif /* CYBLE_GATT_ROLE_CLIENT */
 230:.\Generated_Source\PSoC4/BLE.c ****     
 231:.\Generated_Source\PSoC4/BLE.c **** 	#ifdef CYBLE_ANCS
 232:.\Generated_Source\PSoC4/BLE.c ****         CyBle_AncsInit();
 233:.\Generated_Source\PSoC4/BLE.c ****     #endif /* CYBLE_ANCS */
 234:.\Generated_Source\PSoC4/BLE.c **** 	
 235:.\Generated_Source\PSoC4/BLE.c ****     #ifdef CYBLE_ANS
 236:.\Generated_Source\PSoC4/BLE.c ****         CyBle_AnsInit();
 237:.\Generated_Source\PSoC4/BLE.c ****     #endif /* CYBLE_ANS */
 238:.\Generated_Source\PSoC4/BLE.c ****     
 239:.\Generated_Source\PSoC4/BLE.c ****     #ifdef CYBLE_BAS
 240:.\Generated_Source\PSoC4/BLE.c ****         CyBle_BasInit();
 241:.\Generated_Source\PSoC4/BLE.c ****     #endif /* CYBLE_BAS */
 242:.\Generated_Source\PSoC4/BLE.c ****     
 243:.\Generated_Source\PSoC4/BLE.c ****     #ifdef CYBLE_BLS
 244:.\Generated_Source\PSoC4/BLE.c ****         CyBle_BlsInit();
 245:.\Generated_Source\PSoC4/BLE.c ****     #endif /* CYBLE_BLS */
 246:.\Generated_Source\PSoC4/BLE.c ****     
 247:.\Generated_Source\PSoC4/BLE.c ****     #ifdef CYBLE_BMS
 248:.\Generated_Source\PSoC4/BLE.c ****         CyBle_BmsInit();
 249:.\Generated_Source\PSoC4/BLE.c ****     #endif /* CYBLE_BMS */
 250:.\Generated_Source\PSoC4/BLE.c ****     
 251:.\Generated_Source\PSoC4/BLE.c ****     #ifdef CYBLE_CGMS
 252:.\Generated_Source\PSoC4/BLE.c ****         CyBle_CgmsInit();
 253:.\Generated_Source\PSoC4/BLE.c ****     #endif /* CYBLE_CGMS */
 254:.\Generated_Source\PSoC4/BLE.c **** 
 255:.\Generated_Source\PSoC4/BLE.c ****     #ifdef CYBLE_CPS
 256:.\Generated_Source\PSoC4/BLE.c ****         CyBle_CpsInit();
 257:.\Generated_Source\PSoC4/BLE.c ****     #endif /* CYBLE_CPS */
 258:.\Generated_Source\PSoC4/BLE.c **** 
 259:.\Generated_Source\PSoC4/BLE.c ****     #ifdef CYBLE_CSCS
 260:.\Generated_Source\PSoC4/BLE.c ****         CyBle_CscsInit();
 261:.\Generated_Source\PSoC4/BLE.c ****     #endif /* CYBLE_CSCS */
ARM GAS  C:\Users\Helon\AppData\Local\Temp\ccEruqe3.s 			page 6


 262:.\Generated_Source\PSoC4/BLE.c ****     
 263:.\Generated_Source\PSoC4/BLE.c ****     #ifdef CYBLE_CTS
 264:.\Generated_Source\PSoC4/BLE.c ****         CyBle_CtsInit();
 265:.\Generated_Source\PSoC4/BLE.c ****     #endif /* CYBLE_CTS */
 266:.\Generated_Source\PSoC4/BLE.c **** 
 267:.\Generated_Source\PSoC4/BLE.c ****     #ifdef CYBLE_DIS
 268:.\Generated_Source\PSoC4/BLE.c ****         CyBle_DisInit();
 269:.\Generated_Source\PSoC4/BLE.c ****     #endif /* CYBLE_DIS */
 270:.\Generated_Source\PSoC4/BLE.c **** 
 271:.\Generated_Source\PSoC4/BLE.c ****     #ifdef CYBLE_ESS
 272:.\Generated_Source\PSoC4/BLE.c ****         CyBle_EssInit();
 273:.\Generated_Source\PSoC4/BLE.c ****     #endif /* CYBLE_ESS */
 274:.\Generated_Source\PSoC4/BLE.c ****     
 275:.\Generated_Source\PSoC4/BLE.c ****     #ifdef CYBLE_GLS
 276:.\Generated_Source\PSoC4/BLE.c ****         CyBle_GlsInit();
 277:.\Generated_Source\PSoC4/BLE.c ****     #endif /* CYBLE_GLS */
 278:.\Generated_Source\PSoC4/BLE.c ****     
 279:.\Generated_Source\PSoC4/BLE.c ****     #ifdef CYBLE_CUSTOM
 280:.\Generated_Source\PSoC4/BLE.c ****         CyBle_CustomInit();
 281:.\Generated_Source\PSoC4/BLE.c ****     #endif /* CYBLE_CUSTOM */
 282:.\Generated_Source\PSoC4/BLE.c **** 
 283:.\Generated_Source\PSoC4/BLE.c ****     #ifdef CYBLE_HIDS
 284:.\Generated_Source\PSoC4/BLE.c ****         CyBle_HidsInit();
 285:.\Generated_Source\PSoC4/BLE.c ****     #endif /* CYBLE_HIDS */
 286:.\Generated_Source\PSoC4/BLE.c **** 
 287:.\Generated_Source\PSoC4/BLE.c ****     #ifdef CYBLE_HRS
 288:.\Generated_Source\PSoC4/BLE.c ****         CyBle_HrsInit();
 289:.\Generated_Source\PSoC4/BLE.c ****     #endif /* CYBLE_HRS */
 290:.\Generated_Source\PSoC4/BLE.c ****     
 291:.\Generated_Source\PSoC4/BLE.c ****     #ifdef CYBLE_HTS
 292:.\Generated_Source\PSoC4/BLE.c ****         CyBle_HtsInit();
 293:.\Generated_Source\PSoC4/BLE.c ****     #endif /* CYBLE_RSCS */
 294:.\Generated_Source\PSoC4/BLE.c **** 
 295:.\Generated_Source\PSoC4/BLE.c ****     #ifdef CYBLE_IAS
 296:.\Generated_Source\PSoC4/BLE.c ****         CyBle_IasInit();
 297:.\Generated_Source\PSoC4/BLE.c ****     #endif /* CYBLE_IAS */
 298:.\Generated_Source\PSoC4/BLE.c **** 
 299:.\Generated_Source\PSoC4/BLE.c ****     #ifdef CYBLE_LLS
 300:.\Generated_Source\PSoC4/BLE.c ****         CyBle_LlsInit();
 301:.\Generated_Source\PSoC4/BLE.c ****     #endif /* CYBLE_LLS */
 302:.\Generated_Source\PSoC4/BLE.c **** 
 303:.\Generated_Source\PSoC4/BLE.c ****     #ifdef CYBLE_RTUS
 304:.\Generated_Source\PSoC4/BLE.c ****         CyBle_RtusInit();
 305:.\Generated_Source\PSoC4/BLE.c ****     #endif /* CYBLE_RTUS */
 306:.\Generated_Source\PSoC4/BLE.c **** 
 307:.\Generated_Source\PSoC4/BLE.c ****     #ifdef CYBLE_LNS
 308:.\Generated_Source\PSoC4/BLE.c ****         CyBle_LnsInit();
 309:.\Generated_Source\PSoC4/BLE.c ****     #endif /* CYBLE_LNS */
 310:.\Generated_Source\PSoC4/BLE.c ****     
 311:.\Generated_Source\PSoC4/BLE.c ****     #ifdef CYBLE_PASS
 312:.\Generated_Source\PSoC4/BLE.c ****         CyBle_PassInit();
 313:.\Generated_Source\PSoC4/BLE.c ****     #endif /* CYBLE_PASS */
 314:.\Generated_Source\PSoC4/BLE.c ****     
 315:.\Generated_Source\PSoC4/BLE.c ****     #ifdef CYBLE_RSCS
 316:.\Generated_Source\PSoC4/BLE.c ****         CyBle_RscsInit();
 317:.\Generated_Source\PSoC4/BLE.c ****     #endif /* CYBLE_RSCS */
 318:.\Generated_Source\PSoC4/BLE.c **** 
ARM GAS  C:\Users\Helon\AppData\Local\Temp\ccEruqe3.s 			page 7


 319:.\Generated_Source\PSoC4/BLE.c ****     #ifdef CYBLE_SCPS
 320:.\Generated_Source\PSoC4/BLE.c ****         CyBle_ScpsInit();
 321:.\Generated_Source\PSoC4/BLE.c ****     #endif /* CYBLE_SCPS */
 322:.\Generated_Source\PSoC4/BLE.c ****     
 323:.\Generated_Source\PSoC4/BLE.c ****     #ifdef CYBLE_TPS
 324:.\Generated_Source\PSoC4/BLE.c ****         CyBle_TpsInit();
 325:.\Generated_Source\PSoC4/BLE.c ****     #endif /* CYBLE_TPS */
 326:.\Generated_Source\PSoC4/BLE.c ****     
 327:.\Generated_Source\PSoC4/BLE.c ****     #ifdef CYBLE_UDS
 328:.\Generated_Source\PSoC4/BLE.c ****         CyBle_UdsInit();
 329:.\Generated_Source\PSoC4/BLE.c ****     #endif /* CYBLE_UDS */
 330:.\Generated_Source\PSoC4/BLE.c **** 
 331:.\Generated_Source\PSoC4/BLE.c ****     #ifdef CYBLE_WPTS
 332:.\Generated_Source\PSoC4/BLE.c ****         CyBle_WptsInit();
 333:.\Generated_Source\PSoC4/BLE.c ****     #endif /* CYBLE_WPTS */
 334:.\Generated_Source\PSoC4/BLE.c **** 
 335:.\Generated_Source\PSoC4/BLE.c ****     #ifdef CYBLE_WSS
 336:.\Generated_Source\PSoC4/BLE.c ****         CyBle_WssInit();
 337:.\Generated_Source\PSoC4/BLE.c ****     #endif /* CYBLE_WSS */
 338:.\Generated_Source\PSoC4/BLE.c **** }
 339:.\Generated_Source\PSoC4/BLE.c **** 
 340:.\Generated_Source\PSoC4/BLE.c **** 
 341:.\Generated_Source\PSoC4/BLE.c **** /******************************************************************************
 342:.\Generated_Source\PSoC4/BLE.c **** * Function Name: CyBle_Start
 343:.\Generated_Source\PSoC4/BLE.c **** ***************************************************************************//**
 344:.\Generated_Source\PSoC4/BLE.c **** * 
 345:.\Generated_Source\PSoC4/BLE.c **** *  This function initializes the BLE Stack, which consists of the BLE Stack 
 346:.\Generated_Source\PSoC4/BLE.c **** *  Manager, BLE Controller, and BLE Host modules. It takes care of initializing
 347:.\Generated_Source\PSoC4/BLE.c **** *  the Profile layer, schedulers, Timer and other platform related
 348:.\Generated_Source\PSoC4/BLE.c **** *  resources required for the BLE component. It also registers the callback 
 349:.\Generated_Source\PSoC4/BLE.c **** *  function for BLE events that will be registered in the BLE stack.
 350:.\Generated_Source\PSoC4/BLE.c **** * 
 351:.\Generated_Source\PSoC4/BLE.c **** *  Note that this function does not reset the BLE Stack.
 352:.\Generated_Source\PSoC4/BLE.c **** * 
 353:.\Generated_Source\PSoC4/BLE.c **** *  For HCI-Mode of operation, this function will not initialize the BLE Host 
 354:.\Generated_Source\PSoC4/BLE.c **** *  module.
 355:.\Generated_Source\PSoC4/BLE.c **** * 
 356:.\Generated_Source\PSoC4/BLE.c **** *  Calling this function results in the generation of CYBLE_EVT_STACK_ON event
 357:.\Generated_Source\PSoC4/BLE.c **** *  on successful initialization of the BLE Stack.
 358:.\Generated_Source\PSoC4/BLE.c **** * 
 359:.\Generated_Source\PSoC4/BLE.c **** *  \param callbackFunc: Event callback function to receive events from BLE stack.
 360:.\Generated_Source\PSoC4/BLE.c **** *   CYBLE_CALLBACK_T is a function pointer type.
 361:.\Generated_Source\PSoC4/BLE.c **** * 
 362:.\Generated_Source\PSoC4/BLE.c **** * \return
 363:.\Generated_Source\PSoC4/BLE.c **** *  CYBLE_API_RESULT_T : Return value indicates if the function succeeded or 
 364:.\Generated_Source\PSoC4/BLE.c **** *  failed. Following are the possible error codes.
 365:.\Generated_Source\PSoC4/BLE.c **** * 
 366:.\Generated_Source\PSoC4/BLE.c **** *   <table>
 367:.\Generated_Source\PSoC4/BLE.c **** *  	  <tr>
 368:.\Generated_Source\PSoC4/BLE.c **** *       <th>Error codes</th>
 369:.\Generated_Source\PSoC4/BLE.c **** *       <th>Description</th>
 370:.\Generated_Source\PSoC4/BLE.c **** *     </tr>
 371:.\Generated_Source\PSoC4/BLE.c **** *     <tr>
 372:.\Generated_Source\PSoC4/BLE.c **** *       <td>CYBLE_ERROR_OK</td>
 373:.\Generated_Source\PSoC4/BLE.c **** *       <td>On successful operation.</td>
 374:.\Generated_Source\PSoC4/BLE.c **** *     </tr>
 375:.\Generated_Source\PSoC4/BLE.c **** *     <tr>
ARM GAS  C:\Users\Helon\AppData\Local\Temp\ccEruqe3.s 			page 8


 376:.\Generated_Source\PSoC4/BLE.c **** *       <td>CYBLE_ERROR_INVALID_PARAMETER</td>
 377:.\Generated_Source\PSoC4/BLE.c **** *       <td>On passing a NULL pointer to the function when the BLE stack is not built in HCI mode. 
 378:.\Generated_Source\PSoC4/BLE.c **** *			CYBLE_ERROR_INVALID_PARAMETER is never returned in HCI mode.</td>
 379:.\Generated_Source\PSoC4/BLE.c **** *     </tr>
 380:.\Generated_Source\PSoC4/BLE.c **** *     <tr>
 381:.\Generated_Source\PSoC4/BLE.c **** *       <td>CYBLE_ERROR_REPEATED_ATTEMPTS</td>
 382:.\Generated_Source\PSoC4/BLE.c **** *       <td>On invoking this function more than once without calling CyBle_Shutdown() 
 383:.\Generated_Source\PSoC4/BLE.c **** *           function between calls to this function.</td>
 384:.\Generated_Source\PSoC4/BLE.c **** *     </tr>
 385:.\Generated_Source\PSoC4/BLE.c **** *     <tr>
 386:.\Generated_Source\PSoC4/BLE.c **** *       <td>CYBLE_ERROR_MEMORY_ALLOCATION_FAILED</td>
 387:.\Generated_Source\PSoC4/BLE.c **** *       <td>There is insufficient memory available.</td>
 388:.\Generated_Source\PSoC4/BLE.c **** *     </tr>
 389:.\Generated_Source\PSoC4/BLE.c **** *   </table>
 390:.\Generated_Source\PSoC4/BLE.c **** * 
 391:.\Generated_Source\PSoC4/BLE.c **** *  \globalvars
 392:.\Generated_Source\PSoC4/BLE.c **** *   The CyBle_initVar variable is used to indicate initial
 393:.\Generated_Source\PSoC4/BLE.c **** *   configuration of this component. The variable is initialized to zero (0u)
 394:.\Generated_Source\PSoC4/BLE.c **** *   and set to one (1u) the first time CyBle_Start() is called. This
 395:.\Generated_Source\PSoC4/BLE.c **** *   allows for component initialization without re-initialization in all
 396:.\Generated_Source\PSoC4/BLE.c **** *   subsequent calls to the CyBle_Start() routine.
 397:.\Generated_Source\PSoC4/BLE.c **** * 
 398:.\Generated_Source\PSoC4/BLE.c **** ******************************************************************************/
 399:.\Generated_Source\PSoC4/BLE.c **** CYBLE_API_RESULT_T CyBle_Start(CYBLE_CALLBACK_T callbackFunc)
 400:.\Generated_Source\PSoC4/BLE.c **** {
 401:.\Generated_Source\PSoC4/BLE.c ****     CYBLE_API_RESULT_T apiResult = CYBLE_ERROR_OK;
 402:.\Generated_Source\PSoC4/BLE.c ****     
 403:.\Generated_Source\PSoC4/BLE.c ****     #if(CYBLE_MODE_PROFILE)
 404:.\Generated_Source\PSoC4/BLE.c ****     
 405:.\Generated_Source\PSoC4/BLE.c ****     CYBLE_STK_APP_DATA_BUFF_T cyBle_stackDataBuff[CYBLE_STACK_BUF_COUNT] = 
 406:.\Generated_Source\PSoC4/BLE.c ****     {
 407:.\Generated_Source\PSoC4/BLE.c ****         {CYBLE_GATT_MTU_PLUS_L2CAP_MEM_EXT, CYBLE_GATT_MTU_BUF_COUNT},
 408:.\Generated_Source\PSoC4/BLE.c ****         {CYBLE_GATT_MAX_ATTR_LEN_PLUS_L2CAP_MEM_EXT, 1u},
 409:.\Generated_Source\PSoC4/BLE.c ****         {CYBLE_L2CAP_PSM_PLUS_L2CAP_MEM_EXT, CYBLE_L2CAP_PSM_COUNT},
 410:.\Generated_Source\PSoC4/BLE.c ****         {CYBLE_L2CAP_CBFC_PLUS_L2CAP_MEM_EXT, CYBLE_L2CAP_LOGICAL_CHANNEL_COUNT},
 411:.\Generated_Source\PSoC4/BLE.c ****         {CYBLE_L2CAP_MTU_PLUS_L2CAP_MEM_EXT, CYBLE_L2CAP_LOGICAL_CHANNEL_COUNT},
 412:.\Generated_Source\PSoC4/BLE.c ****         {CYBLE_L2CAP_MPS_PLUS_L2CAP_MEM_EXT, CYBLE_L2CAP_LOGICAL_CHANNEL_COUNT * (CYBLE_L2CAP_MTU/C
 413:.\Generated_Source\PSoC4/BLE.c ****     }; 
 414:.\Generated_Source\PSoC4/BLE.c **** 
 415:.\Generated_Source\PSoC4/BLE.c ****     #endif /* CYBLE_MODE_PROFILE */
 416:.\Generated_Source\PSoC4/BLE.c ****     
 417:.\Generated_Source\PSoC4/BLE.c ****     /* If not initialized then initialize all the required hardware and software */
 418:.\Generated_Source\PSoC4/BLE.c ****     if(cyBle_initVar == 0u)
 419:.\Generated_Source\PSoC4/BLE.c ****     {
 420:.\Generated_Source\PSoC4/BLE.c ****         CyBle_Init();
 421:.\Generated_Source\PSoC4/BLE.c ****         cyBle_initVar = 1u;
 422:.\Generated_Source\PSoC4/BLE.c ****     }
 423:.\Generated_Source\PSoC4/BLE.c ****     
 424:.\Generated_Source\PSoC4/BLE.c ****     if(callbackFunc != NULL)
 425:.\Generated_Source\PSoC4/BLE.c ****     {
 426:.\Generated_Source\PSoC4/BLE.c ****     #if(CYBLE_SHARING_MODE_EXPORT)
 427:.\Generated_Source\PSoC4/BLE.c ****         if(cyBle_stackMemoryRam == NULL)
 428:.\Generated_Source\PSoC4/BLE.c ****         {
 429:.\Generated_Source\PSoC4/BLE.c ****             cyBle_stackMemoryRam = (uint8 *)malloc(CYBLE_STACK_RAM_SIZE);
 430:.\Generated_Source\PSoC4/BLE.c ****             if(cyBle_stackMemoryRam == NULL)
 431:.\Generated_Source\PSoC4/BLE.c ****             {
 432:.\Generated_Source\PSoC4/BLE.c ****                 apiResult = CYBLE_ERROR_MEMORY_ALLOCATION_FAILED;
ARM GAS  C:\Users\Helon\AppData\Local\Temp\ccEruqe3.s 			page 9


 433:.\Generated_Source\PSoC4/BLE.c ****             } 
 434:.\Generated_Source\PSoC4/BLE.c ****         }
 435:.\Generated_Source\PSoC4/BLE.c ****     #endif /* CYBLE_SHARING_MODE_EXPORT */
 436:.\Generated_Source\PSoC4/BLE.c ****         if(apiResult == CYBLE_ERROR_OK)
 437:.\Generated_Source\PSoC4/BLE.c ****         {
 438:.\Generated_Source\PSoC4/BLE.c ****             CyBle_ApplCallback = callbackFunc;
 439:.\Generated_Source\PSoC4/BLE.c ****             
 440:.\Generated_Source\PSoC4/BLE.c ****         #if(CYBLE_MODE_PROFILE)
 441:.\Generated_Source\PSoC4/BLE.c ****             apiResult = CyBle_StackInit(&CyBle_EventHandler, cyBle_stackMemoryRam, CYBLE_STACK_RAM_
 442:.\Generated_Source\PSoC4/BLE.c ****                 cyBle_stackDataBuff, CYBLE_STACK_BUF_COUNT, cyBle_flashStorage.stackFlashptr, CYBLE
 443:.\Generated_Source\PSoC4/BLE.c ****         #else
 444:.\Generated_Source\PSoC4/BLE.c ****             apiResult = CyBle_StackInit(&CyBle_EventHandler, cyBle_stackMemoryRam, CYBLE_STACK_RAM_
 445:.\Generated_Source\PSoC4/BLE.c ****                 NULL, 0u, NULL, 0u);
 446:.\Generated_Source\PSoC4/BLE.c ****         #endif /* CYBLE_MODE_PROFILE */
 447:.\Generated_Source\PSoC4/BLE.c **** 
 448:.\Generated_Source\PSoC4/BLE.c ****             if(apiResult == CYBLE_ERROR_OK)
 449:.\Generated_Source\PSoC4/BLE.c ****             {
 450:.\Generated_Source\PSoC4/BLE.c ****                 CyBle_SetState(CYBLE_STATE_INITIALIZING);
 451:.\Generated_Source\PSoC4/BLE.c ****                 
 452:.\Generated_Source\PSoC4/BLE.c ****             #if (CYBLE_GATT_ROLE_CLIENT)
 453:.\Generated_Source\PSoC4/BLE.c ****                 CyBle_SetClientState(CYBLE_CLIENT_STATE_DISCONNECTED);
 454:.\Generated_Source\PSoC4/BLE.c ****             #endif /* CYBLE_GATT_ROLE_CLIENT */
 455:.\Generated_Source\PSoC4/BLE.c ****                 
 456:.\Generated_Source\PSoC4/BLE.c ****             #if(CYBLE_GATT_ROLE_SERVER)
 457:.\Generated_Source\PSoC4/BLE.c ****                 apiResult = CyBle_GattsDbRegister(cyBle_gattDB, CYBLE_GATT_DB_INDEX_COUNT, CYBLE_GA
 458:.\Generated_Source\PSoC4/BLE.c ****             #endif /* CYBLE_GATT_ROLE_SERVER */
 459:.\Generated_Source\PSoC4/BLE.c ****             }
 460:.\Generated_Source\PSoC4/BLE.c ****         }
 461:.\Generated_Source\PSoC4/BLE.c ****     }
 462:.\Generated_Source\PSoC4/BLE.c ****     else
 463:.\Generated_Source\PSoC4/BLE.c ****     {
 464:.\Generated_Source\PSoC4/BLE.c ****         apiResult = CYBLE_ERROR_INVALID_PARAMETER;
 465:.\Generated_Source\PSoC4/BLE.c ****     }
 466:.\Generated_Source\PSoC4/BLE.c **** 
 467:.\Generated_Source\PSoC4/BLE.c ****     return (apiResult);
 468:.\Generated_Source\PSoC4/BLE.c **** }
 469:.\Generated_Source\PSoC4/BLE.c **** 
 470:.\Generated_Source\PSoC4/BLE.c **** 
 471:.\Generated_Source\PSoC4/BLE.c **** /******************************************************************************
 472:.\Generated_Source\PSoC4/BLE.c **** * Function Name: CyBle_Stop
 473:.\Generated_Source\PSoC4/BLE.c **** ***************************************************************************//**
 474:.\Generated_Source\PSoC4/BLE.c **** * 
 475:.\Generated_Source\PSoC4/BLE.c **** *  This function stops any ongoing operation in the BLE Stack and forces the 
 476:.\Generated_Source\PSoC4/BLE.c **** *  BLE Stack to shut down. The only function that can be called after calling
 477:.\Generated_Source\PSoC4/BLE.c **** *  this function is CyBle_Start(). 
 478:.\Generated_Source\PSoC4/BLE.c **** * 
 479:.\Generated_Source\PSoC4/BLE.c **** * \return
 480:.\Generated_Source\PSoC4/BLE.c **** *  None
 481:.\Generated_Source\PSoC4/BLE.c **** * 
 482:.\Generated_Source\PSoC4/BLE.c **** ******************************************************************************/
 483:.\Generated_Source\PSoC4/BLE.c **** void CyBle_Stop(void)
 484:.\Generated_Source\PSoC4/BLE.c **** {
 485:.\Generated_Source\PSoC4/BLE.c ****     CyBle_Shutdown();                         /* Stop all ongoing activities */
 486:.\Generated_Source\PSoC4/BLE.c ****     CyBle_SetState(CYBLE_STATE_STOPPED);
 487:.\Generated_Source\PSoC4/BLE.c ****     #if(CYBLE_SHARING_MODE_EXPORT)
 488:.\Generated_Source\PSoC4/BLE.c ****         if(cyBle_stackMemoryRam != NULL)
 489:.\Generated_Source\PSoC4/BLE.c ****         {
ARM GAS  C:\Users\Helon\AppData\Local\Temp\ccEruqe3.s 			page 10


 490:.\Generated_Source\PSoC4/BLE.c ****             free(cyBle_stackMemoryRam);
 491:.\Generated_Source\PSoC4/BLE.c ****         }
 492:.\Generated_Source\PSoC4/BLE.c ****     #endif /* CYBLE_SHARING_MODE_EXPORT */
 493:.\Generated_Source\PSoC4/BLE.c **** }
 494:.\Generated_Source\PSoC4/BLE.c **** 
 495:.\Generated_Source\PSoC4/BLE.c **** 
 496:.\Generated_Source\PSoC4/BLE.c **** #if((CYBLE_GAP_ROLE_PERIPHERAL || CYBLE_GAP_ROLE_CENTRAL) && (CYBLE_BONDING_REQUIREMENT == CYBLE_BO
 497:.\Generated_Source\PSoC4/BLE.c **** 
 498:.\Generated_Source\PSoC4/BLE.c ****     
 499:.\Generated_Source\PSoC4/BLE.c **** /******************************************************************************
 500:.\Generated_Source\PSoC4/BLE.c **** * Function Name: CyBle_StoreBondingData
 501:.\Generated_Source\PSoC4/BLE.c **** ***************************************************************************//**
 502:.\Generated_Source\PSoC4/BLE.c **** * 
 503:.\Generated_Source\PSoC4/BLE.c **** *  This function writes the new bonding data from RAM to the dedicated Flash 
 504:.\Generated_Source\PSoC4/BLE.c **** *  location as defined by the component. It performs data comparing between RAM
 505:.\Generated_Source\PSoC4/BLE.c **** *  and Flash before writing to Flash. If there is no change between RAM and Flash
 506:.\Generated_Source\PSoC4/BLE.c **** *  data, then no write is performed. It writes only one flash row in one call.
 507:.\Generated_Source\PSoC4/BLE.c **** *  Application should keep calling this function till API return CYBLE_ERROR_OK. 
 508:.\Generated_Source\PSoC4/BLE.c **** *  This function is available only when Bonding requirement is selected in
 509:.\Generated_Source\PSoC4/BLE.c **** *  Security settings.    
 510:.\Generated_Source\PSoC4/BLE.c **** * 
 511:.\Generated_Source\PSoC4/BLE.c **** *  \param isForceWrite:  If value is set to 0, then stack will check if flash write 
 512:.\Generated_Source\PSoC4/BLE.c **** *                 is permissible. 
 513:.\Generated_Source\PSoC4/BLE.c **** *  
 514:.\Generated_Source\PSoC4/BLE.c **** * \return
 515:.\Generated_Source\PSoC4/BLE.c **** *  Return value is of type CYBLE_API_RESULT_T.
 516:.\Generated_Source\PSoC4/BLE.c **** *
 517:.\Generated_Source\PSoC4/BLE.c **** *   Errors codes                         | Description
 518:.\Generated_Source\PSoC4/BLE.c **** *   ----------------------------------   | ------------------------------------
 519:.\Generated_Source\PSoC4/BLE.c **** *   CYBLE_ERROR_OK                       | On successful operation
 520:.\Generated_Source\PSoC4/BLE.c **** *   CYBLE_ERROR_FLASH_WRITE_NOT_PERMITED | Flash Write is not complete
 521:.\Generated_Source\PSoC4/BLE.c **** *    
 522:.\Generated_Source\PSoC4/BLE.c **** *  \sideeffect
 523:.\Generated_Source\PSoC4/BLE.c **** *   For BLE devices with 128K of Flash memory this API will automatically 
 524:.\Generated_Source\PSoC4/BLE.c **** *   modify the clock settings for the device.
 525:.\Generated_Source\PSoC4/BLE.c **** *   Writing to flash requires changes to be done to the IMO (set to 48 MHz)
 526:.\Generated_Source\PSoC4/BLE.c **** *   and HFCLK (source set to IMO) settings. The configuration is restored before
 527:.\Generated_Source\PSoC4/BLE.c **** *   returning. This will impact the operation of most of the hardware in the
 528:.\Generated_Source\PSoC4/BLE.c **** *   device.
 529:.\Generated_Source\PSoC4/BLE.c **** * 
 530:.\Generated_Source\PSoC4/BLE.c **** *  \globalvars
 531:.\Generated_Source\PSoC4/BLE.c **** *   The BLE_pendingFlashWrite variable is used to detect status
 532:.\Generated_Source\PSoC4/BLE.c **** *   of pending write to flash operation for stack data and CCCD.
 533:.\Generated_Source\PSoC4/BLE.c **** *   This API automatically clears pending bits after write operation complete.
 534:.\Generated_Source\PSoC4/BLE.c **** *     
 535:.\Generated_Source\PSoC4/BLE.c **** ******************************************************************************/
 536:.\Generated_Source\PSoC4/BLE.c **** CYBLE_API_RESULT_T CyBle_StoreBondingData(uint8 isForceWrite)
 537:.\Generated_Source\PSoC4/BLE.c **** {
 538:.\Generated_Source\PSoC4/BLE.c ****     CYBLE_API_RESULT_T apiResult = CYBLE_ERROR_OK;
 539:.\Generated_Source\PSoC4/BLE.c ****     
 540:.\Generated_Source\PSoC4/BLE.c ****     /* Store Stack data */
 541:.\Generated_Source\PSoC4/BLE.c ****     if((cyBle_pendingFlashWrite & CYBLE_PENDING_STACK_FLASH_WRITE_BIT) != 0u)
 542:.\Generated_Source\PSoC4/BLE.c ****     {
 543:.\Generated_Source\PSoC4/BLE.c ****         apiResult = CyBle_StoreStackData(isForceWrite);
 544:.\Generated_Source\PSoC4/BLE.c ****         if(apiResult == CYBLE_ERROR_OK)
 545:.\Generated_Source\PSoC4/BLE.c ****         {
 546:.\Generated_Source\PSoC4/BLE.c ****             cyBle_pendingFlashWrite &= (uint8)~CYBLE_PENDING_STACK_FLASH_WRITE_BIT;
ARM GAS  C:\Users\Helon\AppData\Local\Temp\ccEruqe3.s 			page 11


 547:.\Generated_Source\PSoC4/BLE.c ****             /* Change apiResult if there are more pending data to store */
 548:.\Generated_Source\PSoC4/BLE.c ****             if((cyBle_pendingFlashWrite & CYBLE_PENDING_CCCD_FLASH_WRITE_BIT) != 0u)
 549:.\Generated_Source\PSoC4/BLE.c ****             {
 550:.\Generated_Source\PSoC4/BLE.c ****                 apiResult = CYBLE_ERROR_FLASH_WRITE_NOT_PERMITED;
 551:.\Generated_Source\PSoC4/BLE.c ****             }
 552:.\Generated_Source\PSoC4/BLE.c ****         }
 553:.\Generated_Source\PSoC4/BLE.c ****     }
 554:.\Generated_Source\PSoC4/BLE.c **** #if(CYBLE_GATT_DB_CCCD_COUNT != 0u)
 555:.\Generated_Source\PSoC4/BLE.c ****     /* Store CCCD values */
 556:.\Generated_Source\PSoC4/BLE.c ****     if( ((apiResult == CYBLE_ERROR_OK) || (isForceWrite != 0u)) && 
 557:.\Generated_Source\PSoC4/BLE.c ****         ((cyBle_pendingFlashWrite & CYBLE_PENDING_CCCD_FLASH_WRITE_BIT) != 0u) &&
 558:.\Generated_Source\PSoC4/BLE.c ****         (cyBle_connHandle.bdHandle <= CYBLE_GAP_MAX_BONDED_DEVICE))
 559:.\Generated_Source\PSoC4/BLE.c ****     {
 560:.\Generated_Source\PSoC4/BLE.c ****         apiResult = CyBle_StoreAppData(cyBle_attValuesCCCD, cyBle_flashStorage.attValuesCCCDFlashMe
 561:.\Generated_Source\PSoC4/BLE.c ****                                        CYBLE_GATT_DB_CCCD_COUNT, isForceWrite);
 562:.\Generated_Source\PSoC4/BLE.c ****         if(apiResult == CYBLE_ERROR_OK)
 563:.\Generated_Source\PSoC4/BLE.c ****         {
 564:.\Generated_Source\PSoC4/BLE.c ****             cyBle_pendingFlashWrite &= (uint8)~CYBLE_PENDING_CCCD_FLASH_WRITE_BIT;
 565:.\Generated_Source\PSoC4/BLE.c ****         }
 566:.\Generated_Source\PSoC4/BLE.c ****     }
 567:.\Generated_Source\PSoC4/BLE.c **** #endif /* CYBLE_GATT_DB_CCCD_COUNT != 0u */
 568:.\Generated_Source\PSoC4/BLE.c ****     return(apiResult);
 569:.\Generated_Source\PSoC4/BLE.c **** }
 570:.\Generated_Source\PSoC4/BLE.c **** 
 571:.\Generated_Source\PSoC4/BLE.c **** 
 572:.\Generated_Source\PSoC4/BLE.c **** #endif /* (CYBLE_GAP_ROLE_PERIPHERAL || CYBLE_GAP_ROLE_CENTRAL) && (CYBLE_BONDING_REQUIREMENT == CY
 573:.\Generated_Source\PSoC4/BLE.c **** 
 574:.\Generated_Source\PSoC4/BLE.c **** 
 575:.\Generated_Source\PSoC4/BLE.c **** #if(CYBLE_GAP_ROLE_PERIPHERAL || CYBLE_GAP_ROLE_BROADCASTER)
 576:.\Generated_Source\PSoC4/BLE.c **** 
 577:.\Generated_Source\PSoC4/BLE.c ****     /******************************************************************************
 578:.\Generated_Source\PSoC4/BLE.c ****     *  Function Name: CyBle_GappStartAdvertisement
 579:.\Generated_Source\PSoC4/BLE.c ****     ***************************************************************************//**
 580:.\Generated_Source\PSoC4/BLE.c ****     *     
 581:.\Generated_Source\PSoC4/BLE.c ****     *  This function is used to start the advertisement using the advertisement data 
 582:.\Generated_Source\PSoC4/BLE.c ****     *  set in the component customizer's GUI. After invoking this API, the device 
 583:.\Generated_Source\PSoC4/BLE.c ****     *  will be available for connection by the devices configured for GAP central 
 584:.\Generated_Source\PSoC4/BLE.c ****     *  role. It is only included if the device is configured for GAP Peripheral or 
 585:.\Generated_Source\PSoC4/BLE.c ****     *  GAP Peripheral + Central role.
 586:.\Generated_Source\PSoC4/BLE.c ****     *  
 587:.\Generated_Source\PSoC4/BLE.c ****     *  On start of advertisement, GAP Peripheral receives the
 588:.\Generated_Source\PSoC4/BLE.c ****     *  CYBLE_EVT_GAPP_ADVERTISEMENT_START_STOP event. The following events are 
 589:.\Generated_Source\PSoC4/BLE.c ****     *  possible on invoking this function:
 590:.\Generated_Source\PSoC4/BLE.c ****     *  
 591:.\Generated_Source\PSoC4/BLE.c ****     *  * CYBLE_EVT_GAP_DEVICE_CONNECTED: If the device connects to remote GAP 
 592:.\Generated_Source\PSoC4/BLE.c ****     *                                      Central device
 593:.\Generated_Source\PSoC4/BLE.c ****     *  * CYBLE_EVT_TIMEOUT: If no device in GAP Central mode connects to this 
 594:.\Generated_Source\PSoC4/BLE.c ****     *                       device within the specified timeout limit. Stack 
 595:.\Generated_Source\PSoC4/BLE.c ****     *                       automatically initiate stop advertising when Slow 
 596:.\Generated_Source\PSoC4/BLE.c ****     *                       advertising was initiated, or starts Slow advertising
 597:.\Generated_Source\PSoC4/BLE.c ****     *                       after Fast advertising timeout occur.
 598:.\Generated_Source\PSoC4/BLE.c ****     *  * CYBLE_EVT_GAPP_ADVERTISEMENT_START_STOP: If device started or stopped
 599:.\Generated_Source\PSoC4/BLE.c ****     *                                               advertising. Use CyBle_GetState()
 600:.\Generated_Source\PSoC4/BLE.c ****     *                                               to determine the state. Sequential 
 601:.\Generated_Source\PSoC4/BLE.c ****     *                                               advertising could be started when
 602:.\Generated_Source\PSoC4/BLE.c ****     *                                               CYBLE_STATE_DISCONNECTED state is
 603:.\Generated_Source\PSoC4/BLE.c ****     *                                               returned.
ARM GAS  C:\Users\Helon\AppData\Local\Temp\ccEruqe3.s 			page 12


 604:.\Generated_Source\PSoC4/BLE.c ****     * 
 605:.\Generated_Source\PSoC4/BLE.c ****     *  \param advertisingIntervalType: Fast or slow advertising interval with timings
 606:.\Generated_Source\PSoC4/BLE.c ****     *                                 entered in Advertising settings section of the
 607:.\Generated_Source\PSoC4/BLE.c ****     *                                 customizer.
 608:.\Generated_Source\PSoC4/BLE.c ****     *  * CYBLE_ADVERTISING_FAST   0x00u
 609:.\Generated_Source\PSoC4/BLE.c ****     *  * CYBLE_ADVERTISING_SLOW   0x01u
 610:.\Generated_Source\PSoC4/BLE.c ****     *  * CYBLE_ADVERTISING_CUSTOM 0x02u
 611:.\Generated_Source\PSoC4/BLE.c ****     * 
 612:.\Generated_Source\PSoC4/BLE.c ****     * \return
 613:.\Generated_Source\PSoC4/BLE.c ****     *  CYBLE_API_RESULT_T : Return value indicates if the function succeeded or
 614:.\Generated_Source\PSoC4/BLE.c ****     *  failed. Following are the possible error codes.
 615:.\Generated_Source\PSoC4/BLE.c ****     * 
 616:.\Generated_Source\PSoC4/BLE.c ****     *   Errors codes                      |  Description
 617:.\Generated_Source\PSoC4/BLE.c ****     *   --------------------------------- |  --------------------------------
 618:.\Generated_Source\PSoC4/BLE.c ****     *   CYBLE_ERROR_OK                    |  On successful operation.
 619:.\Generated_Source\PSoC4/BLE.c ****     *   CYBLE_ERROR_INVALID_PARAMETER     |  On passing an invalid parameter.
 620:.\Generated_Source\PSoC4/BLE.c ****     *   CYBLE_ERROR_INVALID_STATE         |  On calling this API not in Disconnected state.
 621:.\Generated_Source\PSoC4/BLE.c ****     *
 622:.\Generated_Source\PSoC4/BLE.c ****     * 
 623:.\Generated_Source\PSoC4/BLE.c ****     *******************************************************************************/
 624:.\Generated_Source\PSoC4/BLE.c ****     CYBLE_API_RESULT_T CyBle_GappStartAdvertisement(uint8 advertisingIntervalType)
 625:.\Generated_Source\PSoC4/BLE.c ****     {
 626:.\Generated_Source\PSoC4/BLE.c ****         CYBLE_API_RESULT_T apiResult;
 627:.\Generated_Source\PSoC4/BLE.c ****         
 628:.\Generated_Source\PSoC4/BLE.c ****         if(advertisingIntervalType > CYBLE_ADVERTISING_CUSTOM)
 629:.\Generated_Source\PSoC4/BLE.c ****         {
 630:.\Generated_Source\PSoC4/BLE.c ****             apiResult = CYBLE_ERROR_INVALID_PARAMETER;
 631:.\Generated_Source\PSoC4/BLE.c ****         }
 632:.\Generated_Source\PSoC4/BLE.c ****         else if((CYBLE_STATE_DISCONNECTED == CyBle_GetState()) && ((cyBle_eventHandlerFlag & CYBLE_
 633:.\Generated_Source\PSoC4/BLE.c ****         {   
 634:.\Generated_Source\PSoC4/BLE.c ****             if(advertisingIntervalType == CYBLE_ADVERTISING_FAST)
 635:.\Generated_Source\PSoC4/BLE.c ****             {
 636:.\Generated_Source\PSoC4/BLE.c ****                 cyBle_discoveryModeInfo.advTo = CYBLE_FAST_ADV_TIMEOUT;
 637:.\Generated_Source\PSoC4/BLE.c ****                 cyBle_discoveryModeInfo.advParam->advIntvMin = CYBLE_FAST_ADV_INT_MIN;
 638:.\Generated_Source\PSoC4/BLE.c ****                 cyBle_discoveryModeInfo.advParam->advIntvMax = CYBLE_FAST_ADV_INT_MAX;
 639:.\Generated_Source\PSoC4/BLE.c ****             }
 640:.\Generated_Source\PSoC4/BLE.c ****             else if(advertisingIntervalType == CYBLE_ADVERTISING_SLOW)
 641:.\Generated_Source\PSoC4/BLE.c ****             {
 642:.\Generated_Source\PSoC4/BLE.c ****                 cyBle_discoveryModeInfo.advTo = CYBLE_SLOW_ADV_TIMEOUT;
 643:.\Generated_Source\PSoC4/BLE.c ****                 cyBle_discoveryModeInfo.advParam->advIntvMin = CYBLE_SLOW_ADV_INT_MIN;
 644:.\Generated_Source\PSoC4/BLE.c ****                 cyBle_discoveryModeInfo.advParam->advIntvMax = CYBLE_SLOW_ADV_INT_MAX;
 645:.\Generated_Source\PSoC4/BLE.c ****             }       
 646:.\Generated_Source\PSoC4/BLE.c ****             else /* Do not update advertising intervals */
 647:.\Generated_Source\PSoC4/BLE.c ****             {
 648:.\Generated_Source\PSoC4/BLE.c ****             }
 649:.\Generated_Source\PSoC4/BLE.c ****             cyBle_advertisingIntervalType = advertisingIntervalType;
 650:.\Generated_Source\PSoC4/BLE.c ****             apiResult = CyBle_GappEnterDiscoveryMode(&cyBle_discoveryModeInfo);
 651:.\Generated_Source\PSoC4/BLE.c ****         
 652:.\Generated_Source\PSoC4/BLE.c ****             if(CYBLE_ERROR_OK == apiResult)
 653:.\Generated_Source\PSoC4/BLE.c ****             {
 654:.\Generated_Source\PSoC4/BLE.c ****                 cyBle_eventHandlerFlag |= CYBLE_START_FLAG;
 655:.\Generated_Source\PSoC4/BLE.c ****             }
 656:.\Generated_Source\PSoC4/BLE.c ****         }
 657:.\Generated_Source\PSoC4/BLE.c ****         else
 658:.\Generated_Source\PSoC4/BLE.c ****         {
 659:.\Generated_Source\PSoC4/BLE.c ****             apiResult = CYBLE_ERROR_INVALID_STATE;
 660:.\Generated_Source\PSoC4/BLE.c ****         }
ARM GAS  C:\Users\Helon\AppData\Local\Temp\ccEruqe3.s 			page 13


 661:.\Generated_Source\PSoC4/BLE.c **** 
 662:.\Generated_Source\PSoC4/BLE.c ****         return (apiResult);
 663:.\Generated_Source\PSoC4/BLE.c ****     }
 664:.\Generated_Source\PSoC4/BLE.c **** 
 665:.\Generated_Source\PSoC4/BLE.c ****     
 666:.\Generated_Source\PSoC4/BLE.c ****     /******************************************************************************
 667:.\Generated_Source\PSoC4/BLE.c ****     * Function Name: CyBle_GappStopAdvertisement
 668:.\Generated_Source\PSoC4/BLE.c ****     ***************************************************************************//**
 669:.\Generated_Source\PSoC4/BLE.c ****     * 
 670:.\Generated_Source\PSoC4/BLE.c ****     *   This function can be used to exit from discovery mode. After the execution 
 671:.\Generated_Source\PSoC4/BLE.c ****     *   of this function, there will no longer be any advertisements. On stopping 
 672:.\Generated_Source\PSoC4/BLE.c ****     *   advertising, GAP Peripheral receives CYBLE_EVT_GAPP_ADVERTISEMENT_START_STOP
 673:.\Generated_Source\PSoC4/BLE.c ****     *   event. It is expected that the application layer tracks the function call 
 674:.\Generated_Source\PSoC4/BLE.c ****     *   performed before occurrence of this event as this event can occur on making 
 675:.\Generated_Source\PSoC4/BLE.c ****     *   a call to Cy_BleGappStartAdvertisement(), CyBle_GappEnterDiscoveryMode(), 
 676:.\Generated_Source\PSoC4/BLE.c ****     *   or CyBle_GappStartAdvertisement() functions as well.
 677:.\Generated_Source\PSoC4/BLE.c ****     *   
 678:.\Generated_Source\PSoC4/BLE.c ****     *   The following event occurs on invoking this function:
 679:.\Generated_Source\PSoC4/BLE.c ****     *   * CYBLE_EVT_GAPP_ADVERTISEMENT_START_STOP
 680:.\Generated_Source\PSoC4/BLE.c ****     * 
 681:.\Generated_Source\PSoC4/BLE.c ****     *  \return
 682:.\Generated_Source\PSoC4/BLE.c ****     *   None
 683:.\Generated_Source\PSoC4/BLE.c ****     * 
 684:.\Generated_Source\PSoC4/BLE.c ****     *******************************************************************************/
 685:.\Generated_Source\PSoC4/BLE.c ****     void CyBle_GappStopAdvertisement(void)
 686:.\Generated_Source\PSoC4/BLE.c ****     {
 687:.\Generated_Source\PSoC4/BLE.c ****         CyBle_GappExitDiscoveryMode();
 688:.\Generated_Source\PSoC4/BLE.c ****         cyBle_eventHandlerFlag |= CYBLE_STOP_FLAG;
 689:.\Generated_Source\PSoC4/BLE.c ****     }
 690:.\Generated_Source\PSoC4/BLE.c ****     
 691:.\Generated_Source\PSoC4/BLE.c ****     
 692:.\Generated_Source\PSoC4/BLE.c ****     /******************************************************************************
 693:.\Generated_Source\PSoC4/BLE.c ****     * Function Name: CyBle_ChangeAdDeviceAddress
 694:.\Generated_Source\PSoC4/BLE.c ****     ***************************************************************************//**
 695:.\Generated_Source\PSoC4/BLE.c ****     * 
 696:.\Generated_Source\PSoC4/BLE.c ****     *  This API is used to set the Bluetooth device address into the advertisement 
 697:.\Generated_Source\PSoC4/BLE.c ****     *  or scan response data structure.
 698:.\Generated_Source\PSoC4/BLE.c ****     * 
 699:.\Generated_Source\PSoC4/BLE.c ****     *  \param bdAddr: Bluetooth Device address. The variable is of type CYBLE_GAP_BD_ADDR_T
 700:.\Generated_Source\PSoC4/BLE.c ****     *  \param dest: 0 - selects advertisement structure, not zero value selects scan 
 701:.\Generated_Source\PSoC4/BLE.c ****     *               response structure.
 702:.\Generated_Source\PSoC4/BLE.c ****     * 
 703:.\Generated_Source\PSoC4/BLE.c ****     * \return
 704:.\Generated_Source\PSoC4/BLE.c ****     *  None
 705:.\Generated_Source\PSoC4/BLE.c ****     *  
 706:.\Generated_Source\PSoC4/BLE.c ****     *******************************************************************************/
 707:.\Generated_Source\PSoC4/BLE.c ****     void CyBle_ChangeAdDeviceAddress(const CYBLE_GAP_BD_ADDR_T* bdAddr, uint8 dest)
 708:.\Generated_Source\PSoC4/BLE.c ****     {
 709:.\Generated_Source\PSoC4/BLE.c ****         uint8 i;
 710:.\Generated_Source\PSoC4/BLE.c ****         uint8 *destBuffer = NULL;
 711:.\Generated_Source\PSoC4/BLE.c ****         
 712:.\Generated_Source\PSoC4/BLE.c ****         if(dest == 0u)      /* Destination - advertising structure */
 713:.\Generated_Source\PSoC4/BLE.c ****         {
 714:.\Generated_Source\PSoC4/BLE.c ****             #ifdef CYBLE_ADV_PKT_INDEX_BLUETOOTH_DEVICE_ADDRESS
 715:.\Generated_Source\PSoC4/BLE.c ****                 destBuffer = &cyBle_discoveryData.advData[CYBLE_ADV_PKT_INDEX_BLUETOOTH_DEVICE_ADDR
 716:.\Generated_Source\PSoC4/BLE.c ****             #endif /* CYBLE_ADV_PKT_INDEX_BLUETOOTH_DEVICE_ADDRESS */
 717:.\Generated_Source\PSoC4/BLE.c ****         }
ARM GAS  C:\Users\Helon\AppData\Local\Temp\ccEruqe3.s 			page 14


 718:.\Generated_Source\PSoC4/BLE.c ****         else                /* Destination - scan response structure */
 719:.\Generated_Source\PSoC4/BLE.c ****         {
 720:.\Generated_Source\PSoC4/BLE.c ****             #ifdef CYBLE_SCN_PKT_INDEX_BLUETOOTH_DEVICE_ADDRESS
 721:.\Generated_Source\PSoC4/BLE.c ****                 destBuffer = &cyBle_scanRspData.scanRspData[CYBLE_SCN_PKT_INDEX_BLUETOOTH_DEVICE_AD
 722:.\Generated_Source\PSoC4/BLE.c ****             #endif /* CYBLE_SCN_PKT_INDEX_BLUETOOTH_DEVICE_ADDRESS */    
 723:.\Generated_Source\PSoC4/BLE.c ****         }
 724:.\Generated_Source\PSoC4/BLE.c ****         
 725:.\Generated_Source\PSoC4/BLE.c ****         if(destBuffer != NULL)
 726:.\Generated_Source\PSoC4/BLE.c ****         {
 727:.\Generated_Source\PSoC4/BLE.c ****             /* Update Device Address type */
 728:.\Generated_Source\PSoC4/BLE.c ****             destBuffer[0u] = bdAddr->type;
 729:.\Generated_Source\PSoC4/BLE.c ****             
 730:.\Generated_Source\PSoC4/BLE.c ****             for(i = 0u; i < CYBLE_GAP_BD_ADDR_SIZE; i++)
 731:.\Generated_Source\PSoC4/BLE.c ****             {
 732:.\Generated_Source\PSoC4/BLE.c ****                 destBuffer[i + 1u] = bdAddr->bdAddr[i];
 733:.\Generated_Source\PSoC4/BLE.c ****             }
 734:.\Generated_Source\PSoC4/BLE.c ****         }
 735:.\Generated_Source\PSoC4/BLE.c ****     }
 736:.\Generated_Source\PSoC4/BLE.c ****   
 737:.\Generated_Source\PSoC4/BLE.c **** #endif /* CYBLE_GAP_ROLE_PERIPHERAL || CYBLE_GAP_ROLE_BROADCASTER */
 738:.\Generated_Source\PSoC4/BLE.c **** 
 739:.\Generated_Source\PSoC4/BLE.c **** 
 740:.\Generated_Source\PSoC4/BLE.c **** #if(CYBLE_GAP_ROLE_CENTRAL || CYBLE_GAP_ROLE_OBSERVER)
 741:.\Generated_Source\PSoC4/BLE.c **** 
 742:.\Generated_Source\PSoC4/BLE.c ****     /******************************************************************************
 743:.\Generated_Source\PSoC4/BLE.c ****     * Function Name: CyBle_GapcStartScan
 744:.\Generated_Source\PSoC4/BLE.c ****     ***************************************************************************//**
 745:.\Generated_Source\PSoC4/BLE.c ****     * 
 746:.\Generated_Source\PSoC4/BLE.c ****     *   This function is used for discovering GAP peripheral devices that are 
 747:.\Generated_Source\PSoC4/BLE.c ****     *   available for connection. It performs the scanning routine using the 
 748:.\Generated_Source\PSoC4/BLE.c ****     *   parameters entered in the component's customizer.
 749:.\Generated_Source\PSoC4/BLE.c ****     *   
 750:.\Generated_Source\PSoC4/BLE.c ****     *   As soon as the discovery operation starts, CYBLE_EVT_GAPC_SCAN_START_STOP 
 751:.\Generated_Source\PSoC4/BLE.c ****     *   event is generated. The CYBLE_EVT_GAPC_SCAN_PROGRESS_RESULT event is 
 752:.\Generated_Source\PSoC4/BLE.c ****     *   generated when a GAP peripheral device is located. There are three discovery
 753:.\Generated_Source\PSoC4/BLE.c ****     *   procedures can be selected in the customizer's GUI:
 754:.\Generated_Source\PSoC4/BLE.c ****     *   
 755:.\Generated_Source\PSoC4/BLE.c ****     *   * Observation procedure: A device performing the observer role receives only
 756:.\Generated_Source\PSoC4/BLE.c ****     *                            advertisement data from devices irrespective of 
 757:.\Generated_Source\PSoC4/BLE.c ****     *                            their discoverable mode settings. Advertisement 
 758:.\Generated_Source\PSoC4/BLE.c ****     *                            data received is provided by the event,      
 759:.\Generated_Source\PSoC4/BLE.c ****     *                            CYBLE_EVT_GAPC_SCAN_PROGRESS_RESULT. This procedure
 760:.\Generated_Source\PSoC4/BLE.c ****     *                            requires the scanType sub parameter to be passive
 761:.\Generated_Source\PSoC4/BLE.c ****     *                            scanning. 
 762:.\Generated_Source\PSoC4/BLE.c ****     *   
 763:.\Generated_Source\PSoC4/BLE.c ****     *   * Limited Discovery procedure: A device performing the limited discovery
 764:.\Generated_Source\PSoC4/BLE.c ****     *                                  procedure receives advertisement data and 
 765:.\Generated_Source\PSoC4/BLE.c ****     *                                  scan# response data from devices in the 
 766:.\Generated_Source\PSoC4/BLE.c ****     *                                  limited discoverable mode only. Received data
 767:.\Generated_Source\PSoC4/BLE.c ****     *                                  is provided by the event, 
 768:.\Generated_Source\PSoC4/BLE.c ****     *                                  CYBLE_EVT_GAPC_SCAN_PROGRESS_RESULT. This 
 769:.\Generated_Source\PSoC4/BLE.c ****     *                                  procedure requires the scanType sub-parameter 
 770:.\Generated_Source\PSoC4/BLE.c ****     *                                  to be active scanning.
 771:.\Generated_Source\PSoC4/BLE.c ****     *   
 772:.\Generated_Source\PSoC4/BLE.c ****     *   * General Discovery procedure: A device performing the general discovery 
 773:.\Generated_Source\PSoC4/BLE.c ****     *                                  procedure receives the advertisement data and
 774:.\Generated_Source\PSoC4/BLE.c ****     *                                  scan response data from devices in both 
ARM GAS  C:\Users\Helon\AppData\Local\Temp\ccEruqe3.s 			page 15


 775:.\Generated_Source\PSoC4/BLE.c ****     *                                  limited discoverable mode and the general 
 776:.\Generated_Source\PSoC4/BLE.c ****     *                                  discoverable mode. Received data is provided
 777:.\Generated_Source\PSoC4/BLE.c ****     *                                  by the event,
 778:.\Generated_Source\PSoC4/BLE.c ****     *                                  CYBLE_EVT_GAPC_SCAN_PROGRESS_RESULT. This 
 779:.\Generated_Source\PSoC4/BLE.c ****     *                                  procedure requires the scanType sub-parameter
 780:.\Generated_Source\PSoC4/BLE.c ****     *                                  to be active scanning.
 781:.\Generated_Source\PSoC4/BLE.c ****     *   
 782:.\Generated_Source\PSoC4/BLE.c ****     *   Every Advertisement / Scan response packet received results in a new event, 
 783:.\Generated_Source\PSoC4/BLE.c ****     *   CYBLE_EVT_GAPC_SCAN_PROGRESS_RESULT.
 784:.\Generated_Source\PSoC4/BLE.c ****     *   If 'scanTo' sub-parameter is a non-zero value, then upon commencement of 
 785:.\Generated_Source\PSoC4/BLE.c ****     *   discovery procedure and elapsed time = 'scanTo', CYBLE_EVT_TIMEOUT event
 786:.\Generated_Source\PSoC4/BLE.c ****     *   is generated with the event parameter indicating CYBLE_GAP_SCAN_TO.
 787:.\Generated_Source\PSoC4/BLE.c ****     *   Possible generated events are:
 788:.\Generated_Source\PSoC4/BLE.c ****     *   * CYBLE_EVT_GAPC_SCAN_START_STOP: If a device started or stopped scanning. 
 789:.\Generated_Source\PSoC4/BLE.c ****     *                                     Use CyBle_GetState() to determine the 
 790:.\Generated_Source\PSoC4/BLE.c ****     *                                     state. Sequential scanning could be 
 791:.\Generated_Source\PSoC4/BLE.c ****     *                                     started when CYBLE_STATE_DISCONNECTED 
 792:.\Generated_Source\PSoC4/BLE.c ****     *                                     state is returned. 
 793:.\Generated_Source\PSoC4/BLE.c ****     *   * CYBLE_EVT_GAPC_SCAN_PROGRESS_RESULT 
 794:.\Generated_Source\PSoC4/BLE.c ****     *   * CYBLE_EVT_TIMEOUT (CYBLE_GAP_SCAN_TO)
 795:.\Generated_Source\PSoC4/BLE.c ****     * 
 796:.\Generated_Source\PSoC4/BLE.c ****     *   \param scanningIntervalType:  Fast or slow scanning interval with
 797:.\Generated_Source\PSoC4/BLE.c ****     *       timings entered in Scan settings section of the customizer.
 798:.\Generated_Source\PSoC4/BLE.c ****     * 	  * CYBLE_SCANNING_FAST   0x00u
 799:.\Generated_Source\PSoC4/BLE.c ****     * 	  * CYBLE_SCANNING_SLOW   0x01u
 800:.\Generated_Source\PSoC4/BLE.c ****     * 	  * CYBLE_SCANNING_CUSTOM 0x02u
 801:.\Generated_Source\PSoC4/BLE.c ****     * 
 802:.\Generated_Source\PSoC4/BLE.c ****     * \return
 803:.\Generated_Source\PSoC4/BLE.c ****     *  CYBLE_API_RESULT_T : Return value indicates if the function succeeded or
 804:.\Generated_Source\PSoC4/BLE.c ****     *  failed. Following are the possible error codes.
 805:.\Generated_Source\PSoC4/BLE.c ****     *
 806:.\Generated_Source\PSoC4/BLE.c ****     *   Errors codes                       | Description
 807:.\Generated_Source\PSoC4/BLE.c ****     *   ---------------------------------- | -----------------------------------
 808:.\Generated_Source\PSoC4/BLE.c ****     *   CYBLE_ERROR_OK                     | On successful operation.
 809:.\Generated_Source\PSoC4/BLE.c ****     *   CYBLE_ERROR_STACK_INTERNAL         | An error occurred in the BLE stack.
 810:.\Generated_Source\PSoC4/BLE.c ****     *   CYBLE_ERROR_INVALID_PARAMETER      | On passing an invalid parameter.
 811:.\Generated_Source\PSoC4/BLE.c ****     *  
 812:.\Generated_Source\PSoC4/BLE.c ****     *******************************************************************************/
 813:.\Generated_Source\PSoC4/BLE.c ****     CYBLE_API_RESULT_T CyBle_GapcStartScan(uint8 scanningIntervalType)
 814:.\Generated_Source\PSoC4/BLE.c ****     {
 815:.\Generated_Source\PSoC4/BLE.c ****         CYBLE_API_RESULT_T apiResult;
 816:.\Generated_Source\PSoC4/BLE.c **** 
 817:.\Generated_Source\PSoC4/BLE.c ****         if(scanningIntervalType > CYBLE_SCANNING_CUSTOM)
 818:.\Generated_Source\PSoC4/BLE.c ****         {
 819:.\Generated_Source\PSoC4/BLE.c ****             apiResult = CYBLE_ERROR_INVALID_PARAMETER;
 820:.\Generated_Source\PSoC4/BLE.c ****         }
 821:.\Generated_Source\PSoC4/BLE.c ****         else
 822:.\Generated_Source\PSoC4/BLE.c ****         {
 823:.\Generated_Source\PSoC4/BLE.c ****             if(scanningIntervalType == CYBLE_SCANNING_FAST)
 824:.\Generated_Source\PSoC4/BLE.c ****             {
 825:.\Generated_Source\PSoC4/BLE.c ****                 cyBle_discoveryInfo.scanTo = CYBLE_FAST_SCAN_TIMEOUT;
 826:.\Generated_Source\PSoC4/BLE.c ****                 cyBle_discoveryInfo.scanIntv = CYBLE_FAST_SCAN_INTERVAL;
 827:.\Generated_Source\PSoC4/BLE.c ****                 cyBle_discoveryInfo.scanWindow = CYBLE_FAST_SCAN_WINDOW;
 828:.\Generated_Source\PSoC4/BLE.c ****             }
 829:.\Generated_Source\PSoC4/BLE.c ****             else if(scanningIntervalType == CYBLE_SCANNING_SLOW)
 830:.\Generated_Source\PSoC4/BLE.c ****             {
 831:.\Generated_Source\PSoC4/BLE.c ****                 cyBle_discoveryInfo.scanTo = CYBLE_SLOW_SCAN_TIMEOUT;
ARM GAS  C:\Users\Helon\AppData\Local\Temp\ccEruqe3.s 			page 16


 832:.\Generated_Source\PSoC4/BLE.c ****                 cyBle_discoveryInfo.scanIntv = CYBLE_SLOW_SCAN_INTERVAL;
 833:.\Generated_Source\PSoC4/BLE.c ****                 cyBle_discoveryInfo.scanWindow = CYBLE_SLOW_SCAN_WINDOW;
 834:.\Generated_Source\PSoC4/BLE.c ****             }       
 835:.\Generated_Source\PSoC4/BLE.c ****             else /* Do not update scanning intervals */
 836:.\Generated_Source\PSoC4/BLE.c ****             {
 837:.\Generated_Source\PSoC4/BLE.c ****             }
 838:.\Generated_Source\PSoC4/BLE.c ****             
 839:.\Generated_Source\PSoC4/BLE.c ****             cyBle_scanningIntervalType = scanningIntervalType;
 840:.\Generated_Source\PSoC4/BLE.c ****             apiResult = CyBle_GapcStartDiscovery(&cyBle_discoveryInfo);
 841:.\Generated_Source\PSoC4/BLE.c ****         
 842:.\Generated_Source\PSoC4/BLE.c ****             if(CYBLE_ERROR_OK == apiResult)
 843:.\Generated_Source\PSoC4/BLE.c ****             {
 844:.\Generated_Source\PSoC4/BLE.c ****                 cyBle_eventHandlerFlag |= CYBLE_START_FLAG;
 845:.\Generated_Source\PSoC4/BLE.c ****             }
 846:.\Generated_Source\PSoC4/BLE.c ****         }
 847:.\Generated_Source\PSoC4/BLE.c ****        
 848:.\Generated_Source\PSoC4/BLE.c ****         return (apiResult);
 849:.\Generated_Source\PSoC4/BLE.c ****     }
 850:.\Generated_Source\PSoC4/BLE.c ****     
 851:.\Generated_Source\PSoC4/BLE.c ****     
 852:.\Generated_Source\PSoC4/BLE.c ****     /******************************************************************************
 853:.\Generated_Source\PSoC4/BLE.c ****     * Function Name: CyBle_GapcStopScan
 854:.\Generated_Source\PSoC4/BLE.c ****     ***************************************************************************//**
 855:.\Generated_Source\PSoC4/BLE.c ****     * 
 856:.\Generated_Source\PSoC4/BLE.c ****     *   This function used to stop the discovery of devices. On stopping discovery
 857:.\Generated_Source\PSoC4/BLE.c ****     *   operation, CYBLE_EVT_GAPC_SCAN_START_STOP event is generated. Application
 858:.\Generated_Source\PSoC4/BLE.c ****     *   layer needs to keep track of the function call made before receiving this
 859:.\Generated_Source\PSoC4/BLE.c ****     *   event to associate this event with either the start or stop discovery
 860:.\Generated_Source\PSoC4/BLE.c ****     *   function.
 861:.\Generated_Source\PSoC4/BLE.c ****     * 
 862:.\Generated_Source\PSoC4/BLE.c ****     *   Possible events generated are:
 863:.\Generated_Source\PSoC4/BLE.c ****     *    * CYBLE_EVT_GAPC_SCAN_START_STOP
 864:.\Generated_Source\PSoC4/BLE.c ****     * 
 865:.\Generated_Source\PSoC4/BLE.c ****     *  \return
 866:.\Generated_Source\PSoC4/BLE.c ****     *   None
 867:.\Generated_Source\PSoC4/BLE.c ****     * 
 868:.\Generated_Source\PSoC4/BLE.c ****     *******************************************************************************/
 869:.\Generated_Source\PSoC4/BLE.c ****     void CyBle_GapcStopScan(void)
 870:.\Generated_Source\PSoC4/BLE.c ****     {
 871:.\Generated_Source\PSoC4/BLE.c ****         CyBle_GapcStopDiscovery();
 872:.\Generated_Source\PSoC4/BLE.c ****         
 873:.\Generated_Source\PSoC4/BLE.c ****         cyBle_eventHandlerFlag |= CYBLE_STOP_FLAG;
 874:.\Generated_Source\PSoC4/BLE.c ****     }
 875:.\Generated_Source\PSoC4/BLE.c **** 
 876:.\Generated_Source\PSoC4/BLE.c ****     
 877:.\Generated_Source\PSoC4/BLE.c **** #endif /* CYBLE_GAP_ROLE_CENTRAL || CYBLE_GAP_ROLE_OBSERVER */
 878:.\Generated_Source\PSoC4/BLE.c **** 
 879:.\Generated_Source\PSoC4/BLE.c **** 
 880:.\Generated_Source\PSoC4/BLE.c **** #if(CYBLE_GAP_ROLE_CENTRAL)
 881:.\Generated_Source\PSoC4/BLE.c **** 
 882:.\Generated_Source\PSoC4/BLE.c ****     /******************************************************************************
 883:.\Generated_Source\PSoC4/BLE.c ****     * Function Name: CyBle_GapcConnectDevice
 884:.\Generated_Source\PSoC4/BLE.c ****     ***************************************************************************//**
 885:.\Generated_Source\PSoC4/BLE.c ****     * 
 886:.\Generated_Source\PSoC4/BLE.c ****     *  This function is used to send a connection request to the remote device with
 887:.\Generated_Source\PSoC4/BLE.c ****     *  the connection parameters set in the component customizer. This function needs
 888:.\Generated_Source\PSoC4/BLE.c ****     *  to be called only once after the target device is discovered by 
ARM GAS  C:\Users\Helon\AppData\Local\Temp\ccEruqe3.s 			page 17


 889:.\Generated_Source\PSoC4/BLE.c ****     *  CyBle_GapcStartScan() and further scanning has stopped. Scanning is 
 890:.\Generated_Source\PSoC4/BLE.c ****     *  successfully stopped on invoking CyBle_GapcStopScan() and then receiving the
 891:.\Generated_Source\PSoC4/BLE.c ****     *  event CYBLE_EVT_GAPC_SCAN_START_STOP with sub-parameter 'success' = 0x01u.
 892:.\Generated_Source\PSoC4/BLE.c ****     *  
 893:.\Generated_Source\PSoC4/BLE.c ****     *  On successful connection, the following events are generated at the GAP 
 894:.\Generated_Source\PSoC4/BLE.c ****     *  Central device (as well as the GAP Peripheral device), in the following order.
 895:.\Generated_Source\PSoC4/BLE.c ****     *  * CYBLE_EVT_GATT_CONNECT_IND
 896:.\Generated_Source\PSoC4/BLE.c ****     *  * CYBLE_EVT_GAP_DEVICE_CONNECTED
 897:.\Generated_Source\PSoC4/BLE.c ****     *  
 898:.\Generated_Source\PSoC4/BLE.c ****     *  A procedure is considered to have timed out if a connection response packet is 
 899:.\Generated_Source\PSoC4/BLE.c ****     *  not received within time set by cyBle_connectingTimeout global variable
 900:.\Generated_Source\PSoC4/BLE.c ****     *  (30 seconds by default). CYBLE_EVT_TIMEOUT event with CYBLE_GENERIC_TO parameter
 901:.\Generated_Source\PSoC4/BLE.c ****     *  will indicate about connection procedure timeout. Connection will automatically
 902:.\Generated_Source\PSoC4/BLE.c ****     *  be canceled and state will be changed to CYBLE_STATE_DISCONNECTED.
 903:.\Generated_Source\PSoC4/BLE.c ****     * 
 904:.\Generated_Source\PSoC4/BLE.c ****     *  \param address: The device address of the remote device to connect to. 
 905:.\Generated_Source\PSoC4/BLE.c ****     *  \param timeout: Timeout for which timer to be started in seconds.
 906:.\Generated_Source\PSoC4/BLE.c ****     *  
 907:.\Generated_Source\PSoC4/BLE.c ****     * \return
 908:.\Generated_Source\PSoC4/BLE.c ****     *  CYBLE_API_RESULT_T : Return value indicates if the function succeeded or 
 909:.\Generated_Source\PSoC4/BLE.c ****     *  failed. Following are the possible error codes.
 910:.\Generated_Source\PSoC4/BLE.c ****     *
 911:.\Generated_Source\PSoC4/BLE.c ****     *   Errors codes                       | Description
 912:.\Generated_Source\PSoC4/BLE.c ****     *   ------------                       | -----------
 913:.\Generated_Source\PSoC4/BLE.c ****     *   CYBLE_ERROR_OK                     | On successful operation.
 914:.\Generated_Source\PSoC4/BLE.c ****     *   CYBLE_ERROR_STACK_INTERNAL         | On error occurred in the BLE stack.
 915:.\Generated_Source\PSoC4/BLE.c ****     *   CYBLE_ERROR_INVALID_PARAMETER      | On passing an invalid parameter.
 916:.\Generated_Source\PSoC4/BLE.c ****     *   CYBLE_ERROR_INVALID_STATE          | On calling this API not in Disconnected state.
 917:.\Generated_Source\PSoC4/BLE.c ****     *  
 918:.\Generated_Source\PSoC4/BLE.c ****     ******************************************************************************/
 919:.\Generated_Source\PSoC4/BLE.c ****     CYBLE_API_RESULT_T CyBle_GapcConnectDevice(const CYBLE_GAP_BD_ADDR_T * address)
 920:.\Generated_Source\PSoC4/BLE.c ****     {
 921:.\Generated_Source\PSoC4/BLE.c ****         CYBLE_API_RESULT_T apiResult;
 922:.\Generated_Source\PSoC4/BLE.c ****         uint8 i;
 923:.\Generated_Source\PSoC4/BLE.c **** 
 924:.\Generated_Source\PSoC4/BLE.c ****         if(CYBLE_STATE_DISCONNECTED != CyBle_GetState())
 925:.\Generated_Source\PSoC4/BLE.c ****         {
 926:.\Generated_Source\PSoC4/BLE.c ****             apiResult = CYBLE_ERROR_INVALID_STATE;
 927:.\Generated_Source\PSoC4/BLE.c ****         }
 928:.\Generated_Source\PSoC4/BLE.c ****         else if(address == NULL)
 929:.\Generated_Source\PSoC4/BLE.c ****         {
 930:.\Generated_Source\PSoC4/BLE.c ****             apiResult = CYBLE_ERROR_INVALID_PARAMETER;
 931:.\Generated_Source\PSoC4/BLE.c ****         }
 932:.\Generated_Source\PSoC4/BLE.c ****         else
 933:.\Generated_Source\PSoC4/BLE.c ****         {
 934:.\Generated_Source\PSoC4/BLE.c ****             for(i = 0u; i < CYBLE_GAP_BD_ADDR_SIZE; i++)
 935:.\Generated_Source\PSoC4/BLE.c ****             {
 936:.\Generated_Source\PSoC4/BLE.c ****                 cyBle_connectionParameters.peerBdAddr[i] = address->bdAddr[i];
 937:.\Generated_Source\PSoC4/BLE.c ****             }
 938:.\Generated_Source\PSoC4/BLE.c ****             cyBle_connectionParameters.peerAddrType = address -> type;
 939:.\Generated_Source\PSoC4/BLE.c ****             apiResult = CyBle_GapcInitConnection(&cyBle_connectionParameters);
 940:.\Generated_Source\PSoC4/BLE.c ****             
 941:.\Generated_Source\PSoC4/BLE.c ****             if(CYBLE_ERROR_OK == apiResult)
 942:.\Generated_Source\PSoC4/BLE.c ****             {
 943:.\Generated_Source\PSoC4/BLE.c ****                 CyBle_SetState(CYBLE_STATE_CONNECTING);
 944:.\Generated_Source\PSoC4/BLE.c ****                 if(cyBle_connectingTimeout != 0u)
 945:.\Generated_Source\PSoC4/BLE.c ****                 {
ARM GAS  C:\Users\Helon\AppData\Local\Temp\ccEruqe3.s 			page 18


 946:.\Generated_Source\PSoC4/BLE.c ****                     (void)CyBle_StartTimer(cyBle_connectingTimeout);
 947:.\Generated_Source\PSoC4/BLE.c ****                 }
 948:.\Generated_Source\PSoC4/BLE.c ****             }
 949:.\Generated_Source\PSoC4/BLE.c ****         }
 950:.\Generated_Source\PSoC4/BLE.c ****         return (apiResult);
 951:.\Generated_Source\PSoC4/BLE.c ****     }
 952:.\Generated_Source\PSoC4/BLE.c ****     
 953:.\Generated_Source\PSoC4/BLE.c **** 
 954:.\Generated_Source\PSoC4/BLE.c ****     /******************************************************************************
 955:.\Generated_Source\PSoC4/BLE.c ****     * Function Name: CyBle_GapcCancelDeviceConnection
 956:.\Generated_Source\PSoC4/BLE.c ****     ***************************************************************************//**
 957:.\Generated_Source\PSoC4/BLE.c ****     * 
 958:.\Generated_Source\PSoC4/BLE.c ****     *  This function cancels a previously initiated connection with the remote 
 959:.\Generated_Source\PSoC4/BLE.c ****     *  device. It is a blocking function. No event is generated on calling this 
 960:.\Generated_Source\PSoC4/BLE.c ****     *  function. If the devices are already connected then this function should not
 961:.\Generated_Source\PSoC4/BLE.c ****     *  be used. If you intend to disconnect from an existing connection, the function
 962:.\Generated_Source\PSoC4/BLE.c ****     *  CyBle_GapDisconnect() should be used.
 963:.\Generated_Source\PSoC4/BLE.c ****     * 
 964:.\Generated_Source\PSoC4/BLE.c ****     * \return
 965:.\Generated_Source\PSoC4/BLE.c ****     *  CYBLE_API_RESULT_T : Return value indicates if the function succeeded or 
 966:.\Generated_Source\PSoC4/BLE.c ****     *  failed. Following are the possible error codes.
 967:.\Generated_Source\PSoC4/BLE.c ****     *
 968:.\Generated_Source\PSoC4/BLE.c ****     *   Errors codes                       | Description
 969:.\Generated_Source\PSoC4/BLE.c ****     *   ---------------------------------- | --------------------------------------
 970:.\Generated_Source\PSoC4/BLE.c ****     *   CYBLE_ERROR_OK                     | On successful operation.
 971:.\Generated_Source\PSoC4/BLE.c ****     *   CYBLE_ERROR_STACK_INTERNAL         | An error occurred in the BLE stack.
 972:.\Generated_Source\PSoC4/BLE.c ****     *   CYBLE_ERROR_INVALID_OPERATION      | Device is already connected.
 973:.\Generated_Source\PSoC4/BLE.c ****     *  
 974:.\Generated_Source\PSoC4/BLE.c ****     *******************************************************************************/
 975:.\Generated_Source\PSoC4/BLE.c ****     CYBLE_API_RESULT_T CyBle_GapcCancelDeviceConnection(void)
 976:.\Generated_Source\PSoC4/BLE.c ****     {
 977:.\Generated_Source\PSoC4/BLE.c ****         CYBLE_API_RESULT_T apiResult;
 978:.\Generated_Source\PSoC4/BLE.c ****         
 979:.\Generated_Source\PSoC4/BLE.c ****         apiResult = CyBle_GapcCancelConnection();
 980:.\Generated_Source\PSoC4/BLE.c ****             
 981:.\Generated_Source\PSoC4/BLE.c ****         if(cyBle_connectingTimeout != 0u)
 982:.\Generated_Source\PSoC4/BLE.c ****         {
 983:.\Generated_Source\PSoC4/BLE.c ****             (void)CyBle_StopTimer();
 984:.\Generated_Source\PSoC4/BLE.c ****         }
 985:.\Generated_Source\PSoC4/BLE.c **** 
 986:.\Generated_Source\PSoC4/BLE.c ****         if(CYBLE_ERROR_OK == apiResult)
 987:.\Generated_Source\PSoC4/BLE.c ****         {
 988:.\Generated_Source\PSoC4/BLE.c ****             CyBle_SetState(CYBLE_STATE_DISCONNECTED);
 989:.\Generated_Source\PSoC4/BLE.c ****         }
 990:.\Generated_Source\PSoC4/BLE.c ****         return (apiResult);
 991:.\Generated_Source\PSoC4/BLE.c ****     }    
 992:.\Generated_Source\PSoC4/BLE.c **** 
 993:.\Generated_Source\PSoC4/BLE.c ****     
 994:.\Generated_Source\PSoC4/BLE.c **** #endif /* CYBLE_GAP_ROLE_CENTRAL */
 995:.\Generated_Source\PSoC4/BLE.c **** 
 996:.\Generated_Source\PSoC4/BLE.c **** 
 997:.\Generated_Source\PSoC4/BLE.c **** #if(CYBLE_GATT_ROLE_SERVER)
 998:.\Generated_Source\PSoC4/BLE.c **** 
 999:.\Generated_Source\PSoC4/BLE.c **** #if(CYBLE_GAP_ROLE_PERIPHERAL)
1000:.\Generated_Source\PSoC4/BLE.c **** 
1001:.\Generated_Source\PSoC4/BLE.c ****         /******************************************************************************
1002:.\Generated_Source\PSoC4/BLE.c ****         * Function Name: CyBle_ChangeAdLocalName
ARM GAS  C:\Users\Helon\AppData\Local\Temp\ccEruqe3.s 			page 19


1003:.\Generated_Source\PSoC4/BLE.c ****         ***************************************************************************//**
1004:.\Generated_Source\PSoC4/BLE.c ****         *  This API is used to set the local device name in the advertisement or scan 
1005:.\Generated_Source\PSoC4/BLE.c ****         *  response data structure.
1006:.\Generated_Source\PSoC4/BLE.c ****         * 
1007:.\Generated_Source\PSoC4/BLE.c ****         *  \param name: The local device name string to be set in advertisement data 
1008:.\Generated_Source\PSoC4/BLE.c ****         *            structure.
1009:.\Generated_Source\PSoC4/BLE.c ****         *  \param dest: 0 - advertisement structure, not zero value selects scan response
1010:.\Generated_Source\PSoC4/BLE.c ****         *              structure.
1011:.\Generated_Source\PSoC4/BLE.c ****         * 
1012:.\Generated_Source\PSoC4/BLE.c ****         * \return
1013:.\Generated_Source\PSoC4/BLE.c ****         *  None
1014:.\Generated_Source\PSoC4/BLE.c ****         *  
1015:.\Generated_Source\PSoC4/BLE.c ****         *******************************************************************************/
1016:.\Generated_Source\PSoC4/BLE.c ****         static void CyBle_ChangeAdLocalName(const char8 name[], uint8 dest)
1017:.\Generated_Source\PSoC4/BLE.c ****         {
  25              		.loc 1 1017 0
  26              		.cfi_startproc
  27              	.LVL0:
  28 0000 70B5     		push	{r4, r5, r6, lr}
  29              		.cfi_def_cfa_offset 16
  30              		.cfi_offset 4, -16
  31              		.cfi_offset 5, -12
  32              		.cfi_offset 6, -8
  33              		.cfi_offset 14, -4
1018:.\Generated_Source\PSoC4/BLE.c ****             uint8 i;
1019:.\Generated_Source\PSoC4/BLE.c ****             uint8 flag = 0u;
1020:.\Generated_Source\PSoC4/BLE.c ****             uint8 adLength = 0u;
1021:.\Generated_Source\PSoC4/BLE.c ****             uint8 byteCounter = 0u;
1022:.\Generated_Source\PSoC4/BLE.c ****             uint8 *destBuffer;
1023:.\Generated_Source\PSoC4/BLE.c ****             uint8 maxLength;
1024:.\Generated_Source\PSoC4/BLE.c ****             
1025:.\Generated_Source\PSoC4/BLE.c ****             if(dest == 0u)      /* Destination - advertising structure */
  34              		.loc 1 1025 0
  35 0002 0029     		cmp	r1, #0
  36 0004 05D1     		bne	.L2
  37              	.LVL1:
1026:.\Generated_Source\PSoC4/BLE.c ****             {
1027:.\Generated_Source\PSoC4/BLE.c ****                 destBuffer = cyBle_discoveryData.advData;
1028:.\Generated_Source\PSoC4/BLE.c ****                 maxLength = cyBle_discoveryData.advDataLen;
  38              		.loc 1 1028 0
  39 0006 1949     		ldr	r1, .L21
  40              	.LVL2:
  41              	.L17:
1029:.\Generated_Source\PSoC4/BLE.c ****             }
1030:.\Generated_Source\PSoC4/BLE.c ****             else                /* Destination - scan response structure */
1031:.\Generated_Source\PSoC4/BLE.c ****             {
1032:.\Generated_Source\PSoC4/BLE.c ****                 destBuffer = cyBle_scanRspData.scanRspData;
1033:.\Generated_Source\PSoC4/BLE.c ****                 maxLength = cyBle_scanRspData.scanRspDataLen;
1034:.\Generated_Source\PSoC4/BLE.c ****             }
1035:.\Generated_Source\PSoC4/BLE.c ****             
1036:.\Generated_Source\PSoC4/BLE.c ****             while((byteCounter < maxLength) && (0u == flag))
1037:.\Generated_Source\PSoC4/BLE.c ****             {
1038:.\Generated_Source\PSoC4/BLE.c ****                 adLength = destBuffer[byteCounter];
1039:.\Generated_Source\PSoC4/BLE.c ****                 
1040:.\Generated_Source\PSoC4/BLE.c ****                 if(0u != adLength)
1041:.\Generated_Source\PSoC4/BLE.c ****                 {
1042:.\Generated_Source\PSoC4/BLE.c ****                     /* Increment byte counter so it can point to AD type */
ARM GAS  C:\Users\Helon\AppData\Local\Temp\ccEruqe3.s 			page 20


1043:.\Generated_Source\PSoC4/BLE.c ****                     byteCounter++;
1044:.\Generated_Source\PSoC4/BLE.c ****                     
1045:.\Generated_Source\PSoC4/BLE.c ****                     if((CYBLE_SHORT_LOCAL_NAME == destBuffer[byteCounter]) || 
1046:.\Generated_Source\PSoC4/BLE.c ****                        (CYBLE_COMPLETE_LOCAL_NAME == destBuffer[byteCounter]))
1047:.\Generated_Source\PSoC4/BLE.c ****                     {
1048:.\Generated_Source\PSoC4/BLE.c ****                         /* Start of the Local Name AD type was fount. Set flag and exit the loop. *
1049:.\Generated_Source\PSoC4/BLE.c ****                         flag = 1u;
  42              		.loc 1 1049 0
  43 0008 0023     		mov	r3, #0
1028:.\Generated_Source\PSoC4/BLE.c ****             }
  44              		.loc 1 1028 0
  45 000a CE7F     		ldrb	r6, [r1, #31]
  46              	.LVL3:
  47              		.loc 1 1049 0
  48 000c 1A1C     		mov	r2, r3
  49 000e 1C1C     		mov	r4, r3
  50 0010 0EE0     		b	.L3
  51              	.LVL4:
  52              	.L2:
1033:.\Generated_Source\PSoC4/BLE.c ****             }
  53              		.loc 1 1033 0
  54 0012 1749     		ldr	r1, .L21+4
  55              	.LVL5:
  56 0014 F8E7     		b	.L17
  57              	.LVL6:
  58              	.L19:
1036:.\Generated_Source\PSoC4/BLE.c ****             {
  59              		.loc 1 1036 0 discriminator 1
  60 0016 002C     		cmp	r4, #0
  61 0018 11D1     		bne	.L10
1038:.\Generated_Source\PSoC4/BLE.c ****                 
  62              		.loc 1 1038 0
  63 001a CA5C     		ldrb	r2, [r1, r3]
  64              	.LVL7:
1040:.\Generated_Source\PSoC4/BLE.c ****                 {
  65              		.loc 1 1040 0
  66 001c 002A     		cmp	r2, #0
  67 001e 24D0     		beq	.L1
1043:.\Generated_Source\PSoC4/BLE.c ****                     
  68              		.loc 1 1043 0
  69 0020 0133     		add	r3, r3, #1
  70              	.LVL8:
  71 0022 DBB2     		uxtb	r3, r3
  72              	.LVL9:
1045:.\Generated_Source\PSoC4/BLE.c ****                        (CYBLE_COMPLETE_LOCAL_NAME == destBuffer[byteCounter]))
  73              		.loc 1 1045 0
  74 0024 CD5C     		ldrb	r5, [r1, r3]
  75 0026 083D     		sub	r5, r5, #8
  76 0028 012D     		cmp	r5, #1
  77 002a 04D9     		bls	.L16
1050:.\Generated_Source\PSoC4/BLE.c ****                     }
1051:.\Generated_Source\PSoC4/BLE.c ****                     else
1052:.\Generated_Source\PSoC4/BLE.c ****                     {
1053:.\Generated_Source\PSoC4/BLE.c ****                         byteCounter += adLength;
  78              		.loc 1 1053 0
  79 002c D318     		add	r3, r2, r3
  80              	.LVL10:
ARM GAS  C:\Users\Helon\AppData\Local\Temp\ccEruqe3.s 			page 21


  81 002e DBB2     		uxtb	r3, r3
  82              	.LVL11:
  83              	.L3:
1036:.\Generated_Source\PSoC4/BLE.c ****             {
  84              		.loc 1 1036 0
  85 0030 B342     		cmp	r3, r6
  86 0032 F0D3     		bcc	.L19
  87 0034 01E0     		b	.L7
  88              	.L16:
1049:.\Generated_Source\PSoC4/BLE.c ****                     }
  89              		.loc 1 1049 0
  90 0036 0124     		mov	r4, #1
  91              	.LVL12:
  92 0038 FAE7     		b	.L3
  93              	.LVL13:
  94              	.L7:
1054:.\Generated_Source\PSoC4/BLE.c ****                     }
1055:.\Generated_Source\PSoC4/BLE.c ****                 }
1056:.\Generated_Source\PSoC4/BLE.c ****                 else
1057:.\Generated_Source\PSoC4/BLE.c ****                 {
1058:.\Generated_Source\PSoC4/BLE.c ****                     /* The end of advertisement data structure was encountered though exit the loop
1059:.\Generated_Source\PSoC4/BLE.c ****                     break;
1060:.\Generated_Source\PSoC4/BLE.c ****                 }
1061:.\Generated_Source\PSoC4/BLE.c ****             }
1062:.\Generated_Source\PSoC4/BLE.c ****             
1063:.\Generated_Source\PSoC4/BLE.c ****             if(0u != flag)
  95              		.loc 1 1063 0
  96 003a 002C     		cmp	r4, #0
  97 003c 15D0     		beq	.L1
  98              	.L10:
1064:.\Generated_Source\PSoC4/BLE.c ****             {
1065:.\Generated_Source\PSoC4/BLE.c ****                 /* Reuse "adLength" to hold location of the last character of local name in 
1066:.\Generated_Source\PSoC4/BLE.c ****                    AD structure. */
1067:.\Generated_Source\PSoC4/BLE.c ****                 adLength += byteCounter;
  99              		.loc 1 1067 0
 100 003e D218     		add	r2, r2, r3
 101              	.LVL14:
1068:.\Generated_Source\PSoC4/BLE.c ****                 
1069:.\Generated_Source\PSoC4/BLE.c ****                 /* Increment byte counter to point to start of the local Name string */
1070:.\Generated_Source\PSoC4/BLE.c ****                 byteCounter++;
 102              		.loc 1 1070 0
 103 0040 0133     		add	r3, r3, #1
 104              	.LVL15:
 105 0042 DBB2     		uxtb	r3, r3
1067:.\Generated_Source\PSoC4/BLE.c ****                 
 106              		.loc 1 1067 0
 107 0044 D4B2     		uxtb	r4, r2
 108              	.LVL16:
1071:.\Generated_Source\PSoC4/BLE.c ****                 
1072:.\Generated_Source\PSoC4/BLE.c ****                 for(i = byteCounter; ((i < (adLength)) && (CYBLE_NULL_CHARCTER != name[i - byteCoun
 109              		.loc 1 1072 0
 110 0046 1A1C     		mov	r2, r3
 111 0048 06E0     		b	.L9
 112              	.LVL17:
 113              	.L20:
 114              		.loc 1 1072 0 is_stmt 0 discriminator 3
 115 004a D51A     		sub	r5, r2, r3
ARM GAS  C:\Users\Helon\AppData\Local\Temp\ccEruqe3.s 			page 22


 116 004c 455D     		ldrb	r5, [r0, r5]
 117 004e 002D     		cmp	r5, #0
 118 0050 04D0     		beq	.L14
1073:.\Generated_Source\PSoC4/BLE.c ****                 {
1074:.\Generated_Source\PSoC4/BLE.c ****                     destBuffer[i] = (uint8)name[i - byteCounter];
 119              		.loc 1 1074 0 is_stmt 1 discriminator 4
 120 0052 8D54     		strb	r5, [r1, r2]
1072:.\Generated_Source\PSoC4/BLE.c ****                 {
 121              		.loc 1 1072 0 discriminator 4
 122 0054 0132     		add	r2, r2, #1
 123              	.LVL18:
 124 0056 D2B2     		uxtb	r2, r2
 125              	.LVL19:
 126              	.L9:
1072:.\Generated_Source\PSoC4/BLE.c ****                 {
 127              		.loc 1 1072 0 is_stmt 0 discriminator 1
 128 0058 A242     		cmp	r2, r4
 129 005a F6D3     		bcc	.L20
 130              	.LVL20:
 131              	.L14:
1075:.\Generated_Source\PSoC4/BLE.c ****                 }
1076:.\Generated_Source\PSoC4/BLE.c ****                 
1077:.\Generated_Source\PSoC4/BLE.c ****                 /* This loop handles the case when new local name is shorted than old one.
1078:.\Generated_Source\PSoC4/BLE.c ****                    In this case all remaining characters should be null characters. */
1079:.\Generated_Source\PSoC4/BLE.c ****                 while(adLength > i)
 132              		.loc 1 1079 0 is_stmt 1
 133 005c 9442     		cmp	r4, r2
 134 005e 04D9     		bls	.L1
1080:.\Generated_Source\PSoC4/BLE.c ****                 {
1081:.\Generated_Source\PSoC4/BLE.c ****                     /* Terminate string */
1082:.\Generated_Source\PSoC4/BLE.c ****                     destBuffer[i] = (uint8)CYBLE_NULL_CHARCTER;
 135              		.loc 1 1082 0
 136 0060 0023     		mov	r3, #0
 137 0062 8B54     		strb	r3, [r1, r2]
1083:.\Generated_Source\PSoC4/BLE.c ****                     i++;
 138              		.loc 1 1083 0
 139 0064 0132     		add	r2, r2, #1
 140              	.LVL21:
 141 0066 D2B2     		uxtb	r2, r2
 142              	.LVL22:
 143 0068 F8E7     		b	.L14
 144              	.LVL23:
 145              	.L1:
1084:.\Generated_Source\PSoC4/BLE.c ****                 }
1085:.\Generated_Source\PSoC4/BLE.c ****             }
1086:.\Generated_Source\PSoC4/BLE.c ****         }
 146              		.loc 1 1086 0
 147              		@ sp needed
 148              	.LVL24:
 149 006a 70BD     		pop	{r4, r5, r6, pc}
 150              	.L22:
 151              		.align	2
 152              	.L21:
 153 006c 00000000 		.word	.LANCHOR0
 154 0070 00000000 		.word	.LANCHOR1
 155              		.cfi_endproc
 156              	.LFE14:
ARM GAS  C:\Users\Helon\AppData\Local\Temp\ccEruqe3.s 			page 23


 157              		.size	CyBle_ChangeAdLocalName, .-CyBle_ChangeAdLocalName
 158              		.section	.text.CyBle_Init,"ax",%progbits
 159              		.align	1
 160              		.global	CyBle_Init
 161              		.code	16
 162              		.thumb_func
 163              		.type	CyBle_Init, %function
 164              	CyBle_Init:
 165              	.LFB2:
 176:.\Generated_Source\PSoC4/BLE.c ****     cyBle_eventHandlerFlag = 0u;
 166              		.loc 1 176 0
 167              		.cfi_startproc
 168 0000 10B5     		push	{r4, lr}
 169              		.cfi_def_cfa_offset 8
 170              		.cfi_offset 4, -8
 171              		.cfi_offset 14, -4
 177:.\Generated_Source\PSoC4/BLE.c ****     cyBle_busyStatus = CYBLE_STACK_STATE_FREE;
 172              		.loc 1 177 0
 173 0002 0024     		mov	r4, #0
 174 0004 144B     		ldr	r3, .L24
 190:.\Generated_Source\PSoC4/BLE.c ****         cyBle_connectionParameters.scanWindow = cyBle_discoveryInfo.scanWindow;
 175              		.loc 1 190 0
 176 0006 154A     		ldr	r2, .L24+4
 177:.\Generated_Source\PSoC4/BLE.c ****     cyBle_busyStatus = CYBLE_STACK_STATE_FREE;
 177              		.loc 1 177 0
 178 0008 1C70     		strb	r4, [r3]
 178:.\Generated_Source\PSoC4/BLE.c **** 
 179              		.loc 1 178 0
 180 000a 154B     		ldr	r3, .L24+8
 211:.\Generated_Source\PSoC4/BLE.c **** 
 181              		.loc 1 211 0
 182              		@ sp needed
 178:.\Generated_Source\PSoC4/BLE.c **** 
 183              		.loc 1 178 0
 184 000c 1C70     		strb	r4, [r3]
 181:.\Generated_Source\PSoC4/BLE.c ****     #endif /* (CYBLE_GAP_ROLE_PERIPHERAL || CYBLE_GAP_ROLE_BROADCASTER)  */
 185              		.loc 1 181 0
 186 000e 154B     		ldr	r3, .L24+12
 187 0010 1C70     		strb	r4, [r3]
 184:.\Generated_Source\PSoC4/BLE.c ****     #endif /* (CYBLE_GAP_ROLE_CENTRAL || CYBLE_GAP_ROLE_OBSERVER) */
 188              		.loc 1 184 0
 189 0012 154B     		ldr	r3, .L24+16
 190 0014 1C70     		strb	r4, [r3]
 190:.\Generated_Source\PSoC4/BLE.c ****         cyBle_connectionParameters.scanWindow = cyBle_discoveryInfo.scanWindow;
 191              		.loc 1 190 0
 192 0016 518C     		ldrh	r1, [r2, #34]
 193 0018 144B     		ldr	r3, .L24+20
 194 001a 1980     		strh	r1, [r3]
 191:.\Generated_Source\PSoC4/BLE.c ****         cyBle_connectionParameters.ownAddrType = cyBle_discoveryInfo.ownAddrType;
 195              		.loc 1 191 0
 196 001c 918C     		ldrh	r1, [r2, #36]
 197 001e 5980     		strh	r1, [r3, #2]
 192:.\Generated_Source\PSoC4/BLE.c ****         cyBle_connectionParameters.initiatorFilterPolicy = cyBle_discoveryInfo.scanFilterPolicy;
 198              		.loc 1 192 0
 199 0020 D11D     		add	r1, r2, #7
 200 0022 C97F     		ldrb	r1, [r1, #31]
 193:.\Generated_Source\PSoC4/BLE.c ****         cyBle_connectionParameters.connIntvMin = CYBLE_GAPC_CONNECTION_INTERVAL_MIN;
ARM GAS  C:\Users\Helon\AppData\Local\Temp\ccEruqe3.s 			page 24


 201              		.loc 1 193 0
 202 0024 0832     		add	r2, r2, #8
 192:.\Generated_Source\PSoC4/BLE.c ****         cyBle_connectionParameters.initiatorFilterPolicy = cyBle_discoveryInfo.scanFilterPolicy;
 203              		.loc 1 192 0
 204 0026 1973     		strb	r1, [r3, #12]
 193:.\Generated_Source\PSoC4/BLE.c ****         cyBle_connectionParameters.connIntvMin = CYBLE_GAPC_CONNECTION_INTERVAL_MIN;
 205              		.loc 1 193 0
 206 0028 D27F     		ldrb	r2, [r2, #31]
 196:.\Generated_Source\PSoC4/BLE.c ****         cyBle_connectionParameters.supervisionTO = CYBLE_GAPC_CONNECTION_TIME_OUT;
 207              		.loc 1 196 0
 208 002a 5C82     		strh	r4, [r3, #18]
 193:.\Generated_Source\PSoC4/BLE.c ****         cyBle_connectionParameters.connIntvMin = CYBLE_GAPC_CONNECTION_INTERVAL_MIN;
 209              		.loc 1 193 0
 210 002c 1A71     		strb	r2, [r3, #4]
 194:.\Generated_Source\PSoC4/BLE.c ****         cyBle_connectionParameters.connIntvMax = CYBLE_GAPC_CONNECTION_INTERVAL_MAX;
 211              		.loc 1 194 0
 212 002e 0622     		mov	r2, #6
 213 0030 DA81     		strh	r2, [r3, #14]
 195:.\Generated_Source\PSoC4/BLE.c ****         cyBle_connectionParameters.connLatency = CYBLE_GAPC_CONNECTION_SLAVE_LATENCY;
 214              		.loc 1 195 0
 215 0032 2232     		add	r2, r2, #34
 216 0034 1A82     		strh	r2, [r3, #16]
 197:.\Generated_Source\PSoC4/BLE.c ****         cyBle_connectionParameters.minCeLength = 0x0000u;
 217              		.loc 1 197 0
 218 0036 FA22     		mov	r2, #250
 219 0038 9200     		lsl	r2, r2, #2
 220 003a 9A82     		strh	r2, [r3, #20]
 199:.\Generated_Source\PSoC4/BLE.c ****         
 221              		.loc 1 199 0
 222 003c 0122     		mov	r2, #1
 223 003e 5242     		neg	r2, r2
 198:.\Generated_Source\PSoC4/BLE.c ****         cyBle_connectionParameters.maxCeLength = 0xFFFFu;
 224              		.loc 1 198 0
 225 0040 DC82     		strh	r4, [r3, #22]
 199:.\Generated_Source\PSoC4/BLE.c ****         
 226              		.loc 1 199 0
 227 0042 1A83     		strh	r2, [r3, #24]
 201:.\Generated_Source\PSoC4/BLE.c ****     #endif /* CYBLE_GAP_ROLE_CENTRAL */
 228              		.loc 1 201 0
 229 0044 0A4B     		ldr	r3, .L24+24
 230 0046 1F32     		add	r2, r2, #31
 231 0048 1A80     		strh	r2, [r3]
 232              	.LBB4:
 233              	.LBB5:
 280:.\Generated_Source\PSoC4/BLE.c ****     #endif /* CYBLE_CUSTOM */
 234              		.loc 1 280 0
 235 004a FFF7FEFF 		bl	CyBle_CustomInit
 236              	.LVL25:
 237              	.LBE5:
 238              	.LBE4:
 207:.\Generated_Source\PSoC4/BLE.c ****         cyBle_peerBonding = CYBLE_GAP_BONDING_NONE;
 239              		.loc 1 207 0
 240 004e 094B     		ldr	r3, .L24+28
 241 0050 1C70     		strb	r4, [r3]
 208:.\Generated_Source\PSoC4/BLE.c ****     #endif  /* (CYBLE_BONDING_REQUIREMENT == CYBLE_BONDING_YES) */
 242              		.loc 1 208 0
 243 0052 094B     		ldr	r3, .L24+32
ARM GAS  C:\Users\Helon\AppData\Local\Temp\ccEruqe3.s 			page 25


 244 0054 1C70     		strb	r4, [r3]
 211:.\Generated_Source\PSoC4/BLE.c **** 
 245              		.loc 1 211 0
 246 0056 10BD     		pop	{r4, pc}
 247              	.L25:
 248              		.align	2
 249              	.L24:
 250 0058 00000000 		.word	cyBle_eventHandlerFlag
 251 005c 00000000 		.word	.LANCHOR0
 252 0060 00000000 		.word	cyBle_busyStatus
 253 0064 00000000 		.word	cyBle_advertisingIntervalType
 254 0068 00000000 		.word	cyBle_scanningIntervalType
 255 006c 00000000 		.word	cyBle_connectionParameters
 256 0070 00000000 		.word	cyBle_connectingTimeout
 257 0074 00000000 		.word	cyBle_pendingFlashWrite
 258 0078 00000000 		.word	cyBle_peerBonding
 259              		.cfi_endproc
 260              	.LFE2:
 261              		.size	CyBle_Init, .-CyBle_Init
 262              		.section	.text.CyBle_ServiceInit,"ax",%progbits
 263              		.align	1
 264              		.global	CyBle_ServiceInit
 265              		.code	16
 266              		.thumb_func
 267              		.type	CyBle_ServiceInit, %function
 268              	CyBle_ServiceInit:
 269              	.LFB3:
 225:.\Generated_Source\PSoC4/BLE.c ****     #if(CYBLE_GATT_ROLE_CLIENT)
 270              		.loc 1 225 0
 271              		.cfi_startproc
 272 0000 08B5     		push	{r3, lr}
 273              		.cfi_def_cfa_offset 8
 274              		.cfi_offset 3, -8
 275              		.cfi_offset 14, -4
 280:.\Generated_Source\PSoC4/BLE.c ****     #endif /* CYBLE_CUSTOM */
 276              		.loc 1 280 0
 277 0002 FFF7FEFF 		bl	CyBle_CustomInit
 278              	.LVL26:
 338:.\Generated_Source\PSoC4/BLE.c **** 
 279              		.loc 1 338 0
 280              		@ sp needed
 281 0006 08BD     		pop	{r3, pc}
 282              		.cfi_endproc
 283              	.LFE3:
 284              		.size	CyBle_ServiceInit, .-CyBle_ServiceInit
 285              		.section	.text.CyBle_Start,"ax",%progbits
 286              		.align	1
 287              		.global	CyBle_Start
 288              		.code	16
 289              		.thumb_func
 290              		.type	CyBle_Start, %function
 291              	CyBle_Start:
 292              	.LFB4:
 400:.\Generated_Source\PSoC4/BLE.c ****     CYBLE_API_RESULT_T apiResult = CYBLE_ERROR_OK;
 293              		.loc 1 400 0
 294              		.cfi_startproc
 295              	.LVL27:
ARM GAS  C:\Users\Helon\AppData\Local\Temp\ccEruqe3.s 			page 26


 296 0000 30B5     		push	{r4, r5, lr}
 297              		.cfi_def_cfa_offset 12
 298              		.cfi_offset 4, -12
 299              		.cfi_offset 5, -8
 300              		.cfi_offset 14, -4
 301 0002 8BB0     		sub	sp, sp, #44
 302              		.cfi_def_cfa_offset 56
 400:.\Generated_Source\PSoC4/BLE.c ****     CYBLE_API_RESULT_T apiResult = CYBLE_ERROR_OK;
 303              		.loc 1 400 0
 304 0004 051C     		mov	r5, r0
 405:.\Generated_Source\PSoC4/BLE.c ****     {
 305              		.loc 1 405 0
 306 0006 1649     		ldr	r1, .L31
 307 0008 04A8     		add	r0, sp, #16
 308              	.LVL28:
 309 000a 1822     		mov	r2, #24
 310 000c FFF7FEFF 		bl	memcpy
 311              	.LVL29:
 418:.\Generated_Source\PSoC4/BLE.c ****     {
 312              		.loc 1 418 0
 313 0010 144C     		ldr	r4, .L31+4
 314 0012 0134     		add	r4, r4, #1
 315 0014 E37F     		ldrb	r3, [r4, #31]
 316 0016 002B     		cmp	r3, #0
 317 0018 03D1     		bne	.L28
 420:.\Generated_Source\PSoC4/BLE.c ****         cyBle_initVar = 1u;
 318              		.loc 1 420 0
 319 001a FFF7FEFF 		bl	CyBle_Init
 320              	.LVL30:
 421:.\Generated_Source\PSoC4/BLE.c ****     }
 321              		.loc 1 421 0
 322 001e 0123     		mov	r3, #1
 323 0020 E377     		strb	r3, [r4, #31]
 324              	.L28:
 464:.\Generated_Source\PSoC4/BLE.c ****     }
 325              		.loc 1 464 0
 326 0022 0120     		mov	r0, #1
 424:.\Generated_Source\PSoC4/BLE.c ****     {
 327              		.loc 1 424 0
 328 0024 002D     		cmp	r5, #0
 329 0026 18D0     		beq	.L29
 438:.\Generated_Source\PSoC4/BLE.c ****             
 330              		.loc 1 438 0
 331 0028 0F4B     		ldr	r3, .L31+8
 441:.\Generated_Source\PSoC4/BLE.c ****                 cyBle_stackDataBuff, CYBLE_STACK_BUF_COUNT, cyBle_flashStorage.stackFlashptr, CYBLE
 332              		.loc 1 441 0
 333 002a 1048     		ldr	r0, .L31+12
 438:.\Generated_Source\PSoC4/BLE.c ****             
 334              		.loc 1 438 0
 335 002c 1D60     		str	r5, [r3]
 441:.\Generated_Source\PSoC4/BLE.c ****                 cyBle_stackDataBuff, CYBLE_STACK_BUF_COUNT, cyBle_flashStorage.stackFlashptr, CYBLE
 336              		.loc 1 441 0
 337 002e 0623     		mov	r3, #6
 338 0030 0093     		str	r3, [sp]
 339 0032 0F4B     		ldr	r3, .L31+16
 340 0034 0F49     		ldr	r1, .L31+20
 341 0036 0193     		str	r3, [sp, #4]
ARM GAS  C:\Users\Helon\AppData\Local\Temp\ccEruqe3.s 			page 27


 342 0038 6E23     		mov	r3, #110
 343 003a FF33     		add	r3, r3, #255
 344 003c 0293     		str	r3, [sp, #8]
 345 003e 0E4A     		ldr	r2, .L31+24
 346 0040 04AB     		add	r3, sp, #16
 347 0042 FFF7FEFF 		bl	CyBle_StackInit
 348              	.LVL31:
 448:.\Generated_Source\PSoC4/BLE.c ****             {
 349              		.loc 1 448 0
 350 0046 0028     		cmp	r0, #0
 351 0048 07D1     		bne	.L29
 450:.\Generated_Source\PSoC4/BLE.c ****                 
 352              		.loc 1 450 0
 353 004a 0122     		mov	r2, #1
 354 004c 0B4B     		ldr	r3, .L31+28
 457:.\Generated_Source\PSoC4/BLE.c ****             #endif /* CYBLE_GATT_ROLE_SERVER */
 355              		.loc 1 457 0
 356 004e 0C48     		ldr	r0, .L31+32
 357              	.LVL32:
 450:.\Generated_Source\PSoC4/BLE.c ****                 
 358              		.loc 1 450 0
 359 0050 1A70     		strb	r2, [r3]
 457:.\Generated_Source\PSoC4/BLE.c ****             #endif /* CYBLE_GATT_ROLE_SERVER */
 360              		.loc 1 457 0
 361 0052 1121     		mov	r1, #17
 362 0054 3132     		add	r2, r2, #49
 363 0056 FFF7FEFF 		bl	CyBle_GattsDbRegister
 364              	.LVL33:
 365              	.L29:
 468:.\Generated_Source\PSoC4/BLE.c **** 
 366              		.loc 1 468 0
 367 005a 0BB0     		add	sp, sp, #44
 368              		@ sp needed
 369              	.LVL34:
 370 005c 30BD     		pop	{r4, r5, pc}
 371              	.L32:
 372 005e C046     		.align	2
 373              	.L31:
 374 0060 00000000 		.word	.LANCHOR2
 375 0064 00000000 		.word	.LANCHOR1
 376 0068 00000000 		.word	CyBle_ApplCallback
 377 006c 00000000 		.word	CyBle_EventHandler
 378 0070 00000000 		.word	cyBle_flashStorage
 379 0074 00000000 		.word	cyBle_stackMemoryRam
 380 0078 A4100000 		.word	4260
 381 007c 00000000 		.word	cyBle_state
 382 0080 00000000 		.word	cyBle_gattDB
 383              		.cfi_endproc
 384              	.LFE4:
 385              		.size	CyBle_Start, .-CyBle_Start
 386              		.section	.text.CyBle_Stop,"ax",%progbits
 387              		.align	1
 388              		.global	CyBle_Stop
 389              		.code	16
 390              		.thumb_func
 391              		.type	CyBle_Stop, %function
 392              	CyBle_Stop:
ARM GAS  C:\Users\Helon\AppData\Local\Temp\ccEruqe3.s 			page 28


 393              	.LFB5:
 484:.\Generated_Source\PSoC4/BLE.c ****     CyBle_Shutdown();                         /* Stop all ongoing activities */
 394              		.loc 1 484 0
 395              		.cfi_startproc
 396 0000 08B5     		push	{r3, lr}
 397              		.cfi_def_cfa_offset 8
 398              		.cfi_offset 3, -8
 399              		.cfi_offset 14, -4
 485:.\Generated_Source\PSoC4/BLE.c ****     CyBle_SetState(CYBLE_STATE_STOPPED);
 400              		.loc 1 485 0
 401 0002 FFF7FEFF 		bl	CyBle_Shutdown
 402              	.LVL35:
 486:.\Generated_Source\PSoC4/BLE.c ****     #if(CYBLE_SHARING_MODE_EXPORT)
 403              		.loc 1 486 0
 404 0006 0022     		mov	r2, #0
 405 0008 014B     		ldr	r3, .L34
 493:.\Generated_Source\PSoC4/BLE.c **** 
 406              		.loc 1 493 0
 407              		@ sp needed
 486:.\Generated_Source\PSoC4/BLE.c ****     #if(CYBLE_SHARING_MODE_EXPORT)
 408              		.loc 1 486 0
 409 000a 1A70     		strb	r2, [r3]
 493:.\Generated_Source\PSoC4/BLE.c **** 
 410              		.loc 1 493 0
 411 000c 08BD     		pop	{r3, pc}
 412              	.L35:
 413 000e C046     		.align	2
 414              	.L34:
 415 0010 00000000 		.word	cyBle_state
 416              		.cfi_endproc
 417              	.LFE5:
 418              		.size	CyBle_Stop, .-CyBle_Stop
 419              		.section	.text.CyBle_StoreBondingData,"ax",%progbits
 420              		.align	1
 421              		.global	CyBle_StoreBondingData
 422              		.code	16
 423              		.thumb_func
 424              		.type	CyBle_StoreBondingData, %function
 425              	CyBle_StoreBondingData:
 426              	.LFB6:
 537:.\Generated_Source\PSoC4/BLE.c ****     CYBLE_API_RESULT_T apiResult = CYBLE_ERROR_OK;
 427              		.loc 1 537 0
 428              		.cfi_startproc
 429              	.LVL36:
 430 0000 70B5     		push	{r4, r5, r6, lr}
 431              		.cfi_def_cfa_offset 16
 432              		.cfi_offset 4, -16
 433              		.cfi_offset 5, -12
 434              		.cfi_offset 6, -8
 435              		.cfi_offset 14, -4
 541:.\Generated_Source\PSoC4/BLE.c ****     {
 436              		.loc 1 541 0
 437 0002 0126     		mov	r6, #1
 438 0004 154C     		ldr	r4, .L49
 537:.\Generated_Source\PSoC4/BLE.c ****     CYBLE_API_RESULT_T apiResult = CYBLE_ERROR_OK;
 439              		.loc 1 537 0
 440 0006 051C     		mov	r5, r0
ARM GAS  C:\Users\Helon\AppData\Local\Temp\ccEruqe3.s 			page 29


 541:.\Generated_Source\PSoC4/BLE.c ****     {
 441              		.loc 1 541 0
 442 0008 2378     		ldrb	r3, [r4]
 443 000a 3342     		tst	r3, r6
 444 000c 09D0     		beq	.L37
 543:.\Generated_Source\PSoC4/BLE.c ****         if(apiResult == CYBLE_ERROR_OK)
 445              		.loc 1 543 0
 446 000e FFF7FEFF 		bl	CyBle_StoreStackData
 447              	.LVL37:
 544:.\Generated_Source\PSoC4/BLE.c ****         {
 448              		.loc 1 544 0
 449 0012 0028     		cmp	r0, #0
 450 0014 1FD1     		bne	.L38
 546:.\Generated_Source\PSoC4/BLE.c ****             /* Change apiResult if there are more pending data to store */
 451              		.loc 1 546 0
 452 0016 2378     		ldrb	r3, [r4]
 453 0018 1A1C     		mov	r2, r3
 454 001a B243     		bic	r2, r6
 455 001c 2270     		strb	r2, [r4]
 548:.\Generated_Source\PSoC4/BLE.c ****             {
 456              		.loc 1 548 0
 457 001e 9B07     		lsl	r3, r3, #30
 458 0020 18D4     		bmi	.L41
 459              	.LVL38:
 460              	.L37:
 537:.\Generated_Source\PSoC4/BLE.c ****     CYBLE_API_RESULT_T apiResult = CYBLE_ERROR_OK;
 461              		.loc 1 537 0
 462 0022 0020     		mov	r0, #0
 463              	.LVL39:
 464              	.L40:
 557:.\Generated_Source\PSoC4/BLE.c ****         (cyBle_connHandle.bdHandle <= CYBLE_GAP_MAX_BONDED_DEVICE))
 465              		.loc 1 557 0 discriminator 3
 466 0024 0226     		mov	r6, #2
 467 0026 2378     		ldrb	r3, [r4]
 556:.\Generated_Source\PSoC4/BLE.c ****         ((cyBle_pendingFlashWrite & CYBLE_PENDING_CCCD_FLASH_WRITE_BIT) != 0u) &&
 468              		.loc 1 556 0 discriminator 3
 469 0028 3342     		tst	r3, r6
 470 002a 16D0     		beq	.L44
 558:.\Generated_Source\PSoC4/BLE.c ****     {
 471              		.loc 1 558 0
 472 002c 0C4B     		ldr	r3, .L49+4
 473 002e 1978     		ldrb	r1, [r3]
 557:.\Generated_Source\PSoC4/BLE.c ****         (cyBle_connHandle.bdHandle <= CYBLE_GAP_MAX_BONDED_DEVICE))
 474              		.loc 1 557 0
 475 0030 0429     		cmp	r1, #4
 476 0032 12D8     		bhi	.L44
 560:.\Generated_Source\PSoC4/BLE.c ****                                        CYBLE_GATT_DB_CCCD_COUNT, isForceWrite);
 477              		.loc 1 560 0
 478 0034 5A31     		add	r1, r1, #90
 479 0036 B140     		lsl	r1, r1, r6
 480 0038 0A4B     		ldr	r3, .L49+8
 481 003a 0B48     		ldr	r0, .L49+12
 482 003c C918     		add	r1, r1, r3
 483 003e 0531     		add	r1, r1, #5
 484 0040 0422     		mov	r2, #4
 485 0042 2B1C     		mov	r3, r5
 486 0044 FFF7FEFF 		bl	CyBle_StoreAppData
ARM GAS  C:\Users\Helon\AppData\Local\Temp\ccEruqe3.s 			page 30


 487              	.LVL40:
 562:.\Generated_Source\PSoC4/BLE.c ****         {
 488              		.loc 1 562 0
 489 0048 0028     		cmp	r0, #0
 490 004a 06D1     		bne	.L44
 564:.\Generated_Source\PSoC4/BLE.c ****         }
 491              		.loc 1 564 0
 492 004c 2378     		ldrb	r3, [r4]
 493 004e B343     		bic	r3, r6
 494 0050 2370     		strb	r3, [r4]
 495 0052 02E0     		b	.L44
 496              	.L41:
 550:.\Generated_Source\PSoC4/BLE.c ****             }
 497              		.loc 1 550 0
 498 0054 2820     		mov	r0, #40
 499              	.LVL41:
 500              	.L38:
 556:.\Generated_Source\PSoC4/BLE.c ****         ((cyBle_pendingFlashWrite & CYBLE_PENDING_CCCD_FLASH_WRITE_BIT) != 0u) &&
 501              		.loc 1 556 0
 502 0056 002D     		cmp	r5, #0
 503 0058 E4D1     		bne	.L40
 504              	.LVL42:
 505              	.L44:
 569:.\Generated_Source\PSoC4/BLE.c **** 
 506              		.loc 1 569 0
 507              		@ sp needed
 508 005a 70BD     		pop	{r4, r5, r6, pc}
 509              	.L50:
 510              		.align	2
 511              	.L49:
 512 005c 00000000 		.word	cyBle_pendingFlashWrite
 513 0060 00000000 		.word	cyBle_connHandle
 514 0064 00000000 		.word	cyBle_flashStorage
 515 0068 00000000 		.word	cyBle_attValuesCCCD
 516              		.cfi_endproc
 517              	.LFE6:
 518              		.size	CyBle_StoreBondingData, .-CyBle_StoreBondingData
 519              		.section	.text.CyBle_GappStartAdvertisement,"ax",%progbits
 520              		.align	1
 521              		.global	CyBle_GappStartAdvertisement
 522              		.code	16
 523              		.thumb_func
 524              		.type	CyBle_GappStartAdvertisement, %function
 525              	CyBle_GappStartAdvertisement:
 526              	.LFB7:
 625:.\Generated_Source\PSoC4/BLE.c ****         CYBLE_API_RESULT_T apiResult;
 527              		.loc 1 625 0
 528              		.cfi_startproc
 529              	.LVL43:
 530 0000 021C     		mov	r2, r0
 531 0002 10B5     		push	{r4, lr}
 532              		.cfi_def_cfa_offset 8
 533              		.cfi_offset 4, -8
 534              		.cfi_offset 14, -4
 630:.\Generated_Source\PSoC4/BLE.c ****         }
 535              		.loc 1 630 0
 536 0004 0120     		mov	r0, #1
ARM GAS  C:\Users\Helon\AppData\Local\Temp\ccEruqe3.s 			page 31


 537              	.LVL44:
 628:.\Generated_Source\PSoC4/BLE.c ****         {
 538              		.loc 1 628 0
 539 0006 022A     		cmp	r2, #2
 540 0008 2AD8     		bhi	.L52
 632:.\Generated_Source\PSoC4/BLE.c ****         {   
 541              		.loc 1 632 0
 542 000a 164B     		ldr	r3, .L59
 543 000c 1B78     		ldrb	r3, [r3]
 544 000e 062B     		cmp	r3, #6
 545 0010 24D1     		bne	.L57
 632:.\Generated_Source\PSoC4/BLE.c ****         {   
 546              		.loc 1 632 0 is_stmt 0 discriminator 1
 547 0012 154C     		ldr	r4, .L59+4
 548 0014 2378     		ldrb	r3, [r4]
 549 0016 5B07     		lsl	r3, r3, #29
 550 0018 20D4     		bmi	.L57
 551 001a 144B     		ldr	r3, .L59+8
 634:.\Generated_Source\PSoC4/BLE.c ****             {
 552              		.loc 1 634 0 is_stmt 1
 553 001c 002A     		cmp	r2, #0
 554 001e 05D1     		bne	.L53
 636:.\Generated_Source\PSoC4/BLE.c ****                 cyBle_discoveryModeInfo.advParam->advIntvMin = CYBLE_FAST_ADV_INT_MIN;
 555              		.loc 1 636 0
 556 0020 1E21     		mov	r1, #30
 557 0022 9987     		strh	r1, [r3, #60]
 637:.\Generated_Source\PSoC4/BLE.c ****                 cyBle_discoveryModeInfo.advParam->advIntvMax = CYBLE_FAST_ADV_INT_MAX;
 558              		.loc 1 637 0
 559 0024 196B     		ldr	r1, [r3, #48]
 560 0026 1F30     		add	r0, r0, #31
 561 0028 0880     		strh	r0, [r1]
 562 002a 09E0     		b	.L58
 563              	.L53:
 640:.\Generated_Source\PSoC4/BLE.c ****             {
 564              		.loc 1 640 0
 565 002c 012A     		cmp	r2, #1
 566 002e 08D1     		bne	.L54
 642:.\Generated_Source\PSoC4/BLE.c ****                 cyBle_discoveryModeInfo.advParam->advIntvMin = CYBLE_SLOW_ADV_INT_MIN;
 567              		.loc 1 642 0
 568 0030 9621     		mov	r1, #150
 643:.\Generated_Source\PSoC4/BLE.c ****                 cyBle_discoveryModeInfo.advParam->advIntvMax = CYBLE_SLOW_ADV_INT_MAX;
 569              		.loc 1 643 0
 570 0032 C820     		mov	r0, #200
 642:.\Generated_Source\PSoC4/BLE.c ****                 cyBle_discoveryModeInfo.advParam->advIntvMin = CYBLE_SLOW_ADV_INT_MIN;
 571              		.loc 1 642 0
 572 0034 9987     		strh	r1, [r3, #60]
 643:.\Generated_Source\PSoC4/BLE.c ****                 cyBle_discoveryModeInfo.advParam->advIntvMax = CYBLE_SLOW_ADV_INT_MAX;
 573              		.loc 1 643 0
 574 0036 196B     		ldr	r1, [r3, #48]
 575 0038 C000     		lsl	r0, r0, #3
 576 003a 0880     		strh	r0, [r1]
 644:.\Generated_Source\PSoC4/BLE.c ****             }       
 577              		.loc 1 644 0
 578 003c 8020     		mov	r0, #128
 579 003e C001     		lsl	r0, r0, #7
 580              	.L58:
 581 0040 4880     		strh	r0, [r1, #2]
ARM GAS  C:\Users\Helon\AppData\Local\Temp\ccEruqe3.s 			page 32


 582              	.L54:
 649:.\Generated_Source\PSoC4/BLE.c ****             apiResult = CyBle_GappEnterDiscoveryMode(&cyBle_discoveryModeInfo);
 583              		.loc 1 649 0
 584 0042 0B49     		ldr	r1, .L59+12
 650:.\Generated_Source\PSoC4/BLE.c ****         
 585              		.loc 1 650 0
 586 0044 2C33     		add	r3, r3, #44
 587 0046 181C     		mov	r0, r3
 649:.\Generated_Source\PSoC4/BLE.c ****             apiResult = CyBle_GappEnterDiscoveryMode(&cyBle_discoveryModeInfo);
 588              		.loc 1 649 0
 589 0048 0A70     		strb	r2, [r1]
 650:.\Generated_Source\PSoC4/BLE.c ****         
 590              		.loc 1 650 0
 591 004a FFF7FEFF 		bl	CyBle_GappEnterDiscoveryMode
 592              	.LVL45:
 652:.\Generated_Source\PSoC4/BLE.c ****             {
 593              		.loc 1 652 0
 594 004e 0028     		cmp	r0, #0
 595 0050 06D1     		bne	.L52
 654:.\Generated_Source\PSoC4/BLE.c ****             }
 596              		.loc 1 654 0
 597 0052 0422     		mov	r2, #4
 598 0054 2378     		ldrb	r3, [r4]
 599 0056 1343     		orr	r3, r2
 600 0058 2370     		strb	r3, [r4]
 601 005a 01E0     		b	.L52
 602              	.LVL46:
 603              	.L57:
 659:.\Generated_Source\PSoC4/BLE.c ****         }
 604              		.loc 1 659 0
 605 005c 0420     		mov	r0, #4
 606 005e FF30     		add	r0, r0, #255
 607              	.L52:
 608              	.LVL47:
 663:.\Generated_Source\PSoC4/BLE.c **** 
 609              		.loc 1 663 0
 610              		@ sp needed
 611 0060 10BD     		pop	{r4, pc}
 612              	.L60:
 613 0062 C046     		.align	2
 614              	.L59:
 615 0064 00000000 		.word	cyBle_state
 616 0068 00000000 		.word	cyBle_eventHandlerFlag
 617 006c 00000000 		.word	.LANCHOR0
 618 0070 00000000 		.word	cyBle_advertisingIntervalType
 619              		.cfi_endproc
 620              	.LFE7:
 621              		.size	CyBle_GappStartAdvertisement, .-CyBle_GappStartAdvertisement
 622              		.section	.text.CyBle_GappStopAdvertisement,"ax",%progbits
 623              		.align	1
 624              		.global	CyBle_GappStopAdvertisement
 625              		.code	16
 626              		.thumb_func
 627              		.type	CyBle_GappStopAdvertisement, %function
 628              	CyBle_GappStopAdvertisement:
 629              	.LFB8:
 686:.\Generated_Source\PSoC4/BLE.c ****         CyBle_GappExitDiscoveryMode();
ARM GAS  C:\Users\Helon\AppData\Local\Temp\ccEruqe3.s 			page 33


 630              		.loc 1 686 0
 631              		.cfi_startproc
 632 0000 08B5     		push	{r3, lr}
 633              		.cfi_def_cfa_offset 8
 634              		.cfi_offset 3, -8
 635              		.cfi_offset 14, -4
 687:.\Generated_Source\PSoC4/BLE.c ****         cyBle_eventHandlerFlag |= CYBLE_STOP_FLAG;
 636              		.loc 1 687 0
 637 0002 FFF7FEFF 		bl	CyBle_GappExitDiscoveryMode
 638              	.LVL48:
 688:.\Generated_Source\PSoC4/BLE.c ****     }
 639              		.loc 1 688 0
 640 0006 0821     		mov	r1, #8
 641 0008 024A     		ldr	r2, .L62
 689:.\Generated_Source\PSoC4/BLE.c ****     
 642              		.loc 1 689 0
 643              		@ sp needed
 688:.\Generated_Source\PSoC4/BLE.c ****     }
 644              		.loc 1 688 0
 645 000a 1378     		ldrb	r3, [r2]
 646 000c 0B43     		orr	r3, r1
 647 000e 1370     		strb	r3, [r2]
 689:.\Generated_Source\PSoC4/BLE.c ****     
 648              		.loc 1 689 0
 649 0010 08BD     		pop	{r3, pc}
 650              	.L63:
 651 0012 C046     		.align	2
 652              	.L62:
 653 0014 00000000 		.word	cyBle_eventHandlerFlag
 654              		.cfi_endproc
 655              	.LFE8:
 656              		.size	CyBle_GappStopAdvertisement, .-CyBle_GappStopAdvertisement
 657              		.section	.text.CyBle_ChangeAdDeviceAddress,"ax",%progbits
 658              		.align	1
 659              		.global	CyBle_ChangeAdDeviceAddress
 660              		.code	16
 661              		.thumb_func
 662              		.type	CyBle_ChangeAdDeviceAddress, %function
 663              	CyBle_ChangeAdDeviceAddress:
 664              	.LFB9:
 708:.\Generated_Source\PSoC4/BLE.c ****         uint8 i;
 665              		.loc 1 708 0
 666              		.cfi_startproc
 667              	.LVL49:
 735:.\Generated_Source\PSoC4/BLE.c ****   
 668              		.loc 1 735 0
 669              		@ sp needed
 670 0000 7047     		bx	lr
 671              		.cfi_endproc
 672              	.LFE9:
 673              		.size	CyBle_ChangeAdDeviceAddress, .-CyBle_ChangeAdDeviceAddress
 674              		.section	.text.CyBle_GapcStartScan,"ax",%progbits
 675              		.align	1
 676              		.global	CyBle_GapcStartScan
 677              		.code	16
 678              		.thumb_func
 679              		.type	CyBle_GapcStartScan, %function
ARM GAS  C:\Users\Helon\AppData\Local\Temp\ccEruqe3.s 			page 34


 680              	CyBle_GapcStartScan:
 681              	.LFB10:
 814:.\Generated_Source\PSoC4/BLE.c ****         CYBLE_API_RESULT_T apiResult;
 682              		.loc 1 814 0
 683              		.cfi_startproc
 684              	.LVL50:
 685 0000 021C     		mov	r2, r0
 686 0002 08B5     		push	{r3, lr}
 687              		.cfi_def_cfa_offset 8
 688              		.cfi_offset 3, -8
 689              		.cfi_offset 14, -4
 819:.\Generated_Source\PSoC4/BLE.c ****         }
 690              		.loc 1 819 0
 691 0004 0120     		mov	r0, #1
 692              	.LVL51:
 817:.\Generated_Source\PSoC4/BLE.c ****         {
 693              		.loc 1 817 0
 694 0006 022A     		cmp	r2, #2
 695 0008 1DD8     		bhi	.L66
 696 000a 0F4B     		ldr	r3, .L71
 823:.\Generated_Source\PSoC4/BLE.c ****             {
 697              		.loc 1 823 0
 698 000c 002A     		cmp	r2, #0
 699 000e 04D1     		bne	.L67
 825:.\Generated_Source\PSoC4/BLE.c ****                 cyBle_discoveryInfo.scanIntv = CYBLE_FAST_SCAN_INTERVAL;
 700              		.loc 1 825 0
 701 0010 0A21     		mov	r1, #10
 702 0012 1985     		strh	r1, [r3, #40]
 826:.\Generated_Source\PSoC4/BLE.c ****                 cyBle_discoveryInfo.scanWindow = CYBLE_FAST_SCAN_WINDOW;
 703              		.loc 1 826 0
 704 0014 2631     		add	r1, r1, #38
 705 0016 5984     		strh	r1, [r3, #34]
 706 0018 07E0     		b	.L70
 707              	.L67:
 829:.\Generated_Source\PSoC4/BLE.c ****             {
 708              		.loc 1 829 0
 709 001a 012A     		cmp	r2, #1
 710 001c 06D1     		bne	.L68
 831:.\Generated_Source\PSoC4/BLE.c ****                 cyBle_discoveryInfo.scanIntv = CYBLE_SLOW_SCAN_INTERVAL;
 711              		.loc 1 831 0
 712 001e 9621     		mov	r1, #150
 713 0020 1985     		strh	r1, [r3, #40]
 832:.\Generated_Source\PSoC4/BLE.c ****                 cyBle_discoveryInfo.scanWindow = CYBLE_SLOW_SCAN_WINDOW;
 714              		.loc 1 832 0
 715 0022 8021     		mov	r1, #128
 716 0024 0901     		lsl	r1, r1, #4
 717 0026 5984     		strh	r1, [r3, #34]
 833:.\Generated_Source\PSoC4/BLE.c ****             }       
 718              		.loc 1 833 0
 719 0028 F839     		sub	r1, r1, #248
 720              	.L70:
 721 002a 9984     		strh	r1, [r3, #36]
 722              	.L68:
 839:.\Generated_Source\PSoC4/BLE.c ****             apiResult = CyBle_GapcStartDiscovery(&cyBle_discoveryInfo);
 723              		.loc 1 839 0
 724 002c 0749     		ldr	r1, .L71+4
 840:.\Generated_Source\PSoC4/BLE.c ****         
ARM GAS  C:\Users\Helon\AppData\Local\Temp\ccEruqe3.s 			page 35


 725              		.loc 1 840 0
 726 002e 2033     		add	r3, r3, #32
 727 0030 181C     		mov	r0, r3
 839:.\Generated_Source\PSoC4/BLE.c ****             apiResult = CyBle_GapcStartDiscovery(&cyBle_discoveryInfo);
 728              		.loc 1 839 0
 729 0032 0A70     		strb	r2, [r1]
 840:.\Generated_Source\PSoC4/BLE.c ****         
 730              		.loc 1 840 0
 731 0034 FFF7FEFF 		bl	CyBle_GapcStartDiscovery
 732              	.LVL52:
 842:.\Generated_Source\PSoC4/BLE.c ****             {
 733              		.loc 1 842 0
 734 0038 0028     		cmp	r0, #0
 735 003a 04D1     		bne	.L66
 844:.\Generated_Source\PSoC4/BLE.c ****             }
 736              		.loc 1 844 0
 737 003c 0421     		mov	r1, #4
 738 003e 044A     		ldr	r2, .L71+8
 739 0040 1378     		ldrb	r3, [r2]
 740 0042 0B43     		orr	r3, r1
 741 0044 1370     		strb	r3, [r2]
 742              	.LVL53:
 743              	.L66:
 849:.\Generated_Source\PSoC4/BLE.c ****     
 744              		.loc 1 849 0
 745              		@ sp needed
 746 0046 08BD     		pop	{r3, pc}
 747              	.L72:
 748              		.align	2
 749              	.L71:
 750 0048 00000000 		.word	.LANCHOR0
 751 004c 00000000 		.word	cyBle_scanningIntervalType
 752 0050 00000000 		.word	cyBle_eventHandlerFlag
 753              		.cfi_endproc
 754              	.LFE10:
 755              		.size	CyBle_GapcStartScan, .-CyBle_GapcStartScan
 756              		.section	.text.CyBle_GapcStopScan,"ax",%progbits
 757              		.align	1
 758              		.global	CyBle_GapcStopScan
 759              		.code	16
 760              		.thumb_func
 761              		.type	CyBle_GapcStopScan, %function
 762              	CyBle_GapcStopScan:
 763              	.LFB11:
 870:.\Generated_Source\PSoC4/BLE.c ****         CyBle_GapcStopDiscovery();
 764              		.loc 1 870 0
 765              		.cfi_startproc
 766 0000 08B5     		push	{r3, lr}
 767              		.cfi_def_cfa_offset 8
 768              		.cfi_offset 3, -8
 769              		.cfi_offset 14, -4
 871:.\Generated_Source\PSoC4/BLE.c ****         
 770              		.loc 1 871 0
 771 0002 FFF7FEFF 		bl	CyBle_GapcStopDiscovery
 772              	.LVL54:
 873:.\Generated_Source\PSoC4/BLE.c ****     }
 773              		.loc 1 873 0
ARM GAS  C:\Users\Helon\AppData\Local\Temp\ccEruqe3.s 			page 36


 774 0006 0821     		mov	r1, #8
 775 0008 024A     		ldr	r2, .L74
 874:.\Generated_Source\PSoC4/BLE.c **** 
 776              		.loc 1 874 0
 777              		@ sp needed
 873:.\Generated_Source\PSoC4/BLE.c ****     }
 778              		.loc 1 873 0
 779 000a 1378     		ldrb	r3, [r2]
 780 000c 0B43     		orr	r3, r1
 781 000e 1370     		strb	r3, [r2]
 874:.\Generated_Source\PSoC4/BLE.c **** 
 782              		.loc 1 874 0
 783 0010 08BD     		pop	{r3, pc}
 784              	.L75:
 785 0012 C046     		.align	2
 786              	.L74:
 787 0014 00000000 		.word	cyBle_eventHandlerFlag
 788              		.cfi_endproc
 789              	.LFE11:
 790              		.size	CyBle_GapcStopScan, .-CyBle_GapcStopScan
 791              		.section	.text.CyBle_GapcConnectDevice,"ax",%progbits
 792              		.align	1
 793              		.global	CyBle_GapcConnectDevice
 794              		.code	16
 795              		.thumb_func
 796              		.type	CyBle_GapcConnectDevice, %function
 797              	CyBle_GapcConnectDevice:
 798              	.LFB12:
 920:.\Generated_Source\PSoC4/BLE.c ****         CYBLE_API_RESULT_T apiResult;
 799              		.loc 1 920 0
 800              		.cfi_startproc
 801              	.LVL55:
 802 0000 38B5     		push	{r3, r4, r5, lr}
 803              		.cfi_def_cfa_offset 16
 804              		.cfi_offset 3, -16
 805              		.cfi_offset 4, -12
 806              		.cfi_offset 5, -8
 807              		.cfi_offset 14, -4
 924:.\Generated_Source\PSoC4/BLE.c ****         {
 808              		.loc 1 924 0
 809 0002 114C     		ldr	r4, .L84
 810 0004 2378     		ldrb	r3, [r4]
 811 0006 062B     		cmp	r3, #6
 812 0008 1AD1     		bne	.L79
 930:.\Generated_Source\PSoC4/BLE.c ****         }
 813              		.loc 1 930 0
 814 000a 0125     		mov	r5, #1
 928:.\Generated_Source\PSoC4/BLE.c ****         {
 815              		.loc 1 928 0
 816 000c 0028     		cmp	r0, #0
 817 000e 19D0     		beq	.L77
 818 0010 0023     		mov	r3, #0
 819              	.L78:
 820              	.LVL56:
 821 0012 0E4A     		ldr	r2, .L84+4
 936:.\Generated_Source\PSoC4/BLE.c ****             }
 822              		.loc 1 936 0 discriminator 3
ARM GAS  C:\Users\Helon\AppData\Local\Temp\ccEruqe3.s 			page 37


 823 0014 C55C     		ldrb	r5, [r0, r3]
 824 0016 9918     		add	r1, r3, r2
 825 0018 0133     		add	r3, r3, #1
 826              	.LVL57:
 827 001a 4D71     		strb	r5, [r1, #5]
 934:.\Generated_Source\PSoC4/BLE.c ****             {
 828              		.loc 1 934 0 discriminator 3
 829 001c 062B     		cmp	r3, #6
 830 001e F8D1     		bne	.L78
 938:.\Generated_Source\PSoC4/BLE.c ****             apiResult = CyBle_GapcInitConnection(&cyBle_connectionParameters);
 831              		.loc 1 938 0
 832 0020 8379     		ldrb	r3, [r0, #6]
 939:.\Generated_Source\PSoC4/BLE.c ****             
 833              		.loc 1 939 0
 834 0022 101C     		mov	r0, r2
 835              	.LVL58:
 938:.\Generated_Source\PSoC4/BLE.c ****             apiResult = CyBle_GapcInitConnection(&cyBle_connectionParameters);
 836              		.loc 1 938 0
 837 0024 D372     		strb	r3, [r2, #11]
 939:.\Generated_Source\PSoC4/BLE.c ****             
 838              		.loc 1 939 0
 839 0026 FFF7FEFF 		bl	CyBle_GapcInitConnection
 840              	.LVL59:
 841 002a 051E     		sub	r5, r0, #0
 842              	.LVL60:
 941:.\Generated_Source\PSoC4/BLE.c ****             {
 843              		.loc 1 941 0
 844 002c 0AD1     		bne	.L77
 943:.\Generated_Source\PSoC4/BLE.c ****                 if(cyBle_connectingTimeout != 0u)
 845              		.loc 1 943 0
 846 002e 0523     		mov	r3, #5
 847 0030 2370     		strb	r3, [r4]
 944:.\Generated_Source\PSoC4/BLE.c ****                 {
 848              		.loc 1 944 0
 849 0032 074B     		ldr	r3, .L84+8
 850 0034 1888     		ldrh	r0, [r3]
 851              	.LVL61:
 852 0036 0028     		cmp	r0, #0
 853 0038 04D0     		beq	.L77
 946:.\Generated_Source\PSoC4/BLE.c ****                 }
 854              		.loc 1 946 0
 855 003a FFF7FEFF 		bl	CyBle_StartTimer
 856              	.LVL62:
 857 003e 01E0     		b	.L77
 858              	.LVL63:
 859              	.L79:
 926:.\Generated_Source\PSoC4/BLE.c ****         }
 860              		.loc 1 926 0
 861 0040 0425     		mov	r5, #4
 862 0042 FF35     		add	r5, r5, #255
 863              	.LVL64:
 864              	.L77:
 951:.\Generated_Source\PSoC4/BLE.c ****     
 865              		.loc 1 951 0
 866 0044 281C     		mov	r0, r5
 867              		@ sp needed
 868              	.LVL65:
ARM GAS  C:\Users\Helon\AppData\Local\Temp\ccEruqe3.s 			page 38


 869 0046 38BD     		pop	{r3, r4, r5, pc}
 870              	.L85:
 871              		.align	2
 872              	.L84:
 873 0048 00000000 		.word	cyBle_state
 874 004c 00000000 		.word	cyBle_connectionParameters
 875 0050 00000000 		.word	cyBle_connectingTimeout
 876              		.cfi_endproc
 877              	.LFE12:
 878              		.size	CyBle_GapcConnectDevice, .-CyBle_GapcConnectDevice
 879              		.section	.text.CyBle_GapcCancelDeviceConnection,"ax",%progbits
 880              		.align	1
 881              		.global	CyBle_GapcCancelDeviceConnection
 882              		.code	16
 883              		.thumb_func
 884              		.type	CyBle_GapcCancelDeviceConnection, %function
 885              	CyBle_GapcCancelDeviceConnection:
 886              	.LFB13:
 976:.\Generated_Source\PSoC4/BLE.c ****         CYBLE_API_RESULT_T apiResult;
 887              		.loc 1 976 0
 888              		.cfi_startproc
 889 0000 10B5     		push	{r4, lr}
 890              		.cfi_def_cfa_offset 8
 891              		.cfi_offset 4, -8
 892              		.cfi_offset 14, -4
 979:.\Generated_Source\PSoC4/BLE.c ****             
 893              		.loc 1 979 0
 894 0002 FFF7FEFF 		bl	CyBle_GapcCancelConnection
 895              	.LVL66:
 981:.\Generated_Source\PSoC4/BLE.c ****         {
 896              		.loc 1 981 0
 897 0006 074B     		ldr	r3, .L92
 979:.\Generated_Source\PSoC4/BLE.c ****             
 898              		.loc 1 979 0
 899 0008 041C     		mov	r4, r0
 900              	.LVL67:
 981:.\Generated_Source\PSoC4/BLE.c ****         {
 901              		.loc 1 981 0
 902 000a 1B88     		ldrh	r3, [r3]
 903 000c 002B     		cmp	r3, #0
 904 000e 01D0     		beq	.L87
 983:.\Generated_Source\PSoC4/BLE.c ****         }
 905              		.loc 1 983 0
 906 0010 FFF7FEFF 		bl	CyBle_StopTimer
 907              	.LVL68:
 908              	.L87:
 986:.\Generated_Source\PSoC4/BLE.c ****         {
 909              		.loc 1 986 0
 910 0014 002C     		cmp	r4, #0
 911 0016 02D1     		bne	.L88
 988:.\Generated_Source\PSoC4/BLE.c ****         }
 912              		.loc 1 988 0
 913 0018 0622     		mov	r2, #6
 914 001a 034B     		ldr	r3, .L92+4
 915 001c 1A70     		strb	r2, [r3]
 916              	.L88:
 991:.\Generated_Source\PSoC4/BLE.c **** 
ARM GAS  C:\Users\Helon\AppData\Local\Temp\ccEruqe3.s 			page 39


 917              		.loc 1 991 0
 918 001e 201C     		mov	r0, r4
 919              		@ sp needed
 920              	.LVL69:
 921 0020 10BD     		pop	{r4, pc}
 922              	.L93:
 923 0022 C046     		.align	2
 924              	.L92:
 925 0024 00000000 		.word	cyBle_connectingTimeout
 926 0028 00000000 		.word	cyBle_state
 927              		.cfi_endproc
 928              	.LFE13:
 929              		.size	CyBle_GapcCancelDeviceConnection, .-CyBle_GapcCancelDeviceConnection
 930              		.section	.text.CyBle_GapSetLocalName,"ax",%progbits
 931              		.align	1
 932              		.global	CyBle_GapSetLocalName
 933              		.code	16
 934              		.thumb_func
 935              		.type	CyBle_GapSetLocalName, %function
 936              	CyBle_GapSetLocalName:
 937              	.LFB15:
1087:.\Generated_Source\PSoC4/BLE.c ****         
1088:.\Generated_Source\PSoC4/BLE.c **** #endif /* (CYBLE_GAP_ROLE_PERIPHERAL) */  
1089:.\Generated_Source\PSoC4/BLE.c ****     
1090:.\Generated_Source\PSoC4/BLE.c ****     
1091:.\Generated_Source\PSoC4/BLE.c ****     /******************************************************************************
1092:.\Generated_Source\PSoC4/BLE.c ****     * Function Name: CyBle_GapSetLocalName
1093:.\Generated_Source\PSoC4/BLE.c ****     ***************************************************************************//**
1094:.\Generated_Source\PSoC4/BLE.c ****     *  This API is used to set the local device name - a Characteristic of the 
1095:.\Generated_Source\PSoC4/BLE.c ****     *  GAP Service. If the characteristic length entered in the component customizer
1096:.\Generated_Source\PSoC4/BLE.c ****     *  is shorter than the string specified by the "name" parameter, the local device
1097:.\Generated_Source\PSoC4/BLE.c ****     *  name will be cut to the length specified in the customizer.
1098:.\Generated_Source\PSoC4/BLE.c ****     * 
1099:.\Generated_Source\PSoC4/BLE.c ****     *  \param name: The local device name string. The name string to be written as
1100:.\Generated_Source\PSoC4/BLE.c ****     *              the local device name. It represents a UTF-8 encoded User
1101:.\Generated_Source\PSoC4/BLE.c ****     *              Friendly Descriptive Name for the device. The length of the local
1102:.\Generated_Source\PSoC4/BLE.c ****     *              device string is entered into the component customizer and it can
1103:.\Generated_Source\PSoC4/BLE.c ****     *              be set to a value from 0 to 248 bytes. If the name contained in
1104:.\Generated_Source\PSoC4/BLE.c ****     *              the parameter is shorter than the length from the customizer, the
1105:.\Generated_Source\PSoC4/BLE.c ****     *              end of the name is indicated by a NULL octet (0x00).
1106:.\Generated_Source\PSoC4/BLE.c ****     * 
1107:.\Generated_Source\PSoC4/BLE.c ****     * \return
1108:.\Generated_Source\PSoC4/BLE.c ****     *  CYBLE_API_RESULT_T : Return value indicates if the function succeeded or 
1109:.\Generated_Source\PSoC4/BLE.c ****     *  failed. Following are the possible error codes.
1110:.\Generated_Source\PSoC4/BLE.c ****     *
1111:.\Generated_Source\PSoC4/BLE.c ****     *   Errors codes                       | Description
1112:.\Generated_Source\PSoC4/BLE.c ****     *   ------------                       | -----------
1113:.\Generated_Source\PSoC4/BLE.c ****     *   CYBLE_ERROR_OK                     | Function completed successfully.
1114:.\Generated_Source\PSoC4/BLE.c ****     *   CYBLE_ERROR_INVALID_PARAMETER      | On specifying NULL as input parameter
1115:.\Generated_Source\PSoC4/BLE.c ****     *  
1116:.\Generated_Source\PSoC4/BLE.c ****     *******************************************************************************/
1117:.\Generated_Source\PSoC4/BLE.c ****     CYBLE_API_RESULT_T CyBle_GapSetLocalName(const char8 name[])
1118:.\Generated_Source\PSoC4/BLE.c ****     {
 938              		.loc 1 1118 0
 939              		.cfi_startproc
 940              	.LVL70:
 941 0000 10B5     		push	{r4, lr}
ARM GAS  C:\Users\Helon\AppData\Local\Temp\ccEruqe3.s 			page 40


 942              		.cfi_def_cfa_offset 8
 943              		.cfi_offset 4, -8
 944              		.cfi_offset 14, -4
1119:.\Generated_Source\PSoC4/BLE.c ****         CYBLE_API_RESULT_T apiResult = CYBLE_ERROR_OK;
1120:.\Generated_Source\PSoC4/BLE.c ****         uint8 i;
1121:.\Generated_Source\PSoC4/BLE.c ****         char8 *ptr;
1122:.\Generated_Source\PSoC4/BLE.c ****         uint8 charLen;
1123:.\Generated_Source\PSoC4/BLE.c **** 
1124:.\Generated_Source\PSoC4/BLE.c ****         if(NULL != name)
1125:.\Generated_Source\PSoC4/BLE.c ****         {
1126:.\Generated_Source\PSoC4/BLE.c ****             /* Get the pointer to the Device Name characteristic  */
1127:.\Generated_Source\PSoC4/BLE.c ****             ptr = (char8 *) CYBLE_GATT_DB_ATTR_GET_ATTR_GEN_PTR(CYBLE_GAP_DEVICE_NAME_INDEX + 1u);
1128:.\Generated_Source\PSoC4/BLE.c **** 
1129:.\Generated_Source\PSoC4/BLE.c ****             /* First need to get the maximum length of the characteristic data in the GATT
1130:.\Generated_Source\PSoC4/BLE.c ****                 database to make sure there is enough place for the data. The length
1131:.\Generated_Source\PSoC4/BLE.c ****                 can't be longer than 248, so only the LSB of 16 bit of length is to
1132:.\Generated_Source\PSoC4/BLE.c ****                 be used. */
1133:.\Generated_Source\PSoC4/BLE.c ****             charLen = (uint8)CYBLE_GATT_DB_ATTR_GET_ATTR_GEN_MAX_LEN(CYBLE_GAP_DEVICE_NAME_INDEX + 
1134:.\Generated_Source\PSoC4/BLE.c **** 
1135:.\Generated_Source\PSoC4/BLE.c ****             /* Copy name into characteristic */
1136:.\Generated_Source\PSoC4/BLE.c ****             for(i = 0u; ((i < charLen) && (CYBLE_NULL_CHARCTER != name[i])); i++)
1137:.\Generated_Source\PSoC4/BLE.c ****             {
1138:.\Generated_Source\PSoC4/BLE.c ****                 ptr[i] = name[i];
1139:.\Generated_Source\PSoC4/BLE.c ****             }
1140:.\Generated_Source\PSoC4/BLE.c **** 
1141:.\Generated_Source\PSoC4/BLE.c ****             if(i < charLen)
1142:.\Generated_Source\PSoC4/BLE.c ****             {
1143:.\Generated_Source\PSoC4/BLE.c ****                 /* Terminate string */
1144:.\Generated_Source\PSoC4/BLE.c ****                 ptr[i] = CYBLE_NULL_CHARCTER;
1145:.\Generated_Source\PSoC4/BLE.c ****             }
1146:.\Generated_Source\PSoC4/BLE.c ****             
1147:.\Generated_Source\PSoC4/BLE.c ****             /* Set new actual length */
1148:.\Generated_Source\PSoC4/BLE.c ****             
1149:.\Generated_Source\PSoC4/BLE.c ****             /* Update device name in advertising and scan response structure */
1150:.\Generated_Source\PSoC4/BLE.c ****             #if(CYBLE_GAP_ROLE_PERIPHERAL)
1151:.\Generated_Source\PSoC4/BLE.c ****                 CyBle_ChangeAdLocalName(name, 0u);
1152:.\Generated_Source\PSoC4/BLE.c ****                 CyBle_ChangeAdLocalName(name, 1u);
1153:.\Generated_Source\PSoC4/BLE.c ****             #endif /* (CYBLE_GAP_ROLE_PERIPHERAL) */
1154:.\Generated_Source\PSoC4/BLE.c ****         }
1155:.\Generated_Source\PSoC4/BLE.c ****         else
1156:.\Generated_Source\PSoC4/BLE.c ****         {
1157:.\Generated_Source\PSoC4/BLE.c ****             apiResult = CYBLE_ERROR_INVALID_PARAMETER;
 945              		.loc 1 1157 0
 946 0002 0123     		mov	r3, #1
1124:.\Generated_Source\PSoC4/BLE.c ****         {
 947              		.loc 1 1124 0
 948 0004 0028     		cmp	r0, #0
 949 0006 18D0     		beq	.L101
1127:.\Generated_Source\PSoC4/BLE.c **** 
 950              		.loc 1 1127 0
 951 0008 0D4B     		ldr	r3, .L104
 952 000a 9A6B     		ldr	r2, [r3, #56]
1133:.\Generated_Source\PSoC4/BLE.c **** 
 953              		.loc 1 1133 0
 954 000c 998E     		ldrh	r1, [r3, #52]
1136:.\Generated_Source\PSoC4/BLE.c ****             {
 955              		.loc 1 1136 0
ARM GAS  C:\Users\Helon\AppData\Local\Temp\ccEruqe3.s 			page 41


 956 000e 0023     		mov	r3, #0
1127:.\Generated_Source\PSoC4/BLE.c **** 
 957              		.loc 1 1127 0
 958 0010 5468     		ldr	r4, [r2, #4]
 959              	.LVL71:
1133:.\Generated_Source\PSoC4/BLE.c **** 
 960              		.loc 1 1133 0
 961 0012 C9B2     		uxtb	r1, r1
 962              	.LVL72:
 963              	.L96:
1136:.\Generated_Source\PSoC4/BLE.c ****             {
 964              		.loc 1 1136 0 discriminator 1
 965 0014 DAB2     		uxtb	r2, r3
 966 0016 8A42     		cmp	r2, r1
 967 0018 06D2     		bcs	.L97
1136:.\Generated_Source\PSoC4/BLE.c ****             {
 968              		.loc 1 1136 0 is_stmt 0 discriminator 3
 969 001a C25C     		ldrb	r2, [r0, r3]
 970 001c 002A     		cmp	r2, #0
 971 001e 02D0     		beq	.L103
1138:.\Generated_Source\PSoC4/BLE.c ****             }
 972              		.loc 1 1138 0 is_stmt 1 discriminator 4
 973 0020 E254     		strb	r2, [r4, r3]
 974              	.LVL73:
 975 0022 0133     		add	r3, r3, #1
 976              	.LVL74:
 977 0024 F6E7     		b	.L96
 978              	.LVL75:
 979              	.L103:
1144:.\Generated_Source\PSoC4/BLE.c ****             }
 980              		.loc 1 1144 0
 981 0026 E254     		strb	r2, [r4, r3]
 982              	.L97:
 983 0028 041C     		mov	r4, r0
 984              	.LVL76:
1151:.\Generated_Source\PSoC4/BLE.c ****                 CyBle_ChangeAdLocalName(name, 1u);
 985              		.loc 1 1151 0
 986 002a 0021     		mov	r1, #0
 987              	.LVL77:
 988 002c FFF7FEFF 		bl	CyBle_ChangeAdLocalName
 989              	.LVL78:
1152:.\Generated_Source\PSoC4/BLE.c ****             #endif /* (CYBLE_GAP_ROLE_PERIPHERAL) */
 990              		.loc 1 1152 0
 991 0030 201C     		mov	r0, r4
 992 0032 0121     		mov	r1, #1
 993 0034 FFF7FEFF 		bl	CyBle_ChangeAdLocalName
 994              	.LVL79:
1119:.\Generated_Source\PSoC4/BLE.c ****         uint8 i;
 995              		.loc 1 1119 0
 996 0038 0023     		mov	r3, #0
 997              	.LVL80:
 998              	.L101:
1158:.\Generated_Source\PSoC4/BLE.c ****         }
1159:.\Generated_Source\PSoC4/BLE.c ****         
1160:.\Generated_Source\PSoC4/BLE.c ****         return(apiResult);
1161:.\Generated_Source\PSoC4/BLE.c ****     }
 999              		.loc 1 1161 0
ARM GAS  C:\Users\Helon\AppData\Local\Temp\ccEruqe3.s 			page 42


 1000 003a 181C     		mov	r0, r3
 1001              		@ sp needed
 1002 003c 10BD     		pop	{r4, pc}
 1003              	.L105:
 1004 003e C046     		.align	2
 1005              	.L104:
 1006 0040 00000000 		.word	cyBle_gattDB
 1007              		.cfi_endproc
 1008              	.LFE15:
 1009              		.size	CyBle_GapSetLocalName, .-CyBle_GapSetLocalName
 1010              		.section	.text.CyBle_GapGetLocalName,"ax",%progbits
 1011              		.align	1
 1012              		.global	CyBle_GapGetLocalName
 1013              		.code	16
 1014              		.thumb_func
 1015              		.type	CyBle_GapGetLocalName, %function
 1016              	CyBle_GapGetLocalName:
 1017              	.LFB16:
1162:.\Generated_Source\PSoC4/BLE.c **** 
1163:.\Generated_Source\PSoC4/BLE.c **** 
1164:.\Generated_Source\PSoC4/BLE.c ****     /******************************************************************************
1165:.\Generated_Source\PSoC4/BLE.c ****     * Function Name: CyBle_GapGetLocalName
1166:.\Generated_Source\PSoC4/BLE.c ****     ***************************************************************************//**
1167:.\Generated_Source\PSoC4/BLE.c ****     *  
1168:.\Generated_Source\PSoC4/BLE.c ****     *  This API is used to read the local device name - a Characteristic of the 
1169:.\Generated_Source\PSoC4/BLE.c ****     *  GAP Service.
1170:.\Generated_Source\PSoC4/BLE.c ****     * 
1171:.\Generated_Source\PSoC4/BLE.c ****     * \param name: The local device name string. Used to read the local name to the
1172:.\Generated_Source\PSoC4/BLE.c ****     *             given string array. It represents a UTF-8 encoded User Friendly 
1173:.\Generated_Source\PSoC4/BLE.c ****     *             Descriptive Name for the device. The length of the local device
1174:.\Generated_Source\PSoC4/BLE.c ****     *             string is entered into the component customizer and it can be set
1175:.\Generated_Source\PSoC4/BLE.c ****     *             to a value from 0 to 248 bytes. If the name contained in the
1176:.\Generated_Source\PSoC4/BLE.c ****     *             parameter is shorter than the length from the customizer, the end
1177:.\Generated_Source\PSoC4/BLE.c ****     *             of the name is indicated by a NULL octet (0x00).
1178:.\Generated_Source\PSoC4/BLE.c ****     * 
1179:.\Generated_Source\PSoC4/BLE.c ****     * \return
1180:.\Generated_Source\PSoC4/BLE.c ****     *  CYBLE_API_RESULT_T : Return value indicates if the function succeeded or 
1181:.\Generated_Source\PSoC4/BLE.c ****     *  failed. Following are the possible error codes.
1182:.\Generated_Source\PSoC4/BLE.c ****     *
1183:.\Generated_Source\PSoC4/BLE.c ****     *   Errors codes                       | Description
1184:.\Generated_Source\PSoC4/BLE.c ****     *   ------------                       | -----------
1185:.\Generated_Source\PSoC4/BLE.c ****     *   CYBLE_ERROR_OK                     | Function completed successfully.
1186:.\Generated_Source\PSoC4/BLE.c ****     *   CYBLE_ERROR_INVALID_PARAMETER      | On specifying NULL as input parameter
1187:.\Generated_Source\PSoC4/BLE.c ****     *
1188:.\Generated_Source\PSoC4/BLE.c ****     *******************************************************************************/
1189:.\Generated_Source\PSoC4/BLE.c ****     CYBLE_API_RESULT_T CyBle_GapGetLocalName(char8 name[])
1190:.\Generated_Source\PSoC4/BLE.c ****     {
 1018              		.loc 1 1190 0
 1019              		.cfi_startproc
 1020              	.LVL81:
 1021 0000 021C     		mov	r2, r0
 1022 0002 30B5     		push	{r4, r5, lr}
 1023              		.cfi_def_cfa_offset 12
 1024              		.cfi_offset 4, -12
 1025              		.cfi_offset 5, -8
 1026              		.cfi_offset 14, -4
1191:.\Generated_Source\PSoC4/BLE.c ****         CYBLE_API_RESULT_T apiResult = CYBLE_ERROR_OK;
ARM GAS  C:\Users\Helon\AppData\Local\Temp\ccEruqe3.s 			page 43


1192:.\Generated_Source\PSoC4/BLE.c ****         uint8 charLen;
1193:.\Generated_Source\PSoC4/BLE.c ****         uint8 i;
1194:.\Generated_Source\PSoC4/BLE.c ****         char8 *ptr;
1195:.\Generated_Source\PSoC4/BLE.c **** 
1196:.\Generated_Source\PSoC4/BLE.c ****         if(NULL != name)
1197:.\Generated_Source\PSoC4/BLE.c ****         {
1198:.\Generated_Source\PSoC4/BLE.c ****             /* Get the pointer to the Device Name characteristic  */
1199:.\Generated_Source\PSoC4/BLE.c ****             ptr = (char8 *) CYBLE_GATT_DB_ATTR_GET_ATTR_GEN_PTR(CYBLE_GAP_DEVICE_NAME_INDEX + 1u);
1200:.\Generated_Source\PSoC4/BLE.c **** 
1201:.\Generated_Source\PSoC4/BLE.c ****             /* First need to get the length of the characteristic data in the GATT
1202:.\Generated_Source\PSoC4/BLE.c ****                 database to make sure there is enough place for the data. The length
1203:.\Generated_Source\PSoC4/BLE.c ****                 can't be longer than 248, so only the LSB of 16 bit of length is to
1204:.\Generated_Source\PSoC4/BLE.c ****                 be used. */
1205:.\Generated_Source\PSoC4/BLE.c ****             charLen = (uint8)CYBLE_GATT_DB_ATTR_GET_ATTR_GEN_LEN(CYBLE_GAP_DEVICE_NAME_INDEX + 1u);
1206:.\Generated_Source\PSoC4/BLE.c **** 
1207:.\Generated_Source\PSoC4/BLE.c ****             /* Copy name from characteristic */
1208:.\Generated_Source\PSoC4/BLE.c ****             for(i = 0u; ((i < charLen) && (CYBLE_NULL_CHARCTER != ptr[i])); i++)
1209:.\Generated_Source\PSoC4/BLE.c ****             {
1210:.\Generated_Source\PSoC4/BLE.c ****                 name[i] = ptr[i];
1211:.\Generated_Source\PSoC4/BLE.c ****             }
1212:.\Generated_Source\PSoC4/BLE.c **** 
1213:.\Generated_Source\PSoC4/BLE.c ****             /* Terminate string */
1214:.\Generated_Source\PSoC4/BLE.c ****             name[i] = CYBLE_NULL_CHARCTER;
1215:.\Generated_Source\PSoC4/BLE.c ****         }
1216:.\Generated_Source\PSoC4/BLE.c ****         else
1217:.\Generated_Source\PSoC4/BLE.c ****         {
1218:.\Generated_Source\PSoC4/BLE.c ****             apiResult = CYBLE_ERROR_INVALID_PARAMETER;
 1027              		.loc 1 1218 0
 1028 0004 0120     		mov	r0, #1
 1029              	.LVL82:
1196:.\Generated_Source\PSoC4/BLE.c ****         {
 1030              		.loc 1 1196 0
 1031 0006 002A     		cmp	r2, #0
 1032 0008 11D0     		beq	.L107
1199:.\Generated_Source\PSoC4/BLE.c **** 
 1033              		.loc 1 1199 0
 1034 000a 094B     		ldr	r3, .L113
 1035 000c 9B6B     		ldr	r3, [r3, #56]
 1036 000e 5C68     		ldr	r4, [r3, #4]
 1037              	.LVL83:
1205:.\Generated_Source\PSoC4/BLE.c **** 
 1038              		.loc 1 1205 0
 1039 0010 1D78     		ldrb	r5, [r3]
 1040              	.LVL84:
1208:.\Generated_Source\PSoC4/BLE.c ****             {
 1041              		.loc 1 1208 0
 1042 0012 0023     		mov	r3, #0
 1043              	.LVL85:
 1044              	.L108:
 1045 0014 D9B2     		uxtb	r1, r3
 1046              	.LVL86:
1208:.\Generated_Source\PSoC4/BLE.c ****             {
 1047              		.loc 1 1208 0 is_stmt 0 discriminator 1
 1048 0016 A942     		cmp	r1, r5
 1049 0018 03D3     		bcc	.L109
 1050              	.L111:
1214:.\Generated_Source\PSoC4/BLE.c ****         }
ARM GAS  C:\Users\Helon\AppData\Local\Temp\ccEruqe3.s 			page 44


 1051              		.loc 1 1214 0 is_stmt 1
 1052 001a 0023     		mov	r3, #0
 1053 001c 5354     		strb	r3, [r2, r1]
1191:.\Generated_Source\PSoC4/BLE.c ****         uint8 charLen;
 1054              		.loc 1 1191 0
 1055 001e 181C     		mov	r0, r3
 1056 0020 05E0     		b	.L107
 1057              	.L109:
1208:.\Generated_Source\PSoC4/BLE.c ****             {
 1058              		.loc 1 1208 0 discriminator 3
 1059 0022 E05C     		ldrb	r0, [r4, r3]
 1060 0024 0028     		cmp	r0, #0
 1061 0026 F8D0     		beq	.L111
1210:.\Generated_Source\PSoC4/BLE.c ****             }
 1062              		.loc 1 1210 0 discriminator 4
 1063 0028 D054     		strb	r0, [r2, r3]
 1064              	.LVL87:
 1065 002a 0133     		add	r3, r3, #1
 1066              	.LVL88:
 1067 002c F2E7     		b	.L108
 1068              	.LVL89:
 1069              	.L107:
1219:.\Generated_Source\PSoC4/BLE.c ****         }
1220:.\Generated_Source\PSoC4/BLE.c ****         
1221:.\Generated_Source\PSoC4/BLE.c ****         return(apiResult);
1222:.\Generated_Source\PSoC4/BLE.c ****     }
 1070              		.loc 1 1222 0
 1071              		@ sp needed
 1072 002e 30BD     		pop	{r4, r5, pc}
 1073              	.L114:
 1074              		.align	2
 1075              	.L113:
 1076 0030 00000000 		.word	cyBle_gattDB
 1077              		.cfi_endproc
 1078              	.LFE16:
 1079              		.size	CyBle_GapGetLocalName, .-CyBle_GapGetLocalName
 1080              		.section	.text.CyBle_Get16ByPtr,"ax",%progbits
 1081              		.align	1
 1082              		.global	CyBle_Get16ByPtr
 1083              		.code	16
 1084              		.thumb_func
 1085              		.type	CyBle_Get16ByPtr, %function
 1086              	CyBle_Get16ByPtr:
 1087              	.LFB17:
1223:.\Generated_Source\PSoC4/BLE.c **** 
1224:.\Generated_Source\PSoC4/BLE.c **** #endif /* (CYBLE_GATT_ROLE_SERVER) */
1225:.\Generated_Source\PSoC4/BLE.c **** 
1226:.\Generated_Source\PSoC4/BLE.c **** 
1227:.\Generated_Source\PSoC4/BLE.c **** /******************************************************************************
1228:.\Generated_Source\PSoC4/BLE.c **** * Function Name: CyBle_Get16ByPtr
1229:.\Generated_Source\PSoC4/BLE.c **** ***************************************************************************//**
1230:.\Generated_Source\PSoC4/BLE.c **** * 
1231:.\Generated_Source\PSoC4/BLE.c **** *  Returns the two-bytes value by using a pointer to the LSB.
1232:.\Generated_Source\PSoC4/BLE.c **** * 
1233:.\Generated_Source\PSoC4/BLE.c **** *  \param ptr: Pointer to the LSB of two-bytes data (little endian).
1234:.\Generated_Source\PSoC4/BLE.c **** * 
1235:.\Generated_Source\PSoC4/BLE.c **** *  \return
ARM GAS  C:\Users\Helon\AppData\Local\Temp\ccEruqe3.s 			page 45


1236:.\Generated_Source\PSoC4/BLE.c **** *  uint16: Two-bytes data.
1237:.\Generated_Source\PSoC4/BLE.c **** * 
1238:.\Generated_Source\PSoC4/BLE.c **** ******************************************************************************/
1239:.\Generated_Source\PSoC4/BLE.c **** uint16 CyBle_Get16ByPtr(const uint8 ptr[])
1240:.\Generated_Source\PSoC4/BLE.c **** {
 1088              		.loc 1 1240 0
 1089              		.cfi_startproc
 1090              	.LVL90:
1241:.\Generated_Source\PSoC4/BLE.c ****     return ((uint16) ptr[0u] | ((uint16) (((uint16) ptr[1u]) << 8u)));
 1091              		.loc 1 1241 0
 1092 0000 4378     		ldrb	r3, [r0, #1]
 1093 0002 0078     		ldrb	r0, [r0]
 1094              	.LVL91:
 1095 0004 1B02     		lsl	r3, r3, #8
 1096 0006 1843     		orr	r0, r3
1242:.\Generated_Source\PSoC4/BLE.c **** }
 1097              		.loc 1 1242 0
 1098              		@ sp needed
 1099 0008 7047     		bx	lr
 1100              		.cfi_endproc
 1101              	.LFE17:
 1102              		.size	CyBle_Get16ByPtr, .-CyBle_Get16ByPtr
 1103              		.section	.text.CyBle_Set16ByPtr,"ax",%progbits
 1104              		.align	1
 1105              		.global	CyBle_Set16ByPtr
 1106              		.code	16
 1107              		.thumb_func
 1108              		.type	CyBle_Set16ByPtr, %function
 1109              	CyBle_Set16ByPtr:
 1110              	.LFB18:
1243:.\Generated_Source\PSoC4/BLE.c **** 
1244:.\Generated_Source\PSoC4/BLE.c **** 
1245:.\Generated_Source\PSoC4/BLE.c **** /******************************************************************************
1246:.\Generated_Source\PSoC4/BLE.c **** * Function Name: CyBle_Set16ByPtr
1247:.\Generated_Source\PSoC4/BLE.c **** ***************************************************************************//**
1248:.\Generated_Source\PSoC4/BLE.c **** * 
1249:.\Generated_Source\PSoC4/BLE.c **** *  Sets the two-bytes value by using a pointer to the LSB.
1250:.\Generated_Source\PSoC4/BLE.c **** * 
1251:.\Generated_Source\PSoC4/BLE.c **** *  \param ptr:    Pointer to the LSB of two-bytes data (little endian).
1252:.\Generated_Source\PSoC4/BLE.c **** *  \param value:  Two-bytes data to be written.
1253:.\Generated_Source\PSoC4/BLE.c **** * 
1254:.\Generated_Source\PSoC4/BLE.c **** *  \return
1255:.\Generated_Source\PSoC4/BLE.c **** *  None
1256:.\Generated_Source\PSoC4/BLE.c **** * 
1257:.\Generated_Source\PSoC4/BLE.c **** ******************************************************************************/
1258:.\Generated_Source\PSoC4/BLE.c **** void CyBle_Set16ByPtr(uint8 ptr[], uint16 value)
1259:.\Generated_Source\PSoC4/BLE.c **** {
 1111              		.loc 1 1259 0
 1112              		.cfi_startproc
 1113              	.LVL92:
1260:.\Generated_Source\PSoC4/BLE.c ****     ptr[0u] = (uint8) value;
 1114              		.loc 1 1260 0
 1115 0000 0170     		strb	r1, [r0]
1261:.\Generated_Source\PSoC4/BLE.c ****     ptr[1u] = (uint8) (value >> 8u);
 1116              		.loc 1 1261 0
 1117 0002 090A     		lsr	r1, r1, #8
 1118              	.LVL93:
ARM GAS  C:\Users\Helon\AppData\Local\Temp\ccEruqe3.s 			page 46


 1119 0004 4170     		strb	r1, [r0, #1]
1262:.\Generated_Source\PSoC4/BLE.c **** }
 1120              		.loc 1 1262 0
 1121              		@ sp needed
 1122 0006 7047     		bx	lr
 1123              		.cfi_endproc
 1124              	.LFE18:
 1125              		.size	CyBle_Set16ByPtr, .-CyBle_Set16ByPtr
 1126              		.global	cyBle_StackFlashptr
 1127              		.global	cyBle_sflashDeviceAddress
 1128              		.global	cyBle_deviceAddress
 1129              		.comm	CyBle_ApplCallback,4,4
 1130              		.comm	cyBle_pendingFlashWrite,1,1
 1131              		.comm	cyBle_peerBonding,1,1
 1132              		.global	cyBle_discoveryInfo
 1133              		.comm	cyBle_connectingTimeout,2,2
 1134              		.comm	cyBle_connectionParameters,26,2
 1135              		.global	cyBle_discoveryModeInfo
 1136              		.global	cyBle_scanRspData
 1137              		.global	cyBle_discoveryData
 1138              		.global	cyBle_discoveryParam
 1139              		.comm	cyBle_stackMemoryRam,4260,8
 1140              		.global	cyBle_initVar
 1141              		.section	.rodata
 1142              		.align	7
 1143              		.set	.LANCHOR2,. + 0
 1144              	.LC0:
 1145 0000 0C02     		.short	524
 1146 0002 03       		.byte	3
 1147 0003 00       		.space	1
 1148 0004 4000     		.short	64
 1149 0006 01       		.byte	1
 1150 0007 00       		.space	1
 1151 0008 3000     		.short	48
 1152 000a 01       		.byte	1
 1153 000b 00       		.space	1
 1154 000c 4800     		.short	72
 1155 000e 01       		.byte	1
 1156 000f 00       		.space	1
 1157 0010 2400     		.short	36
 1158 0012 01       		.byte	1
 1159 0013 00       		.space	1
 1160 0014 2400     		.short	36
 1161 0016 01       		.byte	1
 1162 0017 00       		.space	1
 1163 0018 00000000 		.space	104
 1163      00000000 
 1163      00000000 
 1163      00000000 
 1163      00000000 
 1164              		.type	cyBle_StackFlashptr, %object
 1165              		.size	cyBle_StackFlashptr, 365
 1166              	cyBle_StackFlashptr:
 1167 0080 00000000 		.space	365
 1167      00000000 
 1167      00000000 
 1167      00000000 
ARM GAS  C:\Users\Helon\AppData\Local\Temp\ccEruqe3.s 			page 47


 1167      00000000 
 1168 01ed 00000000 		.data
 1168      00000000 
 1168      00000000 
 1168      00000000 
 1168      000000
 1169              		.align	2
 1170              		.set	.LANCHOR0,. + 0
 1171              		.type	cyBle_discoveryData, %object
 1172              		.size	cyBle_discoveryData, 32
 1173              	cyBle_discoveryData:
 1174 0000 02       		.byte	2
 1175 0001 01       		.byte	1
 1176 0002 06       		.byte	6
 1177 0003 18       		.byte	24
 1178 0004 09       		.byte	9
 1179 0005 54       		.byte	84
 1180 0006 68       		.byte	104
 1181 0007 72       		.byte	114
 1182 0008 6F       		.byte	111
 1183 0009 75       		.byte	117
 1184 000a 67       		.byte	103
 1185 000b 68       		.byte	104
 1186 000c 70       		.byte	112
 1187 000d 75       		.byte	117
 1188 000e 74       		.byte	116
 1189 000f 20       		.byte	32
 1190 0010 20       		.byte	32
 1191 0011 20       		.byte	32
 1192 0012 20       		.byte	32
 1193 0013 20       		.byte	32
 1194 0014 20       		.byte	32
 1195 0015 20       		.byte	32
 1196 0016 20       		.byte	32
 1197 0017 20       		.byte	32
 1198 0018 20       		.byte	32
 1199 0019 20       		.byte	32
 1200 001a 20       		.byte	32
 1201 001b 20       		.byte	32
 1202 001c 02       		.byte	2
 1203 001d 0A       		.byte	10
 1204 001e 00       		.byte	0
 1205 001f 1F       		.byte	31
 1206              		.type	cyBle_discoveryInfo, %object
 1207              		.size	cyBle_discoveryInfo, 12
 1208              	cyBle_discoveryInfo:
 1209 0020 02       		.byte	2
 1210 0021 01       		.byte	1
 1211 0022 3000     		.short	48
 1212 0024 3000     		.short	48
 1213 0026 00       		.byte	0
 1214 0027 00       		.byte	0
 1215 0028 0A00     		.short	10
 1216 002a 01       		.byte	1
 1217 002b 00       		.space	1
 1218              		.type	cyBle_discoveryModeInfo, %object
 1219              		.size	cyBle_discoveryModeInfo, 20
ARM GAS  C:\Users\Helon\AppData\Local\Temp\ccEruqe3.s 			page 48


 1220              	cyBle_discoveryModeInfo:
 1221 002c 02       		.byte	2
 1222 002d 000000   		.space	3
 1223 0030 00000000 		.word	cyBle_discoveryParam
 1224 0034 00000000 		.word	cyBle_discoveryData
 1225 0038 00000000 		.word	cyBle_scanRspData
 1226 003c 1E00     		.short	30
 1227 003e 0000     		.space	2
 1228              		.type	cyBle_sflashDeviceAddress, %object
 1229              		.size	cyBle_sflashDeviceAddress, 4
 1230              	cyBle_sflashDeviceAddress:
 1231 0040 00F2FF0F 		.word	268431872
 1232              		.type	cyBle_deviceAddress, %object
 1233              		.size	cyBle_deviceAddress, 7
 1234              	cyBle_deviceAddress:
 1235 0044 00       		.byte	0
 1236 0045 00       		.byte	0
 1237 0046 00       		.byte	0
 1238 0047 50       		.byte	80
 1239 0048 A0       		.byte	-96
 1240 0049 00       		.byte	0
 1241 004a 00       		.byte	0
 1242 004b 00       		.space	1
 1243              		.type	cyBle_discoveryParam, %object
 1244              		.size	cyBle_discoveryParam, 16
 1245              	cyBle_discoveryParam:
 1246 004c 2000     		.short	32
 1247 004e 2000     		.short	32
 1248 0050 00       		.byte	0
 1249 0051 00       		.byte	0
 1250 0052 00       		.byte	0
 1251 0053 00       		.byte	0
 1252 0054 00       		.byte	0
 1253 0055 00       		.byte	0
 1254 0056 50       		.byte	80
 1255 0057 A0       		.byte	-96
 1256 0058 00       		.byte	0
 1257 0059 07       		.byte	7
 1258 005a 00       		.byte	0
 1259 005b 00       		.space	1
 1260              		.bss
 1261              		.set	.LANCHOR1,. + 0
 1262              		.type	cyBle_scanRspData, %object
 1263              		.size	cyBle_scanRspData, 32
 1264              	cyBle_scanRspData:
 1265 0000 00000000 		.space	32
 1265      00000000 
 1265      00000000 
 1265      00000000 
 1265      00000000 
 1266              		.type	cyBle_initVar, %object
 1267              		.size	cyBle_initVar, 1
 1268              	cyBle_initVar:
 1269 0020 00       		.space	1
 1270              		.text
 1271              	.Letext0:
 1272              		.file 2 ".\\Generated_Source\\PSoC4\\cytypes.h"
ARM GAS  C:\Users\Helon\AppData\Local\Temp\ccEruqe3.s 			page 49


 1273              		.file 3 ".\\Generated_Source\\PSoC4\\BLE_Stack.h"
 1274              		.file 4 ".\\Generated_Source\\PSoC4\\BLE_StackGap.h"
 1275              		.file 5 ".\\Generated_Source\\PSoC4\\BLE_StackGatt.h"
 1276              		.file 6 ".\\Generated_Source\\PSoC4\\BLE_StackGattDb.h"
 1277              		.file 7 ".\\Generated_Source\\PSoC4\\BLE.h"
 1278              		.file 8 ".\\Generated_Source\\PSoC4\\BLE_gatt.h"
 1279              		.file 9 ".\\Generated_Source\\PSoC4\\BLE_eventHandler.h"
 1280              		.file 10 ".\\Generated_Source\\PSoC4\\BLE_custom.h"
 1281              		.file 11 ".\\Generated_Source\\PSoC4\\BLE_StackHostMain.h"