ARM GAS  C:\Users\Helon\AppData\Local\Temp\cc2OGx1X.s 			page 1


   1              		.cpu cortex-m0
   2              		.fpu softvfp
   3              		.eabi_attribute 20, 1
   4              		.eabi_attribute 21, 1
   5              		.eabi_attribute 23, 3
   6              		.eabi_attribute 24, 1
   7              		.eabi_attribute 25, 1
   8              		.eabi_attribute 26, 1
   9              		.eabi_attribute 30, 4
  10              		.eabi_attribute 34, 0
  11              		.eabi_attribute 18, 4
  12              		.code	16
  13              		.file	"BLE_eventHandler.c"
  14              		.text
  15              	.Ltext0:
  16              		.cfi_sections	.debug_frame
  17              		.section	.text.CyBle_EventHandler,"ax",%progbits
  18              		.align	1
  19              		.global	CyBle_EventHandler
  20              		.code	16
  21              		.thumb_func
  22              		.type	CyBle_EventHandler, %function
  23              	CyBle_EventHandler:
  24              	.LFB10:
  25              		.file 1 ".\\Generated_Source\\PSoC4\\BLE_eventHandler.c"
   1:.\Generated_Source\PSoC4/BLE_eventHandler.c **** /***************************************************************************//**
   2:.\Generated_Source\PSoC4/BLE_eventHandler.c **** * \file CYBLE_eventHandler.c
   3:.\Generated_Source\PSoC4/BLE_eventHandler.c **** * \version 2.30
   4:.\Generated_Source\PSoC4/BLE_eventHandler.c **** * 
   5:.\Generated_Source\PSoC4/BLE_eventHandler.c **** * \brief
   6:.\Generated_Source\PSoC4/BLE_eventHandler.c **** *  This file contains the source code for the Event Handler State Machine
   7:.\Generated_Source\PSoC4/BLE_eventHandler.c **** *  of the BLE Component.
   8:.\Generated_Source\PSoC4/BLE_eventHandler.c **** * 
   9:.\Generated_Source\PSoC4/BLE_eventHandler.c **** ********************************************************************************
  10:.\Generated_Source\PSoC4/BLE_eventHandler.c **** * \copyright
  11:.\Generated_Source\PSoC4/BLE_eventHandler.c **** * Copyright 2014-2015, Cypress Semiconductor Corporation.  All rights reserved.
  12:.\Generated_Source\PSoC4/BLE_eventHandler.c **** * You may use this file only in accordance with the license, terms, conditions,
  13:.\Generated_Source\PSoC4/BLE_eventHandler.c **** * disclaimers, and limitations in the end user license agreement accompanying
  14:.\Generated_Source\PSoC4/BLE_eventHandler.c **** * the software package with which this file was provided.
  15:.\Generated_Source\PSoC4/BLE_eventHandler.c **** *******************************************************************************/
  16:.\Generated_Source\PSoC4/BLE_eventHandler.c **** 
  17:.\Generated_Source\PSoC4/BLE_eventHandler.c **** #include "BLE_eventHandler.h"
  18:.\Generated_Source\PSoC4/BLE_eventHandler.c **** 
  19:.\Generated_Source\PSoC4/BLE_eventHandler.c **** 
  20:.\Generated_Source\PSoC4/BLE_eventHandler.c **** /***************************************
  21:.\Generated_Source\PSoC4/BLE_eventHandler.c **** * Private Function Prototypes
  22:.\Generated_Source\PSoC4/BLE_eventHandler.c **** ***************************************/
  23:.\Generated_Source\PSoC4/BLE_eventHandler.c **** 
  24:.\Generated_Source\PSoC4/BLE_eventHandler.c **** #if (CYBLE_GATT_ROLE_SERVER || CYBLE_GATT_ROLE_CLIENT)
  25:.\Generated_Source\PSoC4/BLE_eventHandler.c **** 
  26:.\Generated_Source\PSoC4/BLE_eventHandler.c **** static uint8 CyBle_IsDeviceAddressValid(const CYBLE_GAP_BD_ADDR_T *sflashDeviceAddress);
  27:.\Generated_Source\PSoC4/BLE_eventHandler.c **** 
  28:.\Generated_Source\PSoC4/BLE_eventHandler.c **** #endif /* CYBLE_GATT_ROLE_SERVER || CYBLE_GATT_ROLE_CLIENT */
  29:.\Generated_Source\PSoC4/BLE_eventHandler.c **** 
  30:.\Generated_Source\PSoC4/BLE_eventHandler.c **** static void CyBle_GattDisconnectEventHandler(void);
  31:.\Generated_Source\PSoC4/BLE_eventHandler.c **** static void CyBle_TimeOutEventHandler(const CYBLE_TO_REASON_CODE_T *eventParam);
  32:.\Generated_Source\PSoC4/BLE_eventHandler.c **** static void CyBle_GattConnectReqHandler(void);
ARM GAS  C:\Users\Helon\AppData\Local\Temp\cc2OGx1X.s 			page 2


  33:.\Generated_Source\PSoC4/BLE_eventHandler.c **** static void CyBle_L2Cap_ConnParamUpdateRspEventHandler(uint16 response);
  34:.\Generated_Source\PSoC4/BLE_eventHandler.c **** static void CyBle_GapConnUpdateCompleteEventHandler(const CYBLE_GAP_CONN_PARAM_UPDATED_IN_CONTROLLE
  35:.\Generated_Source\PSoC4/BLE_eventHandler.c **** 
  36:.\Generated_Source\PSoC4/BLE_eventHandler.c **** 
  37:.\Generated_Source\PSoC4/BLE_eventHandler.c **** #if (CYBLE_GATT_ROLE_SERVER)
  38:.\Generated_Source\PSoC4/BLE_eventHandler.c **** 
  39:.\Generated_Source\PSoC4/BLE_eventHandler.c **** static void CyBle_WriteReqHandler(CYBLE_GATTS_WRITE_REQ_PARAM_T *eventParam);
  40:.\Generated_Source\PSoC4/BLE_eventHandler.c **** static void CyBle_ValueConfirmation(const CYBLE_CONN_HANDLE_T *eventParam);
  41:.\Generated_Source\PSoC4/BLE_eventHandler.c **** 
  42:.\Generated_Source\PSoC4/BLE_eventHandler.c **** #endif /* CYBLE_GATT_ROLE_SERVER */
  43:.\Generated_Source\PSoC4/BLE_eventHandler.c **** 
  44:.\Generated_Source\PSoC4/BLE_eventHandler.c **** #if (CYBLE_GATT_ROLE_CLIENT)
  45:.\Generated_Source\PSoC4/BLE_eventHandler.c **** 
  46:.\Generated_Source\PSoC4/BLE_eventHandler.c **** static void CyBle_GapcDiscoverCharacteristicsEventHandler(CYBLE_DISC_CHAR_INFO_T *discCharInfo);
  47:.\Generated_Source\PSoC4/BLE_eventHandler.c **** static CYBLE_GATT_ATTR_HANDLE_RANGE_T CyBle_GetCharRange(void);
  48:.\Generated_Source\PSoC4/BLE_eventHandler.c **** static void CyBle_GattcWriteResponseEventHandler(const CYBLE_CONN_HANDLE_T *eventParam);
  49:.\Generated_Source\PSoC4/BLE_eventHandler.c **** static void CyBle_NotificationEventHandler(CYBLE_GATTC_HANDLE_VALUE_NTF_PARAM_T *eventParam);
  50:.\Generated_Source\PSoC4/BLE_eventHandler.c **** static void CyBle_IndicationEventHandler(CYBLE_GATTC_HANDLE_VALUE_IND_PARAM_T *eventParam);
  51:.\Generated_Source\PSoC4/BLE_eventHandler.c **** static void CyBle_ReadResponseEventHandler(CYBLE_GATTC_READ_RSP_PARAM_T *eventParam);
  52:.\Generated_Source\PSoC4/BLE_eventHandler.c **** 
  53:.\Generated_Source\PSoC4/BLE_eventHandler.c **** #endif /* CYBLE_GATT_ROLE_CLIENT */
  54:.\Generated_Source\PSoC4/BLE_eventHandler.c **** 
  55:.\Generated_Source\PSoC4/BLE_eventHandler.c **** 
  56:.\Generated_Source\PSoC4/BLE_eventHandler.c **** /***************************************
  57:.\Generated_Source\PSoC4/BLE_eventHandler.c **** * Global Variables
  58:.\Generated_Source\PSoC4/BLE_eventHandler.c **** ***************************************/
  59:.\Generated_Source\PSoC4/BLE_eventHandler.c **** 
  60:.\Generated_Source\PSoC4/BLE_eventHandler.c **** /* This global variable is initialized after connection with peer device, 
  61:.\Generated_Source\PSoC4/BLE_eventHandler.c ****    after CYBLE_EVT_GATT_CONNECT_IND event, and could be used by application code
  62:.\Generated_Source\PSoC4/BLE_eventHandler.c ****    to send data to peer device. 
  63:.\Generated_Source\PSoC4/BLE_eventHandler.c **** */
  64:.\Generated_Source\PSoC4/BLE_eventHandler.c **** CYBLE_CONN_HANDLE_T cyBle_connHandle;
  65:.\Generated_Source\PSoC4/BLE_eventHandler.c **** 
  66:.\Generated_Source\PSoC4/BLE_eventHandler.c **** volatile uint8 cyBle_eventHandlerFlag;
  67:.\Generated_Source\PSoC4/BLE_eventHandler.c **** volatile uint8 cyBle_busyStatus;
  68:.\Generated_Source\PSoC4/BLE_eventHandler.c **** 
  69:.\Generated_Source\PSoC4/BLE_eventHandler.c **** #if(CYBLE_GAP_ROLE_PERIPHERAL || CYBLE_GAP_ROLE_BROADCASTER) 
  70:.\Generated_Source\PSoC4/BLE_eventHandler.c ****     uint8 cyBle_advertisingIntervalType;
  71:.\Generated_Source\PSoC4/BLE_eventHandler.c **** #endif /* CYBLE_GAP_ROLE_PERIPHERAL || CYBLE_GAP_ROLE_BROADCASTER) */
  72:.\Generated_Source\PSoC4/BLE_eventHandler.c **** 
  73:.\Generated_Source\PSoC4/BLE_eventHandler.c **** #if(CYBLE_GAP_ROLE_CENTRAL || CYBLE_GAP_ROLE_OBSERVER) 
  74:.\Generated_Source\PSoC4/BLE_eventHandler.c ****     uint8 cyBle_scanningIntervalType;
  75:.\Generated_Source\PSoC4/BLE_eventHandler.c **** #endif /* CYBLE_GAP_ROLE_CENTRAL || CYBLE_GAP_ROLE_OBSERVER */
  76:.\Generated_Source\PSoC4/BLE_eventHandler.c **** 
  77:.\Generated_Source\PSoC4/BLE_eventHandler.c **** #if(CYBLE_GATT_ROLE_SERVER)
  78:.\Generated_Source\PSoC4/BLE_eventHandler.c **** #if defined CYBLE_CTS_SERVER || defined CYBLE_ESS_SERVER
  79:.\Generated_Source\PSoC4/BLE_eventHandler.c **** CYBLE_GATT_ERR_CODE_T cyBle_gattError;
  80:.\Generated_Source\PSoC4/BLE_eventHandler.c **** #endif /* defined CYBLE_CTS_SERVER || defined CYBLE_ESS_SERVER */
  81:.\Generated_Source\PSoC4/BLE_eventHandler.c **** #endif /* CYBLE_GATT_ROLE_SERVER */
  82:.\Generated_Source\PSoC4/BLE_eventHandler.c **** 
  83:.\Generated_Source\PSoC4/BLE_eventHandler.c **** #if(CYBLE_GATT_ROLE_CLIENT)
  84:.\Generated_Source\PSoC4/BLE_eventHandler.c **** uint8 cyBle_disCount; /* Counter for discovery procedures */
  85:.\Generated_Source\PSoC4/BLE_eventHandler.c **** static CYBLE_GATT_DB_ATTR_HANDLE_T cyBle_charEndHandle;
  86:.\Generated_Source\PSoC4/BLE_eventHandler.c **** /* Discovery included service information, used for 128-bit UUID read response handle 
  87:.\Generated_Source\PSoC4/BLE_eventHandler.c ****    and for continue discovery. 
  88:.\Generated_Source\PSoC4/BLE_eventHandler.c **** */
  89:.\Generated_Source\PSoC4/BLE_eventHandler.c **** static CYBLE_DISC_INCL_INFO_T cyBle_discInclInfo;
ARM GAS  C:\Users\Helon\AppData\Local\Temp\cc2OGx1X.s 			page 3


  90:.\Generated_Source\PSoC4/BLE_eventHandler.c **** #ifdef CYBLE_HIDS_CLIENT
  91:.\Generated_Source\PSoC4/BLE_eventHandler.c ****     static uint8 disServiceIndex;      /* To discovery descriptors for multiple HID service instanc
  92:.\Generated_Source\PSoC4/BLE_eventHandler.c **** #endif /* CYBLE_HIDS_CLIENT */
  93:.\Generated_Source\PSoC4/BLE_eventHandler.c **** 
  94:.\Generated_Source\PSoC4/BLE_eventHandler.c **** CYBLE_DISC_SRVC_INFO_T cyBle_serverInfo[CYBLE_SRVI_COUNT] = /*3*/
  95:.\Generated_Source\PSoC4/BLE_eventHandler.c **** {
  96:.\Generated_Source\PSoC4/BLE_eventHandler.c ****     {{CYBLE_GATT_INVALID_ATTR_HANDLE_VALUE, CYBLE_GATT_INVALID_ATTR_HANDLE_VALUE}, CYBLE_UUID_GAP_S
  97:.\Generated_Source\PSoC4/BLE_eventHandler.c ****     {{CYBLE_GATT_INVALID_ATTR_HANDLE_VALUE, CYBLE_GATT_INVALID_ATTR_HANDLE_VALUE}, CYBLE_UUID_GATT_
  98:.\Generated_Source\PSoC4/BLE_eventHandler.c **** #ifdef CYBLE_ANCS_CLIENT
  99:.\Generated_Source\PSoC4/BLE_eventHandler.c ****     {{CYBLE_GATT_INVALID_ATTR_HANDLE_VALUE, CYBLE_GATT_INVALID_ATTR_HANDLE_VALUE}, 0x0000u},
 100:.\Generated_Source\PSoC4/BLE_eventHandler.c **** #endif /* CYBLE_ANCS_CLIENT */
 101:.\Generated_Source\PSoC4/BLE_eventHandler.c **** #ifdef CYBLE_ANS_CLIENT
 102:.\Generated_Source\PSoC4/BLE_eventHandler.c ****     {{CYBLE_GATT_INVALID_ATTR_HANDLE_VALUE, CYBLE_GATT_INVALID_ATTR_HANDLE_VALUE}, 
 103:.\Generated_Source\PSoC4/BLE_eventHandler.c ****         CYBLE_UUID_ALERT_NOTIFICATION_SERVICE},
 104:.\Generated_Source\PSoC4/BLE_eventHandler.c **** #endif /* CYBLE_ANS_CLIENT */
 105:.\Generated_Source\PSoC4/BLE_eventHandler.c **** #ifdef CYBLE_BAS_CLIENT
 106:.\Generated_Source\PSoC4/BLE_eventHandler.c ****     {{CYBLE_GATT_INVALID_ATTR_HANDLE_VALUE, CYBLE_GATT_INVALID_ATTR_HANDLE_VALUE}, CYBLE_UUID_BAS_S
 107:.\Generated_Source\PSoC4/BLE_eventHandler.c ****     #if(CYBLE_BASC_SERVICE_COUNT > 1u) /* Generate it by GUI */
 108:.\Generated_Source\PSoC4/BLE_eventHandler.c ****         
 109:.\Generated_Source\PSoC4/BLE_eventHandler.c ****     #endif /* CYBLE_BASC_SERVICE_COUNT > 1u */
 110:.\Generated_Source\PSoC4/BLE_eventHandler.c **** #endif /* CYBLE_BAS_CLIENT */
 111:.\Generated_Source\PSoC4/BLE_eventHandler.c **** #ifdef CYBLE_BCS_CLIENT
 112:.\Generated_Source\PSoC4/BLE_eventHandler.c ****     {{CYBLE_GATT_INVALID_ATTR_HANDLE_VALUE, CYBLE_GATT_INVALID_ATTR_HANDLE_VALUE}, CYBLE_UUID_BODY_
 113:.\Generated_Source\PSoC4/BLE_eventHandler.c **** #endif /* CYBLE_BCS_CLIENT */
 114:.\Generated_Source\PSoC4/BLE_eventHandler.c **** #ifdef CYBLE_BLS_CLIENT
 115:.\Generated_Source\PSoC4/BLE_eventHandler.c ****     {{CYBLE_GATT_INVALID_ATTR_HANDLE_VALUE, CYBLE_GATT_INVALID_ATTR_HANDLE_VALUE}, CYBLE_UUID_BLOOD
 116:.\Generated_Source\PSoC4/BLE_eventHandler.c **** #endif /* CYBLE_BLS_CLIENT */
 117:.\Generated_Source\PSoC4/BLE_eventHandler.c **** #ifdef CYBLE_BMS_CLIENT
 118:.\Generated_Source\PSoC4/BLE_eventHandler.c ****     {{CYBLE_GATT_INVALID_ATTR_HANDLE_VALUE, CYBLE_GATT_INVALID_ATTR_HANDLE_VALUE}, CYBLE_UUID_BOND_
 119:.\Generated_Source\PSoC4/BLE_eventHandler.c **** #endif /* CYBLE_BMS_CLIENT */
 120:.\Generated_Source\PSoC4/BLE_eventHandler.c **** #ifdef CYBLE_CGMS_CLIENT
 121:.\Generated_Source\PSoC4/BLE_eventHandler.c ****     {{CYBLE_GATT_INVALID_ATTR_HANDLE_VALUE, CYBLE_GATT_INVALID_ATTR_HANDLE_VALUE}, CYBLE_UUID_CGM_S
 122:.\Generated_Source\PSoC4/BLE_eventHandler.c **** #endif /* CYBLE_CGMS_CLIENT */
 123:.\Generated_Source\PSoC4/BLE_eventHandler.c **** #ifdef CYBLE_CPS_CLIENT
 124:.\Generated_Source\PSoC4/BLE_eventHandler.c ****     {{CYBLE_GATT_INVALID_ATTR_HANDLE_VALUE, CYBLE_GATT_INVALID_ATTR_HANDLE_VALUE}, CYBLE_UUID_CPS_S
 125:.\Generated_Source\PSoC4/BLE_eventHandler.c **** #endif /* CYBLE_CPS_CLIENT */
 126:.\Generated_Source\PSoC4/BLE_eventHandler.c **** #ifdef CYBLE_CSCS_CLIENT
 127:.\Generated_Source\PSoC4/BLE_eventHandler.c ****     {{CYBLE_GATT_INVALID_ATTR_HANDLE_VALUE, CYBLE_GATT_INVALID_ATTR_HANDLE_VALUE}, 
 128:.\Generated_Source\PSoC4/BLE_eventHandler.c ****         CYBLE_UUID_CYCLING_SPEED_AND_CADENCE_SERVICE},
 129:.\Generated_Source\PSoC4/BLE_eventHandler.c **** #endif /* CYBLE_CSCS_CLIENT */
 130:.\Generated_Source\PSoC4/BLE_eventHandler.c **** #ifdef CYBLE_CTS_CLIENT
 131:.\Generated_Source\PSoC4/BLE_eventHandler.c ****     {{CYBLE_GATT_INVALID_ATTR_HANDLE_VALUE, CYBLE_GATT_INVALID_ATTR_HANDLE_VALUE}, CYBLE_UUID_CURRE
 132:.\Generated_Source\PSoC4/BLE_eventHandler.c **** #endif /* CYBLE_CTS_CLIENT */
 133:.\Generated_Source\PSoC4/BLE_eventHandler.c **** #ifdef CYBLE_CUSTOM_CLIENT
 134:.\Generated_Source\PSoC4/BLE_eventHandler.c ****     
 135:.\Generated_Source\PSoC4/BLE_eventHandler.c **** #endif /* CYBLE_CUSTOM_CLIENT */
 136:.\Generated_Source\PSoC4/BLE_eventHandler.c **** #ifdef CYBLE_DIS_CLIENT
 137:.\Generated_Source\PSoC4/BLE_eventHandler.c ****     {{CYBLE_GATT_INVALID_ATTR_HANDLE_VALUE, CYBLE_GATT_INVALID_ATTR_HANDLE_VALUE}, CYBLE_UUID_DEVIC
 138:.\Generated_Source\PSoC4/BLE_eventHandler.c **** #endif /* CYBLE_DIS_CLIENT */
 139:.\Generated_Source\PSoC4/BLE_eventHandler.c **** #ifdef CYBLE_ESS_CLIENT
 140:.\Generated_Source\PSoC4/BLE_eventHandler.c ****     {{CYBLE_GATT_INVALID_ATTR_HANDLE_VALUE, CYBLE_GATT_INVALID_ATTR_HANDLE_VALUE}, 
 141:.\Generated_Source\PSoC4/BLE_eventHandler.c ****         CYBLE_UUID_ENVIRONMENTAL_SENSING_SERVICE},
 142:.\Generated_Source\PSoC4/BLE_eventHandler.c **** #endif /* CYBLE_ESS_CLIENT */
 143:.\Generated_Source\PSoC4/BLE_eventHandler.c **** #ifdef CYBLE_GLS_CLIENT
 144:.\Generated_Source\PSoC4/BLE_eventHandler.c ****     {{CYBLE_GATT_INVALID_ATTR_HANDLE_VALUE, CYBLE_GATT_INVALID_ATTR_HANDLE_VALUE}, CYBLE_UUID_GLUCO
 145:.\Generated_Source\PSoC4/BLE_eventHandler.c **** #endif /* CYBLE_GLS_CLIENT */
 146:.\Generated_Source\PSoC4/BLE_eventHandler.c **** #ifdef CYBLE_HIDS_CLIENT
ARM GAS  C:\Users\Helon\AppData\Local\Temp\cc2OGx1X.s 			page 4


 147:.\Generated_Source\PSoC4/BLE_eventHandler.c ****     {{CYBLE_GATT_INVALID_ATTR_HANDLE_VALUE, CYBLE_GATT_INVALID_ATTR_HANDLE_VALUE}, CYBLE_UUID_HIDS_
 148:.\Generated_Source\PSoC4/BLE_eventHandler.c ****     #if(CYBLE_HIDSC_SERVICE_COUNT > 1u) /* Generate it by GUI */
 149:.\Generated_Source\PSoC4/BLE_eventHandler.c ****         
 150:.\Generated_Source\PSoC4/BLE_eventHandler.c ****     #endif /* CYBLE_HIDSC_SERVICE_COUNT > 1u */
 151:.\Generated_Source\PSoC4/BLE_eventHandler.c **** #endif /* CYBLE_HIDS_CLIENT */
 152:.\Generated_Source\PSoC4/BLE_eventHandler.c **** #ifdef CYBLE_HRS_CLIENT
 153:.\Generated_Source\PSoC4/BLE_eventHandler.c ****     {{CYBLE_GATT_INVALID_ATTR_HANDLE_VALUE, CYBLE_GATT_INVALID_ATTR_HANDLE_VALUE}, CYBLE_UUID_HEART
 154:.\Generated_Source\PSoC4/BLE_eventHandler.c **** #endif /* CYBLE_HRS_CLIENT */
 155:.\Generated_Source\PSoC4/BLE_eventHandler.c **** #ifdef CYBLE_HTS_CLIENT
 156:.\Generated_Source\PSoC4/BLE_eventHandler.c ****     {{CYBLE_GATT_INVALID_ATTR_HANDLE_VALUE, CYBLE_GATT_INVALID_ATTR_HANDLE_VALUE}, CYBLE_UUID_HEALT
 157:.\Generated_Source\PSoC4/BLE_eventHandler.c **** #endif /* CYBLE_HTS_CLIENT */
 158:.\Generated_Source\PSoC4/BLE_eventHandler.c **** #ifdef CYBLE_IAS_CLIENT
 159:.\Generated_Source\PSoC4/BLE_eventHandler.c ****     {{CYBLE_GATT_INVALID_ATTR_HANDLE_VALUE, CYBLE_GATT_INVALID_ATTR_HANDLE_VALUE}, CYBLE_UUID_IMMED
 160:.\Generated_Source\PSoC4/BLE_eventHandler.c **** #endif /* CYBLE_IAS_CLIENT */
 161:.\Generated_Source\PSoC4/BLE_eventHandler.c **** #ifdef CYBLE_LLS_CLIENT
 162:.\Generated_Source\PSoC4/BLE_eventHandler.c ****     {{CYBLE_GATT_INVALID_ATTR_HANDLE_VALUE, CYBLE_GATT_INVALID_ATTR_HANDLE_VALUE}, CYBLE_UUID_LINK_
 163:.\Generated_Source\PSoC4/BLE_eventHandler.c **** #endif /* CYBLE_LLS_CLIENT */
 164:.\Generated_Source\PSoC4/BLE_eventHandler.c **** #ifdef CYBLE_LNS_CLIENT
 165:.\Generated_Source\PSoC4/BLE_eventHandler.c ****     {{CYBLE_GATT_INVALID_ATTR_HANDLE_VALUE, CYBLE_GATT_INVALID_ATTR_HANDLE_VALUE}, CYBLE_UUID_LOCAT
 166:.\Generated_Source\PSoC4/BLE_eventHandler.c **** #endif /* CYBLE_LNS_CLIENT */
 167:.\Generated_Source\PSoC4/BLE_eventHandler.c **** #ifdef CYBLE_NDCS_CLIENT
 168:.\Generated_Source\PSoC4/BLE_eventHandler.c ****     {{CYBLE_GATT_INVALID_ATTR_HANDLE_VALUE, CYBLE_GATT_INVALID_ATTR_HANDLE_VALUE}, CYBLE_UUID_NEXT_
 169:.\Generated_Source\PSoC4/BLE_eventHandler.c **** #endif /* CYBLE_NDCS_CLIENT */
 170:.\Generated_Source\PSoC4/BLE_eventHandler.c **** #ifdef CYBLE_IPSS_CLIENT
 171:.\Generated_Source\PSoC4/BLE_eventHandler.c ****     {{CYBLE_GATT_INVALID_ATTR_HANDLE_VALUE, CYBLE_GATT_INVALID_ATTR_HANDLE_VALUE}, CYBLE_UUID_INTER
 172:.\Generated_Source\PSoC4/BLE_eventHandler.c **** #endif /* CYBLE_IPSS_CLIENT */
 173:.\Generated_Source\PSoC4/BLE_eventHandler.c **** #ifdef CYBLE_PASS_CLIENT
 174:.\Generated_Source\PSoC4/BLE_eventHandler.c ****     {{CYBLE_GATT_INVALID_ATTR_HANDLE_VALUE, CYBLE_GATT_INVALID_ATTR_HANDLE_VALUE}, CYBLE_UUID_PHONE
 175:.\Generated_Source\PSoC4/BLE_eventHandler.c **** #endif /* CYBLE_PASS_CLIENT */
 176:.\Generated_Source\PSoC4/BLE_eventHandler.c **** #ifdef CYBLE_RSCS_CLIENT
 177:.\Generated_Source\PSoC4/BLE_eventHandler.c ****     {{CYBLE_GATT_INVALID_ATTR_HANDLE_VALUE, CYBLE_GATT_INVALID_ATTR_HANDLE_VALUE}, CYBLE_UUID_RUNNI
 178:.\Generated_Source\PSoC4/BLE_eventHandler.c **** #endif /* CYBLE_RSCS_CLIENT */
 179:.\Generated_Source\PSoC4/BLE_eventHandler.c **** #ifdef CYBLE_RTUS_CLIENT
 180:.\Generated_Source\PSoC4/BLE_eventHandler.c ****     {{CYBLE_GATT_INVALID_ATTR_HANDLE_VALUE, CYBLE_GATT_INVALID_ATTR_HANDLE_VALUE}, CYBLE_UUID_REF_T
 181:.\Generated_Source\PSoC4/BLE_eventHandler.c **** #endif /* CYBLE_RTUS_CLIENT */
 182:.\Generated_Source\PSoC4/BLE_eventHandler.c **** #ifdef CYBLE_SCPS_CLIENT
 183:.\Generated_Source\PSoC4/BLE_eventHandler.c ****     {{CYBLE_GATT_INVALID_ATTR_HANDLE_VALUE, CYBLE_GATT_INVALID_ATTR_HANDLE_VALUE}, CYBLE_UUID_SCAN_
 184:.\Generated_Source\PSoC4/BLE_eventHandler.c **** #endif /* CYBLE_SCPS_CLIENT */
 185:.\Generated_Source\PSoC4/BLE_eventHandler.c **** #ifdef CYBLE_TPS_CLIENT
 186:.\Generated_Source\PSoC4/BLE_eventHandler.c ****     {{CYBLE_GATT_INVALID_ATTR_HANDLE_VALUE, CYBLE_GATT_INVALID_ATTR_HANDLE_VALUE}, CYBLE_UUID_TX_PO
 187:.\Generated_Source\PSoC4/BLE_eventHandler.c **** #endif /* CYBLE_TPS_CLIENT */
 188:.\Generated_Source\PSoC4/BLE_eventHandler.c **** #ifdef CYBLE_UDS_CLIENT
 189:.\Generated_Source\PSoC4/BLE_eventHandler.c ****     {{CYBLE_GATT_INVALID_ATTR_HANDLE_VALUE, CYBLE_GATT_INVALID_ATTR_HANDLE_VALUE}, CYBLE_UUID_USER_
 190:.\Generated_Source\PSoC4/BLE_eventHandler.c **** #endif /* CYBLE_UDS_CLIENT */
 191:.\Generated_Source\PSoC4/BLE_eventHandler.c **** #ifdef CYBLE_WSS_CLIENT
 192:.\Generated_Source\PSoC4/BLE_eventHandler.c ****     {{CYBLE_GATT_INVALID_ATTR_HANDLE_VALUE, CYBLE_GATT_INVALID_ATTR_HANDLE_VALUE}, CYBLE_UUID_WEIGH
 193:.\Generated_Source\PSoC4/BLE_eventHandler.c **** #endif /* CYBLE_WSS_CLIENT */
 194:.\Generated_Source\PSoC4/BLE_eventHandler.c **** #ifdef CYBLE_WPTS_CLIENT
 195:.\Generated_Source\PSoC4/BLE_eventHandler.c ****     {{CYBLE_GATT_INVALID_ATTR_HANDLE_VALUE, CYBLE_GATT_INVALID_ATTR_HANDLE_VALUE}, CYBLE_UUID_WIREL
 196:.\Generated_Source\PSoC4/BLE_eventHandler.c **** #endif /* CYBLE_WPTS_CLIENT */
 197:.\Generated_Source\PSoC4/BLE_eventHandler.c **** };
 198:.\Generated_Source\PSoC4/BLE_eventHandler.c **** 
 199:.\Generated_Source\PSoC4/BLE_eventHandler.c **** CYBLE_GAPC_T cyBle_gapc;
 200:.\Generated_Source\PSoC4/BLE_eventHandler.c **** 
 201:.\Generated_Source\PSoC4/BLE_eventHandler.c **** #endif /* CYBLE_GATT_ROLE_CLIENT */
 202:.\Generated_Source\PSoC4/BLE_eventHandler.c **** 
 203:.\Generated_Source\PSoC4/BLE_eventHandler.c **** /* Default device security */
ARM GAS  C:\Users\Helon\AppData\Local\Temp\cc2OGx1X.s 			page 5


 204:.\Generated_Source\PSoC4/BLE_eventHandler.c **** CYBLE_GAP_AUTH_INFO_T cyBle_authInfo =
 205:.\Generated_Source\PSoC4/BLE_eventHandler.c **** {
 206:.\Generated_Source\PSoC4/BLE_eventHandler.c ****     (CYBLE_GAP_SEC_MODE_1 | CYBLE_GAP_SEC_LEVEL_3 ), /* uint8 security */
 207:.\Generated_Source\PSoC4/BLE_eventHandler.c ****     CYBLE_GAP_BONDING_NONE, /* uint8 bonding */
 208:.\Generated_Source\PSoC4/BLE_eventHandler.c ****     0x10u,      /* uint8 ekeySize */
 209:.\Generated_Source\PSoC4/BLE_eventHandler.c ****     CYBLE_GAP_AUTH_ERROR_NONE, /* CYBLE_AUTH_FAILED_REASON_T authErr */
 210:.\Generated_Source\PSoC4/BLE_eventHandler.c **** };
 211:.\Generated_Source\PSoC4/BLE_eventHandler.c **** 
 212:.\Generated_Source\PSoC4/BLE_eventHandler.c **** #if(CYBLE_GATT_ROLE_SERVER)
 213:.\Generated_Source\PSoC4/BLE_eventHandler.c **** 
 214:.\Generated_Source\PSoC4/BLE_eventHandler.c **** 
 215:.\Generated_Source\PSoC4/BLE_eventHandler.c **** /******************************************************************************    
 216:.\Generated_Source\PSoC4/BLE_eventHandler.c **** * Function Name: CyBle_WriteReqHandler
 217:.\Generated_Source\PSoC4/BLE_eventHandler.c **** ***************************************************************************//**
 218:.\Generated_Source\PSoC4/BLE_eventHandler.c **** * 
 219:.\Generated_Source\PSoC4/BLE_eventHandler.c **** *  Handles the Write Request event from BLE stack.
 220:.\Generated_Source\PSoC4/BLE_eventHandler.c **** * 
 221:.\Generated_Source\PSoC4/BLE_eventHandler.c **** *  CYBLE_GATTS_WRITE_REQ_PARAM_T * eventParam - event parameter
 222:.\Generated_Source\PSoC4/BLE_eventHandler.c **** * 
 223:.\Generated_Source\PSoC4/BLE_eventHandler.c **** * \return
 224:.\Generated_Source\PSoC4/BLE_eventHandler.c **** *  None
 225:.\Generated_Source\PSoC4/BLE_eventHandler.c **** * 
 226:.\Generated_Source\PSoC4/BLE_eventHandler.c **** ******************************************************************************/
 227:.\Generated_Source\PSoC4/BLE_eventHandler.c **** static void CyBle_WriteReqHandler(CYBLE_GATTS_WRITE_REQ_PARAM_T *eventParam)
 228:.\Generated_Source\PSoC4/BLE_eventHandler.c **** {
 229:.\Generated_Source\PSoC4/BLE_eventHandler.c ****     CYBLE_GATT_ERR_CODE_T gattErr;
 230:.\Generated_Source\PSoC4/BLE_eventHandler.c **** #if defined CYBLE_CTS_SERVER || defined CYBLE_ESS_SERVER
 231:.\Generated_Source\PSoC4/BLE_eventHandler.c ****     cyBle_gattError = CYBLE_GATT_ERR_NONE;
 232:.\Generated_Source\PSoC4/BLE_eventHandler.c **** #endif /* defined CYBLE_CTS_SERVER || defined CYBLE_ESS_SERVER */
 233:.\Generated_Source\PSoC4/BLE_eventHandler.c ****     
 234:.\Generated_Source\PSoC4/BLE_eventHandler.c ****     gattErr = CyBle_GattsWriteEventHandler(eventParam);
 235:.\Generated_Source\PSoC4/BLE_eventHandler.c **** #ifdef CYBLE_ANCS_SERVER
 236:.\Generated_Source\PSoC4/BLE_eventHandler.c ****     if(((cyBle_eventHandlerFlag & CYBLE_CALLBACK) != 0u) && (gattErr == CYBLE_GATT_ERR_NONE))
 237:.\Generated_Source\PSoC4/BLE_eventHandler.c ****     {
 238:.\Generated_Source\PSoC4/BLE_eventHandler.c ****         gattErr = CyBle_AncssWriteEventHandler(eventParam);
 239:.\Generated_Source\PSoC4/BLE_eventHandler.c ****     }
 240:.\Generated_Source\PSoC4/BLE_eventHandler.c **** #endif /* CYBLE_ANCS_SERVER */
 241:.\Generated_Source\PSoC4/BLE_eventHandler.c **** #ifdef CYBLE_ANS_SERVER
 242:.\Generated_Source\PSoC4/BLE_eventHandler.c ****     if(((cyBle_eventHandlerFlag & CYBLE_CALLBACK) != 0u) && (gattErr == CYBLE_GATT_ERR_NONE))
 243:.\Generated_Source\PSoC4/BLE_eventHandler.c ****     {
 244:.\Generated_Source\PSoC4/BLE_eventHandler.c ****         gattErr = CyBle_AnssWriteEventHandler(eventParam);
 245:.\Generated_Source\PSoC4/BLE_eventHandler.c ****     }
 246:.\Generated_Source\PSoC4/BLE_eventHandler.c **** #endif /* CYBLE_ANS_SERVER */
 247:.\Generated_Source\PSoC4/BLE_eventHandler.c **** #ifdef CYBLE_BAS_SERVER
 248:.\Generated_Source\PSoC4/BLE_eventHandler.c ****     if(((cyBle_eventHandlerFlag & CYBLE_CALLBACK) != 0u) && (gattErr == CYBLE_GATT_ERR_NONE))
 249:.\Generated_Source\PSoC4/BLE_eventHandler.c ****     {
 250:.\Generated_Source\PSoC4/BLE_eventHandler.c ****         gattErr = CyBle_BassWriteEventHandler(eventParam);
 251:.\Generated_Source\PSoC4/BLE_eventHandler.c ****     }
 252:.\Generated_Source\PSoC4/BLE_eventHandler.c **** #endif /* CYBLE_BAS_SERVER */
 253:.\Generated_Source\PSoC4/BLE_eventHandler.c **** #ifdef CYBLE_BCS_SERVER
 254:.\Generated_Source\PSoC4/BLE_eventHandler.c ****     if(((cyBle_eventHandlerFlag & CYBLE_CALLBACK) != 0u) && (gattErr == CYBLE_GATT_ERR_NONE))
 255:.\Generated_Source\PSoC4/BLE_eventHandler.c ****     {
 256:.\Generated_Source\PSoC4/BLE_eventHandler.c ****         gattErr = CyBle_BcssWriteEventHandler(eventParam);
 257:.\Generated_Source\PSoC4/BLE_eventHandler.c ****     }
 258:.\Generated_Source\PSoC4/BLE_eventHandler.c **** #endif /* CYBLE_BCS_SERVER */
 259:.\Generated_Source\PSoC4/BLE_eventHandler.c **** #ifdef CYBLE_BLS_SERVER
 260:.\Generated_Source\PSoC4/BLE_eventHandler.c ****     if(((cyBle_eventHandlerFlag & CYBLE_CALLBACK) != 0u) && (gattErr == CYBLE_GATT_ERR_NONE))
ARM GAS  C:\Users\Helon\AppData\Local\Temp\cc2OGx1X.s 			page 6


 261:.\Generated_Source\PSoC4/BLE_eventHandler.c ****     {
 262:.\Generated_Source\PSoC4/BLE_eventHandler.c ****         gattErr = CyBle_BlssWriteEventHandler(eventParam);
 263:.\Generated_Source\PSoC4/BLE_eventHandler.c ****     }
 264:.\Generated_Source\PSoC4/BLE_eventHandler.c **** #endif /* CYBLE_BLS_SERVER */
 265:.\Generated_Source\PSoC4/BLE_eventHandler.c **** #ifdef CYBLE_BMS_SERVER
 266:.\Generated_Source\PSoC4/BLE_eventHandler.c ****     if(((cyBle_eventHandlerFlag & CYBLE_CALLBACK) != 0u) && (gattErr == CYBLE_GATT_ERR_NONE))
 267:.\Generated_Source\PSoC4/BLE_eventHandler.c ****     {
 268:.\Generated_Source\PSoC4/BLE_eventHandler.c ****         gattErr = CyBle_BmssWriteEventHandler(eventParam);
 269:.\Generated_Source\PSoC4/BLE_eventHandler.c ****     }
 270:.\Generated_Source\PSoC4/BLE_eventHandler.c **** #endif /* CYBLE_BMS_SERVER */
 271:.\Generated_Source\PSoC4/BLE_eventHandler.c **** #ifdef CYBLE_BTS_SERVER
 272:.\Generated_Source\PSoC4/BLE_eventHandler.c ****     if((cyBle_eventHandlerFlag & CYBLE_CALLBACK) != 0u)
 273:.\Generated_Source\PSoC4/BLE_eventHandler.c ****     {
 274:.\Generated_Source\PSoC4/BLE_eventHandler.c ****         gattErr = CyBle_BtsWriteEventHandler(eventParam);
 275:.\Generated_Source\PSoC4/BLE_eventHandler.c ****     }
 276:.\Generated_Source\PSoC4/BLE_eventHandler.c **** #endif /* CYBLE_BTS_SERVER */
 277:.\Generated_Source\PSoC4/BLE_eventHandler.c **** #ifdef CYBLE_CGMS_SERVER
 278:.\Generated_Source\PSoC4/BLE_eventHandler.c ****     if(((cyBle_eventHandlerFlag & CYBLE_CALLBACK) != 0u) && (gattErr == CYBLE_GATT_ERR_NONE))
 279:.\Generated_Source\PSoC4/BLE_eventHandler.c ****     {
 280:.\Generated_Source\PSoC4/BLE_eventHandler.c ****         gattErr = CyBle_CgmssWriteEventHandler(eventParam);
 281:.\Generated_Source\PSoC4/BLE_eventHandler.c ****     }
 282:.\Generated_Source\PSoC4/BLE_eventHandler.c **** #endif /* CYBLE_CGMS_SERVER */
 283:.\Generated_Source\PSoC4/BLE_eventHandler.c **** #ifdef CYBLE_CPS_SERVER
 284:.\Generated_Source\PSoC4/BLE_eventHandler.c ****     if(((cyBle_eventHandlerFlag & CYBLE_CALLBACK) != 0u) && (gattErr == CYBLE_GATT_ERR_NONE))
 285:.\Generated_Source\PSoC4/BLE_eventHandler.c ****     {
 286:.\Generated_Source\PSoC4/BLE_eventHandler.c ****         gattErr = CyBle_CpssWriteEventHandler(eventParam);
 287:.\Generated_Source\PSoC4/BLE_eventHandler.c ****     }
 288:.\Generated_Source\PSoC4/BLE_eventHandler.c **** #endif /* CYBLE_CPS_SERVER */
 289:.\Generated_Source\PSoC4/BLE_eventHandler.c **** #ifdef CYBLE_CSCS_SERVER
 290:.\Generated_Source\PSoC4/BLE_eventHandler.c ****     if(((cyBle_eventHandlerFlag & CYBLE_CALLBACK) != 0u) && (gattErr == CYBLE_GATT_ERR_NONE))
 291:.\Generated_Source\PSoC4/BLE_eventHandler.c ****     {
 292:.\Generated_Source\PSoC4/BLE_eventHandler.c ****         gattErr = CyBle_CscssWriteEventHandler(eventParam);
 293:.\Generated_Source\PSoC4/BLE_eventHandler.c ****     }
 294:.\Generated_Source\PSoC4/BLE_eventHandler.c **** #endif /* CYBLE_CSCS_SERVER */
 295:.\Generated_Source\PSoC4/BLE_eventHandler.c **** #ifdef CYBLE_CTS_SERVER
 296:.\Generated_Source\PSoC4/BLE_eventHandler.c ****     if(((cyBle_eventHandlerFlag & CYBLE_CALLBACK) != 0u) && (gattErr == CYBLE_GATT_ERR_NONE))
 297:.\Generated_Source\PSoC4/BLE_eventHandler.c ****     {
 298:.\Generated_Source\PSoC4/BLE_eventHandler.c ****         gattErr = CyBle_CtssWriteEventHandler(eventParam);
 299:.\Generated_Source\PSoC4/BLE_eventHandler.c ****     }
 300:.\Generated_Source\PSoC4/BLE_eventHandler.c **** #endif /* CYBLE_CTS_SERVER */
 301:.\Generated_Source\PSoC4/BLE_eventHandler.c **** #ifdef CYBLE_ESS_SERVER
 302:.\Generated_Source\PSoC4/BLE_eventHandler.c ****     if(((cyBle_eventHandlerFlag & CYBLE_CALLBACK) != 0u) && (gattErr == CYBLE_GATT_ERR_NONE))
 303:.\Generated_Source\PSoC4/BLE_eventHandler.c ****     {
 304:.\Generated_Source\PSoC4/BLE_eventHandler.c ****         gattErr = CyBle_EsssWriteEventHandler(eventParam);
 305:.\Generated_Source\PSoC4/BLE_eventHandler.c ****     }
 306:.\Generated_Source\PSoC4/BLE_eventHandler.c **** #endif /* CYBLE_ESS_SERVER */
 307:.\Generated_Source\PSoC4/BLE_eventHandler.c **** #ifdef CYBLE_GLS_SERVER
 308:.\Generated_Source\PSoC4/BLE_eventHandler.c ****     if(((cyBle_eventHandlerFlag & CYBLE_CALLBACK) != 0u) && (gattErr == CYBLE_GATT_ERR_NONE))
 309:.\Generated_Source\PSoC4/BLE_eventHandler.c ****     {
 310:.\Generated_Source\PSoC4/BLE_eventHandler.c ****         gattErr = CyBle_GlssWriteEventHandler(eventParam);
 311:.\Generated_Source\PSoC4/BLE_eventHandler.c ****     }
 312:.\Generated_Source\PSoC4/BLE_eventHandler.c **** #endif /* CYBLE_GLS_SERVER */
 313:.\Generated_Source\PSoC4/BLE_eventHandler.c **** #ifdef CYBLE_HIDS_SERVER
 314:.\Generated_Source\PSoC4/BLE_eventHandler.c ****     if(((cyBle_eventHandlerFlag & CYBLE_CALLBACK) != 0u) && (gattErr == CYBLE_GATT_ERR_NONE))
 315:.\Generated_Source\PSoC4/BLE_eventHandler.c ****     {
 316:.\Generated_Source\PSoC4/BLE_eventHandler.c ****         gattErr = CyBle_HidssWriteEventHandler(eventParam);
 317:.\Generated_Source\PSoC4/BLE_eventHandler.c ****     }
ARM GAS  C:\Users\Helon\AppData\Local\Temp\cc2OGx1X.s 			page 7


 318:.\Generated_Source\PSoC4/BLE_eventHandler.c **** #endif /* CYBLE_HIDS_SERVER */
 319:.\Generated_Source\PSoC4/BLE_eventHandler.c **** #ifdef CYBLE_HRS_SERVER
 320:.\Generated_Source\PSoC4/BLE_eventHandler.c ****     if(((cyBle_eventHandlerFlag & CYBLE_CALLBACK) != 0u) && (gattErr == CYBLE_GATT_ERR_NONE))
 321:.\Generated_Source\PSoC4/BLE_eventHandler.c ****     {
 322:.\Generated_Source\PSoC4/BLE_eventHandler.c ****         gattErr = CyBle_HrssWriteEventHandler(eventParam);
 323:.\Generated_Source\PSoC4/BLE_eventHandler.c ****     }
 324:.\Generated_Source\PSoC4/BLE_eventHandler.c **** #endif /* CYBLE_HRS_SERVER */
 325:.\Generated_Source\PSoC4/BLE_eventHandler.c **** #ifdef CYBLE_HTS_SERVER
 326:.\Generated_Source\PSoC4/BLE_eventHandler.c ****     if(((cyBle_eventHandlerFlag & CYBLE_CALLBACK) != 0u) && (gattErr == CYBLE_GATT_ERR_NONE))
 327:.\Generated_Source\PSoC4/BLE_eventHandler.c ****     {
 328:.\Generated_Source\PSoC4/BLE_eventHandler.c ****         gattErr = CyBle_HtssWriteEventHandler(eventParam);
 329:.\Generated_Source\PSoC4/BLE_eventHandler.c ****     }
 330:.\Generated_Source\PSoC4/BLE_eventHandler.c **** #endif /* CYBLE_HTS_SERVER */
 331:.\Generated_Source\PSoC4/BLE_eventHandler.c **** #ifdef CYBLE_LLS_SERVER
 332:.\Generated_Source\PSoC4/BLE_eventHandler.c ****     if(((cyBle_eventHandlerFlag & CYBLE_CALLBACK) != 0u) && (gattErr == CYBLE_GATT_ERR_NONE))
 333:.\Generated_Source\PSoC4/BLE_eventHandler.c ****     {
 334:.\Generated_Source\PSoC4/BLE_eventHandler.c ****         gattErr = CyBle_LlssWriteEventHandler(eventParam);
 335:.\Generated_Source\PSoC4/BLE_eventHandler.c ****     }
 336:.\Generated_Source\PSoC4/BLE_eventHandler.c **** #endif /* CYBLE_LLS_SERVER */
 337:.\Generated_Source\PSoC4/BLE_eventHandler.c **** #ifdef CYBLE_LNS_SERVER
 338:.\Generated_Source\PSoC4/BLE_eventHandler.c ****     if(((cyBle_eventHandlerFlag & CYBLE_CALLBACK) != 0u) && (gattErr == CYBLE_GATT_ERR_NONE))
 339:.\Generated_Source\PSoC4/BLE_eventHandler.c ****     {
 340:.\Generated_Source\PSoC4/BLE_eventHandler.c ****         gattErr = CyBle_LnssWriteEventHandler(eventParam);
 341:.\Generated_Source\PSoC4/BLE_eventHandler.c ****     }
 342:.\Generated_Source\PSoC4/BLE_eventHandler.c **** #endif /* CYBLE_LNS_SERVER */
 343:.\Generated_Source\PSoC4/BLE_eventHandler.c **** #ifdef CYBLE_PASS_SERVER
 344:.\Generated_Source\PSoC4/BLE_eventHandler.c ****     if(((cyBle_eventHandlerFlag & CYBLE_CALLBACK) != 0u) && (gattErr == CYBLE_GATT_ERR_NONE))
 345:.\Generated_Source\PSoC4/BLE_eventHandler.c ****     {
 346:.\Generated_Source\PSoC4/BLE_eventHandler.c ****         gattErr = CyBle_PasssWriteEventHandler(eventParam);
 347:.\Generated_Source\PSoC4/BLE_eventHandler.c ****     }
 348:.\Generated_Source\PSoC4/BLE_eventHandler.c **** #endif /* CYBLE_PASS_SERVER */
 349:.\Generated_Source\PSoC4/BLE_eventHandler.c **** #ifdef CYBLE_RSCS_SERVER
 350:.\Generated_Source\PSoC4/BLE_eventHandler.c ****     if(((cyBle_eventHandlerFlag & CYBLE_CALLBACK) != 0u) && (gattErr == CYBLE_GATT_ERR_NONE))
 351:.\Generated_Source\PSoC4/BLE_eventHandler.c ****     {
 352:.\Generated_Source\PSoC4/BLE_eventHandler.c ****         gattErr = CyBle_RscssWriteEventHandler(eventParam);
 353:.\Generated_Source\PSoC4/BLE_eventHandler.c ****     }
 354:.\Generated_Source\PSoC4/BLE_eventHandler.c **** #endif /* CYBLE_RSCS_SERVER */
 355:.\Generated_Source\PSoC4/BLE_eventHandler.c **** #ifdef CYBLE_SCPS_SERVER
 356:.\Generated_Source\PSoC4/BLE_eventHandler.c ****     if(((cyBle_eventHandlerFlag & CYBLE_CALLBACK) != 0u) && (gattErr == CYBLE_GATT_ERR_NONE))
 357:.\Generated_Source\PSoC4/BLE_eventHandler.c ****     {
 358:.\Generated_Source\PSoC4/BLE_eventHandler.c ****         gattErr = CyBle_ScpssWriteEventHandler(eventParam);
 359:.\Generated_Source\PSoC4/BLE_eventHandler.c ****     }
 360:.\Generated_Source\PSoC4/BLE_eventHandler.c **** #endif /* CYBLE_SCPS_SERVER */
 361:.\Generated_Source\PSoC4/BLE_eventHandler.c **** #ifdef CYBLE_TPS_SERVER
 362:.\Generated_Source\PSoC4/BLE_eventHandler.c ****     if(((cyBle_eventHandlerFlag & CYBLE_CALLBACK) != 0u) && (gattErr == CYBLE_GATT_ERR_NONE))
 363:.\Generated_Source\PSoC4/BLE_eventHandler.c ****     {
 364:.\Generated_Source\PSoC4/BLE_eventHandler.c ****         gattErr = CyBle_TpssWriteEventHandler(eventParam);
 365:.\Generated_Source\PSoC4/BLE_eventHandler.c ****     }
 366:.\Generated_Source\PSoC4/BLE_eventHandler.c **** #endif /* CYBLE_TPS_SERVER */
 367:.\Generated_Source\PSoC4/BLE_eventHandler.c **** #ifdef CYBLE_UDS_SERVER
 368:.\Generated_Source\PSoC4/BLE_eventHandler.c ****     if(((cyBle_eventHandlerFlag & CYBLE_CALLBACK) != 0u) && (gattErr == CYBLE_GATT_ERR_NONE))
 369:.\Generated_Source\PSoC4/BLE_eventHandler.c ****     {
 370:.\Generated_Source\PSoC4/BLE_eventHandler.c ****         gattErr = CyBle_UdssWriteEventHandler(eventParam);
 371:.\Generated_Source\PSoC4/BLE_eventHandler.c ****     }
 372:.\Generated_Source\PSoC4/BLE_eventHandler.c **** #endif /* CYBLE_UDS_SERVER */
 373:.\Generated_Source\PSoC4/BLE_eventHandler.c **** #ifdef CYBLE_WPTS_SERVER
 374:.\Generated_Source\PSoC4/BLE_eventHandler.c ****     if(((cyBle_eventHandlerFlag & CYBLE_CALLBACK) != 0u) && (gattErr == CYBLE_GATT_ERR_NONE))
ARM GAS  C:\Users\Helon\AppData\Local\Temp\cc2OGx1X.s 			page 8


 375:.\Generated_Source\PSoC4/BLE_eventHandler.c ****     {
 376:.\Generated_Source\PSoC4/BLE_eventHandler.c ****         gattErr = CyBle_WptssWriteEventHandler(eventParam);
 377:.\Generated_Source\PSoC4/BLE_eventHandler.c ****     }
 378:.\Generated_Source\PSoC4/BLE_eventHandler.c **** #endif /* CYBLE_WPTS_SERVER */
 379:.\Generated_Source\PSoC4/BLE_eventHandler.c **** #ifdef CYBLE_WSS_SERVER
 380:.\Generated_Source\PSoC4/BLE_eventHandler.c ****     if(((cyBle_eventHandlerFlag & CYBLE_CALLBACK) != 0u) && (gattErr == CYBLE_GATT_ERR_NONE))
 381:.\Generated_Source\PSoC4/BLE_eventHandler.c ****     {
 382:.\Generated_Source\PSoC4/BLE_eventHandler.c ****         gattErr = CyBle_WsssWriteEventHandler(eventParam);
 383:.\Generated_Source\PSoC4/BLE_eventHandler.c ****     }
 384:.\Generated_Source\PSoC4/BLE_eventHandler.c **** #endif /* CYBLE_WSS_SERVER */
 385:.\Generated_Source\PSoC4/BLE_eventHandler.c **** 
 386:.\Generated_Source\PSoC4/BLE_eventHandler.c ****     /* Send response when event was handled by service */
 387:.\Generated_Source\PSoC4/BLE_eventHandler.c ****     if((cyBle_eventHandlerFlag & CYBLE_CALLBACK) == 0u)
 388:.\Generated_Source\PSoC4/BLE_eventHandler.c ****     {
 389:.\Generated_Source\PSoC4/BLE_eventHandler.c ****         if(gattErr != CYBLE_GATT_ERR_NONE)
 390:.\Generated_Source\PSoC4/BLE_eventHandler.c ****         {
 391:.\Generated_Source\PSoC4/BLE_eventHandler.c ****             CYBLE_GATTS_ERR_PARAM_T err_param;
 392:.\Generated_Source\PSoC4/BLE_eventHandler.c ****             
 393:.\Generated_Source\PSoC4/BLE_eventHandler.c ****             err_param.opcode = (uint8) CYBLE_GATT_WRITE_REQ;
 394:.\Generated_Source\PSoC4/BLE_eventHandler.c ****             err_param.attrHandle = eventParam->handleValPair.attrHandle;
 395:.\Generated_Source\PSoC4/BLE_eventHandler.c ****             err_param.errorCode = gattErr;
 396:.\Generated_Source\PSoC4/BLE_eventHandler.c **** 
 397:.\Generated_Source\PSoC4/BLE_eventHandler.c ****             /* Send Error Response */
 398:.\Generated_Source\PSoC4/BLE_eventHandler.c ****             (void)CyBle_GattsErrorRsp(eventParam->connHandle, &err_param);
 399:.\Generated_Source\PSoC4/BLE_eventHandler.c ****         }
 400:.\Generated_Source\PSoC4/BLE_eventHandler.c ****         else
 401:.\Generated_Source\PSoC4/BLE_eventHandler.c ****         {
 402:.\Generated_Source\PSoC4/BLE_eventHandler.c ****             (void)CyBle_GattsWriteRsp(eventParam->connHandle);
 403:.\Generated_Source\PSoC4/BLE_eventHandler.c ****         }
 404:.\Generated_Source\PSoC4/BLE_eventHandler.c ****     }
 405:.\Generated_Source\PSoC4/BLE_eventHandler.c **** }
 406:.\Generated_Source\PSoC4/BLE_eventHandler.c **** 
 407:.\Generated_Source\PSoC4/BLE_eventHandler.c **** 
 408:.\Generated_Source\PSoC4/BLE_eventHandler.c **** /****************************************************************************** 
 409:.\Generated_Source\PSoC4/BLE_eventHandler.c **** * Function Name: CyBle_ValueConfirmation
 410:.\Generated_Source\PSoC4/BLE_eventHandler.c **** ***************************************************************************//**
 411:.\Generated_Source\PSoC4/BLE_eventHandler.c **** * 
 412:.\Generated_Source\PSoC4/BLE_eventHandler.c **** *  Handles the Value Confirmation request event from the BLE stack.
 413:.\Generated_Source\PSoC4/BLE_eventHandler.c **** * 
 414:.\Generated_Source\PSoC4/BLE_eventHandler.c **** *  \param eventParam: Pointer to a structure of type 'CYBLE_CONN_HANDLE_T'
 415:.\Generated_Source\PSoC4/BLE_eventHandler.c **** * 
 416:.\Generated_Source\PSoC4/BLE_eventHandler.c **** * \return
 417:.\Generated_Source\PSoC4/BLE_eventHandler.c **** *  None
 418:.\Generated_Source\PSoC4/BLE_eventHandler.c **** * 
 419:.\Generated_Source\PSoC4/BLE_eventHandler.c **** ******************************************************************************/
 420:.\Generated_Source\PSoC4/BLE_eventHandler.c **** static void CyBle_ValueConfirmation(const CYBLE_CONN_HANDLE_T *eventParam)
 421:.\Generated_Source\PSoC4/BLE_eventHandler.c **** {
 422:.\Generated_Source\PSoC4/BLE_eventHandler.c ****     if(eventParam != NULL)
 423:.\Generated_Source\PSoC4/BLE_eventHandler.c ****     {
 424:.\Generated_Source\PSoC4/BLE_eventHandler.c ****     #ifdef CYBLE_BCS_SERVER
 425:.\Generated_Source\PSoC4/BLE_eventHandler.c ****         CyBle_BcssConfirmationEventHandler(eventParam);
 426:.\Generated_Source\PSoC4/BLE_eventHandler.c ****     #endif /* CYBLE_BCS_SERVER */
 427:.\Generated_Source\PSoC4/BLE_eventHandler.c ****     #ifdef CYBLE_BLS_SERVER
 428:.\Generated_Source\PSoC4/BLE_eventHandler.c ****         if((cyBle_eventHandlerFlag & CYBLE_CALLBACK) != 0u)
 429:.\Generated_Source\PSoC4/BLE_eventHandler.c ****         {
 430:.\Generated_Source\PSoC4/BLE_eventHandler.c ****             CyBle_BlssConfirmationEventHandler(eventParam);
 431:.\Generated_Source\PSoC4/BLE_eventHandler.c ****         }
ARM GAS  C:\Users\Helon\AppData\Local\Temp\cc2OGx1X.s 			page 9


 432:.\Generated_Source\PSoC4/BLE_eventHandler.c ****     #endif /* CYBLE_BLS_SERVER */
 433:.\Generated_Source\PSoC4/BLE_eventHandler.c ****     
 434:.\Generated_Source\PSoC4/BLE_eventHandler.c ****     #ifdef CYBLE_CGMS_SERVER
 435:.\Generated_Source\PSoC4/BLE_eventHandler.c ****         if((cyBle_eventHandlerFlag & CYBLE_CALLBACK) != 0u)
 436:.\Generated_Source\PSoC4/BLE_eventHandler.c ****         {
 437:.\Generated_Source\PSoC4/BLE_eventHandler.c ****             CyBle_CgmssConfirmationEventHandler(eventParam);
 438:.\Generated_Source\PSoC4/BLE_eventHandler.c ****         }
 439:.\Generated_Source\PSoC4/BLE_eventHandler.c ****     #endif /* CYBLE_CGMS_SERVER */
 440:.\Generated_Source\PSoC4/BLE_eventHandler.c ****     
 441:.\Generated_Source\PSoC4/BLE_eventHandler.c ****     #ifdef CYBLE_CPS_SERVER
 442:.\Generated_Source\PSoC4/BLE_eventHandler.c ****         if((cyBle_eventHandlerFlag & CYBLE_CALLBACK) != 0u)
 443:.\Generated_Source\PSoC4/BLE_eventHandler.c ****         {
 444:.\Generated_Source\PSoC4/BLE_eventHandler.c ****             CyBle_CpssConfirmationEventHandler(eventParam);
 445:.\Generated_Source\PSoC4/BLE_eventHandler.c ****         }
 446:.\Generated_Source\PSoC4/BLE_eventHandler.c ****     #endif /* CYBLE_CPS_SERVER */
 447:.\Generated_Source\PSoC4/BLE_eventHandler.c ****     
 448:.\Generated_Source\PSoC4/BLE_eventHandler.c ****     #ifdef CYBLE_CSCS_SERVER
 449:.\Generated_Source\PSoC4/BLE_eventHandler.c ****         if((cyBle_eventHandlerFlag & CYBLE_CALLBACK) != 0u)
 450:.\Generated_Source\PSoC4/BLE_eventHandler.c ****         {
 451:.\Generated_Source\PSoC4/BLE_eventHandler.c ****             CyBle_CscssConfirmationEventHandler(eventParam);
 452:.\Generated_Source\PSoC4/BLE_eventHandler.c ****         }
 453:.\Generated_Source\PSoC4/BLE_eventHandler.c ****     #endif /* CYBLE_CSCS_SERVER */
 454:.\Generated_Source\PSoC4/BLE_eventHandler.c ****     
 455:.\Generated_Source\PSoC4/BLE_eventHandler.c ****     #ifdef CYBLE_ESS_SERVER
 456:.\Generated_Source\PSoC4/BLE_eventHandler.c ****         if((cyBle_eventHandlerFlag & CYBLE_CALLBACK) != 0u)
 457:.\Generated_Source\PSoC4/BLE_eventHandler.c ****         {
 458:.\Generated_Source\PSoC4/BLE_eventHandler.c ****             CyBle_EsssConfirmationEventHandler(eventParam);
 459:.\Generated_Source\PSoC4/BLE_eventHandler.c ****         }
 460:.\Generated_Source\PSoC4/BLE_eventHandler.c ****     #endif /* CYBLE_ESS_SERVER */
 461:.\Generated_Source\PSoC4/BLE_eventHandler.c ****     
 462:.\Generated_Source\PSoC4/BLE_eventHandler.c ****     #ifdef CYBLE_GLS_SERVER
 463:.\Generated_Source\PSoC4/BLE_eventHandler.c ****         if((cyBle_eventHandlerFlag & CYBLE_CALLBACK) != 0u)
 464:.\Generated_Source\PSoC4/BLE_eventHandler.c ****         {
 465:.\Generated_Source\PSoC4/BLE_eventHandler.c ****             CyBle_GlssConfirmationEventHandler(eventParam);
 466:.\Generated_Source\PSoC4/BLE_eventHandler.c ****         }
 467:.\Generated_Source\PSoC4/BLE_eventHandler.c ****     #endif /* CYBLE_GLS_SERVER */
 468:.\Generated_Source\PSoC4/BLE_eventHandler.c ****     
 469:.\Generated_Source\PSoC4/BLE_eventHandler.c ****     #ifdef CYBLE_HTS_SERVER
 470:.\Generated_Source\PSoC4/BLE_eventHandler.c ****         if((cyBle_eventHandlerFlag & CYBLE_CALLBACK) != 0u)
 471:.\Generated_Source\PSoC4/BLE_eventHandler.c ****         {
 472:.\Generated_Source\PSoC4/BLE_eventHandler.c ****             CyBle_HtssConfirmationEventHandler(eventParam);
 473:.\Generated_Source\PSoC4/BLE_eventHandler.c ****         }
 474:.\Generated_Source\PSoC4/BLE_eventHandler.c ****     #endif /* CYBLE_HTS_SERVER */
 475:.\Generated_Source\PSoC4/BLE_eventHandler.c **** 
 476:.\Generated_Source\PSoC4/BLE_eventHandler.c ****     #ifdef CYBLE_LNS_SERVER
 477:.\Generated_Source\PSoC4/BLE_eventHandler.c ****         if((cyBle_eventHandlerFlag & CYBLE_CALLBACK) != 0u)
 478:.\Generated_Source\PSoC4/BLE_eventHandler.c ****         {
 479:.\Generated_Source\PSoC4/BLE_eventHandler.c ****             CyBle_LnssConfirmationEventHandler(eventParam);
 480:.\Generated_Source\PSoC4/BLE_eventHandler.c ****         }
 481:.\Generated_Source\PSoC4/BLE_eventHandler.c ****     #endif /* CYBLE_LNS_SERVER */
 482:.\Generated_Source\PSoC4/BLE_eventHandler.c ****     
 483:.\Generated_Source\PSoC4/BLE_eventHandler.c ****     #ifdef CYBLE_RSCS_SERVER
 484:.\Generated_Source\PSoC4/BLE_eventHandler.c ****         if((cyBle_eventHandlerFlag & CYBLE_CALLBACK) != 0u)
 485:.\Generated_Source\PSoC4/BLE_eventHandler.c ****         {
 486:.\Generated_Source\PSoC4/BLE_eventHandler.c ****             CyBle_RscssConfirmationEventHandler(eventParam);
 487:.\Generated_Source\PSoC4/BLE_eventHandler.c ****         }
 488:.\Generated_Source\PSoC4/BLE_eventHandler.c ****     #endif /* CYBLE_RSCS_SERVER */
ARM GAS  C:\Users\Helon\AppData\Local\Temp\cc2OGx1X.s 			page 10


 489:.\Generated_Source\PSoC4/BLE_eventHandler.c ****     
 490:.\Generated_Source\PSoC4/BLE_eventHandler.c ****     #ifdef CYBLE_UDS_SERVER
 491:.\Generated_Source\PSoC4/BLE_eventHandler.c ****         if((cyBle_eventHandlerFlag & CYBLE_CALLBACK) != 0u)
 492:.\Generated_Source\PSoC4/BLE_eventHandler.c ****         {
 493:.\Generated_Source\PSoC4/BLE_eventHandler.c ****             CyBle_UdssConfirmationEventHandler(eventParam);
 494:.\Generated_Source\PSoC4/BLE_eventHandler.c ****         }
 495:.\Generated_Source\PSoC4/BLE_eventHandler.c ****     #endif /* CYBLE_UDS_SERVER */
 496:.\Generated_Source\PSoC4/BLE_eventHandler.c ****     
 497:.\Generated_Source\PSoC4/BLE_eventHandler.c ****     #ifdef CYBLE_WPTS_SERVER
 498:.\Generated_Source\PSoC4/BLE_eventHandler.c ****         if((cyBle_eventHandlerFlag & CYBLE_CALLBACK) != 0u)
 499:.\Generated_Source\PSoC4/BLE_eventHandler.c ****         {
 500:.\Generated_Source\PSoC4/BLE_eventHandler.c ****             CyBle_WptssConfirmationEventHandler(eventParam);
 501:.\Generated_Source\PSoC4/BLE_eventHandler.c ****         }
 502:.\Generated_Source\PSoC4/BLE_eventHandler.c ****     #endif /* CYBLE_WPTS_SERVER */
 503:.\Generated_Source\PSoC4/BLE_eventHandler.c ****     
 504:.\Generated_Source\PSoC4/BLE_eventHandler.c ****     #ifdef CYBLE_WSS_SERVER
 505:.\Generated_Source\PSoC4/BLE_eventHandler.c ****         if((cyBle_eventHandlerFlag & CYBLE_CALLBACK) != 0u)
 506:.\Generated_Source\PSoC4/BLE_eventHandler.c ****         {
 507:.\Generated_Source\PSoC4/BLE_eventHandler.c ****             CyBle_WsssConfirmationEventHandler(eventParam);
 508:.\Generated_Source\PSoC4/BLE_eventHandler.c ****         }
 509:.\Generated_Source\PSoC4/BLE_eventHandler.c ****     #endif /* CYBLE_WSS_SERVER */
 510:.\Generated_Source\PSoC4/BLE_eventHandler.c ****     }
 511:.\Generated_Source\PSoC4/BLE_eventHandler.c **** }
 512:.\Generated_Source\PSoC4/BLE_eventHandler.c **** 
 513:.\Generated_Source\PSoC4/BLE_eventHandler.c **** #endif /* CYBLE_GATT_ROLE_SERVER */
 514:.\Generated_Source\PSoC4/BLE_eventHandler.c **** 
 515:.\Generated_Source\PSoC4/BLE_eventHandler.c **** 
 516:.\Generated_Source\PSoC4/BLE_eventHandler.c **** #if (CYBLE_GATT_ROLE_CLIENT)
 517:.\Generated_Source\PSoC4/BLE_eventHandler.c **** 
 518:.\Generated_Source\PSoC4/BLE_eventHandler.c **** /****************************************************************************** 
 519:.\Generated_Source\PSoC4/BLE_eventHandler.c **** * Function Name: CyBle_GattcWriteResponseEventHandler
 520:.\Generated_Source\PSoC4/BLE_eventHandler.c **** ***************************************************************************//**
 521:.\Generated_Source\PSoC4/BLE_eventHandler.c **** * 
 522:.\Generated_Source\PSoC4/BLE_eventHandler.c **** *  Handles the Write response event from the BLE stack.
 523:.\Generated_Source\PSoC4/BLE_eventHandler.c **** * 
 524:.\Generated_Source\PSoC4/BLE_eventHandler.c **** *  \param eventParam: Pointer to a structure of type 'CYBLE_CONN_HANDLE_T'
 525:.\Generated_Source\PSoC4/BLE_eventHandler.c **** * 
 526:.\Generated_Source\PSoC4/BLE_eventHandler.c **** * \return
 527:.\Generated_Source\PSoC4/BLE_eventHandler.c **** *  None
 528:.\Generated_Source\PSoC4/BLE_eventHandler.c **** * 
 529:.\Generated_Source\PSoC4/BLE_eventHandler.c **** ******************************************************************************/
 530:.\Generated_Source\PSoC4/BLE_eventHandler.c **** static void CyBle_GattcWriteResponseEventHandler(const CYBLE_CONN_HANDLE_T *eventParam)
 531:.\Generated_Source\PSoC4/BLE_eventHandler.c **** {
 532:.\Generated_Source\PSoC4/BLE_eventHandler.c **** #ifdef CYBLE_ANCS_CLIENT
 533:.\Generated_Source\PSoC4/BLE_eventHandler.c ****     CyBle_AncscWriteResponseEventHandler(eventParam);
 534:.\Generated_Source\PSoC4/BLE_eventHandler.c **** #endif /* CYBLE_ANCS_CLIENT */
 535:.\Generated_Source\PSoC4/BLE_eventHandler.c **** 
 536:.\Generated_Source\PSoC4/BLE_eventHandler.c **** #ifdef CYBLE_ANS_CLIENT
 537:.\Generated_Source\PSoC4/BLE_eventHandler.c ****     if((cyBle_eventHandlerFlag & CYBLE_CALLBACK) != 0u)
 538:.\Generated_Source\PSoC4/BLE_eventHandler.c ****     {
 539:.\Generated_Source\PSoC4/BLE_eventHandler.c ****         CyBle_AnscWriteResponseEventHandler(eventParam);
 540:.\Generated_Source\PSoC4/BLE_eventHandler.c ****     }
 541:.\Generated_Source\PSoC4/BLE_eventHandler.c **** #endif /* CYBLE_ANS_CLIENT */
 542:.\Generated_Source\PSoC4/BLE_eventHandler.c **** 
 543:.\Generated_Source\PSoC4/BLE_eventHandler.c **** #ifdef CYBLE_BAS_CLIENT
 544:.\Generated_Source\PSoC4/BLE_eventHandler.c ****     if((cyBle_eventHandlerFlag & CYBLE_CALLBACK) != 0u)
 545:.\Generated_Source\PSoC4/BLE_eventHandler.c ****     {
ARM GAS  C:\Users\Helon\AppData\Local\Temp\cc2OGx1X.s 			page 11


 546:.\Generated_Source\PSoC4/BLE_eventHandler.c ****         CyBle_BascWriteResponseEventHandler(eventParam);
 547:.\Generated_Source\PSoC4/BLE_eventHandler.c ****     }
 548:.\Generated_Source\PSoC4/BLE_eventHandler.c **** #endif /* CYBLE_BAS_CLIENT */
 549:.\Generated_Source\PSoC4/BLE_eventHandler.c **** 
 550:.\Generated_Source\PSoC4/BLE_eventHandler.c **** #ifdef CYBLE_BCS_CLIENT
 551:.\Generated_Source\PSoC4/BLE_eventHandler.c ****     if((cyBle_eventHandlerFlag & CYBLE_CALLBACK) != 0u)
 552:.\Generated_Source\PSoC4/BLE_eventHandler.c ****     {
 553:.\Generated_Source\PSoC4/BLE_eventHandler.c ****         CyBle_BcscWriteResponseEventHandler(eventParam);
 554:.\Generated_Source\PSoC4/BLE_eventHandler.c ****     }
 555:.\Generated_Source\PSoC4/BLE_eventHandler.c **** #endif /* CYBLE_BCS_CLIENT */
 556:.\Generated_Source\PSoC4/BLE_eventHandler.c **** 
 557:.\Generated_Source\PSoC4/BLE_eventHandler.c **** #ifdef CYBLE_BLS_CLIENT
 558:.\Generated_Source\PSoC4/BLE_eventHandler.c ****     if((cyBle_eventHandlerFlag & CYBLE_CALLBACK) != 0u)
 559:.\Generated_Source\PSoC4/BLE_eventHandler.c ****     {
 560:.\Generated_Source\PSoC4/BLE_eventHandler.c ****         CyBle_BlscWriteResponseEventHandler(eventParam);
 561:.\Generated_Source\PSoC4/BLE_eventHandler.c ****     }
 562:.\Generated_Source\PSoC4/BLE_eventHandler.c **** #endif /* CYBLE_BLS_CLIENT */
 563:.\Generated_Source\PSoC4/BLE_eventHandler.c **** 
 564:.\Generated_Source\PSoC4/BLE_eventHandler.c **** #ifdef CYBLE_BMS_CLIENT
 565:.\Generated_Source\PSoC4/BLE_eventHandler.c ****     if((cyBle_eventHandlerFlag & CYBLE_CALLBACK) != 0u)
 566:.\Generated_Source\PSoC4/BLE_eventHandler.c ****     {
 567:.\Generated_Source\PSoC4/BLE_eventHandler.c ****         CyBle_BmscWriteResponseEventHandler(eventParam);
 568:.\Generated_Source\PSoC4/BLE_eventHandler.c ****     }
 569:.\Generated_Source\PSoC4/BLE_eventHandler.c **** #endif /* CYBLE_BMS_CLIENT */
 570:.\Generated_Source\PSoC4/BLE_eventHandler.c **** 
 571:.\Generated_Source\PSoC4/BLE_eventHandler.c **** #ifdef CYBLE_CGMS_CLIENT
 572:.\Generated_Source\PSoC4/BLE_eventHandler.c ****     if((cyBle_eventHandlerFlag & CYBLE_CALLBACK) != 0u)
 573:.\Generated_Source\PSoC4/BLE_eventHandler.c ****     {
 574:.\Generated_Source\PSoC4/BLE_eventHandler.c ****         CyBle_CgmscWriteResponseEventHandler(eventParam);
 575:.\Generated_Source\PSoC4/BLE_eventHandler.c ****     }
 576:.\Generated_Source\PSoC4/BLE_eventHandler.c **** #endif /* CYBLE_CGMS_CLIENT */
 577:.\Generated_Source\PSoC4/BLE_eventHandler.c **** 
 578:.\Generated_Source\PSoC4/BLE_eventHandler.c **** #ifdef CYBLE_CPS_CLIENT
 579:.\Generated_Source\PSoC4/BLE_eventHandler.c ****     if((cyBle_eventHandlerFlag & CYBLE_CALLBACK) != 0u)
 580:.\Generated_Source\PSoC4/BLE_eventHandler.c ****     {
 581:.\Generated_Source\PSoC4/BLE_eventHandler.c ****         CyBle_CpscWriteResponseEventHandler(eventParam);
 582:.\Generated_Source\PSoC4/BLE_eventHandler.c ****     }
 583:.\Generated_Source\PSoC4/BLE_eventHandler.c **** #endif /* CYBLE_CPS_CLIENT */
 584:.\Generated_Source\PSoC4/BLE_eventHandler.c **** 
 585:.\Generated_Source\PSoC4/BLE_eventHandler.c **** #ifdef CYBLE_CSCS_CLIENT
 586:.\Generated_Source\PSoC4/BLE_eventHandler.c ****     if((cyBle_eventHandlerFlag & CYBLE_CALLBACK) != 0u)
 587:.\Generated_Source\PSoC4/BLE_eventHandler.c ****     {
 588:.\Generated_Source\PSoC4/BLE_eventHandler.c ****         CyBle_CscscWriteResponseEventHandler(eventParam);
 589:.\Generated_Source\PSoC4/BLE_eventHandler.c ****     }
 590:.\Generated_Source\PSoC4/BLE_eventHandler.c **** #endif /* CYBLE_CSCS_CLIENT */
 591:.\Generated_Source\PSoC4/BLE_eventHandler.c **** 
 592:.\Generated_Source\PSoC4/BLE_eventHandler.c **** #ifdef CYBLE_CTS_CLIENT
 593:.\Generated_Source\PSoC4/BLE_eventHandler.c ****     if((cyBle_eventHandlerFlag & CYBLE_CALLBACK) != 0u)
 594:.\Generated_Source\PSoC4/BLE_eventHandler.c ****     {
 595:.\Generated_Source\PSoC4/BLE_eventHandler.c ****         CyBle_CtscWriteResponseEventHandler(eventParam);
 596:.\Generated_Source\PSoC4/BLE_eventHandler.c ****     }
 597:.\Generated_Source\PSoC4/BLE_eventHandler.c **** #endif /* CYBLE_CTS_CLIENT */
 598:.\Generated_Source\PSoC4/BLE_eventHandler.c **** 
 599:.\Generated_Source\PSoC4/BLE_eventHandler.c **** #ifdef CYBLE_ESS_CLIENT
 600:.\Generated_Source\PSoC4/BLE_eventHandler.c ****     if((cyBle_eventHandlerFlag & CYBLE_CALLBACK) != 0u)
 601:.\Generated_Source\PSoC4/BLE_eventHandler.c ****     {
 602:.\Generated_Source\PSoC4/BLE_eventHandler.c ****         CyBle_EsscWriteResponseEventHandler(eventParam);
ARM GAS  C:\Users\Helon\AppData\Local\Temp\cc2OGx1X.s 			page 12


 603:.\Generated_Source\PSoC4/BLE_eventHandler.c ****     }
 604:.\Generated_Source\PSoC4/BLE_eventHandler.c **** #endif /* CYBLE_ESS_CLIENT */
 605:.\Generated_Source\PSoC4/BLE_eventHandler.c **** 
 606:.\Generated_Source\PSoC4/BLE_eventHandler.c **** #ifdef CYBLE_GLS_CLIENT
 607:.\Generated_Source\PSoC4/BLE_eventHandler.c ****     if((cyBle_eventHandlerFlag & CYBLE_CALLBACK) != 0u)
 608:.\Generated_Source\PSoC4/BLE_eventHandler.c ****     {
 609:.\Generated_Source\PSoC4/BLE_eventHandler.c ****         CyBle_GlscWriteResponseEventHandler(eventParam);
 610:.\Generated_Source\PSoC4/BLE_eventHandler.c ****     }
 611:.\Generated_Source\PSoC4/BLE_eventHandler.c **** #endif /* CYBLE_GLS_CLIENT */
 612:.\Generated_Source\PSoC4/BLE_eventHandler.c **** 
 613:.\Generated_Source\PSoC4/BLE_eventHandler.c **** #ifdef CYBLE_HIDS_CLIENT
 614:.\Generated_Source\PSoC4/BLE_eventHandler.c ****     if((cyBle_eventHandlerFlag & CYBLE_CALLBACK) != 0u)
 615:.\Generated_Source\PSoC4/BLE_eventHandler.c ****     {
 616:.\Generated_Source\PSoC4/BLE_eventHandler.c ****         CyBle_HidscWriteResponseEventHandler(eventParam);
 617:.\Generated_Source\PSoC4/BLE_eventHandler.c ****     }
 618:.\Generated_Source\PSoC4/BLE_eventHandler.c **** #endif /* CYBLE_HIDS_CLIENT */
 619:.\Generated_Source\PSoC4/BLE_eventHandler.c **** 
 620:.\Generated_Source\PSoC4/BLE_eventHandler.c **** #ifdef CYBLE_HRS_CLIENT
 621:.\Generated_Source\PSoC4/BLE_eventHandler.c ****     if((cyBle_eventHandlerFlag & CYBLE_CALLBACK) != 0u)
 622:.\Generated_Source\PSoC4/BLE_eventHandler.c ****     {
 623:.\Generated_Source\PSoC4/BLE_eventHandler.c ****         CyBle_HrscWriteResponseEventHandler(eventParam);
 624:.\Generated_Source\PSoC4/BLE_eventHandler.c ****     }
 625:.\Generated_Source\PSoC4/BLE_eventHandler.c **** #endif /* CYBLE_HRS_CLIENT */
 626:.\Generated_Source\PSoC4/BLE_eventHandler.c **** 
 627:.\Generated_Source\PSoC4/BLE_eventHandler.c **** #ifdef CYBLE_HTS_CLIENT
 628:.\Generated_Source\PSoC4/BLE_eventHandler.c ****     if((cyBle_eventHandlerFlag & CYBLE_CALLBACK) != 0u)
 629:.\Generated_Source\PSoC4/BLE_eventHandler.c ****     {
 630:.\Generated_Source\PSoC4/BLE_eventHandler.c ****         CyBle_HtscWriteResponseEventHandler(eventParam);
 631:.\Generated_Source\PSoC4/BLE_eventHandler.c ****     }
 632:.\Generated_Source\PSoC4/BLE_eventHandler.c **** #endif /* CYBLE_HTS_CLIENT */
 633:.\Generated_Source\PSoC4/BLE_eventHandler.c **** 
 634:.\Generated_Source\PSoC4/BLE_eventHandler.c **** #ifdef CYBLE_LLS_CLIENT
 635:.\Generated_Source\PSoC4/BLE_eventHandler.c ****     if((cyBle_eventHandlerFlag & CYBLE_CALLBACK) != 0u)
 636:.\Generated_Source\PSoC4/BLE_eventHandler.c ****     {
 637:.\Generated_Source\PSoC4/BLE_eventHandler.c ****         CyBle_LlscWriteResponseEventHandler(eventParam);
 638:.\Generated_Source\PSoC4/BLE_eventHandler.c ****     }
 639:.\Generated_Source\PSoC4/BLE_eventHandler.c **** #endif /* CYBLE_LLS_CLIENT */
 640:.\Generated_Source\PSoC4/BLE_eventHandler.c **** 
 641:.\Generated_Source\PSoC4/BLE_eventHandler.c **** #ifdef CYBLE_LNS_CLIENT
 642:.\Generated_Source\PSoC4/BLE_eventHandler.c ****     if((cyBle_eventHandlerFlag & CYBLE_CALLBACK) != 0u)
 643:.\Generated_Source\PSoC4/BLE_eventHandler.c ****     {
 644:.\Generated_Source\PSoC4/BLE_eventHandler.c ****         CyBle_LnscWriteResponseEventHandler(eventParam);
 645:.\Generated_Source\PSoC4/BLE_eventHandler.c ****     }
 646:.\Generated_Source\PSoC4/BLE_eventHandler.c **** #endif /* CYBLE_LNS_CLIENT */
 647:.\Generated_Source\PSoC4/BLE_eventHandler.c **** 
 648:.\Generated_Source\PSoC4/BLE_eventHandler.c **** #ifdef CYBLE_PASS_CLIENT
 649:.\Generated_Source\PSoC4/BLE_eventHandler.c ****     if((cyBle_eventHandlerFlag & CYBLE_CALLBACK) != 0u)
 650:.\Generated_Source\PSoC4/BLE_eventHandler.c ****     {
 651:.\Generated_Source\PSoC4/BLE_eventHandler.c ****         CyBle_PasscWriteResponseEventHandler(eventParam);
 652:.\Generated_Source\PSoC4/BLE_eventHandler.c ****     }
 653:.\Generated_Source\PSoC4/BLE_eventHandler.c **** #endif /* CYBLE_PASS_CLIENT */
 654:.\Generated_Source\PSoC4/BLE_eventHandler.c **** 
 655:.\Generated_Source\PSoC4/BLE_eventHandler.c **** #ifdef CYBLE_RSCS_CLIENT
 656:.\Generated_Source\PSoC4/BLE_eventHandler.c ****     if((cyBle_eventHandlerFlag & CYBLE_CALLBACK) != 0u)
 657:.\Generated_Source\PSoC4/BLE_eventHandler.c ****     {
 658:.\Generated_Source\PSoC4/BLE_eventHandler.c ****         CyBle_RscscWriteResponseEventHandler(eventParam);
 659:.\Generated_Source\PSoC4/BLE_eventHandler.c ****     }
ARM GAS  C:\Users\Helon\AppData\Local\Temp\cc2OGx1X.s 			page 13


 660:.\Generated_Source\PSoC4/BLE_eventHandler.c **** #endif /* CYBLE_RSCS_CLIENT */
 661:.\Generated_Source\PSoC4/BLE_eventHandler.c **** 
 662:.\Generated_Source\PSoC4/BLE_eventHandler.c **** #ifdef CYBLE_SCPS_CLIENT
 663:.\Generated_Source\PSoC4/BLE_eventHandler.c ****     if((cyBle_eventHandlerFlag & CYBLE_CALLBACK) != 0u)
 664:.\Generated_Source\PSoC4/BLE_eventHandler.c ****     {
 665:.\Generated_Source\PSoC4/BLE_eventHandler.c ****         CyBle_ScpscWriteResponseEventHandler(eventParam);
 666:.\Generated_Source\PSoC4/BLE_eventHandler.c ****     }
 667:.\Generated_Source\PSoC4/BLE_eventHandler.c **** #endif /* CYBLE_SCPS_CLIENT */
 668:.\Generated_Source\PSoC4/BLE_eventHandler.c **** 
 669:.\Generated_Source\PSoC4/BLE_eventHandler.c **** #ifdef CYBLE_TPS_CLIENT
 670:.\Generated_Source\PSoC4/BLE_eventHandler.c ****     if((cyBle_eventHandlerFlag & CYBLE_CALLBACK) != 0u)
 671:.\Generated_Source\PSoC4/BLE_eventHandler.c ****     {
 672:.\Generated_Source\PSoC4/BLE_eventHandler.c ****         CyBle_TpscWriteResponseEventHandler(eventParam);
 673:.\Generated_Source\PSoC4/BLE_eventHandler.c ****     }
 674:.\Generated_Source\PSoC4/BLE_eventHandler.c **** #endif /* CYBLE_TPS_CLIENT */
 675:.\Generated_Source\PSoC4/BLE_eventHandler.c **** 
 676:.\Generated_Source\PSoC4/BLE_eventHandler.c **** #ifdef CYBLE_UDS_CLIENT
 677:.\Generated_Source\PSoC4/BLE_eventHandler.c ****     if((cyBle_eventHandlerFlag & CYBLE_CALLBACK) != 0u)
 678:.\Generated_Source\PSoC4/BLE_eventHandler.c ****     {
 679:.\Generated_Source\PSoC4/BLE_eventHandler.c ****         CyBle_UdscWriteResponseEventHandler(eventParam);
 680:.\Generated_Source\PSoC4/BLE_eventHandler.c ****     }
 681:.\Generated_Source\PSoC4/BLE_eventHandler.c **** #endif /* CYBLE_UDS_CLIENT */
 682:.\Generated_Source\PSoC4/BLE_eventHandler.c **** #ifdef CYBLE_WPTS_CLIENT
 683:.\Generated_Source\PSoC4/BLE_eventHandler.c ****     if((cyBle_eventHandlerFlag & CYBLE_CALLBACK) != 0u)
 684:.\Generated_Source\PSoC4/BLE_eventHandler.c ****     {
 685:.\Generated_Source\PSoC4/BLE_eventHandler.c ****         CyBle_WptscWriteResponseEventHandler(eventParam);
 686:.\Generated_Source\PSoC4/BLE_eventHandler.c ****     }
 687:.\Generated_Source\PSoC4/BLE_eventHandler.c **** #endif /* CYBLE_WPTS_CLIENT */
 688:.\Generated_Source\PSoC4/BLE_eventHandler.c **** #ifdef CYBLE_WSS_CLIENT
 689:.\Generated_Source\PSoC4/BLE_eventHandler.c ****     if((cyBle_eventHandlerFlag & CYBLE_CALLBACK) != 0u)
 690:.\Generated_Source\PSoC4/BLE_eventHandler.c ****     {
 691:.\Generated_Source\PSoC4/BLE_eventHandler.c ****         CyBle_WsscWriteResponseEventHandler(eventParam);
 692:.\Generated_Source\PSoC4/BLE_eventHandler.c ****     }
 693:.\Generated_Source\PSoC4/BLE_eventHandler.c **** #endif /* CYBLE_WSS_CLIENT */
 694:.\Generated_Source\PSoC4/BLE_eventHandler.c **** }
 695:.\Generated_Source\PSoC4/BLE_eventHandler.c **** 
 696:.\Generated_Source\PSoC4/BLE_eventHandler.c **** 
 697:.\Generated_Source\PSoC4/BLE_eventHandler.c **** /******************************************************************************    
 698:.\Generated_Source\PSoC4/BLE_eventHandler.c **** * Function Name: CyBle_NotificationEventHandler
 699:.\Generated_Source\PSoC4/BLE_eventHandler.c **** ***************************************************************************//**
 700:.\Generated_Source\PSoC4/BLE_eventHandler.c **** * 
 701:.\Generated_Source\PSoC4/BLE_eventHandler.c **** *  Handles the Notification event from BLE stack.
 702:.\Generated_Source\PSoC4/BLE_eventHandler.c **** * 
 703:.\Generated_Source\PSoC4/BLE_eventHandler.c **** *  \param eventParam: event parameter
 704:.\Generated_Source\PSoC4/BLE_eventHandler.c **** * 
 705:.\Generated_Source\PSoC4/BLE_eventHandler.c **** * \return
 706:.\Generated_Source\PSoC4/BLE_eventHandler.c **** *  None
 707:.\Generated_Source\PSoC4/BLE_eventHandler.c **** * 
 708:.\Generated_Source\PSoC4/BLE_eventHandler.c **** ******************************************************************************/
 709:.\Generated_Source\PSoC4/BLE_eventHandler.c **** static void CyBle_NotificationEventHandler(CYBLE_GATTC_HANDLE_VALUE_NTF_PARAM_T *eventParam)
 710:.\Generated_Source\PSoC4/BLE_eventHandler.c **** {
 711:.\Generated_Source\PSoC4/BLE_eventHandler.c **** #ifdef CYBLE_ANCS_CLIENT
 712:.\Generated_Source\PSoC4/BLE_eventHandler.c ****     CyBle_AncscNotificationEventHandler(eventParam);
 713:.\Generated_Source\PSoC4/BLE_eventHandler.c **** #endif /* CYBLE_ANCS_CLIENT */
 714:.\Generated_Source\PSoC4/BLE_eventHandler.c **** #ifdef CYBLE_ANS_CLIENT
 715:.\Generated_Source\PSoC4/BLE_eventHandler.c ****     if((cyBle_eventHandlerFlag & CYBLE_CALLBACK) != 0u)
 716:.\Generated_Source\PSoC4/BLE_eventHandler.c ****     {
ARM GAS  C:\Users\Helon\AppData\Local\Temp\cc2OGx1X.s 			page 14


 717:.\Generated_Source\PSoC4/BLE_eventHandler.c ****         CyBle_AnscNotificationEventHandler(eventParam);
 718:.\Generated_Source\PSoC4/BLE_eventHandler.c ****     }
 719:.\Generated_Source\PSoC4/BLE_eventHandler.c **** #endif /* CYBLE_ANS_CLIENT */
 720:.\Generated_Source\PSoC4/BLE_eventHandler.c **** #ifdef CYBLE_BAS_CLIENT
 721:.\Generated_Source\PSoC4/BLE_eventHandler.c ****     if((cyBle_eventHandlerFlag & CYBLE_CALLBACK) != 0u)
 722:.\Generated_Source\PSoC4/BLE_eventHandler.c ****     {
 723:.\Generated_Source\PSoC4/BLE_eventHandler.c ****         CyBle_BascNotificationEventHandler(eventParam);
 724:.\Generated_Source\PSoC4/BLE_eventHandler.c ****     }
 725:.\Generated_Source\PSoC4/BLE_eventHandler.c **** #endif /* CYBLE_BAS_CLIENT */
 726:.\Generated_Source\PSoC4/BLE_eventHandler.c **** #ifdef CYBLE_BLS_CLIENT
 727:.\Generated_Source\PSoC4/BLE_eventHandler.c ****     if((cyBle_eventHandlerFlag & CYBLE_CALLBACK) != 0u)
 728:.\Generated_Source\PSoC4/BLE_eventHandler.c ****     {
 729:.\Generated_Source\PSoC4/BLE_eventHandler.c ****         CyBle_BlscNotificationEventHandler(eventParam);
 730:.\Generated_Source\PSoC4/BLE_eventHandler.c ****     }
 731:.\Generated_Source\PSoC4/BLE_eventHandler.c **** #endif /* CYBLE_BLS_CLIENT */
 732:.\Generated_Source\PSoC4/BLE_eventHandler.c **** #ifdef CYBLE_CGMS_CLIENT
 733:.\Generated_Source\PSoC4/BLE_eventHandler.c ****     if((cyBle_eventHandlerFlag & CYBLE_CALLBACK) != 0u)
 734:.\Generated_Source\PSoC4/BLE_eventHandler.c ****     {
 735:.\Generated_Source\PSoC4/BLE_eventHandler.c ****         CyBle_CgmscNotificationEventHandler(eventParam);
 736:.\Generated_Source\PSoC4/BLE_eventHandler.c ****     }
 737:.\Generated_Source\PSoC4/BLE_eventHandler.c **** #endif /* CYBLE_CGMS_CLIENT */
 738:.\Generated_Source\PSoC4/BLE_eventHandler.c **** #ifdef CYBLE_CPS_CLIENT
 739:.\Generated_Source\PSoC4/BLE_eventHandler.c ****     if((cyBle_eventHandlerFlag & CYBLE_CALLBACK) != 0u)
 740:.\Generated_Source\PSoC4/BLE_eventHandler.c ****     {
 741:.\Generated_Source\PSoC4/BLE_eventHandler.c ****         CyBle_CpscNotificationEventHandler(eventParam);
 742:.\Generated_Source\PSoC4/BLE_eventHandler.c ****     }
 743:.\Generated_Source\PSoC4/BLE_eventHandler.c **** #endif /* CYBLE_CPS_CLIENT */
 744:.\Generated_Source\PSoC4/BLE_eventHandler.c **** #ifdef CYBLE_CSCS_CLIENT
 745:.\Generated_Source\PSoC4/BLE_eventHandler.c ****     if((cyBle_eventHandlerFlag & CYBLE_CALLBACK) != 0u)
 746:.\Generated_Source\PSoC4/BLE_eventHandler.c ****     {
 747:.\Generated_Source\PSoC4/BLE_eventHandler.c ****         CyBle_CscscNotificationEventHandler(eventParam);
 748:.\Generated_Source\PSoC4/BLE_eventHandler.c ****     }
 749:.\Generated_Source\PSoC4/BLE_eventHandler.c **** #endif /* CYBLE_CSCS_CLIENT */
 750:.\Generated_Source\PSoC4/BLE_eventHandler.c **** #ifdef CYBLE_CTS_CLIENT
 751:.\Generated_Source\PSoC4/BLE_eventHandler.c ****     if((cyBle_eventHandlerFlag & CYBLE_CALLBACK) != 0u)
 752:.\Generated_Source\PSoC4/BLE_eventHandler.c ****     {
 753:.\Generated_Source\PSoC4/BLE_eventHandler.c ****         CyBle_CtscNotificationEventHandler(eventParam);
 754:.\Generated_Source\PSoC4/BLE_eventHandler.c ****     }
 755:.\Generated_Source\PSoC4/BLE_eventHandler.c **** #endif /* CYBLE_CTS_CLIENT */
 756:.\Generated_Source\PSoC4/BLE_eventHandler.c **** #ifdef CYBLE_ESS_CLIENT
 757:.\Generated_Source\PSoC4/BLE_eventHandler.c ****     if((cyBle_eventHandlerFlag & CYBLE_CALLBACK) != 0u)
 758:.\Generated_Source\PSoC4/BLE_eventHandler.c ****     {
 759:.\Generated_Source\PSoC4/BLE_eventHandler.c ****         CyBle_EsscNotificationEventHandler(eventParam);
 760:.\Generated_Source\PSoC4/BLE_eventHandler.c ****     }
 761:.\Generated_Source\PSoC4/BLE_eventHandler.c **** #endif /* CYBLE_ESS_CLIENT */
 762:.\Generated_Source\PSoC4/BLE_eventHandler.c **** #ifdef CYBLE_GLS_CLIENT
 763:.\Generated_Source\PSoC4/BLE_eventHandler.c ****     if((cyBle_eventHandlerFlag & CYBLE_CALLBACK) != 0u)
 764:.\Generated_Source\PSoC4/BLE_eventHandler.c ****     {
 765:.\Generated_Source\PSoC4/BLE_eventHandler.c ****         CyBle_GlscNotificationEventHandler(eventParam);
 766:.\Generated_Source\PSoC4/BLE_eventHandler.c ****     }
 767:.\Generated_Source\PSoC4/BLE_eventHandler.c **** #endif /* CYBLE_GLS_CLIENT */
 768:.\Generated_Source\PSoC4/BLE_eventHandler.c **** #ifdef CYBLE_HIDS_CLIENT
 769:.\Generated_Source\PSoC4/BLE_eventHandler.c ****     if((cyBle_eventHandlerFlag & CYBLE_CALLBACK) != 0u)
 770:.\Generated_Source\PSoC4/BLE_eventHandler.c ****     {
 771:.\Generated_Source\PSoC4/BLE_eventHandler.c ****         CyBle_HidscNotificationEventHandler(eventParam);
 772:.\Generated_Source\PSoC4/BLE_eventHandler.c ****     }
 773:.\Generated_Source\PSoC4/BLE_eventHandler.c **** #endif /* CYBLE_HIDS_CLIENT */
ARM GAS  C:\Users\Helon\AppData\Local\Temp\cc2OGx1X.s 			page 15


 774:.\Generated_Source\PSoC4/BLE_eventHandler.c **** #ifdef CYBLE_HRS_CLIENT
 775:.\Generated_Source\PSoC4/BLE_eventHandler.c ****     if((cyBle_eventHandlerFlag & CYBLE_CALLBACK) != 0u)
 776:.\Generated_Source\PSoC4/BLE_eventHandler.c ****     {
 777:.\Generated_Source\PSoC4/BLE_eventHandler.c ****         CyBle_HrscNotificationEventHandler(eventParam);
 778:.\Generated_Source\PSoC4/BLE_eventHandler.c ****     }
 779:.\Generated_Source\PSoC4/BLE_eventHandler.c **** #endif /* CYBLE_HRS_CLIENT */
 780:.\Generated_Source\PSoC4/BLE_eventHandler.c **** #ifdef CYBLE_HTS_CLIENT
 781:.\Generated_Source\PSoC4/BLE_eventHandler.c ****     if((cyBle_eventHandlerFlag & CYBLE_CALLBACK) != 0u)
 782:.\Generated_Source\PSoC4/BLE_eventHandler.c ****     {
 783:.\Generated_Source\PSoC4/BLE_eventHandler.c ****         CyBle_HtscNotificationEventHandler(eventParam);
 784:.\Generated_Source\PSoC4/BLE_eventHandler.c ****     }
 785:.\Generated_Source\PSoC4/BLE_eventHandler.c **** #endif /* CYBLE_HTS_CLIENT */
 786:.\Generated_Source\PSoC4/BLE_eventHandler.c **** #ifdef CYBLE_LNS_CLIENT
 787:.\Generated_Source\PSoC4/BLE_eventHandler.c ****     if((cyBle_eventHandlerFlag & CYBLE_CALLBACK) != 0u)
 788:.\Generated_Source\PSoC4/BLE_eventHandler.c ****     {
 789:.\Generated_Source\PSoC4/BLE_eventHandler.c ****         CyBle_LnscNotificationEventHandler(eventParam);
 790:.\Generated_Source\PSoC4/BLE_eventHandler.c ****     }
 791:.\Generated_Source\PSoC4/BLE_eventHandler.c **** #endif /* CYBLE_LNS_CLIENT */
 792:.\Generated_Source\PSoC4/BLE_eventHandler.c **** #ifdef CYBLE_PASS_CLIENT
 793:.\Generated_Source\PSoC4/BLE_eventHandler.c ****     if((cyBle_eventHandlerFlag & CYBLE_CALLBACK) != 0u)
 794:.\Generated_Source\PSoC4/BLE_eventHandler.c ****     {
 795:.\Generated_Source\PSoC4/BLE_eventHandler.c ****         CyBle_PasscNotificationEventHandler(eventParam);
 796:.\Generated_Source\PSoC4/BLE_eventHandler.c ****     }
 797:.\Generated_Source\PSoC4/BLE_eventHandler.c **** #endif /* CYBLE_PASS_CLIENT */
 798:.\Generated_Source\PSoC4/BLE_eventHandler.c **** #ifdef CYBLE_RSCS_CLIENT
 799:.\Generated_Source\PSoC4/BLE_eventHandler.c ****     if((cyBle_eventHandlerFlag & CYBLE_CALLBACK) != 0u)
 800:.\Generated_Source\PSoC4/BLE_eventHandler.c ****     {
 801:.\Generated_Source\PSoC4/BLE_eventHandler.c ****         CyBle_RscscNotificationEventHandler(eventParam);
 802:.\Generated_Source\PSoC4/BLE_eventHandler.c ****     }
 803:.\Generated_Source\PSoC4/BLE_eventHandler.c **** #endif /* CYBLE_RSCS_CLIENT */
 804:.\Generated_Source\PSoC4/BLE_eventHandler.c **** #ifdef CYBLE_SCPS_CLIENT
 805:.\Generated_Source\PSoC4/BLE_eventHandler.c ****     if((cyBle_eventHandlerFlag & CYBLE_CALLBACK) != 0u)
 806:.\Generated_Source\PSoC4/BLE_eventHandler.c ****     {
 807:.\Generated_Source\PSoC4/BLE_eventHandler.c ****         CyBle_ScpscNotificationEventHandler(eventParam);
 808:.\Generated_Source\PSoC4/BLE_eventHandler.c ****     }
 809:.\Generated_Source\PSoC4/BLE_eventHandler.c **** #endif /* CYBLE_SCPS_CLIENT */
 810:.\Generated_Source\PSoC4/BLE_eventHandler.c **** #ifdef CYBLE_TPS_CLIENT
 811:.\Generated_Source\PSoC4/BLE_eventHandler.c ****     if((cyBle_eventHandlerFlag & CYBLE_CALLBACK) != 0u)
 812:.\Generated_Source\PSoC4/BLE_eventHandler.c ****     {
 813:.\Generated_Source\PSoC4/BLE_eventHandler.c ****         CyBle_TpscNotificationEventHandler(eventParam);
 814:.\Generated_Source\PSoC4/BLE_eventHandler.c ****     }
 815:.\Generated_Source\PSoC4/BLE_eventHandler.c **** #endif /* CYBLE_TPS_CLIENT */
 816:.\Generated_Source\PSoC4/BLE_eventHandler.c **** #ifdef CYBLE_UDS_CLIENT
 817:.\Generated_Source\PSoC4/BLE_eventHandler.c ****     if((cyBle_eventHandlerFlag & CYBLE_CALLBACK) != 0u)
 818:.\Generated_Source\PSoC4/BLE_eventHandler.c ****     {
 819:.\Generated_Source\PSoC4/BLE_eventHandler.c ****         CyBle_UdscNotificationEventHandler(eventParam);
 820:.\Generated_Source\PSoC4/BLE_eventHandler.c ****     }
 821:.\Generated_Source\PSoC4/BLE_eventHandler.c **** #endif /* CYBLE_UDS_CLIENT */
 822:.\Generated_Source\PSoC4/BLE_eventHandler.c **** #ifdef CYBLE_WPTS_CLIENT
 823:.\Generated_Source\PSoC4/BLE_eventHandler.c ****     if((cyBle_eventHandlerFlag & CYBLE_CALLBACK) != 0u)
 824:.\Generated_Source\PSoC4/BLE_eventHandler.c ****     {
 825:.\Generated_Source\PSoC4/BLE_eventHandler.c ****         CyBle_WptscNotificationEventHandler(eventParam);
 826:.\Generated_Source\PSoC4/BLE_eventHandler.c ****     }
 827:.\Generated_Source\PSoC4/BLE_eventHandler.c **** #endif /* CYBLE_WPTS_CLIENT */
 828:.\Generated_Source\PSoC4/BLE_eventHandler.c **** }
 829:.\Generated_Source\PSoC4/BLE_eventHandler.c **** 
 830:.\Generated_Source\PSoC4/BLE_eventHandler.c **** 
ARM GAS  C:\Users\Helon\AppData\Local\Temp\cc2OGx1X.s 			page 16


 831:.\Generated_Source\PSoC4/BLE_eventHandler.c **** /******************************************************************************    
 832:.\Generated_Source\PSoC4/BLE_eventHandler.c **** * Function Name: CyBle_IndicationEventHandler
 833:.\Generated_Source\PSoC4/BLE_eventHandler.c **** ***************************************************************************//**
 834:.\Generated_Source\PSoC4/BLE_eventHandler.c **** * 
 835:.\Generated_Source\PSoC4/BLE_eventHandler.c **** *  Handles the Indication event from BLE stack.
 836:.\Generated_Source\PSoC4/BLE_eventHandler.c **** * 
 837:.\Generated_Source\PSoC4/BLE_eventHandler.c **** *  \param eventParam: event parameter
 838:.\Generated_Source\PSoC4/BLE_eventHandler.c **** * 
 839:.\Generated_Source\PSoC4/BLE_eventHandler.c **** * \return
 840:.\Generated_Source\PSoC4/BLE_eventHandler.c **** *  None
 841:.\Generated_Source\PSoC4/BLE_eventHandler.c **** * 
 842:.\Generated_Source\PSoC4/BLE_eventHandler.c **** ******************************************************************************/
 843:.\Generated_Source\PSoC4/BLE_eventHandler.c **** static void CyBle_IndicationEventHandler(CYBLE_GATTC_HANDLE_VALUE_IND_PARAM_T *eventParam)
 844:.\Generated_Source\PSoC4/BLE_eventHandler.c **** {
 845:.\Generated_Source\PSoC4/BLE_eventHandler.c **** #ifdef CYBLE_BCS_CLIENT
 846:.\Generated_Source\PSoC4/BLE_eventHandler.c ****     if((cyBle_eventHandlerFlag & CYBLE_CALLBACK) != 0u)
 847:.\Generated_Source\PSoC4/BLE_eventHandler.c ****     {
 848:.\Generated_Source\PSoC4/BLE_eventHandler.c ****         CyBle_BcscIndicationEventHandler(eventParam);
 849:.\Generated_Source\PSoC4/BLE_eventHandler.c ****     }
 850:.\Generated_Source\PSoC4/BLE_eventHandler.c **** #endif /* CYBLE_BCS_CLIENT */
 851:.\Generated_Source\PSoC4/BLE_eventHandler.c **** #ifdef CYBLE_BLS_CLIENT
 852:.\Generated_Source\PSoC4/BLE_eventHandler.c ****     if((cyBle_eventHandlerFlag & CYBLE_CALLBACK) != 0u)
 853:.\Generated_Source\PSoC4/BLE_eventHandler.c ****     {
 854:.\Generated_Source\PSoC4/BLE_eventHandler.c ****         CyBle_BlscIndicationEventHandler(eventParam);
 855:.\Generated_Source\PSoC4/BLE_eventHandler.c ****     }
 856:.\Generated_Source\PSoC4/BLE_eventHandler.c **** #endif /* CYBLE_BLS_CLIENT */
 857:.\Generated_Source\PSoC4/BLE_eventHandler.c **** #ifdef CYBLE_CGMS_CLIENT
 858:.\Generated_Source\PSoC4/BLE_eventHandler.c ****     if((cyBle_eventHandlerFlag & CYBLE_CALLBACK) != 0u)
 859:.\Generated_Source\PSoC4/BLE_eventHandler.c ****     {
 860:.\Generated_Source\PSoC4/BLE_eventHandler.c ****         CyBle_CgmscIndicationEventHandler(eventParam);
 861:.\Generated_Source\PSoC4/BLE_eventHandler.c ****     }
 862:.\Generated_Source\PSoC4/BLE_eventHandler.c **** #endif /* CYBLE_CGMS_CLIENT */
 863:.\Generated_Source\PSoC4/BLE_eventHandler.c **** #ifdef CYBLE_CPS_CLIENT
 864:.\Generated_Source\PSoC4/BLE_eventHandler.c ****     if((cyBle_eventHandlerFlag & CYBLE_CALLBACK) != 0u)
 865:.\Generated_Source\PSoC4/BLE_eventHandler.c ****     {
 866:.\Generated_Source\PSoC4/BLE_eventHandler.c ****         CyBle_CpscIndicationEventHandler(eventParam);
 867:.\Generated_Source\PSoC4/BLE_eventHandler.c ****     }
 868:.\Generated_Source\PSoC4/BLE_eventHandler.c **** #endif /* CYBLE_CPS_CLIENT */
 869:.\Generated_Source\PSoC4/BLE_eventHandler.c **** #ifdef CYBLE_CSCS_CLIENT
 870:.\Generated_Source\PSoC4/BLE_eventHandler.c ****     if((cyBle_eventHandlerFlag & CYBLE_CALLBACK) != 0u)
 871:.\Generated_Source\PSoC4/BLE_eventHandler.c ****     {
 872:.\Generated_Source\PSoC4/BLE_eventHandler.c ****         CyBle_CscscIndicationEventHandler(eventParam);
 873:.\Generated_Source\PSoC4/BLE_eventHandler.c ****     }
 874:.\Generated_Source\PSoC4/BLE_eventHandler.c **** #endif /* CYBLE_CSCS_CLIENT */
 875:.\Generated_Source\PSoC4/BLE_eventHandler.c **** #ifdef CYBLE_ESS_CLIENT
 876:.\Generated_Source\PSoC4/BLE_eventHandler.c ****     if((cyBle_eventHandlerFlag & CYBLE_CALLBACK) != 0u)
 877:.\Generated_Source\PSoC4/BLE_eventHandler.c ****     {
 878:.\Generated_Source\PSoC4/BLE_eventHandler.c ****         CyBle_EsscIndicationEventHandler(eventParam);
 879:.\Generated_Source\PSoC4/BLE_eventHandler.c ****     }
 880:.\Generated_Source\PSoC4/BLE_eventHandler.c **** #endif /* CYBLE_ESS_CLIENT */
 881:.\Generated_Source\PSoC4/BLE_eventHandler.c **** #ifdef CYBLE_GLS_CLIENT
 882:.\Generated_Source\PSoC4/BLE_eventHandler.c ****     if((cyBle_eventHandlerFlag & CYBLE_CALLBACK) != 0u)
 883:.\Generated_Source\PSoC4/BLE_eventHandler.c ****     {
 884:.\Generated_Source\PSoC4/BLE_eventHandler.c ****         CyBle_GlscIndicationEventHandler(eventParam);
 885:.\Generated_Source\PSoC4/BLE_eventHandler.c ****     }
 886:.\Generated_Source\PSoC4/BLE_eventHandler.c **** #endif /* CYBLE_GLS_CLIENT */
 887:.\Generated_Source\PSoC4/BLE_eventHandler.c **** #ifdef CYBLE_HTS_CLIENT
ARM GAS  C:\Users\Helon\AppData\Local\Temp\cc2OGx1X.s 			page 17


 888:.\Generated_Source\PSoC4/BLE_eventHandler.c ****     if((cyBle_eventHandlerFlag & CYBLE_CALLBACK) != 0u)
 889:.\Generated_Source\PSoC4/BLE_eventHandler.c ****     {
 890:.\Generated_Source\PSoC4/BLE_eventHandler.c ****         CyBle_HtscIndicationEventHandler(eventParam);
 891:.\Generated_Source\PSoC4/BLE_eventHandler.c ****     }
 892:.\Generated_Source\PSoC4/BLE_eventHandler.c **** #endif /* CYBLE_HTS_CLIENT */
 893:.\Generated_Source\PSoC4/BLE_eventHandler.c **** #ifdef CYBLE_LNS_CLIENT
 894:.\Generated_Source\PSoC4/BLE_eventHandler.c ****     if((cyBle_eventHandlerFlag & CYBLE_CALLBACK) != 0u)
 895:.\Generated_Source\PSoC4/BLE_eventHandler.c ****     {
 896:.\Generated_Source\PSoC4/BLE_eventHandler.c ****         CyBle_LnscIndicationEventHandler(eventParam);
 897:.\Generated_Source\PSoC4/BLE_eventHandler.c ****     }
 898:.\Generated_Source\PSoC4/BLE_eventHandler.c **** #endif /* CYBLE_LNS_CLIENT */
 899:.\Generated_Source\PSoC4/BLE_eventHandler.c **** #ifdef CYBLE_RSCS_CLIENT
 900:.\Generated_Source\PSoC4/BLE_eventHandler.c ****     if((cyBle_eventHandlerFlag & CYBLE_CALLBACK) != 0u)
 901:.\Generated_Source\PSoC4/BLE_eventHandler.c ****     {
 902:.\Generated_Source\PSoC4/BLE_eventHandler.c ****         CyBle_RscscIndicationEventHandler(eventParam);
 903:.\Generated_Source\PSoC4/BLE_eventHandler.c ****     }
 904:.\Generated_Source\PSoC4/BLE_eventHandler.c **** #endif /* CYBLE_RSCS_CLIENT */
 905:.\Generated_Source\PSoC4/BLE_eventHandler.c **** #ifdef CYBLE_UDS_CLIENT
 906:.\Generated_Source\PSoC4/BLE_eventHandler.c ****     if((cyBle_eventHandlerFlag & CYBLE_CALLBACK) != 0u)
 907:.\Generated_Source\PSoC4/BLE_eventHandler.c ****     {
 908:.\Generated_Source\PSoC4/BLE_eventHandler.c ****         CyBle_UdscIndicationEventHandler(eventParam);
 909:.\Generated_Source\PSoC4/BLE_eventHandler.c ****     }
 910:.\Generated_Source\PSoC4/BLE_eventHandler.c **** #endif /* CYBLE_UDS_CLIENT */
 911:.\Generated_Source\PSoC4/BLE_eventHandler.c **** #ifdef CYBLE_WPTS_CLIENT
 912:.\Generated_Source\PSoC4/BLE_eventHandler.c ****     if((cyBle_eventHandlerFlag & CYBLE_CALLBACK) != 0u)
 913:.\Generated_Source\PSoC4/BLE_eventHandler.c ****     {
 914:.\Generated_Source\PSoC4/BLE_eventHandler.c ****         CyBle_WptscIndicationEventHandler(eventParam);
 915:.\Generated_Source\PSoC4/BLE_eventHandler.c ****     }
 916:.\Generated_Source\PSoC4/BLE_eventHandler.c **** #endif /* CYBLE_WPTS_CLIENT */
 917:.\Generated_Source\PSoC4/BLE_eventHandler.c **** #ifdef CYBLE_WSS_CLIENT
 918:.\Generated_Source\PSoC4/BLE_eventHandler.c ****     if((cyBle_eventHandlerFlag & CYBLE_CALLBACK) != 0u)
 919:.\Generated_Source\PSoC4/BLE_eventHandler.c ****     {
 920:.\Generated_Source\PSoC4/BLE_eventHandler.c ****         CyBle_WsscIndicationEventHandler(eventParam);
 921:.\Generated_Source\PSoC4/BLE_eventHandler.c ****     }
 922:.\Generated_Source\PSoC4/BLE_eventHandler.c **** #endif /* CYBLE_WSS_CLIENT */
 923:.\Generated_Source\PSoC4/BLE_eventHandler.c **** }
 924:.\Generated_Source\PSoC4/BLE_eventHandler.c **** 
 925:.\Generated_Source\PSoC4/BLE_eventHandler.c **** 
 926:.\Generated_Source\PSoC4/BLE_eventHandler.c **** 
 927:.\Generated_Source\PSoC4/BLE_eventHandler.c **** /******************************************************************************    
 928:.\Generated_Source\PSoC4/BLE_eventHandler.c **** * Function Name: CyBle_ReadResponseEventHandler
 929:.\Generated_Source\PSoC4/BLE_eventHandler.c **** ***************************************************************************//**
 930:.\Generated_Source\PSoC4/BLE_eventHandler.c **** * 
 931:.\Generated_Source\PSoC4/BLE_eventHandler.c **** *  Handles the Read Response event from BLE stack.
 932:.\Generated_Source\PSoC4/BLE_eventHandler.c **** * 
 933:.\Generated_Source\PSoC4/BLE_eventHandler.c **** *  \param eventParam: event parameter
 934:.\Generated_Source\PSoC4/BLE_eventHandler.c **** * 
 935:.\Generated_Source\PSoC4/BLE_eventHandler.c **** * \return
 936:.\Generated_Source\PSoC4/BLE_eventHandler.c **** *  None
 937:.\Generated_Source\PSoC4/BLE_eventHandler.c **** * 
 938:.\Generated_Source\PSoC4/BLE_eventHandler.c **** ******************************************************************************/
 939:.\Generated_Source\PSoC4/BLE_eventHandler.c **** static void CyBle_ReadResponseEventHandler(CYBLE_GATTC_READ_RSP_PARAM_T *eventParam)
 940:.\Generated_Source\PSoC4/BLE_eventHandler.c **** {
 941:.\Generated_Source\PSoC4/BLE_eventHandler.c **** #ifdef CYBLE_CUSTOM_CLIENT
 942:.\Generated_Source\PSoC4/BLE_eventHandler.c ****     /* Read response with 128-bit included service uuid */
 943:.\Generated_Source\PSoC4/BLE_eventHandler.c ****     if((CYBLE_CLIENT_STATE_INCL_DISCOVERING == CyBle_GetClientState()) &&
 944:.\Generated_Source\PSoC4/BLE_eventHandler.c ****        (cyBle_discInclInfo.inclDefHandle != 0u))
ARM GAS  C:\Users\Helon\AppData\Local\Temp\cc2OGx1X.s 			page 18


 945:.\Generated_Source\PSoC4/BLE_eventHandler.c ****     {
 946:.\Generated_Source\PSoC4/BLE_eventHandler.c ****         CYBLE_DISC_SRVC128_INFO_T discServInfo;
 947:.\Generated_Source\PSoC4/BLE_eventHandler.c **** 
 948:.\Generated_Source\PSoC4/BLE_eventHandler.c ****         /* Store service range */
 949:.\Generated_Source\PSoC4/BLE_eventHandler.c ****         discServInfo.range = cyBle_discInclInfo.inclHandleRange;
 950:.\Generated_Source\PSoC4/BLE_eventHandler.c ****         (void)memcpy((void *) discServInfo.uuid.uuid128.value, (void *)eventParam->value.val, event
 951:.\Generated_Source\PSoC4/BLE_eventHandler.c ****         CyBle_CustomcDiscoverServiceEventHandler(&discServInfo);
 952:.\Generated_Source\PSoC4/BLE_eventHandler.c ****         
 953:.\Generated_Source\PSoC4/BLE_eventHandler.c ****         /* Re-initiate CyBle_GattcFindIncludedServices function, setting the start
 954:.\Generated_Source\PSoC4/BLE_eventHandler.c ****            handle to the attribute handle which is placed next to the one used in
 955:.\Generated_Source\PSoC4/BLE_eventHandler.c ****            the above step.
 956:.\Generated_Source\PSoC4/BLE_eventHandler.c ****         */
 957:.\Generated_Source\PSoC4/BLE_eventHandler.c ****         discServInfo.range.startHandle = cyBle_discInclInfo.inclDefHandle + 1;
 958:.\Generated_Source\PSoC4/BLE_eventHandler.c ****         discServInfo.range.endHandle = cyBle_serverInfo[cyBle_disCount].range.endHandle;
 959:.\Generated_Source\PSoC4/BLE_eventHandler.c ****         if(discServInfo.range.startHandle <= discServInfo.range.endHandle)
 960:.\Generated_Source\PSoC4/BLE_eventHandler.c ****         {
 961:.\Generated_Source\PSoC4/BLE_eventHandler.c ****             if(CYBLE_ERROR_OK != CyBle_GattcFindIncludedServices(cyBle_connHandle, &discServInfo.ra
 962:.\Generated_Source\PSoC4/BLE_eventHandler.c ****             {
 963:.\Generated_Source\PSoC4/BLE_eventHandler.c ****                 CyBle_ApplCallback(CYBLE_EVT_GATTC_INCL_DISCOVERY_FAILED, NULL);
 964:.\Generated_Source\PSoC4/BLE_eventHandler.c ****                 cyBle_eventHandlerFlag &= (uint8)~CYBLE_AUTO_DISCOVERY;
 965:.\Generated_Source\PSoC4/BLE_eventHandler.c ****             }
 966:.\Generated_Source\PSoC4/BLE_eventHandler.c ****         }
 967:.\Generated_Source\PSoC4/BLE_eventHandler.c ****         else /* Continue discovery of the following service */
 968:.\Generated_Source\PSoC4/BLE_eventHandler.c ****         {
 969:.\Generated_Source\PSoC4/BLE_eventHandler.c ****             CyBle_NextInclDiscovery(CYBLE_DISCOVERY_CONTINUE);
 970:.\Generated_Source\PSoC4/BLE_eventHandler.c ****         }
 971:.\Generated_Source\PSoC4/BLE_eventHandler.c ****         
 972:.\Generated_Source\PSoC4/BLE_eventHandler.c ****         cyBle_eventHandlerFlag &= (uint8)~CYBLE_CALLBACK;
 973:.\Generated_Source\PSoC4/BLE_eventHandler.c ****         cyBle_discInclInfo.inclDefHandle = 0u;
 974:.\Generated_Source\PSoC4/BLE_eventHandler.c ****         
 975:.\Generated_Source\PSoC4/BLE_eventHandler.c ****     }
 976:.\Generated_Source\PSoC4/BLE_eventHandler.c **** #endif /* CYBLE_CUSTOM_CLIENT */
 977:.\Generated_Source\PSoC4/BLE_eventHandler.c **** #ifdef CYBLE_ANCS_CLIENT
 978:.\Generated_Source\PSoC4/BLE_eventHandler.c ****     if((cyBle_eventHandlerFlag & CYBLE_CALLBACK) != 0u)
 979:.\Generated_Source\PSoC4/BLE_eventHandler.c ****     {
 980:.\Generated_Source\PSoC4/BLE_eventHandler.c ****         CyBle_AncscReadResponseEventHandler(eventParam);
 981:.\Generated_Source\PSoC4/BLE_eventHandler.c ****     }
 982:.\Generated_Source\PSoC4/BLE_eventHandler.c **** #endif /* CYBLE_ANCS_CLIENT */
 983:.\Generated_Source\PSoC4/BLE_eventHandler.c **** #ifdef CYBLE_ANS_CLIENT
 984:.\Generated_Source\PSoC4/BLE_eventHandler.c ****     if((cyBle_eventHandlerFlag & CYBLE_CALLBACK) != 0u)
 985:.\Generated_Source\PSoC4/BLE_eventHandler.c ****     {
 986:.\Generated_Source\PSoC4/BLE_eventHandler.c ****         CyBle_AnscReadResponseEventHandler(eventParam);
 987:.\Generated_Source\PSoC4/BLE_eventHandler.c ****     }
 988:.\Generated_Source\PSoC4/BLE_eventHandler.c **** #endif /* CYBLE_ANS_CLIENT */
 989:.\Generated_Source\PSoC4/BLE_eventHandler.c **** #ifdef CYBLE_BAS_CLIENT
 990:.\Generated_Source\PSoC4/BLE_eventHandler.c ****     if((cyBle_eventHandlerFlag & CYBLE_CALLBACK) != 0u)
 991:.\Generated_Source\PSoC4/BLE_eventHandler.c ****     {
 992:.\Generated_Source\PSoC4/BLE_eventHandler.c ****         CyBle_BascReadResponseEventHandler(eventParam);
 993:.\Generated_Source\PSoC4/BLE_eventHandler.c ****     }
 994:.\Generated_Source\PSoC4/BLE_eventHandler.c **** #endif /* CYBLE_BAS_CLIENT */
 995:.\Generated_Source\PSoC4/BLE_eventHandler.c **** #ifdef CYBLE_BLS_CLIENT
 996:.\Generated_Source\PSoC4/BLE_eventHandler.c ****     if((cyBle_eventHandlerFlag & CYBLE_CALLBACK) != 0u)
 997:.\Generated_Source\PSoC4/BLE_eventHandler.c ****     {
 998:.\Generated_Source\PSoC4/BLE_eventHandler.c ****         CyBle_BlscReadResponseEventHandler(eventParam);
 999:.\Generated_Source\PSoC4/BLE_eventHandler.c ****     }
1000:.\Generated_Source\PSoC4/BLE_eventHandler.c **** #endif /* CYBLE_BLS_CLIENT */
1001:.\Generated_Source\PSoC4/BLE_eventHandler.c **** #ifdef CYBLE_BCS_CLIENT
ARM GAS  C:\Users\Helon\AppData\Local\Temp\cc2OGx1X.s 			page 19


1002:.\Generated_Source\PSoC4/BLE_eventHandler.c ****     if((cyBle_eventHandlerFlag & CYBLE_CALLBACK) != 0u)
1003:.\Generated_Source\PSoC4/BLE_eventHandler.c ****     {
1004:.\Generated_Source\PSoC4/BLE_eventHandler.c ****         CyBle_BcscReadResponseEventHandler(eventParam);
1005:.\Generated_Source\PSoC4/BLE_eventHandler.c ****     }
1006:.\Generated_Source\PSoC4/BLE_eventHandler.c **** #endif /* CYBLE_BCS_CLIENT */
1007:.\Generated_Source\PSoC4/BLE_eventHandler.c **** #ifdef CYBLE_BMS_CLIENT
1008:.\Generated_Source\PSoC4/BLE_eventHandler.c ****     if((cyBle_eventHandlerFlag & CYBLE_CALLBACK) != 0u)
1009:.\Generated_Source\PSoC4/BLE_eventHandler.c ****     {
1010:.\Generated_Source\PSoC4/BLE_eventHandler.c ****         CyBle_BmscReadResponseEventHandler(eventParam);
1011:.\Generated_Source\PSoC4/BLE_eventHandler.c ****     }
1012:.\Generated_Source\PSoC4/BLE_eventHandler.c **** #endif /* CYBLE_BMS_CLIENT */
1013:.\Generated_Source\PSoC4/BLE_eventHandler.c **** #ifdef CYBLE_CGMS_CLIENT
1014:.\Generated_Source\PSoC4/BLE_eventHandler.c ****     if((cyBle_eventHandlerFlag & CYBLE_CALLBACK) != 0u)
1015:.\Generated_Source\PSoC4/BLE_eventHandler.c ****     {
1016:.\Generated_Source\PSoC4/BLE_eventHandler.c ****         CyBle_CgmscReadResponseEventHandler(eventParam);
1017:.\Generated_Source\PSoC4/BLE_eventHandler.c ****     }
1018:.\Generated_Source\PSoC4/BLE_eventHandler.c **** #endif /* CYBLE_CGMS_CLIENT */
1019:.\Generated_Source\PSoC4/BLE_eventHandler.c **** #ifdef CYBLE_CPS_CLIENT
1020:.\Generated_Source\PSoC4/BLE_eventHandler.c ****     if((cyBle_eventHandlerFlag & CYBLE_CALLBACK) != 0u)
1021:.\Generated_Source\PSoC4/BLE_eventHandler.c ****     {
1022:.\Generated_Source\PSoC4/BLE_eventHandler.c ****         CyBle_CpscReadResponseEventHandler(eventParam);
1023:.\Generated_Source\PSoC4/BLE_eventHandler.c ****     }
1024:.\Generated_Source\PSoC4/BLE_eventHandler.c **** #endif /* CYBLE_CPS_CLIENT */
1025:.\Generated_Source\PSoC4/BLE_eventHandler.c **** #ifdef CYBLE_CSCS_CLIENT
1026:.\Generated_Source\PSoC4/BLE_eventHandler.c ****     if((cyBle_eventHandlerFlag & CYBLE_CALLBACK) != 0u)
1027:.\Generated_Source\PSoC4/BLE_eventHandler.c ****     {
1028:.\Generated_Source\PSoC4/BLE_eventHandler.c ****         CyBle_CscscReadResponseEventHandler(eventParam);
1029:.\Generated_Source\PSoC4/BLE_eventHandler.c ****     }
1030:.\Generated_Source\PSoC4/BLE_eventHandler.c **** #endif /* CYBLE_CSCS_CLIENT */
1031:.\Generated_Source\PSoC4/BLE_eventHandler.c **** #ifdef CYBLE_CTS_CLIENT
1032:.\Generated_Source\PSoC4/BLE_eventHandler.c ****     if((cyBle_eventHandlerFlag & CYBLE_CALLBACK) != 0u)
1033:.\Generated_Source\PSoC4/BLE_eventHandler.c ****     {
1034:.\Generated_Source\PSoC4/BLE_eventHandler.c ****         CyBle_CtscReadResponseEventHandler(eventParam);
1035:.\Generated_Source\PSoC4/BLE_eventHandler.c ****     }
1036:.\Generated_Source\PSoC4/BLE_eventHandler.c **** #endif /* CYBLE_BAS_CLIENT */
1037:.\Generated_Source\PSoC4/BLE_eventHandler.c **** #ifdef CYBLE_DIS_CLIENT
1038:.\Generated_Source\PSoC4/BLE_eventHandler.c ****     if((cyBle_eventHandlerFlag & CYBLE_CALLBACK) != 0u)
1039:.\Generated_Source\PSoC4/BLE_eventHandler.c ****     {
1040:.\Generated_Source\PSoC4/BLE_eventHandler.c ****         CyBle_DiscReadResponseEventHandler(eventParam);
1041:.\Generated_Source\PSoC4/BLE_eventHandler.c ****     }
1042:.\Generated_Source\PSoC4/BLE_eventHandler.c **** #endif /* CYBLE_DIS_CLIENT */
1043:.\Generated_Source\PSoC4/BLE_eventHandler.c **** #ifdef CYBLE_ESS_CLIENT
1044:.\Generated_Source\PSoC4/BLE_eventHandler.c ****     if((cyBle_eventHandlerFlag & CYBLE_CALLBACK) != 0u)
1045:.\Generated_Source\PSoC4/BLE_eventHandler.c ****     {
1046:.\Generated_Source\PSoC4/BLE_eventHandler.c ****         CyBle_EsscReadResponseEventHandler(eventParam);
1047:.\Generated_Source\PSoC4/BLE_eventHandler.c ****     }
1048:.\Generated_Source\PSoC4/BLE_eventHandler.c **** #endif /* CYBLE_ESS_CLIENT */
1049:.\Generated_Source\PSoC4/BLE_eventHandler.c **** #ifdef CYBLE_GLS_CLIENT
1050:.\Generated_Source\PSoC4/BLE_eventHandler.c ****     if((cyBle_eventHandlerFlag & CYBLE_CALLBACK) != 0u)
1051:.\Generated_Source\PSoC4/BLE_eventHandler.c ****     {
1052:.\Generated_Source\PSoC4/BLE_eventHandler.c ****         CyBle_GlscReadResponseEventHandler(eventParam);
1053:.\Generated_Source\PSoC4/BLE_eventHandler.c ****     }
1054:.\Generated_Source\PSoC4/BLE_eventHandler.c **** #endif /* CYBLE_GLS_CLIENT */
1055:.\Generated_Source\PSoC4/BLE_eventHandler.c **** #ifdef CYBLE_HIDS_CLIENT
1056:.\Generated_Source\PSoC4/BLE_eventHandler.c ****     if((cyBle_eventHandlerFlag & CYBLE_CALLBACK) != 0u)
1057:.\Generated_Source\PSoC4/BLE_eventHandler.c ****     {
1058:.\Generated_Source\PSoC4/BLE_eventHandler.c ****         CyBle_HidscReadResponseEventHandler(eventParam);
ARM GAS  C:\Users\Helon\AppData\Local\Temp\cc2OGx1X.s 			page 20


1059:.\Generated_Source\PSoC4/BLE_eventHandler.c ****     }
1060:.\Generated_Source\PSoC4/BLE_eventHandler.c **** #endif /* CYBLE_HIDS_CLIENT */
1061:.\Generated_Source\PSoC4/BLE_eventHandler.c **** #ifdef CYBLE_HRS_CLIENT
1062:.\Generated_Source\PSoC4/BLE_eventHandler.c ****     if((cyBle_eventHandlerFlag & CYBLE_CALLBACK) != 0u)
1063:.\Generated_Source\PSoC4/BLE_eventHandler.c ****     {
1064:.\Generated_Source\PSoC4/BLE_eventHandler.c ****         CyBle_HrscReadResponseEventHandler(eventParam);
1065:.\Generated_Source\PSoC4/BLE_eventHandler.c ****     }
1066:.\Generated_Source\PSoC4/BLE_eventHandler.c **** #endif /* CYBLE_HRS_CLIENT */
1067:.\Generated_Source\PSoC4/BLE_eventHandler.c **** #ifdef CYBLE_HTS_CLIENT
1068:.\Generated_Source\PSoC4/BLE_eventHandler.c ****     if((cyBle_eventHandlerFlag & CYBLE_CALLBACK) != 0u)
1069:.\Generated_Source\PSoC4/BLE_eventHandler.c ****     {
1070:.\Generated_Source\PSoC4/BLE_eventHandler.c ****         CyBle_HtscReadResponseEventHandler(eventParam);
1071:.\Generated_Source\PSoC4/BLE_eventHandler.c ****     }
1072:.\Generated_Source\PSoC4/BLE_eventHandler.c **** #endif /* CYBLE_HTS_CLIENT */
1073:.\Generated_Source\PSoC4/BLE_eventHandler.c **** #ifdef CYBLE_LLS_CLIENT
1074:.\Generated_Source\PSoC4/BLE_eventHandler.c ****     if((cyBle_eventHandlerFlag & CYBLE_CALLBACK) != 0u)
1075:.\Generated_Source\PSoC4/BLE_eventHandler.c ****     {
1076:.\Generated_Source\PSoC4/BLE_eventHandler.c ****         CyBle_LlscReadResponseEventHandler(eventParam);
1077:.\Generated_Source\PSoC4/BLE_eventHandler.c ****     }
1078:.\Generated_Source\PSoC4/BLE_eventHandler.c **** #endif /* CYBLE_LLS_CLIENT */
1079:.\Generated_Source\PSoC4/BLE_eventHandler.c **** #ifdef CYBLE_LNS_CLIENT
1080:.\Generated_Source\PSoC4/BLE_eventHandler.c ****     if((cyBle_eventHandlerFlag & CYBLE_CALLBACK) != 0u)
1081:.\Generated_Source\PSoC4/BLE_eventHandler.c ****     {
1082:.\Generated_Source\PSoC4/BLE_eventHandler.c ****         CyBle_LnscReadResponseEventHandler(eventParam);
1083:.\Generated_Source\PSoC4/BLE_eventHandler.c ****     }
1084:.\Generated_Source\PSoC4/BLE_eventHandler.c **** #endif /* CYBLE_LNS_CLIENT */
1085:.\Generated_Source\PSoC4/BLE_eventHandler.c **** #ifdef CYBLE_NDCS_CLIENT
1086:.\Generated_Source\PSoC4/BLE_eventHandler.c ****     if((cyBle_eventHandlerFlag & CYBLE_CALLBACK) != 0u)
1087:.\Generated_Source\PSoC4/BLE_eventHandler.c ****     {
1088:.\Generated_Source\PSoC4/BLE_eventHandler.c ****         CyBle_NdcscReadResponseEventHandler(eventParam);
1089:.\Generated_Source\PSoC4/BLE_eventHandler.c ****     }
1090:.\Generated_Source\PSoC4/BLE_eventHandler.c **** #endif /* CYBLE_NDCS_CLIENT */
1091:.\Generated_Source\PSoC4/BLE_eventHandler.c **** #ifdef CYBLE_PASS_CLIENT
1092:.\Generated_Source\PSoC4/BLE_eventHandler.c ****     if((cyBle_eventHandlerFlag & CYBLE_CALLBACK) != 0u)
1093:.\Generated_Source\PSoC4/BLE_eventHandler.c ****     {
1094:.\Generated_Source\PSoC4/BLE_eventHandler.c ****         CyBle_PasscReadResponseEventHandler(eventParam);
1095:.\Generated_Source\PSoC4/BLE_eventHandler.c ****     }
1096:.\Generated_Source\PSoC4/BLE_eventHandler.c **** #endif /* CYBLE_PASS_CLIENT */
1097:.\Generated_Source\PSoC4/BLE_eventHandler.c **** #ifdef CYBLE_RSCS_CLIENT
1098:.\Generated_Source\PSoC4/BLE_eventHandler.c ****     if((cyBle_eventHandlerFlag & CYBLE_CALLBACK) != 0u)
1099:.\Generated_Source\PSoC4/BLE_eventHandler.c ****     {
1100:.\Generated_Source\PSoC4/BLE_eventHandler.c ****         CyBle_RscscReadResponseEventHandler(eventParam);
1101:.\Generated_Source\PSoC4/BLE_eventHandler.c ****     }
1102:.\Generated_Source\PSoC4/BLE_eventHandler.c **** #endif /* CYBLE_RSCS_CLIENT */
1103:.\Generated_Source\PSoC4/BLE_eventHandler.c **** #ifdef CYBLE_RTUS_CLIENT
1104:.\Generated_Source\PSoC4/BLE_eventHandler.c ****     if((cyBle_eventHandlerFlag & CYBLE_CALLBACK) != 0u)
1105:.\Generated_Source\PSoC4/BLE_eventHandler.c ****     {
1106:.\Generated_Source\PSoC4/BLE_eventHandler.c ****         CyBle_RtuscReadResponseEventHandler(eventParam);
1107:.\Generated_Source\PSoC4/BLE_eventHandler.c ****     }
1108:.\Generated_Source\PSoC4/BLE_eventHandler.c **** #endif /* CYBLE_RTUS_CLIENT */
1109:.\Generated_Source\PSoC4/BLE_eventHandler.c **** #ifdef CYBLE_SCPS_CLIENT
1110:.\Generated_Source\PSoC4/BLE_eventHandler.c ****     if((cyBle_eventHandlerFlag & CYBLE_CALLBACK) != 0u)
1111:.\Generated_Source\PSoC4/BLE_eventHandler.c ****     {
1112:.\Generated_Source\PSoC4/BLE_eventHandler.c ****         CyBle_ScpscReadResponseEventHandler(eventParam);
1113:.\Generated_Source\PSoC4/BLE_eventHandler.c ****     }
1114:.\Generated_Source\PSoC4/BLE_eventHandler.c **** #endif /* CYBLE_SCPS_CLIENT */
1115:.\Generated_Source\PSoC4/BLE_eventHandler.c **** #ifdef CYBLE_TPS_CLIENT
ARM GAS  C:\Users\Helon\AppData\Local\Temp\cc2OGx1X.s 			page 21


1116:.\Generated_Source\PSoC4/BLE_eventHandler.c ****     if((cyBle_eventHandlerFlag & CYBLE_CALLBACK) != 0u)
1117:.\Generated_Source\PSoC4/BLE_eventHandler.c ****     {
1118:.\Generated_Source\PSoC4/BLE_eventHandler.c ****         CyBle_TpscReadResponseEventHandler(eventParam);
1119:.\Generated_Source\PSoC4/BLE_eventHandler.c ****     }
1120:.\Generated_Source\PSoC4/BLE_eventHandler.c **** #endif /* CYBLE_TPS_CLIENT */
1121:.\Generated_Source\PSoC4/BLE_eventHandler.c **** #ifdef CYBLE_UDS_CLIENT
1122:.\Generated_Source\PSoC4/BLE_eventHandler.c ****     if((cyBle_eventHandlerFlag & CYBLE_CALLBACK) != 0u)
1123:.\Generated_Source\PSoC4/BLE_eventHandler.c ****     {
1124:.\Generated_Source\PSoC4/BLE_eventHandler.c ****         CyBle_UdscReadResponseEventHandler(eventParam);
1125:.\Generated_Source\PSoC4/BLE_eventHandler.c ****     }
1126:.\Generated_Source\PSoC4/BLE_eventHandler.c **** #endif /* CYBLE_UDS_CLIENT */
1127:.\Generated_Source\PSoC4/BLE_eventHandler.c **** #ifdef CYBLE_WPTS_CLIENT
1128:.\Generated_Source\PSoC4/BLE_eventHandler.c ****     if((cyBle_eventHandlerFlag & CYBLE_CALLBACK) != 0u)
1129:.\Generated_Source\PSoC4/BLE_eventHandler.c ****     {
1130:.\Generated_Source\PSoC4/BLE_eventHandler.c ****         CyBle_WptscReadResponseEventHandler(eventParam);
1131:.\Generated_Source\PSoC4/BLE_eventHandler.c ****     }
1132:.\Generated_Source\PSoC4/BLE_eventHandler.c **** #endif /* CYBLE_WPTS_CLIENT */
1133:.\Generated_Source\PSoC4/BLE_eventHandler.c **** #ifdef CYBLE_WSS_CLIENT
1134:.\Generated_Source\PSoC4/BLE_eventHandler.c ****     if((cyBle_eventHandlerFlag & CYBLE_CALLBACK) != 0u)
1135:.\Generated_Source\PSoC4/BLE_eventHandler.c ****     {
1136:.\Generated_Source\PSoC4/BLE_eventHandler.c ****         CyBle_WsscReadResponseEventHandler(eventParam);
1137:.\Generated_Source\PSoC4/BLE_eventHandler.c ****     }
1138:.\Generated_Source\PSoC4/BLE_eventHandler.c **** #endif /* CYBLE_WSS_CLIENT */
1139:.\Generated_Source\PSoC4/BLE_eventHandler.c **** }
1140:.\Generated_Source\PSoC4/BLE_eventHandler.c **** #endif /* CYBLE_GATT_ROLE_CLIENT */
1141:.\Generated_Source\PSoC4/BLE_eventHandler.c **** 
1142:.\Generated_Source\PSoC4/BLE_eventHandler.c **** 
1143:.\Generated_Source\PSoC4/BLE_eventHandler.c **** /****************************************************************************** 
1144:.\Generated_Source\PSoC4/BLE_eventHandler.c **** * Function Name: CyBle_DisconnectEventHandler
1145:.\Generated_Source\PSoC4/BLE_eventHandler.c **** ***************************************************************************//**
1146:.\Generated_Source\PSoC4/BLE_eventHandler.c **** * 
1147:.\Generated_Source\PSoC4/BLE_eventHandler.c **** *  Handles the GATT Disconnection event from the BLE stack.
1148:.\Generated_Source\PSoC4/BLE_eventHandler.c **** * 
1149:.\Generated_Source\PSoC4/BLE_eventHandler.c **** * \return
1150:.\Generated_Source\PSoC4/BLE_eventHandler.c **** *  None
1151:.\Generated_Source\PSoC4/BLE_eventHandler.c **** * 
1152:.\Generated_Source\PSoC4/BLE_eventHandler.c **** ******************************************************************************/
1153:.\Generated_Source\PSoC4/BLE_eventHandler.c **** static void CyBle_GattDisconnectEventHandler(void)
1154:.\Generated_Source\PSoC4/BLE_eventHandler.c **** {
1155:.\Generated_Source\PSoC4/BLE_eventHandler.c ****     cyBle_connHandle.attId = 0u;
1156:.\Generated_Source\PSoC4/BLE_eventHandler.c ****     cyBle_connHandle.bdHandle = 0u;
1157:.\Generated_Source\PSoC4/BLE_eventHandler.c ****     
1158:.\Generated_Source\PSoC4/BLE_eventHandler.c ****     #if (CYBLE_GATT_ROLE_CLIENT)
1159:.\Generated_Source\PSoC4/BLE_eventHandler.c ****         if(CYBLE_CLIENT_STATE_DISCOVERED == CyBle_GetClientState())
1160:.\Generated_Source\PSoC4/BLE_eventHandler.c ****         {
1161:.\Generated_Source\PSoC4/BLE_eventHandler.c ****             CyBle_SetClientState(CYBLE_CLIENT_STATE_DISCONNECTED_DISCOVERED);
1162:.\Generated_Source\PSoC4/BLE_eventHandler.c ****         }
1163:.\Generated_Source\PSoC4/BLE_eventHandler.c ****         else
1164:.\Generated_Source\PSoC4/BLE_eventHandler.c ****         {
1165:.\Generated_Source\PSoC4/BLE_eventHandler.c ****             CyBle_SetClientState(CYBLE_CLIENT_STATE_DISCONNECTED);
1166:.\Generated_Source\PSoC4/BLE_eventHandler.c ****         }
1167:.\Generated_Source\PSoC4/BLE_eventHandler.c ****     #endif /* CYBLE_GATT_ROLE_CLIENT */
1168:.\Generated_Source\PSoC4/BLE_eventHandler.c ****         
1169:.\Generated_Source\PSoC4/BLE_eventHandler.c ****     #ifdef CYBLE_CPS_SERVER
1170:.\Generated_Source\PSoC4/BLE_eventHandler.c ****         #if CYBLE_GAP_ROLE_BROADCASTER
1171:.\Generated_Source\PSoC4/BLE_eventHandler.c ****             CyBle_CpssDisconnectEventHandler();
1172:.\Generated_Source\PSoC4/BLE_eventHandler.c ****         #endif /* CYBLE_GAP_ROLE_BROADCASTER */
ARM GAS  C:\Users\Helon\AppData\Local\Temp\cc2OGx1X.s 			page 22


1173:.\Generated_Source\PSoC4/BLE_eventHandler.c ****     #endif /* CYBLE_CPS_SERVER */
1174:.\Generated_Source\PSoC4/BLE_eventHandler.c **** 
1175:.\Generated_Source\PSoC4/BLE_eventHandler.c ****     #ifdef CYBLE_CPS_CLIENT
1176:.\Generated_Source\PSoC4/BLE_eventHandler.c ****         CyBle_CpscDisconnectEventHandler();
1177:.\Generated_Source\PSoC4/BLE_eventHandler.c ****     #endif /* CYBLE_CPS_CLIENT */
1178:.\Generated_Source\PSoC4/BLE_eventHandler.c **** 
1179:.\Generated_Source\PSoC4/BLE_eventHandler.c ****     #ifdef CYBLE_IAS_SERVER
1180:.\Generated_Source\PSoC4/BLE_eventHandler.c ****         CyBle_IassDisconnectEventHandler();
1181:.\Generated_Source\PSoC4/BLE_eventHandler.c ****     #endif /* CYBLE_IAS_SERVER */
1182:.\Generated_Source\PSoC4/BLE_eventHandler.c ****     
1183:.\Generated_Source\PSoC4/BLE_eventHandler.c ****     #ifdef CYBLE_GLS_SERVER
1184:.\Generated_Source\PSoC4/BLE_eventHandler.c ****         CyBle_GlsInit();
1185:.\Generated_Source\PSoC4/BLE_eventHandler.c ****     #endif /* CYBLE_GLS_SERVER */
1186:.\Generated_Source\PSoC4/BLE_eventHandler.c ****     
1187:.\Generated_Source\PSoC4/BLE_eventHandler.c ****     #ifdef CYBLE_LNS_SERVER
1188:.\Generated_Source\PSoC4/BLE_eventHandler.c ****         CyBle_LnsInit();
1189:.\Generated_Source\PSoC4/BLE_eventHandler.c ****     #endif /* CYBLE_LNS_SERVER */
1190:.\Generated_Source\PSoC4/BLE_eventHandler.c ****     
1191:.\Generated_Source\PSoC4/BLE_eventHandler.c ****     #ifdef CYBLE_UDS_SERVER
1192:.\Generated_Source\PSoC4/BLE_eventHandler.c ****         CyBle_UdsInit();
1193:.\Generated_Source\PSoC4/BLE_eventHandler.c ****     #endif /* CYBLE_UDS_SERVER */
1194:.\Generated_Source\PSoC4/BLE_eventHandler.c **** }
1195:.\Generated_Source\PSoC4/BLE_eventHandler.c **** 
1196:.\Generated_Source\PSoC4/BLE_eventHandler.c **** 
1197:.\Generated_Source\PSoC4/BLE_eventHandler.c **** /****************************************************************************** 
1198:.\Generated_Source\PSoC4/BLE_eventHandler.c **** * Function Name: CyBle_TimeOutEventHandler
1199:.\Generated_Source\PSoC4/BLE_eventHandler.c **** ***************************************************************************//**
1200:.\Generated_Source\PSoC4/BLE_eventHandler.c **** * 
1201:.\Generated_Source\PSoC4/BLE_eventHandler.c **** *  Handles the CYBLE_EVT_TIMEOUT event from the BLE stack.
1202:.\Generated_Source\PSoC4/BLE_eventHandler.c **** * 
1203:.\Generated_Source\PSoC4/BLE_eventHandler.c **** *  \param eventParam: The pointer to a structure of type CYBLE_TO_REASON_CODE_T.
1204:.\Generated_Source\PSoC4/BLE_eventHandler.c **** * 
1205:.\Generated_Source\PSoC4/BLE_eventHandler.c **** * \return
1206:.\Generated_Source\PSoC4/BLE_eventHandler.c **** *  None
1207:.\Generated_Source\PSoC4/BLE_eventHandler.c **** * 
1208:.\Generated_Source\PSoC4/BLE_eventHandler.c **** ******************************************************************************/
1209:.\Generated_Source\PSoC4/BLE_eventHandler.c **** static void CyBle_TimeOutEventHandler(const CYBLE_TO_REASON_CODE_T *eventParam)
1210:.\Generated_Source\PSoC4/BLE_eventHandler.c **** {
1211:.\Generated_Source\PSoC4/BLE_eventHandler.c ****     if(*eventParam == CYBLE_GATT_RSP_TO)
1212:.\Generated_Source\PSoC4/BLE_eventHandler.c ****     {
1213:.\Generated_Source\PSoC4/BLE_eventHandler.c ****     #if (CYBLE_GATT_ROLE_CLIENT)
1214:.\Generated_Source\PSoC4/BLE_eventHandler.c ****         if((cyBle_eventHandlerFlag & CYBLE_AUTO_DISCOVERY) != 0u)
1215:.\Generated_Source\PSoC4/BLE_eventHandler.c ****         {
1216:.\Generated_Source\PSoC4/BLE_eventHandler.c ****             switch(CyBle_GetClientState())
1217:.\Generated_Source\PSoC4/BLE_eventHandler.c ****             {
1218:.\Generated_Source\PSoC4/BLE_eventHandler.c ****                 case CYBLE_CLIENT_STATE_SRVC_DISCOVERING:
1219:.\Generated_Source\PSoC4/BLE_eventHandler.c ****                     CyBle_ApplCallback(CYBLE_EVT_GATTC_SRVC_DISCOVERY_FAILED, NULL);
1220:.\Generated_Source\PSoC4/BLE_eventHandler.c ****                     break;
1221:.\Generated_Source\PSoC4/BLE_eventHandler.c ****                 case CYBLE_CLIENT_STATE_INCL_DISCOVERING:
1222:.\Generated_Source\PSoC4/BLE_eventHandler.c ****                     CyBle_ApplCallback(CYBLE_EVT_GATTC_INCL_DISCOVERY_FAILED, NULL);
1223:.\Generated_Source\PSoC4/BLE_eventHandler.c ****                     break;
1224:.\Generated_Source\PSoC4/BLE_eventHandler.c ****                 case CYBLE_CLIENT_STATE_CHAR_DISCOVERING:
1225:.\Generated_Source\PSoC4/BLE_eventHandler.c ****                     CyBle_ApplCallback(CYBLE_EVT_GATTC_CHAR_DISCOVERY_FAILED, NULL);
1226:.\Generated_Source\PSoC4/BLE_eventHandler.c ****                     break;
1227:.\Generated_Source\PSoC4/BLE_eventHandler.c ****                 case CYBLE_CLIENT_STATE_DESCR_DISCOVERING:
1228:.\Generated_Source\PSoC4/BLE_eventHandler.c ****                     CyBle_ApplCallback(CYBLE_EVT_GATTC_DESCR_DISCOVERY_FAILED, NULL);
1229:.\Generated_Source\PSoC4/BLE_eventHandler.c ****                     break;
ARM GAS  C:\Users\Helon\AppData\Local\Temp\cc2OGx1X.s 			page 23


1230:.\Generated_Source\PSoC4/BLE_eventHandler.c ****                 default:        /* Other states should not be set in Auto discovery mode */
1231:.\Generated_Source\PSoC4/BLE_eventHandler.c ****                     break;
1232:.\Generated_Source\PSoC4/BLE_eventHandler.c ****             }
1233:.\Generated_Source\PSoC4/BLE_eventHandler.c ****             cyBle_eventHandlerFlag &= (uint8)~CYBLE_AUTO_DISCOVERY;
1234:.\Generated_Source\PSoC4/BLE_eventHandler.c ****             CyBle_SetClientState(CYBLE_CLIENT_STATE_CONNECTED);
1235:.\Generated_Source\PSoC4/BLE_eventHandler.c ****         }
1236:.\Generated_Source\PSoC4/BLE_eventHandler.c ****     #endif /* CYBLE_GATT_ROLE_CLIENT */
1237:.\Generated_Source\PSoC4/BLE_eventHandler.c ****     #ifdef CYBLE_CPS_SERVER
1238:.\Generated_Source\PSoC4/BLE_eventHandler.c ****         CyBle_CpssTimeOutEventHandler();
1239:.\Generated_Source\PSoC4/BLE_eventHandler.c ****     #endif /* CYBLE_CPS_SERVER */
1240:.\Generated_Source\PSoC4/BLE_eventHandler.c ****     }
1241:.\Generated_Source\PSoC4/BLE_eventHandler.c ****     
1242:.\Generated_Source\PSoC4/BLE_eventHandler.c ****     /* Connection procedure timeout */
1243:.\Generated_Source\PSoC4/BLE_eventHandler.c ****     if(*eventParam == CYBLE_GENERIC_TO)
1244:.\Generated_Source\PSoC4/BLE_eventHandler.c ****     {
1245:.\Generated_Source\PSoC4/BLE_eventHandler.c ****     #if(CYBLE_GAP_ROLE_CENTRAL)
1246:.\Generated_Source\PSoC4/BLE_eventHandler.c ****         if(CYBLE_STATE_CONNECTING == CyBle_GetState())
1247:.\Generated_Source\PSoC4/BLE_eventHandler.c ****         {
1248:.\Generated_Source\PSoC4/BLE_eventHandler.c ****             (void)CyBle_GapcCancelDeviceConnection();
1249:.\Generated_Source\PSoC4/BLE_eventHandler.c ****         }
1250:.\Generated_Source\PSoC4/BLE_eventHandler.c ****     #endif /* CYBLE_GAP_ROLE_CENTRAL */
1251:.\Generated_Source\PSoC4/BLE_eventHandler.c ****     }
1252:.\Generated_Source\PSoC4/BLE_eventHandler.c **** }
1253:.\Generated_Source\PSoC4/BLE_eventHandler.c **** 
1254:.\Generated_Source\PSoC4/BLE_eventHandler.c **** 
1255:.\Generated_Source\PSoC4/BLE_eventHandler.c **** /****************************************************************************** 
1256:.\Generated_Source\PSoC4/BLE_eventHandler.c **** * Function Name: CyBle_GattConnectReqHandler
1257:.\Generated_Source\PSoC4/BLE_eventHandler.c **** ***************************************************************************//**
1258:.\Generated_Source\PSoC4/BLE_eventHandler.c **** * 
1259:.\Generated_Source\PSoC4/BLE_eventHandler.c **** *  Handles the GATT connect event from the BLE stack.
1260:.\Generated_Source\PSoC4/BLE_eventHandler.c **** * 
1261:.\Generated_Source\PSoC4/BLE_eventHandler.c **** * \return
1262:.\Generated_Source\PSoC4/BLE_eventHandler.c **** *  None
1263:.\Generated_Source\PSoC4/BLE_eventHandler.c **** * 
1264:.\Generated_Source\PSoC4/BLE_eventHandler.c **** ******************************************************************************/
1265:.\Generated_Source\PSoC4/BLE_eventHandler.c **** static void CyBle_GattConnectReqHandler(void)
1266:.\Generated_Source\PSoC4/BLE_eventHandler.c **** {
1267:.\Generated_Source\PSoC4/BLE_eventHandler.c ****     #ifdef CYBLE_CGMS_SERVER
1268:.\Generated_Source\PSoC4/BLE_eventHandler.c ****         CyBle_CgmsInit();
1269:.\Generated_Source\PSoC4/BLE_eventHandler.c ****     #endif /* CYBLE_CGMS_SERVER */
1270:.\Generated_Source\PSoC4/BLE_eventHandler.c ****     
1271:.\Generated_Source\PSoC4/BLE_eventHandler.c ****     #ifdef CYBLE_CPS_SERVER
1272:.\Generated_Source\PSoC4/BLE_eventHandler.c ****         CyBle_CpssConnectEventHandler();
1273:.\Generated_Source\PSoC4/BLE_eventHandler.c ****     #endif /* CYBLE_CPS_SERVER */
1274:.\Generated_Source\PSoC4/BLE_eventHandler.c ****     
1275:.\Generated_Source\PSoC4/BLE_eventHandler.c ****     #ifdef CYBLE_CSCS_SERVER
1276:.\Generated_Source\PSoC4/BLE_eventHandler.c ****             CyBle_CscsInit();
1277:.\Generated_Source\PSoC4/BLE_eventHandler.c ****     #endif /* CYBLE_CSCS_SERVER */
1278:.\Generated_Source\PSoC4/BLE_eventHandler.c ****     
1279:.\Generated_Source\PSoC4/BLE_eventHandler.c ****     #ifdef CYBLE_LLS_SERVER
1280:.\Generated_Source\PSoC4/BLE_eventHandler.c ****         CyBle_LlssConnectEventHandler();
1281:.\Generated_Source\PSoC4/BLE_eventHandler.c ****     #endif /* CYBLE_LLS_SERVER */
1282:.\Generated_Source\PSoC4/BLE_eventHandler.c ****     
1283:.\Generated_Source\PSoC4/BLE_eventHandler.c ****     #ifdef CYBLE_HIDS_SERVER
1284:.\Generated_Source\PSoC4/BLE_eventHandler.c ****         CyBle_HidssOnDeviceConnected();
1285:.\Generated_Source\PSoC4/BLE_eventHandler.c ****     #endif /* CYBLE_HIDS_SERVER */
1286:.\Generated_Source\PSoC4/BLE_eventHandler.c **** 
ARM GAS  C:\Users\Helon\AppData\Local\Temp\cc2OGx1X.s 			page 24


1287:.\Generated_Source\PSoC4/BLE_eventHandler.c ****     #ifdef CYBLE_RSCS_SERVER
1288:.\Generated_Source\PSoC4/BLE_eventHandler.c ****         CyBle_RscsInit();
1289:.\Generated_Source\PSoC4/BLE_eventHandler.c ****     #endif /* CYBLE_RSCS_SERVER */
1290:.\Generated_Source\PSoC4/BLE_eventHandler.c **** }
1291:.\Generated_Source\PSoC4/BLE_eventHandler.c **** 
1292:.\Generated_Source\PSoC4/BLE_eventHandler.c **** 
1293:.\Generated_Source\PSoC4/BLE_eventHandler.c **** #if (CYBLE_GATT_ROLE_SERVER || CYBLE_GATT_ROLE_CLIENT)
1294:.\Generated_Source\PSoC4/BLE_eventHandler.c **** 
1295:.\Generated_Source\PSoC4/BLE_eventHandler.c **** /****************************************************************************** 
1296:.\Generated_Source\PSoC4/BLE_eventHandler.c **** * Function Name: CyBle_IsDeviceAddressValid
1297:.\Generated_Source\PSoC4/BLE_eventHandler.c **** ***************************************************************************//**
1298:.\Generated_Source\PSoC4/BLE_eventHandler.c **** * 
1299:.\Generated_Source\PSoC4/BLE_eventHandler.c **** *  This function verifies that BLE public address has been programmed to SFLASH 
1300:.\Generated_Source\PSoC4/BLE_eventHandler.c **** *  during manufacture.
1301:.\Generated_Source\PSoC4/BLE_eventHandler.c **** * 
1302:.\Generated_Source\PSoC4/BLE_eventHandler.c **** *  \param CYBLE_GAP_BD_ADDR_T *sflashDeviceAddress: the pointer to the BD address of 
1303:.\Generated_Source\PSoC4/BLE_eventHandler.c **** *                                            type CYBLE_GAP_BD_ADDR_T. 
1304:.\Generated_Source\PSoC4/BLE_eventHandler.c **** * 
1305:.\Generated_Source\PSoC4/BLE_eventHandler.c **** * \return
1306:.\Generated_Source\PSoC4/BLE_eventHandler.c **** *  Non zero value when a device address differs from the default SFLASH content.
1307:.\Generated_Source\PSoC4/BLE_eventHandler.c **** * 
1308:.\Generated_Source\PSoC4/BLE_eventHandler.c **** ******************************************************************************/
1309:.\Generated_Source\PSoC4/BLE_eventHandler.c **** static uint8 CyBle_IsDeviceAddressValid(const CYBLE_GAP_BD_ADDR_T *sflashDeviceAddress)
1310:.\Generated_Source\PSoC4/BLE_eventHandler.c **** {
1311:.\Generated_Source\PSoC4/BLE_eventHandler.c ****     uint8 i;
1312:.\Generated_Source\PSoC4/BLE_eventHandler.c ****     uint8 sflashAddressValid = 0u;
1313:.\Generated_Source\PSoC4/BLE_eventHandler.c ****     
1314:.\Generated_Source\PSoC4/BLE_eventHandler.c ****     if(sflashDeviceAddress -> type == CYBLE_GAP_ADDR_TYPE_PUBLIC)  
1315:.\Generated_Source\PSoC4/BLE_eventHandler.c ****     {
1316:.\Generated_Source\PSoC4/BLE_eventHandler.c ****         for(i = 0u; i < CYBLE_GAP_BD_ADDR_SIZE; i++)
1317:.\Generated_Source\PSoC4/BLE_eventHandler.c ****         {
1318:.\Generated_Source\PSoC4/BLE_eventHandler.c ****             if(sflashDeviceAddress->bdAddr[i] != 0u)
1319:.\Generated_Source\PSoC4/BLE_eventHandler.c ****             {
1320:.\Generated_Source\PSoC4/BLE_eventHandler.c ****                 sflashAddressValid = 1u;
1321:.\Generated_Source\PSoC4/BLE_eventHandler.c ****                 break;
1322:.\Generated_Source\PSoC4/BLE_eventHandler.c ****             }
1323:.\Generated_Source\PSoC4/BLE_eventHandler.c ****         }
1324:.\Generated_Source\PSoC4/BLE_eventHandler.c ****     }
1325:.\Generated_Source\PSoC4/BLE_eventHandler.c **** #if (CYBLE_M0S8BLESS_VERSION != 1)
1326:.\Generated_Source\PSoC4/BLE_eventHandler.c ****     sflashAddressValid = 0u;
1327:.\Generated_Source\PSoC4/BLE_eventHandler.c **** #endif
1328:.\Generated_Source\PSoC4/BLE_eventHandler.c ****     
1329:.\Generated_Source\PSoC4/BLE_eventHandler.c ****     return (sflashAddressValid);
1330:.\Generated_Source\PSoC4/BLE_eventHandler.c **** }
1331:.\Generated_Source\PSoC4/BLE_eventHandler.c **** #endif /* CYBLE_GATT_ROLE_SERVER || CYBLE_GATT_ROLE_CLIENT */
1332:.\Generated_Source\PSoC4/BLE_eventHandler.c **** 
1333:.\Generated_Source\PSoC4/BLE_eventHandler.c **** 
1334:.\Generated_Source\PSoC4/BLE_eventHandler.c **** /****************************************************************************** 
1335:.\Generated_Source\PSoC4/BLE_eventHandler.c **** * Function Name: CyBle_L2Cap_ConnParamUpdateRspHandler
1336:.\Generated_Source\PSoC4/BLE_eventHandler.c **** ***************************************************************************//**
1337:.\Generated_Source\PSoC4/BLE_eventHandler.c **** * 
1338:.\Generated_Source\PSoC4/BLE_eventHandler.c **** *  Handles the L2CAP connection parameter response event from
1339:.\Generated_Source\PSoC4/BLE_eventHandler.c **** *  the BLE stack.
1340:.\Generated_Source\PSoC4/BLE_eventHandler.c **** * 
1341:.\Generated_Source\PSoC4/BLE_eventHandler.c **** *  \param response:
1342:.\Generated_Source\PSoC4/BLE_eventHandler.c **** *      * Accepted = 0x0000
1343:.\Generated_Source\PSoC4/BLE_eventHandler.c **** *      * Rejected = 0x0001
ARM GAS  C:\Users\Helon\AppData\Local\Temp\cc2OGx1X.s 			page 25


1344:.\Generated_Source\PSoC4/BLE_eventHandler.c **** * 
1345:.\Generated_Source\PSoC4/BLE_eventHandler.c **** * \return
1346:.\Generated_Source\PSoC4/BLE_eventHandler.c **** *  None
1347:.\Generated_Source\PSoC4/BLE_eventHandler.c **** * 
1348:.\Generated_Source\PSoC4/BLE_eventHandler.c **** ******************************************************************************/
1349:.\Generated_Source\PSoC4/BLE_eventHandler.c **** static void CyBle_L2Cap_ConnParamUpdateRspEventHandler(uint16 response)
1350:.\Generated_Source\PSoC4/BLE_eventHandler.c **** {
1351:.\Generated_Source\PSoC4/BLE_eventHandler.c ****     #ifdef CYBLE_CPS_SERVER
1352:.\Generated_Source\PSoC4/BLE_eventHandler.c ****         CyBle_CpssConnParamUpdateRspEventHandler(response);
1353:.\Generated_Source\PSoC4/BLE_eventHandler.c ****     #endif /* CYBLE_CPS_SERVER */
1354:.\Generated_Source\PSoC4/BLE_eventHandler.c ****     
1355:.\Generated_Source\PSoC4/BLE_eventHandler.c ****     /* Unreferenced variable warning workaround */
1356:.\Generated_Source\PSoC4/BLE_eventHandler.c ****     if(response != 0u)
1357:.\Generated_Source\PSoC4/BLE_eventHandler.c ****     {
1358:.\Generated_Source\PSoC4/BLE_eventHandler.c ****     }
1359:.\Generated_Source\PSoC4/BLE_eventHandler.c **** }
1360:.\Generated_Source\PSoC4/BLE_eventHandler.c **** 
1361:.\Generated_Source\PSoC4/BLE_eventHandler.c **** 
1362:.\Generated_Source\PSoC4/BLE_eventHandler.c **** /****************************************************************************** 
1363:.\Generated_Source\PSoC4/BLE_eventHandler.c **** * Function Name: CyBle_GapConnUpdateCompleteEventHandler
1364:.\Generated_Source\PSoC4/BLE_eventHandler.c **** ***************************************************************************//**
1365:.\Generated_Source\PSoC4/BLE_eventHandler.c **** * 
1366:.\Generated_Source\PSoC4/BLE_eventHandler.c **** *  Handles the CYBLE_EVT_GAP_CONNECTION_UPDATE_COMPLETE event from
1367:.\Generated_Source\PSoC4/BLE_eventHandler.c **** *  the BLE stack.
1368:.\Generated_Source\PSoC4/BLE_eventHandler.c **** * 
1369:.\Generated_Source\PSoC4/BLE_eventHandler.c **** *  \param eventParam: The pointer to the data structure specified by the event.
1370:.\Generated_Source\PSoC4/BLE_eventHandler.c **** * 
1371:.\Generated_Source\PSoC4/BLE_eventHandler.c **** * \return
1372:.\Generated_Source\PSoC4/BLE_eventHandler.c **** *  None
1373:.\Generated_Source\PSoC4/BLE_eventHandler.c **** * 
1374:.\Generated_Source\PSoC4/BLE_eventHandler.c **** ******************************************************************************/
1375:.\Generated_Source\PSoC4/BLE_eventHandler.c **** static void CyBle_GapConnUpdateCompleteEventHandler(const CYBLE_GAP_CONN_PARAM_UPDATED_IN_CONTROLLE
1376:.\Generated_Source\PSoC4/BLE_eventHandler.c **** {
1377:.\Generated_Source\PSoC4/BLE_eventHandler.c ****     #ifdef CYBLE_CPS_SERVER
1378:.\Generated_Source\PSoC4/BLE_eventHandler.c ****         CyBle_CpssConnUpdateCompleteEventHandler(eventParam);
1379:.\Generated_Source\PSoC4/BLE_eventHandler.c ****     #endif /* CYBLE_CPS_SERVER */
1380:.\Generated_Source\PSoC4/BLE_eventHandler.c ****     
1381:.\Generated_Source\PSoC4/BLE_eventHandler.c ****     /* Unreferenced variable warning workaround */
1382:.\Generated_Source\PSoC4/BLE_eventHandler.c ****     if(eventParam != 0u)
1383:.\Generated_Source\PSoC4/BLE_eventHandler.c ****     {
1384:.\Generated_Source\PSoC4/BLE_eventHandler.c ****     }
1385:.\Generated_Source\PSoC4/BLE_eventHandler.c **** }
1386:.\Generated_Source\PSoC4/BLE_eventHandler.c **** 
1387:.\Generated_Source\PSoC4/BLE_eventHandler.c **** 
1388:.\Generated_Source\PSoC4/BLE_eventHandler.c **** /****************************************************************************** 
1389:.\Generated_Source\PSoC4/BLE_eventHandler.c **** * Function Name: CyBle_EventHandler
1390:.\Generated_Source\PSoC4/BLE_eventHandler.c **** ***************************************************************************//**
1391:.\Generated_Source\PSoC4/BLE_eventHandler.c **** * 
1392:.\Generated_Source\PSoC4/BLE_eventHandler.c **** *  Handles the events from the BLE stack
1393:.\Generated_Source\PSoC4/BLE_eventHandler.c **** * 
1394:.\Generated_Source\PSoC4/BLE_eventHandler.c **** *  \param eventCode:    the event code
1395:.\Generated_Source\PSoC4/BLE_eventHandler.c **** *  \param eventParam:  the event parameters
1396:.\Generated_Source\PSoC4/BLE_eventHandler.c **** * 
1397:.\Generated_Source\PSoC4/BLE_eventHandler.c **** * \return
1398:.\Generated_Source\PSoC4/BLE_eventHandler.c **** *  None.
1399:.\Generated_Source\PSoC4/BLE_eventHandler.c **** * 
1400:.\Generated_Source\PSoC4/BLE_eventHandler.c **** ******************************************************************************/
ARM GAS  C:\Users\Helon\AppData\Local\Temp\cc2OGx1X.s 			page 26


1401:.\Generated_Source\PSoC4/BLE_eventHandler.c **** void CyBle_EventHandler(uint8 eventCode, void *eventParam)
1402:.\Generated_Source\PSoC4/BLE_eventHandler.c **** {
  26              		.loc 1 1402 0
  27              		.cfi_startproc
  28              	.LVL0:
  29 0000 F0B5     		push	{r4, r5, r6, r7, lr}
  30              		.cfi_def_cfa_offset 20
  31              		.cfi_offset 4, -20
  32              		.cfi_offset 5, -16
  33              		.cfi_offset 6, -12
  34              		.cfi_offset 7, -8
  35              		.cfi_offset 14, -4
1403:.\Generated_Source\PSoC4/BLE_eventHandler.c ****     cyBle_eventHandlerFlag |= CYBLE_CALLBACK;
  36              		.loc 1 1403 0
  37 0002 0127     		mov	r7, #1
  38 0004 934C     		ldr	r4, .L62
1402:.\Generated_Source\PSoC4/BLE_eventHandler.c ****     cyBle_eventHandlerFlag |= CYBLE_CALLBACK;
  39              		.loc 1 1402 0
  40 0006 85B0     		sub	sp, sp, #20
  41              		.cfi_def_cfa_offset 40
  42              		.loc 1 1403 0
  43 0008 2378     		ldrb	r3, [r4]
1402:.\Generated_Source\PSoC4/BLE_eventHandler.c ****     cyBle_eventHandlerFlag |= CYBLE_CALLBACK;
  44              		.loc 1 1402 0
  45 000a 051C     		mov	r5, r0
  46              		.loc 1 1403 0
  47 000c 3B43     		orr	r3, r7
1402:.\Generated_Source\PSoC4/BLE_eventHandler.c ****     cyBle_eventHandlerFlag |= CYBLE_CALLBACK;
  48              		.loc 1 1402 0
  49 000e 0E1C     		mov	r6, r1
  50              		.loc 1 1403 0
  51 0010 2370     		strb	r3, [r4]
1404:.\Generated_Source\PSoC4/BLE_eventHandler.c **** 
1405:.\Generated_Source\PSoC4/BLE_eventHandler.c ****     /* Common Profile event handling */
1406:.\Generated_Source\PSoC4/BLE_eventHandler.c ****     switch(eventCode)
  52              		.loc 1 1406 0
  53 0012 2728     		cmp	r0, #39
  54 0014 62D0     		beq	.L3
  55 0016 0CD8     		bhi	.L4
  56 0018 0528     		cmp	r0, #5
  57 001a 46D0     		beq	.L5
  58 001c 04D8     		bhi	.L6
  59 001e B842     		cmp	r0, r7
  60 0020 1AD0     		beq	.L7
  61 0022 0228     		cmp	r0, #2
  62 0024 35D0     		beq	.L8
  63 0026 F2E0     		b	.L2
  64              	.L6:
  65 0028 2128     		cmp	r0, #33
  66 002a 41D0     		beq	.L9
  67 002c 2628     		cmp	r0, #38
  68 002e 6ED0     		beq	.L10
  69 0030 EDE0     		b	.L2
  70              	.L4:
  71 0032 4128     		cmp	r0, #65
  72 0034 00D1     		bne	.LCB49
  73 0036 B7E0     		b	.L11	@long jump
ARM GAS  C:\Users\Helon\AppData\Local\Temp\cc2OGx1X.s 			page 27


  74              	.LCB49:
  75 0038 05D8     		bhi	.L12
  76 003a 2828     		cmp	r0, #40
  77 003c 65D0     		beq	.L13
  78 003e 2B28     		cmp	r0, #43
  79 0040 00D1     		bne	.LCB55
  80 0042 84E0     		b	.L14	@long jump
  81              	.LCB55:
  82 0044 E3E0     		b	.L2
  83              	.L12:
  84 0046 4328     		cmp	r0, #67
  85 0048 00D1     		bne	.LCB61
  86 004a C1E0     		b	.L15	@long jump
  87              	.LCB61:
  88 004c 00D2     		bcs	.LCB63
  89 004e BBE0     		b	.L16	@long jump
  90              	.LCB63:
  91 0050 4C28     		cmp	r0, #76
  92 0052 00D1     		bne	.LCB65
  93 0054 C6E0     		b	.L17	@long jump
  94              	.LCB65:
  95 0056 DAE0     		b	.L2
  96              	.L7:
  97              	.LBB25:
1407:.\Generated_Source\PSoC4/BLE_eventHandler.c ****     {
1408:.\Generated_Source\PSoC4/BLE_eventHandler.c ****         /**********************************************************
1409:.\Generated_Source\PSoC4/BLE_eventHandler.c ****         * General events
1410:.\Generated_Source\PSoC4/BLE_eventHandler.c ****         ************************************************************/
1411:.\Generated_Source\PSoC4/BLE_eventHandler.c ****         case CYBLE_EVT_STACK_ON:
1412:.\Generated_Source\PSoC4/BLE_eventHandler.c ****         #if(CYBLE_MODE_PROFILE)
1413:.\Generated_Source\PSoC4/BLE_eventHandler.c ****         {
1414:.\Generated_Source\PSoC4/BLE_eventHandler.c ****             CYBLE_BLESS_PWR_IN_DB_T bleSsPowerLevel;
1415:.\Generated_Source\PSoC4/BLE_eventHandler.c ****             
1416:.\Generated_Source\PSoC4/BLE_eventHandler.c ****             /* Set Tx Power Level for advertising and connection channels */
1417:.\Generated_Source\PSoC4/BLE_eventHandler.c ****             bleSsPowerLevel.blePwrLevelInDbm = CYBLE_TX_POWER_LEVEL_ADV;
  98              		.loc 1 1417 0
  99 0058 0723     		mov	r3, #7
 100 005a 03AF     		add	r7, sp, #12
 101 005c 3B70     		strb	r3, [r7]
1418:.\Generated_Source\PSoC4/BLE_eventHandler.c ****             bleSsPowerLevel.bleSsChId = CYBLE_LL_ADV_CH_TYPE;
 102              		.loc 1 1418 0
 103 005e 0023     		mov	r3, #0
1419:.\Generated_Source\PSoC4/BLE_eventHandler.c ****             (void) CyBle_SetTxPowerLevel (&bleSsPowerLevel);
 104              		.loc 1 1419 0
 105 0060 381C     		mov	r0, r7
 106              	.LVL1:
1418:.\Generated_Source\PSoC4/BLE_eventHandler.c ****             bleSsPowerLevel.bleSsChId = CYBLE_LL_ADV_CH_TYPE;
 107              		.loc 1 1418 0
 108 0062 7B70     		strb	r3, [r7, #1]
 109              		.loc 1 1419 0
 110 0064 FFF7FEFF 		bl	CyBle_SetTxPowerLevel
 111              	.LVL2:
1420:.\Generated_Source\PSoC4/BLE_eventHandler.c ****             bleSsPowerLevel.blePwrLevelInDbm = CYBLE_TX_POWER_LEVEL_CONN;
 112              		.loc 1 1420 0
 113 0068 0723     		mov	r3, #7
1421:.\Generated_Source\PSoC4/BLE_eventHandler.c ****             bleSsPowerLevel.bleSsChId = CYBLE_LL_CONN_CH_TYPE;
1422:.\Generated_Source\PSoC4/BLE_eventHandler.c ****             (void) CyBle_SetTxPowerLevel (&bleSsPowerLevel);
ARM GAS  C:\Users\Helon\AppData\Local\Temp\cc2OGx1X.s 			page 28


 114              		.loc 1 1422 0
 115 006a 381C     		mov	r0, r7
1420:.\Generated_Source\PSoC4/BLE_eventHandler.c ****             bleSsPowerLevel.blePwrLevelInDbm = CYBLE_TX_POWER_LEVEL_CONN;
 116              		.loc 1 1420 0
 117 006c 3B70     		strb	r3, [r7]
1421:.\Generated_Source\PSoC4/BLE_eventHandler.c ****             bleSsPowerLevel.bleSsChId = CYBLE_LL_CONN_CH_TYPE;
 118              		.loc 1 1421 0
 119 006e 7D70     		strb	r5, [r7, #1]
 120              		.loc 1 1422 0
 121 0070 FFF7FEFF 		bl	CyBle_SetTxPowerLevel
 122              	.LVL3:
 123              	.LBE25:
1423:.\Generated_Source\PSoC4/BLE_eventHandler.c ****         }
1424:.\Generated_Source\PSoC4/BLE_eventHandler.c ****         #endif /* CYBLE_MODE_PROFILE */
1425:.\Generated_Source\PSoC4/BLE_eventHandler.c ****         #if (CYBLE_GATT_ROLE_SERVER || CYBLE_GATT_ROLE_CLIENT)
1426:.\Generated_Source\PSoC4/BLE_eventHandler.c ****             /* Set device Address  */
1427:.\Generated_Source\PSoC4/BLE_eventHandler.c ****             if(CyBle_IsDeviceAddressValid(cyBle_sflashDeviceAddress) != 0u)
 124              		.loc 1 1427 0
 125 0074 784F     		ldr	r7, .L62+4
 126 0076 3868     		ldr	r0, [r7]
 127              	.LVL4:
 128              	.LBB26:
 129              	.LBB27:
1314:.\Generated_Source\PSoC4/BLE_eventHandler.c ****     {
 130              		.loc 1 1314 0
 131 0078 8379     		ldrb	r3, [r0, #6]
 132 007a 002B     		cmp	r3, #0
 133 007c 00D0     		beq	.LCB97
 134 007e D4E0     		b	.L18	@long jump
 135              	.LCB97:
 136 0080 031C     		mov	r3, r0
 137 0082 821D     		add	r2, r0, #6
 138              	.L20:
 139              	.LVL5:
1318:.\Generated_Source\PSoC4/BLE_eventHandler.c ****             {
 140              		.loc 1 1318 0
 141 0084 1978     		ldrb	r1, [r3]
 142 0086 0029     		cmp	r1, #0
 143 0088 32D1     		bne	.L19
 144              	.LVL6:
 145 008a 0133     		add	r3, r3, #1
 146              	.LVL7:
1316:.\Generated_Source\PSoC4/BLE_eventHandler.c ****         {
 147              		.loc 1 1316 0
 148 008c 9342     		cmp	r3, r2
 149 008e F9D1     		bne	.L20
 150 0090 CBE0     		b	.L18
 151              	.LVL8:
 152              	.L8:
 153              	.LBE27:
 154              	.LBE26:
 155              	.LBB28:
 156              	.LBB29:
1243:.\Generated_Source\PSoC4/BLE_eventHandler.c ****     {
 157              		.loc 1 1243 0
 158 0092 0B78     		ldrb	r3, [r1]
 159 0094 042B     		cmp	r3, #4
ARM GAS  C:\Users\Helon\AppData\Local\Temp\cc2OGx1X.s 			page 29


 160 0096 00D0     		beq	.LCB128
 161 0098 B9E0     		b	.L2	@long jump
 162              	.LCB128:
1246:.\Generated_Source\PSoC4/BLE_eventHandler.c ****         {
 163              		.loc 1 1246 0
 164 009a 704B     		ldr	r3, .L62+8
 165 009c 1B78     		ldrb	r3, [r3]
 166 009e 052B     		cmp	r3, #5
 167 00a0 00D0     		beq	.LCB132
 168 00a2 B4E0     		b	.L2	@long jump
 169              	.LCB132:
1248:.\Generated_Source\PSoC4/BLE_eventHandler.c ****         }
 170              		.loc 1 1248 0
 171 00a4 FFF7FEFF 		bl	CyBle_GapcCancelDeviceConnection
 172              	.LVL9:
 173 00a8 B1E0     		b	.L2
 174              	.LVL10:
 175              	.L5:
 176              	.LBE29:
 177              	.LBE28:
1428:.\Generated_Source\PSoC4/BLE_eventHandler.c ****             {
1429:.\Generated_Source\PSoC4/BLE_eventHandler.c ****                 (void) CyBle_SetDeviceAddress(cyBle_sflashDeviceAddress);
1430:.\Generated_Source\PSoC4/BLE_eventHandler.c ****                 #if(CYBLE_GAP_ROLE_PERIPHERAL || CYBLE_GAP_ROLE_BROADCASTER)
1431:.\Generated_Source\PSoC4/BLE_eventHandler.c ****                     CyBle_ChangeAdDeviceAddress(cyBle_sflashDeviceAddress, 0u);
1432:.\Generated_Source\PSoC4/BLE_eventHandler.c ****                     CyBle_ChangeAdDeviceAddress(cyBle_sflashDeviceAddress, 1u);
1433:.\Generated_Source\PSoC4/BLE_eventHandler.c ****                 #endif /* CYBLE_GAP_ROLE_PERIPHERAL || CYBLE_GAP_ROLE_BROADCASTER */    
1434:.\Generated_Source\PSoC4/BLE_eventHandler.c ****             }
1435:.\Generated_Source\PSoC4/BLE_eventHandler.c ****             else
1436:.\Generated_Source\PSoC4/BLE_eventHandler.c ****             {
1437:.\Generated_Source\PSoC4/BLE_eventHandler.c ****             #if (SILICON_GENERATED_DEVICE_ADDRESS != 0u)
1438:.\Generated_Source\PSoC4/BLE_eventHandler.c ****                 cyBle_deviceAddress.bdAddr[0] = CYBLE_SFLASH_DIE_X_REG;
1439:.\Generated_Source\PSoC4/BLE_eventHandler.c ****                 cyBle_deviceAddress.bdAddr[1] = CYBLE_SFLASH_DIE_Y_REG;
1440:.\Generated_Source\PSoC4/BLE_eventHandler.c ****                 cyBle_deviceAddress.bdAddr[2] = CYBLE_SFLASH_DIE_WAFER_REG;
1441:.\Generated_Source\PSoC4/BLE_eventHandler.c ****             #endif /* SILICON_GENERATED_DEVICE_ADDRESS != 0u */
1442:.\Generated_Source\PSoC4/BLE_eventHandler.c ****                 (void) CyBle_SetDeviceAddress(&cyBle_deviceAddress);
1443:.\Generated_Source\PSoC4/BLE_eventHandler.c ****                 #if(CYBLE_GAP_ROLE_PERIPHERAL || CYBLE_GAP_ROLE_BROADCASTER)
1444:.\Generated_Source\PSoC4/BLE_eventHandler.c ****                     CyBle_ChangeAdDeviceAddress(&cyBle_deviceAddress, 0u);
1445:.\Generated_Source\PSoC4/BLE_eventHandler.c ****                     CyBle_ChangeAdDeviceAddress(&cyBle_deviceAddress, 1u);
1446:.\Generated_Source\PSoC4/BLE_eventHandler.c ****                 #endif /* CYBLE_GAP_ROLE_PERIPHERAL || CYBLE_GAP_ROLE_BROADCASTER */    
1447:.\Generated_Source\PSoC4/BLE_eventHandler.c ****             }
1448:.\Generated_Source\PSoC4/BLE_eventHandler.c ****             /* Set device IO Capability  */
1449:.\Generated_Source\PSoC4/BLE_eventHandler.c ****             (void) CyBle_GapSetIoCap(CYBLE_IO_CAPABILITY);    
1450:.\Generated_Source\PSoC4/BLE_eventHandler.c ****         #endif /* CYBLE_GATT_ROLE_SERVER || CYBLE_GATT_ROLE_CLIENT */
1451:.\Generated_Source\PSoC4/BLE_eventHandler.c ****             CyBle_SetState(CYBLE_STATE_DISCONNECTED);
1452:.\Generated_Source\PSoC4/BLE_eventHandler.c ****             break;
1453:.\Generated_Source\PSoC4/BLE_eventHandler.c ****         case CYBLE_EVT_TIMEOUT:
1454:.\Generated_Source\PSoC4/BLE_eventHandler.c ****             CyBle_TimeOutEventHandler((CYBLE_TO_REASON_CODE_T *)eventParam);
1455:.\Generated_Source\PSoC4/BLE_eventHandler.c ****             break;
1456:.\Generated_Source\PSoC4/BLE_eventHandler.c ****     	case CYBLE_EVT_STACK_BUSY_STATUS:
1457:.\Generated_Source\PSoC4/BLE_eventHandler.c ****             cyBle_busyStatus = *(uint8 *)eventParam;
 178              		.loc 1 1457 0
 179 00aa 0A78     		ldrb	r2, [r1]
 180 00ac 6C4B     		ldr	r3, .L62+12
 181 00ae 1DE0     		b	.L53
 182              	.L9:
1458:.\Generated_Source\PSoC4/BLE_eventHandler.c ****             break;
1459:.\Generated_Source\PSoC4/BLE_eventHandler.c **** 
ARM GAS  C:\Users\Helon\AppData\Local\Temp\cc2OGx1X.s 			page 30


1460:.\Generated_Source\PSoC4/BLE_eventHandler.c ****         /**********************************************************
1461:.\Generated_Source\PSoC4/BLE_eventHandler.c ****         * GAP events
1462:.\Generated_Source\PSoC4/BLE_eventHandler.c ****         ************************************************************/
1463:.\Generated_Source\PSoC4/BLE_eventHandler.c ****         case CYBLE_EVT_GAP_AUTH_REQ:
1464:.\Generated_Source\PSoC4/BLE_eventHandler.c ****         #if(CYBLE_MODE_PROFILE)
1465:.\Generated_Source\PSoC4/BLE_eventHandler.c ****             if(0u == (cyBle_eventHandlerFlag & CYBLE_DISABLE_AUTOMATIC_AUTH))
 183              		.loc 1 1465 0
 184 00b0 2378     		ldrb	r3, [r4]
 185 00b2 9B06     		lsl	r3, r3, #26
 186 00b4 00D5     		bpl	.LCB160
 187 00b6 AAE0     		b	.L2	@long jump
 188              	.LCB160:
1466:.\Generated_Source\PSoC4/BLE_eventHandler.c ****             {
1467:.\Generated_Source\PSoC4/BLE_eventHandler.c ****                 /* If the responding device does not support pairing then the responding 
1468:.\Generated_Source\PSoC4/BLE_eventHandler.c ****                    device shall respond using the Pairing Failed message with the error 
1469:.\Generated_Source\PSoC4/BLE_eventHandler.c ****                    code "Pairing Not Supported" otherwise it responds with a Pairing 
1470:.\Generated_Source\PSoC4/BLE_eventHandler.c ****                    Response message.
1471:.\Generated_Source\PSoC4/BLE_eventHandler.c ****                 */
1472:.\Generated_Source\PSoC4/BLE_eventHandler.c ****                 if(cyBle_authInfo.security == (CYBLE_GAP_SEC_MODE_1 | CYBLE_GAP_SEC_LEVEL_1))
 189              		.loc 1 1472 0
 190 00b8 6A4B     		ldr	r3, .L62+16
 191 00ba 1A78     		ldrb	r2, [r3]
 192 00bc 1F1C     		mov	r7, r3
 193 00be 102A     		cmp	r2, #16
 194 00c0 01D1     		bne	.L23
1473:.\Generated_Source\PSoC4/BLE_eventHandler.c ****                 {
1474:.\Generated_Source\PSoC4/BLE_eventHandler.c ****                     cyBle_authInfo.authErr = CYBLE_GAP_AUTH_ERROR_PAIRING_NOT_SUPPORTED;
 195              		.loc 1 1474 0
 196 00c2 0523     		mov	r3, #5
 197 00c4 FB70     		strb	r3, [r7, #3]
 198              	.L23:
1475:.\Generated_Source\PSoC4/BLE_eventHandler.c ****                 }    
1476:.\Generated_Source\PSoC4/BLE_eventHandler.c ****             #if(CYBLE_GAP_ROLE_PERIPHERAL)
1477:.\Generated_Source\PSoC4/BLE_eventHandler.c ****                 (void)CyBle_GappAuthReqReply(cyBle_connHandle.bdHandle, &cyBle_authInfo);
 199              		.loc 1 1477 0
 200 00c6 684B     		ldr	r3, .L62+20
 201 00c8 391C     		mov	r1, r7
 202              	.LVL11:
 203 00ca 1878     		ldrb	r0, [r3]
 204              	.LVL12:
 205 00cc FFF7FEFF 		bl	CyBle_GappAuthReqReply
 206              	.LVL13:
1478:.\Generated_Source\PSoC4/BLE_eventHandler.c ****             #endif /* CYBLE_GAP_ROLE_PERIPHERAL */
1479:.\Generated_Source\PSoC4/BLE_eventHandler.c ****             #if (CYBLE_GAP_ROLE_CENTRAL)
1480:.\Generated_Source\PSoC4/BLE_eventHandler.c ****                 (void)CyBle_GapAuthReq(cyBle_connHandle.bdHandle, &cyBle_authInfo);
 207              		.loc 1 1480 0
 208 00d0 654B     		ldr	r3, .L62+20
 209 00d2 391C     		mov	r1, r7
 210 00d4 1878     		ldrb	r0, [r3]
 211 00d6 FFF7FEFF 		bl	CyBle_GapAuthReq
 212              	.LVL14:
 213 00da 98E0     		b	.L2
 214              	.LVL15:
 215              	.L3:
1481:.\Generated_Source\PSoC4/BLE_eventHandler.c ****             #endif /* CYBLE_GAP_ROLE_CENTRAL */
1482:.\Generated_Source\PSoC4/BLE_eventHandler.c ****             }
1483:.\Generated_Source\PSoC4/BLE_eventHandler.c ****         #endif /* CYBLE_MODE_PROFILE */
ARM GAS  C:\Users\Helon\AppData\Local\Temp\cc2OGx1X.s 			page 31


1484:.\Generated_Source\PSoC4/BLE_eventHandler.c ****             break;
1485:.\Generated_Source\PSoC4/BLE_eventHandler.c ****         
1486:.\Generated_Source\PSoC4/BLE_eventHandler.c ****         case CYBLE_EVT_GAP_AUTH_COMPLETE:
1487:.\Generated_Source\PSoC4/BLE_eventHandler.c ****         #if((CYBLE_GAP_ROLE_PERIPHERAL || CYBLE_GAP_ROLE_CENTRAL) && (CYBLE_BONDING_REQUIREMENT == 
1488:.\Generated_Source\PSoC4/BLE_eventHandler.c ****             cyBle_peerBonding = ((CYBLE_GAP_AUTH_INFO_T *)eventParam)->bonding;
1489:.\Generated_Source\PSoC4/BLE_eventHandler.c ****         #endif  /* CYBLE_BONDING_REQUIREMENT == CYBLE_BONDING_YES */
1490:.\Generated_Source\PSoC4/BLE_eventHandler.c ****             break;
1491:.\Generated_Source\PSoC4/BLE_eventHandler.c ****         
1492:.\Generated_Source\PSoC4/BLE_eventHandler.c ****         case CYBLE_EVT_GAP_CONNECTION_UPDATE_COMPLETE:
1493:.\Generated_Source\PSoC4/BLE_eventHandler.c ****             CyBle_GapConnUpdateCompleteEventHandler((const CYBLE_GAP_CONN_PARAM_UPDATED_IN_CONTROLL
1494:.\Generated_Source\PSoC4/BLE_eventHandler.c ****             break;
1495:.\Generated_Source\PSoC4/BLE_eventHandler.c ****             
1496:.\Generated_Source\PSoC4/BLE_eventHandler.c ****         case CYBLE_EVT_GAP_DEVICE_CONNECTED:
1497:.\Generated_Source\PSoC4/BLE_eventHandler.c ****             CyBle_GapConnUpdateCompleteEventHandler((const CYBLE_GAP_CONN_PARAM_UPDATED_IN_CONTROLL
1498:.\Generated_Source\PSoC4/BLE_eventHandler.c ****             #if(CYBLE_GAP_ROLE_CENTRAL)
1499:.\Generated_Source\PSoC4/BLE_eventHandler.c ****                 if(cyBle_connectingTimeout != 0u)
 216              		.loc 1 1499 0
 217 00dc 634B     		ldr	r3, .L62+24
 218 00de 1B88     		ldrh	r3, [r3]
 219 00e0 002B     		cmp	r3, #0
 220 00e2 01D0     		beq	.L24
1500:.\Generated_Source\PSoC4/BLE_eventHandler.c ****                 {
1501:.\Generated_Source\PSoC4/BLE_eventHandler.c ****                    (void)CyBle_StopTimer();
 221              		.loc 1 1501 0
 222 00e4 FFF7FEFF 		bl	CyBle_StopTimer
 223              	.LVL16:
 224              	.L24:
1502:.\Generated_Source\PSoC4/BLE_eventHandler.c ****                 }
1503:.\Generated_Source\PSoC4/BLE_eventHandler.c ****             #endif /* CYBLE_GAP_ROLE_CENTRAL */
1504:.\Generated_Source\PSoC4/BLE_eventHandler.c ****             CyBle_SetState(CYBLE_STATE_CONNECTED);
 225              		.loc 1 1504 0
 226 00e8 0222     		mov	r2, #2
 227              	.LVL17:
 228              	.L55:
 229 00ea 5C4B     		ldr	r3, .L62+8
 230              	.L53:
 231 00ec 1A70     		strb	r2, [r3]
1505:.\Generated_Source\PSoC4/BLE_eventHandler.c ****             break;
 232              		.loc 1 1505 0
 233 00ee 8EE0     		b	.L2
 234              	.LVL18:
 235              	.L19:
1429:.\Generated_Source\PSoC4/BLE_eventHandler.c ****                 #if(CYBLE_GAP_ROLE_PERIPHERAL || CYBLE_GAP_ROLE_BROADCASTER)
 236              		.loc 1 1429 0
 237 00f0 FFF7FEFF 		bl	CyBle_SetDeviceAddress
 238              	.LVL19:
1431:.\Generated_Source\PSoC4/BLE_eventHandler.c ****                     CyBle_ChangeAdDeviceAddress(cyBle_sflashDeviceAddress, 1u);
 239              		.loc 1 1431 0
 240 00f4 3868     		ldr	r0, [r7]
 241 00f6 0021     		mov	r1, #0
 242 00f8 FFF7FEFF 		bl	CyBle_ChangeAdDeviceAddress
 243              	.LVL20:
1432:.\Generated_Source\PSoC4/BLE_eventHandler.c ****                 #endif /* CYBLE_GAP_ROLE_PERIPHERAL || CYBLE_GAP_ROLE_BROADCASTER */    
 244              		.loc 1 1432 0
 245 00fc 3868     		ldr	r0, [r7]
 246              	.LVL21:
 247              	.L52:
ARM GAS  C:\Users\Helon\AppData\Local\Temp\cc2OGx1X.s 			page 32


1445:.\Generated_Source\PSoC4/BLE_eventHandler.c ****                 #endif /* CYBLE_GAP_ROLE_PERIPHERAL || CYBLE_GAP_ROLE_BROADCASTER */    
 248              		.loc 1 1445 0
 249 00fe 0121     		mov	r1, #1
 250 0100 FFF7FEFF 		bl	CyBle_ChangeAdDeviceAddress
 251              	.LVL22:
1449:.\Generated_Source\PSoC4/BLE_eventHandler.c ****         #endif /* CYBLE_GATT_ROLE_SERVER || CYBLE_GATT_ROLE_CLIENT */
 252              		.loc 1 1449 0
 253 0104 0020     		mov	r0, #0
 254 0106 FFF7FEFF 		bl	CyBle_GapSetIoCap
 255              	.LVL23:
 256              	.L13:
1506:.\Generated_Source\PSoC4/BLE_eventHandler.c **** 
1507:.\Generated_Source\PSoC4/BLE_eventHandler.c ****         case CYBLE_EVT_GAP_DEVICE_DISCONNECTED:
1508:.\Generated_Source\PSoC4/BLE_eventHandler.c ****             CyBle_SetState(CYBLE_STATE_DISCONNECTED);
 257              		.loc 1 1508 0
 258 010a 0622     		mov	r2, #6
 259 010c EDE7     		b	.L55
 260              	.LVL24:
 261              	.L10:
1509:.\Generated_Source\PSoC4/BLE_eventHandler.c ****             break;
1510:.\Generated_Source\PSoC4/BLE_eventHandler.c ****         #if(CYBLE_GAP_ROLE_PERIPHERAL || CYBLE_GAP_ROLE_BROADCASTER)
1511:.\Generated_Source\PSoC4/BLE_eventHandler.c ****             
1512:.\Generated_Source\PSoC4/BLE_eventHandler.c ****         case CYBLE_EVT_GAPP_ADVERTISEMENT_START_STOP:
1513:.\Generated_Source\PSoC4/BLE_eventHandler.c ****             #ifdef CYBLE_CPS_SERVER
1514:.\Generated_Source\PSoC4/BLE_eventHandler.c ****                 #if(CYBLE_GAP_ROLE_BROADCASTER)
1515:.\Generated_Source\PSoC4/BLE_eventHandler.c ****                     CyBle_CpssAdvertisementStartStopEventHandler();
1516:.\Generated_Source\PSoC4/BLE_eventHandler.c ****                 #endif /* CYBLE_GAP_ROLE_BROADCASTER */
1517:.\Generated_Source\PSoC4/BLE_eventHandler.c ****             #endif /* CYBLE_CPS_SERVER */
1518:.\Generated_Source\PSoC4/BLE_eventHandler.c ****             
1519:.\Generated_Source\PSoC4/BLE_eventHandler.c ****             if((CYBLE_STATE_CONNECTED != CyBle_GetState()) && ((cyBle_eventHandlerFlag & CYBLE_CALL
 262              		.loc 1 1519 0
 263 010e 534B     		ldr	r3, .L62+8
 264 0110 1A78     		ldrb	r2, [r3]
 265 0112 0192     		str	r2, [sp, #4]
 266 0114 022A     		cmp	r2, #2
 267 0116 7AD0     		beq	.L2
 268              		.loc 1 1519 0 is_stmt 0 discriminator 1
 269 0118 2278     		ldrb	r2, [r4]
 270 011a 3A42     		tst	r2, r7
 271 011c 77D0     		beq	.L2
1520:.\Generated_Source\PSoC4/BLE_eventHandler.c ****             {
1521:.\Generated_Source\PSoC4/BLE_eventHandler.c ****                 /* After CyBle_GappStartAdvertisement first event indicates that advertising has be
1522:.\Generated_Source\PSoC4/BLE_eventHandler.c ****                 if(0u != (cyBle_eventHandlerFlag & CYBLE_START_FLAG))
 272              		.loc 1 1522 0 is_stmt 1
 273 011e 0422     		mov	r2, #4
 274 0120 2178     		ldrb	r1, [r4]
 275              	.LVL25:
 276 0122 1142     		tst	r1, r2
 277 0124 02D0     		beq	.L25
1523:.\Generated_Source\PSoC4/BLE_eventHandler.c ****                 {
1524:.\Generated_Source\PSoC4/BLE_eventHandler.c ****                     CyBle_SetState(CYBLE_STATE_ADVERTISING);
 278              		.loc 1 1524 0
 279 0126 0321     		mov	r1, #3
 280 0128 1970     		strb	r1, [r3]
 281 012a 1DE0     		b	.L58
 282              	.L25:
1525:.\Generated_Source\PSoC4/BLE_eventHandler.c ****                     cyBle_eventHandlerFlag &= (uint8)~CYBLE_START_FLAG;
ARM GAS  C:\Users\Helon\AppData\Local\Temp\cc2OGx1X.s 			page 33


1526:.\Generated_Source\PSoC4/BLE_eventHandler.c ****                 }
1527:.\Generated_Source\PSoC4/BLE_eventHandler.c ****                 /* When application initiated stop advertisement */
1528:.\Generated_Source\PSoC4/BLE_eventHandler.c ****                 else if(0u != (cyBle_eventHandlerFlag & CYBLE_STOP_FLAG))
 283              		.loc 1 1528 0
 284 012c 2378     		ldrb	r3, [r4]
 285 012e 1B07     		lsl	r3, r3, #28
 286 0130 1FD4     		bmi	.L54
1529:.\Generated_Source\PSoC4/BLE_eventHandler.c ****                 {
1530:.\Generated_Source\PSoC4/BLE_eventHandler.c ****                     CyBle_SetState(CYBLE_STATE_DISCONNECTED);  
1531:.\Generated_Source\PSoC4/BLE_eventHandler.c ****                     cyBle_eventHandlerFlag &= (uint8)~CYBLE_STOP_FLAG;
1532:.\Generated_Source\PSoC4/BLE_eventHandler.c ****                 }
1533:.\Generated_Source\PSoC4/BLE_eventHandler.c ****                 else /* Following event indicates that advertising has been stopped */
1534:.\Generated_Source\PSoC4/BLE_eventHandler.c ****                 {
1535:.\Generated_Source\PSoC4/BLE_eventHandler.c ****                     if(CYBLE_STATE_ADVERTISING == CyBle_GetState())
 287              		.loc 1 1535 0
 288 0132 019B     		ldr	r3, [sp, #4]
 289 0134 032B     		cmp	r3, #3
 290 0136 6AD1     		bne	.L2
1536:.\Generated_Source\PSoC4/BLE_eventHandler.c ****                     {
1537:.\Generated_Source\PSoC4/BLE_eventHandler.c ****                         CyBle_SetState(CYBLE_STATE_DISCONNECTED);
 291              		.loc 1 1537 0
 292 0138 484A     		ldr	r2, .L62+8
 293 013a 0333     		add	r3, r3, #3
 294 013c 1370     		strb	r3, [r2]
1538:.\Generated_Source\PSoC4/BLE_eventHandler.c ****                     #if ((CYBLE_SLOW_ADV_ENABLED != 0u) && (CYBLE_FAST_ADV_TIMEOUT != 0u))
1539:.\Generated_Source\PSoC4/BLE_eventHandler.c ****                         if(cyBle_advertisingIntervalType == CYBLE_ADVERTISING_FAST)
 295              		.loc 1 1539 0
 296 013e 4C4B     		ldr	r3, .L62+28
 297 0140 1B78     		ldrb	r3, [r3]
 298 0142 002B     		cmp	r3, #0
 299 0144 63D1     		bne	.L2
1540:.\Generated_Source\PSoC4/BLE_eventHandler.c ****                         {
1541:.\Generated_Source\PSoC4/BLE_eventHandler.c ****                             /* When fast advertising time out occur: Start slow advertising */
1542:.\Generated_Source\PSoC4/BLE_eventHandler.c ****                             if(CYBLE_ERROR_OK == CyBle_GappStartAdvertisement(CYBLE_ADVERTISING_SLO
 300              		.loc 1 1542 0
 301 0146 0120     		mov	r0, #1
 302              	.LVL26:
 303 0148 FFF7FEFF 		bl	CyBle_GappStartAdvertisement
 304              	.LVL27:
 305 014c 26E0     		b	.L60
 306              	.LVL28:
 307              	.L14:
1543:.\Generated_Source\PSoC4/BLE_eventHandler.c ****                             {
1544:.\Generated_Source\PSoC4/BLE_eventHandler.c ****                                 CyBle_SetState(CYBLE_STATE_ADVERTISING);
1545:.\Generated_Source\PSoC4/BLE_eventHandler.c ****                             }
1546:.\Generated_Source\PSoC4/BLE_eventHandler.c ****                         }
1547:.\Generated_Source\PSoC4/BLE_eventHandler.c ****                     #endif /* CYBLE_SLOW_ADV_ENABLED */
1548:.\Generated_Source\PSoC4/BLE_eventHandler.c ****                     }
1549:.\Generated_Source\PSoC4/BLE_eventHandler.c ****                 }
1550:.\Generated_Source\PSoC4/BLE_eventHandler.c ****             }
1551:.\Generated_Source\PSoC4/BLE_eventHandler.c ****             break;
1552:.\Generated_Source\PSoC4/BLE_eventHandler.c ****         #endif /* CYBLE_GAP_ROLE_PERIPHERAL || CYBLE_GAP_ROLE_BROADCASTER */
1553:.\Generated_Source\PSoC4/BLE_eventHandler.c ****         
1554:.\Generated_Source\PSoC4/BLE_eventHandler.c ****         #if(CYBLE_GAP_ROLE_CENTRAL || CYBLE_GAP_ROLE_OBSERVER)    
1555:.\Generated_Source\PSoC4/BLE_eventHandler.c ****         case CYBLE_EVT_GAPC_SCAN_START_STOP:
1556:.\Generated_Source\PSoC4/BLE_eventHandler.c ****             #ifdef CYBLE_CPS_CLIENT
1557:.\Generated_Source\PSoC4/BLE_eventHandler.c ****                 CyBle_CpscScanStartStopEventHandler();
ARM GAS  C:\Users\Helon\AppData\Local\Temp\cc2OGx1X.s 			page 34


1558:.\Generated_Source\PSoC4/BLE_eventHandler.c ****             #endif /* CYBLE_CPS_CLIENT */
1559:.\Generated_Source\PSoC4/BLE_eventHandler.c ****             
1560:.\Generated_Source\PSoC4/BLE_eventHandler.c ****             if((CYBLE_STATE_CONNECTED != CyBle_GetState()) && ((cyBle_eventHandlerFlag & CYBLE_CALL
 308              		.loc 1 1560 0
 309 014e 434B     		ldr	r3, .L62+8
 310 0150 1A78     		ldrb	r2, [r3]
 311 0152 0192     		str	r2, [sp, #4]
 312 0154 022A     		cmp	r2, #2
 313 0156 5AD0     		beq	.L2
 314              		.loc 1 1560 0 is_stmt 0 discriminator 1
 315 0158 2278     		ldrb	r2, [r4]
 316 015a 3A42     		tst	r2, r7
 317 015c 57D0     		beq	.L2
1561:.\Generated_Source\PSoC4/BLE_eventHandler.c ****             {
1562:.\Generated_Source\PSoC4/BLE_eventHandler.c ****                 /* After CyBle_GapcStartScan first event indicates that scanning has been started *
1563:.\Generated_Source\PSoC4/BLE_eventHandler.c ****                 if(0u != (cyBle_eventHandlerFlag & CYBLE_START_FLAG))
 318              		.loc 1 1563 0 is_stmt 1
 319 015e 0422     		mov	r2, #4
 320 0160 2178     		ldrb	r1, [r4]
 321              	.LVL29:
 322 0162 1142     		tst	r1, r2
 323 0164 02D0     		beq	.L27
1564:.\Generated_Source\PSoC4/BLE_eventHandler.c ****                 {
1565:.\Generated_Source\PSoC4/BLE_eventHandler.c ****                     CyBle_SetState(CYBLE_STATE_SCANNING);
 324              		.loc 1 1565 0
 325 0166 1A70     		strb	r2, [r3]
 326              	.L58:
1566:.\Generated_Source\PSoC4/BLE_eventHandler.c ****                     cyBle_eventHandlerFlag &= (uint8)~CYBLE_START_FLAG;
 327              		.loc 1 1566 0
 328 0168 2378     		ldrb	r3, [r4]
 329 016a 07E0     		b	.L56
 330              	.L27:
1567:.\Generated_Source\PSoC4/BLE_eventHandler.c ****                 }
1568:.\Generated_Source\PSoC4/BLE_eventHandler.c ****                 /* When application initiated stop scanning */
1569:.\Generated_Source\PSoC4/BLE_eventHandler.c ****                 else if(0u != (cyBle_eventHandlerFlag & CYBLE_STOP_FLAG))
 331              		.loc 1 1569 0
 332 016c 2378     		ldrb	r3, [r4]
 333 016e 1B07     		lsl	r3, r3, #28
 334 0170 07D5     		bpl	.L28
 335              	.L54:
1570:.\Generated_Source\PSoC4/BLE_eventHandler.c ****                 {
1571:.\Generated_Source\PSoC4/BLE_eventHandler.c ****                     CyBle_SetState(CYBLE_STATE_DISCONNECTED);  
 336              		.loc 1 1571 0
 337 0172 0623     		mov	r3, #6
 338 0174 394A     		ldr	r2, .L62+8
 339 0176 1370     		strb	r3, [r2]
1572:.\Generated_Source\PSoC4/BLE_eventHandler.c ****                     cyBle_eventHandlerFlag &= (uint8)~CYBLE_STOP_FLAG;
 340              		.loc 1 1572 0
 341 0178 0822     		mov	r2, #8
 342 017a 2378     		ldrb	r3, [r4]
 343              	.L56:
 344 017c 9343     		bic	r3, r2
 345 017e 2370     		strb	r3, [r4]
 346 0180 45E0     		b	.L2
 347              	.L28:
1573:.\Generated_Source\PSoC4/BLE_eventHandler.c ****                 }
1574:.\Generated_Source\PSoC4/BLE_eventHandler.c ****                 else /* Following event indicates that scanning has been stopped by stack */
ARM GAS  C:\Users\Helon\AppData\Local\Temp\cc2OGx1X.s 			page 35


1575:.\Generated_Source\PSoC4/BLE_eventHandler.c ****                 {
1576:.\Generated_Source\PSoC4/BLE_eventHandler.c ****                     if(CYBLE_STATE_SCANNING == CyBle_GetState())
 348              		.loc 1 1576 0
 349 0182 019B     		ldr	r3, [sp, #4]
 350 0184 042B     		cmp	r3, #4
 351 0186 42D1     		bne	.L2
1577:.\Generated_Source\PSoC4/BLE_eventHandler.c ****                     {
1578:.\Generated_Source\PSoC4/BLE_eventHandler.c ****                         CyBle_SetState(CYBLE_STATE_DISCONNECTED);  
 352              		.loc 1 1578 0
 353 0188 344A     		ldr	r2, .L62+8
 354 018a 0233     		add	r3, r3, #2
 355 018c 1370     		strb	r3, [r2]
1579:.\Generated_Source\PSoC4/BLE_eventHandler.c ****                     #if ((CYBLE_SLOW_SCAN_ENABLED != 0u) && (CYBLE_FAST_SCAN_TIMEOUT != 0u))
1580:.\Generated_Source\PSoC4/BLE_eventHandler.c ****                         if(cyBle_scanningIntervalType == CYBLE_SCANNING_FAST)
 356              		.loc 1 1580 0
 357 018e 394B     		ldr	r3, .L62+32
 358 0190 1B78     		ldrb	r3, [r3]
 359 0192 002B     		cmp	r3, #0
 360 0194 3BD1     		bne	.L2
1581:.\Generated_Source\PSoC4/BLE_eventHandler.c ****                         {
1582:.\Generated_Source\PSoC4/BLE_eventHandler.c ****                             /* When fast scanning time out occur: Start slow scanning */
1583:.\Generated_Source\PSoC4/BLE_eventHandler.c ****                             if(CYBLE_ERROR_OK == CyBle_GapcStartScan(CYBLE_SCANNING_SLOW))
 361              		.loc 1 1583 0
 362 0196 0120     		mov	r0, #1
 363              	.LVL30:
 364 0198 FFF7FEFF 		bl	CyBle_GapcStartScan
 365              	.LVL31:
 366              	.L60:
 367 019c 0028     		cmp	r0, #0
 368 019e 36D1     		bne	.L2
1584:.\Generated_Source\PSoC4/BLE_eventHandler.c ****                             {
1585:.\Generated_Source\PSoC4/BLE_eventHandler.c ****                                 CyBle_SetState(CYBLE_STATE_SCANNING);
 369              		.loc 1 1585 0
 370 01a0 6A46     		mov	r2, sp
 371 01a2 2E4B     		ldr	r3, .L62+8
 372 01a4 1279     		ldrb	r2, [r2, #4]
 373 01a6 A1E7     		b	.L53
 374              	.LVL32:
 375              	.L11:
1586:.\Generated_Source\PSoC4/BLE_eventHandler.c ****                             }
1587:.\Generated_Source\PSoC4/BLE_eventHandler.c ****                         }
1588:.\Generated_Source\PSoC4/BLE_eventHandler.c ****                     #endif /* CYBLE_SLOW_SCAN_ENABLED */
1589:.\Generated_Source\PSoC4/BLE_eventHandler.c ****                     }
1590:.\Generated_Source\PSoC4/BLE_eventHandler.c ****                 }
1591:.\Generated_Source\PSoC4/BLE_eventHandler.c ****             }
1592:.\Generated_Source\PSoC4/BLE_eventHandler.c ****             break;
1593:.\Generated_Source\PSoC4/BLE_eventHandler.c ****         #endif /* CYBLE_GAP_ROLE_CENTRAL || CYBLE_GAP_ROLE_OBSERVER */
1594:.\Generated_Source\PSoC4/BLE_eventHandler.c **** 
1595:.\Generated_Source\PSoC4/BLE_eventHandler.c ****         /**********************************************************
1596:.\Generated_Source\PSoC4/BLE_eventHandler.c ****         * L2AP events 
1597:.\Generated_Source\PSoC4/BLE_eventHandler.c ****         ************************************************************/
1598:.\Generated_Source\PSoC4/BLE_eventHandler.c ****         case CYBLE_EVT_L2CAP_CONN_PARAM_UPDATE_RSP:
1599:.\Generated_Source\PSoC4/BLE_eventHandler.c ****             CyBle_L2Cap_ConnParamUpdateRspEventHandler(*(uint16 *)eventParam);
1600:.\Generated_Source\PSoC4/BLE_eventHandler.c ****             break;
1601:.\Generated_Source\PSoC4/BLE_eventHandler.c ****         
1602:.\Generated_Source\PSoC4/BLE_eventHandler.c ****         /**********************************************************
1603:.\Generated_Source\PSoC4/BLE_eventHandler.c ****         * GATT events
ARM GAS  C:\Users\Helon\AppData\Local\Temp\cc2OGx1X.s 			page 36


1604:.\Generated_Source\PSoC4/BLE_eventHandler.c ****         ************************************************************/        
1605:.\Generated_Source\PSoC4/BLE_eventHandler.c ****         case CYBLE_EVT_GATT_CONNECT_IND:
1606:.\Generated_Source\PSoC4/BLE_eventHandler.c ****             cyBle_connHandle = *(CYBLE_CONN_HANDLE_T *)eventParam;
 376              		.loc 1 1606 0
 377 01a8 2F4F     		ldr	r7, .L62+20
 378 01aa 0222     		mov	r2, #2
 379 01ac 381C     		mov	r0, r7
 380              	.LVL33:
 381 01ae FFF7FEFF 		bl	memcpy
 382              	.LVL34:
1607:.\Generated_Source\PSoC4/BLE_eventHandler.c ****             
1608:.\Generated_Source\PSoC4/BLE_eventHandler.c ****         #if((CYBLE_GATT_ROLE_SERVER) && (CYBLE_GATT_DB_CCCD_COUNT != 0u))
1609:.\Generated_Source\PSoC4/BLE_eventHandler.c ****             /* Init CCCD values in RAM */
1610:.\Generated_Source\PSoC4/BLE_eventHandler.c ****         	(void) memcpy (cyBle_attValuesCCCD, cyBle_flashStorage.attValuesCCCDFlashMemory[cyBle_conn
 383              		.loc 1 1610 0
 384 01b2 3978     		ldrb	r1, [r7]
 385 01b4 304B     		ldr	r3, .L62+36
 386 01b6 5A31     		add	r1, r1, #90
 387 01b8 8900     		lsl	r1, r1, #2
 388 01ba 5918     		add	r1, r3, r1
 389 01bc 0531     		add	r1, r1, #5
 390 01be 0422     		mov	r2, #4
 391 01c0 2E48     		ldr	r0, .L62+40
 392 01c2 FFF7FEFF 		bl	memcpy
 393              	.LVL35:
 394 01c6 22E0     		b	.L2
 395              	.LVL36:
 396              	.L16:
 397              	.LBB30:
 398              	.LBB31:
1155:.\Generated_Source\PSoC4/BLE_eventHandler.c ****     cyBle_connHandle.bdHandle = 0u;
 399              		.loc 1 1155 0
 400 01c8 0022     		mov	r2, #0
 401 01ca 274B     		ldr	r3, .L62+20
 402 01cc 5A70     		strb	r2, [r3, #1]
 403 01ce 8DE7     		b	.L53
 404              	.L15:
 405              	.LBE31:
 406              	.LBE30:
 407              	.LBB32:
1611:.\Generated_Source\PSoC4/BLE_eventHandler.c ****                             CYBLE_GATT_DB_CCCD_COUNT);
1612:.\Generated_Source\PSoC4/BLE_eventHandler.c ****         #endif /* CYBLE_GATT_ROLE_SERVER */
1613:.\Generated_Source\PSoC4/BLE_eventHandler.c ****         
1614:.\Generated_Source\PSoC4/BLE_eventHandler.c ****         #if (CYBLE_GATT_ROLE_CLIENT)
1615:.\Generated_Source\PSoC4/BLE_eventHandler.c ****             CyBle_SetClientState(CYBLE_CLIENT_STATE_CONNECTED);
1616:.\Generated_Source\PSoC4/BLE_eventHandler.c ****         #endif /* CYBLE_GATT_ROLE_CLIENT */
1617:.\Generated_Source\PSoC4/BLE_eventHandler.c ****         
1618:.\Generated_Source\PSoC4/BLE_eventHandler.c ****             CyBle_GattConnectReqHandler();
1619:.\Generated_Source\PSoC4/BLE_eventHandler.c ****             break;
1620:.\Generated_Source\PSoC4/BLE_eventHandler.c **** 
1621:.\Generated_Source\PSoC4/BLE_eventHandler.c ****         case CYBLE_EVT_GATT_DISCONNECT_IND:
1622:.\Generated_Source\PSoC4/BLE_eventHandler.c ****             CyBle_GattDisconnectEventHandler();
1623:.\Generated_Source\PSoC4/BLE_eventHandler.c ****             break;
1624:.\Generated_Source\PSoC4/BLE_eventHandler.c **** 
1625:.\Generated_Source\PSoC4/BLE_eventHandler.c ****     #if((CYBLE_GATT_ROLE_SERVER) || (CYBLE_GATT_ROLE_CLIENT))
1626:.\Generated_Source\PSoC4/BLE_eventHandler.c ****         case CYBLE_EVT_GATTS_XCNHG_MTU_REQ:
1627:.\Generated_Source\PSoC4/BLE_eventHandler.c ****             {
ARM GAS  C:\Users\Helon\AppData\Local\Temp\cc2OGx1X.s 			page 37


1628:.\Generated_Source\PSoC4/BLE_eventHandler.c ****                 uint16 cyBle_mtuSize;
1629:.\Generated_Source\PSoC4/BLE_eventHandler.c ****                 if(CYBLE_GATT_MTU > ((CYBLE_GATT_XCHG_MTU_PARAM_T *)eventParam)->mtu)
 408              		.loc 1 1629 0
 409 01d0 4988     		ldrh	r1, [r1, #2]
 410              	.LVL37:
 411 01d2 2B4B     		ldr	r3, .L62+44
 412 01d4 9942     		cmp	r1, r3
 413 01d6 01D9     		bls	.L29
1630:.\Generated_Source\PSoC4/BLE_eventHandler.c ****                 {
1631:.\Generated_Source\PSoC4/BLE_eventHandler.c ****                     cyBle_mtuSize = ((CYBLE_GATT_XCHG_MTU_PARAM_T *)eventParam)->mtu;
1632:.\Generated_Source\PSoC4/BLE_eventHandler.c ****                 }
1633:.\Generated_Source\PSoC4/BLE_eventHandler.c ****                 else
1634:.\Generated_Source\PSoC4/BLE_eventHandler.c ****                 {
1635:.\Generated_Source\PSoC4/BLE_eventHandler.c ****                     cyBle_mtuSize = CYBLE_GATT_MTU;
 414              		.loc 1 1635 0
 415 01d8 8021     		mov	r1, #128
 416 01da 8900     		lsl	r1, r1, #2
 417              	.L29:
 418              	.LVL38:
1636:.\Generated_Source\PSoC4/BLE_eventHandler.c ****                 }
1637:.\Generated_Source\PSoC4/BLE_eventHandler.c ****                 (void)CyBle_GattsExchangeMtuRsp(((CYBLE_GATT_XCHG_MTU_PARAM_T *)eventParam)->connHa
 419              		.loc 1 1637 0
 420 01dc 3088     		ldrh	r0, [r6]
 421              	.LVL39:
 422 01de FFF7FEFF 		bl	CyBle_GattsExchangeMtuRsp
 423              	.LVL40:
 424              	.LBE32:
1638:.\Generated_Source\PSoC4/BLE_eventHandler.c ****             }
1639:.\Generated_Source\PSoC4/BLE_eventHandler.c ****             break;
 425              		.loc 1 1639 0
 426 01e2 14E0     		b	.L2
 427              	.LVL41:
 428              	.L17:
 429              	.LBB33:
 430              	.LBB34:
 234:.\Generated_Source\PSoC4/BLE_eventHandler.c **** #ifdef CYBLE_ANCS_SERVER
 431              		.loc 1 234 0
 432 01e4 081C     		mov	r0, r1
 433              	.LVL42:
 434 01e6 FFF7FEFF 		bl	CyBle_GattsWriteEventHandler
 435              	.LVL43:
 387:.\Generated_Source\PSoC4/BLE_eventHandler.c ****     {
 436              		.loc 1 387 0
 437 01ea 2378     		ldrb	r3, [r4]
 438 01ec 3B42     		tst	r3, r7
 439 01ee 0ED1     		bne	.L2
 389:.\Generated_Source\PSoC4/BLE_eventHandler.c ****         {
 440              		.loc 1 389 0
 441 01f0 0028     		cmp	r0, #0
 442 01f2 09D0     		beq	.L30
 443              	.LBB35:
 393:.\Generated_Source\PSoC4/BLE_eventHandler.c ****             err_param.attrHandle = eventParam->handleValPair.attrHandle;
 444              		.loc 1 393 0
 445 01f4 1223     		mov	r3, #18
 446 01f6 03A9     		add	r1, sp, #12
 447 01f8 8B70     		strb	r3, [r1, #2]
 394:.\Generated_Source\PSoC4/BLE_eventHandler.c ****             err_param.errorCode = gattErr;
ARM GAS  C:\Users\Helon\AppData\Local\Temp\cc2OGx1X.s 			page 38


 448              		.loc 1 394 0
 449 01fa B389     		ldrh	r3, [r6, #12]
 395:.\Generated_Source\PSoC4/BLE_eventHandler.c **** 
 450              		.loc 1 395 0
 451 01fc C870     		strb	r0, [r1, #3]
 398:.\Generated_Source\PSoC4/BLE_eventHandler.c ****         }
 452              		.loc 1 398 0
 453 01fe 3068     		ldr	r0, [r6]
 454              	.LVL44:
 394:.\Generated_Source\PSoC4/BLE_eventHandler.c ****             err_param.errorCode = gattErr;
 455              		.loc 1 394 0
 456 0200 0B80     		strh	r3, [r1]
 398:.\Generated_Source\PSoC4/BLE_eventHandler.c ****         }
 457              		.loc 1 398 0
 458 0202 FFF7FEFF 		bl	CyBle_GattsErrorRsp
 459              	.LVL45:
 460 0206 02E0     		b	.L2
 461              	.LVL46:
 462              	.L30:
 463              	.LBE35:
 402:.\Generated_Source\PSoC4/BLE_eventHandler.c ****         }
 464              		.loc 1 402 0
 465 0208 3068     		ldr	r0, [r6]
 466              	.LVL47:
 467 020a FFF7FEFF 		bl	CyBle_GattsWriteRsp
 468              	.LVL48:
 469              	.L2:
 470              	.LBE34:
 471              	.LBE33:
1640:.\Generated_Source\PSoC4/BLE_eventHandler.c ****     #endif /* CYBLE_GATT_ROLE_SERVER || CYBLE_GATT_ROLE_CLIENT */
1641:.\Generated_Source\PSoC4/BLE_eventHandler.c ****     
1642:.\Generated_Source\PSoC4/BLE_eventHandler.c ****     #if (CYBLE_GATT_ROLE_CLIENT)
1643:.\Generated_Source\PSoC4/BLE_eventHandler.c ****         case CYBLE_EVT_GAPC_SCAN_PROGRESS_RESULT:
1644:.\Generated_Source\PSoC4/BLE_eventHandler.c ****         #ifdef CYBLE_CPS_CLIENT
1645:.\Generated_Source\PSoC4/BLE_eventHandler.c ****                 CyBle_CpscScanProcessEventHandler((CYBLE_GAPC_ADV_REPORT_T *)eventParam);
1646:.\Generated_Source\PSoC4/BLE_eventHandler.c ****         #endif /* CYBLE_CPS_CLIENT */
1647:.\Generated_Source\PSoC4/BLE_eventHandler.c ****             break;
1648:.\Generated_Source\PSoC4/BLE_eventHandler.c ****     #endif /* CYBLE_GATT_ROLE_CLIENT */
1649:.\Generated_Source\PSoC4/BLE_eventHandler.c **** 
1650:.\Generated_Source\PSoC4/BLE_eventHandler.c ****     #if(CYBLE_GATT_ROLE_SERVER)
1651:.\Generated_Source\PSoC4/BLE_eventHandler.c ****         case CYBLE_EVT_GATTS_WRITE_REQ:
1652:.\Generated_Source\PSoC4/BLE_eventHandler.c ****             CyBle_WriteReqHandler((CYBLE_GATTS_WRITE_REQ_PARAM_T *)eventParam);
1653:.\Generated_Source\PSoC4/BLE_eventHandler.c ****             break;
1654:.\Generated_Source\PSoC4/BLE_eventHandler.c **** 
1655:.\Generated_Source\PSoC4/BLE_eventHandler.c ****         case CYBLE_EVT_GATTS_WRITE_CMD_REQ:
1656:.\Generated_Source\PSoC4/BLE_eventHandler.c ****         #ifdef CYBLE_IAS_SERVER
1657:.\Generated_Source\PSoC4/BLE_eventHandler.c ****             if((cyBle_eventHandlerFlag & CYBLE_CALLBACK) != 0u)
1658:.\Generated_Source\PSoC4/BLE_eventHandler.c ****             {
1659:.\Generated_Source\PSoC4/BLE_eventHandler.c ****                 (void)CyBle_IassWriteCmdEventHandler((CYBLE_GATTS_WRITE_REQ_PARAM_T *)eventParam);
1660:.\Generated_Source\PSoC4/BLE_eventHandler.c ****             }
1661:.\Generated_Source\PSoC4/BLE_eventHandler.c ****         #endif /* CYBLE_IAS_SERVER */
1662:.\Generated_Source\PSoC4/BLE_eventHandler.c ****         #ifdef CYBLE_HIDS_SERVER
1663:.\Generated_Source\PSoC4/BLE_eventHandler.c ****             if((cyBle_eventHandlerFlag & CYBLE_CALLBACK) != 0u)
1664:.\Generated_Source\PSoC4/BLE_eventHandler.c ****             {
1665:.\Generated_Source\PSoC4/BLE_eventHandler.c ****                 (void)CyBle_HidssWriteEventHandler((CYBLE_GATTS_WRITE_REQ_PARAM_T *)eventParam);
1666:.\Generated_Source\PSoC4/BLE_eventHandler.c ****             }
1667:.\Generated_Source\PSoC4/BLE_eventHandler.c ****         #endif /* CYBLE_HIDS_SERVER */
ARM GAS  C:\Users\Helon\AppData\Local\Temp\cc2OGx1X.s 			page 39


1668:.\Generated_Source\PSoC4/BLE_eventHandler.c ****         #ifdef CYBLE_PASS_SERVER
1669:.\Generated_Source\PSoC4/BLE_eventHandler.c ****             if((cyBle_eventHandlerFlag & CYBLE_CALLBACK) != 0u)
1670:.\Generated_Source\PSoC4/BLE_eventHandler.c ****             {
1671:.\Generated_Source\PSoC4/BLE_eventHandler.c ****                 (void)CyBle_PasssWriteCmdEventHandler((CYBLE_GATTS_WRITE_REQ_PARAM_T *)eventParam);
1672:.\Generated_Source\PSoC4/BLE_eventHandler.c ****             }
1673:.\Generated_Source\PSoC4/BLE_eventHandler.c ****         #endif /* CYBLE_PASS_SERVER */
1674:.\Generated_Source\PSoC4/BLE_eventHandler.c ****         #ifdef CYBLE_RTUS_SERVER
1675:.\Generated_Source\PSoC4/BLE_eventHandler.c ****             if((cyBle_eventHandlerFlag & CYBLE_CALLBACK) != 0u)
1676:.\Generated_Source\PSoC4/BLE_eventHandler.c ****             {
1677:.\Generated_Source\PSoC4/BLE_eventHandler.c ****                 (void)CyBle_RtussWriteCmdEventHandler((CYBLE_GATTS_WRITE_REQ_PARAM_T *)eventParam);
1678:.\Generated_Source\PSoC4/BLE_eventHandler.c ****             }
1679:.\Generated_Source\PSoC4/BLE_eventHandler.c ****         #endif /* CYBLE_RTUS_SERVER */
1680:.\Generated_Source\PSoC4/BLE_eventHandler.c ****         #ifdef CYBLE_SCPS_SERVER
1681:.\Generated_Source\PSoC4/BLE_eventHandler.c ****             if((cyBle_eventHandlerFlag & CYBLE_CALLBACK) != 0u)
1682:.\Generated_Source\PSoC4/BLE_eventHandler.c ****             {
1683:.\Generated_Source\PSoC4/BLE_eventHandler.c ****                 (void)CyBle_ScpssWriteEventHandler((CYBLE_GATTS_WRITE_REQ_PARAM_T *)eventParam);
1684:.\Generated_Source\PSoC4/BLE_eventHandler.c ****             }
1685:.\Generated_Source\PSoC4/BLE_eventHandler.c ****         #endif /* CYBLE_SCPS_SERVER */
1686:.\Generated_Source\PSoC4/BLE_eventHandler.c ****             break;
1687:.\Generated_Source\PSoC4/BLE_eventHandler.c ****         
1688:.\Generated_Source\PSoC4/BLE_eventHandler.c ****         case CYBLE_EVT_GATTS_PREP_WRITE_REQ:
1689:.\Generated_Source\PSoC4/BLE_eventHandler.c ****         #ifdef CYBLE_BMS_SERVER
1690:.\Generated_Source\PSoC4/BLE_eventHandler.c ****             CyBle_BmssPrepareWriteRequestEventHandler((CYBLE_GATTS_PREP_WRITE_REQ_PARAM_T *)eventPa
1691:.\Generated_Source\PSoC4/BLE_eventHandler.c ****         #endif /* CYBLE_BMS_SERVER */
1692:.\Generated_Source\PSoC4/BLE_eventHandler.c ****         #ifdef CYBLE_BTS_SERVER
1693:.\Generated_Source\PSoC4/BLE_eventHandler.c ****             if((cyBle_eventHandlerFlag & CYBLE_CALLBACK) != 0u)
1694:.\Generated_Source\PSoC4/BLE_eventHandler.c ****             {
1695:.\Generated_Source\PSoC4/BLE_eventHandler.c ****                 CyBle_BtssPrepareWriteRequestEventHandler((CYBLE_GATTS_PREP_WRITE_REQ_PARAM_T *)eve
1696:.\Generated_Source\PSoC4/BLE_eventHandler.c ****             }
1697:.\Generated_Source\PSoC4/BLE_eventHandler.c ****         #endif /* CYBLE_BTS_SERVER */
1698:.\Generated_Source\PSoC4/BLE_eventHandler.c ****         #ifdef CYBLE_ESS_SERVER
1699:.\Generated_Source\PSoC4/BLE_eventHandler.c ****             if((cyBle_eventHandlerFlag & CYBLE_CALLBACK) != 0u)
1700:.\Generated_Source\PSoC4/BLE_eventHandler.c ****             {
1701:.\Generated_Source\PSoC4/BLE_eventHandler.c ****                 CyBle_EsssPrepareWriteRequestEventHandler((CYBLE_GATTS_PREP_WRITE_REQ_PARAM_T *)eve
1702:.\Generated_Source\PSoC4/BLE_eventHandler.c ****             }
1703:.\Generated_Source\PSoC4/BLE_eventHandler.c ****         #endif /* CYBLE_ESS_SERVER */
1704:.\Generated_Source\PSoC4/BLE_eventHandler.c **** 		#ifdef CYBLE_UDS_SERVER
1705:.\Generated_Source\PSoC4/BLE_eventHandler.c ****             if((cyBle_eventHandlerFlag & CYBLE_CALLBACK) != 0u)
1706:.\Generated_Source\PSoC4/BLE_eventHandler.c ****             {
1707:.\Generated_Source\PSoC4/BLE_eventHandler.c ****                 CyBle_UdssPrepareWriteRequestEventHandler((CYBLE_GATTS_PREP_WRITE_REQ_PARAM_T *)eve
1708:.\Generated_Source\PSoC4/BLE_eventHandler.c ****             }
1709:.\Generated_Source\PSoC4/BLE_eventHandler.c ****         #endif /* CYBLE_UDS_SERVER */
1710:.\Generated_Source\PSoC4/BLE_eventHandler.c ****             break;
1711:.\Generated_Source\PSoC4/BLE_eventHandler.c **** 
1712:.\Generated_Source\PSoC4/BLE_eventHandler.c ****         case CYBLE_EVT_GATTS_EXEC_WRITE_REQ:
1713:.\Generated_Source\PSoC4/BLE_eventHandler.c ****         #ifdef CYBLE_BMS_SERVER
1714:.\Generated_Source\PSoC4/BLE_eventHandler.c ****             CyBle_BmssExecuteWriteRequestEventHandler((CYBLE_GATTS_EXEC_WRITE_REQ_T *)eventParam);
1715:.\Generated_Source\PSoC4/BLE_eventHandler.c ****         #endif /* CYBLE_BMS_SERVER */
1716:.\Generated_Source\PSoC4/BLE_eventHandler.c ****         #ifdef CYBLE_BTS_SERVER
1717:.\Generated_Source\PSoC4/BLE_eventHandler.c ****             CyBle_BtssExecuteWriteRequestEventHandler((CYBLE_GATTS_EXEC_WRITE_REQ_T *)eventParam);
1718:.\Generated_Source\PSoC4/BLE_eventHandler.c ****         #endif /* CYBLE_BTS_SERVER */
1719:.\Generated_Source\PSoC4/BLE_eventHandler.c ****         #ifdef CYBLE_ESS_SERVER
1720:.\Generated_Source\PSoC4/BLE_eventHandler.c ****             CyBle_EsssExecuteWriteRequestEventHandler((CYBLE_GATTS_EXEC_WRITE_REQ_T *)eventParam);
1721:.\Generated_Source\PSoC4/BLE_eventHandler.c ****         #endif /* CYBLE_ESS_SERVER */
1722:.\Generated_Source\PSoC4/BLE_eventHandler.c **** 		#ifdef CYBLE_UDS_SERVER
1723:.\Generated_Source\PSoC4/BLE_eventHandler.c ****             CyBle_UdssExecuteWriteRequestEventHandler((CYBLE_GATTS_EXEC_WRITE_REQ_T *)eventParam);
1724:.\Generated_Source\PSoC4/BLE_eventHandler.c ****         #endif /* CYBLE_UDS_SERVER */
ARM GAS  C:\Users\Helon\AppData\Local\Temp\cc2OGx1X.s 			page 40


1725:.\Generated_Source\PSoC4/BLE_eventHandler.c ****             break;
1726:.\Generated_Source\PSoC4/BLE_eventHandler.c ****         
1727:.\Generated_Source\PSoC4/BLE_eventHandler.c ****         case CYBLE_EVT_GATTS_HANDLE_VALUE_CNF:
1728:.\Generated_Source\PSoC4/BLE_eventHandler.c ****             CyBle_ValueConfirmation((CYBLE_CONN_HANDLE_T *)eventParam);
1729:.\Generated_Source\PSoC4/BLE_eventHandler.c ****             break;
1730:.\Generated_Source\PSoC4/BLE_eventHandler.c ****             
1731:.\Generated_Source\PSoC4/BLE_eventHandler.c ****         case CYBLE_EVT_GATTS_READ_CHAR_VAL_ACCESS_REQ:
1732:.\Generated_Source\PSoC4/BLE_eventHandler.c ****         #ifdef CYBLE_UDS_SERVER
1733:.\Generated_Source\PSoC4/BLE_eventHandler.c ****             CyBle_UdssReadRequestEventHandler((CYBLE_GATTS_CHAR_VAL_READ_REQ_T *)eventParam);
1734:.\Generated_Source\PSoC4/BLE_eventHandler.c ****         #endif /* CYBLE_UDS_SERVER */
1735:.\Generated_Source\PSoC4/BLE_eventHandler.c ****             break;
1736:.\Generated_Source\PSoC4/BLE_eventHandler.c ****             
1737:.\Generated_Source\PSoC4/BLE_eventHandler.c ****     #endif /* CYBLE_GATT_ROLE_SERVER */
1738:.\Generated_Source\PSoC4/BLE_eventHandler.c **** 
1739:.\Generated_Source\PSoC4/BLE_eventHandler.c ****     #if (CYBLE_GATT_ROLE_CLIENT)
1740:.\Generated_Source\PSoC4/BLE_eventHandler.c ****         
1741:.\Generated_Source\PSoC4/BLE_eventHandler.c ****         case CYBLE_EVT_GATTC_READ_BY_GROUP_TYPE_RSP:
1742:.\Generated_Source\PSoC4/BLE_eventHandler.c ****             CyBle_ReadByGroupEventHandler((CYBLE_GATTC_READ_BY_GRP_RSP_PARAM_T *)eventParam);
1743:.\Generated_Source\PSoC4/BLE_eventHandler.c ****             break;
1744:.\Generated_Source\PSoC4/BLE_eventHandler.c **** 
1745:.\Generated_Source\PSoC4/BLE_eventHandler.c ****         case CYBLE_EVT_GATTC_READ_BY_TYPE_RSP:
1746:.\Generated_Source\PSoC4/BLE_eventHandler.c ****             CyBle_ReadByTypeEventHandler((CYBLE_GATTC_READ_BY_TYPE_RSP_PARAM_T *)eventParam);
1747:.\Generated_Source\PSoC4/BLE_eventHandler.c ****             break;
1748:.\Generated_Source\PSoC4/BLE_eventHandler.c **** 
1749:.\Generated_Source\PSoC4/BLE_eventHandler.c ****         case CYBLE_EVT_GATTC_READ_BLOB_RSP:
1750:.\Generated_Source\PSoC4/BLE_eventHandler.c ****         #ifdef CYBLE_ESS_CLIENT
1751:.\Generated_Source\PSoC4/BLE_eventHandler.c ****             CyBle_EsscReadLongRespEventHandler((CYBLE_GATTC_READ_RSP_PARAM_T *)eventParam);
1752:.\Generated_Source\PSoC4/BLE_eventHandler.c ****         #endif /* CYBLE_ESS_CLIENT */
1753:.\Generated_Source\PSoC4/BLE_eventHandler.c ****         #ifdef CYBLE_UDS_CLIENT
1754:.\Generated_Source\PSoC4/BLE_eventHandler.c ****             if((cyBle_eventHandlerFlag & CYBLE_CALLBACK) != 0u)
1755:.\Generated_Source\PSoC4/BLE_eventHandler.c ****             {
1756:.\Generated_Source\PSoC4/BLE_eventHandler.c ****                 CyBle_UdscReadLongRespEventHandler((CYBLE_GATTC_READ_RSP_PARAM_T *)eventParam);
1757:.\Generated_Source\PSoC4/BLE_eventHandler.c ****             }
1758:.\Generated_Source\PSoC4/BLE_eventHandler.c ****         #endif /* CYBLE_UDS_CLIENT */
1759:.\Generated_Source\PSoC4/BLE_eventHandler.c ****             break;
1760:.\Generated_Source\PSoC4/BLE_eventHandler.c ****         
1761:.\Generated_Source\PSoC4/BLE_eventHandler.c ****         case CYBLE_EVT_GATTC_FIND_INFO_RSP:
1762:.\Generated_Source\PSoC4/BLE_eventHandler.c ****             CyBle_FindInfoEventHandler((CYBLE_GATTC_FIND_INFO_RSP_PARAM_T *)eventParam);
1763:.\Generated_Source\PSoC4/BLE_eventHandler.c ****             break;
1764:.\Generated_Source\PSoC4/BLE_eventHandler.c **** 
1765:.\Generated_Source\PSoC4/BLE_eventHandler.c ****         case CYBLE_EVT_GATTC_ERROR_RSP:
1766:.\Generated_Source\PSoC4/BLE_eventHandler.c ****             CyBle_ErrorResponseEventHandler((CYBLE_GATTC_ERR_RSP_PARAM_T *)eventParam);
1767:.\Generated_Source\PSoC4/BLE_eventHandler.c ****             break;
1768:.\Generated_Source\PSoC4/BLE_eventHandler.c **** 
1769:.\Generated_Source\PSoC4/BLE_eventHandler.c ****         case CYBLE_EVT_GATTC_HANDLE_VALUE_NTF:
1770:.\Generated_Source\PSoC4/BLE_eventHandler.c ****             CyBle_NotificationEventHandler((CYBLE_GATTC_HANDLE_VALUE_NTF_PARAM_T *)eventParam);
1771:.\Generated_Source\PSoC4/BLE_eventHandler.c ****             break;
1772:.\Generated_Source\PSoC4/BLE_eventHandler.c **** 
1773:.\Generated_Source\PSoC4/BLE_eventHandler.c ****         case CYBLE_EVT_GATTC_HANDLE_VALUE_IND:
1774:.\Generated_Source\PSoC4/BLE_eventHandler.c ****             CyBle_GattcIndicationEventHandler((CYBLE_GATTC_HANDLE_VALUE_IND_PARAM_T *)eventParam);
1775:.\Generated_Source\PSoC4/BLE_eventHandler.c ****             CyBle_IndicationEventHandler((CYBLE_GATTC_HANDLE_VALUE_IND_PARAM_T *)eventParam);
1776:.\Generated_Source\PSoC4/BLE_eventHandler.c ****         
1777:.\Generated_Source\PSoC4/BLE_eventHandler.c ****             /* Respond with a Handle Value Confirmation when request handled */
1778:.\Generated_Source\PSoC4/BLE_eventHandler.c ****             if((cyBle_eventHandlerFlag & CYBLE_CALLBACK) == 0u)
1779:.\Generated_Source\PSoC4/BLE_eventHandler.c ****             {
1780:.\Generated_Source\PSoC4/BLE_eventHandler.c ****                 (void)CyBle_GattcConfirmation(((CYBLE_GATTC_HANDLE_VALUE_IND_PARAM_T *)eventParam)-
1781:.\Generated_Source\PSoC4/BLE_eventHandler.c ****             }
ARM GAS  C:\Users\Helon\AppData\Local\Temp\cc2OGx1X.s 			page 41


1782:.\Generated_Source\PSoC4/BLE_eventHandler.c ****             break;
1783:.\Generated_Source\PSoC4/BLE_eventHandler.c ****         
1784:.\Generated_Source\PSoC4/BLE_eventHandler.c ****         case CYBLE_EVT_GATTC_READ_RSP:
1785:.\Generated_Source\PSoC4/BLE_eventHandler.c ****             CyBle_ReadResponseEventHandler((CYBLE_GATTC_READ_RSP_PARAM_T *)eventParam);
1786:.\Generated_Source\PSoC4/BLE_eventHandler.c ****             break;
1787:.\Generated_Source\PSoC4/BLE_eventHandler.c **** 
1788:.\Generated_Source\PSoC4/BLE_eventHandler.c ****         case CYBLE_EVT_GATTC_WRITE_RSP:
1789:.\Generated_Source\PSoC4/BLE_eventHandler.c ****             CyBle_GattcWriteResponseEventHandler((CYBLE_CONN_HANDLE_T *)eventParam);
1790:.\Generated_Source\PSoC4/BLE_eventHandler.c ****             break;
1791:.\Generated_Source\PSoC4/BLE_eventHandler.c ****             
1792:.\Generated_Source\PSoC4/BLE_eventHandler.c ****         case CYBLE_EVT_GATTC_EXEC_WRITE_RSP:
1793:.\Generated_Source\PSoC4/BLE_eventHandler.c ****         #ifdef CYBLE_BMS_CLIENT
1794:.\Generated_Source\PSoC4/BLE_eventHandler.c ****             CyBle_BmscExecuteWriteResponseEventHandler((CYBLE_GATTC_EXEC_WRITE_RSP_T *)eventParam);
1795:.\Generated_Source\PSoC4/BLE_eventHandler.c ****         #endif /* CYBLE_BMS_CLIENT */
1796:.\Generated_Source\PSoC4/BLE_eventHandler.c ****         #ifdef CYBLE_ESS_CLIENT
1797:.\Generated_Source\PSoC4/BLE_eventHandler.c ****             if((cyBle_eventHandlerFlag & CYBLE_CALLBACK) != 0u)
1798:.\Generated_Source\PSoC4/BLE_eventHandler.c ****             {
1799:.\Generated_Source\PSoC4/BLE_eventHandler.c ****                 CyBle_EsscExecuteWriteResponseEventHandler((CYBLE_GATTC_EXEC_WRITE_RSP_T *)eventPar
1800:.\Generated_Source\PSoC4/BLE_eventHandler.c ****             }
1801:.\Generated_Source\PSoC4/BLE_eventHandler.c ****         #endif /* CYBLE_ESS_CLIENT */
1802:.\Generated_Source\PSoC4/BLE_eventHandler.c ****         #ifdef CYBLE_UDS_CLIENT
1803:.\Generated_Source\PSoC4/BLE_eventHandler.c ****             if((cyBle_eventHandlerFlag & CYBLE_CALLBACK) != 0u)
1804:.\Generated_Source\PSoC4/BLE_eventHandler.c ****             {
1805:.\Generated_Source\PSoC4/BLE_eventHandler.c ****                 CyBle_UdscExecuteWriteResponseEventHandler((CYBLE_GATTC_EXEC_WRITE_RSP_T *)eventPar
1806:.\Generated_Source\PSoC4/BLE_eventHandler.c ****             }
1807:.\Generated_Source\PSoC4/BLE_eventHandler.c ****         #endif /* CYBLE_UDS_CLIENT */
1808:.\Generated_Source\PSoC4/BLE_eventHandler.c ****             break;
1809:.\Generated_Source\PSoC4/BLE_eventHandler.c ****             
1810:.\Generated_Source\PSoC4/BLE_eventHandler.c ****     #endif /* CYBLE_GATT_ROLE_CLIENT */
1811:.\Generated_Source\PSoC4/BLE_eventHandler.c **** 
1812:.\Generated_Source\PSoC4/BLE_eventHandler.c ****     #if((CYBLE_GAP_ROLE_PERIPHERAL || CYBLE_GAP_ROLE_CENTRAL) && (CYBLE_BONDING_REQUIREMENT == CYBL
1813:.\Generated_Source\PSoC4/BLE_eventHandler.c **** 
1814:.\Generated_Source\PSoC4/BLE_eventHandler.c ****         case CYBLE_EVT_PENDING_FLASH_WRITE:
1815:.\Generated_Source\PSoC4/BLE_eventHandler.c ****             cyBle_pendingFlashWrite |= CYBLE_PENDING_STACK_FLASH_WRITE_BIT;
1816:.\Generated_Source\PSoC4/BLE_eventHandler.c ****             break;
1817:.\Generated_Source\PSoC4/BLE_eventHandler.c ****         
1818:.\Generated_Source\PSoC4/BLE_eventHandler.c ****     #endif  /* (CYBLE_BONDING_REQUIREMENT == CYBLE_BONDING_YES) */
1819:.\Generated_Source\PSoC4/BLE_eventHandler.c ****     
1820:.\Generated_Source\PSoC4/BLE_eventHandler.c ****         default:
1821:.\Generated_Source\PSoC4/BLE_eventHandler.c ****             break;
1822:.\Generated_Source\PSoC4/BLE_eventHandler.c ****     }
1823:.\Generated_Source\PSoC4/BLE_eventHandler.c **** 
1824:.\Generated_Source\PSoC4/BLE_eventHandler.c ****     if(0u != (cyBle_eventHandlerFlag & (CYBLE_CALLBACK | CYBLE_ENABLE_ALL_EVENTS))) 
 472              		.loc 1 1824 0
 473 020e 1123     		mov	r3, #17
 474 0210 2278     		ldrb	r2, [r4]
 475 0212 1A42     		tst	r2, r3
 476 0214 1CD0     		beq	.L1
1825:.\Generated_Source\PSoC4/BLE_eventHandler.c ****     {
1826:.\Generated_Source\PSoC4/BLE_eventHandler.c ****         cyBle_eventHandlerFlag &= (uint8)~CYBLE_CALLBACK;
 477              		.loc 1 1826 0
 478 0216 0122     		mov	r2, #1
 479 0218 2378     		ldrb	r3, [r4]
1827:.\Generated_Source\PSoC4/BLE_eventHandler.c ****         CyBle_ApplCallback((uint32)eventCode, eventParam);
 480              		.loc 1 1827 0
 481 021a 281C     		mov	r0, r5
1826:.\Generated_Source\PSoC4/BLE_eventHandler.c ****         CyBle_ApplCallback((uint32)eventCode, eventParam);
ARM GAS  C:\Users\Helon\AppData\Local\Temp\cc2OGx1X.s 			page 42


 482              		.loc 1 1826 0
 483 021c 9343     		bic	r3, r2
 484 021e 2370     		strb	r3, [r4]
 485              		.loc 1 1827 0
 486 0220 184B     		ldr	r3, .L62+48
 487 0222 311C     		mov	r1, r6
 488 0224 1B68     		ldr	r3, [r3]
 489 0226 9847     		blx	r3
 490              	.LVL49:
 491 0228 12E0     		b	.L1
 492              	.LVL50:
 493              	.L18:
1438:.\Generated_Source\PSoC4/BLE_eventHandler.c ****                 cyBle_deviceAddress.bdAddr[1] = CYBLE_SFLASH_DIE_Y_REG;
 494              		.loc 1 1438 0
 495 022a 174B     		ldr	r3, .L62+52
 496 022c 174F     		ldr	r7, .L62+56
 497 022e 1B78     		ldrb	r3, [r3]
1442:.\Generated_Source\PSoC4/BLE_eventHandler.c ****                 #if(CYBLE_GAP_ROLE_PERIPHERAL || CYBLE_GAP_ROLE_BROADCASTER)
 498              		.loc 1 1442 0
 499 0230 381C     		mov	r0, r7
 500              	.LVL51:
1438:.\Generated_Source\PSoC4/BLE_eventHandler.c ****                 cyBle_deviceAddress.bdAddr[1] = CYBLE_SFLASH_DIE_Y_REG;
 501              		.loc 1 1438 0
 502 0232 3B70     		strb	r3, [r7]
1439:.\Generated_Source\PSoC4/BLE_eventHandler.c ****                 cyBle_deviceAddress.bdAddr[2] = CYBLE_SFLASH_DIE_WAFER_REG;
 503              		.loc 1 1439 0
 504 0234 164B     		ldr	r3, .L62+60
 505 0236 1B78     		ldrb	r3, [r3]
 506 0238 7B70     		strb	r3, [r7, #1]
1440:.\Generated_Source\PSoC4/BLE_eventHandler.c ****             #endif /* SILICON_GENERATED_DEVICE_ADDRESS != 0u */
 507              		.loc 1 1440 0
 508 023a 164B     		ldr	r3, .L62+64
 509 023c 1B78     		ldrb	r3, [r3]
 510 023e BB70     		strb	r3, [r7, #2]
1442:.\Generated_Source\PSoC4/BLE_eventHandler.c ****                 #if(CYBLE_GAP_ROLE_PERIPHERAL || CYBLE_GAP_ROLE_BROADCASTER)
 511              		.loc 1 1442 0
 512 0240 FFF7FEFF 		bl	CyBle_SetDeviceAddress
 513              	.LVL52:
1444:.\Generated_Source\PSoC4/BLE_eventHandler.c ****                     CyBle_ChangeAdDeviceAddress(&cyBle_deviceAddress, 1u);
 514              		.loc 1 1444 0
 515 0244 381C     		mov	r0, r7
 516 0246 0021     		mov	r1, #0
 517 0248 FFF7FEFF 		bl	CyBle_ChangeAdDeviceAddress
 518              	.LVL53:
1445:.\Generated_Source\PSoC4/BLE_eventHandler.c ****                 #endif /* CYBLE_GAP_ROLE_PERIPHERAL || CYBLE_GAP_ROLE_BROADCASTER */    
 519              		.loc 1 1445 0
 520 024c 381C     		mov	r0, r7
 521 024e 56E7     		b	.L52
 522              	.LVL54:
 523              	.L1:
1828:.\Generated_Source\PSoC4/BLE_eventHandler.c ****     }
1829:.\Generated_Source\PSoC4/BLE_eventHandler.c **** }
 524              		.loc 1 1829 0
 525 0250 05B0     		add	sp, sp, #20
 526              		@ sp needed
 527              	.LVL55:
 528 0252 F0BD     		pop	{r4, r5, r6, r7, pc}
ARM GAS  C:\Users\Helon\AppData\Local\Temp\cc2OGx1X.s 			page 43


 529              	.L63:
 530              		.align	2
 531              	.L62:
 532 0254 00000000 		.word	cyBle_eventHandlerFlag
 533 0258 00000000 		.word	cyBle_sflashDeviceAddress
 534 025c 00000000 		.word	cyBle_state
 535 0260 00000000 		.word	cyBle_busyStatus
 536 0264 00000000 		.word	.LANCHOR0
 537 0268 00000000 		.word	cyBle_connHandle
 538 026c 00000000 		.word	cyBle_connectingTimeout
 539 0270 00000000 		.word	cyBle_advertisingIntervalType
 540 0274 00000000 		.word	cyBle_scanningIntervalType
 541 0278 00000000 		.word	cyBle_flashStorage
 542 027c 00000000 		.word	cyBle_attValuesCCCD
 543 0280 FF010000 		.word	511
 544 0284 00000000 		.word	CyBle_ApplCallback
 545 0288 7CF1FF0F 		.word	268431740
 546 028c 00000000 		.word	cyBle_deviceAddress
 547 0290 7DF1FF0F 		.word	268431741
 548 0294 7BF1FF0F 		.word	268431739
 549              		.cfi_endproc
 550              	.LFE10:
 551              		.size	CyBle_EventHandler, .-CyBle_EventHandler
 552              		.global	cyBle_authInfo
 553              		.comm	cyBle_scanningIntervalType,1,1
 554              		.comm	cyBle_advertisingIntervalType,1,1
 555              		.comm	cyBle_busyStatus,1,1
 556              		.comm	cyBle_eventHandlerFlag,1,1
 557              		.comm	cyBle_connHandle,2,1
 558              		.data
 559              		.set	.LANCHOR0,. + 0
 560              		.type	cyBle_authInfo, %object
 561              		.size	cyBle_authInfo, 4
 562              	cyBle_authInfo:
 563 0000 12       		.byte	18
 564 0001 00       		.byte	0
 565 0002 10       		.byte	16
 566 0003 00       		.byte	0
 567              		.text
 568              	.Letext0:
 569              		.file 2 ".\\Generated_Source\\PSoC4\\cytypes.h"
 570              		.file 3 ".\\Generated_Source\\PSoC4\\BLE_Stack.h"
 571              		.file 4 ".\\Generated_Source\\PSoC4\\BLE_StackHostMain.h"
 572              		.file 5 ".\\Generated_Source\\PSoC4\\BLE_StackGap.h"
 573              		.file 6 ".\\Generated_Source\\PSoC4\\BLE_StackGatt.h"
 574              		.file 7 ".\\Generated_Source\\PSoC4\\BLE_StackGattServer.h"
 575              		.file 8 ".\\Generated_Source\\PSoC4\\BLE.h"
 576              		.file 9 ".\\Generated_Source\\PSoC4\\BLE_gatt.h"
 577              		.file 10 ".\\Generated_Source\\PSoC4\\BLE_eventHandler.h"
 578              		.section	.debug_info,"",%progbits
 579              	.Ldebug_info0:
 580 0000 F20E0000 		.4byte	0xef2
 581 0004 0400     		.2byte	0x4
 582 0006 00000000 		.4byte	.Ldebug_abbrev0
 583 000a 04       		.byte	0x4
 584 000b 01       		.uleb128 0x1
 585 000c 48140000 		.4byte	.LASF301
ARM GAS  C:\Users\Helon\AppData\Local\Temp\cc2OGx1X.s 			page 44


 586 0010 01       		.byte	0x1
 587 0011 F9050000 		.4byte	.LASF302
 588 0015 C9040000 		.4byte	.LASF303
 589 0019 00000000 		.4byte	.Ldebug_ranges0+0
 590 001d 00000000 		.4byte	0
 591 0021 00000000 		.4byte	.Ldebug_line0
 592 0025 02       		.uleb128 0x2
 593 0026 01       		.byte	0x1
 594 0027 06       		.byte	0x6
 595 0028 F3060000 		.4byte	.LASF0
 596 002c 02       		.uleb128 0x2
 597 002d 01       		.byte	0x1
 598 002e 08       		.byte	0x8
 599 002f 08080000 		.4byte	.LASF1
 600 0033 02       		.uleb128 0x2
 601 0034 02       		.byte	0x2
 602 0035 05       		.byte	0x5
 603 0036 E71A0000 		.4byte	.LASF2
 604 003a 02       		.uleb128 0x2
 605 003b 02       		.byte	0x2
 606 003c 07       		.byte	0x7
 607 003d B71E0000 		.4byte	.LASF3
 608 0041 02       		.uleb128 0x2
 609 0042 04       		.byte	0x4
 610 0043 05       		.byte	0x5
 611 0044 C0040000 		.4byte	.LASF4
 612 0048 02       		.uleb128 0x2
 613 0049 04       		.byte	0x4
 614 004a 07       		.byte	0x7
 615 004b 060E0000 		.4byte	.LASF5
 616 004f 02       		.uleb128 0x2
 617 0050 08       		.byte	0x8
 618 0051 05       		.byte	0x5
 619 0052 B8100000 		.4byte	.LASF6
 620 0056 02       		.uleb128 0x2
 621 0057 08       		.byte	0x8
 622 0058 07       		.byte	0x7
 623 0059 98170000 		.4byte	.LASF7
 624 005d 03       		.uleb128 0x3
 625 005e 04       		.byte	0x4
 626 005f 05       		.byte	0x5
 627 0060 696E7400 		.ascii	"int\000"
 628 0064 02       		.uleb128 0x2
 629 0065 04       		.byte	0x4
 630 0066 07       		.byte	0x7
 631 0067 28130000 		.4byte	.LASF8
 632 006b 04       		.uleb128 0x4
 633 006c 891A0000 		.4byte	.LASF9
 634 0070 02       		.byte	0x2
 635 0071 C2       		.byte	0xc2
 636 0072 2C000000 		.4byte	0x2c
 637 0076 04       		.uleb128 0x4
 638 0077 39200000 		.4byte	.LASF10
 639 007b 02       		.byte	0x2
 640 007c C3       		.byte	0xc3
 641 007d 3A000000 		.4byte	0x3a
 642 0081 04       		.uleb128 0x4
ARM GAS  C:\Users\Helon\AppData\Local\Temp\cc2OGx1X.s 			page 45


 643 0082 03010000 		.4byte	.LASF11
 644 0086 02       		.byte	0x2
 645 0087 C4       		.byte	0xc4
 646 0088 48000000 		.4byte	0x48
 647 008c 02       		.uleb128 0x2
 648 008d 04       		.byte	0x4
 649 008e 04       		.byte	0x4
 650 008f 72120000 		.4byte	.LASF12
 651 0093 02       		.uleb128 0x2
 652 0094 08       		.byte	0x8
 653 0095 04       		.byte	0x4
 654 0096 66110000 		.4byte	.LASF13
 655 009a 02       		.uleb128 0x2
 656 009b 01       		.byte	0x1
 657 009c 08       		.byte	0x8
 658 009d 0A090000 		.4byte	.LASF14
 659 00a1 05       		.uleb128 0x5
 660 00a2 6B000000 		.4byte	0x6b
 661 00a6 02       		.uleb128 0x2
 662 00a7 04       		.byte	0x4
 663 00a8 07       		.byte	0x7
 664 00a9 1B000000 		.4byte	.LASF15
 665 00ad 06       		.uleb128 0x6
 666 00ae 04       		.byte	0x4
 667 00af 07       		.uleb128 0x7
 668 00b0 01       		.byte	0x1
 669 00b1 03       		.byte	0x3
 670 00b2 A4       		.byte	0xa4
 671 00b3 34020000 		.4byte	0x234
 672 00b7 08       		.uleb128 0x8
 673 00b8 A9090000 		.4byte	.LASF16
 674 00bc 00       		.sleb128 0
 675 00bd 08       		.uleb128 0x8
 676 00be 94050000 		.4byte	.LASF17
 677 00c2 01       		.sleb128 1
 678 00c3 08       		.uleb128 0x8
 679 00c4 E1170000 		.4byte	.LASF18
 680 00c8 02       		.sleb128 2
 681 00c9 08       		.uleb128 0x8
 682 00ca 34070000 		.4byte	.LASF19
 683 00ce 03       		.sleb128 3
 684 00cf 08       		.uleb128 0x8
 685 00d0 7F1F0000 		.4byte	.LASF20
 686 00d4 04       		.sleb128 4
 687 00d5 08       		.uleb128 0x8
 688 00d6 A91D0000 		.4byte	.LASF21
 689 00da 05       		.sleb128 5
 690 00db 08       		.uleb128 0x8
 691 00dc DB1B0000 		.4byte	.LASF22
 692 00e0 20       		.sleb128 32
 693 00e1 08       		.uleb128 0x8
 694 00e2 51030000 		.4byte	.LASF23
 695 00e6 21       		.sleb128 33
 696 00e7 08       		.uleb128 0x8
 697 00e8 ED0F0000 		.4byte	.LASF24
 698 00ec 22       		.sleb128 34
 699 00ed 08       		.uleb128 0x8
ARM GAS  C:\Users\Helon\AppData\Local\Temp\cc2OGx1X.s 			page 46


 700 00ee 92150000 		.4byte	.LASF25
 701 00f2 23       		.sleb128 35
 702 00f3 08       		.uleb128 0x8
 703 00f4 540D0000 		.4byte	.LASF26
 704 00f8 24       		.sleb128 36
 705 00f9 08       		.uleb128 0x8
 706 00fa 700D0000 		.4byte	.LASF27
 707 00fe 25       		.sleb128 37
 708 00ff 08       		.uleb128 0x8
 709 0100 611A0000 		.4byte	.LASF28
 710 0104 26       		.sleb128 38
 711 0105 08       		.uleb128 0x8
 712 0106 93000000 		.4byte	.LASF29
 713 010a 27       		.sleb128 39
 714 010b 08       		.uleb128 0x8
 715 010c F61F0000 		.4byte	.LASF30
 716 0110 28       		.sleb128 40
 717 0111 08       		.uleb128 0x8
 718 0112 EB160000 		.4byte	.LASF31
 719 0116 29       		.sleb128 41
 720 0117 08       		.uleb128 0x8
 721 0118 280F0000 		.4byte	.LASF32
 722 011c 2A       		.sleb128 42
 723 011d 08       		.uleb128 0x8
 724 011e 1F150000 		.4byte	.LASF33
 725 0122 2B       		.sleb128 43
 726 0123 08       		.uleb128 0x8
 727 0124 EF1D0000 		.4byte	.LASF34
 728 0128 2C       		.sleb128 44
 729 0129 08       		.uleb128 0x8
 730 012a 551B0000 		.4byte	.LASF35
 731 012e C000     		.sleb128 64
 732 0130 08       		.uleb128 0x8
 733 0131 D3000000 		.4byte	.LASF36
 734 0135 C100     		.sleb128 65
 735 0137 08       		.uleb128 0x8
 736 0138 941F0000 		.4byte	.LASF37
 737 013c C200     		.sleb128 66
 738 013e 08       		.uleb128 0x8
 739 013f 08170000 		.4byte	.LASF38
 740 0143 C300     		.sleb128 67
 741 0145 08       		.uleb128 0x8
 742 0146 16080000 		.4byte	.LASF39
 743 014a C400     		.sleb128 68
 744 014c 08       		.uleb128 0x8
 745 014d B5070000 		.4byte	.LASF40
 746 0151 C500     		.sleb128 69
 747 0153 08       		.uleb128 0x8
 748 0154 E0190000 		.4byte	.LASF41
 749 0158 C600     		.sleb128 70
 750 015a 08       		.uleb128 0x8
 751 015b C2190000 		.4byte	.LASF42
 752 015f C700     		.sleb128 71
 753 0161 08       		.uleb128 0x8
 754 0162 E3080000 		.4byte	.LASF43
 755 0166 C800     		.sleb128 72
 756 0168 08       		.uleb128 0x8
ARM GAS  C:\Users\Helon\AppData\Local\Temp\cc2OGx1X.s 			page 47


 757 0169 07160000 		.4byte	.LASF44
 758 016d C900     		.sleb128 73
 759 016f 08       		.uleb128 0x8
 760 0170 2F0A0000 		.4byte	.LASF45
 761 0174 CA00     		.sleb128 74
 762 0176 08       		.uleb128 0x8
 763 0177 3F090000 		.4byte	.LASF46
 764 017b CB00     		.sleb128 75
 765 017d 08       		.uleb128 0x8
 766 017e 78150000 		.4byte	.LASF47
 767 0182 CC00     		.sleb128 76
 768 0184 08       		.uleb128 0x8
 769 0185 2E1A0000 		.4byte	.LASF48
 770 0189 CD00     		.sleb128 77
 771 018b 08       		.uleb128 0x8
 772 018c A2040000 		.4byte	.LASF49
 773 0190 CE00     		.sleb128 78
 774 0192 08       		.uleb128 0x8
 775 0193 35130000 		.4byte	.LASF50
 776 0197 CF00     		.sleb128 79
 777 0199 08       		.uleb128 0x8
 778 019a BC1B0000 		.4byte	.LASF51
 779 019e D000     		.sleb128 80
 780 01a0 08       		.uleb128 0x8
 781 01a1 640A0000 		.4byte	.LASF52
 782 01a5 D100     		.sleb128 81
 783 01a7 08       		.uleb128 0x8
 784 01a8 30030000 		.4byte	.LASF53
 785 01ac D200     		.sleb128 82
 786 01ae 08       		.uleb128 0x8
 787 01af 671D0000 		.4byte	.LASF54
 788 01b3 D300     		.sleb128 83
 789 01b5 08       		.uleb128 0x8
 790 01b6 18200000 		.4byte	.LASF55
 791 01ba D400     		.sleb128 84
 792 01bc 08       		.uleb128 0x8
 793 01bd 01020000 		.4byte	.LASF56
 794 01c1 D500     		.sleb128 85
 795 01c3 08       		.uleb128 0x8
 796 01c4 F40A0000 		.4byte	.LASF57
 797 01c8 D600     		.sleb128 86
 798 01ca 08       		.uleb128 0x8
 799 01cb 9D120000 		.4byte	.LASF58
 800 01cf D700     		.sleb128 87
 801 01d1 08       		.uleb128 0x8
 802 01d2 5D1E0000 		.4byte	.LASF59
 803 01d6 F000     		.sleb128 112
 804 01d8 08       		.uleb128 0x8
 805 01d9 CB0C0000 		.4byte	.LASF60
 806 01dd F100     		.sleb128 113
 807 01df 08       		.uleb128 0x8
 808 01e0 71060000 		.4byte	.LASF61
 809 01e4 F200     		.sleb128 114
 810 01e6 08       		.uleb128 0x8
 811 01e7 9E1B0000 		.4byte	.LASF62
 812 01eb F300     		.sleb128 115
 813 01ed 08       		.uleb128 0x8
ARM GAS  C:\Users\Helon\AppData\Local\Temp\cc2OGx1X.s 			page 48


 814 01ee 5A160000 		.4byte	.LASF63
 815 01f2 F400     		.sleb128 116
 816 01f4 08       		.uleb128 0x8
 817 01f5 CC0F0000 		.4byte	.LASF64
 818 01f9 F500     		.sleb128 117
 819 01fb 08       		.uleb128 0x8
 820 01fc C2080000 		.4byte	.LASF65
 821 0200 F600     		.sleb128 118
 822 0202 08       		.uleb128 0x8
 823 0203 7C180000 		.4byte	.LASF66
 824 0207 F700     		.sleb128 119
 825 0209 08       		.uleb128 0x8
 826 020a 25020000 		.4byte	.LASF67
 827 020e F800     		.sleb128 120
 828 0210 08       		.uleb128 0x8
 829 0211 50080000 		.4byte	.LASF68
 830 0215 F900     		.sleb128 121
 831 0217 08       		.uleb128 0x8
 832 0218 D21F0000 		.4byte	.LASF69
 833 021c FA00     		.sleb128 122
 834 021e 08       		.uleb128 0x8
 835 021f 8F110000 		.4byte	.LASF70
 836 0223 FA01     		.sleb128 250
 837 0225 08       		.uleb128 0x8
 838 0226 211D0000 		.4byte	.LASF71
 839 022a FB01     		.sleb128 251
 840 022c 08       		.uleb128 0x8
 841 022d 11150000 		.4byte	.LASF72
 842 0231 FF01     		.sleb128 255
 843 0233 00       		.byte	0
 844 0234 09       		.uleb128 0x9
 845 0235 02       		.byte	0x2
 846 0236 03       		.byte	0x3
 847 0237 0C02     		.2byte	0x20c
 848 0239 EB020000 		.4byte	0x2eb
 849 023d 08       		.uleb128 0x8
 850 023e 60070000 		.4byte	.LASF73
 851 0242 00       		.sleb128 0
 852 0243 08       		.uleb128 0x8
 853 0244 5E0B0000 		.4byte	.LASF74
 854 0248 01       		.sleb128 1
 855 0249 08       		.uleb128 0x8
 856 024a 611F0000 		.4byte	.LASF75
 857 024e 02       		.sleb128 2
 858 024f 08       		.uleb128 0x8
 859 0250 C40B0000 		.4byte	.LASF76
 860 0254 03       		.sleb128 3
 861 0255 08       		.uleb128 0x8
 862 0256 A70D0000 		.4byte	.LASF77
 863 025a 04       		.sleb128 4
 864 025b 08       		.uleb128 0x8
 865 025c 48110000 		.4byte	.LASF78
 866 0260 05       		.sleb128 5
 867 0261 08       		.uleb128 0x8
 868 0262 D41C0000 		.4byte	.LASF79
 869 0266 06       		.sleb128 6
 870 0267 08       		.uleb128 0x8
ARM GAS  C:\Users\Helon\AppData\Local\Temp\cc2OGx1X.s 			page 49


 871 0268 120A0000 		.4byte	.LASF80
 872 026c 07       		.sleb128 7
 873 026d 08       		.uleb128 0x8
 874 026e 3C120000 		.4byte	.LASF81
 875 0272 08       		.sleb128 8
 876 0273 08       		.uleb128 0x8
 877 0274 401C0000 		.4byte	.LASF82
 878 0278 09       		.sleb128 9
 879 0279 08       		.uleb128 0x8
 880 027a 40200000 		.4byte	.LASF83
 881 027e 0A       		.sleb128 10
 882 027f 08       		.uleb128 0x8
 883 0280 7C030000 		.4byte	.LASF84
 884 0284 0B       		.sleb128 11
 885 0285 08       		.uleb128 0x8
 886 0286 921D0000 		.4byte	.LASF85
 887 028a 0C       		.sleb128 12
 888 028b 08       		.uleb128 0x8
 889 028c 06140000 		.4byte	.LASF86
 890 0290 0D       		.sleb128 13
 891 0291 08       		.uleb128 0x8
 892 0292 C50E0000 		.4byte	.LASF87
 893 0296 0E       		.sleb128 14
 894 0297 08       		.uleb128 0x8
 895 0298 23110000 		.4byte	.LASF88
 896 029c 0F       		.sleb128 15
 897 029d 08       		.uleb128 0x8
 898 029e B7010000 		.4byte	.LASF89
 899 02a2 10       		.sleb128 16
 900 02a3 08       		.uleb128 0x8
 901 02a4 18120000 		.4byte	.LASF90
 902 02a8 11       		.sleb128 17
 903 02a9 08       		.uleb128 0x8
 904 02aa A7050000 		.4byte	.LASF91
 905 02ae 12       		.sleb128 18
 906 02af 08       		.uleb128 0x8
 907 02b0 CB060000 		.4byte	.LASF92
 908 02b4 13       		.sleb128 19
 909 02b5 08       		.uleb128 0x8
 910 02b6 6D110000 		.4byte	.LASF93
 911 02ba 27       		.sleb128 39
 912 02bb 08       		.uleb128 0x8
 913 02bc 78120000 		.4byte	.LASF94
 914 02c0 28       		.sleb128 40
 915 02c1 08       		.uleb128 0x8
 916 02c2 E5010000 		.4byte	.LASF95
 917 02c6 29       		.sleb128 41
 918 02c7 08       		.uleb128 0x8
 919 02c8 BB0C0000 		.4byte	.LASF96
 920 02cc FF01     		.sleb128 255
 921 02ce 08       		.uleb128 0x8
 922 02cf D1150000 		.4byte	.LASF97
 923 02d3 8002     		.sleb128 256
 924 02d5 08       		.uleb128 0x8
 925 02d6 B8150000 		.4byte	.LASF98
 926 02da 8102     		.sleb128 257
 927 02dc 08       		.uleb128 0x8
ARM GAS  C:\Users\Helon\AppData\Local\Temp\cc2OGx1X.s 			page 50


 928 02dd 25060000 		.4byte	.LASF99
 929 02e1 8202     		.sleb128 258
 930 02e3 08       		.uleb128 0x8
 931 02e4 36180000 		.4byte	.LASF100
 932 02e8 8302     		.sleb128 259
 933 02ea 00       		.byte	0
 934 02eb 0A       		.uleb128 0xa
 935 02ec 401D0000 		.4byte	.LASF101
 936 02f0 03       		.byte	0x3
 937 02f1 6902     		.2byte	0x269
 938 02f3 34020000 		.4byte	0x234
 939 02f7 09       		.uleb128 0x9
 940 02f8 01       		.byte	0x1
 941 02f9 03       		.byte	0x3
 942 02fa 9A02     		.2byte	0x29a
 943 02fc 37030000 		.4byte	0x337
 944 0300 08       		.uleb128 0x8
 945 0301 FF060000 		.4byte	.LASF102
 946 0305 01       		.sleb128 1
 947 0306 08       		.uleb128 0x8
 948 0307 6D040000 		.4byte	.LASF103
 949 030b 02       		.sleb128 2
 950 030c 08       		.uleb128 0x8
 951 030d B6160000 		.4byte	.LASF104
 952 0311 03       		.sleb128 3
 953 0312 08       		.uleb128 0x8
 954 0313 B9030000 		.4byte	.LASF105
 955 0317 04       		.sleb128 4
 956 0318 08       		.uleb128 0x8
 957 0319 0F090000 		.4byte	.LASF106
 958 031d 05       		.sleb128 5
 959 031e 08       		.uleb128 0x8
 960 031f 330E0000 		.4byte	.LASF107
 961 0323 06       		.sleb128 6
 962 0324 08       		.uleb128 0x8
 963 0325 EE1C0000 		.4byte	.LASF108
 964 0329 07       		.sleb128 7
 965 032a 08       		.uleb128 0x8
 966 032b EF0D0000 		.4byte	.LASF109
 967 032f 08       		.sleb128 8
 968 0330 08       		.uleb128 0x8
 969 0331 D6110000 		.4byte	.LASF110
 970 0335 09       		.sleb128 9
 971 0336 00       		.byte	0
 972 0337 0A       		.uleb128 0xa
 973 0338 11100000 		.4byte	.LASF111
 974 033c 03       		.byte	0x3
 975 033d B102     		.2byte	0x2b1
 976 033f F7020000 		.4byte	0x2f7
 977 0343 09       		.uleb128 0x9
 978 0344 01       		.byte	0x1
 979 0345 03       		.byte	0x3
 980 0346 B502     		.2byte	0x2b5
 981 0348 5F030000 		.4byte	0x35f
 982 034c 08       		.uleb128 0x8
 983 034d 0C1D0000 		.4byte	.LASF112
 984 0351 00       		.sleb128 0
ARM GAS  C:\Users\Helon\AppData\Local\Temp\cc2OGx1X.s 			page 51


 985 0352 08       		.uleb128 0x8
 986 0353 9B130000 		.4byte	.LASF113
 987 0357 01       		.sleb128 1
 988 0358 08       		.uleb128 0x8
 989 0359 481E0000 		.4byte	.LASF114
 990 035d 02       		.sleb128 2
 991 035e 00       		.byte	0
 992 035f 0A       		.uleb128 0xa
 993 0360 6F070000 		.4byte	.LASF115
 994 0364 03       		.byte	0x3
 995 0365 BC02     		.2byte	0x2bc
 996 0367 43030000 		.4byte	0x343
 997 036b 0B       		.uleb128 0xb
 998 036c 02       		.byte	0x2
 999 036d 03       		.byte	0x3
 1000 036e BF02     		.2byte	0x2bf
 1001 0370 8F030000 		.4byte	0x38f
 1002 0374 0C       		.uleb128 0xc
 1003 0375 1C010000 		.4byte	.LASF116
 1004 0379 03       		.byte	0x3
 1005 037a C202     		.2byte	0x2c2
 1006 037c 37030000 		.4byte	0x337
 1007 0380 00       		.byte	0
 1008 0381 0C       		.uleb128 0xc
 1009 0382 67060000 		.4byte	.LASF117
 1010 0386 03       		.byte	0x3
 1011 0387 C402     		.2byte	0x2c4
 1012 0389 5F030000 		.4byte	0x35f
 1013 038d 01       		.byte	0x1
 1014 038e 00       		.byte	0
 1015 038f 0A       		.uleb128 0xa
 1016 0390 301E0000 		.4byte	.LASF118
 1017 0394 03       		.byte	0x3
 1018 0395 C502     		.2byte	0x2c5
 1019 0397 6B030000 		.4byte	0x36b
 1020 039b 0B       		.uleb128 0xb
 1021 039c 07       		.byte	0x7
 1022 039d 03       		.byte	0x3
 1023 039e 0503     		.2byte	0x305
 1024 03a0 BF030000 		.4byte	0x3bf
 1025 03a4 0C       		.uleb128 0xc
 1026 03a5 731C0000 		.4byte	.LASF119
 1027 03a9 03       		.byte	0x3
 1028 03aa 0803     		.2byte	0x308
 1029 03ac BF030000 		.4byte	0x3bf
 1030 03b0 00       		.byte	0
 1031 03b1 0C       		.uleb128 0xc
 1032 03b2 78020000 		.4byte	.LASF120
 1033 03b6 03       		.byte	0x3
 1034 03b7 0A03     		.2byte	0x30a
 1035 03b9 6B000000 		.4byte	0x6b
 1036 03bd 06       		.byte	0x6
 1037 03be 00       		.byte	0
 1038 03bf 0D       		.uleb128 0xd
 1039 03c0 6B000000 		.4byte	0x6b
 1040 03c4 CF030000 		.4byte	0x3cf
 1041 03c8 0E       		.uleb128 0xe
ARM GAS  C:\Users\Helon\AppData\Local\Temp\cc2OGx1X.s 			page 52


 1042 03c9 A6000000 		.4byte	0xa6
 1043 03cd 05       		.byte	0x5
 1044 03ce 00       		.byte	0
 1045 03cf 0A       		.uleb128 0xa
 1046 03d0 10190000 		.4byte	.LASF121
 1047 03d4 03       		.byte	0x3
 1048 03d5 0B03     		.2byte	0x30b
 1049 03d7 9B030000 		.4byte	0x39b
 1050 03db 07       		.uleb128 0x7
 1051 03dc 01       		.byte	0x1
 1052 03dd 04       		.byte	0x4
 1053 03de 4B       		.byte	0x4b
 1054 03df FC030000 		.4byte	0x3fc
 1055 03e3 08       		.uleb128 0x8
 1056 03e4 3D190000 		.4byte	.LASF122
 1057 03e8 01       		.sleb128 1
 1058 03e9 08       		.uleb128 0x8
 1059 03ea DE180000 		.4byte	.LASF123
 1060 03ee 02       		.sleb128 2
 1061 03ef 08       		.uleb128 0x8
 1062 03f0 C01F0000 		.4byte	.LASF124
 1063 03f4 03       		.sleb128 3
 1064 03f5 08       		.uleb128 0x8
 1065 03f6 B1190000 		.4byte	.LASF125
 1066 03fa 04       		.sleb128 4
 1067 03fb 00       		.byte	0
 1068 03fc 04       		.uleb128 0x4
 1069 03fd 7D020000 		.4byte	.LASF126
 1070 0401 04       		.byte	0x4
 1071 0402 58       		.byte	0x58
 1072 0403 DB030000 		.4byte	0x3db
 1073 0407 07       		.uleb128 0x7
 1074 0408 01       		.byte	0x1
 1075 0409 05       		.byte	0x5
 1076 040a B8       		.byte	0xb8
 1077 040b 28040000 		.4byte	0x428
 1078 040f 08       		.uleb128 0x8
 1079 0410 EE0E0000 		.4byte	.LASF127
 1080 0414 00       		.sleb128 0
 1081 0415 08       		.uleb128 0x8
 1082 0416 46050000 		.4byte	.LASF128
 1083 041a 01       		.sleb128 1
 1084 041b 08       		.uleb128 0x8
 1085 041c 5C050000 		.4byte	.LASF129
 1086 0420 02       		.sleb128 2
 1087 0421 08       		.uleb128 0x8
 1088 0422 DB0A0000 		.4byte	.LASF130
 1089 0426 0F       		.sleb128 15
 1090 0427 00       		.byte	0
 1091 0428 07       		.uleb128 0x7
 1092 0429 01       		.byte	0x1
 1093 042a 05       		.byte	0x5
 1094 042b D2       		.byte	0xd2
 1095 042c 4F040000 		.4byte	0x44f
 1096 0430 08       		.uleb128 0x8
 1097 0431 9C030000 		.4byte	.LASF131
 1098 0435 00       		.sleb128 0
ARM GAS  C:\Users\Helon\AppData\Local\Temp\cc2OGx1X.s 			page 53


 1099 0436 08       		.uleb128 0x8
 1100 0437 D11D0000 		.4byte	.LASF132
 1101 043b 01       		.sleb128 1
 1102 043c 08       		.uleb128 0x8
 1103 043d 74090000 		.4byte	.LASF133
 1104 0441 02       		.sleb128 2
 1105 0442 08       		.uleb128 0x8
 1106 0443 B2000000 		.4byte	.LASF134
 1107 0447 03       		.sleb128 3
 1108 0448 08       		.uleb128 0x8
 1109 0449 6F1B0000 		.4byte	.LASF135
 1110 044d 04       		.sleb128 4
 1111 044e 00       		.byte	0
 1112 044f 04       		.uleb128 0x4
 1113 0450 0A010000 		.4byte	.LASF136
 1114 0454 05       		.byte	0x5
 1115 0455 E4       		.byte	0xe4
 1116 0456 28040000 		.4byte	0x428
 1117 045a 07       		.uleb128 0x7
 1118 045b 01       		.byte	0x1
 1119 045c 05       		.byte	0x5
 1120 045d E8       		.byte	0xe8
 1121 045e B1040000 		.4byte	0x4b1
 1122 0462 08       		.uleb128 0x8
 1123 0463 D1160000 		.4byte	.LASF137
 1124 0467 00       		.sleb128 0
 1125 0468 08       		.uleb128 0x8
 1126 0469 09040000 		.4byte	.LASF138
 1127 046d 01       		.sleb128 1
 1128 046e 08       		.uleb128 0x8
 1129 046f 3F170000 		.4byte	.LASF139
 1130 0473 02       		.sleb128 2
 1131 0474 08       		.uleb128 0x8
 1132 0475 790E0000 		.4byte	.LASF140
 1133 0479 03       		.sleb128 3
 1134 047a 08       		.uleb128 0x8
 1135 047b 2E1F0000 		.4byte	.LASF141
 1136 047f 04       		.sleb128 4
 1137 0480 08       		.uleb128 0x8
 1138 0481 86190000 		.4byte	.LASF142
 1139 0485 05       		.sleb128 5
 1140 0486 08       		.uleb128 0x8
 1141 0487 82100000 		.4byte	.LASF143
 1142 048b 06       		.sleb128 6
 1143 048c 08       		.uleb128 0x8
 1144 048d 4E0E0000 		.4byte	.LASF144
 1145 0491 07       		.sleb128 7
 1146 0492 08       		.uleb128 0x8
 1147 0493 C0020000 		.4byte	.LASF145
 1148 0497 08       		.sleb128 8
 1149 0498 08       		.uleb128 0x8
 1150 0499 A50F0000 		.4byte	.LASF146
 1151 049d 09       		.sleb128 9
 1152 049e 08       		.uleb128 0x8
 1153 049f 9A080000 		.4byte	.LASF147
 1154 04a3 0A       		.sleb128 10
 1155 04a4 08       		.uleb128 0x8
ARM GAS  C:\Users\Helon\AppData\Local\Temp\cc2OGx1X.s 			page 54


 1156 04a5 94020000 		.4byte	.LASF148
 1157 04a9 15       		.sleb128 21
 1158 04aa 08       		.uleb128 0x8
 1159 04ab F10C0000 		.4byte	.LASF149
 1160 04af 18       		.sleb128 24
 1161 04b0 00       		.byte	0
 1162 04b1 0A       		.uleb128 0xa
 1163 04b2 59150000 		.4byte	.LASF150
 1164 04b6 05       		.byte	0x5
 1165 04b7 1401     		.2byte	0x114
 1166 04b9 5A040000 		.4byte	0x45a
 1167 04bd 0B       		.uleb128 0xb
 1168 04be 04       		.byte	0x4
 1169 04bf 05       		.byte	0x5
 1170 04c0 2D01     		.2byte	0x12d
 1171 04c2 FB040000 		.4byte	0x4fb
 1172 04c6 0C       		.uleb128 0xc
 1173 04c7 9E1A0000 		.4byte	.LASF151
 1174 04cb 05       		.byte	0x5
 1175 04cc 3601     		.2byte	0x136
 1176 04ce 6B000000 		.4byte	0x6b
 1177 04d2 00       		.byte	0
 1178 04d3 0C       		.uleb128 0xc
 1179 04d4 02130000 		.4byte	.LASF152
 1180 04d8 05       		.byte	0x5
 1181 04d9 3C01     		.2byte	0x13c
 1182 04db 6B000000 		.4byte	0x6b
 1183 04df 01       		.byte	0x1
 1184 04e0 0C       		.uleb128 0xc
 1185 04e1 24000000 		.4byte	.LASF153
 1186 04e5 05       		.byte	0x5
 1187 04e6 4201     		.2byte	0x142
 1188 04e8 6B000000 		.4byte	0x6b
 1189 04ec 02       		.byte	0x2
 1190 04ed 0C       		.uleb128 0xc
 1191 04ee F11A0000 		.4byte	.LASF154
 1192 04f2 05       		.byte	0x5
 1193 04f3 4601     		.2byte	0x146
 1194 04f5 B1040000 		.4byte	0x4b1
 1195 04f9 03       		.byte	0x3
 1196 04fa 00       		.byte	0
 1197 04fb 0A       		.uleb128 0xa
 1198 04fc 5E090000 		.4byte	.LASF155
 1199 0500 05       		.byte	0x5
 1200 0501 4801     		.2byte	0x148
 1201 0503 BD040000 		.4byte	0x4bd
 1202 0507 0F       		.uleb128 0xf
 1203 0508 04       		.byte	0x4
 1204 0509 6B000000 		.4byte	0x6b
 1205 050d 0B       		.uleb128 0xb
 1206 050e 08       		.byte	0x8
 1207 050f 05       		.byte	0x5
 1208 0510 B402     		.2byte	0x2b4
 1209 0512 4B050000 		.4byte	0x54b
 1210 0516 0C       		.uleb128 0xc
 1211 0517 2C0E0000 		.4byte	.LASF156
 1212 051b 05       		.byte	0x5
ARM GAS  C:\Users\Helon\AppData\Local\Temp\cc2OGx1X.s 			page 55


 1213 051c B802     		.2byte	0x2b8
 1214 051e 6B000000 		.4byte	0x6b
 1215 0522 00       		.byte	0
 1216 0523 0C       		.uleb128 0xc
 1217 0524 AE1E0000 		.4byte	.LASF157
 1218 0528 05       		.byte	0x5
 1219 0529 BE02     		.2byte	0x2be
 1220 052b 76000000 		.4byte	0x76
 1221 052f 02       		.byte	0x2
 1222 0530 0C       		.uleb128 0xc
 1223 0531 C51D0000 		.4byte	.LASF158
 1224 0535 05       		.byte	0x5
 1225 0536 C302     		.2byte	0x2c3
 1226 0538 76000000 		.4byte	0x76
 1227 053c 04       		.byte	0x4
 1228 053d 0C       		.uleb128 0xc
 1229 053e B21F0000 		.4byte	.LASF159
 1230 0542 05       		.byte	0x5
 1231 0543 C902     		.2byte	0x2c9
 1232 0545 76000000 		.4byte	0x76
 1233 0549 06       		.byte	0x6
 1234 054a 00       		.byte	0
 1235 054b 0A       		.uleb128 0xa
 1236 054c 6B170000 		.4byte	.LASF160
 1237 0550 05       		.byte	0x5
 1238 0551 CB02     		.2byte	0x2cb
 1239 0553 0D050000 		.4byte	0x50d
 1240 0557 07       		.uleb128 0x7
 1241 0558 01       		.byte	0x1
 1242 0559 06       		.byte	0x6
 1243 055a 4E       		.byte	0x4e
 1244 055b 11060000 		.4byte	0x611
 1245 055f 08       		.uleb128 0x8
 1246 0560 490B0000 		.4byte	.LASF161
 1247 0564 01       		.sleb128 1
 1248 0565 08       		.uleb128 0x8
 1249 0566 F9090000 		.4byte	.LASF162
 1250 056a 02       		.sleb128 2
 1251 056b 08       		.uleb128 0x8
 1252 056c 89040000 		.4byte	.LASF163
 1253 0570 03       		.sleb128 3
 1254 0571 08       		.uleb128 0x8
 1255 0572 1B070000 		.4byte	.LASF164
 1256 0576 04       		.sleb128 4
 1257 0577 08       		.uleb128 0x8
 1258 0578 26170000 		.4byte	.LASF165
 1259 057c 05       		.sleb128 5
 1260 057d 08       		.uleb128 0x8
 1261 057e 94160000 		.4byte	.LASF166
 1262 0582 06       		.sleb128 6
 1263 0583 08       		.uleb128 0x8
 1264 0584 72050000 		.4byte	.LASF167
 1265 0588 07       		.sleb128 7
 1266 0589 08       		.uleb128 0x8
 1267 058a 3E160000 		.4byte	.LASF168
 1268 058e 08       		.sleb128 8
 1269 058f 08       		.uleb128 0x8
ARM GAS  C:\Users\Helon\AppData\Local\Temp\cc2OGx1X.s 			page 56


 1270 0590 E8020000 		.4byte	.LASF169
 1271 0594 09       		.sleb128 9
 1272 0595 08       		.uleb128 0x8
 1273 0596 180E0000 		.4byte	.LASF170
 1274 059a 0A       		.sleb128 10
 1275 059b 08       		.uleb128 0x8
 1276 059c C01C0000 		.4byte	.LASF171
 1277 05a0 0B       		.sleb128 11
 1278 05a1 08       		.uleb128 0x8
 1279 05a2 24190000 		.4byte	.LASF172
 1280 05a6 0C       		.sleb128 12
 1281 05a7 08       		.uleb128 0x8
 1282 05a8 8D060000 		.4byte	.LASF173
 1283 05ac 0D       		.sleb128 13
 1284 05ad 08       		.uleb128 0x8
 1285 05ae EA150000 		.4byte	.LASF174
 1286 05b2 0E       		.sleb128 14
 1287 05b3 08       		.uleb128 0x8
 1288 05b4 5B020000 		.4byte	.LASF175
 1289 05b8 0F       		.sleb128 15
 1290 05b9 08       		.uleb128 0x8
 1291 05ba 111F0000 		.4byte	.LASF176
 1292 05be 10       		.sleb128 16
 1293 05bf 08       		.uleb128 0x8
 1294 05c0 8A0D0000 		.4byte	.LASF177
 1295 05c4 11       		.sleb128 17
 1296 05c5 08       		.uleb128 0x8
 1297 05c6 D21A0000 		.4byte	.LASF178
 1298 05ca 12       		.sleb128 18
 1299 05cb 08       		.uleb128 0x8
 1300 05cc 2A090000 		.4byte	.LASF179
 1301 05d0 13       		.sleb128 19
 1302 05d1 08       		.uleb128 0x8
 1303 05d2 EE000000 		.4byte	.LASF180
 1304 05d6 D200     		.sleb128 82
 1305 05d8 08       		.uleb128 0x8
 1306 05d9 74010000 		.4byte	.LASF181
 1307 05dd 16       		.sleb128 22
 1308 05de 08       		.uleb128 0x8
 1309 05df 2B140000 		.4byte	.LASF182
 1310 05e3 17       		.sleb128 23
 1311 05e4 08       		.uleb128 0x8
 1312 05e5 131E0000 		.4byte	.LASF183
 1313 05e9 18       		.sleb128 24
 1314 05ea 08       		.uleb128 0x8
 1315 05eb 9E0C0000 		.4byte	.LASF184
 1316 05ef 19       		.sleb128 25
 1317 05f0 08       		.uleb128 0x8
 1318 05f1 A90E0000 		.4byte	.LASF185
 1319 05f5 1B       		.sleb128 27
 1320 05f6 08       		.uleb128 0x8
 1321 05f7 34080000 		.4byte	.LASF186
 1322 05fb 1D       		.sleb128 29
 1323 05fc 08       		.uleb128 0x8
 1324 05fd 2D000000 		.4byte	.LASF187
 1325 0601 1E       		.sleb128 30
 1326 0602 08       		.uleb128 0x8
ARM GAS  C:\Users\Helon\AppData\Local\Temp\cc2OGx1X.s 			page 57


 1327 0603 3D0C0000 		.4byte	.LASF188
 1328 0607 D201     		.sleb128 210
 1329 0609 08       		.uleb128 0x8
 1330 060a 1B180000 		.4byte	.LASF189
 1331 060e FF01     		.sleb128 255
 1332 0610 00       		.byte	0
 1333 0611 07       		.uleb128 0x7
 1334 0612 01       		.byte	0x1
 1335 0613 06       		.byte	0x6
 1336 0614 AA       		.byte	0xaa
 1337 0615 04070000 		.4byte	0x704
 1338 0619 08       		.uleb128 0x8
 1339 061a 9B180000 		.4byte	.LASF190
 1340 061e 00       		.sleb128 0
 1341 061f 08       		.uleb128 0x8
 1342 0620 C3170000 		.4byte	.LASF191
 1343 0624 01       		.sleb128 1
 1344 0625 08       		.uleb128 0x8
 1345 0626 2D010000 		.4byte	.LASF192
 1346 062a 02       		.sleb128 2
 1347 062b 08       		.uleb128 0x8
 1348 062c 8B1E0000 		.4byte	.LASF193
 1349 0630 03       		.sleb128 3
 1350 0631 08       		.uleb128 0x8
 1351 0632 DE050000 		.4byte	.LASF194
 1352 0636 04       		.sleb128 4
 1353 0637 08       		.uleb128 0x8
 1354 0638 54130000 		.4byte	.LASF195
 1355 063c 05       		.sleb128 5
 1356 063d 08       		.uleb128 0x8
 1357 063e 301B0000 		.4byte	.LASF196
 1358 0642 06       		.sleb128 6
 1359 0643 08       		.uleb128 0x8
 1360 0644 20160000 		.4byte	.LASF197
 1361 0648 07       		.sleb128 7
 1362 0649 08       		.uleb128 0x8
 1363 064a CD120000 		.4byte	.LASF198
 1364 064e 08       		.sleb128 8
 1365 064f 08       		.uleb128 0x8
 1366 0650 FB100000 		.4byte	.LASF199
 1367 0654 09       		.sleb128 9
 1368 0655 08       		.uleb128 0x8
 1369 0656 D6140000 		.4byte	.LASF200
 1370 065a 0A       		.sleb128 10
 1371 065b 08       		.uleb128 0x8
 1372 065c B90A0000 		.4byte	.LASF201
 1373 0660 0B       		.sleb128 11
 1374 0661 08       		.uleb128 0x8
 1375 0662 AD110000 		.4byte	.LASF202
 1376 0666 0C       		.sleb128 12
 1377 0667 08       		.uleb128 0x8
 1378 0668 A6060000 		.4byte	.LASF203
 1379 066c 0D       		.sleb128 13
 1380 066d 08       		.uleb128 0x8
 1381 066e DB090000 		.4byte	.LASF204
 1382 0672 0E       		.sleb128 14
 1383 0673 08       		.uleb128 0x8
ARM GAS  C:\Users\Helon\AppData\Local\Temp\cc2OGx1X.s 			page 58


 1384 0674 CA1E0000 		.4byte	.LASF205
 1385 0678 0F       		.sleb128 15
 1386 0679 08       		.uleb128 0x8
 1387 067a 91010000 		.4byte	.LASF206
 1388 067e 10       		.sleb128 16
 1389 067f 08       		.uleb128 0x8
 1390 0680 4F010000 		.4byte	.LASF207
 1391 0684 11       		.sleb128 17
 1392 0685 08       		.uleb128 0x8
 1393 0686 830A0000 		.4byte	.LASF208
 1394 068a 8001     		.sleb128 128
 1395 068c 08       		.uleb128 0x8
 1396 068d 260D0000 		.4byte	.LASF209
 1397 0691 8001     		.sleb128 128
 1398 0693 08       		.uleb128 0x8
 1399 0694 F91A0000 		.4byte	.LASF210
 1400 0698 8001     		.sleb128 128
 1401 069a 08       		.uleb128 0x8
 1402 069b F0180000 		.4byte	.LASF211
 1403 069f 8001     		.sleb128 128
 1404 06a1 08       		.uleb128 0x8
 1405 06a2 CE130000 		.4byte	.LASF212
 1406 06a6 8001     		.sleb128 128
 1407 06a8 08       		.uleb128 0x8
 1408 06a9 CA0D0000 		.4byte	.LASF213
 1409 06ad 8001     		.sleb128 128
 1410 06af 08       		.uleb128 0x8
 1411 06b0 C0090000 		.4byte	.LASF214
 1412 06b4 8001     		.sleb128 128
 1413 06b6 08       		.uleb128 0x8
 1414 06b7 590C0000 		.4byte	.LASF215
 1415 06bb 8101     		.sleb128 129
 1416 06bd 08       		.uleb128 0x8
 1417 06be 011A0000 		.4byte	.LASF216
 1418 06c2 8101     		.sleb128 129
 1419 06c4 08       		.uleb128 0x8
 1420 06c5 00000000 		.4byte	.LASF217
 1421 06c9 8101     		.sleb128 129
 1422 06cb 08       		.uleb128 0x8
 1423 06cc 7A1C0000 		.4byte	.LASF218
 1424 06d0 A001     		.sleb128 160
 1425 06d2 08       		.uleb128 0x8
 1426 06d3 040F0000 		.4byte	.LASF219
 1427 06d7 A001     		.sleb128 160
 1428 06d9 08       		.uleb128 0x8
 1429 06da 33040000 		.4byte	.LASF220
 1430 06de A101     		.sleb128 161
 1431 06e0 08       		.uleb128 0x8
 1432 06e1 091C0000 		.4byte	.LASF221
 1433 06e5 A201     		.sleb128 162
 1434 06e7 08       		.uleb128 0x8
 1435 06e8 160B0000 		.4byte	.LASF222
 1436 06ec A301     		.sleb128 163
 1437 06ee 08       		.uleb128 0x8
 1438 06ef 8B070000 		.4byte	.LASF223
 1439 06f3 FD01     		.sleb128 253
 1440 06f5 08       		.uleb128 0x8
ARM GAS  C:\Users\Helon\AppData\Local\Temp\cc2OGx1X.s 			page 59


 1441 06f6 EB110000 		.4byte	.LASF224
 1442 06fa FE01     		.sleb128 254
 1443 06fc 08       		.uleb128 0x8
 1444 06fd 78160000 		.4byte	.LASF225
 1445 0701 FF01     		.sleb128 255
 1446 0703 00       		.byte	0
 1447 0704 0A       		.uleb128 0xa
 1448 0705 C8180000 		.4byte	.LASF226
 1449 0709 06       		.byte	0x6
 1450 070a 5901     		.2byte	0x159
 1451 070c 11060000 		.4byte	0x611
 1452 0710 0A       		.uleb128 0xa
 1453 0711 50180000 		.4byte	.LASF227
 1454 0715 06       		.byte	0x6
 1455 0716 8801     		.2byte	0x188
 1456 0718 76000000 		.4byte	0x76
 1457 071c 0B       		.uleb128 0xb
 1458 071d 02       		.byte	0x2
 1459 071e 06       		.byte	0x6
 1460 071f 9201     		.2byte	0x192
 1461 0721 40070000 		.4byte	0x740
 1462 0725 0C       		.uleb128 0xc
 1463 0726 00040000 		.4byte	.LASF228
 1464 072a 06       		.byte	0x6
 1465 072b 9901     		.2byte	0x199
 1466 072d 6B000000 		.4byte	0x6b
 1467 0731 00       		.byte	0
 1468 0732 0C       		.uleb128 0xc
 1469 0733 5B1F0000 		.4byte	.LASF229
 1470 0737 06       		.byte	0x6
 1471 0738 9F01     		.2byte	0x19f
 1472 073a 6B000000 		.4byte	0x6b
 1473 073e 01       		.byte	0x1
 1474 073f 00       		.byte	0
 1475 0740 0A       		.uleb128 0xa
 1476 0741 68030000 		.4byte	.LASF230
 1477 0745 06       		.byte	0x6
 1478 0746 A101     		.2byte	0x1a1
 1479 0748 1C070000 		.4byte	0x71c
 1480 074c 0B       		.uleb128 0xb
 1481 074d 08       		.byte	0x8
 1482 074e 06       		.byte	0x6
 1483 074f BD01     		.2byte	0x1bd
 1484 0751 7D070000 		.4byte	0x77d
 1485 0755 10       		.uleb128 0x10
 1486 0756 76616C00 		.ascii	"val\000"
 1487 075a 06       		.byte	0x6
 1488 075b C001     		.2byte	0x1c0
 1489 075d 07050000 		.4byte	0x507
 1490 0761 00       		.byte	0
 1491 0762 10       		.uleb128 0x10
 1492 0763 6C656E00 		.ascii	"len\000"
 1493 0767 06       		.byte	0x6
 1494 0768 C301     		.2byte	0x1c3
 1495 076a 76000000 		.4byte	0x76
 1496 076e 04       		.byte	0x4
 1497 076f 0C       		.uleb128 0xc
ARM GAS  C:\Users\Helon\AppData\Local\Temp\cc2OGx1X.s 			page 60


 1498 0770 071F0000 		.4byte	.LASF231
 1499 0774 06       		.byte	0x6
 1500 0775 CA01     		.2byte	0x1ca
 1501 0777 76000000 		.4byte	0x76
 1502 077b 06       		.byte	0x6
 1503 077c 00       		.byte	0
 1504 077d 0A       		.uleb128 0xa
 1505 077e 48020000 		.4byte	.LASF232
 1506 0782 06       		.byte	0x6
 1507 0783 CC01     		.2byte	0x1cc
 1508 0785 4C070000 		.4byte	0x74c
 1509 0789 0B       		.uleb128 0xb
 1510 078a 0C       		.byte	0xc
 1511 078b 06       		.byte	0x6
 1512 078c CF01     		.2byte	0x1cf
 1513 078e AD070000 		.4byte	0x7ad
 1514 0792 0C       		.uleb128 0xc
 1515 0793 AF180000 		.4byte	.LASF233
 1516 0797 06       		.byte	0x6
 1517 0798 D201     		.2byte	0x1d2
 1518 079a 7D070000 		.4byte	0x77d
 1519 079e 00       		.byte	0
 1520 079f 0C       		.uleb128 0xc
 1521 07a0 F7120000 		.4byte	.LASF234
 1522 07a4 06       		.byte	0x6
 1523 07a5 D501     		.2byte	0x1d5
 1524 07a7 10070000 		.4byte	0x710
 1525 07ab 08       		.byte	0x8
 1526 07ac 00       		.byte	0
 1527 07ad 0A       		.uleb128 0xa
 1528 07ae 48060000 		.4byte	.LASF235
 1529 07b2 06       		.byte	0x6
 1530 07b3 D701     		.2byte	0x1d7
 1531 07b5 89070000 		.4byte	0x789
 1532 07b9 0B       		.uleb128 0xb
 1533 07ba 04       		.byte	0x4
 1534 07bb 06       		.byte	0x6
 1535 07bc E501     		.2byte	0x1e5
 1536 07be DD070000 		.4byte	0x7dd
 1537 07c2 0C       		.uleb128 0xc
 1538 07c3 61190000 		.4byte	.LASF236
 1539 07c7 06       		.byte	0x6
 1540 07c8 E801     		.2byte	0x1e8
 1541 07ca 40070000 		.4byte	0x740
 1542 07ce 00       		.byte	0
 1543 07cf 10       		.uleb128 0x10
 1544 07d0 6D747500 		.ascii	"mtu\000"
 1545 07d4 06       		.byte	0x6
 1546 07d5 EB01     		.2byte	0x1eb
 1547 07d7 76000000 		.4byte	0x76
 1548 07db 02       		.byte	0x2
 1549 07dc 00       		.byte	0
 1550 07dd 0A       		.uleb128 0xa
 1551 07de 7F130000 		.4byte	.LASF237
 1552 07e2 06       		.byte	0x6
 1553 07e3 ED01     		.2byte	0x1ed
 1554 07e5 B9070000 		.4byte	0x7b9
ARM GAS  C:\Users\Helon\AppData\Local\Temp\cc2OGx1X.s 			page 61


 1555 07e9 11       		.uleb128 0x11
 1556 07ea 04       		.byte	0x4
 1557 07eb 07       		.byte	0x7
 1558 07ec 3A       		.byte	0x3a
 1559 07ed 16080000 		.4byte	0x816
 1560 07f1 12       		.uleb128 0x12
 1561 07f2 F7120000 		.4byte	.LASF234
 1562 07f6 07       		.byte	0x7
 1563 07f7 3D       		.byte	0x3d
 1564 07f8 10070000 		.4byte	0x710
 1565 07fc 00       		.byte	0
 1566 07fd 12       		.uleb128 0x12
 1567 07fe C6120000 		.4byte	.LASF238
 1568 0802 07       		.byte	0x7
 1569 0803 43       		.byte	0x43
 1570 0804 6B000000 		.4byte	0x6b
 1571 0808 02       		.byte	0x2
 1572 0809 12       		.uleb128 0x12
 1573 080a 90080000 		.4byte	.LASF239
 1574 080e 07       		.byte	0x7
 1575 080f 46       		.byte	0x46
 1576 0810 04070000 		.4byte	0x704
 1577 0814 03       		.byte	0x3
 1578 0815 00       		.byte	0
 1579 0816 04       		.uleb128 0x4
 1580 0817 F0070000 		.4byte	.LASF240
 1581 081b 07       		.byte	0x7
 1582 081c 48       		.byte	0x48
 1583 081d E9070000 		.4byte	0x7e9
 1584 0821 11       		.uleb128 0x11
 1585 0822 10       		.byte	0x10
 1586 0823 07       		.byte	0x7
 1587 0824 8A       		.byte	0x8a
 1588 0825 42080000 		.4byte	0x842
 1589 0829 12       		.uleb128 0x12
 1590 082a 61190000 		.4byte	.LASF236
 1591 082e 07       		.byte	0x7
 1592 082f 8D       		.byte	0x8d
 1593 0830 40070000 		.4byte	0x740
 1594 0834 00       		.byte	0
 1595 0835 12       		.uleb128 0x12
 1596 0836 53190000 		.4byte	.LASF241
 1597 083a 07       		.byte	0x7
 1598 083b 90       		.byte	0x90
 1599 083c AD070000 		.4byte	0x7ad
 1600 0840 04       		.byte	0x4
 1601 0841 00       		.byte	0
 1602 0842 04       		.uleb128 0x4
 1603 0843 0A130000 		.4byte	.LASF242
 1604 0847 07       		.byte	0x7
 1605 0848 92       		.byte	0x92
 1606 0849 21080000 		.4byte	0x821
 1607 084d 0A       		.uleb128 0xa
 1608 084e 04030000 		.4byte	.LASF243
 1609 0852 08       		.byte	0x8
 1610 0853 4101     		.2byte	0x141
 1611 0855 59080000 		.4byte	0x859
ARM GAS  C:\Users\Helon\AppData\Local\Temp\cc2OGx1X.s 			page 62


 1612 0859 0F       		.uleb128 0xf
 1613 085a 04       		.byte	0x4
 1614 085b 5F080000 		.4byte	0x85f
 1615 085f 13       		.uleb128 0x13
 1616 0860 6F080000 		.4byte	0x86f
 1617 0864 14       		.uleb128 0x14
 1618 0865 81000000 		.4byte	0x81
 1619 0869 14       		.uleb128 0x14
 1620 086a AD000000 		.4byte	0xad
 1621 086e 00       		.byte	0
 1622 086f 15       		.uleb128 0x15
 1623 0870 8301     		.2byte	0x183
 1624 0872 09       		.byte	0x9
 1625 0873 9B       		.byte	0x9b
 1626 0874 AC080000 		.4byte	0x8ac
 1627 0878 12       		.uleb128 0x12
 1628 0879 180D0000 		.4byte	.LASF244
 1629 087d 09       		.byte	0x9
 1630 087e 9D       		.byte	0x9d
 1631 087f AC080000 		.4byte	0x8ac
 1632 0883 00       		.byte	0
 1633 0884 16       		.uleb128 0x16
 1634 0885 240C0000 		.4byte	.LASF245
 1635 0889 09       		.byte	0x9
 1636 088a 9E       		.byte	0x9e
 1637 088b BD080000 		.4byte	0x8bd
 1638 088f 6D01     		.2byte	0x16d
 1639 0891 16       		.uleb128 0x16
 1640 0892 FF1B0000 		.4byte	.LASF246
 1641 0896 09       		.byte	0x9
 1642 0897 9F       		.byte	0x9f
 1643 0898 6B000000 		.4byte	0x6b
 1644 089c 8101     		.2byte	0x181
 1645 089e 16       		.uleb128 0x16
 1646 089f 7C0B0000 		.4byte	.LASF247
 1647 08a3 09       		.byte	0x9
 1648 08a4 A0       		.byte	0xa0
 1649 08a5 6B000000 		.4byte	0x6b
 1650 08a9 8201     		.2byte	0x182
 1651 08ab 00       		.byte	0
 1652 08ac 0D       		.uleb128 0xd
 1653 08ad 6B000000 		.4byte	0x6b
 1654 08b1 BD080000 		.4byte	0x8bd
 1655 08b5 17       		.uleb128 0x17
 1656 08b6 A6000000 		.4byte	0xa6
 1657 08ba 6C01     		.2byte	0x16c
 1658 08bc 00       		.byte	0
 1659 08bd 0D       		.uleb128 0xd
 1660 08be 6B000000 		.4byte	0x6b
 1661 08c2 D3080000 		.4byte	0x8d3
 1662 08c6 0E       		.uleb128 0xe
 1663 08c7 A6000000 		.4byte	0xa6
 1664 08cb 04       		.byte	0x4
 1665 08cc 0E       		.uleb128 0xe
 1666 08cd A6000000 		.4byte	0xa6
 1667 08d1 03       		.byte	0x3
 1668 08d2 00       		.byte	0
ARM GAS  C:\Users\Helon\AppData\Local\Temp\cc2OGx1X.s 			page 63


 1669 08d3 04       		.uleb128 0x4
 1670 08d4 27100000 		.4byte	.LASF248
 1671 08d8 09       		.byte	0x9
 1672 08d9 A1       		.byte	0xa1
 1673 08da 6F080000 		.4byte	0x86f
 1674 08de 09       		.uleb128 0x9
 1675 08df 01       		.byte	0x1
 1676 08e0 0A       		.byte	0xa
 1677 08e1 3707     		.2byte	0x737
 1678 08e3 12090000 		.4byte	0x912
 1679 08e7 08       		.uleb128 0x8
 1680 08e8 DC070000 		.4byte	.LASF249
 1681 08ec 00       		.sleb128 0
 1682 08ed 08       		.uleb128 0x8
 1683 08ee 7E0F0000 		.4byte	.LASF250
 1684 08f2 01       		.sleb128 1
 1685 08f3 08       		.uleb128 0x8
 1686 08f4 F11E0000 		.4byte	.LASF251
 1687 08f8 02       		.sleb128 2
 1688 08f9 08       		.uleb128 0x8
 1689 08fa D4030000 		.4byte	.LASF252
 1690 08fe 03       		.sleb128 3
 1691 08ff 08       		.uleb128 0x8
 1692 0900 F3170000 		.4byte	.LASF253
 1693 0904 04       		.sleb128 4
 1694 0905 08       		.uleb128 0x8
 1695 0906 92090000 		.4byte	.LASF254
 1696 090a 05       		.sleb128 5
 1697 090b 08       		.uleb128 0x8
 1698 090c 481A0000 		.4byte	.LASF255
 1699 0910 06       		.sleb128 6
 1700 0911 00       		.byte	0
 1701 0912 0A       		.uleb128 0xa
 1702 0913 901B0000 		.4byte	.LASF256
 1703 0917 0A       		.byte	0xa
 1704 0918 4507     		.2byte	0x745
 1705 091a DE080000 		.4byte	0x8de
 1706 091e 18       		.uleb128 0x18
 1707 091f 5A120000 		.4byte	.LASF257
 1708 0923 01       		.byte	0x1
 1709 0924 A401     		.2byte	0x1a4
 1710 0926 01       		.byte	0x1
 1711 0927 38090000 		.4byte	0x938
 1712 092b 19       		.uleb128 0x19
 1713 092c 88000000 		.4byte	.LASF259
 1714 0930 01       		.byte	0x1
 1715 0931 A401     		.2byte	0x1a4
 1716 0933 38090000 		.4byte	0x938
 1717 0937 00       		.byte	0
 1718 0938 0F       		.uleb128 0xf
 1719 0939 04       		.byte	0x4
 1720 093a 3E090000 		.4byte	0x93e
 1721 093e 1A       		.uleb128 0x1a
 1722 093f 40070000 		.4byte	0x740
 1723 0943 18       		.uleb128 0x18
 1724 0944 A71A0000 		.4byte	.LASF258
 1725 0948 01       		.byte	0x1
ARM GAS  C:\Users\Helon\AppData\Local\Temp\cc2OGx1X.s 			page 64


 1726 0949 4505     		.2byte	0x545
 1727 094b 01       		.byte	0x1
 1728 094c 5D090000 		.4byte	0x95d
 1729 0950 19       		.uleb128 0x19
 1730 0951 A31C0000 		.4byte	.LASF260
 1731 0955 01       		.byte	0x1
 1732 0956 4505     		.2byte	0x545
 1733 0958 76000000 		.4byte	0x76
 1734 095c 00       		.byte	0
 1735 095d 18       		.uleb128 0x18
 1736 095e 8C0B0000 		.4byte	.LASF261
 1737 0962 01       		.byte	0x1
 1738 0963 5F05     		.2byte	0x55f
 1739 0965 01       		.byte	0x1
 1740 0966 77090000 		.4byte	0x977
 1741 096a 19       		.uleb128 0x19
 1742 096b 88000000 		.4byte	.LASF259
 1743 096f 01       		.byte	0x1
 1744 0970 5F05     		.2byte	0x55f
 1745 0972 77090000 		.4byte	0x977
 1746 0976 00       		.byte	0
 1747 0977 0F       		.uleb128 0xf
 1748 0978 04       		.byte	0x4
 1749 0979 7D090000 		.4byte	0x97d
 1750 097d 1A       		.uleb128 0x1a
 1751 097e 4B050000 		.4byte	0x54b
 1752 0982 18       		.uleb128 0x18
 1753 0983 6C190000 		.4byte	.LASF262
 1754 0987 01       		.byte	0x1
 1755 0988 B904     		.2byte	0x4b9
 1756 098a 01       		.byte	0x1
 1757 098b 9C090000 		.4byte	0x99c
 1758 098f 19       		.uleb128 0x19
 1759 0990 88000000 		.4byte	.LASF259
 1760 0994 01       		.byte	0x1
 1761 0995 B904     		.2byte	0x4b9
 1762 0997 9C090000 		.4byte	0x99c
 1763 099b 00       		.byte	0
 1764 099c 0F       		.uleb128 0xf
 1765 099d 04       		.byte	0x4
 1766 099e A2090000 		.4byte	0x9a2
 1767 09a2 1A       		.uleb128 0x1a
 1768 09a3 FC030000 		.4byte	0x3fc
 1769 09a7 1B       		.uleb128 0x1b
 1770 09a8 3C100000 		.4byte	.LASF265
 1771 09ac 01       		.byte	0x1
 1772 09ad F104     		.2byte	0x4f1
 1773 09af 01       		.byte	0x1
 1774 09b0 1C       		.uleb128 0x1c
 1775 09b1 3E150000 		.4byte	.LASF304
 1776 09b5 01       		.byte	0x1
 1777 09b6 1D05     		.2byte	0x51d
 1778 09b8 6B000000 		.4byte	0x6b
 1779 09bc 01       		.byte	0x1
 1780 09bd E4090000 		.4byte	0x9e4
 1781 09c1 19       		.uleb128 0x19
 1782 09c2 E7100000 		.4byte	.LASF263
ARM GAS  C:\Users\Helon\AppData\Local\Temp\cc2OGx1X.s 			page 65


 1783 09c6 01       		.byte	0x1
 1784 09c7 1D05     		.2byte	0x51d
 1785 09c9 E4090000 		.4byte	0x9e4
 1786 09cd 1D       		.uleb128 0x1d
 1787 09ce 6900     		.ascii	"i\000"
 1788 09d0 01       		.byte	0x1
 1789 09d1 1F05     		.2byte	0x51f
 1790 09d3 6B000000 		.4byte	0x6b
 1791 09d7 1E       		.uleb128 0x1e
 1792 09d8 08180000 		.4byte	.LASF264
 1793 09dc 01       		.byte	0x1
 1794 09dd 2005     		.2byte	0x520
 1795 09df 6B000000 		.4byte	0x6b
 1796 09e3 00       		.byte	0
 1797 09e4 0F       		.uleb128 0xf
 1798 09e5 04       		.byte	0x4
 1799 09e6 EA090000 		.4byte	0x9ea
 1800 09ea 1A       		.uleb128 0x1a
 1801 09eb CF030000 		.4byte	0x3cf
 1802 09ef 1B       		.uleb128 0x1b
 1803 09f0 C6100000 		.4byte	.LASF266
 1804 09f4 01       		.byte	0x1
 1805 09f5 8104     		.2byte	0x481
 1806 09f7 01       		.byte	0x1
 1807 09f8 1F       		.uleb128 0x1f
 1808 09f9 72000000 		.4byte	.LASF267
 1809 09fd 01       		.byte	0x1
 1810 09fe E3       		.byte	0xe3
 1811 09ff 01       		.byte	0x1
 1812 0a00 290A0000 		.4byte	0xa29
 1813 0a04 20       		.uleb128 0x20
 1814 0a05 88000000 		.4byte	.LASF259
 1815 0a09 01       		.byte	0x1
 1816 0a0a E3       		.byte	0xe3
 1817 0a0b 290A0000 		.4byte	0xa29
 1818 0a0f 21       		.uleb128 0x21
 1819 0a10 831E0000 		.4byte	.LASF268
 1820 0a14 01       		.byte	0x1
 1821 0a15 E5       		.byte	0xe5
 1822 0a16 04070000 		.4byte	0x704
 1823 0a1a 22       		.uleb128 0x22
 1824 0a1b 1E       		.uleb128 0x1e
 1825 0a1c FC130000 		.4byte	.LASF269
 1826 0a20 01       		.byte	0x1
 1827 0a21 8701     		.2byte	0x187
 1828 0a23 16080000 		.4byte	0x816
 1829 0a27 00       		.byte	0
 1830 0a28 00       		.byte	0
 1831 0a29 0F       		.uleb128 0xf
 1832 0a2a 04       		.byte	0x4
 1833 0a2b 42080000 		.4byte	0x842
 1834 0a2f 23       		.uleb128 0x23
 1835 0a30 4D070000 		.4byte	.LASF305
 1836 0a34 01       		.byte	0x1
 1837 0a35 7905     		.2byte	0x579
 1838 0a37 00000000 		.4byte	.LFB10
 1839 0a3b 98020000 		.4byte	.LFE10-.LFB10
ARM GAS  C:\Users\Helon\AppData\Local\Temp\cc2OGx1X.s 			page 66


 1840 0a3f 01       		.uleb128 0x1
 1841 0a40 9C       		.byte	0x9c
 1842 0a41 B90C0000 		.4byte	0xcb9
 1843 0a45 24       		.uleb128 0x24
 1844 0a46 881D0000 		.4byte	.LASF270
 1845 0a4a 01       		.byte	0x1
 1846 0a4b 7905     		.2byte	0x579
 1847 0a4d 6B000000 		.4byte	0x6b
 1848 0a51 00000000 		.4byte	.LLST0
 1849 0a55 24       		.uleb128 0x24
 1850 0a56 88000000 		.4byte	.LASF259
 1851 0a5a 01       		.byte	0x1
 1852 0a5b 7905     		.2byte	0x579
 1853 0a5d AD000000 		.4byte	0xad
 1854 0a61 E9000000 		.4byte	.LLST1
 1855 0a65 25       		.uleb128 0x25
 1856 0a66 58000000 		.4byte	.LBB25
 1857 0a6a 1C000000 		.4byte	.LBE25-.LBB25
 1858 0a6e A60A0000 		.4byte	0xaa6
 1859 0a72 26       		.uleb128 0x26
 1860 0a73 6C180000 		.4byte	.LASF271
 1861 0a77 01       		.byte	0x1
 1862 0a78 8605     		.2byte	0x586
 1863 0a7a 8F030000 		.4byte	0x38f
 1864 0a7e 02       		.uleb128 0x2
 1865 0a7f 91       		.byte	0x91
 1866 0a80 64       		.sleb128 -28
 1867 0a81 27       		.uleb128 0x27
 1868 0a82 68000000 		.4byte	.LVL2
 1869 0a86 8C0D0000 		.4byte	0xd8c
 1870 0a8a 950A0000 		.4byte	0xa95
 1871 0a8e 28       		.uleb128 0x28
 1872 0a8f 01       		.uleb128 0x1
 1873 0a90 50       		.byte	0x50
 1874 0a91 02       		.uleb128 0x2
 1875 0a92 77       		.byte	0x77
 1876 0a93 00       		.sleb128 0
 1877 0a94 00       		.byte	0
 1878 0a95 29       		.uleb128 0x29
 1879 0a96 74000000 		.4byte	.LVL3
 1880 0a9a 8C0D0000 		.4byte	0xd8c
 1881 0a9e 28       		.uleb128 0x28
 1882 0a9f 01       		.uleb128 0x1
 1883 0aa0 50       		.byte	0x50
 1884 0aa1 02       		.uleb128 0x2
 1885 0aa2 77       		.byte	0x77
 1886 0aa3 00       		.sleb128 0
 1887 0aa4 00       		.byte	0
 1888 0aa5 00       		.byte	0
 1889 0aa6 2A       		.uleb128 0x2a
 1890 0aa7 B0090000 		.4byte	0x9b0
 1891 0aab 78000000 		.4byte	.LBB26
 1892 0aaf 1A000000 		.4byte	.LBE26-.LBB26
 1893 0ab3 01       		.byte	0x1
 1894 0ab4 9305     		.2byte	0x593
 1895 0ab6 E00A0000 		.4byte	0xae0
 1896 0aba 2B       		.uleb128 0x2b
ARM GAS  C:\Users\Helon\AppData\Local\Temp\cc2OGx1X.s 			page 67


 1897 0abb C1090000 		.4byte	0x9c1
 1898 0abf C5010000 		.4byte	.LLST2
 1899 0ac3 2C       		.uleb128 0x2c
 1900 0ac4 78000000 		.4byte	.LBB27
 1901 0ac8 1A000000 		.4byte	.LBE27-.LBB27
 1902 0acc 2D       		.uleb128 0x2d
 1903 0acd CD090000 		.4byte	0x9cd
 1904 0ad1 EE010000 		.4byte	.LLST3
 1905 0ad5 2D       		.uleb128 0x2d
 1906 0ad6 D7090000 		.4byte	0x9d7
 1907 0ada 28020000 		.4byte	.LLST4
 1908 0ade 00       		.byte	0
 1909 0adf 00       		.byte	0
 1910 0ae0 2A       		.uleb128 0x2a
 1911 0ae1 82090000 		.4byte	0x982
 1912 0ae5 92000000 		.4byte	.LBB28
 1913 0ae9 18000000 		.4byte	.LBE28-.LBB28
 1914 0aed 01       		.byte	0x1
 1915 0aee AE05     		.2byte	0x5ae
 1916 0af0 070B0000 		.4byte	0xb07
 1917 0af4 2B       		.uleb128 0x2b
 1918 0af5 8F090000 		.4byte	0x98f
 1919 0af9 54020000 		.4byte	.LLST5
 1920 0afd 2E       		.uleb128 0x2e
 1921 0afe A8000000 		.4byte	.LVL9
 1922 0b02 A80D0000 		.4byte	0xda8
 1923 0b06 00       		.byte	0
 1924 0b07 2F       		.uleb128 0x2f
 1925 0b08 EF090000 		.4byte	0x9ef
 1926 0b0c C8010000 		.4byte	.LBB30
 1927 0b10 08000000 		.4byte	.LBE30-.LBB30
 1928 0b14 01       		.byte	0x1
 1929 0b15 5606     		.2byte	0x656
 1930 0b17 25       		.uleb128 0x25
 1931 0b18 D0010000 		.4byte	.LBB32
 1932 0b1c 12000000 		.4byte	.LBE32-.LBB32
 1933 0b20 3E0B0000 		.4byte	0xb3e
 1934 0b24 30       		.uleb128 0x30
 1935 0b25 970F0000 		.4byte	.LASF272
 1936 0b29 01       		.byte	0x1
 1937 0b2a 5C06     		.2byte	0x65c
 1938 0b2c 76000000 		.4byte	0x76
 1939 0b30 72020000 		.4byte	.LLST6
 1940 0b34 2E       		.uleb128 0x2e
 1941 0b35 E2010000 		.4byte	.LVL40
 1942 0b39 B40D0000 		.4byte	0xdb4
 1943 0b3d 00       		.byte	0
 1944 0b3e 2A       		.uleb128 0x2a
 1945 0b3f F8090000 		.4byte	0x9f8
 1946 0b43 E4010000 		.4byte	.LBB33
 1947 0b47 2A000000 		.4byte	.LBE33-.LBB33
 1948 0b4b 01       		.byte	0x1
 1949 0b4c 7406     		.2byte	0x674
 1950 0b4e B20B0000 		.4byte	0xbb2
 1951 0b52 2B       		.uleb128 0x2b
 1952 0b53 040A0000 		.4byte	0xa04
 1953 0b57 85020000 		.4byte	.LLST7
ARM GAS  C:\Users\Helon\AppData\Local\Temp\cc2OGx1X.s 			page 68


 1954 0b5b 2C       		.uleb128 0x2c
 1955 0b5c E4010000 		.4byte	.LBB34
 1956 0b60 2A000000 		.4byte	.LBE34-.LBB34
 1957 0b64 2D       		.uleb128 0x2d
 1958 0b65 0F0A0000 		.4byte	0xa0f
 1959 0b69 A3020000 		.4byte	.LLST8
 1960 0b6d 25       		.uleb128 0x25
 1961 0b6e F4010000 		.4byte	.LBB35
 1962 0b72 14000000 		.4byte	.LBE35-.LBB35
 1963 0b76 930B0000 		.4byte	0xb93
 1964 0b7a 31       		.uleb128 0x31
 1965 0b7b 1B0A0000 		.4byte	0xa1b
 1966 0b7f 02       		.uleb128 0x2
 1967 0b80 91       		.byte	0x91
 1968 0b81 64       		.sleb128 -28
 1969 0b82 29       		.uleb128 0x29
 1970 0b83 06020000 		.4byte	.LVL45
 1971 0b87 CF0D0000 		.4byte	0xdcf
 1972 0b8b 28       		.uleb128 0x28
 1973 0b8c 01       		.uleb128 0x1
 1974 0b8d 51       		.byte	0x51
 1975 0b8e 02       		.uleb128 0x2
 1976 0b8f 91       		.byte	0x91
 1977 0b90 64       		.sleb128 -28
 1978 0b91 00       		.byte	0
 1979 0b92 00       		.byte	0
 1980 0b93 27       		.uleb128 0x27
 1981 0b94 EA010000 		.4byte	.LVL43
 1982 0b98 F00D0000 		.4byte	0xdf0
 1983 0b9c A70B0000 		.4byte	0xba7
 1984 0ba0 28       		.uleb128 0x28
 1985 0ba1 01       		.uleb128 0x1
 1986 0ba2 50       		.byte	0x50
 1987 0ba3 02       		.uleb128 0x2
 1988 0ba4 76       		.byte	0x76
 1989 0ba5 00       		.sleb128 0
 1990 0ba6 00       		.byte	0
 1991 0ba7 2E       		.uleb128 0x2e
 1992 0ba8 0E020000 		.4byte	.LVL48
 1993 0bac 050E0000 		.4byte	0xe05
 1994 0bb0 00       		.byte	0
 1995 0bb1 00       		.byte	0
 1996 0bb2 27       		.uleb128 0x27
 1997 0bb3 D0000000 		.4byte	.LVL13
 1998 0bb7 1B0E0000 		.4byte	0xe1b
 1999 0bbb C60B0000 		.4byte	0xbc6
 2000 0bbf 28       		.uleb128 0x28
 2001 0bc0 01       		.uleb128 0x1
 2002 0bc1 51       		.byte	0x51
 2003 0bc2 02       		.uleb128 0x2
 2004 0bc3 77       		.byte	0x77
 2005 0bc4 00       		.sleb128 0
 2006 0bc5 00       		.byte	0
 2007 0bc6 27       		.uleb128 0x27
 2008 0bc7 DA000000 		.4byte	.LVL14
 2009 0bcb 3C0E0000 		.4byte	0xe3c
 2010 0bcf DA0B0000 		.4byte	0xbda
ARM GAS  C:\Users\Helon\AppData\Local\Temp\cc2OGx1X.s 			page 69


 2011 0bd3 28       		.uleb128 0x28
 2012 0bd4 01       		.uleb128 0x1
 2013 0bd5 51       		.byte	0x51
 2014 0bd6 02       		.uleb128 0x2
 2015 0bd7 77       		.byte	0x77
 2016 0bd8 00       		.sleb128 0
 2017 0bd9 00       		.byte	0
 2018 0bda 2E       		.uleb128 0x2e
 2019 0bdb E8000000 		.4byte	.LVL16
 2020 0bdf 570E0000 		.4byte	0xe57
 2021 0be3 2E       		.uleb128 0x2e
 2022 0be4 F4000000 		.4byte	.LVL19
 2023 0be8 620E0000 		.4byte	0xe62
 2024 0bec 27       		.uleb128 0x27
 2025 0bed FC000000 		.4byte	.LVL20
 2026 0bf1 780E0000 		.4byte	0xe78
 2027 0bf5 FF0B0000 		.4byte	0xbff
 2028 0bf9 28       		.uleb128 0x28
 2029 0bfa 01       		.uleb128 0x1
 2030 0bfb 51       		.byte	0x51
 2031 0bfc 01       		.uleb128 0x1
 2032 0bfd 30       		.byte	0x30
 2033 0bfe 00       		.byte	0
 2034 0bff 27       		.uleb128 0x27
 2035 0c00 04010000 		.4byte	.LVL22
 2036 0c04 780E0000 		.4byte	0xe78
 2037 0c08 120C0000 		.4byte	0xc12
 2038 0c0c 28       		.uleb128 0x28
 2039 0c0d 01       		.uleb128 0x1
 2040 0c0e 51       		.byte	0x51
 2041 0c0f 01       		.uleb128 0x1
 2042 0c10 31       		.byte	0x31
 2043 0c11 00       		.byte	0
 2044 0c12 27       		.uleb128 0x27
 2045 0c13 0A010000 		.4byte	.LVL23
 2046 0c17 8F0E0000 		.4byte	0xe8f
 2047 0c1b 250C0000 		.4byte	0xc25
 2048 0c1f 28       		.uleb128 0x28
 2049 0c20 01       		.uleb128 0x1
 2050 0c21 50       		.byte	0x50
 2051 0c22 01       		.uleb128 0x1
 2052 0c23 30       		.byte	0x30
 2053 0c24 00       		.byte	0
 2054 0c25 27       		.uleb128 0x27
 2055 0c26 4C010000 		.4byte	.LVL27
 2056 0c2a A50E0000 		.4byte	0xea5
 2057 0c2e 390C0000 		.4byte	0xc39
 2058 0c32 28       		.uleb128 0x28
 2059 0c33 01       		.uleb128 0x1
 2060 0c34 50       		.byte	0x50
 2061 0c35 02       		.uleb128 0x2
 2062 0c36 77       		.byte	0x77
 2063 0c37 00       		.sleb128 0
 2064 0c38 00       		.byte	0
 2065 0c39 27       		.uleb128 0x27
 2066 0c3a 9C010000 		.4byte	.LVL31
 2067 0c3e BB0E0000 		.4byte	0xebb
ARM GAS  C:\Users\Helon\AppData\Local\Temp\cc2OGx1X.s 			page 70


 2068 0c42 4D0C0000 		.4byte	0xc4d
 2069 0c46 28       		.uleb128 0x28
 2070 0c47 01       		.uleb128 0x1
 2071 0c48 50       		.byte	0x50
 2072 0c49 02       		.uleb128 0x2
 2073 0c4a 77       		.byte	0x77
 2074 0c4b 00       		.sleb128 0
 2075 0c4c 00       		.byte	0
 2076 0c4d 27       		.uleb128 0x27
 2077 0c4e B2010000 		.4byte	.LVL34
 2078 0c52 D10E0000 		.4byte	0xed1
 2079 0c56 660C0000 		.4byte	0xc66
 2080 0c5a 28       		.uleb128 0x28
 2081 0c5b 01       		.uleb128 0x1
 2082 0c5c 52       		.byte	0x52
 2083 0c5d 01       		.uleb128 0x1
 2084 0c5e 32       		.byte	0x32
 2085 0c5f 28       		.uleb128 0x28
 2086 0c60 01       		.uleb128 0x1
 2087 0c61 50       		.byte	0x50
 2088 0c62 02       		.uleb128 0x2
 2089 0c63 77       		.byte	0x77
 2090 0c64 00       		.sleb128 0
 2091 0c65 00       		.byte	0
 2092 0c66 27       		.uleb128 0x27
 2093 0c67 C6010000 		.4byte	.LVL35
 2094 0c6b D10E0000 		.4byte	0xed1
 2095 0c6f 790C0000 		.4byte	0xc79
 2096 0c73 28       		.uleb128 0x28
 2097 0c74 01       		.uleb128 0x1
 2098 0c75 52       		.byte	0x52
 2099 0c76 01       		.uleb128 0x1
 2100 0c77 34       		.byte	0x34
 2101 0c78 00       		.byte	0
 2102 0c79 32       		.uleb128 0x32
 2103 0c7a 28020000 		.4byte	.LVL49
 2104 0c7e 8F0C0000 		.4byte	0xc8f
 2105 0c82 28       		.uleb128 0x28
 2106 0c83 01       		.uleb128 0x1
 2107 0c84 51       		.byte	0x51
 2108 0c85 02       		.uleb128 0x2
 2109 0c86 76       		.byte	0x76
 2110 0c87 00       		.sleb128 0
 2111 0c88 28       		.uleb128 0x28
 2112 0c89 01       		.uleb128 0x1
 2113 0c8a 50       		.byte	0x50
 2114 0c8b 02       		.uleb128 0x2
 2115 0c8c 75       		.byte	0x75
 2116 0c8d 00       		.sleb128 0
 2117 0c8e 00       		.byte	0
 2118 0c8f 27       		.uleb128 0x27
 2119 0c90 44020000 		.4byte	.LVL52
 2120 0c94 620E0000 		.4byte	0xe62
 2121 0c98 A30C0000 		.4byte	0xca3
 2122 0c9c 28       		.uleb128 0x28
 2123 0c9d 01       		.uleb128 0x1
 2124 0c9e 50       		.byte	0x50
ARM GAS  C:\Users\Helon\AppData\Local\Temp\cc2OGx1X.s 			page 71


 2125 0c9f 02       		.uleb128 0x2
 2126 0ca0 77       		.byte	0x77
 2127 0ca1 00       		.sleb128 0
 2128 0ca2 00       		.byte	0
 2129 0ca3 29       		.uleb128 0x29
 2130 0ca4 4C020000 		.4byte	.LVL53
 2131 0ca8 780E0000 		.4byte	0xe78
 2132 0cac 28       		.uleb128 0x28
 2133 0cad 01       		.uleb128 0x1
 2134 0cae 51       		.byte	0x51
 2135 0caf 01       		.uleb128 0x1
 2136 0cb0 30       		.byte	0x30
 2137 0cb1 28       		.uleb128 0x28
 2138 0cb2 01       		.uleb128 0x1
 2139 0cb3 50       		.byte	0x50
 2140 0cb4 02       		.uleb128 0x2
 2141 0cb5 77       		.byte	0x77
 2142 0cb6 00       		.sleb128 0
 2143 0cb7 00       		.byte	0
 2144 0cb8 00       		.byte	0
 2145 0cb9 33       		.uleb128 0x33
 2146 0cba B5180000 		.4byte	.LASF273
 2147 0cbe 08       		.byte	0x8
 2148 0cbf CC01     		.2byte	0x1cc
 2149 0cc1 4D080000 		.4byte	0x84d
 2150 0cc5 34       		.uleb128 0x34
 2151 0cc6 4D0A0000 		.4byte	.LASF274
 2152 0cca 01       		.byte	0x1
 2153 0ccb 42       		.byte	0x42
 2154 0ccc A1000000 		.4byte	0xa1
 2155 0cd0 05       		.uleb128 0x5
 2156 0cd1 03       		.byte	0x3
 2157 0cd2 00000000 		.4byte	cyBle_eventHandlerFlag
 2158 0cd6 33       		.uleb128 0x33
 2159 0cd7 CA050000 		.4byte	.LASF275
 2160 0cdb 08       		.byte	0x8
 2161 0cdc D401     		.2byte	0x1d4
 2162 0cde CF030000 		.4byte	0x3cf
 2163 0ce2 33       		.uleb128 0x33
 2164 0ce3 0A0C0000 		.4byte	.LASF276
 2165 0ce7 08       		.byte	0x8
 2166 0ce8 D501     		.2byte	0x1d5
 2167 0cea EE0C0000 		.4byte	0xcee
 2168 0cee 0F       		.uleb128 0xf
 2169 0cef 04       		.byte	0x4
 2170 0cf0 CF030000 		.4byte	0x3cf
 2171 0cf4 34       		.uleb128 0x34
 2172 0cf5 8F1A0000 		.4byte	.LASF277
 2173 0cf9 01       		.byte	0x1
 2174 0cfa CC       		.byte	0xcc
 2175 0cfb FB040000 		.4byte	0x4fb
 2176 0cff 05       		.uleb128 0x5
 2177 0d00 03       		.byte	0x3
 2178 0d01 00000000 		.4byte	cyBle_authInfo
 2179 0d05 33       		.uleb128 0x33
 2180 0d06 F9140000 		.4byte	.LASF278
 2181 0d0a 08       		.byte	0x8
ARM GAS  C:\Users\Helon\AppData\Local\Temp\cc2OGx1X.s 			page 72


 2182 0d0b E201     		.2byte	0x1e2
 2183 0d0d 76000000 		.4byte	0x76
 2184 0d11 0D       		.uleb128 0xd
 2185 0d12 6B000000 		.4byte	0x6b
 2186 0d16 210D0000 		.4byte	0xd21
 2187 0d1a 0E       		.uleb128 0xe
 2188 0d1b A6000000 		.4byte	0xa6
 2189 0d1f 03       		.byte	0x3
 2190 0d20 00       		.byte	0
 2191 0d21 35       		.uleb128 0x35
 2192 0d22 531D0000 		.4byte	.LASF279
 2193 0d26 09       		.byte	0x9
 2194 0d27 E2       		.byte	0xe2
 2195 0d28 110D0000 		.4byte	0xd11
 2196 0d2c 35       		.uleb128 0x35
 2197 0d2d 58100000 		.4byte	.LASF280
 2198 0d31 09       		.byte	0x9
 2199 0d32 E9       		.byte	0xe9
 2200 0d33 370D0000 		.4byte	0xd37
 2201 0d37 1A       		.uleb128 0x1a
 2202 0d38 D3080000 		.4byte	0x8d3
 2203 0d3c 33       		.uleb128 0x33
 2204 0d3d 221A0000 		.4byte	.LASF281
 2205 0d41 0A       		.byte	0xa
 2206 0d42 2C09     		.2byte	0x92c
 2207 0d44 12090000 		.4byte	0x912
 2208 0d48 34       		.uleb128 0x34
 2209 0d49 380B0000 		.4byte	.LASF282
 2210 0d4d 01       		.byte	0x1
 2211 0d4e 40       		.byte	0x40
 2212 0d4f 40070000 		.4byte	0x740
 2213 0d53 05       		.uleb128 0x5
 2214 0d54 03       		.byte	0x3
 2215 0d55 00000000 		.4byte	cyBle_connHandle
 2216 0d59 34       		.uleb128 0x34
 2217 0d5a 510F0000 		.4byte	.LASF283
 2218 0d5e 01       		.byte	0x1
 2219 0d5f 43       		.byte	0x43
 2220 0d60 A1000000 		.4byte	0xa1
 2221 0d64 05       		.uleb128 0x5
 2222 0d65 03       		.byte	0x3
 2223 0d66 00000000 		.4byte	cyBle_busyStatus
 2224 0d6a 34       		.uleb128 0x34
 2225 0d6b 551C0000 		.4byte	.LASF284
 2226 0d6f 01       		.byte	0x1
 2227 0d70 46       		.byte	0x46
 2228 0d71 6B000000 		.4byte	0x6b
 2229 0d75 05       		.uleb128 0x5
 2230 0d76 03       		.byte	0x3
 2231 0d77 00000000 		.4byte	cyBle_advertisingIntervalType
 2232 0d7b 34       		.uleb128 0x34
 2233 0d7c 15030000 		.4byte	.LASF285
 2234 0d80 01       		.byte	0x1
 2235 0d81 4A       		.byte	0x4a
 2236 0d82 6B000000 		.4byte	0x6b
 2237 0d86 05       		.uleb128 0x5
 2238 0d87 03       		.byte	0x3
ARM GAS  C:\Users\Helon\AppData\Local\Temp\cc2OGx1X.s 			page 73


 2239 0d88 00000000 		.4byte	cyBle_scanningIntervalType
 2240 0d8c 36       		.uleb128 0x36
 2241 0d8d 57040000 		.4byte	.LASF286
 2242 0d91 03       		.byte	0x3
 2243 0d92 4105     		.2byte	0x541
 2244 0d94 EB020000 		.4byte	0x2eb
 2245 0d98 A20D0000 		.4byte	0xda2
 2246 0d9c 14       		.uleb128 0x14
 2247 0d9d A20D0000 		.4byte	0xda2
 2248 0da1 00       		.byte	0
 2249 0da2 0F       		.uleb128 0xf
 2250 0da3 04       		.byte	0x4
 2251 0da4 8F030000 		.4byte	0x38f
 2252 0da8 37       		.uleb128 0x37
 2253 0da9 E90B0000 		.4byte	.LASF293
 2254 0dad 08       		.byte	0x8
 2255 0dae C301     		.2byte	0x1c3
 2256 0db0 EB020000 		.4byte	0x2eb
 2257 0db4 36       		.uleb128 0x36
 2258 0db5 840C0000 		.4byte	.LASF287
 2259 0db9 07       		.byte	0x7
 2260 0dba 6901     		.2byte	0x169
 2261 0dbc EB020000 		.4byte	0x2eb
 2262 0dc0 CF0D0000 		.4byte	0xdcf
 2263 0dc4 14       		.uleb128 0x14
 2264 0dc5 40070000 		.4byte	0x740
 2265 0dc9 14       		.uleb128 0x14
 2266 0dca 76000000 		.4byte	0x76
 2267 0dce 00       		.byte	0
 2268 0dcf 36       		.uleb128 0x36
 2269 0dd0 AC1C0000 		.4byte	.LASF288
 2270 0dd4 07       		.byte	0x7
 2271 0dd5 2D01     		.2byte	0x12d
 2272 0dd7 EB020000 		.4byte	0x2eb
 2273 0ddb EA0D0000 		.4byte	0xdea
 2274 0ddf 14       		.uleb128 0x14
 2275 0de0 40070000 		.4byte	0x740
 2276 0de4 14       		.uleb128 0x14
 2277 0de5 EA0D0000 		.4byte	0xdea
 2278 0de9 00       		.byte	0
 2279 0dea 0F       		.uleb128 0xf
 2280 0deb 04       		.byte	0x4
 2281 0dec 16080000 		.4byte	0x816
 2282 0df0 38       		.uleb128 0x38
 2283 0df1 B1130000 		.4byte	.LASF289
 2284 0df5 09       		.byte	0x9
 2285 0df6 C9       		.byte	0xc9
 2286 0df7 04070000 		.4byte	0x704
 2287 0dfb 050E0000 		.4byte	0xe05
 2288 0dff 14       		.uleb128 0x14
 2289 0e00 290A0000 		.4byte	0xa29
 2290 0e04 00       		.byte	0
 2291 0e05 36       		.uleb128 0x36
 2292 0e06 EC030000 		.4byte	.LASF290
 2293 0e0a 07       		.byte	0x7
 2294 0e0b B301     		.2byte	0x1b3
 2295 0e0d EB020000 		.4byte	0x2eb
ARM GAS  C:\Users\Helon\AppData\Local\Temp\cc2OGx1X.s 			page 74


 2296 0e11 1B0E0000 		.4byte	0xe1b
 2297 0e15 14       		.uleb128 0x14
 2298 0e16 40070000 		.4byte	0x740
 2299 0e1a 00       		.byte	0
 2300 0e1b 36       		.uleb128 0x36
 2301 0e1c 6B100000 		.4byte	.LASF291
 2302 0e20 05       		.byte	0x5
 2303 0e21 3F06     		.2byte	0x63f
 2304 0e23 EB020000 		.4byte	0x2eb
 2305 0e27 360E0000 		.4byte	0xe36
 2306 0e2b 14       		.uleb128 0x14
 2307 0e2c 6B000000 		.4byte	0x6b
 2308 0e30 14       		.uleb128 0x14
 2309 0e31 360E0000 		.4byte	0xe36
 2310 0e35 00       		.byte	0
 2311 0e36 0F       		.uleb128 0xf
 2312 0e37 04       		.byte	0x4
 2313 0e38 FB040000 		.4byte	0x4fb
 2314 0e3c 36       		.uleb128 0x36
 2315 0e3d 2F1C0000 		.4byte	.LASF292
 2316 0e41 05       		.byte	0x5
 2317 0e42 EE05     		.2byte	0x5ee
 2318 0e44 EB020000 		.4byte	0x2eb
 2319 0e48 570E0000 		.4byte	0xe57
 2320 0e4c 14       		.uleb128 0x14
 2321 0e4d 6B000000 		.4byte	0x6b
 2322 0e51 14       		.uleb128 0x14
 2323 0e52 360E0000 		.4byte	0xe36
 2324 0e56 00       		.byte	0
 2325 0e57 39       		.uleb128 0x39
 2326 0e58 B40B0000 		.4byte	.LASF294
 2327 0e5c 04       		.byte	0x4
 2328 0e5d D7       		.byte	0xd7
 2329 0e5e EB020000 		.4byte	0x2eb
 2330 0e62 36       		.uleb128 0x36
 2331 0e63 49000000 		.4byte	.LASF295
 2332 0e67 03       		.byte	0x3
 2333 0e68 C304     		.2byte	0x4c3
 2334 0e6a EB020000 		.4byte	0x2eb
 2335 0e6e 780E0000 		.4byte	0xe78
 2336 0e72 14       		.uleb128 0x14
 2337 0e73 EE0C0000 		.4byte	0xcee
 2338 0e77 00       		.byte	0
 2339 0e78 3A       		.uleb128 0x3a
 2340 0e79 620F0000 		.4byte	.LASF299
 2341 0e7d 08       		.byte	0x8
 2342 0e7e B201     		.2byte	0x1b2
 2343 0e80 8F0E0000 		.4byte	0xe8f
 2344 0e84 14       		.uleb128 0x14
 2345 0e85 E4090000 		.4byte	0x9e4
 2346 0e89 14       		.uleb128 0x14
 2347 0e8a 6B000000 		.4byte	0x6b
 2348 0e8e 00       		.byte	0
 2349 0e8f 36       		.uleb128 0x36
 2350 0e90 60000000 		.4byte	.LASF296
 2351 0e94 05       		.byte	0x5
 2352 0e95 1A03     		.2byte	0x31a
ARM GAS  C:\Users\Helon\AppData\Local\Temp\cc2OGx1X.s 			page 75


 2353 0e97 EB020000 		.4byte	0x2eb
 2354 0e9b A50E0000 		.4byte	0xea5
 2355 0e9f 14       		.uleb128 0x14
 2356 0ea0 4F040000 		.4byte	0x44f
 2357 0ea4 00       		.byte	0
 2358 0ea5 36       		.uleb128 0x36
 2359 0ea6 73080000 		.4byte	.LASF297
 2360 0eaa 08       		.byte	0x8
 2361 0eab B001     		.2byte	0x1b0
 2362 0ead EB020000 		.4byte	0x2eb
 2363 0eb1 BB0E0000 		.4byte	0xebb
 2364 0eb5 14       		.uleb128 0x14
 2365 0eb6 6B000000 		.4byte	0x6b
 2366 0eba 00       		.byte	0
 2367 0ebb 36       		.uleb128 0x36
 2368 0ebc AF170000 		.4byte	.LASF298
 2369 0ec0 08       		.byte	0x8
 2370 0ec1 BD01     		.2byte	0x1bd
 2371 0ec3 EB020000 		.4byte	0x2eb
 2372 0ec7 D10E0000 		.4byte	0xed1
 2373 0ecb 14       		.uleb128 0x14
 2374 0ecc 6B000000 		.4byte	0x6b
 2375 0ed0 00       		.byte	0
 2376 0ed1 3B       		.uleb128 0x3b
 2377 0ed2 051D0000 		.4byte	.LASF300
 2378 0ed6 AD000000 		.4byte	0xad
 2379 0eda EE0E0000 		.4byte	0xeee
 2380 0ede 14       		.uleb128 0x14
 2381 0edf AD000000 		.4byte	0xad
 2382 0ee3 14       		.uleb128 0x14
 2383 0ee4 EE0E0000 		.4byte	0xeee
 2384 0ee8 14       		.uleb128 0x14
 2385 0ee9 A6000000 		.4byte	0xa6
 2386 0eed 00       		.byte	0
 2387 0eee 0F       		.uleb128 0xf
 2388 0eef 04       		.byte	0x4
 2389 0ef0 F40E0000 		.4byte	0xef4
 2390 0ef4 3C       		.uleb128 0x3c
 2391 0ef5 00       		.byte	0
 2392              		.section	.debug_abbrev,"",%progbits
 2393              	.Ldebug_abbrev0:
 2394 0000 01       		.uleb128 0x1
 2395 0001 11       		.uleb128 0x11
 2396 0002 01       		.byte	0x1
 2397 0003 25       		.uleb128 0x25
 2398 0004 0E       		.uleb128 0xe
 2399 0005 13       		.uleb128 0x13
 2400 0006 0B       		.uleb128 0xb
 2401 0007 03       		.uleb128 0x3
 2402 0008 0E       		.uleb128 0xe
 2403 0009 1B       		.uleb128 0x1b
 2404 000a 0E       		.uleb128 0xe
 2405 000b 55       		.uleb128 0x55
 2406 000c 17       		.uleb128 0x17
 2407 000d 11       		.uleb128 0x11
 2408 000e 01       		.uleb128 0x1
 2409 000f 10       		.uleb128 0x10
ARM GAS  C:\Users\Helon\AppData\Local\Temp\cc2OGx1X.s 			page 76


 2410 0010 17       		.uleb128 0x17
 2411 0011 00       		.byte	0
 2412 0012 00       		.byte	0
 2413 0013 02       		.uleb128 0x2
 2414 0014 24       		.uleb128 0x24
 2415 0015 00       		.byte	0
 2416 0016 0B       		.uleb128 0xb
 2417 0017 0B       		.uleb128 0xb
 2418 0018 3E       		.uleb128 0x3e
 2419 0019 0B       		.uleb128 0xb
 2420 001a 03       		.uleb128 0x3
 2421 001b 0E       		.uleb128 0xe
 2422 001c 00       		.byte	0
 2423 001d 00       		.byte	0
 2424 001e 03       		.uleb128 0x3
 2425 001f 24       		.uleb128 0x24
 2426 0020 00       		.byte	0
 2427 0021 0B       		.uleb128 0xb
 2428 0022 0B       		.uleb128 0xb
 2429 0023 3E       		.uleb128 0x3e
 2430 0024 0B       		.uleb128 0xb
 2431 0025 03       		.uleb128 0x3
 2432 0026 08       		.uleb128 0x8
 2433 0027 00       		.byte	0
 2434 0028 00       		.byte	0
 2435 0029 04       		.uleb128 0x4
 2436 002a 16       		.uleb128 0x16
 2437 002b 00       		.byte	0
 2438 002c 03       		.uleb128 0x3
 2439 002d 0E       		.uleb128 0xe
 2440 002e 3A       		.uleb128 0x3a
 2441 002f 0B       		.uleb128 0xb
 2442 0030 3B       		.uleb128 0x3b
 2443 0031 0B       		.uleb128 0xb
 2444 0032 49       		.uleb128 0x49
 2445 0033 13       		.uleb128 0x13
 2446 0034 00       		.byte	0
 2447 0035 00       		.byte	0
 2448 0036 05       		.uleb128 0x5
 2449 0037 35       		.uleb128 0x35
 2450 0038 00       		.byte	0
 2451 0039 49       		.uleb128 0x49
 2452 003a 13       		.uleb128 0x13
 2453 003b 00       		.byte	0
 2454 003c 00       		.byte	0
 2455 003d 06       		.uleb128 0x6
 2456 003e 0F       		.uleb128 0xf
 2457 003f 00       		.byte	0
 2458 0040 0B       		.uleb128 0xb
 2459 0041 0B       		.uleb128 0xb
 2460 0042 00       		.byte	0
 2461 0043 00       		.byte	0
 2462 0044 07       		.uleb128 0x7
 2463 0045 04       		.uleb128 0x4
 2464 0046 01       		.byte	0x1
 2465 0047 0B       		.uleb128 0xb
 2466 0048 0B       		.uleb128 0xb
ARM GAS  C:\Users\Helon\AppData\Local\Temp\cc2OGx1X.s 			page 77


 2467 0049 3A       		.uleb128 0x3a
 2468 004a 0B       		.uleb128 0xb
 2469 004b 3B       		.uleb128 0x3b
 2470 004c 0B       		.uleb128 0xb
 2471 004d 01       		.uleb128 0x1
 2472 004e 13       		.uleb128 0x13
 2473 004f 00       		.byte	0
 2474 0050 00       		.byte	0
 2475 0051 08       		.uleb128 0x8
 2476 0052 28       		.uleb128 0x28
 2477 0053 00       		.byte	0
 2478 0054 03       		.uleb128 0x3
 2479 0055 0E       		.uleb128 0xe
 2480 0056 1C       		.uleb128 0x1c
 2481 0057 0D       		.uleb128 0xd
 2482 0058 00       		.byte	0
 2483 0059 00       		.byte	0
 2484 005a 09       		.uleb128 0x9
 2485 005b 04       		.uleb128 0x4
 2486 005c 01       		.byte	0x1
 2487 005d 0B       		.uleb128 0xb
 2488 005e 0B       		.uleb128 0xb
 2489 005f 3A       		.uleb128 0x3a
 2490 0060 0B       		.uleb128 0xb
 2491 0061 3B       		.uleb128 0x3b
 2492 0062 05       		.uleb128 0x5
 2493 0063 01       		.uleb128 0x1
 2494 0064 13       		.uleb128 0x13
 2495 0065 00       		.byte	0
 2496 0066 00       		.byte	0
 2497 0067 0A       		.uleb128 0xa
 2498 0068 16       		.uleb128 0x16
 2499 0069 00       		.byte	0
 2500 006a 03       		.uleb128 0x3
 2501 006b 0E       		.uleb128 0xe
 2502 006c 3A       		.uleb128 0x3a
 2503 006d 0B       		.uleb128 0xb
 2504 006e 3B       		.uleb128 0x3b
 2505 006f 05       		.uleb128 0x5
 2506 0070 49       		.uleb128 0x49
 2507 0071 13       		.uleb128 0x13
 2508 0072 00       		.byte	0
 2509 0073 00       		.byte	0
 2510 0074 0B       		.uleb128 0xb
 2511 0075 13       		.uleb128 0x13
 2512 0076 01       		.byte	0x1
 2513 0077 0B       		.uleb128 0xb
 2514 0078 0B       		.uleb128 0xb
 2515 0079 3A       		.uleb128 0x3a
 2516 007a 0B       		.uleb128 0xb
 2517 007b 3B       		.uleb128 0x3b
 2518 007c 05       		.uleb128 0x5
 2519 007d 01       		.uleb128 0x1
 2520 007e 13       		.uleb128 0x13
 2521 007f 00       		.byte	0
 2522 0080 00       		.byte	0
 2523 0081 0C       		.uleb128 0xc
ARM GAS  C:\Users\Helon\AppData\Local\Temp\cc2OGx1X.s 			page 78


 2524 0082 0D       		.uleb128 0xd
 2525 0083 00       		.byte	0
 2526 0084 03       		.uleb128 0x3
 2527 0085 0E       		.uleb128 0xe
 2528 0086 3A       		.uleb128 0x3a
 2529 0087 0B       		.uleb128 0xb
 2530 0088 3B       		.uleb128 0x3b
 2531 0089 05       		.uleb128 0x5
 2532 008a 49       		.uleb128 0x49
 2533 008b 13       		.uleb128 0x13
 2534 008c 38       		.uleb128 0x38
 2535 008d 0B       		.uleb128 0xb
 2536 008e 00       		.byte	0
 2537 008f 00       		.byte	0
 2538 0090 0D       		.uleb128 0xd
 2539 0091 01       		.uleb128 0x1
 2540 0092 01       		.byte	0x1
 2541 0093 49       		.uleb128 0x49
 2542 0094 13       		.uleb128 0x13
 2543 0095 01       		.uleb128 0x1
 2544 0096 13       		.uleb128 0x13
 2545 0097 00       		.byte	0
 2546 0098 00       		.byte	0
 2547 0099 0E       		.uleb128 0xe
 2548 009a 21       		.uleb128 0x21
 2549 009b 00       		.byte	0
 2550 009c 49       		.uleb128 0x49
 2551 009d 13       		.uleb128 0x13
 2552 009e 2F       		.uleb128 0x2f
 2553 009f 0B       		.uleb128 0xb
 2554 00a0 00       		.byte	0
 2555 00a1 00       		.byte	0
 2556 00a2 0F       		.uleb128 0xf
 2557 00a3 0F       		.uleb128 0xf
 2558 00a4 00       		.byte	0
 2559 00a5 0B       		.uleb128 0xb
 2560 00a6 0B       		.uleb128 0xb
 2561 00a7 49       		.uleb128 0x49
 2562 00a8 13       		.uleb128 0x13
 2563 00a9 00       		.byte	0
 2564 00aa 00       		.byte	0
 2565 00ab 10       		.uleb128 0x10
 2566 00ac 0D       		.uleb128 0xd
 2567 00ad 00       		.byte	0
 2568 00ae 03       		.uleb128 0x3
 2569 00af 08       		.uleb128 0x8
 2570 00b0 3A       		.uleb128 0x3a
 2571 00b1 0B       		.uleb128 0xb
 2572 00b2 3B       		.uleb128 0x3b
 2573 00b3 05       		.uleb128 0x5
 2574 00b4 49       		.uleb128 0x49
 2575 00b5 13       		.uleb128 0x13
 2576 00b6 38       		.uleb128 0x38
 2577 00b7 0B       		.uleb128 0xb
 2578 00b8 00       		.byte	0
 2579 00b9 00       		.byte	0
 2580 00ba 11       		.uleb128 0x11
ARM GAS  C:\Users\Helon\AppData\Local\Temp\cc2OGx1X.s 			page 79


 2581 00bb 13       		.uleb128 0x13
 2582 00bc 01       		.byte	0x1
 2583 00bd 0B       		.uleb128 0xb
 2584 00be 0B       		.uleb128 0xb
 2585 00bf 3A       		.uleb128 0x3a
 2586 00c0 0B       		.uleb128 0xb
 2587 00c1 3B       		.uleb128 0x3b
 2588 00c2 0B       		.uleb128 0xb
 2589 00c3 01       		.uleb128 0x1
 2590 00c4 13       		.uleb128 0x13
 2591 00c5 00       		.byte	0
 2592 00c6 00       		.byte	0
 2593 00c7 12       		.uleb128 0x12
 2594 00c8 0D       		.uleb128 0xd
 2595 00c9 00       		.byte	0
 2596 00ca 03       		.uleb128 0x3
 2597 00cb 0E       		.uleb128 0xe
 2598 00cc 3A       		.uleb128 0x3a
 2599 00cd 0B       		.uleb128 0xb
 2600 00ce 3B       		.uleb128 0x3b
 2601 00cf 0B       		.uleb128 0xb
 2602 00d0 49       		.uleb128 0x49
 2603 00d1 13       		.uleb128 0x13
 2604 00d2 38       		.uleb128 0x38
 2605 00d3 0B       		.uleb128 0xb
 2606 00d4 00       		.byte	0
 2607 00d5 00       		.byte	0
 2608 00d6 13       		.uleb128 0x13
 2609 00d7 15       		.uleb128 0x15
 2610 00d8 01       		.byte	0x1
 2611 00d9 27       		.uleb128 0x27
 2612 00da 19       		.uleb128 0x19
 2613 00db 01       		.uleb128 0x1
 2614 00dc 13       		.uleb128 0x13
 2615 00dd 00       		.byte	0
 2616 00de 00       		.byte	0
 2617 00df 14       		.uleb128 0x14
 2618 00e0 05       		.uleb128 0x5
 2619 00e1 00       		.byte	0
 2620 00e2 49       		.uleb128 0x49
 2621 00e3 13       		.uleb128 0x13
 2622 00e4 00       		.byte	0
 2623 00e5 00       		.byte	0
 2624 00e6 15       		.uleb128 0x15
 2625 00e7 13       		.uleb128 0x13
 2626 00e8 01       		.byte	0x1
 2627 00e9 0B       		.uleb128 0xb
 2628 00ea 05       		.uleb128 0x5
 2629 00eb 3A       		.uleb128 0x3a
 2630 00ec 0B       		.uleb128 0xb
 2631 00ed 3B       		.uleb128 0x3b
 2632 00ee 0B       		.uleb128 0xb
 2633 00ef 01       		.uleb128 0x1
 2634 00f0 13       		.uleb128 0x13
 2635 00f1 00       		.byte	0
 2636 00f2 00       		.byte	0
 2637 00f3 16       		.uleb128 0x16
ARM GAS  C:\Users\Helon\AppData\Local\Temp\cc2OGx1X.s 			page 80


 2638 00f4 0D       		.uleb128 0xd
 2639 00f5 00       		.byte	0
 2640 00f6 03       		.uleb128 0x3
 2641 00f7 0E       		.uleb128 0xe
 2642 00f8 3A       		.uleb128 0x3a
 2643 00f9 0B       		.uleb128 0xb
 2644 00fa 3B       		.uleb128 0x3b
 2645 00fb 0B       		.uleb128 0xb
 2646 00fc 49       		.uleb128 0x49
 2647 00fd 13       		.uleb128 0x13
 2648 00fe 38       		.uleb128 0x38
 2649 00ff 05       		.uleb128 0x5
 2650 0100 00       		.byte	0
 2651 0101 00       		.byte	0
 2652 0102 17       		.uleb128 0x17
 2653 0103 21       		.uleb128 0x21
 2654 0104 00       		.byte	0
 2655 0105 49       		.uleb128 0x49
 2656 0106 13       		.uleb128 0x13
 2657 0107 2F       		.uleb128 0x2f
 2658 0108 05       		.uleb128 0x5
 2659 0109 00       		.byte	0
 2660 010a 00       		.byte	0
 2661 010b 18       		.uleb128 0x18
 2662 010c 2E       		.uleb128 0x2e
 2663 010d 01       		.byte	0x1
 2664 010e 03       		.uleb128 0x3
 2665 010f 0E       		.uleb128 0xe
 2666 0110 3A       		.uleb128 0x3a
 2667 0111 0B       		.uleb128 0xb
 2668 0112 3B       		.uleb128 0x3b
 2669 0113 05       		.uleb128 0x5
 2670 0114 27       		.uleb128 0x27
 2671 0115 19       		.uleb128 0x19
 2672 0116 20       		.uleb128 0x20
 2673 0117 0B       		.uleb128 0xb
 2674 0118 01       		.uleb128 0x1
 2675 0119 13       		.uleb128 0x13
 2676 011a 00       		.byte	0
 2677 011b 00       		.byte	0
 2678 011c 19       		.uleb128 0x19
 2679 011d 05       		.uleb128 0x5
 2680 011e 00       		.byte	0
 2681 011f 03       		.uleb128 0x3
 2682 0120 0E       		.uleb128 0xe
 2683 0121 3A       		.uleb128 0x3a
 2684 0122 0B       		.uleb128 0xb
 2685 0123 3B       		.uleb128 0x3b
 2686 0124 05       		.uleb128 0x5
 2687 0125 49       		.uleb128 0x49
 2688 0126 13       		.uleb128 0x13
 2689 0127 00       		.byte	0
 2690 0128 00       		.byte	0
 2691 0129 1A       		.uleb128 0x1a
 2692 012a 26       		.uleb128 0x26
 2693 012b 00       		.byte	0
 2694 012c 49       		.uleb128 0x49
ARM GAS  C:\Users\Helon\AppData\Local\Temp\cc2OGx1X.s 			page 81


 2695 012d 13       		.uleb128 0x13
 2696 012e 00       		.byte	0
 2697 012f 00       		.byte	0
 2698 0130 1B       		.uleb128 0x1b
 2699 0131 2E       		.uleb128 0x2e
 2700 0132 00       		.byte	0
 2701 0133 03       		.uleb128 0x3
 2702 0134 0E       		.uleb128 0xe
 2703 0135 3A       		.uleb128 0x3a
 2704 0136 0B       		.uleb128 0xb
 2705 0137 3B       		.uleb128 0x3b
 2706 0138 05       		.uleb128 0x5
 2707 0139 27       		.uleb128 0x27
 2708 013a 19       		.uleb128 0x19
 2709 013b 20       		.uleb128 0x20
 2710 013c 0B       		.uleb128 0xb
 2711 013d 00       		.byte	0
 2712 013e 00       		.byte	0
 2713 013f 1C       		.uleb128 0x1c
 2714 0140 2E       		.uleb128 0x2e
 2715 0141 01       		.byte	0x1
 2716 0142 03       		.uleb128 0x3
 2717 0143 0E       		.uleb128 0xe
 2718 0144 3A       		.uleb128 0x3a
 2719 0145 0B       		.uleb128 0xb
 2720 0146 3B       		.uleb128 0x3b
 2721 0147 05       		.uleb128 0x5
 2722 0148 27       		.uleb128 0x27
 2723 0149 19       		.uleb128 0x19
 2724 014a 49       		.uleb128 0x49
 2725 014b 13       		.uleb128 0x13
 2726 014c 20       		.uleb128 0x20
 2727 014d 0B       		.uleb128 0xb
 2728 014e 01       		.uleb128 0x1
 2729 014f 13       		.uleb128 0x13
 2730 0150 00       		.byte	0
 2731 0151 00       		.byte	0
 2732 0152 1D       		.uleb128 0x1d
 2733 0153 34       		.uleb128 0x34
 2734 0154 00       		.byte	0
 2735 0155 03       		.uleb128 0x3
 2736 0156 08       		.uleb128 0x8
 2737 0157 3A       		.uleb128 0x3a
 2738 0158 0B       		.uleb128 0xb
 2739 0159 3B       		.uleb128 0x3b
 2740 015a 05       		.uleb128 0x5
 2741 015b 49       		.uleb128 0x49
 2742 015c 13       		.uleb128 0x13
 2743 015d 00       		.byte	0
 2744 015e 00       		.byte	0
 2745 015f 1E       		.uleb128 0x1e
 2746 0160 34       		.uleb128 0x34
 2747 0161 00       		.byte	0
 2748 0162 03       		.uleb128 0x3
 2749 0163 0E       		.uleb128 0xe
 2750 0164 3A       		.uleb128 0x3a
 2751 0165 0B       		.uleb128 0xb
ARM GAS  C:\Users\Helon\AppData\Local\Temp\cc2OGx1X.s 			page 82


 2752 0166 3B       		.uleb128 0x3b
 2753 0167 05       		.uleb128 0x5
 2754 0168 49       		.uleb128 0x49
 2755 0169 13       		.uleb128 0x13
 2756 016a 00       		.byte	0
 2757 016b 00       		.byte	0
 2758 016c 1F       		.uleb128 0x1f
 2759 016d 2E       		.uleb128 0x2e
 2760 016e 01       		.byte	0x1
 2761 016f 03       		.uleb128 0x3
 2762 0170 0E       		.uleb128 0xe
 2763 0171 3A       		.uleb128 0x3a
 2764 0172 0B       		.uleb128 0xb
 2765 0173 3B       		.uleb128 0x3b
 2766 0174 0B       		.uleb128 0xb
 2767 0175 27       		.uleb128 0x27
 2768 0176 19       		.uleb128 0x19
 2769 0177 20       		.uleb128 0x20
 2770 0178 0B       		.uleb128 0xb
 2771 0179 01       		.uleb128 0x1
 2772 017a 13       		.uleb128 0x13
 2773 017b 00       		.byte	0
 2774 017c 00       		.byte	0
 2775 017d 20       		.uleb128 0x20
 2776 017e 05       		.uleb128 0x5
 2777 017f 00       		.byte	0
 2778 0180 03       		.uleb128 0x3
 2779 0181 0E       		.uleb128 0xe
 2780 0182 3A       		.uleb128 0x3a
 2781 0183 0B       		.uleb128 0xb
 2782 0184 3B       		.uleb128 0x3b
 2783 0185 0B       		.uleb128 0xb
 2784 0186 49       		.uleb128 0x49
 2785 0187 13       		.uleb128 0x13
 2786 0188 00       		.byte	0
 2787 0189 00       		.byte	0
 2788 018a 21       		.uleb128 0x21
 2789 018b 34       		.uleb128 0x34
 2790 018c 00       		.byte	0
 2791 018d 03       		.uleb128 0x3
 2792 018e 0E       		.uleb128 0xe
 2793 018f 3A       		.uleb128 0x3a
 2794 0190 0B       		.uleb128 0xb
 2795 0191 3B       		.uleb128 0x3b
 2796 0192 0B       		.uleb128 0xb
 2797 0193 49       		.uleb128 0x49
 2798 0194 13       		.uleb128 0x13
 2799 0195 00       		.byte	0
 2800 0196 00       		.byte	0
 2801 0197 22       		.uleb128 0x22
 2802 0198 0B       		.uleb128 0xb
 2803 0199 01       		.byte	0x1
 2804 019a 00       		.byte	0
 2805 019b 00       		.byte	0
 2806 019c 23       		.uleb128 0x23
 2807 019d 2E       		.uleb128 0x2e
 2808 019e 01       		.byte	0x1
ARM GAS  C:\Users\Helon\AppData\Local\Temp\cc2OGx1X.s 			page 83


 2809 019f 3F       		.uleb128 0x3f
 2810 01a0 19       		.uleb128 0x19
 2811 01a1 03       		.uleb128 0x3
 2812 01a2 0E       		.uleb128 0xe
 2813 01a3 3A       		.uleb128 0x3a
 2814 01a4 0B       		.uleb128 0xb
 2815 01a5 3B       		.uleb128 0x3b
 2816 01a6 05       		.uleb128 0x5
 2817 01a7 27       		.uleb128 0x27
 2818 01a8 19       		.uleb128 0x19
 2819 01a9 11       		.uleb128 0x11
 2820 01aa 01       		.uleb128 0x1
 2821 01ab 12       		.uleb128 0x12
 2822 01ac 06       		.uleb128 0x6
 2823 01ad 40       		.uleb128 0x40
 2824 01ae 18       		.uleb128 0x18
 2825 01af 9742     		.uleb128 0x2117
 2826 01b1 19       		.uleb128 0x19
 2827 01b2 01       		.uleb128 0x1
 2828 01b3 13       		.uleb128 0x13
 2829 01b4 00       		.byte	0
 2830 01b5 00       		.byte	0
 2831 01b6 24       		.uleb128 0x24
 2832 01b7 05       		.uleb128 0x5
 2833 01b8 00       		.byte	0
 2834 01b9 03       		.uleb128 0x3
 2835 01ba 0E       		.uleb128 0xe
 2836 01bb 3A       		.uleb128 0x3a
 2837 01bc 0B       		.uleb128 0xb
 2838 01bd 3B       		.uleb128 0x3b
 2839 01be 05       		.uleb128 0x5
 2840 01bf 49       		.uleb128 0x49
 2841 01c0 13       		.uleb128 0x13
 2842 01c1 02       		.uleb128 0x2
 2843 01c2 17       		.uleb128 0x17
 2844 01c3 00       		.byte	0
 2845 01c4 00       		.byte	0
 2846 01c5 25       		.uleb128 0x25
 2847 01c6 0B       		.uleb128 0xb
 2848 01c7 01       		.byte	0x1
 2849 01c8 11       		.uleb128 0x11
 2850 01c9 01       		.uleb128 0x1
 2851 01ca 12       		.uleb128 0x12
 2852 01cb 06       		.uleb128 0x6
 2853 01cc 01       		.uleb128 0x1
 2854 01cd 13       		.uleb128 0x13
 2855 01ce 00       		.byte	0
 2856 01cf 00       		.byte	0
 2857 01d0 26       		.uleb128 0x26
 2858 01d1 34       		.uleb128 0x34
 2859 01d2 00       		.byte	0
 2860 01d3 03       		.uleb128 0x3
 2861 01d4 0E       		.uleb128 0xe
 2862 01d5 3A       		.uleb128 0x3a
 2863 01d6 0B       		.uleb128 0xb
 2864 01d7 3B       		.uleb128 0x3b
 2865 01d8 05       		.uleb128 0x5
ARM GAS  C:\Users\Helon\AppData\Local\Temp\cc2OGx1X.s 			page 84


 2866 01d9 49       		.uleb128 0x49
 2867 01da 13       		.uleb128 0x13
 2868 01db 02       		.uleb128 0x2
 2869 01dc 18       		.uleb128 0x18
 2870 01dd 00       		.byte	0
 2871 01de 00       		.byte	0
 2872 01df 27       		.uleb128 0x27
 2873 01e0 898201   		.uleb128 0x4109
 2874 01e3 01       		.byte	0x1
 2875 01e4 11       		.uleb128 0x11
 2876 01e5 01       		.uleb128 0x1
 2877 01e6 31       		.uleb128 0x31
 2878 01e7 13       		.uleb128 0x13
 2879 01e8 01       		.uleb128 0x1
 2880 01e9 13       		.uleb128 0x13
 2881 01ea 00       		.byte	0
 2882 01eb 00       		.byte	0
 2883 01ec 28       		.uleb128 0x28
 2884 01ed 8A8201   		.uleb128 0x410a
 2885 01f0 00       		.byte	0
 2886 01f1 02       		.uleb128 0x2
 2887 01f2 18       		.uleb128 0x18
 2888 01f3 9142     		.uleb128 0x2111
 2889 01f5 18       		.uleb128 0x18
 2890 01f6 00       		.byte	0
 2891 01f7 00       		.byte	0
 2892 01f8 29       		.uleb128 0x29
 2893 01f9 898201   		.uleb128 0x4109
 2894 01fc 01       		.byte	0x1
 2895 01fd 11       		.uleb128 0x11
 2896 01fe 01       		.uleb128 0x1
 2897 01ff 31       		.uleb128 0x31
 2898 0200 13       		.uleb128 0x13
 2899 0201 00       		.byte	0
 2900 0202 00       		.byte	0
 2901 0203 2A       		.uleb128 0x2a
 2902 0204 1D       		.uleb128 0x1d
 2903 0205 01       		.byte	0x1
 2904 0206 31       		.uleb128 0x31
 2905 0207 13       		.uleb128 0x13
 2906 0208 11       		.uleb128 0x11
 2907 0209 01       		.uleb128 0x1
 2908 020a 12       		.uleb128 0x12
 2909 020b 06       		.uleb128 0x6
 2910 020c 58       		.uleb128 0x58
 2911 020d 0B       		.uleb128 0xb
 2912 020e 59       		.uleb128 0x59
 2913 020f 05       		.uleb128 0x5
 2914 0210 01       		.uleb128 0x1
 2915 0211 13       		.uleb128 0x13
 2916 0212 00       		.byte	0
 2917 0213 00       		.byte	0
 2918 0214 2B       		.uleb128 0x2b
 2919 0215 05       		.uleb128 0x5
 2920 0216 00       		.byte	0
 2921 0217 31       		.uleb128 0x31
 2922 0218 13       		.uleb128 0x13
ARM GAS  C:\Users\Helon\AppData\Local\Temp\cc2OGx1X.s 			page 85


 2923 0219 02       		.uleb128 0x2
 2924 021a 17       		.uleb128 0x17
 2925 021b 00       		.byte	0
 2926 021c 00       		.byte	0
 2927 021d 2C       		.uleb128 0x2c
 2928 021e 0B       		.uleb128 0xb
 2929 021f 01       		.byte	0x1
 2930 0220 11       		.uleb128 0x11
 2931 0221 01       		.uleb128 0x1
 2932 0222 12       		.uleb128 0x12
 2933 0223 06       		.uleb128 0x6
 2934 0224 00       		.byte	0
 2935 0225 00       		.byte	0
 2936 0226 2D       		.uleb128 0x2d
 2937 0227 34       		.uleb128 0x34
 2938 0228 00       		.byte	0
 2939 0229 31       		.uleb128 0x31
 2940 022a 13       		.uleb128 0x13
 2941 022b 02       		.uleb128 0x2
 2942 022c 17       		.uleb128 0x17
 2943 022d 00       		.byte	0
 2944 022e 00       		.byte	0
 2945 022f 2E       		.uleb128 0x2e
 2946 0230 898201   		.uleb128 0x4109
 2947 0233 00       		.byte	0
 2948 0234 11       		.uleb128 0x11
 2949 0235 01       		.uleb128 0x1
 2950 0236 31       		.uleb128 0x31
 2951 0237 13       		.uleb128 0x13
 2952 0238 00       		.byte	0
 2953 0239 00       		.byte	0
 2954 023a 2F       		.uleb128 0x2f
 2955 023b 1D       		.uleb128 0x1d
 2956 023c 00       		.byte	0
 2957 023d 31       		.uleb128 0x31
 2958 023e 13       		.uleb128 0x13
 2959 023f 11       		.uleb128 0x11
 2960 0240 01       		.uleb128 0x1
 2961 0241 12       		.uleb128 0x12
 2962 0242 06       		.uleb128 0x6
 2963 0243 58       		.uleb128 0x58
 2964 0244 0B       		.uleb128 0xb
 2965 0245 59       		.uleb128 0x59
 2966 0246 05       		.uleb128 0x5
 2967 0247 00       		.byte	0
 2968 0248 00       		.byte	0
 2969 0249 30       		.uleb128 0x30
 2970 024a 34       		.uleb128 0x34
 2971 024b 00       		.byte	0
 2972 024c 03       		.uleb128 0x3
 2973 024d 0E       		.uleb128 0xe
 2974 024e 3A       		.uleb128 0x3a
 2975 024f 0B       		.uleb128 0xb
 2976 0250 3B       		.uleb128 0x3b
 2977 0251 05       		.uleb128 0x5
 2978 0252 49       		.uleb128 0x49
 2979 0253 13       		.uleb128 0x13
ARM GAS  C:\Users\Helon\AppData\Local\Temp\cc2OGx1X.s 			page 86


 2980 0254 02       		.uleb128 0x2
 2981 0255 17       		.uleb128 0x17
 2982 0256 00       		.byte	0
 2983 0257 00       		.byte	0
 2984 0258 31       		.uleb128 0x31
 2985 0259 34       		.uleb128 0x34
 2986 025a 00       		.byte	0
 2987 025b 31       		.uleb128 0x31
 2988 025c 13       		.uleb128 0x13
 2989 025d 02       		.uleb128 0x2
 2990 025e 18       		.uleb128 0x18
 2991 025f 00       		.byte	0
 2992 0260 00       		.byte	0
 2993 0261 32       		.uleb128 0x32
 2994 0262 898201   		.uleb128 0x4109
 2995 0265 01       		.byte	0x1
 2996 0266 11       		.uleb128 0x11
 2997 0267 01       		.uleb128 0x1
 2998 0268 01       		.uleb128 0x1
 2999 0269 13       		.uleb128 0x13
 3000 026a 00       		.byte	0
 3001 026b 00       		.byte	0
 3002 026c 33       		.uleb128 0x33
 3003 026d 34       		.uleb128 0x34
 3004 026e 00       		.byte	0
 3005 026f 03       		.uleb128 0x3
 3006 0270 0E       		.uleb128 0xe
 3007 0271 3A       		.uleb128 0x3a
 3008 0272 0B       		.uleb128 0xb
 3009 0273 3B       		.uleb128 0x3b
 3010 0274 05       		.uleb128 0x5
 3011 0275 49       		.uleb128 0x49
 3012 0276 13       		.uleb128 0x13
 3013 0277 3F       		.uleb128 0x3f
 3014 0278 19       		.uleb128 0x19
 3015 0279 3C       		.uleb128 0x3c
 3016 027a 19       		.uleb128 0x19
 3017 027b 00       		.byte	0
 3018 027c 00       		.byte	0
 3019 027d 34       		.uleb128 0x34
 3020 027e 34       		.uleb128 0x34
 3021 027f 00       		.byte	0
 3022 0280 03       		.uleb128 0x3
 3023 0281 0E       		.uleb128 0xe
 3024 0282 3A       		.uleb128 0x3a
 3025 0283 0B       		.uleb128 0xb
 3026 0284 3B       		.uleb128 0x3b
 3027 0285 0B       		.uleb128 0xb
 3028 0286 49       		.uleb128 0x49
 3029 0287 13       		.uleb128 0x13
 3030 0288 3F       		.uleb128 0x3f
 3031 0289 19       		.uleb128 0x19
 3032 028a 02       		.uleb128 0x2
 3033 028b 18       		.uleb128 0x18
 3034 028c 00       		.byte	0
 3035 028d 00       		.byte	0
 3036 028e 35       		.uleb128 0x35
ARM GAS  C:\Users\Helon\AppData\Local\Temp\cc2OGx1X.s 			page 87


 3037 028f 34       		.uleb128 0x34
 3038 0290 00       		.byte	0
 3039 0291 03       		.uleb128 0x3
 3040 0292 0E       		.uleb128 0xe
 3041 0293 3A       		.uleb128 0x3a
 3042 0294 0B       		.uleb128 0xb
 3043 0295 3B       		.uleb128 0x3b
 3044 0296 0B       		.uleb128 0xb
 3045 0297 49       		.uleb128 0x49
 3046 0298 13       		.uleb128 0x13
 3047 0299 3F       		.uleb128 0x3f
 3048 029a 19       		.uleb128 0x19
 3049 029b 3C       		.uleb128 0x3c
 3050 029c 19       		.uleb128 0x19
 3051 029d 00       		.byte	0
 3052 029e 00       		.byte	0
 3053 029f 36       		.uleb128 0x36
 3054 02a0 2E       		.uleb128 0x2e
 3055 02a1 01       		.byte	0x1
 3056 02a2 3F       		.uleb128 0x3f
 3057 02a3 19       		.uleb128 0x19
 3058 02a4 03       		.uleb128 0x3
 3059 02a5 0E       		.uleb128 0xe
 3060 02a6 3A       		.uleb128 0x3a
 3061 02a7 0B       		.uleb128 0xb
 3062 02a8 3B       		.uleb128 0x3b
 3063 02a9 05       		.uleb128 0x5
 3064 02aa 27       		.uleb128 0x27
 3065 02ab 19       		.uleb128 0x19
 3066 02ac 49       		.uleb128 0x49
 3067 02ad 13       		.uleb128 0x13
 3068 02ae 3C       		.uleb128 0x3c
 3069 02af 19       		.uleb128 0x19
 3070 02b0 01       		.uleb128 0x1
 3071 02b1 13       		.uleb128 0x13
 3072 02b2 00       		.byte	0
 3073 02b3 00       		.byte	0
 3074 02b4 37       		.uleb128 0x37
 3075 02b5 2E       		.uleb128 0x2e
 3076 02b6 00       		.byte	0
 3077 02b7 3F       		.uleb128 0x3f
 3078 02b8 19       		.uleb128 0x19
 3079 02b9 03       		.uleb128 0x3
 3080 02ba 0E       		.uleb128 0xe
 3081 02bb 3A       		.uleb128 0x3a
 3082 02bc 0B       		.uleb128 0xb
 3083 02bd 3B       		.uleb128 0x3b
 3084 02be 05       		.uleb128 0x5
 3085 02bf 27       		.uleb128 0x27
 3086 02c0 19       		.uleb128 0x19
 3087 02c1 49       		.uleb128 0x49
 3088 02c2 13       		.uleb128 0x13
 3089 02c3 3C       		.uleb128 0x3c
 3090 02c4 19       		.uleb128 0x19
 3091 02c5 00       		.byte	0
 3092 02c6 00       		.byte	0
 3093 02c7 38       		.uleb128 0x38
ARM GAS  C:\Users\Helon\AppData\Local\Temp\cc2OGx1X.s 			page 88


 3094 02c8 2E       		.uleb128 0x2e
 3095 02c9 01       		.byte	0x1
 3096 02ca 3F       		.uleb128 0x3f
 3097 02cb 19       		.uleb128 0x19
 3098 02cc 03       		.uleb128 0x3
 3099 02cd 0E       		.uleb128 0xe
 3100 02ce 3A       		.uleb128 0x3a
 3101 02cf 0B       		.uleb128 0xb
 3102 02d0 3B       		.uleb128 0x3b
 3103 02d1 0B       		.uleb128 0xb
 3104 02d2 27       		.uleb128 0x27
 3105 02d3 19       		.uleb128 0x19
 3106 02d4 49       		.uleb128 0x49
 3107 02d5 13       		.uleb128 0x13
 3108 02d6 3C       		.uleb128 0x3c
 3109 02d7 19       		.uleb128 0x19
 3110 02d8 01       		.uleb128 0x1
 3111 02d9 13       		.uleb128 0x13
 3112 02da 00       		.byte	0
 3113 02db 00       		.byte	0
 3114 02dc 39       		.uleb128 0x39
 3115 02dd 2E       		.uleb128 0x2e
 3116 02de 00       		.byte	0
 3117 02df 3F       		.uleb128 0x3f
 3118 02e0 19       		.uleb128 0x19
 3119 02e1 03       		.uleb128 0x3
 3120 02e2 0E       		.uleb128 0xe
 3121 02e3 3A       		.uleb128 0x3a
 3122 02e4 0B       		.uleb128 0xb
 3123 02e5 3B       		.uleb128 0x3b
 3124 02e6 0B       		.uleb128 0xb
 3125 02e7 27       		.uleb128 0x27
 3126 02e8 19       		.uleb128 0x19
 3127 02e9 49       		.uleb128 0x49
 3128 02ea 13       		.uleb128 0x13
 3129 02eb 3C       		.uleb128 0x3c
 3130 02ec 19       		.uleb128 0x19
 3131 02ed 00       		.byte	0
 3132 02ee 00       		.byte	0
 3133 02ef 3A       		.uleb128 0x3a
 3134 02f0 2E       		.uleb128 0x2e
 3135 02f1 01       		.byte	0x1
 3136 02f2 3F       		.uleb128 0x3f
 3137 02f3 19       		.uleb128 0x19
 3138 02f4 03       		.uleb128 0x3
 3139 02f5 0E       		.uleb128 0xe
 3140 02f6 3A       		.uleb128 0x3a
 3141 02f7 0B       		.uleb128 0xb
 3142 02f8 3B       		.uleb128 0x3b
 3143 02f9 05       		.uleb128 0x5
 3144 02fa 27       		.uleb128 0x27
 3145 02fb 19       		.uleb128 0x19
 3146 02fc 3C       		.uleb128 0x3c
 3147 02fd 19       		.uleb128 0x19
 3148 02fe 01       		.uleb128 0x1
 3149 02ff 13       		.uleb128 0x13
 3150 0300 00       		.byte	0
ARM GAS  C:\Users\Helon\AppData\Local\Temp\cc2OGx1X.s 			page 89


 3151 0301 00       		.byte	0
 3152 0302 3B       		.uleb128 0x3b
 3153 0303 2E       		.uleb128 0x2e
 3154 0304 01       		.byte	0x1
 3155 0305 3F       		.uleb128 0x3f
 3156 0306 19       		.uleb128 0x19
 3157 0307 03       		.uleb128 0x3
 3158 0308 0E       		.uleb128 0xe
 3159 0309 27       		.uleb128 0x27
 3160 030a 19       		.uleb128 0x19
 3161 030b 49       		.uleb128 0x49
 3162 030c 13       		.uleb128 0x13
 3163 030d 34       		.uleb128 0x34
 3164 030e 19       		.uleb128 0x19
 3165 030f 3C       		.uleb128 0x3c
 3166 0310 19       		.uleb128 0x19
 3167 0311 01       		.uleb128 0x1
 3168 0312 13       		.uleb128 0x13
 3169 0313 00       		.byte	0
 3170 0314 00       		.byte	0
 3171 0315 3C       		.uleb128 0x3c
 3172 0316 26       		.uleb128 0x26
 3173 0317 00       		.byte	0
 3174 0318 00       		.byte	0
 3175 0319 00       		.byte	0
 3176 031a 00       		.byte	0
 3177              		.section	.debug_loc,"",%progbits
 3178              	.Ldebug_loc0:
 3179              	.LLST0:
 3180 0000 00000000 		.4byte	.LVL0
 3181 0004 62000000 		.4byte	.LVL1
 3182 0008 0100     		.2byte	0x1
 3183 000a 50       		.byte	0x50
 3184 000b 62000000 		.4byte	.LVL1
 3185 000f 92000000 		.4byte	.LVL8
 3186 0013 0400     		.2byte	0x4
 3187 0015 F3       		.byte	0xf3
 3188 0016 01       		.uleb128 0x1
 3189 0017 50       		.byte	0x50
 3190 0018 9F       		.byte	0x9f
 3191 0019 92000000 		.4byte	.LVL8
 3192 001d A7000000 		.4byte	.LVL9-1
 3193 0021 0100     		.2byte	0x1
 3194 0023 50       		.byte	0x50
 3195 0024 A7000000 		.4byte	.LVL9-1
 3196 0028 AA000000 		.4byte	.LVL10
 3197 002c 0400     		.2byte	0x4
 3198 002e F3       		.byte	0xf3
 3199 002f 01       		.uleb128 0x1
 3200 0030 50       		.byte	0x50
 3201 0031 9F       		.byte	0x9f
 3202 0032 AA000000 		.4byte	.LVL10
 3203 0036 CC000000 		.4byte	.LVL12
 3204 003a 0100     		.2byte	0x1
 3205 003c 50       		.byte	0x50
 3206 003d CC000000 		.4byte	.LVL12
 3207 0041 DC000000 		.4byte	.LVL15
ARM GAS  C:\Users\Helon\AppData\Local\Temp\cc2OGx1X.s 			page 90


 3208 0045 0400     		.2byte	0x4
 3209 0047 F3       		.byte	0xf3
 3210 0048 01       		.uleb128 0x1
 3211 0049 50       		.byte	0x50
 3212 004a 9F       		.byte	0x9f
 3213 004b DC000000 		.4byte	.LVL15
 3214 004f E7000000 		.4byte	.LVL16-1
 3215 0053 0100     		.2byte	0x1
 3216 0055 50       		.byte	0x50
 3217 0056 E7000000 		.4byte	.LVL16-1
 3218 005a 0E010000 		.4byte	.LVL24
 3219 005e 0400     		.2byte	0x4
 3220 0060 F3       		.byte	0xf3
 3221 0061 01       		.uleb128 0x1
 3222 0062 50       		.byte	0x50
 3223 0063 9F       		.byte	0x9f
 3224 0064 0E010000 		.4byte	.LVL24
 3225 0068 48010000 		.4byte	.LVL26
 3226 006c 0100     		.2byte	0x1
 3227 006e 50       		.byte	0x50
 3228 006f 48010000 		.4byte	.LVL26
 3229 0073 4E010000 		.4byte	.LVL28
 3230 0077 0400     		.2byte	0x4
 3231 0079 F3       		.byte	0xf3
 3232 007a 01       		.uleb128 0x1
 3233 007b 50       		.byte	0x50
 3234 007c 9F       		.byte	0x9f
 3235 007d 4E010000 		.4byte	.LVL28
 3236 0081 98010000 		.4byte	.LVL30
 3237 0085 0100     		.2byte	0x1
 3238 0087 50       		.byte	0x50
 3239 0088 98010000 		.4byte	.LVL30
 3240 008c A8010000 		.4byte	.LVL32
 3241 0090 0400     		.2byte	0x4
 3242 0092 F3       		.byte	0xf3
 3243 0093 01       		.uleb128 0x1
 3244 0094 50       		.byte	0x50
 3245 0095 9F       		.byte	0x9f
 3246 0096 A8010000 		.4byte	.LVL32
 3247 009a AE010000 		.4byte	.LVL33
 3248 009e 0100     		.2byte	0x1
 3249 00a0 50       		.byte	0x50
 3250 00a1 AE010000 		.4byte	.LVL33
 3251 00a5 C8010000 		.4byte	.LVL36
 3252 00a9 0400     		.2byte	0x4
 3253 00ab F3       		.byte	0xf3
 3254 00ac 01       		.uleb128 0x1
 3255 00ad 50       		.byte	0x50
 3256 00ae 9F       		.byte	0x9f
 3257 00af C8010000 		.4byte	.LVL36
 3258 00b3 DE010000 		.4byte	.LVL39
 3259 00b7 0100     		.2byte	0x1
 3260 00b9 50       		.byte	0x50
 3261 00ba DE010000 		.4byte	.LVL39
 3262 00be E4010000 		.4byte	.LVL41
 3263 00c2 0400     		.2byte	0x4
 3264 00c4 F3       		.byte	0xf3
ARM GAS  C:\Users\Helon\AppData\Local\Temp\cc2OGx1X.s 			page 91


 3265 00c5 01       		.uleb128 0x1
 3266 00c6 50       		.byte	0x50
 3267 00c7 9F       		.byte	0x9f
 3268 00c8 E4010000 		.4byte	.LVL41
 3269 00cc E6010000 		.4byte	.LVL42
 3270 00d0 0100     		.2byte	0x1
 3271 00d2 50       		.byte	0x50
 3272 00d3 E6010000 		.4byte	.LVL42
 3273 00d7 98020000 		.4byte	.LFE10
 3274 00db 0400     		.2byte	0x4
 3275 00dd F3       		.byte	0xf3
 3276 00de 01       		.uleb128 0x1
 3277 00df 50       		.byte	0x50
 3278 00e0 9F       		.byte	0x9f
 3279 00e1 00000000 		.4byte	0
 3280 00e5 00000000 		.4byte	0
 3281              	.LLST1:
 3282 00e9 00000000 		.4byte	.LVL0
 3283 00ed 67000000 		.4byte	.LVL2-1
 3284 00f1 0100     		.2byte	0x1
 3285 00f3 51       		.byte	0x51
 3286 00f4 67000000 		.4byte	.LVL2-1
 3287 00f8 92000000 		.4byte	.LVL8
 3288 00fc 0100     		.2byte	0x1
 3289 00fe 56       		.byte	0x56
 3290 00ff 92000000 		.4byte	.LVL8
 3291 0103 A7000000 		.4byte	.LVL9-1
 3292 0107 0100     		.2byte	0x1
 3293 0109 51       		.byte	0x51
 3294 010a A7000000 		.4byte	.LVL9-1
 3295 010e AA000000 		.4byte	.LVL10
 3296 0112 0100     		.2byte	0x1
 3297 0114 56       		.byte	0x56
 3298 0115 AA000000 		.4byte	.LVL10
 3299 0119 CA000000 		.4byte	.LVL11
 3300 011d 0100     		.2byte	0x1
 3301 011f 51       		.byte	0x51
 3302 0120 CA000000 		.4byte	.LVL11
 3303 0124 DC000000 		.4byte	.LVL15
 3304 0128 0100     		.2byte	0x1
 3305 012a 56       		.byte	0x56
 3306 012b DC000000 		.4byte	.LVL15
 3307 012f E7000000 		.4byte	.LVL16-1
 3308 0133 0100     		.2byte	0x1
 3309 0135 51       		.byte	0x51
 3310 0136 E7000000 		.4byte	.LVL16-1
 3311 013a 0E010000 		.4byte	.LVL24
 3312 013e 0100     		.2byte	0x1
 3313 0140 56       		.byte	0x56
 3314 0141 0E010000 		.4byte	.LVL24
 3315 0145 22010000 		.4byte	.LVL25
 3316 0149 0100     		.2byte	0x1
 3317 014b 51       		.byte	0x51
 3318 014c 22010000 		.4byte	.LVL25
 3319 0150 4E010000 		.4byte	.LVL28
 3320 0154 0100     		.2byte	0x1
 3321 0156 56       		.byte	0x56
ARM GAS  C:\Users\Helon\AppData\Local\Temp\cc2OGx1X.s 			page 92


 3322 0157 4E010000 		.4byte	.LVL28
 3323 015b 62010000 		.4byte	.LVL29
 3324 015f 0100     		.2byte	0x1
 3325 0161 51       		.byte	0x51
 3326 0162 62010000 		.4byte	.LVL29
 3327 0166 A8010000 		.4byte	.LVL32
 3328 016a 0100     		.2byte	0x1
 3329 016c 56       		.byte	0x56
 3330 016d A8010000 		.4byte	.LVL32
 3331 0171 B1010000 		.4byte	.LVL34-1
 3332 0175 0100     		.2byte	0x1
 3333 0177 51       		.byte	0x51
 3334 0178 B1010000 		.4byte	.LVL34-1
 3335 017c C8010000 		.4byte	.LVL36
 3336 0180 0100     		.2byte	0x1
 3337 0182 56       		.byte	0x56
 3338 0183 C8010000 		.4byte	.LVL36
 3339 0187 D2010000 		.4byte	.LVL37
 3340 018b 0100     		.2byte	0x1
 3341 018d 51       		.byte	0x51
 3342 018e D2010000 		.4byte	.LVL37
 3343 0192 E4010000 		.4byte	.LVL41
 3344 0196 0100     		.2byte	0x1
 3345 0198 56       		.byte	0x56
 3346 0199 E4010000 		.4byte	.LVL41
 3347 019d E9010000 		.4byte	.LVL43-1
 3348 01a1 0100     		.2byte	0x1
 3349 01a3 51       		.byte	0x51
 3350 01a4 E9010000 		.4byte	.LVL43-1
 3351 01a8 52020000 		.4byte	.LVL55
 3352 01ac 0100     		.2byte	0x1
 3353 01ae 56       		.byte	0x56
 3354 01af 52020000 		.4byte	.LVL55
 3355 01b3 98020000 		.4byte	.LFE10
 3356 01b7 0400     		.2byte	0x4
 3357 01b9 F3       		.byte	0xf3
 3358 01ba 01       		.uleb128 0x1
 3359 01bb 51       		.byte	0x51
 3360 01bc 9F       		.byte	0x9f
 3361 01bd 00000000 		.4byte	0
 3362 01c1 00000000 		.4byte	0
 3363              	.LLST2:
 3364 01c5 78000000 		.4byte	.LVL4
 3365 01c9 92000000 		.4byte	.LVL8
 3366 01cd 0100     		.2byte	0x1
 3367 01cf 50       		.byte	0x50
 3368 01d0 F0000000 		.4byte	.LVL18
 3369 01d4 F3000000 		.4byte	.LVL19-1
 3370 01d8 0100     		.2byte	0x1
 3371 01da 50       		.byte	0x50
 3372 01db 2A020000 		.4byte	.LVL50
 3373 01df 32020000 		.4byte	.LVL51
 3374 01e3 0100     		.2byte	0x1
 3375 01e5 50       		.byte	0x50
 3376 01e6 00000000 		.4byte	0
 3377 01ea 00000000 		.4byte	0
 3378              	.LLST3:
ARM GAS  C:\Users\Helon\AppData\Local\Temp\cc2OGx1X.s 			page 93


 3379 01ee 84000000 		.4byte	.LVL5
 3380 01f2 8A000000 		.4byte	.LVL6
 3381 01f6 0600     		.2byte	0x6
 3382 01f8 73       		.byte	0x73
 3383 01f9 00       		.sleb128 0
 3384 01fa 70       		.byte	0x70
 3385 01fb 00       		.sleb128 0
 3386 01fc 1C       		.byte	0x1c
 3387 01fd 9F       		.byte	0x9f
 3388 01fe 8A000000 		.4byte	.LVL6
 3389 0202 8C000000 		.4byte	.LVL7
 3390 0206 0800     		.2byte	0x8
 3391 0208 73       		.byte	0x73
 3392 0209 00       		.sleb128 0
 3393 020a 70       		.byte	0x70
 3394 020b 00       		.sleb128 0
 3395 020c 1C       		.byte	0x1c
 3396 020d 23       		.byte	0x23
 3397 020e 01       		.uleb128 0x1
 3398 020f 9F       		.byte	0x9f
 3399 0210 F0000000 		.4byte	.LVL18
 3400 0214 F3000000 		.4byte	.LVL19-1
 3401 0218 0600     		.2byte	0x6
 3402 021a 73       		.byte	0x73
 3403 021b 00       		.sleb128 0
 3404 021c 70       		.byte	0x70
 3405 021d 00       		.sleb128 0
 3406 021e 1C       		.byte	0x1c
 3407 021f 9F       		.byte	0x9f
 3408 0220 00000000 		.4byte	0
 3409 0224 00000000 		.4byte	0
 3410              	.LLST4:
 3411 0228 78000000 		.4byte	.LVL4
 3412 022c 92000000 		.4byte	.LVL8
 3413 0230 0200     		.2byte	0x2
 3414 0232 30       		.byte	0x30
 3415 0233 9F       		.byte	0x9f
 3416 0234 F0000000 		.4byte	.LVL18
 3417 0238 FE000000 		.4byte	.LVL21
 3418 023c 0200     		.2byte	0x2
 3419 023e 31       		.byte	0x31
 3420 023f 9F       		.byte	0x9f
 3421 0240 2A020000 		.4byte	.LVL50
 3422 0244 50020000 		.4byte	.LVL54
 3423 0248 0200     		.2byte	0x2
 3424 024a 30       		.byte	0x30
 3425 024b 9F       		.byte	0x9f
 3426 024c 00000000 		.4byte	0
 3427 0250 00000000 		.4byte	0
 3428              	.LLST5:
 3429 0254 92000000 		.4byte	.LVL8
 3430 0258 A7000000 		.4byte	.LVL9-1
 3431 025c 0100     		.2byte	0x1
 3432 025e 51       		.byte	0x51
 3433 025f A7000000 		.4byte	.LVL9-1
 3434 0263 AA000000 		.4byte	.LVL10
 3435 0267 0100     		.2byte	0x1
ARM GAS  C:\Users\Helon\AppData\Local\Temp\cc2OGx1X.s 			page 94


 3436 0269 56       		.byte	0x56
 3437 026a 00000000 		.4byte	0
 3438 026e 00000000 		.4byte	0
 3439              	.LLST6:
 3440 0272 DC010000 		.4byte	.LVL38
 3441 0276 E1010000 		.4byte	.LVL40-1
 3442 027a 0100     		.2byte	0x1
 3443 027c 51       		.byte	0x51
 3444 027d 00000000 		.4byte	0
 3445 0281 00000000 		.4byte	0
 3446              	.LLST7:
 3447 0285 E4010000 		.4byte	.LVL41
 3448 0289 E9010000 		.4byte	.LVL43-1
 3449 028d 0100     		.2byte	0x1
 3450 028f 51       		.byte	0x51
 3451 0290 E9010000 		.4byte	.LVL43-1
 3452 0294 0E020000 		.4byte	.LVL48
 3453 0298 0100     		.2byte	0x1
 3454 029a 56       		.byte	0x56
 3455 029b 00000000 		.4byte	0
 3456 029f 00000000 		.4byte	0
 3457              	.LLST8:
 3458 02a3 EA010000 		.4byte	.LVL43
 3459 02a7 00020000 		.4byte	.LVL44
 3460 02ab 0100     		.2byte	0x1
 3461 02ad 50       		.byte	0x50
 3462 02ae 00020000 		.4byte	.LVL44
 3463 02b2 05020000 		.4byte	.LVL45-1
 3464 02b6 0200     		.2byte	0x2
 3465 02b8 71       		.byte	0x71
 3466 02b9 03       		.sleb128 3
 3467 02ba 08020000 		.4byte	.LVL46
 3468 02be 0A020000 		.4byte	.LVL47
 3469 02c2 0100     		.2byte	0x1
 3470 02c4 50       		.byte	0x50
 3471 02c5 00000000 		.4byte	0
 3472 02c9 00000000 		.4byte	0
 3473              		.section	.debug_aranges,"",%progbits
 3474 0000 1C000000 		.4byte	0x1c
 3475 0004 0200     		.2byte	0x2
 3476 0006 00000000 		.4byte	.Ldebug_info0
 3477 000a 04       		.byte	0x4
 3478 000b 00       		.byte	0
 3479 000c 0000     		.2byte	0
 3480 000e 0000     		.2byte	0
 3481 0010 00000000 		.4byte	.LFB10
 3482 0014 98020000 		.4byte	.LFE10-.LFB10
 3483 0018 00000000 		.4byte	0
 3484 001c 00000000 		.4byte	0
 3485              		.section	.debug_ranges,"",%progbits
 3486              	.Ldebug_ranges0:
 3487 0000 00000000 		.4byte	.LFB10
 3488 0004 98020000 		.4byte	.LFE10
 3489 0008 00000000 		.4byte	0
 3490 000c 00000000 		.4byte	0
 3491              		.section	.debug_line,"",%progbits
 3492              	.Ldebug_line0:
ARM GAS  C:\Users\Helon\AppData\Local\Temp\cc2OGx1X.s 			page 95


 3493 0000 91010000 		.section	.debug_str,"MS",%progbits,1
 3493      0200E000 
 3493      00000201 
 3493      FB0E0D00 
 3493      01010101 
 3494              	.LASF217:
 3495 0000 4359424C 		.ascii	"CYBLE_GATT_ERR_INVALID_CRC\000"
 3495      455F4741 
 3495      54545F45 
 3495      52525F49 
 3495      4E56414C 
 3496              	.LASF15:
 3497 001b 73697A65 		.ascii	"sizetype\000"
 3497      74797065 
 3497      00
 3498              	.LASF153:
 3499 0024 656B6579 		.ascii	"ekeySize\000"
 3499      53697A65 
 3499      00
 3500              	.LASF187:
 3501 002d 4359424C 		.ascii	"CYBLE_GATT_HANDLE_VALUE_CNF\000"
 3501      455F4741 
 3501      54545F48 
 3501      414E444C 
 3501      455F5641 
 3502              	.LASF295:
 3503 0049 4379426C 		.ascii	"CyBle_SetDeviceAddress\000"
 3503      655F5365 
 3503      74446576 
 3503      69636541 
 3503      64647265 
 3504              	.LASF296:
 3505 0060 4379426C 		.ascii	"CyBle_GapSetIoCap\000"
 3505      655F4761 
 3505      70536574 
 3505      496F4361 
 3505      7000
 3506              	.LASF267:
 3507 0072 4379426C 		.ascii	"CyBle_WriteReqHandler\000"
 3507      655F5772 
 3507      69746552 
 3507      65714861 
 3507      6E646C65 
 3508              	.LASF259:
 3509 0088 6576656E 		.ascii	"eventParam\000"
 3509      74506172 
 3509      616D00
 3510              	.LASF29:
 3511 0093 4359424C 		.ascii	"CYBLE_EVT_GAP_DEVICE_CONNECTED\000"
 3511      455F4556 
 3511      545F4741 
 3511      505F4445 
 3511      56494345 
 3512              	.LASF134:
 3513 00b2 4359424C 		.ascii	"CYBLE_GAP_IOCAP_NOINPUT_NOOUTPUT\000"
 3513      455F4741 
 3513      505F494F 
ARM GAS  C:\Users\Helon\AppData\Local\Temp\cc2OGx1X.s 			page 96


 3513      4341505F 
 3513      4E4F494E 
 3514              	.LASF36:
 3515 00d3 4359424C 		.ascii	"CYBLE_EVT_GATT_CONNECT_IND\000"
 3515      455F4556 
 3515      545F4741 
 3515      54545F43 
 3515      4F4E4E45 
 3516              	.LASF180:
 3517 00ee 4359424C 		.ascii	"CYBLE_GATT_WRITE_CMD\000"
 3517      455F4741 
 3517      54545F57 
 3517      52495445 
 3517      5F434D44 
 3518              	.LASF11:
 3519 0103 75696E74 		.ascii	"uint32\000"
 3519      333200
 3520              	.LASF136:
 3521 010a 4359424C 		.ascii	"CYBLE_GAP_IOCAP_T\000"
 3521      455F4741 
 3521      505F494F 
 3521      4341505F 
 3521      5400
 3522              	.LASF116:
 3523 011c 626C6550 		.ascii	"blePwrLevelInDbm\000"
 3523      77724C65 
 3523      76656C49 
 3523      6E44626D 
 3523      00
 3524              	.LASF192:
 3525 012d 4359424C 		.ascii	"CYBLE_GATT_ERR_READ_NOT_PERMITTED\000"
 3525      455F4741 
 3525      54545F45 
 3525      52525F52 
 3525      4541445F 
 3526              	.LASF207:
 3527 014f 4359424C 		.ascii	"CYBLE_GATT_ERR_INSUFFICIENT_RESOURCE\000"
 3527      455F4741 
 3527      54545F45 
 3527      52525F49 
 3527      4E535546 
 3528              	.LASF181:
 3529 0174 4359424C 		.ascii	"CYBLE_GATT_PREPARE_WRITE_REQ\000"
 3529      455F4741 
 3529      54545F50 
 3529      52455041 
 3529      52455F57 
 3530              	.LASF206:
 3531 0191 4359424C 		.ascii	"CYBLE_GATT_ERR_UNSUPPORTED_GROUP_TYPE\000"
 3531      455F4741 
 3531      54545F45 
 3531      52525F55 
 3531      4E535550 
 3532              	.LASF89:
 3533 01b7 4359424C 		.ascii	"CYBLE_ERROR_L2CAP_CONNECTION_ENTITY_NOT_FOUND\000"
 3533      455F4552 
 3533      524F525F 
ARM GAS  C:\Users\Helon\AppData\Local\Temp\cc2OGx1X.s 			page 97


 3533      4C324341 
 3533      505F434F 
 3534              	.LASF95:
 3535 01e5 4359424C 		.ascii	"CYBLE_ERROR_MIC_AUTH_FAILED\000"
 3535      455F4552 
 3535      524F525F 
 3535      4D49435F 
 3535      41555448 
 3536              	.LASF56:
 3537 0201 4359424C 		.ascii	"CYBLE_EVT_GATTS_DATA_SIGNED_CMD_REQ\000"
 3537      455F4556 
 3537      545F4741 
 3537      5454535F 
 3537      44415441 
 3538              	.LASF67:
 3539 0225 4359424C 		.ascii	"CYBLE_EVT_L2CAP_CBFC_RX_CREDIT_IND\000"
 3539      455F4556 
 3539      545F4C32 
 3539      4341505F 
 3539      43424643 
 3540              	.LASF232:
 3541 0248 4359424C 		.ascii	"CYBLE_GATT_VALUE_T\000"
 3541      455F4741 
 3541      54545F56 
 3541      414C5545 
 3541      5F5400
 3542              	.LASF175:
 3543 025b 4359424C 		.ascii	"CYBLE_GATT_READ_MULTIPLE_RSP\000"
 3543      455F4741 
 3543      54545F52 
 3543      4541445F 
 3543      4D554C54 
 3544              	.LASF120:
 3545 0278 74797065 		.ascii	"type\000"
 3545      00
 3546              	.LASF126:
 3547 027d 4359424C 		.ascii	"CYBLE_TO_REASON_CODE_T\000"
 3547      455F544F 
 3547      5F524541 
 3547      534F4E5F 
 3547      434F4445 
 3548              	.LASF148:
 3549 0294 4359424C 		.ascii	"CYBLE_GAP_AUTH_ERROR_AUTHENTICATION_TIMEOUT\000"
 3549      455F4741 
 3549      505F4155 
 3549      54485F45 
 3549      52524F52 
 3550              	.LASF145:
 3551 02c0 4359424C 		.ascii	"CYBLE_GAP_AUTH_ERROR_UNSPECIFIED_REASON\000"
 3551      455F4741 
 3551      505F4155 
 3551      54485F45 
 3551      52524F52 
 3552              	.LASF169:
 3553 02e8 4359424C 		.ascii	"CYBLE_GATT_READ_BY_TYPE_RSP\000"
 3553      455F4741 
 3553      54545F52 
ARM GAS  C:\Users\Helon\AppData\Local\Temp\cc2OGx1X.s 			page 98


 3553      4541445F 
 3553      42595F54 
 3554              	.LASF243:
 3555 0304 4359424C 		.ascii	"CYBLE_CALLBACK_T\000"
 3555      455F4341 
 3555      4C4C4241 
 3555      434B5F54 
 3555      00
 3556              	.LASF285:
 3557 0315 6379426C 		.ascii	"cyBle_scanningIntervalType\000"
 3557      655F7363 
 3557      616E6E69 
 3557      6E67496E 
 3557      74657276 
 3558              	.LASF53:
 3559 0330 4359424C 		.ascii	"CYBLE_EVT_GATTC_HANDLE_VALUE_NTF\000"
 3559      455F4556 
 3559      545F4741 
 3559      5454435F 
 3559      48414E44 
 3560              	.LASF23:
 3561 0351 4359424C 		.ascii	"CYBLE_EVT_GAP_AUTH_REQ\000"
 3561      455F4556 
 3561      545F4741 
 3561      505F4155 
 3561      54485F52 
 3562              	.LASF230:
 3563 0368 4359424C 		.ascii	"CYBLE_CONN_HANDLE_T\000"
 3563      455F434F 
 3563      4E4E5F48 
 3563      414E444C 
 3563      455F5400 
 3564              	.LASF84:
 3565 037c 4359424C 		.ascii	"CYBLE_ERROR_BT_ON_NOT_COMPLETED\000"
 3565      455F4552 
 3565      524F525F 
 3565      42545F4F 
 3565      4E5F4E4F 
 3566              	.LASF131:
 3567 039c 4359424C 		.ascii	"CYBLE_GAP_IOCAP_DISPLAY_ONLY\000"
 3567      455F4741 
 3567      505F494F 
 3567      4341505F 
 3567      44495350 
 3568              	.LASF105:
 3569 03b9 4359424C 		.ascii	"CYBLE_LL_PWR_LVL_NEG_3_DBM\000"
 3569      455F4C4C 
 3569      5F505752 
 3569      5F4C564C 
 3569      5F4E4547 
 3570              	.LASF252:
 3571 03d4 4359424C 		.ascii	"CYBLE_STATE_ADVERTISING\000"
 3571      455F5354 
 3571      4154455F 
 3571      41445645 
 3571      52544953 
 3572              	.LASF290:
ARM GAS  C:\Users\Helon\AppData\Local\Temp\cc2OGx1X.s 			page 99


 3573 03ec 4379426C 		.ascii	"CyBle_GattsWriteRsp\000"
 3573      655F4761 
 3573      74747357 
 3573      72697465 
 3573      52737000 
 3574              	.LASF228:
 3575 0400 62644861 		.ascii	"bdHandle\000"
 3575      6E646C65 
 3575      00
 3576              	.LASF138:
 3577 0409 4359424C 		.ascii	"CYBLE_GAP_AUTH_ERROR_PASSKEY_ENTRY_FAILED\000"
 3577      455F4741 
 3577      505F4155 
 3577      54485F45 
 3577      52524F52 
 3578              	.LASF220:
 3579 0433 4359424C 		.ascii	"CYBLE_GATT_ERR_ANCS_INVALID_COMMAND\000"
 3579      455F4741 
 3579      54545F45 
 3579      52525F41 
 3579      4E43535F 
 3580              	.LASF286:
 3581 0457 4379426C 		.ascii	"CyBle_SetTxPowerLevel\000"
 3581      655F5365 
 3581      74547850 
 3581      6F776572 
 3581      4C657665 
 3582              	.LASF103:
 3583 046d 4359424C 		.ascii	"CYBLE_LL_PWR_LVL_NEG_12_DBM\000"
 3583      455F4C4C 
 3583      5F505752 
 3583      5F4C564C 
 3583      5F4E4547 
 3584              	.LASF163:
 3585 0489 4359424C 		.ascii	"CYBLE_GATT_XCHNG_MTU_RSP\000"
 3585      455F4741 
 3585      54545F58 
 3585      43484E47 
 3585      5F4D5455 
 3586              	.LASF49:
 3587 04a2 4359424C 		.ascii	"CYBLE_EVT_GATTS_WRITE_CMD_REQ\000"
 3587      455F4556 
 3587      545F4741 
 3587      5454535F 
 3587      57524954 
 3588              	.LASF4:
 3589 04c0 6C6F6E67 		.ascii	"long int\000"
 3589      20696E74 
 3589      00
 3590              	.LASF303:
 3591 04c9 473A5C43 		.ascii	"G:\\Company\\Jetronic\\CYPRESS\\CYPRESS_BLE_Study\\"
 3591      6F6D7061 
 3591      6E795C4A 
 3591      6574726F 
 3591      6E69635C 
 3592 04f7 54726F75 		.ascii	"Troughput\\Troughpur_Central_Peripheral_V2.7\\Troug"
 3592      67687075 
ARM GAS  C:\Users\Helon\AppData\Local\Temp\cc2OGx1X.s 			page 100


 3592      745C5472 
 3592      6F756768 
 3592      7075725F 
 3593 0528 68707574 		.ascii	"hput_Central_Peripheral.cydsn\000"
 3593      5F43656E 
 3593      7472616C 
 3593      5F506572 
 3593      69706865 
 3594              	.LASF128:
 3595 0546 4359424C 		.ascii	"CYBLE_GAP_SEC_LEVEL_2\000"
 3595      455F4741 
 3595      505F5345 
 3595      435F4C45 
 3595      56454C5F 
 3596              	.LASF129:
 3597 055c 4359424C 		.ascii	"CYBLE_GAP_SEC_LEVEL_3\000"
 3597      455F4741 
 3597      505F5345 
 3597      435F4C45 
 3597      56454C5F 
 3598              	.LASF167:
 3599 0572 4359424C 		.ascii	"CYBLE_GATT_FIND_BY_TYPE_VALUE_RSP\000"
 3599      455F4741 
 3599      54545F46 
 3599      494E445F 
 3599      42595F54 
 3600              	.LASF17:
 3601 0594 4359424C 		.ascii	"CYBLE_EVT_STACK_ON\000"
 3601      455F4556 
 3601      545F5354 
 3601      41434B5F 
 3601      4F4E00
 3602              	.LASF91:
 3603 05a7 4359424C 		.ascii	"CYBLE_ERROR_L2CAP_PSM_NOT_IN_RANGE\000"
 3603      455F4552 
 3603      524F525F 
 3603      4C324341 
 3603      505F5053 
 3604              	.LASF275:
 3605 05ca 6379426C 		.ascii	"cyBle_deviceAddress\000"
 3605      655F6465 
 3605      76696365 
 3605      41646472 
 3605      65737300 
 3606              	.LASF194:
 3607 05de 4359424C 		.ascii	"CYBLE_GATT_ERR_INVALID_PDU\000"
 3607      455F4741 
 3607      54545F45 
 3607      52525F49 
 3607      4E56414C 
 3608              	.LASF302:
 3609 05f9 2E5C4765 		.ascii	".\\Generated_Source\\PSoC4\\BLE_eventHandler.c\000"
 3609      6E657261 
 3609      7465645F 
 3609      536F7572 
 3609      63655C50 
 3610              	.LASF99:
ARM GAS  C:\Users\Helon\AppData\Local\Temp\cc2OGx1X.s 			page 101


 3611 0625 4359424C 		.ascii	"CYBLE_ERROR_CHAR_IS_NOT_DISCOVERED\000"
 3611      455F4552 
 3611      524F525F 
 3611      43484152 
 3611      5F49535F 
 3612              	.LASF235:
 3613 0648 4359424C 		.ascii	"CYBLE_GATT_HANDLE_VALUE_PAIR_T\000"
 3613      455F4741 
 3613      54545F48 
 3613      414E444C 
 3613      455F5641 
 3614              	.LASF117:
 3615 0667 626C6553 		.ascii	"bleSsChId\000"
 3615      73436849 
 3615      6400
 3616              	.LASF61:
 3617 0671 4359424C 		.ascii	"CYBLE_EVT_L2CAP_COMMAND_REJ\000"
 3617      455F4556 
 3617      545F4C32 
 3617      4341505F 
 3617      434F4D4D 
 3618              	.LASF173:
 3619 068d 4359424C 		.ascii	"CYBLE_GATT_READ_BLOB_RSP\000"
 3619      455F4741 
 3619      54545F52 
 3619      4541445F 
 3619      424C4F42 
 3620              	.LASF203:
 3621 06a6 4359424C 		.ascii	"CYBLE_GATT_ERR_INVALID_ATTRIBUTE_LEN\000"
 3621      455F4741 
 3621      54545F45 
 3621      52525F49 
 3621      4E56414C 
 3622              	.LASF92:
 3623 06cb 4359424C 		.ascii	"CYBLE_ERROR_GATT_DB_INVALID_ATTR_HANDLE\000"
 3623      455F4552 
 3623      524F525F 
 3623      47415454 
 3623      5F44425F 
 3624              	.LASF0:
 3625 06f3 7369676E 		.ascii	"signed char\000"
 3625      65642063 
 3625      68617200 
 3626              	.LASF102:
 3627 06ff 4359424C 		.ascii	"CYBLE_LL_PWR_LVL_NEG_18_DBM\000"
 3627      455F4C4C 
 3627      5F505752 
 3627      5F4C564C 
 3627      5F4E4547 
 3628              	.LASF164:
 3629 071b 4359424C 		.ascii	"CYBLE_GATT_FIND_INFO_REQ\000"
 3629      455F4741 
 3629      54545F46 
 3629      494E445F 
 3629      494E464F 
 3630              	.LASF19:
 3631 0734 4359424C 		.ascii	"CYBLE_EVT_HARDWARE_ERROR\000"
ARM GAS  C:\Users\Helon\AppData\Local\Temp\cc2OGx1X.s 			page 102


 3631      455F4556 
 3631      545F4841 
 3631      52445741 
 3631      52455F45 
 3632              	.LASF305:
 3633 074d 4379426C 		.ascii	"CyBle_EventHandler\000"
 3633      655F4576 
 3633      656E7448 
 3633      616E646C 
 3633      657200
 3634              	.LASF73:
 3635 0760 4359424C 		.ascii	"CYBLE_ERROR_OK\000"
 3635      455F4552 
 3635      524F525F 
 3635      4F4B00
 3636              	.LASF115:
 3637 076f 4359424C 		.ascii	"CYBLE_BLESS_PHY_CH_GRP_ID_T\000"
 3637      455F424C 
 3637      4553535F 
 3637      5048595F 
 3637      43485F47 
 3638              	.LASF223:
 3639 078b 4359424C 		.ascii	"CYBLE_GATT_ERR_CCCD_IMPROPERLY_CONFIGURED\000"
 3639      455F4741 
 3639      54545F45 
 3639      52525F43 
 3639      4343445F 
 3640              	.LASF40:
 3641 07b5 4359424C 		.ascii	"CYBLE_EVT_GATTC_READ_BY_GROUP_TYPE_RSP\000"
 3641      455F4556 
 3641      545F4741 
 3641      5454435F 
 3641      52454144 
 3642              	.LASF249:
 3643 07dc 4359424C 		.ascii	"CYBLE_STATE_STOPPED\000"
 3643      455F5354 
 3643      4154455F 
 3643      53544F50 
 3643      50454400 
 3644              	.LASF240:
 3645 07f0 4359424C 		.ascii	"CYBLE_GATTS_ERR_PARAM_T\000"
 3645      455F4741 
 3645      5454535F 
 3645      4552525F 
 3645      50415241 
 3646              	.LASF1:
 3647 0808 756E7369 		.ascii	"unsigned char\000"
 3647      676E6564 
 3647      20636861 
 3647      7200
 3648              	.LASF39:
 3649 0816 4359424C 		.ascii	"CYBLE_EVT_GATTC_XCHNG_MTU_RSP\000"
 3649      455F4556 
 3649      545F4741 
 3649      5454435F 
 3649      5843484E 
 3650              	.LASF186:
ARM GAS  C:\Users\Helon\AppData\Local\Temp\cc2OGx1X.s 			page 103


 3651 0834 4359424C 		.ascii	"CYBLE_GATT_HANDLE_VALUE_IND\000"
 3651      455F4741 
 3651      54545F48 
 3651      414E444C 
 3651      455F5641 
 3652              	.LASF68:
 3653 0850 4359424C 		.ascii	"CYBLE_EVT_L2CAP_CBFC_TX_CREDIT_IND\000"
 3653      455F4556 
 3653      545F4C32 
 3653      4341505F 
 3653      43424643 
 3654              	.LASF297:
 3655 0873 4379426C 		.ascii	"CyBle_GappStartAdvertisement\000"
 3655      655F4761 
 3655      70705374 
 3655      61727441 
 3655      64766572 
 3656              	.LASF239:
 3657 0890 6572726F 		.ascii	"errorCode\000"
 3657      72436F64 
 3657      6500
 3658              	.LASF147:
 3659 089a 4359424C 		.ascii	"CYBLE_GAP_AUTH_ERROR_INVALID_PARAMETERS\000"
 3659      455F4741 
 3659      505F4155 
 3659      54485F45 
 3659      52524F52 
 3660              	.LASF65:
 3661 08c2 4359424C 		.ascii	"CYBLE_EVT_L2CAP_CBFC_DISCONN_CNF\000"
 3661      455F4556 
 3661      545F4C32 
 3661      4341505F 
 3661      43424643 
 3662              	.LASF43:
 3663 08e3 4359424C 		.ascii	"CYBLE_EVT_GATTC_FIND_BY_TYPE_VALUE_RSP\000"
 3663      455F4556 
 3663      545F4741 
 3663      5454435F 
 3663      46494E44 
 3664              	.LASF14:
 3665 090a 63686172 		.ascii	"char\000"
 3665      00
 3666              	.LASF106:
 3667 090f 4359424C 		.ascii	"CYBLE_LL_PWR_LVL_NEG_2_DBM\000"
 3667      455F4C4C 
 3667      5F505752 
 3667      5F4C564C 
 3667      5F4E4547 
 3668              	.LASF179:
 3669 092a 4359424C 		.ascii	"CYBLE_GATT_WRITE_RSP\000"
 3669      455F4741 
 3669      54545F57 
 3669      52495445 
 3669      5F525350 
 3670              	.LASF46:
 3671 093f 4359424C 		.ascii	"CYBLE_EVT_GATTC_READ_MULTI_RSP\000"
 3671      455F4556 
ARM GAS  C:\Users\Helon\AppData\Local\Temp\cc2OGx1X.s 			page 104


 3671      545F4741 
 3671      5454435F 
 3671      52454144 
 3672              	.LASF155:
 3673 095e 4359424C 		.ascii	"CYBLE_GAP_AUTH_INFO_T\000"
 3673      455F4741 
 3673      505F4155 
 3673      54485F49 
 3673      4E464F5F 
 3674              	.LASF133:
 3675 0974 4359424C 		.ascii	"CYBLE_GAP_IOCAP_KEYBOARD_ONLY\000"
 3675      455F4741 
 3675      505F494F 
 3675      4341505F 
 3675      4B455942 
 3676              	.LASF254:
 3677 0992 4359424C 		.ascii	"CYBLE_STATE_CONNECTING\000"
 3677      455F5354 
 3677      4154455F 
 3677      434F4E4E 
 3677      45435449 
 3678              	.LASF16:
 3679 09a9 4359424C 		.ascii	"CYBLE_EVT_HOST_INVALID\000"
 3679      455F4556 
 3679      545F484F 
 3679      53545F49 
 3679      4E56414C 
 3680              	.LASF214:
 3681 09c0 4359424C 		.ascii	"CYBLE_GATT_ERR_MISSING_CRC\000"
 3681      455F4741 
 3681      54545F45 
 3681      52525F4D 
 3681      49535349 
 3682              	.LASF204:
 3683 09db 4359424C 		.ascii	"CYBLE_GATT_ERR_UNLIKELY_ERROR\000"
 3683      455F4741 
 3683      54545F45 
 3683      52525F55 
 3683      4E4C494B 
 3684              	.LASF162:
 3685 09f9 4359424C 		.ascii	"CYBLE_GATT_XCNHG_MTU_REQ\000"
 3685      455F4741 
 3685      54545F58 
 3685      434E4847 
 3685      5F4D5455 
 3686              	.LASF80:
 3687 0a12 4359424C 		.ascii	"CYBLE_ERROR_NO_DEVICE_ENTITY\000"
 3687      455F4552 
 3687      524F525F 
 3687      4E4F5F44 
 3687      45564943 
 3688              	.LASF45:
 3689 0a2f 4359424C 		.ascii	"CYBLE_EVT_GATTC_READ_BLOB_RSP\000"
 3689      455F4556 
 3689      545F4741 
 3689      5454435F 
 3689      52454144 
ARM GAS  C:\Users\Helon\AppData\Local\Temp\cc2OGx1X.s 			page 105


 3690              	.LASF274:
 3691 0a4d 6379426C 		.ascii	"cyBle_eventHandlerFlag\000"
 3691      655F6576 
 3691      656E7448 
 3691      616E646C 
 3691      6572466C 
 3692              	.LASF52:
 3693 0a64 4359424C 		.ascii	"CYBLE_EVT_GATTC_EXEC_WRITE_RSP\000"
 3693      455F4556 
 3693      545F4741 
 3693      5454435F 
 3693      45584543 
 3694              	.LASF208:
 3695 0a83 4359424C 		.ascii	"CYBLE_GATT_ERR_HEART_RATE_CONTROL_POINT_NOT_SUPPORT"
 3695      455F4741 
 3695      54545F45 
 3695      52525F48 
 3695      45415254 
 3696 0ab6 454400   		.ascii	"ED\000"
 3697              	.LASF201:
 3698 0ab9 4359424C 		.ascii	"CYBLE_GATT_ERR_ATTRIBUTE_NOT_LONG\000"
 3698      455F4741 
 3698      54545F45 
 3698      52525F41 
 3698      54545249 
 3699              	.LASF130:
 3700 0adb 4359424C 		.ascii	"CYBLE_GAP_SEC_LEVEL_MASK\000"
 3700      455F4741 
 3700      505F5345 
 3700      435F4C45 
 3700      56454C5F 
 3701              	.LASF57:
 3702 0af4 4359424C 		.ascii	"CYBLE_EVT_GATTC_STOP_CMD_COMPLETE\000"
 3702      455F4556 
 3702      545F4741 
 3702      5454435F 
 3702      53544F50 
 3703              	.LASF222:
 3704 0b16 4359424C 		.ascii	"CYBLE_GATT_ERR_ANCS_ACTION_FAILED\000"
 3704      455F4741 
 3704      54545F45 
 3704      52525F41 
 3704      4E43535F 
 3705              	.LASF282:
 3706 0b38 6379426C 		.ascii	"cyBle_connHandle\000"
 3706      655F636F 
 3706      6E6E4861 
 3706      6E646C65 
 3706      00
 3707              	.LASF161:
 3708 0b49 4359424C 		.ascii	"CYBLE_GATT_ERROR_RSP\000"
 3708      455F4741 
 3708      54545F45 
 3708      52524F52 
 3708      5F525350 
 3709              	.LASF74:
 3710 0b5e 4359424C 		.ascii	"CYBLE_ERROR_INVALID_PARAMETER\000"
ARM GAS  C:\Users\Helon\AppData\Local\Temp\cc2OGx1X.s 			page 106


 3710      455F4552 
 3710      524F525F 
 3710      494E5641 
 3710      4C49445F 
 3711              	.LASF247:
 3712 0b7c 626F756E 		.ascii	"boundedDevCount\000"
 3712      64656444 
 3712      6576436F 
 3712      756E7400 
 3713              	.LASF261:
 3714 0b8c 4379426C 		.ascii	"CyBle_GapConnUpdateCompleteEventHandler\000"
 3714      655F4761 
 3714      70436F6E 
 3714      6E557064 
 3714      61746543 
 3715              	.LASF294:
 3716 0bb4 4379426C 		.ascii	"CyBle_StopTimer\000"
 3716      655F5374 
 3716      6F705469 
 3716      6D657200 
 3717              	.LASF76:
 3718 0bc4 4359424C 		.ascii	"CYBLE_ERROR_MEMORY_ALLOCATION_FAILED\000"
 3718      455F4552 
 3718      524F525F 
 3718      4D454D4F 
 3718      52595F41 
 3719              	.LASF293:
 3720 0be9 4379426C 		.ascii	"CyBle_GapcCancelDeviceConnection\000"
 3720      655F4761 
 3720      70634361 
 3720      6E63656C 
 3720      44657669 
 3721              	.LASF276:
 3722 0c0a 6379426C 		.ascii	"cyBle_sflashDeviceAddress\000"
 3722      655F7366 
 3722      6C617368 
 3722      44657669 
 3722      63654164 
 3723              	.LASF245:
 3724 0c24 61747456 		.ascii	"attValuesCCCDFlashMemory\000"
 3724      616C7565 
 3724      73434343 
 3724      44466C61 
 3724      73684D65 
 3725              	.LASF188:
 3726 0c3d 4359424C 		.ascii	"CYBLE_GATT_SIGNED_WRITE_CMD\000"
 3726      455F4741 
 3726      54545F53 
 3726      49474E45 
 3726      445F5752 
 3727              	.LASF215:
 3728 0c59 4359424C 		.ascii	"CYBLE_GATTS_ERR_CCCD_IMPROPERLY_CONFIGURED\000"
 3728      455F4741 
 3728      5454535F 
 3728      4552525F 
 3728      43434344 
 3729              	.LASF287:
ARM GAS  C:\Users\Helon\AppData\Local\Temp\cc2OGx1X.s 			page 107


 3730 0c84 4379426C 		.ascii	"CyBle_GattsExchangeMtuRsp\000"
 3730      655F4761 
 3730      74747345 
 3730      78636861 
 3730      6E67654D 
 3731              	.LASF184:
 3732 0c9e 4359424C 		.ascii	"CYBLE_GATT_EXECUTE_WRITE_RSP\000"
 3732      455F4741 
 3732      54545F45 
 3732      58454355 
 3732      54455F57 
 3733              	.LASF96:
 3734 0cbb 4359424C 		.ascii	"CYBLE_ERROR_MAX\000"
 3734      455F4552 
 3734      524F525F 
 3734      4D415800 
 3735              	.LASF60:
 3736 0ccb 4359424C 		.ascii	"CYBLE_EVT_L2CAP_CONN_PARAM_UPDATE_RSP\000"
 3736      455F4556 
 3736      545F4C32 
 3736      4341505F 
 3736      434F4E4E 
 3737              	.LASF149:
 3738 0cf1 4359424C 		.ascii	"CYBLE_GAP_AUTH_ERROR_LINK_DISCONNECTED\000"
 3738      455F4741 
 3738      505F4155 
 3738      54485F45 
 3738      52524F52 
 3739              	.LASF244:
 3740 0d18 73746163 		.ascii	"stackFlashptr\000"
 3740      6B466C61 
 3740      73687074 
 3740      7200
 3741              	.LASF209:
 3742 0d26 4359424C 		.ascii	"CYBLE_GATT_ERR_USER_DATA_ACCESS_NOT_PERMITTED\000"
 3742      455F4741 
 3742      54545F45 
 3742      52525F55 
 3742      5345525F 
 3743              	.LASF26:
 3744 0d54 4359424C 		.ascii	"CYBLE_EVT_GAP_AUTH_COMPLETE\000"
 3744      455F4556 
 3744      545F4741 
 3744      505F4155 
 3744      54485F43 
 3745              	.LASF27:
 3746 0d70 4359424C 		.ascii	"CYBLE_EVT_GAP_AUTH_FAILED\000"
 3746      455F4556 
 3746      545F4741 
 3746      505F4155 
 3746      54485F46 
 3747              	.LASF177:
 3748 0d8a 4359424C 		.ascii	"CYBLE_GATT_READ_BY_GROUP_RSP\000"
 3748      455F4741 
 3748      54545F52 
 3748      4541445F 
 3748      42595F47 
ARM GAS  C:\Users\Helon\AppData\Local\Temp\cc2OGx1X.s 			page 108


 3749              	.LASF77:
 3750 0da7 4359424C 		.ascii	"CYBLE_ERROR_INSUFFICIENT_RESOURCES\000"
 3750      455F4552 
 3750      524F525F 
 3750      494E5355 
 3750      46464943 
 3751              	.LASF213:
 3752 0dca 4359424C 		.ascii	"CYBLE_GATT_ERR_OP_CODE_NOT_SUPPORTED\000"
 3752      455F4741 
 3752      54545F45 
 3752      52525F4F 
 3752      505F434F 
 3753              	.LASF109:
 3754 0def 4359424C 		.ascii	"CYBLE_LL_PWR_LVL_3_DBM\000"
 3754      455F4C4C 
 3754      5F505752 
 3754      5F4C564C 
 3754      5F335F44 
 3755              	.LASF5:
 3756 0e06 6C6F6E67 		.ascii	"long unsigned int\000"
 3756      20756E73 
 3756      69676E65 
 3756      6420696E 
 3756      7400
 3757              	.LASF170:
 3758 0e18 4359424C 		.ascii	"CYBLE_GATT_READ_REQ\000"
 3758      455F4741 
 3758      54545F52 
 3758      4541445F 
 3758      52455100 
 3759              	.LASF156:
 3760 0e2c 73746174 		.ascii	"status\000"
 3760      757300
 3761              	.LASF107:
 3762 0e33 4359424C 		.ascii	"CYBLE_LL_PWR_LVL_NEG_1_DBM\000"
 3762      455F4C4C 
 3762      5F505752 
 3762      5F4C564C 
 3762      5F4E4547 
 3763              	.LASF144:
 3764 0e4e 4359424C 		.ascii	"CYBLE_GAP_AUTH_ERROR_COMMAND_NOT_SUPPORTED\000"
 3764      455F4741 
 3764      505F4155 
 3764      54485F45 
 3764      52524F52 
 3765              	.LASF140:
 3766 0e79 4359424C 		.ascii	"CYBLE_GAP_AUTH_ERROR_AUTHENTICATION_REQ_NOT_MET\000"
 3766      455F4741 
 3766      505F4155 
 3766      54485F45 
 3766      52524F52 
 3767              	.LASF185:
 3768 0ea9 4359424C 		.ascii	"CYBLE_GATT_HANDLE_VALUE_NTF\000"
 3768      455F4741 
 3768      54545F48 
 3768      414E444C 
 3768      455F5641 
ARM GAS  C:\Users\Helon\AppData\Local\Temp\cc2OGx1X.s 			page 109


 3769              	.LASF87:
 3770 0ec5 4359424C 		.ascii	"CYBLE_ERROR_L2CAP_PSM_ALREADY_REGISTERED\000"
 3770      455F4552 
 3770      524F525F 
 3770      4C324341 
 3770      505F5053 
 3771              	.LASF127:
 3772 0eee 4359424C 		.ascii	"CYBLE_GAP_SEC_LEVEL_1\000"
 3772      455F4741 
 3772      505F5345 
 3772      435F4C45 
 3772      56454C5F 
 3773              	.LASF219:
 3774 0f04 4359424C 		.ascii	"CYBLE_GATT_ERR_ANCS_UNKNOWN_COMMAND\000"
 3774      455F4741 
 3774      54545F45 
 3774      52525F41 
 3774      4E43535F 
 3775              	.LASF32:
 3776 0f28 4359424C 		.ascii	"CYBLE_EVT_GAP_CONNECTION_UPDATE_COMPLETE\000"
 3776      455F4556 
 3776      545F4741 
 3776      505F434F 
 3776      4E4E4543 
 3777              	.LASF283:
 3778 0f51 6379426C 		.ascii	"cyBle_busyStatus\000"
 3778      655F6275 
 3778      73795374 
 3778      61747573 
 3778      00
 3779              	.LASF299:
 3780 0f62 4379426C 		.ascii	"CyBle_ChangeAdDeviceAddress\000"
 3780      655F4368 
 3780      616E6765 
 3780      41644465 
 3780      76696365 
 3781              	.LASF250:
 3782 0f7e 4359424C 		.ascii	"CYBLE_STATE_INITIALIZING\000"
 3782      455F5354 
 3782      4154455F 
 3782      494E4954 
 3782      49414C49 
 3783              	.LASF272:
 3784 0f97 6379426C 		.ascii	"cyBle_mtuSize\000"
 3784      655F6D74 
 3784      7553697A 
 3784      6500
 3785              	.LASF146:
 3786 0fa5 4359424C 		.ascii	"CYBLE_GAP_AUTH_ERROR_REPEATED_ATTEMPTS\000"
 3786      455F4741 
 3786      505F4155 
 3786      54485F45 
 3786      52524F52 
 3787              	.LASF64:
 3788 0fcc 4359424C 		.ascii	"CYBLE_EVT_L2CAP_CBFC_DISCONN_IND\000"
 3788      455F4556 
 3788      545F4C32 
ARM GAS  C:\Users\Helon\AppData\Local\Temp\cc2OGx1X.s 			page 110


 3788      4341505F 
 3788      43424643 
 3789              	.LASF24:
 3790 0fed 4359424C 		.ascii	"CYBLE_EVT_GAP_PASSKEY_ENTRY_REQUEST\000"
 3790      455F4556 
 3790      545F4741 
 3790      505F5041 
 3790      53534B45 
 3791              	.LASF111:
 3792 1011 4359424C 		.ascii	"CYBLE_BLESS_PWR_LVL_T\000"
 3792      455F424C 
 3792      4553535F 
 3792      5057525F 
 3792      4C564C5F 
 3793              	.LASF248:
 3794 1027 43595F42 		.ascii	"CY_BLE_FLASH_STORAGE\000"
 3794      4C455F46 
 3794      4C415348 
 3794      5F53544F 
 3794      52414745 
 3795              	.LASF265:
 3796 103c 4379426C 		.ascii	"CyBle_GattConnectReqHandler\000"
 3796      655F4761 
 3796      7474436F 
 3796      6E6E6563 
 3796      74526571 
 3797              	.LASF280:
 3798 1058 6379426C 		.ascii	"cyBle_flashStorage\000"
 3798      655F666C 
 3798      61736853 
 3798      746F7261 
 3798      676500
 3799              	.LASF291:
 3800 106b 4379426C 		.ascii	"CyBle_GappAuthReqReply\000"
 3800      655F4761 
 3800      70704175 
 3800      74685265 
 3800      71526570 
 3801              	.LASF143:
 3802 1082 4359424C 		.ascii	"CYBLE_GAP_AUTH_ERROR_INSUFFICIENT_ENCRYPTION_KEY_SI"
 3802      455F4741 
 3802      505F4155 
 3802      54485F45 
 3802      52524F52 
 3803 10b5 5A4500   		.ascii	"ZE\000"
 3804              	.LASF6:
 3805 10b8 6C6F6E67 		.ascii	"long long int\000"
 3805      206C6F6E 
 3805      6720696E 
 3805      7400
 3806              	.LASF266:
 3807 10c6 4379426C 		.ascii	"CyBle_GattDisconnectEventHandler\000"
 3807      655F4761 
 3807      74744469 
 3807      73636F6E 
 3807      6E656374 
 3808              	.LASF263:
ARM GAS  C:\Users\Helon\AppData\Local\Temp\cc2OGx1X.s 			page 111


 3809 10e7 73666C61 		.ascii	"sflashDeviceAddress\000"
 3809      73684465 
 3809      76696365 
 3809      41646472 
 3809      65737300 
 3810              	.LASF199:
 3811 10fb 4359424C 		.ascii	"CYBLE_GATT_ERR_PREPARE_WRITE_QUEUE_FULL\000"
 3811      455F4741 
 3811      54545F45 
 3811      52525F50 
 3811      52455041 
 3812              	.LASF88:
 3813 1123 4359424C 		.ascii	"CYBLE_ERROR_L2CAP_PSM_NOT_REGISTERED\000"
 3813      455F4552 
 3813      524F525F 
 3813      4C324341 
 3813      505F5053 
 3814              	.LASF78:
 3815 1148 4359424C 		.ascii	"CYBLE_ERROR_OOB_NOT_AVAILABLE\000"
 3815      455F4552 
 3815      524F525F 
 3815      4F4F425F 
 3815      4E4F545F 
 3816              	.LASF13:
 3817 1166 646F7562 		.ascii	"double\000"
 3817      6C6500
 3818              	.LASF93:
 3819 116d 4359424C 		.ascii	"CYBLE_ERROR_DEVICE_ALREADY_EXISTS\000"
 3819      455F4552 
 3819      524F525F 
 3819      44455649 
 3819      43455F41 
 3820              	.LASF70:
 3821 118f 4359424C 		.ascii	"CYBLE_EVT_PENDING_FLASH_WRITE\000"
 3821      455F4556 
 3821      545F5045 
 3821      4E44494E 
 3821      475F464C 
 3822              	.LASF202:
 3823 11ad 4359424C 		.ascii	"CYBLE_GATT_ERR_INSUFFICIENT_ENC_KEY_SIZE\000"
 3823      455F4741 
 3823      54545F45 
 3823      52525F49 
 3823      4E535546 
 3824              	.LASF110:
 3825 11d6 4359424C 		.ascii	"CYBLE_LL_PWR_LVL_MAX\000"
 3825      455F4C4C 
 3825      5F505752 
 3825      5F4C564C 
 3825      5F4D4158 
 3826              	.LASF224:
 3827 11eb 4359424C 		.ascii	"CYBLE_GATT_ERR_PROCEDURE_ALREADY_IN_PROGRESS\000"
 3827      455F4741 
 3827      54545F45 
 3827      52525F50 
 3827      524F4345 
 3828              	.LASF90:
ARM GAS  C:\Users\Helon\AppData\Local\Temp\cc2OGx1X.s 			page 112


 3829 1218 4359424C 		.ascii	"CYBLE_ERROR_L2CAP_CHANNEL_NOT_FOUND\000"
 3829      455F4552 
 3829      524F525F 
 3829      4C324341 
 3829      505F4348 
 3830              	.LASF81:
 3831 123c 4359424C 		.ascii	"CYBLE_ERROR_REPEATED_ATTEMPTS\000"
 3831      455F4552 
 3831      524F525F 
 3831      52455045 
 3831      41544544 
 3832              	.LASF257:
 3833 125a 4379426C 		.ascii	"CyBle_ValueConfirmation\000"
 3833      655F5661 
 3833      6C756543 
 3833      6F6E6669 
 3833      726D6174 
 3834              	.LASF12:
 3835 1272 666C6F61 		.ascii	"float\000"
 3835      7400
 3836              	.LASF94:
 3837 1278 4359424C 		.ascii	"CYBLE_ERROR_FLASH_WRITE_NOT_PERMITED\000"
 3837      455F4552 
 3837      524F525F 
 3837      464C4153 
 3837      485F5752 
 3838              	.LASF58:
 3839 129d 4359424C 		.ascii	"CYBLE_EVT_GATTS_READ_CHAR_VAL_ACCESS_REQ\000"
 3839      455F4556 
 3839      545F4741 
 3839      5454535F 
 3839      52454144 
 3840              	.LASF238:
 3841 12c6 6F70636F 		.ascii	"opcode\000"
 3841      646500
 3842              	.LASF198:
 3843 12cd 4359424C 		.ascii	"CYBLE_GATT_ERR_INSUFFICIENT_AUTHORIZATION\000"
 3843      455F4741 
 3843      54545F45 
 3843      52525F49 
 3843      4E535546 
 3844              	.LASF234:
 3845 12f7 61747472 		.ascii	"attrHandle\000"
 3845      48616E64 
 3845      6C6500
 3846              	.LASF152:
 3847 1302 626F6E64 		.ascii	"bonding\000"
 3847      696E6700 
 3848              	.LASF242:
 3849 130a 4359424C 		.ascii	"CYBLE_GATTS_WRITE_REQ_PARAM_T\000"
 3849      455F4741 
 3849      5454535F 
 3849      57524954 
 3849      455F5245 
 3850              	.LASF8:
 3851 1328 756E7369 		.ascii	"unsigned int\000"
 3851      676E6564 
ARM GAS  C:\Users\Helon\AppData\Local\Temp\cc2OGx1X.s 			page 113


 3851      20696E74 
 3851      00
 3852              	.LASF50:
 3853 1335 4359424C 		.ascii	"CYBLE_EVT_GATTS_PREP_WRITE_REQ\000"
 3853      455F4556 
 3853      545F4741 
 3853      5454535F 
 3853      50524550 
 3854              	.LASF195:
 3855 1354 4359424C 		.ascii	"CYBLE_GATT_ERR_INSUFFICIENT_AUTHENTICATION\000"
 3855      455F4741 
 3855      54545F45 
 3855      52525F49 
 3855      4E535546 
 3856              	.LASF237:
 3857 137f 4359424C 		.ascii	"CYBLE_GATT_XCHG_MTU_PARAM_T\000"
 3857      455F4741 
 3857      54545F58 
 3857      4348475F 
 3857      4D54555F 
 3858              	.LASF113:
 3859 139b 4359424C 		.ascii	"CYBLE_LL_CONN_CH_TYPE\000"
 3859      455F4C4C 
 3859      5F434F4E 
 3859      4E5F4348 
 3859      5F545950 
 3860              	.LASF289:
 3861 13b1 4379426C 		.ascii	"CyBle_GattsWriteEventHandler\000"
 3861      655F4761 
 3861      74747357 
 3861      72697465 
 3861      4576656E 
 3862              	.LASF212:
 3863 13ce 4359424C 		.ascii	"CYBLE_GATTS_ERR_PROCEDURE_ALREADY_IN_PROGRESS\000"
 3863      455F4741 
 3863      5454535F 
 3863      4552525F 
 3863      50524F43 
 3864              	.LASF269:
 3865 13fc 6572725F 		.ascii	"err_param\000"
 3865      70617261 
 3865      6D00
 3866              	.LASF86:
 3867 1406 4359424C 		.ascii	"CYBLE_ERROR_L2CAP_PSM_WRONG_ENCODING\000"
 3867      455F4552 
 3867      524F525F 
 3867      4C324341 
 3867      505F5053 
 3868              	.LASF182:
 3869 142b 4359424C 		.ascii	"CYBLE_GATT_PREPARE_WRITE_RSP\000"
 3869      455F4741 
 3869      54545F50 
 3869      52455041 
 3869      52455F57 
 3870              	.LASF301:
 3871 1448 474E5520 		.ascii	"GNU C 4.9.3 20150303 (release) [ARM/embedded-4_9-br"
 3871      4320342E 
ARM GAS  C:\Users\Helon\AppData\Local\Temp\cc2OGx1X.s 			page 114


 3871      392E3320 
 3871      32303135 
 3871      30333033 
 3872 147b 616E6368 		.ascii	"anch revision 221220] -mcpu=cortex-m0 -mthumb -g -O"
 3872      20726576 
 3872      6973696F 
 3872      6E203232 
 3872      31323230 
 3873 14ae 73202D66 		.ascii	"s -ffunction-sections -ffat-lto-objects\000"
 3873      66756E63 
 3873      74696F6E 
 3873      2D736563 
 3873      74696F6E 
 3874              	.LASF200:
 3875 14d6 4359424C 		.ascii	"CYBLE_GATT_ERR_ATTRIBUTE_NOT_FOUND\000"
 3875      455F4741 
 3875      54545F45 
 3875      52525F41 
 3875      54545249 
 3876              	.LASF278:
 3877 14f9 6379426C 		.ascii	"cyBle_connectingTimeout\000"
 3877      655F636F 
 3877      6E6E6563 
 3877      74696E67 
 3877      54696D65 
 3878              	.LASF72:
 3879 1511 4359424C 		.ascii	"CYBLE_EVT_MAX\000"
 3879      455F4556 
 3879      545F4D41 
 3879      5800
 3880              	.LASF33:
 3881 151f 4359424C 		.ascii	"CYBLE_EVT_GAPC_SCAN_START_STOP\000"
 3881      455F4556 
 3881      545F4741 
 3881      50435F53 
 3881      43414E5F 
 3882              	.LASF304:
 3883 153e 4379426C 		.ascii	"CyBle_IsDeviceAddressValid\000"
 3883      655F4973 
 3883      44657669 
 3883      63654164 
 3883      64726573 
 3884              	.LASF150:
 3885 1559 4359424C 		.ascii	"CYBLE_GAP_AUTH_FAILED_REASON_T\000"
 3885      455F4741 
 3885      505F4155 
 3885      54485F46 
 3885      41494C45 
 3886              	.LASF47:
 3887 1578 4359424C 		.ascii	"CYBLE_EVT_GATTS_WRITE_REQ\000"
 3887      455F4556 
 3887      545F4741 
 3887      5454535F 
 3887      57524954 
 3888              	.LASF25:
 3889 1592 4359424C 		.ascii	"CYBLE_EVT_GAP_PASSKEY_DISPLAY_REQUEST\000"
 3889      455F4556 
ARM GAS  C:\Users\Helon\AppData\Local\Temp\cc2OGx1X.s 			page 115


 3889      545F4741 
 3889      505F5041 
 3889      53534B45 
 3890              	.LASF98:
 3891 15b8 4359424C 		.ascii	"CYBLE_ERROR_IND_DISABLED\000"
 3891      455F4552 
 3891      524F525F 
 3891      494E445F 
 3891      44495341 
 3892              	.LASF97:
 3893 15d1 4359424C 		.ascii	"CYBLE_ERROR_NTF_DISABLED\000"
 3893      455F4552 
 3893      524F525F 
 3893      4E54465F 
 3893      44495341 
 3894              	.LASF174:
 3895 15ea 4359424C 		.ascii	"CYBLE_GATT_READ_MULTIPLE_REQ\000"
 3895      455F4741 
 3895      54545F52 
 3895      4541445F 
 3895      4D554C54 
 3896              	.LASF44:
 3897 1607 4359424C 		.ascii	"CYBLE_EVT_GATTC_READ_RSP\000"
 3897      455F4556 
 3897      545F4741 
 3897      5454435F 
 3897      52454144 
 3898              	.LASF197:
 3899 1620 4359424C 		.ascii	"CYBLE_GATT_ERR_INVALID_OFFSET\000"
 3899      455F4741 
 3899      54545F45 
 3899      52525F49 
 3899      4E56414C 
 3900              	.LASF168:
 3901 163e 4359424C 		.ascii	"CYBLE_GATT_READ_BY_TYPE_REQ\000"
 3901      455F4741 
 3901      54545F52 
 3901      4541445F 
 3901      42595F54 
 3902              	.LASF63:
 3903 165a 4359424C 		.ascii	"CYBLE_EVT_L2CAP_CBFC_CONN_CNF\000"
 3903      455F4556 
 3903      545F4C32 
 3903      4341505F 
 3903      43424643 
 3904              	.LASF225:
 3905 1678 4359424C 		.ascii	"CYBLE_GATT_ERR_OUT_OF_RANGE\000"
 3905      455F4741 
 3905      54545F45 
 3905      52525F4F 
 3905      55545F4F 
 3906              	.LASF166:
 3907 1694 4359424C 		.ascii	"CYBLE_GATT_FIND_BY_TYPE_VALUE_REQ\000"
 3907      455F4741 
 3907      54545F46 
 3907      494E445F 
 3907      42595F54 
ARM GAS  C:\Users\Helon\AppData\Local\Temp\cc2OGx1X.s 			page 116


 3908              	.LASF104:
 3909 16b6 4359424C 		.ascii	"CYBLE_LL_PWR_LVL_NEG_6_DBM\000"
 3909      455F4C4C 
 3909      5F505752 
 3909      5F4C564C 
 3909      5F4E4547 
 3910              	.LASF137:
 3911 16d1 4359424C 		.ascii	"CYBLE_GAP_AUTH_ERROR_NONE\000"
 3911      455F4741 
 3911      505F4155 
 3911      54485F45 
 3911      52524F52 
 3912              	.LASF31:
 3913 16eb 4359424C 		.ascii	"CYBLE_EVT_GAP_ENCRYPT_CHANGE\000"
 3913      455F4556 
 3913      545F4741 
 3913      505F454E 
 3913      43525950 
 3914              	.LASF38:
 3915 1708 4359424C 		.ascii	"CYBLE_EVT_GATTS_XCNHG_MTU_REQ\000"
 3915      455F4556 
 3915      545F4741 
 3915      5454535F 
 3915      58434E48 
 3916              	.LASF165:
 3917 1726 4359424C 		.ascii	"CYBLE_GATT_FIND_INFO_RSP\000"
 3917      455F4741 
 3917      54545F46 
 3917      494E445F 
 3917      494E464F 
 3918              	.LASF139:
 3919 173f 4359424C 		.ascii	"CYBLE_GAP_AUTH_ERROR_OOB_DATA_NOT_AVAILABLE\000"
 3919      455F4741 
 3919      505F4155 
 3919      54485F45 
 3919      52524F52 
 3920              	.LASF160:
 3921 176b 4359424C 		.ascii	"CYBLE_GAP_CONN_PARAM_UPDATED_IN_CONTROLLER_T\000"
 3921      455F4741 
 3921      505F434F 
 3921      4E4E5F50 
 3921      4152414D 
 3922              	.LASF7:
 3923 1798 6C6F6E67 		.ascii	"long long unsigned int\000"
 3923      206C6F6E 
 3923      6720756E 
 3923      7369676E 
 3923      65642069 
 3924              	.LASF298:
 3925 17af 4379426C 		.ascii	"CyBle_GapcStartScan\000"
 3925      655F4761 
 3925      70635374 
 3925      61727453 
 3925      63616E00 
 3926              	.LASF191:
 3927 17c3 4359424C 		.ascii	"CYBLE_GATT_ERR_INVALID_HANDLE\000"
 3927      455F4741 
ARM GAS  C:\Users\Helon\AppData\Local\Temp\cc2OGx1X.s 			page 117


 3927      54545F45 
 3927      52525F49 
 3927      4E56414C 
 3928              	.LASF18:
 3929 17e1 4359424C 		.ascii	"CYBLE_EVT_TIMEOUT\000"
 3929      455F4556 
 3929      545F5449 
 3929      4D454F55 
 3929      5400
 3930              	.LASF253:
 3931 17f3 4359424C 		.ascii	"CYBLE_STATE_SCANNING\000"
 3931      455F5354 
 3931      4154455F 
 3931      5343414E 
 3931      4E494E47 
 3932              	.LASF264:
 3933 1808 73666C61 		.ascii	"sflashAddressValid\000"
 3933      73684164 
 3933      64726573 
 3933      7356616C 
 3933      696400
 3934              	.LASF189:
 3935 181b 4359424C 		.ascii	"CYBLE_GATT_UNKNOWN_PDU_IND\000"
 3935      455F4741 
 3935      54545F55 
 3935      4E4B4E4F 
 3935      574E5F50 
 3936              	.LASF100:
 3937 1836 4359424C 		.ascii	"CYBLE_ERROR_INVALID_STATE\000"
 3937      455F4552 
 3937      524F525F 
 3937      494E5641 
 3937      4C49445F 
 3938              	.LASF227:
 3939 1850 4359424C 		.ascii	"CYBLE_GATT_DB_ATTR_HANDLE_T\000"
 3939      455F4741 
 3939      54545F44 
 3939      425F4154 
 3939      54525F48 
 3940              	.LASF271:
 3941 186c 626C6553 		.ascii	"bleSsPowerLevel\000"
 3941      73506F77 
 3941      65724C65 
 3941      76656C00 
 3942              	.LASF66:
 3943 187c 4359424C 		.ascii	"CYBLE_EVT_L2CAP_CBFC_DATA_READ\000"
 3943      455F4556 
 3943      545F4C32 
 3943      4341505F 
 3943      43424643 
 3944              	.LASF190:
 3945 189b 4359424C 		.ascii	"CYBLE_GATT_ERR_NONE\000"
 3945      455F4741 
 3945      54545F45 
 3945      52525F4E 
 3945      4F4E4500 
 3946              	.LASF233:
ARM GAS  C:\Users\Helon\AppData\Local\Temp\cc2OGx1X.s 			page 118


 3947 18af 76616C75 		.ascii	"value\000"
 3947      6500
 3948              	.LASF273:
 3949 18b5 4379426C 		.ascii	"CyBle_ApplCallback\000"
 3949      655F4170 
 3949      706C4361 
 3949      6C6C6261 
 3949      636B00
 3950              	.LASF226:
 3951 18c8 4359424C 		.ascii	"CYBLE_GATT_ERR_CODE_T\000"
 3951      455F4741 
 3951      54545F45 
 3951      52525F43 
 3951      4F44455F 
 3952              	.LASF123:
 3953 18de 4359424C 		.ascii	"CYBLE_GAP_SCAN_TO\000"
 3953      455F4741 
 3953      505F5343 
 3953      414E5F54 
 3953      4F00
 3954              	.LASF211:
 3955 18f0 4359424C 		.ascii	"CYBLE_GATT_ERR_HTS_OUT_OF_RANGE\000"
 3955      455F4741 
 3955      54545F45 
 3955      52525F48 
 3955      54535F4F 
 3956              	.LASF121:
 3957 1910 4359424C 		.ascii	"CYBLE_GAP_BD_ADDR_T\000"
 3957      455F4741 
 3957      505F4244 
 3957      5F414444 
 3957      525F5400 
 3958              	.LASF172:
 3959 1924 4359424C 		.ascii	"CYBLE_GATT_READ_BLOB_REQ\000"
 3959      455F4741 
 3959      54545F52 
 3959      4541445F 
 3959      424C4F42 
 3960              	.LASF122:
 3961 193d 4359424C 		.ascii	"CYBLE_GAP_ADV_MODE_TO\000"
 3961      455F4741 
 3961      505F4144 
 3961      565F4D4F 
 3961      44455F54 
 3962              	.LASF241:
 3963 1953 68616E64 		.ascii	"handleValPair\000"
 3963      6C655661 
 3963      6C506169 
 3963      7200
 3964              	.LASF236:
 3965 1961 636F6E6E 		.ascii	"connHandle\000"
 3965      48616E64 
 3965      6C6500
 3966              	.LASF262:
 3967 196c 4379426C 		.ascii	"CyBle_TimeOutEventHandler\000"
 3967      655F5469 
 3967      6D654F75 
ARM GAS  C:\Users\Helon\AppData\Local\Temp\cc2OGx1X.s 			page 119


 3967      74457665 
 3967      6E744861 
 3968              	.LASF142:
 3969 1986 4359424C 		.ascii	"CYBLE_GAP_AUTH_ERROR_PAIRING_NOT_SUPPORTED\000"
 3969      455F4741 
 3969      505F4155 
 3969      54485F45 
 3969      52524F52 
 3970              	.LASF125:
 3971 19b1 4359424C 		.ascii	"CYBLE_GENERIC_TO\000"
 3971      455F4745 
 3971      4E455249 
 3971      435F544F 
 3971      00
 3972              	.LASF42:
 3973 19c2 4359424C 		.ascii	"CYBLE_EVT_GATTC_FIND_INFO_RSP\000"
 3973      455F4556 
 3973      545F4741 
 3973      5454435F 
 3973      46494E44 
 3974              	.LASF41:
 3975 19e0 4359424C 		.ascii	"CYBLE_EVT_GATTC_READ_BY_TYPE_RSP\000"
 3975      455F4556 
 3975      545F4741 
 3975      5454435F 
 3975      52454144 
 3976              	.LASF216:
 3977 1a01 4359424C 		.ascii	"CYBLE_GATTS_ERR_OPERATION_FAILED\000"
 3977      455F4741 
 3977      5454535F 
 3977      4552525F 
 3977      4F504552 
 3978              	.LASF281:
 3979 1a22 6379426C 		.ascii	"cyBle_state\000"
 3979      655F7374 
 3979      61746500 
 3980              	.LASF48:
 3981 1a2e 4359424C 		.ascii	"CYBLE_EVT_GATTC_WRITE_RSP\000"
 3981      455F4556 
 3981      545F4741 
 3981      5454435F 
 3981      57524954 
 3982              	.LASF255:
 3983 1a48 4359424C 		.ascii	"CYBLE_STATE_DISCONNECTED\000"
 3983      455F5354 
 3983      4154455F 
 3983      44495343 
 3983      4F4E4E45 
 3984              	.LASF28:
 3985 1a61 4359424C 		.ascii	"CYBLE_EVT_GAPP_ADVERTISEMENT_START_STOP\000"
 3985      455F4556 
 3985      545F4741 
 3985      50505F41 
 3985      44564552 
 3986              	.LASF9:
 3987 1a89 75696E74 		.ascii	"uint8\000"
 3987      3800
ARM GAS  C:\Users\Helon\AppData\Local\Temp\cc2OGx1X.s 			page 120


 3988              	.LASF277:
 3989 1a8f 6379426C 		.ascii	"cyBle_authInfo\000"
 3989      655F6175 
 3989      7468496E 
 3989      666F00
 3990              	.LASF151:
 3991 1a9e 73656375 		.ascii	"security\000"
 3991      72697479 
 3991      00
 3992              	.LASF258:
 3993 1aa7 4379426C 		.ascii	"CyBle_L2Cap_ConnParamUpdateRspEventHandler\000"
 3993      655F4C32 
 3993      4361705F 
 3993      436F6E6E 
 3993      50617261 
 3994              	.LASF178:
 3995 1ad2 4359424C 		.ascii	"CYBLE_GATT_WRITE_REQ\000"
 3995      455F4741 
 3995      54545F57 
 3995      52495445 
 3995      5F524551 
 3996              	.LASF2:
 3997 1ae7 73686F72 		.ascii	"short int\000"
 3997      7420696E 
 3997      7400
 3998              	.LASF154:
 3999 1af1 61757468 		.ascii	"authErr\000"
 3999      45727200 
 4000              	.LASF210:
 4001 1af9 4359424C 		.ascii	"CYBLE_GATT_ERR_CPS_INAPPROPRIATE_CONNECTION_PARAMET"
 4001      455F4741 
 4001      54545F45 
 4001      52525F43 
 4001      50535F49 
 4002 1b2c 45525300 		.ascii	"ERS\000"
 4003              	.LASF196:
 4004 1b30 4359424C 		.ascii	"CYBLE_GATT_ERR_REQUEST_NOT_SUPPORTED\000"
 4004      455F4741 
 4004      54545F45 
 4004      52525F52 
 4004      45515545 
 4005              	.LASF35:
 4006 1b55 4359424C 		.ascii	"CYBLE_EVT_GATTC_ERROR_RSP\000"
 4006      455F4556 
 4006      545F4741 
 4006      5454435F 
 4006      4552524F 
 4007              	.LASF135:
 4008 1b6f 4359424C 		.ascii	"CYBLE_GAP_IOCAP_KEYBOARD_DISPLAY\000"
 4008      455F4741 
 4008      505F494F 
 4008      4341505F 
 4008      4B455942 
 4009              	.LASF256:
 4010 1b90 4359424C 		.ascii	"CYBLE_STATE_T\000"
 4010      455F5354 
 4010      4154455F 
ARM GAS  C:\Users\Helon\AppData\Local\Temp\cc2OGx1X.s 			page 121


 4010      5400
 4011              	.LASF62:
 4012 1b9e 4359424C 		.ascii	"CYBLE_EVT_L2CAP_CBFC_CONN_IND\000"
 4012      455F4556 
 4012      545F4C32 
 4012      4341505F 
 4012      43424643 
 4013              	.LASF51:
 4014 1bbc 4359424C 		.ascii	"CYBLE_EVT_GATTS_EXEC_WRITE_REQ\000"
 4014      455F4556 
 4014      545F4741 
 4014      5454535F 
 4014      45584543 
 4015              	.LASF22:
 4016 1bdb 4359424C 		.ascii	"CYBLE_EVT_GAPC_SCAN_PROGRESS_RESULT\000"
 4016      455F4556 
 4016      545F4741 
 4016      50435F53 
 4016      43414E5F 
 4017              	.LASF246:
 4018 1bff 63636364 		.ascii	"cccdCount\000"
 4018      436F756E 
 4018      7400
 4019              	.LASF221:
 4020 1c09 4359424C 		.ascii	"CYBLE_GATT_ERR_ANCS_INVALID_PARAMETER\000"
 4020      455F4741 
 4020      54545F45 
 4020      52525F41 
 4020      4E43535F 
 4021              	.LASF292:
 4022 1c2f 4379426C 		.ascii	"CyBle_GapAuthReq\000"
 4022      655F4761 
 4022      70417574 
 4022      68526571 
 4022      00
 4023              	.LASF82:
 4024 1c40 4359424C 		.ascii	"CYBLE_ERROR_GAP_ROLE\000"
 4024      455F4552 
 4024      524F525F 
 4024      4741505F 
 4024      524F4C45 
 4025              	.LASF284:
 4026 1c55 6379426C 		.ascii	"cyBle_advertisingIntervalType\000"
 4026      655F6164 
 4026      76657274 
 4026      6973696E 
 4026      67496E74 
 4027              	.LASF119:
 4028 1c73 62644164 		.ascii	"bdAddr\000"
 4028      647200
 4029              	.LASF218:
 4030 1c7a 4359424C 		.ascii	"CYBLE_GATT_ERR_ANS_COMMAND_NOT_SUPPORTED\000"
 4030      455F4741 
 4030      54545F45 
 4030      52525F41 
 4030      4E535F43 
 4031              	.LASF260:
ARM GAS  C:\Users\Helon\AppData\Local\Temp\cc2OGx1X.s 			page 122


 4032 1ca3 72657370 		.ascii	"response\000"
 4032      6F6E7365 
 4032      00
 4033              	.LASF288:
 4034 1cac 4379426C 		.ascii	"CyBle_GattsErrorRsp\000"
 4034      655F4761 
 4034      74747345 
 4034      72726F72 
 4034      52737000 
 4035              	.LASF171:
 4036 1cc0 4359424C 		.ascii	"CYBLE_GATT_READ_RSP\000"
 4036      455F4741 
 4036      54545F52 
 4036      4541445F 
 4036      52535000 
 4037              	.LASF79:
 4038 1cd4 4359424C 		.ascii	"CYBLE_ERROR_NO_CONNECTION\000"
 4038      455F4552 
 4038      524F525F 
 4038      4E4F5F43 
 4038      4F4E4E45 
 4039              	.LASF108:
 4040 1cee 4359424C 		.ascii	"CYBLE_LL_PWR_LVL_0_DBM\000"
 4040      455F4C4C 
 4040      5F505752 
 4040      5F4C564C 
 4040      5F305F44 
 4041              	.LASF300:
 4042 1d05 6D656D63 		.ascii	"memcpy\000"
 4042      707900
 4043              	.LASF112:
 4044 1d0c 4359424C 		.ascii	"CYBLE_LL_ADV_CH_TYPE\000"
 4044      455F4C4C 
 4044      5F414456 
 4044      5F43485F 
 4044      54595045 
 4045              	.LASF71:
 4046 1d21 4359424C 		.ascii	"CYBLE_EVT_LE_PING_AUTH_TIMEOUT\000"
 4046      455F4556 
 4046      545F4C45 
 4046      5F50494E 
 4046      475F4155 
 4047              	.LASF101:
 4048 1d40 4359424C 		.ascii	"CYBLE_API_RESULT_T\000"
 4048      455F4150 
 4048      495F5245 
 4048      53554C54 
 4048      5F5400
 4049              	.LASF279:
 4050 1d53 6379426C 		.ascii	"cyBle_attValuesCCCD\000"
 4050      655F6174 
 4050      7456616C 
 4050      75657343 
 4050      43434400 
 4051              	.LASF54:
 4052 1d67 4359424C 		.ascii	"CYBLE_EVT_GATTC_HANDLE_VALUE_IND\000"
 4052      455F4556 
ARM GAS  C:\Users\Helon\AppData\Local\Temp\cc2OGx1X.s 			page 123


 4052      545F4741 
 4052      5454435F 
 4052      48414E44 
 4053              	.LASF270:
 4054 1d88 6576656E 		.ascii	"eventCode\000"
 4054      74436F64 
 4054      6500
 4055              	.LASF85:
 4056 1d92 4359424C 		.ascii	"CYBLE_ERROR_SEC_FAILED\000"
 4056      455F4552 
 4056      524F525F 
 4056      5345435F 
 4056      4641494C 
 4057              	.LASF21:
 4058 1da9 4359424C 		.ascii	"CYBLE_EVT_STACK_BUSY_STATUS\000"
 4058      455F4556 
 4058      545F5354 
 4058      41434B5F 
 4058      42555359 
 4059              	.LASF158:
 4060 1dc5 636F6E6E 		.ascii	"connLatency\000"
 4060      4C617465 
 4060      6E637900 
 4061              	.LASF132:
 4062 1dd1 4359424C 		.ascii	"CYBLE_GAP_IOCAP_DISPLAY_YESNO\000"
 4062      455F4741 
 4062      505F494F 
 4062      4341505F 
 4062      44495350 
 4063              	.LASF34:
 4064 1def 4359424C 		.ascii	"CYBLE_EVT_GAP_KEYINFO_EXCHNGE_CMPLT\000"
 4064      455F4556 
 4064      545F4741 
 4064      505F4B45 
 4064      59494E46 
 4065              	.LASF183:
 4066 1e13 4359424C 		.ascii	"CYBLE_GATT_EXECUTE_WRITE_REQ\000"
 4066      455F4741 
 4066      54545F45 
 4066      58454355 
 4066      54455F57 
 4067              	.LASF118:
 4068 1e30 4359424C 		.ascii	"CYBLE_BLESS_PWR_IN_DB_T\000"
 4068      455F424C 
 4068      4553535F 
 4068      5057525F 
 4068      494E5F44 
 4069              	.LASF114:
 4070 1e48 4359424C 		.ascii	"CYBLE_LL_MAX_CH_TYPE\000"
 4070      455F4C4C 
 4070      5F4D4158 
 4070      5F43485F 
 4070      54595045 
 4071              	.LASF59:
 4072 1e5d 4359424C 		.ascii	"CYBLE_EVT_L2CAP_CONN_PARAM_UPDATE_REQ\000"
 4072      455F4556 
 4072      545F4C32 
ARM GAS  C:\Users\Helon\AppData\Local\Temp\cc2OGx1X.s 			page 124


 4072      4341505F 
 4072      434F4E4E 
 4073              	.LASF268:
 4074 1e83 67617474 		.ascii	"gattErr\000"
 4074      45727200 
 4075              	.LASF193:
 4076 1e8b 4359424C 		.ascii	"CYBLE_GATT_ERR_WRITE_NOT_PERMITTED\000"
 4076      455F4741 
 4076      54545F45 
 4076      52525F57 
 4076      52495445 
 4077              	.LASF157:
 4078 1eae 636F6E6E 		.ascii	"connIntv\000"
 4078      496E7476 
 4078      00
 4079              	.LASF3:
 4080 1eb7 73686F72 		.ascii	"short unsigned int\000"
 4080      7420756E 
 4080      7369676E 
 4080      65642069 
 4080      6E7400
 4081              	.LASF205:
 4082 1eca 4359424C 		.ascii	"CYBLE_GATT_ERR_INSUFFICIENT_ENCRYPTION\000"
 4082      455F4741 
 4082      54545F45 
 4082      52525F49 
 4082      4E535546 
 4083              	.LASF251:
 4084 1ef1 4359424C 		.ascii	"CYBLE_STATE_CONNECTED\000"
 4084      455F5354 
 4084      4154455F 
 4084      434F4E4E 
 4084      45435445 
 4085              	.LASF231:
 4086 1f07 61637475 		.ascii	"actualLen\000"
 4086      616C4C65 
 4086      6E00
 4087              	.LASF176:
 4088 1f11 4359424C 		.ascii	"CYBLE_GATT_READ_BY_GROUP_REQ\000"
 4088      455F4741 
 4088      54545F52 
 4088      4541445F 
 4088      42595F47 
 4089              	.LASF141:
 4090 1f2e 4359424C 		.ascii	"CYBLE_GAP_AUTH_ERROR_CONFIRM_VALUE_NOT_MATCH\000"
 4090      455F4741 
 4090      505F4155 
 4090      54485F45 
 4090      52524F52 
 4091              	.LASF229:
 4092 1f5b 61747449 		.ascii	"attId\000"
 4092      6400
 4093              	.LASF75:
 4094 1f61 4359424C 		.ascii	"CYBLE_ERROR_INVALID_OPERATION\000"
 4094      455F4552 
 4094      524F525F 
 4094      494E5641 
ARM GAS  C:\Users\Helon\AppData\Local\Temp\cc2OGx1X.s 			page 125


 4094      4C49445F 
 4095              	.LASF20:
 4096 1f7f 4359424C 		.ascii	"CYBLE_EVT_HCI_STATUS\000"
 4096      455F4556 
 4096      545F4843 
 4096      495F5354 
 4096      41545553 
 4097              	.LASF37:
 4098 1f94 4359424C 		.ascii	"CYBLE_EVT_GATT_DISCONNECT_IND\000"
 4098      455F4556 
 4098      545F4741 
 4098      54545F44 
 4098      4953434F 
 4099              	.LASF159:
 4100 1fb2 73757065 		.ascii	"supervisionTO\000"
 4100      72766973 
 4100      696F6E54 
 4100      4F00
 4101              	.LASF124:
 4102 1fc0 4359424C 		.ascii	"CYBLE_GATT_RSP_TO\000"
 4102      455F4741 
 4102      54545F52 
 4102      53505F54 
 4102      4F00
 4103              	.LASF69:
 4104 1fd2 4359424C 		.ascii	"CYBLE_EVT_L2CAP_CBFC_DATA_WRITE_IND\000"
 4104      455F4556 
 4104      545F4C32 
 4104      4341505F 
 4104      43424643 
 4105              	.LASF30:
 4106 1ff6 4359424C 		.ascii	"CYBLE_EVT_GAP_DEVICE_DISCONNECTED\000"
 4106      455F4556 
 4106      545F4741 
 4106      505F4445 
 4106      56494345 
 4107              	.LASF55:
 4108 2018 4359424C 		.ascii	"CYBLE_EVT_GATTS_HANDLE_VALUE_CNF\000"
 4108      455F4556 
 4108      545F4741 
 4108      5454535F 
 4108      48414E44 
 4109              	.LASF10:
 4110 2039 75696E74 		.ascii	"uint16\000"
 4110      313600
 4111              	.LASF83:
 4112 2040 4359424C 		.ascii	"CYBLE_ERROR_TX_POWER_READ\000"
 4112      455F4552 
 4112      524F525F 
 4112      54585F50 
 4112      4F574552 
 4113              		.ident	"GCC: (GNU Tools for ARM Embedded Processors) 4.9.3 20150303 (release) [ARM/embedded-4_9-br
