ARM GAS  C:\Users\Helon\AppData\Local\Temp\cc5apkO7.s 			page 1


   1              		.cpu cortex-m0
   2              		.fpu softvfp
   3              		.eabi_attribute 20, 1
   4              		.eabi_attribute 21, 1
   5              		.eabi_attribute 23, 3
   6              		.eabi_attribute 24, 1
   7              		.eabi_attribute 25, 1
   8              		.eabi_attribute 26, 1
   9              		.eabi_attribute 30, 4
  10              		.eabi_attribute 34, 0
  11              		.eabi_attribute 18, 4
  12              		.code	16
  13              		.file	"BLE_HAL_PVT.c"
  14              		.text
  15              	.Ltext0:
  16              		.cfi_sections	.debug_frame
  17              		.section	.text.CyBLE_Nvram_Write,"ax",%progbits
  18              		.align	1
  19              		.global	CyBLE_Nvram_Write
  20              		.code	16
  21              		.thumb_func
  22              		.type	CyBLE_Nvram_Write, %function
  23              	CyBLE_Nvram_Write:
  24              	.LFB2:
  25              		.file 1 ".\\Generated_Source\\PSoC4\\BLE_HAL_PVT.c"
   1:.\Generated_Source\PSoC4/BLE_HAL_PVT.c **** /***************************************************************************//**
   2:.\Generated_Source\PSoC4/BLE_HAL_PVT.c **** * \file CYBLE_HAL_PVT.c
   3:.\Generated_Source\PSoC4/BLE_HAL_PVT.c **** * \version 2.30
   4:.\Generated_Source\PSoC4/BLE_HAL_PVT.c **** *
   5:.\Generated_Source\PSoC4/BLE_HAL_PVT.c **** * \brief
   6:.\Generated_Source\PSoC4/BLE_HAL_PVT.c **** *  This file contains the source code for the HAL section of the BLE component
   7:.\Generated_Source\PSoC4/BLE_HAL_PVT.c **** *
   8:.\Generated_Source\PSoC4/BLE_HAL_PVT.c **** ********************************************************************************
   9:.\Generated_Source\PSoC4/BLE_HAL_PVT.c **** * \copyright
  10:.\Generated_Source\PSoC4/BLE_HAL_PVT.c **** * Copyright 2014-2015, Cypress Semiconductor Corporation.  All rights reserved.
  11:.\Generated_Source\PSoC4/BLE_HAL_PVT.c **** * You may use this file only in accordance with the license, terms, conditions,
  12:.\Generated_Source\PSoC4/BLE_HAL_PVT.c **** * disclaimers, and limitations in the end user license agreement accompanying
  13:.\Generated_Source\PSoC4/BLE_HAL_PVT.c **** * the software package with which this file was provided.
  14:.\Generated_Source\PSoC4/BLE_HAL_PVT.c **** *******************************************************************************/
  15:.\Generated_Source\PSoC4/BLE_HAL_PVT.c **** 
  16:.\Generated_Source\PSoC4/BLE_HAL_PVT.c **** #include "BLE_HAL_PVT.h"
  17:.\Generated_Source\PSoC4/BLE_HAL_PVT.c **** 
  18:.\Generated_Source\PSoC4/BLE_HAL_PVT.c **** 
  19:.\Generated_Source\PSoC4/BLE_HAL_PVT.c **** #if(CYBLE_MODE == CYBLE_HCI)
  20:.\Generated_Source\PSoC4/BLE_HAL_PVT.c **** 
  21:.\Generated_Source\PSoC4/BLE_HAL_PVT.c **** 
  22:.\Generated_Source\PSoC4/BLE_HAL_PVT.c **** /*******************************************************************************
  23:.\Generated_Source\PSoC4/BLE_HAL_PVT.c **** * Function Name: CyBLE_Uart_Start
  24:.\Generated_Source\PSoC4/BLE_HAL_PVT.c **** ****************************************************************************//**
  25:.\Generated_Source\PSoC4/BLE_HAL_PVT.c **** *
  26:.\Generated_Source\PSoC4/BLE_HAL_PVT.c **** *  Enables the platform UART Tx and RX interrupts and then enables the UART
  27:.\Generated_Source\PSoC4/BLE_HAL_PVT.c **** *  component.
  28:.\Generated_Source\PSoC4/BLE_HAL_PVT.c **** *
  29:.\Generated_Source\PSoC4/BLE_HAL_PVT.c **** * \return
  30:.\Generated_Source\PSoC4/BLE_HAL_PVT.c **** *  None
  31:.\Generated_Source\PSoC4/BLE_HAL_PVT.c **** *
  32:.\Generated_Source\PSoC4/BLE_HAL_PVT.c **** *******************************************************************************/
ARM GAS  C:\Users\Helon\AppData\Local\Temp\cc5apkO7.s 			page 2


  33:.\Generated_Source\PSoC4/BLE_HAL_PVT.c **** void CyBLE_Uart_Start (void)
  34:.\Generated_Source\PSoC4/BLE_HAL_PVT.c **** {
  35:.\Generated_Source\PSoC4/BLE_HAL_PVT.c ****     /* Setup ISR */
  36:.\Generated_Source\PSoC4/BLE_HAL_PVT.c ****     BLE_uart_isr_StartEx(&CyBLE_Uart_Interrupt);
  37:.\Generated_Source\PSoC4/BLE_HAL_PVT.c **** 
  38:.\Generated_Source\PSoC4/BLE_HAL_PVT.c ****     BLE_HAL_Uart_Start();
  39:.\Generated_Source\PSoC4/BLE_HAL_PVT.c **** }
  40:.\Generated_Source\PSoC4/BLE_HAL_PVT.c **** 
  41:.\Generated_Source\PSoC4/BLE_HAL_PVT.c **** 
  42:.\Generated_Source\PSoC4/BLE_HAL_PVT.c **** /*******************************************************************************
  43:.\Generated_Source\PSoC4/BLE_HAL_PVT.c **** * Function Name: CyBLE_Uart_Stop
  44:.\Generated_Source\PSoC4/BLE_HAL_PVT.c **** ****************************************************************************//**
  45:.\Generated_Source\PSoC4/BLE_HAL_PVT.c **** *
  46:.\Generated_Source\PSoC4/BLE_HAL_PVT.c **** *  Disables the UART, clears all pending interrupts and disables the UART Tx
  47:.\Generated_Source\PSoC4/BLE_HAL_PVT.c **** *  and RX interrupts. This will also empty out the FIFOs.
  48:.\Generated_Source\PSoC4/BLE_HAL_PVT.c **** *
  49:.\Generated_Source\PSoC4/BLE_HAL_PVT.c **** * \return
  50:.\Generated_Source\PSoC4/BLE_HAL_PVT.c **** *  None
  51:.\Generated_Source\PSoC4/BLE_HAL_PVT.c **** *
  52:.\Generated_Source\PSoC4/BLE_HAL_PVT.c **** *******************************************************************************/
  53:.\Generated_Source\PSoC4/BLE_HAL_PVT.c **** void CyBLE_Uart_Stop (void)
  54:.\Generated_Source\PSoC4/BLE_HAL_PVT.c **** {
  55:.\Generated_Source\PSoC4/BLE_HAL_PVT.c ****     /* Stop interrupt and UART */
  56:.\Generated_Source\PSoC4/BLE_HAL_PVT.c ****     BLE_uart_isr_Stop();
  57:.\Generated_Source\PSoC4/BLE_HAL_PVT.c **** 
  58:.\Generated_Source\PSoC4/BLE_HAL_PVT.c ****     BLE_HAL_Uart_Stop();
  59:.\Generated_Source\PSoC4/BLE_HAL_PVT.c **** }
  60:.\Generated_Source\PSoC4/BLE_HAL_PVT.c **** 
  61:.\Generated_Source\PSoC4/BLE_HAL_PVT.c **** 
  62:.\Generated_Source\PSoC4/BLE_HAL_PVT.c **** /*******************************************************************************
  63:.\Generated_Source\PSoC4/BLE_HAL_PVT.c **** * Function Name: CyBLE_Uart_Transmit
  64:.\Generated_Source\PSoC4/BLE_HAL_PVT.c **** ****************************************************************************//**
  65:.\Generated_Source\PSoC4/BLE_HAL_PVT.c **** *
  66:.\Generated_Source\PSoC4/BLE_HAL_PVT.c **** *  Sends the data to Uart Tx FIFO. The API handles data length up to the 
  67:.\Generated_Source\PSoC4/BLE_HAL_PVT.c **** *  supported Tx FIFO length of the uart hardware module.
  68:.\Generated_Source\PSoC4/BLE_HAL_PVT.c **** *
  69:.\Generated_Source\PSoC4/BLE_HAL_PVT.c **** *  \param data: Pointer to the data to send through the UART
  70:.\Generated_Source\PSoC4/BLE_HAL_PVT.c **** *  \param length: the length of data to transmit in bytes
  71:.\Generated_Source\PSoC4/BLE_HAL_PVT.c **** *
  72:.\Generated_Source\PSoC4/BLE_HAL_PVT.c **** * \return
  73:.\Generated_Source\PSoC4/BLE_HAL_PVT.c **** *  None
  74:.\Generated_Source\PSoC4/BLE_HAL_PVT.c **** *
  75:.\Generated_Source\PSoC4/BLE_HAL_PVT.c **** *******************************************************************************/
  76:.\Generated_Source\PSoC4/BLE_HAL_PVT.c **** void CyBLE_Uart_Transmit (const uint8 *dataBuf, uint8 length)
  77:.\Generated_Source\PSoC4/BLE_HAL_PVT.c **** {
  78:.\Generated_Source\PSoC4/BLE_HAL_PVT.c ****     BLE_HAL_Uart_SpiUartPutArray(dataBuf, (uint32)length);
  79:.\Generated_Source\PSoC4/BLE_HAL_PVT.c **** }
  80:.\Generated_Source\PSoC4/BLE_HAL_PVT.c **** 
  81:.\Generated_Source\PSoC4/BLE_HAL_PVT.c **** #endif /* (CYBLE_MODE == CYBLE_HCI) */
  82:.\Generated_Source\PSoC4/BLE_HAL_PVT.c **** 
  83:.\Generated_Source\PSoC4/BLE_HAL_PVT.c **** 
  84:.\Generated_Source\PSoC4/BLE_HAL_PVT.c **** /*******************************************************************************
  85:.\Generated_Source\PSoC4/BLE_HAL_PVT.c **** * Function Name: CyBLE_Nvram_Write
  86:.\Generated_Source\PSoC4/BLE_HAL_PVT.c **** ****************************************************************************//**
  87:.\Generated_Source\PSoC4/BLE_HAL_PVT.c **** *
  88:.\Generated_Source\PSoC4/BLE_HAL_PVT.c **** *  This API writes the data to the NVRAM store. It will check the appropriate
  89:.\Generated_Source\PSoC4/BLE_HAL_PVT.c **** *  alignment of a start address and also perform an address range check based
ARM GAS  C:\Users\Helon\AppData\Local\Temp\cc5apkO7.s 			page 3


  90:.\Generated_Source\PSoC4/BLE_HAL_PVT.c **** *  on the length before performing the write operation.
  91:.\Generated_Source\PSoC4/BLE_HAL_PVT.c **** *  This function performs memory compare and writes only row where there are new
  92:.\Generated_Source\PSoC4/BLE_HAL_PVT.c **** *  data to write.
  93:.\Generated_Source\PSoC4/BLE_HAL_PVT.c **** *
  94:.\Generated_Source\PSoC4/BLE_HAL_PVT.c **** *  \param buffer:   Pointer to the buffer containing the data to be stored.
  95:.\Generated_Source\PSoC4/BLE_HAL_PVT.c **** *  \param varFlash: Pointer to the array or variable in the flash.
  96:.\Generated_Source\PSoC4/BLE_HAL_PVT.c **** *  \param length:    The length of the data in bytes.
  97:.\Generated_Source\PSoC4/BLE_HAL_PVT.c **** *
  98:.\Generated_Source\PSoC4/BLE_HAL_PVT.c **** * \return
  99:.\Generated_Source\PSoC4/BLE_HAL_PVT.c **** *  CYRET_SUCCESS    a successful write
 100:.\Generated_Source\PSoC4/BLE_HAL_PVT.c **** *  CYRET_BAD_PARAM  A request to write outside the flash boundary.
 101:.\Generated_Source\PSoC4/BLE_HAL_PVT.c **** *  CYRET_UNKNOWN    Other errors in writing the flash
 102:.\Generated_Source\PSoC4/BLE_HAL_PVT.c **** *
 103:.\Generated_Source\PSoC4/BLE_HAL_PVT.c **** * \sideeffect
 104:.\Generated_Source\PSoC4/BLE_HAL_PVT.c **** *  For BLE devices with 128K of Flash memory this API will automatically 
 105:.\Generated_Source\PSoC4/BLE_HAL_PVT.c **** *  modify the clock settings for the device.
 106:.\Generated_Source\PSoC4/BLE_HAL_PVT.c **** *  Writing to flash requires changes to be done to the IMO (set to 48 MHz)
 107:.\Generated_Source\PSoC4/BLE_HAL_PVT.c **** *  and HFCLK (source set to IMO) settings. The configuration is restored before
 108:.\Generated_Source\PSoC4/BLE_HAL_PVT.c **** *  returning. This will impact the operation of most of the hardware in the
 109:.\Generated_Source\PSoC4/BLE_HAL_PVT.c **** *  device.
 110:.\Generated_Source\PSoC4/BLE_HAL_PVT.c **** *
 111:.\Generated_Source\PSoC4/BLE_HAL_PVT.c **** *******************************************************************************/
 112:.\Generated_Source\PSoC4/BLE_HAL_PVT.c **** cystatus CyBLE_Nvram_Write (const uint8 buffer[], const uint8 varFlash[], uint16 length)
 113:.\Generated_Source\PSoC4/BLE_HAL_PVT.c **** {
  26              		.loc 1 113 0
  27              		.cfi_startproc
  28              	.LVL0:
  29 0000 F0B5     		push	{r4, r5, r6, r7, lr}
  30              		.cfi_def_cfa_offset 20
  31              		.cfi_offset 4, -20
  32              		.cfi_offset 5, -16
  33              		.cfi_offset 6, -12
  34              		.cfi_offset 7, -8
  35              		.cfi_offset 14, -4
 114:.\Generated_Source\PSoC4/BLE_HAL_PVT.c ****     uint8 writeBuffer[CY_FLASH_SIZEOF_ROW];
 115:.\Generated_Source\PSoC4/BLE_HAL_PVT.c ****     uint32 rowId;
 116:.\Generated_Source\PSoC4/BLE_HAL_PVT.c ****     uint32 dstIndex;
 117:.\Generated_Source\PSoC4/BLE_HAL_PVT.c ****     uint32 srcIndex = 0u;
 118:.\Generated_Source\PSoC4/BLE_HAL_PVT.c ****     cystatus rc = CYRET_SUCCESS;
 119:.\Generated_Source\PSoC4/BLE_HAL_PVT.c ****     uint32 eeOffset;
 120:.\Generated_Source\PSoC4/BLE_HAL_PVT.c ****     uint32 byteOffset;
 121:.\Generated_Source\PSoC4/BLE_HAL_PVT.c ****     uint32 rowsNotEqual;
 122:.\Generated_Source\PSoC4/BLE_HAL_PVT.c **** 
 123:.\Generated_Source\PSoC4/BLE_HAL_PVT.c ****     eeOffset = (uint32)varFlash;
 124:.\Generated_Source\PSoC4/BLE_HAL_PVT.c **** 
 125:.\Generated_Source\PSoC4/BLE_HAL_PVT.c ****     /* Make sure, that varFlash[] points to Flash */
 126:.\Generated_Source\PSoC4/BLE_HAL_PVT.c ****     if ((eeOffset + length) < CYBLE_HAL_FLASH_END_ADDR)
  36              		.loc 1 126 0
  37 0002 1F4C     		ldr	r4, .L19
  38 0004 8D18     		add	r5, r1, r2
 113:.\Generated_Source\PSoC4/BLE_HAL_PVT.c ****     uint8 writeBuffer[CY_FLASH_SIZEOF_ROW];
  39              		.loc 1 113 0
  40 0006 031C     		mov	r3, r0
  41 0008 A5B0     		sub	sp, sp, #148
  42              		.cfi_def_cfa_offset 168
 127:.\Generated_Source\PSoC4/BLE_HAL_PVT.c ****     {
 128:.\Generated_Source\PSoC4/BLE_HAL_PVT.c ****         rowId = eeOffset / CY_FLASH_SIZEOF_ROW;
ARM GAS  C:\Users\Helon\AppData\Local\Temp\cc5apkO7.s 			page 4


 129:.\Generated_Source\PSoC4/BLE_HAL_PVT.c ****         byteOffset = CY_FLASH_SIZEOF_ROW * rowId;
 130:.\Generated_Source\PSoC4/BLE_HAL_PVT.c **** 
 131:.\Generated_Source\PSoC4/BLE_HAL_PVT.c ****         while ((srcIndex < length) && (CYRET_SUCCESS == rc))
 132:.\Generated_Source\PSoC4/BLE_HAL_PVT.c ****         {
 133:.\Generated_Source\PSoC4/BLE_HAL_PVT.c ****             rowsNotEqual = 0u;
 134:.\Generated_Source\PSoC4/BLE_HAL_PVT.c ****             /* Copy data to the write buffer either from the source buffer or from the flash */
 135:.\Generated_Source\PSoC4/BLE_HAL_PVT.c ****             for (dstIndex = 0u; dstIndex < CY_FLASH_SIZEOF_ROW; dstIndex++)
 136:.\Generated_Source\PSoC4/BLE_HAL_PVT.c ****             {
 137:.\Generated_Source\PSoC4/BLE_HAL_PVT.c ****                 if ((byteOffset >= eeOffset) && (srcIndex < length))
 138:.\Generated_Source\PSoC4/BLE_HAL_PVT.c ****                 {
 139:.\Generated_Source\PSoC4/BLE_HAL_PVT.c ****                     /* Detect that row programming is required */
 140:.\Generated_Source\PSoC4/BLE_HAL_PVT.c ****                     if(writeBuffer[dstIndex] != buffer[srcIndex])
 141:.\Generated_Source\PSoC4/BLE_HAL_PVT.c ****                     {
 142:.\Generated_Source\PSoC4/BLE_HAL_PVT.c ****                         writeBuffer[dstIndex] = buffer[srcIndex];
 143:.\Generated_Source\PSoC4/BLE_HAL_PVT.c ****                         rowsNotEqual = 1u;  
 144:.\Generated_Source\PSoC4/BLE_HAL_PVT.c ****                     }
 145:.\Generated_Source\PSoC4/BLE_HAL_PVT.c ****                     srcIndex++;
 146:.\Generated_Source\PSoC4/BLE_HAL_PVT.c ****                 }
 147:.\Generated_Source\PSoC4/BLE_HAL_PVT.c ****                 else
 148:.\Generated_Source\PSoC4/BLE_HAL_PVT.c ****                 {
 149:.\Generated_Source\PSoC4/BLE_HAL_PVT.c ****                     writeBuffer[dstIndex] = CY_GET_XTND_REG8(CYDEV_FLASH_BASE + byteOffset);
 150:.\Generated_Source\PSoC4/BLE_HAL_PVT.c ****                 }
 151:.\Generated_Source\PSoC4/BLE_HAL_PVT.c ****                 byteOffset++;
 152:.\Generated_Source\PSoC4/BLE_HAL_PVT.c ****             }
 153:.\Generated_Source\PSoC4/BLE_HAL_PVT.c **** 
 154:.\Generated_Source\PSoC4/BLE_HAL_PVT.c ****             if(rowsNotEqual != 0u)
 155:.\Generated_Source\PSoC4/BLE_HAL_PVT.c ****             {
 156:.\Generated_Source\PSoC4/BLE_HAL_PVT.c ****                 /* Write flash row */
 157:.\Generated_Source\PSoC4/BLE_HAL_PVT.c ****                 rc = CySysFlashWriteRow(rowId, writeBuffer);
 158:.\Generated_Source\PSoC4/BLE_HAL_PVT.c ****             }
 159:.\Generated_Source\PSoC4/BLE_HAL_PVT.c **** 
 160:.\Generated_Source\PSoC4/BLE_HAL_PVT.c ****             /* Go to the next row */
 161:.\Generated_Source\PSoC4/BLE_HAL_PVT.c ****             rowId++;
 162:.\Generated_Source\PSoC4/BLE_HAL_PVT.c ****         }
 163:.\Generated_Source\PSoC4/BLE_HAL_PVT.c ****     }
 164:.\Generated_Source\PSoC4/BLE_HAL_PVT.c ****     else
 165:.\Generated_Source\PSoC4/BLE_HAL_PVT.c ****     {
 166:.\Generated_Source\PSoC4/BLE_HAL_PVT.c ****         rc = CYRET_BAD_PARAM;
  43              		.loc 1 166 0
  44 000a 0120     		mov	r0, #1
  45              	.LVL1:
 126:.\Generated_Source\PSoC4/BLE_HAL_PVT.c ****     {
  46              		.loc 1 126 0
  47 000c A542     		cmp	r5, r4
  48 000e 35D8     		bhi	.L10
 118:.\Generated_Source\PSoC4/BLE_HAL_PVT.c ****     uint32 eeOffset;
  49              		.loc 1 118 0
  50 0010 0020     		mov	r0, #0
  51 0012 161C     		mov	r6, r2
 117:.\Generated_Source\PSoC4/BLE_HAL_PVT.c ****     cystatus rc = CYRET_SUCCESS;
  52              		.loc 1 117 0
  53 0014 051C     		mov	r5, r0
 128:.\Generated_Source\PSoC4/BLE_HAL_PVT.c ****         byteOffset = CY_FLASH_SIZEOF_ROW * rowId;
  54              		.loc 1 128 0
  55 0016 CF09     		lsr	r7, r1, #7
  56              	.LVL2:
  57 0018 0393     		str	r3, [sp, #12]
ARM GAS  C:\Users\Helon\AppData\Local\Temp\cc5apkO7.s 			page 5


  58 001a 04AC     		add	r4, sp, #16
 129:.\Generated_Source\PSoC4/BLE_HAL_PVT.c **** 
  59              		.loc 1 129 0
  60 001c FB01     		lsl	r3, r7, #7
  61              	.LVL3:
  62 001e 0291     		str	r1, [sp, #8]
  63 0020 E41A     		sub	r4, r4, r3
  64              	.LVL4:
  65              	.L3:
 131:.\Generated_Source\PSoC4/BLE_HAL_PVT.c ****         {
  66              		.loc 1 131 0
  67 0022 B542     		cmp	r5, r6
  68 0024 04D3     		bcc	.L9
  69              	.L11:
 167:.\Generated_Source\PSoC4/BLE_HAL_PVT.c ****     }
 168:.\Generated_Source\PSoC4/BLE_HAL_PVT.c **** 
 169:.\Generated_Source\PSoC4/BLE_HAL_PVT.c ****     /* Mask return codes from flash, if they are not supported */
 170:.\Generated_Source\PSoC4/BLE_HAL_PVT.c ****     if ((CYRET_SUCCESS != rc) && (CYRET_BAD_PARAM != rc))
  70              		.loc 1 170 0
  71 0026 0128     		cmp	r0, #1
  72 0028 28D9     		bls	.L10
 171:.\Generated_Source\PSoC4/BLE_HAL_PVT.c ****     {
 172:.\Generated_Source\PSoC4/BLE_HAL_PVT.c ****         rc = CYRET_UNKNOWN;
  73              		.loc 1 172 0
  74 002a 0120     		mov	r0, #1
  75              	.LVL5:
  76 002c 4042     		neg	r0, r0
  77 002e 25E0     		b	.L10
  78              	.LVL6:
  79              	.L9:
 131:.\Generated_Source\PSoC4/BLE_HAL_PVT.c ****         {
  80              		.loc 1 131 0 discriminator 1
  81 0030 0028     		cmp	r0, #0
  82 0032 F8D1     		bne	.L11
  83 0034 1A1C     		mov	r2, r3
  84 0036 8032     		add	r2, r2, #128
  85 0038 0192     		str	r2, [sp, #4]
 131:.\Generated_Source\PSoC4/BLE_HAL_PVT.c ****         {
  86              		.loc 1 131 0 is_stmt 0
  87 003a 0090     		str	r0, [sp]
  88              	.L7:
  89              	.LVL7:
 137:.\Generated_Source\PSoC4/BLE_HAL_PVT.c ****                 {
  90              		.loc 1 137 0 is_stmt 1
  91 003c 0299     		ldr	r1, [sp, #8]
  92 003e 9942     		cmp	r1, r3
  93 0040 0BD8     		bhi	.L4
 137:.\Generated_Source\PSoC4/BLE_HAL_PVT.c ****                 {
  94              		.loc 1 137 0 is_stmt 0 discriminator 1
  95 0042 B542     		cmp	r5, r6
  96 0044 09D2     		bcs	.L4
 140:.\Generated_Source\PSoC4/BLE_HAL_PVT.c ****                     {
  97              		.loc 1 140 0 is_stmt 1
  98 0046 0399     		ldr	r1, [sp, #12]
  99 0048 E25C     		ldrb	r2, [r4, r3]
 100 004a 495D     		ldrb	r1, [r1, r5]
 101 004c 8A42     		cmp	r2, r1
ARM GAS  C:\Users\Helon\AppData\Local\Temp\cc5apkO7.s 			page 6


 102 004e 02D0     		beq	.L5
 143:.\Generated_Source\PSoC4/BLE_HAL_PVT.c ****                     }
 103              		.loc 1 143 0
 104 0050 0122     		mov	r2, #1
 142:.\Generated_Source\PSoC4/BLE_HAL_PVT.c ****                         rowsNotEqual = 1u;  
 105              		.loc 1 142 0
 106 0052 E154     		strb	r1, [r4, r3]
 107              	.LVL8:
 143:.\Generated_Source\PSoC4/BLE_HAL_PVT.c ****                     }
 108              		.loc 1 143 0
 109 0054 0092     		str	r2, [sp]
 110              	.LVL9:
 111              	.L5:
 145:.\Generated_Source\PSoC4/BLE_HAL_PVT.c ****                 }
 112              		.loc 1 145 0
 113 0056 0135     		add	r5, r5, #1
 114              	.LVL10:
 115 0058 01E0     		b	.L6
 116              	.L4:
 149:.\Generated_Source\PSoC4/BLE_HAL_PVT.c ****                 }
 117              		.loc 1 149 0
 118 005a 1978     		ldrb	r1, [r3]
 119 005c E154     		strb	r1, [r4, r3]
 120              	.L6:
 135:.\Generated_Source\PSoC4/BLE_HAL_PVT.c ****             {
 121              		.loc 1 135 0 discriminator 2
 122 005e 019A     		ldr	r2, [sp, #4]
 151:.\Generated_Source\PSoC4/BLE_HAL_PVT.c ****             }
 123              		.loc 1 151 0 discriminator 2
 124 0060 0133     		add	r3, r3, #1
 125              	.LVL11:
 135:.\Generated_Source\PSoC4/BLE_HAL_PVT.c ****             {
 126              		.loc 1 135 0 discriminator 2
 127 0062 9342     		cmp	r3, r2
 128 0064 EAD1     		bne	.L7
 154:.\Generated_Source\PSoC4/BLE_HAL_PVT.c ****             {
 129              		.loc 1 154 0
 130 0066 009B     		ldr	r3, [sp]
 131              	.LVL12:
 132 0068 002B     		cmp	r3, #0
 133 006a 03D0     		beq	.L8
 157:.\Generated_Source\PSoC4/BLE_HAL_PVT.c ****             }
 134              		.loc 1 157 0
 135 006c 381C     		mov	r0, r7
 136              	.LVL13:
 137 006e 04A9     		add	r1, sp, #16
 138 0070 FFF7FEFF 		bl	CySysFlashWriteRow
 139              	.LVL14:
 140              	.L8:
 161:.\Generated_Source\PSoC4/BLE_HAL_PVT.c ****         }
 141              		.loc 1 161 0
 142 0074 0137     		add	r7, r7, #1
 143              	.LVL15:
 144 0076 803C     		sub	r4, r4, #128
 145 0078 019B     		ldr	r3, [sp, #4]
 146 007a D2E7     		b	.L3
 147              	.LVL16:
ARM GAS  C:\Users\Helon\AppData\Local\Temp\cc5apkO7.s 			page 7


 148              	.L10:
 173:.\Generated_Source\PSoC4/BLE_HAL_PVT.c ****     }
 174:.\Generated_Source\PSoC4/BLE_HAL_PVT.c ****     
 175:.\Generated_Source\PSoC4/BLE_HAL_PVT.c ****     return (rc);
 176:.\Generated_Source\PSoC4/BLE_HAL_PVT.c **** }
 149              		.loc 1 176 0
 150 007c 25B0     		add	sp, sp, #148
 151              		@ sp needed
 152 007e F0BD     		pop	{r4, r5, r6, r7, pc}
 153              	.L20:
 154              		.align	2
 155              	.L19:
 156 0080 FFFF0100 		.word	131071
 157              		.cfi_endproc
 158              	.LFE2:
 159              		.size	CyBLE_Nvram_Write, .-CyBLE_Nvram_Write
 160              		.section	.text.CyBLE_Nvram_Erase,"ax",%progbits
 161              		.align	1
 162              		.global	CyBLE_Nvram_Erase
 163              		.code	16
 164              		.thumb_func
 165              		.type	CyBLE_Nvram_Erase, %function
 166              	CyBLE_Nvram_Erase:
 167              	.LFB3:
 177:.\Generated_Source\PSoC4/BLE_HAL_PVT.c **** 
 178:.\Generated_Source\PSoC4/BLE_HAL_PVT.c **** /*******************************************************************************
 179:.\Generated_Source\PSoC4/BLE_HAL_PVT.c **** * Function Name: CyBLE_Nvram_Erase
 180:.\Generated_Source\PSoC4/BLE_HAL_PVT.c **** ****************************************************************************//**
 181:.\Generated_Source\PSoC4/BLE_HAL_PVT.c **** *
 182:.\Generated_Source\PSoC4/BLE_HAL_PVT.c **** *  This API erases the data from the NVRAM store. This API will perform an 
 183:.\Generated_Source\PSoC4/BLE_HAL_PVT.c **** *  address range check based on the length before performing erase operation.
 184:.\Generated_Source\PSoC4/BLE_HAL_PVT.c **** *
 185:.\Generated_Source\PSoC4/BLE_HAL_PVT.c **** *  \param varFlash: the pointer to the array or variable in the flash.
 186:.\Generated_Source\PSoC4/BLE_HAL_PVT.c **** *  \param length:    the length of the data in bytes.
 187:.\Generated_Source\PSoC4/BLE_HAL_PVT.c **** *
 188:.\Generated_Source\PSoC4/BLE_HAL_PVT.c **** * \return
 189:.\Generated_Source\PSoC4/BLE_HAL_PVT.c **** *  CYRET_SUCCESS    a successful write
 190:.\Generated_Source\PSoC4/BLE_HAL_PVT.c **** *  CYRET_BAD_PARAM  A request to write outside the flash boundary.
 191:.\Generated_Source\PSoC4/BLE_HAL_PVT.c **** *  CYRET_UNKNOWN    Other errors in writing the flash
 192:.\Generated_Source\PSoC4/BLE_HAL_PVT.c **** *
 193:.\Generated_Source\PSoC4/BLE_HAL_PVT.c **** *******************************************************************************/
 194:.\Generated_Source\PSoC4/BLE_HAL_PVT.c **** cystatus CyBLE_Nvram_Erase (const uint8 *varFlash, uint16 length)
 195:.\Generated_Source\PSoC4/BLE_HAL_PVT.c **** {
 168              		.loc 1 195 0
 169              		.cfi_startproc
 170              	.LVL17:
 171 0000 70B5     		push	{r4, r5, r6, lr}
 172              		.cfi_def_cfa_offset 16
 173              		.cfi_offset 4, -16
 174              		.cfi_offset 5, -12
 175              		.cfi_offset 6, -8
 176              		.cfi_offset 14, -4
 177 0002 A0B0     		sub	sp, sp, #128
 178              		.cfi_def_cfa_offset 144
 179              		.loc 1 195 0
 180 0004 051C     		mov	r5, r0
 181 0006 0C1C     		mov	r4, r1
ARM GAS  C:\Users\Helon\AppData\Local\Temp\cc5apkO7.s 			page 8


 196:.\Generated_Source\PSoC4/BLE_HAL_PVT.c ****     const uint8 *tempFlash;
 197:.\Generated_Source\PSoC4/BLE_HAL_PVT.c ****     uint8 flashBuffer[CY_FLASH_SIZEOF_ROW] = {0u};
 182              		.loc 1 197 0
 183 0008 6846     		mov	r0, sp
 184              	.LVL18:
 185 000a 0021     		mov	r1, #0
 186              	.LVL19:
 187 000c 8022     		mov	r2, #128
 188 000e FFF7FEFF 		bl	memset
 189              	.LVL20:
 198:.\Generated_Source\PSoC4/BLE_HAL_PVT.c ****     uint16 lengthFlash;
 199:.\Generated_Source\PSoC4/BLE_HAL_PVT.c ****     uint16 lengthRemaining;
 200:.\Generated_Source\PSoC4/BLE_HAL_PVT.c ****     cystatus rc = CYRET_UNKNOWN;
 190              		.loc 1 200 0
 191 0012 0120     		mov	r0, #1
 192 0014 4042     		neg	r0, r0
 193              	.LVL21:
 194              	.L22:
 201:.\Generated_Source\PSoC4/BLE_HAL_PVT.c **** 
 202:.\Generated_Source\PSoC4/BLE_HAL_PVT.c ****     tempFlash = varFlash;
 203:.\Generated_Source\PSoC4/BLE_HAL_PVT.c ****     lengthRemaining = length;
 204:.\Generated_Source\PSoC4/BLE_HAL_PVT.c **** 
 205:.\Generated_Source\PSoC4/BLE_HAL_PVT.c ****     while(lengthRemaining > 0u)
 195              		.loc 1 205 0
 196 0016 002C     		cmp	r4, #0
 197 0018 0ED0     		beq	.L24
 206:.\Generated_Source\PSoC4/BLE_HAL_PVT.c ****     {
 207:.\Generated_Source\PSoC4/BLE_HAL_PVT.c ****         if(lengthRemaining < CY_FLASH_SIZEOF_ROW)
 208:.\Generated_Source\PSoC4/BLE_HAL_PVT.c ****         {
 209:.\Generated_Source\PSoC4/BLE_HAL_PVT.c ****             lengthFlash = lengthRemaining;
 210:.\Generated_Source\PSoC4/BLE_HAL_PVT.c ****         }
 211:.\Generated_Source\PSoC4/BLE_HAL_PVT.c ****         else
 212:.\Generated_Source\PSoC4/BLE_HAL_PVT.c ****         {
 213:.\Generated_Source\PSoC4/BLE_HAL_PVT.c ****             lengthFlash = CY_FLASH_SIZEOF_ROW;
 198              		.loc 1 213 0
 199 001a 8026     		mov	r6, #128
 207:.\Generated_Source\PSoC4/BLE_HAL_PVT.c ****         {
 200              		.loc 1 207 0
 201 001c 7F2C     		cmp	r4, #127
 202 001e 00D8     		bhi	.L23
 203 0020 261C     		mov	r6, r4
 204              	.L23:
 205              	.LVL22:
 214:.\Generated_Source\PSoC4/BLE_HAL_PVT.c ****         }
 215:.\Generated_Source\PSoC4/BLE_HAL_PVT.c ****         rc = CyBLE_Nvram_Write(flashBuffer, tempFlash, lengthFlash);
 206              		.loc 1 215 0
 207 0022 6846     		mov	r0, sp
 208              	.LVL23:
 209 0024 291C     		mov	r1, r5
 210 0026 321C     		mov	r2, r6
 211 0028 FFF7FEFF 		bl	CyBLE_Nvram_Write
 212              	.LVL24:
 216:.\Generated_Source\PSoC4/BLE_HAL_PVT.c ****         if(rc != CYRET_SUCCESS)
 213              		.loc 1 216 0
 214 002c 0028     		cmp	r0, #0
 215 002e 03D1     		bne	.L24
 217:.\Generated_Source\PSoC4/BLE_HAL_PVT.c ****         {
ARM GAS  C:\Users\Helon\AppData\Local\Temp\cc5apkO7.s 			page 9


 218:.\Generated_Source\PSoC4/BLE_HAL_PVT.c ****             break;
 219:.\Generated_Source\PSoC4/BLE_HAL_PVT.c ****         }
 220:.\Generated_Source\PSoC4/BLE_HAL_PVT.c ****         tempFlash += CY_FLASH_SIZEOF_ROW;
 221:.\Generated_Source\PSoC4/BLE_HAL_PVT.c ****         lengthRemaining -= lengthFlash;
 216              		.loc 1 221 0
 217 0030 A41B     		sub	r4, r4, r6
 218              	.LVL25:
 220:.\Generated_Source\PSoC4/BLE_HAL_PVT.c ****         lengthRemaining -= lengthFlash;
 219              		.loc 1 220 0
 220 0032 8035     		add	r5, r5, #128
 221              	.LVL26:
 222              		.loc 1 221 0
 223 0034 A4B2     		uxth	r4, r4
 224              	.LVL27:
 225 0036 EEE7     		b	.L22
 226              	.LVL28:
 227              	.L24:
 222:.\Generated_Source\PSoC4/BLE_HAL_PVT.c ****     }
 223:.\Generated_Source\PSoC4/BLE_HAL_PVT.c **** 
 224:.\Generated_Source\PSoC4/BLE_HAL_PVT.c ****     return rc;
 225:.\Generated_Source\PSoC4/BLE_HAL_PVT.c **** }
 228              		.loc 1 225 0
 229 0038 20B0     		add	sp, sp, #128
 230              		@ sp needed
 231              	.LVL29:
 232              	.LVL30:
 233 003a 70BD     		pop	{r4, r5, r6, pc}
 234              		.cfi_endproc
 235              	.LFE3:
 236              		.size	CyBLE_Nvram_Erase, .-CyBLE_Nvram_Erase
 237              		.section	.text.CyBLE_Bless_LlRegRead,"ax",%progbits
 238              		.align	1
 239              		.global	CyBLE_Bless_LlRegRead
 240              		.code	16
 241              		.thumb_func
 242              		.type	CyBLE_Bless_LlRegRead, %function
 243              	CyBLE_Bless_LlRegRead:
 244              	.LFB4:
 226:.\Generated_Source\PSoC4/BLE_HAL_PVT.c **** 
 227:.\Generated_Source\PSoC4/BLE_HAL_PVT.c **** 
 228:.\Generated_Source\PSoC4/BLE_HAL_PVT.c **** /*******************************************************************************
 229:.\Generated_Source\PSoC4/BLE_HAL_PVT.c **** * Function Name: CyBLE_Bless_LlRegRead
 230:.\Generated_Source\PSoC4/BLE_HAL_PVT.c **** ****************************************************************************//**
 231:.\Generated_Source\PSoC4/BLE_HAL_PVT.c **** *
 232:.\Generated_Source\PSoC4/BLE_HAL_PVT.c **** *  This API reads the content of the BLESS Link Layer register from the stack.
 233:.\Generated_Source\PSoC4/BLE_HAL_PVT.c **** *
 234:.\Generated_Source\PSoC4/BLE_HAL_PVT.c **** *  \param blessAddr: the pointer to the BLESS link layer address.
 235:.\Generated_Source\PSoC4/BLE_HAL_PVT.c **** *  \param regValue: the pointer to the buffer space to copy the read value.
 236:.\Generated_Source\PSoC4/BLE_HAL_PVT.c **** *
 237:.\Generated_Source\PSoC4/BLE_HAL_PVT.c **** * \return
 238:.\Generated_Source\PSoC4/BLE_HAL_PVT.c **** *  None
 239:.\Generated_Source\PSoC4/BLE_HAL_PVT.c **** *
 240:.\Generated_Source\PSoC4/BLE_HAL_PVT.c **** *******************************************************************************/
 241:.\Generated_Source\PSoC4/BLE_HAL_PVT.c **** void CyBLE_Bless_LlRegRead (const reg32 *blessAddr, uint16 *regValue)
 242:.\Generated_Source\PSoC4/BLE_HAL_PVT.c **** {
 245              		.loc 1 242 0
 246              		.cfi_startproc
ARM GAS  C:\Users\Helon\AppData\Local\Temp\cc5apkO7.s 			page 10


 247              	.LVL31:
 243:.\Generated_Source\PSoC4/BLE_HAL_PVT.c ****     *regValue = (uint16)CY_GET_REG32(blessAddr);
 248              		.loc 1 243 0
 249 0000 0368     		ldr	r3, [r0]
 244:.\Generated_Source\PSoC4/BLE_HAL_PVT.c **** }
 250              		.loc 1 244 0
 251              		@ sp needed
 243:.\Generated_Source\PSoC4/BLE_HAL_PVT.c ****     *regValue = (uint16)CY_GET_REG32(blessAddr);
 252              		.loc 1 243 0
 253 0002 0B80     		strh	r3, [r1]
 254              		.loc 1 244 0
 255 0004 7047     		bx	lr
 256              		.cfi_endproc
 257              	.LFE4:
 258              		.size	CyBLE_Bless_LlRegRead, .-CyBLE_Bless_LlRegRead
 259              		.section	.text.CyBLE_Bless_LlRegWrite,"ax",%progbits
 260              		.align	1
 261              		.global	CyBLE_Bless_LlRegWrite
 262              		.code	16
 263              		.thumb_func
 264              		.type	CyBLE_Bless_LlRegWrite, %function
 265              	CyBLE_Bless_LlRegWrite:
 266              	.LFB5:
 245:.\Generated_Source\PSoC4/BLE_HAL_PVT.c **** 
 246:.\Generated_Source\PSoC4/BLE_HAL_PVT.c **** 
 247:.\Generated_Source\PSoC4/BLE_HAL_PVT.c **** /*******************************************************************************
 248:.\Generated_Source\PSoC4/BLE_HAL_PVT.c **** * Function Name: CyBLE_Bless_LlRegWrite
 249:.\Generated_Source\PSoC4/BLE_HAL_PVT.c **** ****************************************************************************//**
 250:.\Generated_Source\PSoC4/BLE_HAL_PVT.c **** *
 251:.\Generated_Source\PSoC4/BLE_HAL_PVT.c **** *  This API writes to the BLESS Link Layer register from the stack.
 252:.\Generated_Source\PSoC4/BLE_HAL_PVT.c **** *
 253:.\Generated_Source\PSoC4/BLE_HAL_PVT.c **** *  \param blessAddr: the pointer to the BLESS link layer address.
 254:.\Generated_Source\PSoC4/BLE_HAL_PVT.c **** *  \param regValue: the pointer to the value to be written to the BLESS LL reg.
 255:.\Generated_Source\PSoC4/BLE_HAL_PVT.c **** *
 256:.\Generated_Source\PSoC4/BLE_HAL_PVT.c **** * \return
 257:.\Generated_Source\PSoC4/BLE_HAL_PVT.c **** *  None
 258:.\Generated_Source\PSoC4/BLE_HAL_PVT.c **** *
 259:.\Generated_Source\PSoC4/BLE_HAL_PVT.c **** *******************************************************************************/
 260:.\Generated_Source\PSoC4/BLE_HAL_PVT.c **** void CyBLE_Bless_LlRegWrite (reg32 *blessAddr, const uint16 regValue)
 261:.\Generated_Source\PSoC4/BLE_HAL_PVT.c **** {
 267              		.loc 1 261 0
 268              		.cfi_startproc
 269              	.LVL32:
 262:.\Generated_Source\PSoC4/BLE_HAL_PVT.c ****     CY_SET_REG32(blessAddr, regValue);
 270              		.loc 1 262 0
 271 0000 0160     		str	r1, [r0]
 263:.\Generated_Source\PSoC4/BLE_HAL_PVT.c **** }
 272              		.loc 1 263 0
 273              		@ sp needed
 274 0002 7047     		bx	lr
 275              		.cfi_endproc
 276              	.LFE5:
 277              		.size	CyBLE_Bless_LlRegWrite, .-CyBLE_Bless_LlRegWrite
 278              		.section	.text.CyBLE_Bless_RfRegRead,"ax",%progbits
 279              		.align	1
 280              		.global	CyBLE_Bless_RfRegRead
 281              		.code	16
ARM GAS  C:\Users\Helon\AppData\Local\Temp\cc5apkO7.s 			page 11


 282              		.thumb_func
 283              		.type	CyBLE_Bless_RfRegRead, %function
 284              	CyBLE_Bless_RfRegRead:
 285              	.LFB6:
 264:.\Generated_Source\PSoC4/BLE_HAL_PVT.c **** 
 265:.\Generated_Source\PSoC4/BLE_HAL_PVT.c **** 
 266:.\Generated_Source\PSoC4/BLE_HAL_PVT.c **** /*******************************************************************************
 267:.\Generated_Source\PSoC4/BLE_HAL_PVT.c **** * Function Name: CyBLE_Bless_RfRegRead
 268:.\Generated_Source\PSoC4/BLE_HAL_PVT.c **** ****************************************************************************//**
 269:.\Generated_Source\PSoC4/BLE_HAL_PVT.c **** *
 270:.\Generated_Source\PSoC4/BLE_HAL_PVT.c **** *  This API reads the content of the BLESS RF register from the stack.
 271:.\Generated_Source\PSoC4/BLE_HAL_PVT.c **** *
 272:.\Generated_Source\PSoC4/BLE_HAL_PVT.c **** *  \param blessAddr: the pointer to BLESS RF register address.
 273:.\Generated_Source\PSoC4/BLE_HAL_PVT.c **** *  \param regValue: the pointer to the buffer space to copy the read value.
 274:.\Generated_Source\PSoC4/BLE_HAL_PVT.c **** *
 275:.\Generated_Source\PSoC4/BLE_HAL_PVT.c **** * \return
 276:.\Generated_Source\PSoC4/BLE_HAL_PVT.c **** *  None
 277:.\Generated_Source\PSoC4/BLE_HAL_PVT.c **** *
 278:.\Generated_Source\PSoC4/BLE_HAL_PVT.c **** *******************************************************************************/
 279:.\Generated_Source\PSoC4/BLE_HAL_PVT.c **** void CyBLE_Bless_RfRegRead (const reg32 *blessAddr, uint16 *regValue)
 280:.\Generated_Source\PSoC4/BLE_HAL_PVT.c **** {
 286              		.loc 1 280 0
 287              		.cfi_startproc
 288              	.LVL33:
 281:.\Generated_Source\PSoC4/BLE_HAL_PVT.c ****     *regValue = (uint16)CY_GET_REG32(blessAddr);
 289              		.loc 1 281 0
 290 0000 0368     		ldr	r3, [r0]
 282:.\Generated_Source\PSoC4/BLE_HAL_PVT.c **** }
 291              		.loc 1 282 0
 292              		@ sp needed
 281:.\Generated_Source\PSoC4/BLE_HAL_PVT.c ****     *regValue = (uint16)CY_GET_REG32(blessAddr);
 293              		.loc 1 281 0
 294 0002 0B80     		strh	r3, [r1]
 295              		.loc 1 282 0
 296 0004 7047     		bx	lr
 297              		.cfi_endproc
 298              	.LFE6:
 299              		.size	CyBLE_Bless_RfRegRead, .-CyBLE_Bless_RfRegRead
 300              		.section	.text.CyBLE_Bless_RfRegWrite,"ax",%progbits
 301              		.align	1
 302              		.global	CyBLE_Bless_RfRegWrite
 303              		.code	16
 304              		.thumb_func
 305              		.type	CyBLE_Bless_RfRegWrite, %function
 306              	CyBLE_Bless_RfRegWrite:
 307              	.LFB7:
 283:.\Generated_Source\PSoC4/BLE_HAL_PVT.c **** 
 284:.\Generated_Source\PSoC4/BLE_HAL_PVT.c **** 
 285:.\Generated_Source\PSoC4/BLE_HAL_PVT.c **** /*******************************************************************************
 286:.\Generated_Source\PSoC4/BLE_HAL_PVT.c **** * Function Name: CyBLE_Bless_RfRegWrite
 287:.\Generated_Source\PSoC4/BLE_HAL_PVT.c **** ****************************************************************************//**
 288:.\Generated_Source\PSoC4/BLE_HAL_PVT.c **** *
 289:.\Generated_Source\PSoC4/BLE_HAL_PVT.c **** *  This API writes to the BLESS RF register from the stack.
 290:.\Generated_Source\PSoC4/BLE_HAL_PVT.c **** *
 291:.\Generated_Source\PSoC4/BLE_HAL_PVT.c **** *  \param blessAddr: the pointer to the BLESS RF address.
 292:.\Generated_Source\PSoC4/BLE_HAL_PVT.c **** *  \param regValue: the pointer to the value to be written to the BLESS RF reg.
 293:.\Generated_Source\PSoC4/BLE_HAL_PVT.c **** *
ARM GAS  C:\Users\Helon\AppData\Local\Temp\cc5apkO7.s 			page 12


 294:.\Generated_Source\PSoC4/BLE_HAL_PVT.c **** * \return
 295:.\Generated_Source\PSoC4/BLE_HAL_PVT.c **** *  None
 296:.\Generated_Source\PSoC4/BLE_HAL_PVT.c **** *
 297:.\Generated_Source\PSoC4/BLE_HAL_PVT.c **** *******************************************************************************/
 298:.\Generated_Source\PSoC4/BLE_HAL_PVT.c **** void CyBLE_Bless_RfRegWrite (reg32 *blessAddr, const uint16 regValue)
 299:.\Generated_Source\PSoC4/BLE_HAL_PVT.c **** {
 308              		.loc 1 299 0
 309              		.cfi_startproc
 310              	.LVL34:
 300:.\Generated_Source\PSoC4/BLE_HAL_PVT.c ****      CY_SET_REG32(blessAddr, regValue);
 311              		.loc 1 300 0
 312 0000 0160     		str	r1, [r0]
 301:.\Generated_Source\PSoC4/BLE_HAL_PVT.c **** }
 313              		.loc 1 301 0
 314              		@ sp needed
 315 0002 7047     		bx	lr
 316              		.cfi_endproc
 317              	.LFE7:
 318              		.size	CyBLE_Bless_RfRegWrite, .-CyBLE_Bless_RfRegWrite
 319              		.section	.text.CyBLE_BlessDeviceConfig,"ax",%progbits
 320              		.align	1
 321              		.global	CyBLE_BlessDeviceConfig
 322              		.code	16
 323              		.thumb_func
 324              		.type	CyBLE_BlessDeviceConfig, %function
 325              	CyBLE_BlessDeviceConfig:
 326              	.LFB8:
 302:.\Generated_Source\PSoC4/BLE_HAL_PVT.c **** 
 303:.\Generated_Source\PSoC4/BLE_HAL_PVT.c **** 
 304:.\Generated_Source\PSoC4/BLE_HAL_PVT.c **** void CyBLE_BlessDeviceConfig(void)
 305:.\Generated_Source\PSoC4/BLE_HAL_PVT.c **** {
 327              		.loc 1 305 0
 328              		.cfi_startproc
 306:.\Generated_Source\PSoC4/BLE_HAL_PVT.c ****     uint32 trimRegValue;
 307:.\Generated_Source\PSoC4/BLE_HAL_PVT.c ****     uint32 ldo;
 308:.\Generated_Source\PSoC4/BLE_HAL_PVT.c **** 
 309:.\Generated_Source\PSoC4/BLE_HAL_PVT.c ****     trimRegValue = ((uint32)CYBLE_SFLASH_BLESS_BB_BUMP2_HIGH_REG << 8u) | CYBLE_SFLASH_BLESS_BB_BUM
 329              		.loc 1 309 0
 330 0000 1E4B     		ldr	r3, .L38
 310:.\Generated_Source\PSoC4/BLE_HAL_PVT.c ****     ldo = ((uint32)CYBLE_SFLASH_BLESS_LDO_HIGH_REG << 8u) | CYBLE_SFLASH_BLESS_LDO_LOW_REG;
 331              		.loc 1 310 0
 332 0002 1F4A     		ldr	r2, .L38+4
 309:.\Generated_Source\PSoC4/BLE_HAL_PVT.c ****     ldo = ((uint32)CYBLE_SFLASH_BLESS_LDO_HIGH_REG << 8u) | CYBLE_SFLASH_BLESS_LDO_LOW_REG;
 333              		.loc 1 309 0
 334 0004 1978     		ldrb	r1, [r3]
 335 0006 1F4B     		ldr	r3, .L38+8
 336 0008 0902     		lsl	r1, r1, #8
 337 000a 1B78     		ldrb	r3, [r3]
 338 000c 1943     		orr	r1, r3
 339              	.LVL35:
 340              		.loc 1 310 0
 341 000e 1E4B     		ldr	r3, .L38+12
 342 0010 1B78     		ldrb	r3, [r3]
 343 0012 1278     		ldrb	r2, [r2]
 344 0014 1B02     		lsl	r3, r3, #8
 345 0016 1343     		orr	r3, r2
 346              	.LVL36:
ARM GAS  C:\Users\Helon\AppData\Local\Temp\cc5apkO7.s 			page 13


 311:.\Generated_Source\PSoC4/BLE_HAL_PVT.c **** 
 312:.\Generated_Source\PSoC4/BLE_HAL_PVT.c ****     if ((ldo == CYBLE_SFLASH_BLERD_LDO_REG_VAL1) && (trimRegValue == CYBLE_SFLASH_BLERD_BB_BUMP2_RE
 347              		.loc 1 312 0
 348 0018 1C4A     		ldr	r2, .L38+16
 349 001a 9342     		cmp	r3, r2
 350 001c 04D1     		bne	.L32
 351              		.loc 1 312 0 is_stmt 0 discriminator 1
 352 001e 0729     		cmp	r1, #7
 353 0020 09D1     		bne	.L33
 313:.\Generated_Source\PSoC4/BLE_HAL_PVT.c ****     {
 314:.\Generated_Source\PSoC4/BLE_HAL_PVT.c ****         ldo = CYBLE_BLERD_LDO_REG_VAL_FINAL;
 354              		.loc 1 314 0 is_stmt 1
 355 0022 1B4B     		ldr	r3, .L38+20
 356              	.LVL37:
 315:.\Generated_Source\PSoC4/BLE_HAL_PVT.c ****         trimRegValue = CYBLE_BLERD_BB_BUMP2_REG_VAL_FINAL;
 357              		.loc 1 315 0
 358 0024 0339     		sub	r1, r1, #3
 359              	.LVL38:
 360 0026 06E0     		b	.L33
 361              	.LVL39:
 362              	.L32:
 316:.\Generated_Source\PSoC4/BLE_HAL_PVT.c ****     }
 317:.\Generated_Source\PSoC4/BLE_HAL_PVT.c ****     else if ((ldo == CYBLE_SFLASH_BLERD_LDO_REG_VAL2) && (trimRegValue == CYBLE_BLERD_BB_BUMP2_REG_
 363              		.loc 1 317 0
 364 0028 D422     		mov	r2, #212
 365 002a 1201     		lsl	r2, r2, #4
 366 002c 9342     		cmp	r3, r2
 367 002e 02D1     		bne	.L33
 368              		.loc 1 317 0 is_stmt 0 discriminator 1
 369 0030 0429     		cmp	r1, #4
 370 0032 00D1     		bne	.L33
 318:.\Generated_Source\PSoC4/BLE_HAL_PVT.c ****     {
 319:.\Generated_Source\PSoC4/BLE_HAL_PVT.c ****         ldo = CYBLE_BLERD_LDO_REG_VAL_FINAL;
 371              		.loc 1 319 0 is_stmt 1
 372 0034 164B     		ldr	r3, .L38+20
 373              	.LVL40:
 374              	.L33:
 320:.\Generated_Source\PSoC4/BLE_HAL_PVT.c ****     }
 321:.\Generated_Source\PSoC4/BLE_HAL_PVT.c ****     else
 322:.\Generated_Source\PSoC4/BLE_HAL_PVT.c ****     {
 323:.\Generated_Source\PSoC4/BLE_HAL_PVT.c ****     }
 324:.\Generated_Source\PSoC4/BLE_HAL_PVT.c **** 
 325:.\Generated_Source\PSoC4/BLE_HAL_PVT.c ****     CYBLE_BLE_BLERD_LDO_REG = ldo;
 375              		.loc 1 325 0
 376 0036 174A     		ldr	r2, .L38+24
 377 0038 1360     		str	r3, [r2]
 326:.\Generated_Source\PSoC4/BLE_HAL_PVT.c ****     CYBLE_BLE_BLERD_BB_BUMP2_REG = trimRegValue;
 378              		.loc 1 326 0
 379 003a 174B     		ldr	r3, .L38+28
 380              	.LVL41:
 327:.\Generated_Source\PSoC4/BLE_HAL_PVT.c **** 
 328:.\Generated_Source\PSoC4/BLE_HAL_PVT.c ****     /* Edit only XTAL fast charge bit */
 329:.\Generated_Source\PSoC4/BLE_HAL_PVT.c ****     trimRegValue = ((uint32)CYBLE_SFLASH_BLESS_BB_XO_HIGH_REG << 8u) | CYBLE_SFLASH_BLESS_BB_XO_LOW
 381              		.loc 1 329 0
 382 003c 174A     		ldr	r2, .L38+32
 383              	.LVL42:
 326:.\Generated_Source\PSoC4/BLE_HAL_PVT.c ****     CYBLE_BLE_BLERD_BB_BUMP2_REG = trimRegValue;
ARM GAS  C:\Users\Helon\AppData\Local\Temp\cc5apkO7.s 			page 14


 384              		.loc 1 326 0
 385 003e 1960     		str	r1, [r3]
 386              	.LVL43:
 387              		.loc 1 329 0
 388 0040 174B     		ldr	r3, .L38+36
 389 0042 1B78     		ldrb	r3, [r3]
 390 0044 1278     		ldrb	r2, [r2]
 391 0046 1B02     		lsl	r3, r3, #8
 392 0048 1343     		orr	r3, r2
 393              	.LVL44:
 330:.\Generated_Source\PSoC4/BLE_HAL_PVT.c **** 
 331:.\Generated_Source\PSoC4/BLE_HAL_PVT.c ****     if ((trimRegValue == CYBLE_SFLASH_BLERD_BB_XO_REG_VAL1) || (trimRegValue == CYBLE_SFLASH_BLERD_
 394              		.loc 1 331 0
 395 004a 164A     		ldr	r2, .L38+40
 396 004c 1342     		tst	r3, r2
 397 004e 00D1     		bne	.L34
 332:.\Generated_Source\PSoC4/BLE_HAL_PVT.c ****     {
 333:.\Generated_Source\PSoC4/BLE_HAL_PVT.c ****         trimRegValue = CYBLE_BLERD_BB_XO_REG_VAL_FINAL;
 398              		.loc 1 333 0
 399 0050 154B     		ldr	r3, .L38+44
 400              	.LVL45:
 401              	.L34:
 334:.\Generated_Source\PSoC4/BLE_HAL_PVT.c ****     }
 335:.\Generated_Source\PSoC4/BLE_HAL_PVT.c ****     
 336:.\Generated_Source\PSoC4/BLE_HAL_PVT.c ****     CYBLE_BLE_BLERD_BB_XO_REG = trimRegValue;
 402              		.loc 1 336 0
 403 0052 164A     		ldr	r2, .L38+48
 404 0054 1360     		str	r3, [r2]
 337:.\Generated_Source\PSoC4/BLE_HAL_PVT.c ****     
 338:.\Generated_Source\PSoC4/BLE_HAL_PVT.c ****     trimRegValue = ((uint32)CYBLE_SFLASH_BLESS_SY_BUMP1_HIGH_REG << 8u) | CYBLE_SFLASH_BLESS_SY_BUM
 405              		.loc 1 338 0
 406 0056 164B     		ldr	r3, .L38+52
 407              	.LVL46:
 408 0058 164A     		ldr	r2, .L38+56
 409              	.LVL47:
 410 005a 1B78     		ldrb	r3, [r3]
 411 005c 1278     		ldrb	r2, [r2]
 412 005e 1B02     		lsl	r3, r3, #8
 413 0060 1343     		orr	r3, r2
 414              	.LVL48:
 339:.\Generated_Source\PSoC4/BLE_HAL_PVT.c **** 
 340:.\Generated_Source\PSoC4/BLE_HAL_PVT.c ****     if ((trimRegValue == CYBLE_SFLASH_BLERD_SY_BUMP1_REG_VAL1) || 
 415              		.loc 1 340 0
 416 0062 154A     		ldr	r2, .L38+60
 417 0064 9342     		cmp	r3, r2
 418 0066 04D0     		beq	.L37
 419              		.loc 1 340 0 is_stmt 0 discriminator 1
 420 0068 144A     		ldr	r2, .L38+64
 421 006a 9342     		cmp	r3, r2
 422 006c 01D0     		beq	.L37
 341:.\Generated_Source\PSoC4/BLE_HAL_PVT.c ****         (trimRegValue == CYBLE_SFLASH_BLERD_SY_BUMP1_REG_VAL2) ||  
 423              		.loc 1 341 0 is_stmt 1
 424 006e 052B     		cmp	r3, #5
 425 0070 00D1     		bne	.L35
 426              	.L37:
 342:.\Generated_Source\PSoC4/BLE_HAL_PVT.c ****         (trimRegValue == CYBLE_SFLASH_BLERD_SY_BUMP1_REG_VAL3))
 343:.\Generated_Source\PSoC4/BLE_HAL_PVT.c ****     {
ARM GAS  C:\Users\Helon\AppData\Local\Temp\cc5apkO7.s 			page 15


 344:.\Generated_Source\PSoC4/BLE_HAL_PVT.c ****         trimRegValue = CYBLE_BLERD_SY_BUMP1_REG_VAL_FINAL;
 427              		.loc 1 344 0
 428 0072 134B     		ldr	r3, .L38+68
 429              	.LVL49:
 430              	.L35:
 345:.\Generated_Source\PSoC4/BLE_HAL_PVT.c ****     }
 346:.\Generated_Source\PSoC4/BLE_HAL_PVT.c ****     CYBLE_BLE_BLERD_SY_BUMP1_REG = trimRegValue;
 431              		.loc 1 346 0
 432 0074 134A     		ldr	r2, .L38+72
 347:.\Generated_Source\PSoC4/BLE_HAL_PVT.c ****       
 348:.\Generated_Source\PSoC4/BLE_HAL_PVT.c **** }
 433              		.loc 1 348 0
 434              		@ sp needed
 346:.\Generated_Source\PSoC4/BLE_HAL_PVT.c ****       
 435              		.loc 1 346 0
 436 0076 1360     		str	r3, [r2]
 437              		.loc 1 348 0
 438 0078 7047     		bx	lr
 439              	.L39:
 440 007a C046     		.align	2
 441              	.L38:
 442 007c D9F0FF0F 		.word	268431577
 443 0080 DEF0FF0F 		.word	268431582
 444 0084 D8F0FF0F 		.word	268431576
 445 0088 DFF0FF0F 		.word	268431583
 446 008c 580B0000 		.word	2904
 447 0090 580D0000 		.word	3416
 448 0094 6C002E40 		.word	1076756588
 449 0098 74002E40 		.word	1076756596
 450 009c DAF0FF0F 		.word	268431578
 451 00a0 DBF0FF0F 		.word	268431579
 452 00a4 FFDFFFFF 		.word	-8193
 453 00a8 02200000 		.word	8194
 454 00ac 78002E40 		.word	1076756600
 455 00b0 DDF0FF0F 		.word	268431581
 456 00b4 DCF0FF0F 		.word	268431580
 457 00b8 0F0F0000 		.word	3855
 458 00bc 05050000 		.word	1285
 459 00c0 050F0000 		.word	3845
 460 00c4 80002E40 		.word	1076756608
 461              		.cfi_endproc
 462              	.LFE8:
 463              		.size	CyBLE_BlessDeviceConfig, .-CyBLE_BlessDeviceConfig
 464              		.section	.text.CyBleHal_DelayUs,"ax",%progbits
 465              		.align	1
 466              		.global	CyBleHal_DelayUs
 467              		.code	16
 468              		.thumb_func
 469              		.type	CyBleHal_DelayUs, %function
 470              	CyBleHal_DelayUs:
 471              	.LFB9:
 349:.\Generated_Source\PSoC4/BLE_HAL_PVT.c **** 
 350:.\Generated_Source\PSoC4/BLE_HAL_PVT.c **** 
 351:.\Generated_Source\PSoC4/BLE_HAL_PVT.c **** void CyBleHal_DelayUs(uint16 delayVal)
 352:.\Generated_Source\PSoC4/BLE_HAL_PVT.c **** {
 472              		.loc 1 352 0
 473              		.cfi_startproc
ARM GAS  C:\Users\Helon\AppData\Local\Temp\cc5apkO7.s 			page 16


 474              	.LVL50:
 475 0000 08B5     		push	{r3, lr}
 476              		.cfi_def_cfa_offset 8
 477              		.cfi_offset 3, -8
 478              		.cfi_offset 14, -4
 353:.\Generated_Source\PSoC4/BLE_HAL_PVT.c ****     CyDelayUs(delayVal);
 479              		.loc 1 353 0
 480 0002 FFF7FEFF 		bl	CyDelayUs
 481              	.LVL51:
 354:.\Generated_Source\PSoC4/BLE_HAL_PVT.c **** }
 482              		.loc 1 354 0
 483              		@ sp needed
 484 0006 08BD     		pop	{r3, pc}
 485              		.cfi_endproc
 486              	.LFE9:
 487              		.size	CyBleHal_DelayUs, .-CyBleHal_DelayUs
 488              		.section	.text.CyBleHal_DelayMs,"ax",%progbits
 489              		.align	1
 490              		.global	CyBleHal_DelayMs
 491              		.code	16
 492              		.thumb_func
 493              		.type	CyBleHal_DelayMs, %function
 494              	CyBleHal_DelayMs:
 495              	.LFB10:
 355:.\Generated_Source\PSoC4/BLE_HAL_PVT.c **** 
 356:.\Generated_Source\PSoC4/BLE_HAL_PVT.c **** void CyBleHal_DelayMs(uint32 delayVal)
 357:.\Generated_Source\PSoC4/BLE_HAL_PVT.c **** {
 496              		.loc 1 357 0
 497              		.cfi_startproc
 498              	.LVL52:
 499 0000 08B5     		push	{r3, lr}
 500              		.cfi_def_cfa_offset 8
 501              		.cfi_offset 3, -8
 502              		.cfi_offset 14, -4
 358:.\Generated_Source\PSoC4/BLE_HAL_PVT.c ****     CyDelay(delayVal);
 503              		.loc 1 358 0
 504 0002 FFF7FEFF 		bl	CyDelay
 505              	.LVL53:
 359:.\Generated_Source\PSoC4/BLE_HAL_PVT.c **** }
 506              		.loc 1 359 0
 507              		@ sp needed
 508 0006 08BD     		pop	{r3, pc}
 509              		.cfi_endproc
 510              	.LFE10:
 511              		.size	CyBleHal_DelayMs, .-CyBleHal_DelayMs
 512              		.section	.text.CyBleHal_EnableGlobalInterrupts,"ax",%progbits
 513              		.align	1
 514              		.global	CyBleHal_EnableGlobalInterrupts
 515              		.code	16
 516              		.thumb_func
 517              		.type	CyBleHal_EnableGlobalInterrupts, %function
 518              	CyBleHal_EnableGlobalInterrupts:
 519              	.LFB11:
 360:.\Generated_Source\PSoC4/BLE_HAL_PVT.c **** 
 361:.\Generated_Source\PSoC4/BLE_HAL_PVT.c **** void CyBleHal_EnableGlobalInterrupts(void)
 362:.\Generated_Source\PSoC4/BLE_HAL_PVT.c **** {
 520              		.loc 1 362 0
ARM GAS  C:\Users\Helon\AppData\Local\Temp\cc5apkO7.s 			page 17


 521              		.cfi_startproc
 522 0000 08B5     		push	{r3, lr}
 523              		.cfi_def_cfa_offset 8
 524              		.cfi_offset 3, -8
 525              		.cfi_offset 14, -4
 363:.\Generated_Source\PSoC4/BLE_HAL_PVT.c ****     BLE_bless_isr_Enable();
 526              		.loc 1 363 0
 527 0002 FFF7FEFF 		bl	BLE_bless_isr_Enable
 528              	.LVL54:
 364:.\Generated_Source\PSoC4/BLE_HAL_PVT.c **** }
 529              		.loc 1 364 0
 530              		@ sp needed
 531 0006 08BD     		pop	{r3, pc}
 532              		.cfi_endproc
 533              	.LFE11:
 534              		.size	CyBleHal_EnableGlobalInterrupts, .-CyBleHal_EnableGlobalInterrupts
 535              		.section	.text.CyBleHal_DisableGlobalInterrupts,"ax",%progbits
 536              		.align	1
 537              		.global	CyBleHal_DisableGlobalInterrupts
 538              		.code	16
 539              		.thumb_func
 540              		.type	CyBleHal_DisableGlobalInterrupts, %function
 541              	CyBleHal_DisableGlobalInterrupts:
 542              	.LFB12:
 365:.\Generated_Source\PSoC4/BLE_HAL_PVT.c **** 
 366:.\Generated_Source\PSoC4/BLE_HAL_PVT.c **** void CyBleHal_DisableGlobalInterrupts(void)
 367:.\Generated_Source\PSoC4/BLE_HAL_PVT.c **** {
 543              		.loc 1 367 0
 544              		.cfi_startproc
 545 0000 08B5     		push	{r3, lr}
 546              		.cfi_def_cfa_offset 8
 547              		.cfi_offset 3, -8
 548              		.cfi_offset 14, -4
 368:.\Generated_Source\PSoC4/BLE_HAL_PVT.c ****     BLE_bless_isr_Disable();
 549              		.loc 1 368 0
 550 0002 FFF7FEFF 		bl	BLE_bless_isr_Disable
 551              	.LVL55:
 369:.\Generated_Source\PSoC4/BLE_HAL_PVT.c **** }
 552              		.loc 1 369 0
 553              		@ sp needed
 554 0006 08BD     		pop	{r3, pc}
 555              		.cfi_endproc
 556              	.LFE12:
 557              		.size	CyBleHal_DisableGlobalInterrupts, .-CyBleHal_DisableGlobalInterrupts
 558              		.section	.text.CyBle_HalInit,"ax",%progbits
 559              		.align	1
 560              		.global	CyBle_HalInit
 561              		.code	16
 562              		.thumb_func
 563              		.type	CyBle_HalInit, %function
 564              	CyBle_HalInit:
 565              	.LFB13:
 370:.\Generated_Source\PSoC4/BLE_HAL_PVT.c **** 
 371:.\Generated_Source\PSoC4/BLE_HAL_PVT.c **** void CyBle_HalInit(void)
 372:.\Generated_Source\PSoC4/BLE_HAL_PVT.c **** {
 566              		.loc 1 372 0
 567              		.cfi_startproc
ARM GAS  C:\Users\Helon\AppData\Local\Temp\cc5apkO7.s 			page 18


 568 0000 08B5     		push	{r3, lr}
 569              		.cfi_def_cfa_offset 8
 570              		.cfi_offset 3, -8
 571              		.cfi_offset 14, -4
 373:.\Generated_Source\PSoC4/BLE_HAL_PVT.c ****     /* For all we know the interrupt is active. */
 374:.\Generated_Source\PSoC4/BLE_HAL_PVT.c ****     BLE_bless_isr_Disable();
 572              		.loc 1 374 0
 573 0002 FFF7FEFF 		bl	BLE_bless_isr_Disable
 574              	.LVL56:
 375:.\Generated_Source\PSoC4/BLE_HAL_PVT.c **** 
 376:.\Generated_Source\PSoC4/BLE_HAL_PVT.c ****     /* Set the ISR to point to the BLE_bless_isr Interrupt. */
 377:.\Generated_Source\PSoC4/BLE_HAL_PVT.c ****     BLE_bless_isr_SetVector(&CyBLE_Bless_Interrupt);
 575              		.loc 1 377 0
 576 0006 0348     		ldr	r0, .L45
 577 0008 FFF7FEFF 		bl	BLE_bless_isr_SetVector
 578              	.LVL57:
 378:.\Generated_Source\PSoC4/BLE_HAL_PVT.c **** 
 379:.\Generated_Source\PSoC4/BLE_HAL_PVT.c ****     /* Set the priority. */
 380:.\Generated_Source\PSoC4/BLE_HAL_PVT.c ****     BLE_bless_isr_SetPriority((uint8)BLE_bless_isr_INTC_PRIOR_NUMBER);
 579              		.loc 1 380 0
 580 000c 0320     		mov	r0, #3
 581 000e FFF7FEFF 		bl	BLE_bless_isr_SetPriority
 582              	.LVL58:
 381:.\Generated_Source\PSoC4/BLE_HAL_PVT.c **** }
 583              		.loc 1 381 0
 584              		@ sp needed
 585 0012 08BD     		pop	{r3, pc}
 586              	.L46:
 587              		.align	2
 588              	.L45:
 589 0014 00000000 		.word	CyBLE_Bless_Interrupt
 590              		.cfi_endproc
 591              	.LFE13:
 592              		.size	CyBle_HalInit, .-CyBle_HalInit
 593              		.section	.text.CYBLE_BlessStart,"ax",%progbits
 594              		.align	1
 595              		.global	CYBLE_BlessStart
 596              		.code	16
 597              		.thumb_func
 598              		.type	CYBLE_BlessStart, %function
 599              	CYBLE_BlessStart:
 600              	.LFB14:
 382:.\Generated_Source\PSoC4/BLE_HAL_PVT.c **** 
 383:.\Generated_Source\PSoC4/BLE_HAL_PVT.c **** /* Start Interrupt Controller API. */
 384:.\Generated_Source\PSoC4/BLE_HAL_PVT.c **** void CYBLE_BlessStart(void)
 385:.\Generated_Source\PSoC4/BLE_HAL_PVT.c **** {
 601              		.loc 1 385 0
 602              		.cfi_startproc
 603 0000 08B5     		push	{r3, lr}
 604              		.cfi_def_cfa_offset 8
 605              		.cfi_offset 3, -8
 606              		.cfi_offset 14, -4
 386:.\Generated_Source\PSoC4/BLE_HAL_PVT.c ****     BLE_bless_isr_StartEx(&CyBLE_Bless_Interrupt);
 607              		.loc 1 386 0
 608 0002 0248     		ldr	r0, .L48
 609 0004 FFF7FEFF 		bl	BLE_bless_isr_StartEx
 610              	.LVL59:
ARM GAS  C:\Users\Helon\AppData\Local\Temp\cc5apkO7.s 			page 19


 387:.\Generated_Source\PSoC4/BLE_HAL_PVT.c **** }
 611              		.loc 1 387 0
 612              		@ sp needed
 613 0008 08BD     		pop	{r3, pc}
 614              	.L49:
 615 000a C046     		.align	2
 616              	.L48:
 617 000c 00000000 		.word	CyBLE_Bless_Interrupt
 618              		.cfi_endproc
 619              	.LFE14:
 620              		.size	CYBLE_BlessStart, .-CYBLE_BlessStart
 621              		.text
 622              	.Letext0:
 623              		.file 2 ".\\Generated_Source\\PSoC4\\cytypes.h"
 624              		.file 3 ".\\Generated_Source\\PSoC4\\CyLib.h"
 625              		.file 4 ".\\Generated_Source\\PSoC4\\BLE_bless_isr.h"
 626              		.file 5 ".\\Generated_Source\\PSoC4\\CyFlash.h"