ARM GAS  C:\Users\Helon\AppData\Local\Temp\ccTLkFeM.s 			page 1


   1              		.cpu cortex-m0
   2              		.fpu softvfp
   3              		.eabi_attribute 20, 1
   4              		.eabi_attribute 21, 1
   5              		.eabi_attribute 23, 3
   6              		.eabi_attribute 24, 1
   7              		.eabi_attribute 25, 1
   8              		.eabi_attribute 26, 1
   9              		.eabi_attribute 30, 4
  10              		.eabi_attribute 34, 0
  11              		.eabi_attribute 18, 4
  12              		.code	16
  13              		.file	"BLEApplication.c"
  14              		.text
  15              	.Ltext0:
  16              		.cfi_sections	.debug_frame
  17              		.section	.text.StackEventHandler,"ax",%progbits
  18              		.align	1
  19              		.global	StackEventHandler
  20              		.code	16
  21              		.thumb_func
  22              		.type	StackEventHandler, %function
  23              	StackEventHandler:
  24              	.LFB35:
  25              		.file 1 ".\\BLEApplication.c"
   1:.\BLEApplication.c **** /* ========================================
   2:.\BLEApplication.c ****  *
   3:.\BLEApplication.c ****  * Copyright YOUR COMPANY, THE YEAR
   4:.\BLEApplication.c ****  * All Rights Reserved
   5:.\BLEApplication.c ****  * UNPUBLISHED, LICENSED SOFTWARE.
   6:.\BLEApplication.c ****  *
   7:.\BLEApplication.c ****  * CONFIDENTIAL AND PROPRIETARY INFORMATION
   8:.\BLEApplication.c ****  * WHICH IS THE PROPERTY OF your company.
   9:.\BLEApplication.c ****  *
  10:.\BLEApplication.c ****  * ========================================
  11:.\BLEApplication.c **** */
  12:.\BLEApplication.c **** #include<project.h>
  13:.\BLEApplication.c **** #include "BLEApplication.h"
  14:.\BLEApplication.c **** #include<stdio.h>
  15:.\BLEApplication.c **** #include "BLEClient.h"
  16:.\BLEApplication.c **** #include <malloc.h>
  17:.\BLEApplication.c **** #include "WriteUserSFlash.h"
  18:.\BLEApplication.c **** /***************************************
  19:.\BLEApplication.c **** * Â§ñÈÉ®ÂÖ®Â±ÄÂèòÈáèÂ£∞Êòé
  20:.\BLEApplication.c **** ***************************************/
  21:.\BLEApplication.c **** extern uint8_t StartScan;
  22:.\BLEApplication.c **** extern uint8_t DeviceCount;
  23:.\BLEApplication.c **** extern CYBLE_DEVICE_INFO DeviceInfo[DeviceListCount];
  24:.\BLEApplication.c **** //extern uint8_t DeviceList[DeviceListCount];
  25:.\BLEApplication.c **** /***************************************
  26:.\BLEApplication.c **** * ÂÖ®Â±ÄÂèòÈáè
  27:.\BLEApplication.c **** ***************************************/
  28:.\BLEApplication.c **** UART_UART_INIT_STRUCT configUart;
  29:.\BLEApplication.c **** uint8_t LowPower_EN=TURE;
  30:.\BLEApplication.c **** uint8_t RX_BUFFER[BUFFER_LENGHTH]={0};
  31:.\BLEApplication.c **** uint8_t Buffer_Length=0;
  32:.\BLEApplication.c **** uint8_t rx_isover=FALSE;
ARM GAS  C:\Users\Helon\AppData\Local\Temp\ccTLkFeM.s 			page 2


  33:.\BLEApplication.c **** CYBLE_CONN_OR_DISCONN_INFO Conn_Or_Disconn_Info;
  34:.\BLEApplication.c **** uint8_t Conn_or_Disconn_Idx=0;
  35:.\BLEApplication.c **** //uint8 bufferRx[UART_RX_BUFFER + 1u];     /* RX software buffer requires one extra entry for corre
  36:.\BLEApplication.c **** //uint8 bufferTx[UART_TX_BUFFER];           /* TX software buffer */ 
  37:.\BLEApplication.c **** uint8_t MTU_REQ_FLAG=TURE;
  38:.\BLEApplication.c **** uint8_t TroughtTest_Flag=FALSE;
  39:.\BLEApplication.c **** uint8_t charNotificationEnabled = FALSE;
  40:.\BLEApplication.c **** uint32 totalByteCounter = 0;
  41:.\BLEApplication.c **** uint8_t Role=Peripheral;//ÈªòËÆ§ÊòØPeripheral
  42:.\BLEApplication.c **** uint8 buffer[20];
  43:.\BLEApplication.c **** uint16 negotiatedMtu = DEFAULT_MTU_SIZE;
  44:.\BLEApplication.c **** uint8_t CommandMode=AT_COMMAND_MODE;
  45:.\BLEApplication.c **** uint32 testCount=0;
  46:.\BLEApplication.c **** uint8_t iocapability=CYBLE_GAP_IOCAP_DISPLAY_ONLY;
  47:.\BLEApplication.c **** CYBLE_GAP_CONN_PARAM_UPDATED_IN_CONTROLLER_T ConnParam;
  48:.\BLEApplication.c **** uint8_t KEYBOARD=FALSE;
  49:.\BLEApplication.c **** uint8_t AUTHFLAG=FALSE;
  50:.\BLEApplication.c **** //CYBLE_GAPP_DISC_MODE_INFO_T updateadvparam;
  51:.\BLEApplication.c **** //uint8_t ExitThrought[]={
  52:.\BLEApplication.c **** //    0x11,0x24,0xFB,0x1E,0x1F,0x24,0x19,0x16,0x29};
  53:.\BLEApplication.c **** //CYBLE_CONN_HANDLE_T	connHandle=
  54:.\BLEApplication.c **** //{
  55:.\BLEApplication.c **** //    CYBLE_TROUGHPUT_SERVICE_CUSTOM_CHARACTERISTIC_CLIENT_CHARACTERISTIC_CONFIGURATION_DESC_HANDLE
  56:.\BLEApplication.c **** //    0x00
  57:.\BLEApplication.c **** //};
  58:.\BLEApplication.c **** CYBLE_GAP_BD_ADDR_T DeviceAddr;//Â≠òÊîæÊú¨Êú∫ÁöÑMACÂú∞ÂùÄ,‰∏çËÉΩÂÅö‰∏∫Â±ÄÈÉ®ÂèòÈáèÂê¶ÂàôËé∑ÂèñÁöÑÂú
  59:.\BLEApplication.c **** uint8_t _10sIsOver=FALSE;
  60:.\BLEApplication.c **** uint8 cccdNotifEnabledValue[] = {0x01, 0x00};
  61:.\BLEApplication.c **** CYBLE_GATT_VALUE_T cccdNotifFlagSetStruct =
  62:.\BLEApplication.c **** {
  63:.\BLEApplication.c ****     cccdNotifEnabledValue,
  64:.\BLEApplication.c ****     2,
  65:.\BLEApplication.c ****     0
  66:.\BLEApplication.c **** };
  67:.\BLEApplication.c **** //    Êõ¥Êñ∞ËøûÊé•Èó¥ÈöîÂèÇÊï∞ÔºåÊèêÈ´òÈÄè‰º†ÈÄüÁéáÔºå‰ΩÜ‰ºöÂ¢ûÂä†ÂäüËÄó
  68:.\BLEApplication.c **** CYBLE_GAP_CONN_UPDATE_PARAM_T connParam={
  69:.\BLEApplication.c ****     0x10,
  70:.\BLEApplication.c ****     0x10,
  71:.\BLEApplication.c ****     0,
  72:.\BLEApplication.c ****     1000
  73:.\BLEApplication.c **** };
  74:.\BLEApplication.c **** CYBLE_GATTC_WRITE_REQ_T writeRequestData;
  75:.\BLEApplication.c **** CYBLE_GATTC_READ_REQ_T readRequestData=CYBLE_TROUGHPUT_SERVICE_CUSTOM_CHARACTERISTIC_CLIENT_CHARACT
  76:.\BLEApplication.c **** //ATÂëΩ‰ª§ÂàóË°®
  77:.\BLEApplication.c **** char * StringArry[]={
  78:.\BLEApplication.c ****                      AT_RESET,AT_REFAC,AT_VERSION,AT_BAUD,AT_LADDR,AT_NAME,
  79:.\BLEApplication.c ****                      AT_CPIN,AT_TXP,AT_ADVD,AT_ADVI,AT_CONNI,AT_ROLE,AT_SCAN,
  80:.\BLEApplication.c ****                      AT_CONNT,AT_DISCONN,AT_LOGIN,AT_TX,AT_RSSI,AT_DISALLCHAR,
  81:.\BLEApplication.c ****                      AT,AT_SPEED,AT_NOTIFY,AT_STAUS,AT_ADVS,AT_AUTH,AT_IOCAP
  82:.\BLEApplication.c ****                     };
  83:.\BLEApplication.c **** uint8_t STOP_SCAN_FLAG=FALSE;
  84:.\BLEApplication.c **** uint8_t Baud_rate_idx='7';//ÈªòËÆ§ÊòØ115200
  85:.\BLEApplication.c **** /******************************************************************************
  86:.\BLEApplication.c **** * Function Name: StackEventHandler
  87:.\BLEApplication.c **** ***************************************************************************//**
  88:.\BLEApplication.c **** * 
  89:.\BLEApplication.c **** *  Â§ÑÁêÜËìùÁâôÂçèËÆÆÊ†à‰∫ã‰ª∂
ARM GAS  C:\Users\Helon\AppData\Local\Temp\ccTLkFeM.s 			page 3


  90:.\BLEApplication.c **** * 
  91:.\BLEApplication.c **** * \return
  92:.\BLEApplication.c **** *  None
  93:.\BLEApplication.c **** * 
  94:.\BLEApplication.c **** ******************************************************************************/
  95:.\BLEApplication.c **** void StackEventHandler(uint32 eventCode, void *eventParam)
  96:.\BLEApplication.c **** {
  26              		.loc 1 96 0
  27              		.cfi_startproc
  28              	.LVL0:
  29 0000 70B5     		push	{r4, r5, r6, lr}
  30              		.cfi_def_cfa_offset 16
  31              		.cfi_offset 4, -16
  32              		.cfi_offset 5, -12
  33              		.cfi_offset 6, -8
  34              		.cfi_offset 14, -4
  35 0002 0C1C     		mov	r4, r1
  36 0004 88B0     		sub	sp, sp, #32
  37              		.cfi_def_cfa_offset 48
  97:.\BLEApplication.c ****     CYBLE_GAPC_ADV_REPORT_T	Scan_Result;
  98:.\BLEApplication.c **** //    CYBLE_API_RESULT_T API_RESULT=0;
  99:.\BLEApplication.c ****     CYBLE_GATTC_FIND_INFO_RSP_PARAM_T DisAllCharResult;  
 100:.\BLEApplication.c ****     uint8_t i=0;
 101:.\BLEApplication.c ****     CYBLE_GATTC_HANDLE_VALUE_NTF_PARAM_T * handleValueNotification;
 102:.\BLEApplication.c ****     CYBLE_GATTS_WRITE_REQ_PARAM_T writeParam;  
 103:.\BLEApplication.c **** //    uint32 PassKey=0;
 104:.\BLEApplication.c **** //    CYBLE_GATTC_READ_RSP_PARAM_T readParam;
 105:.\BLEApplication.c ****     switch(eventCode)
  38              		.loc 1 105 0
  39 0006 2728     		cmp	r0, #39
  40 0008 60D0     		beq	.L3
  41 000a 1FD8     		bhi	.L4
  42 000c 2128     		cmp	r0, #33
  43 000e 00D1     		bne	.LCB21
  44 0010 0CE1     		b	.L5	@long jump
  45              	.LCB21:
  46 0012 0AD8     		bhi	.L6
  47 0014 0228     		cmp	r0, #2
  48 0016 51D0     		beq	.L7
  49 0018 2028     		cmp	r0, #32
  50 001a 3DD0     		beq	.L8
  51 001c 0128     		cmp	r0, #1
  52 001e 00D0     		beq	.LCB29
  53 0020 20E1     		b	.L1	@long jump
  54              	.LCB29:
 106:.\BLEApplication.c ****     {
 107:.\BLEApplication.c ****         case CYBLE_EVT_STACK_ON:
 108:.\BLEApplication.c ****             printf("BLE is Ready\r\n");
  55              		.loc 1 108 0
  56 0022 9148     		ldr	r0, .L50
  57              	.LVL1:
  58 0024 FFF7FEFF 		bl	puts
  59              	.LVL2:
 109:.\BLEApplication.c ****             while((UART_SpiUartGetTxBufferSize() + UART_GET_TX_FIFO_SR_VALID) != 0);//Á≠âÂæÖ‰∏≤Âè£Á
  60              		.loc 1 109 0
  61 0028 2DE0     		b	.L24
  62              	.LVL3:
ARM GAS  C:\Users\Helon\AppData\Local\Temp\ccTLkFeM.s 			page 4


  63              	.L6:
 105:.\BLEApplication.c ****     {
  64              		.loc 1 105 0
  65 002a 2328     		cmp	r0, #35
  66 002c 00D1     		bne	.LCB42
  67 002e 07E1     		b	.L10	@long jump
  68              	.LCB42:
  69 0030 00D2     		bcs	.LCB44
  70 0032 0AE1     		b	.L11	@long jump
  71              	.LCB44:
  72 0034 2428     		cmp	r0, #36
  73 0036 00D1     		bne	.LCB46
  74 0038 0EE1     		b	.L12	@long jump
  75              	.LCB46:
  76 003a 2528     		cmp	r0, #37
  77 003c 00D0     		beq	.LCB48
  78 003e 11E1     		b	.L1	@long jump
  79              	.LCB48:
 110:.\BLEApplication.c **** //            StartScan=TRUE;            
 111:.\BLEApplication.c ****         break;
 112:.\BLEApplication.c ****         case CYBLE_EVT_GAPC_SCAN_PROGRESS_RESULT:
 113:.\BLEApplication.c ****             Scan_Result=*(CYBLE_GAPC_ADV_REPORT_T *)eventParam;
 114:.\BLEApplication.c ****             HandleScanDevices(&Scan_Result);               
 115:.\BLEApplication.c **** //            CyBle_GapcStopScan();
 116:.\BLEApplication.c ****         break;
 117:.\BLEApplication.c ****         case CYBLE_EVT_GAPC_SCAN_START_STOP:
 118:.\BLEApplication.c ****             if(STOP_SCAN_FLAG)
 119:.\BLEApplication.c ****             {
 120:.\BLEApplication.c ****                 STOP_SCAN_FLAG=FALSE;             
 121:.\BLEApplication.c ****                 printf("+SCAN_STOP\r\n");
 122:.\BLEApplication.c ****             }
 123:.\BLEApplication.c ****             
 124:.\BLEApplication.c ****         break;
 125:.\BLEApplication.c ****         //ÂΩìClientÊâ´ÊèèÂà∞ServerÁöÑDB‰πãÂêéÊâç‰ºöËß¶ÂèëËØ•‰∫ã‰ª∂ÔºåÂâçÊèêÊòØclientÂíåserverËøûÊé•
 126:.\BLEApplication.c ****         case CYBLE_EVT_GATTC_DISCOVERY_COMPLETE:
 127:.\BLEApplication.c ****             
 128:.\BLEApplication.c ****         break;        
 129:.\BLEApplication.c ****         case CYBLE_EVT_TIMEOUT:                         
 130:.\BLEApplication.c ****             if(*(uint8_t*)eventParam==CYBLE_GAP_SCAN_TO)
 131:.\BLEApplication.c ****             {   
 132:.\BLEApplication.c ****                 CyBle_GapcStopScan();
 133:.\BLEApplication.c ****                 printf("+SCAN_CMP\r\n");                    
 134:.\BLEApplication.c ****             }
 135:.\BLEApplication.c ****             //ÂπøÊí≠Ë∂ÖÊó∂
 136:.\BLEApplication.c **** //            if(*(uint8_t*)eventParam==CYBLE_GAP_ADV_MODE_TO)
 137:.\BLEApplication.c **** //            {
 138:.\BLEApplication.c **** //                CyBle_GappStartAdvertisement(CYBLE_ADVERTISING_SLOW);
 139:.\BLEApplication.c **** //            }
 140:.\BLEApplication.c ****         break;
 141:.\BLEApplication.c ****         case CYBLE_EVT_GAPP_ADVERTISEMENT_START_STOP:
 142:.\BLEApplication.c **** //            if(CYBLE_STATE_ADVERTISING!=CyBle_GetState())
 143:.\BLEApplication.c **** //            {
 144:.\BLEApplication.c **** //                CyBle_GappStartAdvertisement(CYBLE_ADVERTISING_SLOW);
 145:.\BLEApplication.c **** //            }
 146:.\BLEApplication.c ****         break;
 147:.\BLEApplication.c ****         case CYBLE_EVT_GAP_DEVICE_CONNECTED:
 148:.\BLEApplication.c **** //            Ëé∑ÂèñËøûÊé•ÂèÇÊï∞‰ø°ÊÅØ
ARM GAS  C:\Users\Helon\AppData\Local\Temp\ccTLkFeM.s 			page 5


 149:.\BLEApplication.c ****             ConnParam=*(CYBLE_GAP_CONN_PARAM_UPDATED_IN_CONTROLLER_T *)eventParam;            
 150:.\BLEApplication.c ****             if(Role==Peripheral)
 151:.\BLEApplication.c ****             {
 152:.\BLEApplication.c ****                 printf("+CONN_EVT=OK\r\n");
 153:.\BLEApplication.c ****                 CyBle_L2capLeConnectionParamUpdateRequest(cyBle_connHandle.bdHandle,&connParam);
 154:.\BLEApplication.c ****             }
 155:.\BLEApplication.c ****             else
 156:.\BLEApplication.c ****             {
 157:.\BLEApplication.c ****                 printf("+CONN_EVT=<%d,OK>\r\n",Conn_or_Disconn_Idx);   
 158:.\BLEApplication.c **** //                ‰∏é‰ªéÊú∫ËøûÊé•ÊàêÂäüÂêéÔºå‰∏ªÊú∫ÂèëËµ∑ËøûÊé•Èó¥ÈöîÊõ¥Êñ∞ËØ∑Ê±Ç
 159:.\BLEApplication.c ****                 CyBle_GapcConnectionParamUpdateRequest(cyBle_connHandle.bdHandle,&connParam);
 160:.\BLEApplication.c ****                                 /* Initiate an MTU exchange request CYBLE_GATT_MTU*/
 161:.\BLEApplication.c ****                 CyBle_GattcExchangeMtuReq(cyBle_connHandle,MAX_MTU_SIZE);
 162:.\BLEApplication.c ****             }
 163:.\BLEApplication.c **** //            //‰∏ªÊú∫ÂèëÈÄÅÁöÑMTU exchange request
 164:.\BLEApplication.c **** //            if(MTU_REQ_FLAG)
 165:.\BLEApplication.c **** //            {
 166:.\BLEApplication.c **** //                MTU_REQ_FLAG=FALSE;
 167:.\BLEApplication.c **** //                /* Initiate an MTU exchange request */
 168:.\BLEApplication.c **** //                CyBle_GattcExchangeMtuReq(cyBle_connHandle, CYBLE_GATT_MTU);
 169:.\BLEApplication.c **** //            }
 170:.\BLEApplication.c ****         break;
 171:.\BLEApplication.c ****         case CYBLE_EVT_GAP_CONNECTION_UPDATE_COMPLETE: 
 172:.\BLEApplication.c **** //            Ëé∑ÂèñËøûÊé•ÂèÇÊï∞‰ø°ÊÅØ
 173:.\BLEApplication.c ****             ConnParam=*(CYBLE_GAP_CONN_PARAM_UPDATED_IN_CONTROLLER_T *)eventParam;
 174:.\BLEApplication.c ****             printf("+UPDATECONN_EVT=OK\r\n");
 175:.\BLEApplication.c **** //            if(Role==Central)
 176:.\BLEApplication.c **** //                Timer_Enable();
 177:.\BLEApplication.c ****         break;
 178:.\BLEApplication.c **** //            ‰∏ªÊú∫Êé•Êî∂‰ªéÊú∫ÁöÑMTU‰∫§Êç¢ÂìçÂ∫î
 179:.\BLEApplication.c ****         case CYBLE_EVT_GATTC_XCHNG_MTU_RSP:            
 180:.\BLEApplication.c ****             negotiatedMtu=((CYBLE_GATT_XCHG_MTU_PARAM_T *)eventParam)->mtu;
 181:.\BLEApplication.c ****             printf("mtu is %d\r\n",negotiatedMtu);
 182:.\BLEApplication.c ****             /* Enable notifications on the characteristic to get data from the 
 183:.\BLEApplication.c ****              * Server.
 184:.\BLEApplication.c ****              */
 185:.\BLEApplication.c **** //            TroughtTest_Flag=TURE;  
 186:.\BLEApplication.c **** //            UART_UartPutString("Calculating throughput. Please wait...\n\r");
 187:.\BLEApplication.c **** //            Timer_Enable();
 188:.\BLEApplication.c **** //            printf("'MTU Exchange Response' received from server device\r\n");
 189:.\BLEApplication.c **** //            if(0x00==writeRequestData.value.val[0])
 190:.\BLEApplication.c **** //                writeRequestData.value.val[0]=0x01;
 191:.\BLEApplication.c **** //            writeRequestData.attrHandle=CYBLE_TROUGHPUT_SERVICE_SPEEDTEST_CHAR_HANDLE;
 192:.\BLEApplication.c **** //            CyBle_GattcWriteCharacteristicValue(cyBle_connHandle, &writeRequestData);   
 193:.\BLEApplication.c **** //            printf("Notify slave is %d",API_RESULT);
 194:.\BLEApplication.c **** //            while((UART_SpiUartGetTxBufferSize() + UART_GET_TX_FIFO_SR_VALID) != 0);//Á≠âÂæÖ‰∏≤Âè
 195:.\BLEApplication.c ****             break;
 196:.\BLEApplication.c ****         /* GATT MTU exchange request - Update the negotiated MTU value */
 197:.\BLEApplication.c **** //            ÂÅö‰∏∫‰ªéÊú∫Êó∂Êé•Êî∂‰∏ªÊú∫ÂèëÈÄÅËøáÊù•ÁöÑMTU‰∫§Êç¢ËØ∑Ê±Ç
 198:.\BLEApplication.c ****         case CYBLE_EVT_GATTS_XCNHG_MTU_REQ:
 199:.\BLEApplication.c ****             CyBle_GattsExchangeMtuRsp(cyBle_connHandle,MAX_MTU_SIZE);
 200:.\BLEApplication.c ****             negotiatedMtu = (((CYBLE_GATT_XCHG_MTU_PARAM_T *)eventParam)->mtu < CYBLE_GATT_MTU) ?
 201:.\BLEApplication.c ****                             ((CYBLE_GATT_XCHG_MTU_PARAM_T *)eventParam)->mtu : CYBLE_GATT_MTU;
 202:.\BLEApplication.c ****                             printf("mtu is %d\r\n",negotiatedMtu);
 203:.\BLEApplication.c **** //            printf("'MTU Exchange Request' received from GATT client device\r\n");
 204:.\BLEApplication.c ****         break;
 205:.\BLEApplication.c ****         case CYBLE_EVT_GAP_DEVICE_DISCONNECTED:   
ARM GAS  C:\Users\Helon\AppData\Local\Temp\ccTLkFeM.s 			page 6


 206:.\BLEApplication.c ****             cyBle_discoveryModeInfo.advTo = CYBLE_FAST_ADV_TIMEOUT;
 207:.\BLEApplication.c ****             cyBle_discoveryModeInfo.advParam->advIntvMin = CYBLE_FAST_ADV_INT_MIN;
 208:.\BLEApplication.c ****             cyBle_discoveryModeInfo.advParam->advIntvMax = CYBLE_FAST_ADV_INT_MAX;                 
 209:.\BLEApplication.c ****             if(Role==Peripheral)
 210:.\BLEApplication.c ****             {
 211:.\BLEApplication.c ****                printf("+DISCONN_EVT=<0x%02X>\r\n",*(uint8_t*)eventParam);
 212:.\BLEApplication.c ****             }
 213:.\BLEApplication.c ****             else
 214:.\BLEApplication.c ****             {
 215:.\BLEApplication.c ****                printf("+DISCONN_EVT=<%d,0x%02X>\r\n",Conn_or_Disconn_Idx,*(uint8_t*)eventParam);
 216:.\BLEApplication.c ****             }
 217:.\BLEApplication.c ****             while((UART_SpiUartGetTxBufferSize() + UART_GET_TX_FIFO_SR_VALID) != 0);//Á≠âÂæÖ‰∏≤Âè£Á
 218:.\BLEApplication.c ****             LowPower_EN=TURE;
 219:.\BLEApplication.c ****             AUTHFLAG=FALSE;
 220:.\BLEApplication.c ****         break;
 221:.\BLEApplication.c **** //            ‰ªéÊú∫Êé•Êî∂‰∏ªÊú∫ÁöÑÂÜôËØ∑Ê±ÇÔºåÂπ∂‰∏î‰ªéÊú∫‰∏çÈúÄË¶ÅÂÜôÂìçÂ∫î
 222:.\BLEApplication.c ****         case CYBLE_EVT_GATTS_WRITE_CMD_REQ:
 223:.\BLEApplication.c ****             writeParam = *(CYBLE_GATTS_WRITE_REQ_PARAM_T *)eventParam;
 224:.\BLEApplication.c ****             //Ëá™ÂÆö‰πâÊúçÂä°ÁöÑCUSTOM Characteristic
 225:.\BLEApplication.c ****             if(writeParam.handleValPair.attrHandle == 
 226:.\BLEApplication.c ****                CYBLE_TROUGHPUT_SERVICE_CUSTOM_CHARACTERISTIC_CHAR_HANDLE)
 227:.\BLEApplication.c ****             {
 228:.\BLEApplication.c ****                 testCount+=writeParam.handleValPair.value.len;    
 229:.\BLEApplication.c **** //                printf("0x");
 230:.\BLEApplication.c **** //                UART_UartPutString("0x");
 231:.\BLEApplication.c ****                 for(i=0;i<writeParam.handleValPair.value.len;i++)
 232:.\BLEApplication.c ****                 {                    
 233:.\BLEApplication.c **** //                    printf("%02X",writeParam.handleValPair.value.val[i]);
 234:.\BLEApplication.c ****                     UART_UartPutChar(writeParam.handleValPair.value.val[i]);
 235:.\BLEApplication.c ****                 }   
 236:.\BLEApplication.c **** //                UART_UartPutString("\r\n");
 237:.\BLEApplication.c **** //                printf("\r\n");
 238:.\BLEApplication.c **** //                UART_SpiUartWriteTxData(testCount);
 239:.\BLEApplication.c **** //                printf("%ld\r\n",testCount);
 240:.\BLEApplication.c **** //                printf("+RX=<0x");
 241:.\BLEApplication.c **** //                for(i=0;i<writeParam.handleValPair.value.len;i++)
 242:.\BLEApplication.c **** //                {
 243:.\BLEApplication.c **** //                    printf("%02X",writeParam.handleValPair.value.val[i]);
 244:.\BLEApplication.c **** //                }
 245:.\BLEApplication.c **** //                printf(">\r\n");
 246:.\BLEApplication.c ****             } 
 247:.\BLEApplication.c ****              //Ëá™ÂÆö‰πâÊúçÂä°ÁöÑClient Characteristic
 248:.\BLEApplication.c ****             if(writeParam.handleValPair.attrHandle == 
 249:.\BLEApplication.c ****                CYBLE_TROUGHPUT_SERVICE_CUSTOM_CHARACTERISTIC_CLIENT_CHARACTERISTIC_CONFIGURATION_DE
 250:.\BLEApplication.c ****             {
 251:.\BLEApplication.c ****                 charNotificationEnabled = writeParam.handleValPair.value.val[0];  
 252:.\BLEApplication.c ****                 if(charNotificationEnabled)
 253:.\BLEApplication.c ****                 {               
 254:.\BLEApplication.c ****                     CommandMode=THROUGHT_MODE;
 255:.\BLEApplication.c ****                     printf("+MODE=<THROUGHT_MODE>\r\n");
 256:.\BLEApplication.c ****                 }
 257:.\BLEApplication.c ****                 else
 258:.\BLEApplication.c ****                 {
 259:.\BLEApplication.c ****                     CommandMode=AT_COMMAND_MODE;
 260:.\BLEApplication.c ****                     printf("+MODE=<AT_COMMAND_MODE>\r\n");
 261:.\BLEApplication.c ****                 }
 262:.\BLEApplication.c ****             }   
ARM GAS  C:\Users\Helon\AppData\Local\Temp\ccTLkFeM.s 			page 7


 263:.\BLEApplication.c ****         break;
 264:.\BLEApplication.c ****         /* Check if the Client Characteristic Configuration Descriptor is
 265:.\BLEApplication.c ****          * written to. Notification is enabled or disabled accordingly.
 266:.\BLEApplication.c ****         */
 267:.\BLEApplication.c **** //            ‰ªéÊú∫Êé•Êî∂‰∏ªÊú∫ÁöÑÂÜôËØ∑Ê±ÇÔºåÂπ∂‰∏î‰ªéÊú∫Ë¶ÅÊúâÂÜôÂìçÂ∫î
 268:.\BLEApplication.c ****         case CYBLE_EVT_GATTS_WRITE_REQ:
 269:.\BLEApplication.c **** //            writeParam = *(CYBLE_GATTS_WRITE_REQ_PARAM_T *)eventParam;
 270:.\BLEApplication.c **** //            //Ëá™ÂÆö‰πâÊúçÂä°ÁöÑCUSTOM Characteristic
 271:.\BLEApplication.c **** //            if(writeParam.handleValPair.attrHandle == 
 272:.\BLEApplication.c **** //               CYBLE_TROUGHPUT_SERVICE_CUSTOM_CHARACTERISTIC_CHAR_HANDLE)
 273:.\BLEApplication.c **** //            {
 274:.\BLEApplication.c **** //                testCount+=writeParam.handleValPair.value.len;
 275:.\BLEApplication.c **** ////                UART_SpiUartWriteTxData(testCount);
 276:.\BLEApplication.c **** ////                printf("%ld\r\n",testCount);
 277:.\BLEApplication.c **** ////                printf("+RX=<0x");
 278:.\BLEApplication.c **** ////                for(i=0;i<writeParam.handleValPair.value.len;i++)
 279:.\BLEApplication.c **** ////                {
 280:.\BLEApplication.c **** ////                    printf("%02X",writeParam.handleValPair.value.val[i]);
 281:.\BLEApplication.c **** ////                }
 282:.\BLEApplication.c **** ////                printf(">\r\n");
 283:.\BLEApplication.c **** //            } 
 284:.\BLEApplication.c **** //            //Ëá™ÂÆö‰πâÊúçÂä°ÁöÑClient Characteristic
 285:.\BLEApplication.c **** //            if(writeParam.handleValPair.attrHandle == 
 286:.\BLEApplication.c **** //               CYBLE_TROUGHPUT_SERVICE_CUSTOM_CHARACTERISTIC_CLIENT_CHARACTERISTIC_CONFIGURATION_
 287:.\BLEApplication.c **** //            {
 288:.\BLEApplication.c **** //                charNotificationEnabled = writeParam.handleValPair.value.val[0];  
 289:.\BLEApplication.c **** //                if(charNotificationEnabled)
 290:.\BLEApplication.c **** //                {               
 291:.\BLEApplication.c **** //                    CommandMode=THROUGHT_MODE;
 292:.\BLEApplication.c **** //                    printf("+MODE=<THROUGHT_MODE>\r\n");
 293:.\BLEApplication.c **** //                }
 294:.\BLEApplication.c **** //                else
 295:.\BLEApplication.c **** //                {
 296:.\BLEApplication.c **** //                    CommandMode=AT_COMMAND_MODE;
 297:.\BLEApplication.c **** //                    printf("+MODE=<AT_COMMAND_MODE>\r\n");
 298:.\BLEApplication.c **** //                }
 299:.\BLEApplication.c **** //            }   
 300:.\BLEApplication.c **** //            //Ëá™ÂÆö‰πâÊúçÂä°ÁöÑSPEEDTEST Characteristic
 301:.\BLEApplication.c **** //            if(writeParam.handleValPair.attrHandle == 
 302:.\BLEApplication.c **** //               CYBLE_TROUGHPUT_SERVICE_SPEEDTEST_CHAR_HANDLE)
 303:.\BLEApplication.c **** //            {
 304:.\BLEApplication.c **** //                TroughtTest_Flag = writeParam.handleValPair.value.val[0];                
 305:.\BLEApplication.c **** //            }               
 306:.\BLEApplication.c **** //            CyBle_GattsWriteRsp(cyBle_connHandle);
 307:.\BLEApplication.c ****         break;
 308:.\BLEApplication.c **** //        ÂÅö‰∏∫‰∏ªÊú∫Êó∂ÔºåÊé•Êî∂Âà∞‰ªéÊú∫ÁöÑÂÜôÂìçÂ∫î
 309:.\BLEApplication.c ****         case CYBLE_EVT_GATTC_WRITE_RSP:
 310:.\BLEApplication.c ****             /* Write response for the CCCD write; this means that the
 311:.\BLEApplication.c ****              * notifications are now enabled.
 312:.\BLEApplication.c ****              * Start timing measurements to calculate throughput.
 313:.\BLEApplication.c ****              */
 314:.\BLEApplication.c **** //            if(TroughtTest_Flag)//‰ªÖ‰ªÖÂìçÂ∫îÊµãËØïÈÄè‰º†ÈÄüÁéáÊåá‰ª§,ÂÖ∂‰ªñÂÜôËØ∑Ê±Ç‰∏çÂìçÂ∫î
 315:.\BLEApplication.c **** //            {                
 316:.\BLEApplication.c **** ////                TroughtTest_Flag=FALSE;
 317:.\BLEApplication.c **** //                UART_UartPutString("Calculating throughput. Please wait...\n\r");
 318:.\BLEApplication.c **** //                Timer_Enable();
 319:.\BLEApplication.c **** //            }
ARM GAS  C:\Users\Helon\AppData\Local\Temp\ccTLkFeM.s 			page 8


 320:.\BLEApplication.c ****         break;
 321:.\BLEApplication.c **** //        case CYBLE_EVT_GATTC_READ_RSP:
 322:.\BLEApplication.c **** //            readParam=*(CYBLE_GATTC_READ_RSP_PARAM_T*)eventParam;
 323:.\BLEApplication.c **** //            if((readParam.value.val[0]))
 324:.\BLEApplication.c **** //                printf("+NOTIFY=<ENABLE>\r\n");
 325:.\BLEApplication.c **** //            else
 326:.\BLEApplication.c **** //                printf("+NOTIFY=<DISABLE>\r\n");
 327:.\BLEApplication.c **** //        break;
 328:.\BLEApplication.c **** //        Êé•Êî∂‰ªéÊú∫ÂèëÈÄÅËøáÊù•ÁöÑÈÄè‰º†Êï∞ÊçÆ            
 329:.\BLEApplication.c ****         case CYBLE_EVT_GATTC_HANDLE_VALUE_NTF:
 330:.\BLEApplication.c ****             if(TroughtTest_Flag==TRUE)
 331:.\BLEApplication.c ****             {
 332:.\BLEApplication.c ****                 if(Central==Role)//‰ªÖÊµãËØïÈÄè‰º†ÈÄüÁéáÊó∂ÊúâÊïà
 333:.\BLEApplication.c ****                 {
 334:.\BLEApplication.c ****                     handleValueNotification = (CYBLE_GATTC_HANDLE_VALUE_NTF_PARAM_T *)eventParam;
 335:.\BLEApplication.c ****                     if(handleValueNotification->handleValPair.attrHandle == 0x000E)//NotifyÊùÉÈôêÁö
 336:.\BLEApplication.c ****                     {
 337:.\BLEApplication.c ****         //                printf("Len is %d",handleValueNotification->handleValPair.value.len);
 338:.\BLEApplication.c ****                         totalByteCounter += handleValueNotification->handleValPair.value.len;
 339:.\BLEApplication.c ****                     }
 340:.\BLEApplication.c ****     //                printf("ReceviceNotification\r\n");
 341:.\BLEApplication.c ****                 }
 342:.\BLEApplication.c ****             }
 343:.\BLEApplication.c ****             else
 344:.\BLEApplication.c ****             {
 345:.\BLEApplication.c ****                 if(Central==Role)//Êé•Êî∂‰ªéÊú∫ÂèëÈÄÅËøáÊù•ÁöÑÈÄè‰º†Êï∞ÊçÆ
 346:.\BLEApplication.c ****                 {
 347:.\BLEApplication.c ****                     handleValueNotification = (CYBLE_GATTC_HANDLE_VALUE_NTF_PARAM_T *)eventParam;
 348:.\BLEApplication.c ****                     if(handleValueNotification->handleValPair.attrHandle == 0x000E)//NotifyÊùÉÈôêÁö
 349:.\BLEApplication.c ****                     {
 350:.\BLEApplication.c ****         //                printf("Len is %d",handleValueNotification->handleValPair.value.len);
 351:.\BLEApplication.c ****     //                    totalByteCounter += handleValueNotification->handleValPair.value.len;
 352:.\BLEApplication.c ****     //                    printf("%ld\r\n",totalByteCounter);
 353:.\BLEApplication.c **** //                        printf("+RX=<0x");
 354:.\BLEApplication.c ****                         for(i=0;i<handleValueNotification->handleValPair.value.len;i++)
 355:.\BLEApplication.c ****                         {
 356:.\BLEApplication.c **** //                            printf("%02X",handleValueNotification->handleValPair.value.val[i]);
 357:.\BLEApplication.c ****                             UART_UartPutChar(handleValueNotification->handleValPair.value.val[i]);
 358:.\BLEApplication.c ****                         }
 359:.\BLEApplication.c **** //                        printf("\r\n");
 360:.\BLEApplication.c ****                     }
 361:.\BLEApplication.c ****                 }
 362:.\BLEApplication.c ****             }
 363:.\BLEApplication.c ****             break;
 364:.\BLEApplication.c **** //        case CYBLE_EVT_GATTC_READ_BY_TYPE_RSP:
 365:.\BLEApplication.c **** //            DisAllCharResult=*((CYBLE_GATTC_READ_BY_TYPE_RSP_PARAM_T*)eventParam);
 366:.\BLEApplication.c **** //            printf("characteristic declaration is 0x%04X\r\n",DisAllCharResult.connHandle.bdHandl
 367:.\BLEApplication.c **** //            printf("attrLen is %d\r\n",DisAllCharResult.attrData.attrLen);   
 368:.\BLEApplication.c **** //            for(i=0;i<DisAllCharResult.attrData.attrLen;)
 369:.\BLEApplication.c **** //            {
 370:.\BLEApplication.c **** //                printf("Attribute Handle is 0x%02X%02X\r\n",DisAllCharResult.attrData.attrValue[i
 371:.\BLEApplication.c **** //                printf("Properties is 0x%02X\r\n",DisAllCharResult.attrData.attrValue[i+2]); 
 372:.\BLEApplication.c **** //                printf("Pointer Handle is 0x%02X%02X\r\n",DisAllCharResult.attrData.attrValue[i+4
 373:.\BLEApplication.c **** //                printf("UUID is 0x%02X%02X\r\n",DisAllCharResult.attrData.attrValue[i+6],DisAllCh
 374:.\BLEApplication.c **** //                i+=7;
 375:.\BLEApplication.c **** //            }
 376:.\BLEApplication.c **** ////            printf("uuid16 is 0x%04X\r\n",DisAllCharResult.uuid.uuid16); 
ARM GAS  C:\Users\Helon\AppData\Local\Temp\ccTLkFeM.s 			page 9


 377:.\BLEApplication.c **** ////            printf("uuidFormat is 0x%04X\r\n",DisAllCharResult.uuidFormat); 
 378:.\BLEApplication.c **** ////            printf("valueHandle is 0x%04X\r\n",DisAllCharResult.valueHandle);            
 379:.\BLEApplication.c **** //        break;
 380:.\BLEApplication.c **** //        Êü•ÊâæServerÁöÑÊâÄÊúâÁâπÂæÅÂÄº
 381:.\BLEApplication.c ****         case CYBLE_EVT_GATTC_FIND_INFO_RSP:
 382:.\BLEApplication.c ****             DisAllCharResult=*((CYBLE_GATTC_FIND_INFO_RSP_PARAM_T *)eventParam);
 383:.\BLEApplication.c **** //            printf("+DISALLCHAR=<0x%02X%02X,",);
 384:.\BLEApplication.c **** //            printf("connHandle is 0x%04X\r\n",DisAllCharResult.connHandle.bdHandle);
 385:.\BLEApplication.c **** //            printf("uuidFormat is %d\r\n",DisAllCharResult.uuidFormat);
 386:.\BLEApplication.c **** //            printf("byteCount is %d\r\n",DisAllCharResult.handleValueList.byteCount);
 387:.\BLEApplication.c ****             for(i=0;i<DisAllCharResult.handleValueList.byteCount;)
 388:.\BLEApplication.c ****             {                
 389:.\BLEApplication.c ****                 printf("+DIS_EVT=<0x%02X%02X,0x%02X%02X>\r\n",
 390:.\BLEApplication.c ****                     DisAllCharResult.handleValueList.list[i+1],DisAllCharResult.handleValueList.lis
 391:.\BLEApplication.c ****                     DisAllCharResult.handleValueList.list[i+3],DisAllCharResult.handleValueList.lis
 392:.\BLEApplication.c ****                 i=i+4;
 393:.\BLEApplication.c ****             }
 394:.\BLEApplication.c ****         break;
 395:.\BLEApplication.c ****         case CYBLE_EVT_GAP_AUTH_REQ:
 396:.\BLEApplication.c ****             if(Role==Peripheral)//‰ªéÊú∫Êé•Êî∂‰∏ªÊú∫ÂèëËµ∑ËÆ§ËØÅËØ∑Ê±Ç
 397:.\BLEApplication.c ****             {
 398:.\BLEApplication.c ****                 CyBle_GappAuthReqReply(cyBle_connHandle.bdHandle,&cyBle_authInfo);
 399:.\BLEApplication.c ****             }
 400:.\BLEApplication.c ****             else
 401:.\BLEApplication.c ****             {
 402:.\BLEApplication.c **** //                CyBle_GappAuthReq();
 403:.\BLEApplication.c ****             }
 404:.\BLEApplication.c ****         break;    
 405:.\BLEApplication.c ****         case CYBLE_EVT_GAP_PASSKEY_DISPLAY_REQUEST://ÊòæÁ§∫ÈöèÊú∫‰∫ßÁîüÁöÑÈÖçÂØπÁ†Å
 406:.\BLEApplication.c **** //            PassKey=*(uint32*)eventParam;            
 407:.\BLEApplication.c ****             printf("+AUTHKEY=<%lu>\r\n",*(uint32 *)eventParam);
 408:.\BLEApplication.c ****         break;
 409:.\BLEApplication.c ****         case CYBLE_EVT_GAP_PASSKEY_ENTRY_REQUEST:
 410:.\BLEApplication.c ****             KEYBOARD=TURE;//Ê†áËÆ∞Ê≠§Êó∂Ê≠§ËÆæÂ§áÂÖ∑ÊúâËæìÂÖ•ËÉΩÂäõ
 411:.\BLEApplication.c ****             printf("Please Input PassKey:\r\n");            
 412:.\BLEApplication.c ****         break;
 413:.\BLEApplication.c ****         case CYBLE_EVT_GAP_AUTH_COMPLETE:
 414:.\BLEApplication.c ****              printf("+AUTH=OK\r\n");
 415:.\BLEApplication.c ****              AUTHFLAG=TURE;
 416:.\BLEApplication.c ****         break;
 417:.\BLEApplication.c ****         case CYBLE_EVT_GAP_AUTH_FAILED:            
 418:.\BLEApplication.c ****             printf("AT+ERR=%d\r\n",*(CYBLE_GAP_AUTH_FAILED_REASON_T*)eventParam);
  80              		.loc 1 418 0
  81 0040 0978     		ldrb	r1, [r1]
  82              	.LVL4:
  83 0042 8A48     		ldr	r0, .L50+4
  84              	.LVL5:
  85 0044 FFF7FEFF 		bl	printf
  86              	.LVL6:
 419:.\BLEApplication.c ****             AUTHFLAG=FALSE;
  87              		.loc 1 419 0
  88 0048 0022     		mov	r2, #0
  89 004a 09E1     		b	.L45
  90              	.LVL7:
  91              	.L4:
 105:.\BLEApplication.c ****     {
  92              		.loc 1 105 0
ARM GAS  C:\Users\Helon\AppData\Local\Temp\ccTLkFeM.s 			page 10


  93 004c 4328     		cmp	r0, #67
  94 004e 65D0     		beq	.L14
  95 0050 07D8     		bhi	.L15
  96 0052 2A28     		cmp	r0, #42
  97 0054 5CD0     		beq	.L16
  98 0056 2B28     		cmp	r0, #43
  99 0058 27D0     		beq	.L17
 100 005a 2828     		cmp	r0, #40
 101 005c 00D0     		beq	.LCB71
 102 005e 01E1     		b	.L1	@long jump
 103              	.LCB71:
 104 0060 70E0     		b	.L49
 105              	.L15:
 106 0062 4728     		cmp	r0, #71
 107 0064 00D1     		bne	.LCB77
 108 0066 D0E0     		b	.L19	@long jump
 109              	.LCB77:
 110 0068 06D8     		bhi	.L20
 111 006a 4428     		cmp	r0, #68
 112 006c 00D0     		beq	.LCB81
 113 006e F9E0     		b	.L1	@long jump
 114              	.LCB81:
 180:.\BLEApplication.c ****             printf("mtu is %d\r\n",negotiatedMtu);
 115              		.loc 1 180 0
 116 0070 4988     		ldrh	r1, [r1, #2]
 117              	.LVL8:
 118 0072 7F4B     		ldr	r3, .L50+8
 119 0074 1981     		strh	r1, [r3, #8]
 120 0076 63E0     		b	.L47
 121              	.LVL9:
 122              	.L20:
 105:.\BLEApplication.c ****     {
 123              		.loc 1 105 0
 124 0078 4E28     		cmp	r0, #78
 125 007a 00D1     		bne	.LCB92
 126 007c 85E0     		b	.L22	@long jump
 127              	.LCB92:
 128 007e 5228     		cmp	r0, #82
 129 0080 00D1     		bne	.LCB94
 130 0082 A3E0     		b	.L23	@long jump
 131              	.LCB94:
 132 0084 EEE0     		b	.L1
 133              	.LVL10:
 134              	.L24:
 109:.\BLEApplication.c **** //            StartScan=TRUE;            
 135              		.loc 1 109 0 discriminator 5
 136 0086 FFF7FEFF 		bl	UART_SpiUartGetTxBufferSize
 137              	.LVL11:
 138 008a 7A4B     		ldr	r3, .L50+12
 139 008c 1B68     		ldr	r3, [r3]
 140 008e 1B04     		lsl	r3, r3, #16
 141 0090 DB17     		asr	r3, r3, #31
 142 0092 8342     		cmp	r3, r0
 143 0094 F7D1     		bne	.L24
 144 0096 E5E0     		b	.L1
 145              	.LVL12:
 146              	.L8:
ARM GAS  C:\Users\Helon\AppData\Local\Temp\ccTLkFeM.s 			page 11


 113:.\BLEApplication.c ****             HandleScanDevices(&Scan_Result);               
 147              		.loc 1 113 0
 148 0098 03A8     		add	r0, sp, #12
 149              	.LVL13:
 150 009a 031C     		mov	r3, r0
 151 009c 26CC     		ldmia	r4!, {r1, r2, r5}
 152 009e 26C3     		stmia	r3!, {r1, r2, r5}
 153              	.LVL14:
 154 00a0 06CC     		ldmia	r4!, {r1, r2}
 155 00a2 06C3     		stmia	r3!, {r1, r2}
 156              	.LVL15:
 114:.\BLEApplication.c **** //            CyBle_GapcStopScan();
 157              		.loc 1 114 0
 158 00a4 FFF7FEFF 		bl	HandleScanDevices
 159              	.LVL16:
 116:.\BLEApplication.c ****         case CYBLE_EVT_GAPC_SCAN_START_STOP:
 160              		.loc 1 116 0
 161 00a8 DCE0     		b	.L1
 162              	.LVL17:
 163              	.L17:
 118:.\BLEApplication.c ****             {
 164              		.loc 1 118 0
 165 00aa 734B     		ldr	r3, .L50+16
 166 00ac 1A78     		ldrb	r2, [r3]
 167 00ae 002A     		cmp	r2, #0
 168 00b0 00D1     		bne	.LCB136
 169 00b2 D7E0     		b	.L1	@long jump
 170              	.LCB136:
 120:.\BLEApplication.c ****                 printf("+SCAN_STOP\r\n");
 171              		.loc 1 120 0
 172 00b4 0022     		mov	r2, #0
 121:.\BLEApplication.c ****             }
 173              		.loc 1 121 0
 174 00b6 7148     		ldr	r0, .L50+20
 175              	.LVL18:
 120:.\BLEApplication.c ****                 printf("+SCAN_STOP\r\n");
 176              		.loc 1 120 0
 177 00b8 1A70     		strb	r2, [r3]
 178 00ba CAE0     		b	.L44
 179              	.LVL19:
 180              	.L7:
 130:.\BLEApplication.c ****             {   
 181              		.loc 1 130 0
 182 00bc 0B78     		ldrb	r3, [r1]
 183 00be 022B     		cmp	r3, #2
 184 00c0 00D0     		beq	.LCB148
 185 00c2 CFE0     		b	.L1	@long jump
 186              	.LCB148:
 132:.\BLEApplication.c ****                 printf("+SCAN_CMP\r\n");                    
 187              		.loc 1 132 0
 188 00c4 FFF7FEFF 		bl	CyBle_GapcStopScan
 189              	.LVL20:
 133:.\BLEApplication.c ****             }
 190              		.loc 1 133 0
 191 00c8 6D48     		ldr	r0, .L50+24
 192 00ca C2E0     		b	.L44
 193              	.LVL21:
ARM GAS  C:\Users\Helon\AppData\Local\Temp\ccTLkFeM.s 			page 12


 194              	.L3:
 149:.\BLEApplication.c ****             if(Role==Peripheral)
 195              		.loc 1 149 0
 196 00cc 0822     		mov	r2, #8
 197 00ce 6D48     		ldr	r0, .L50+28
 198              	.LVL22:
 199 00d0 FFF7FEFF 		bl	memcpy
 200              	.LVL23:
 150:.\BLEApplication.c ****             {
 201              		.loc 1 150 0
 202 00d4 684B     		ldr	r3, .L50+16
 203 00d6 6C4C     		ldr	r4, .L50+32
 204              	.LVL24:
 205 00d8 5A78     		ldrb	r2, [r3, #1]
 206 00da 654D     		ldr	r5, .L50+8
 207 00dc 002A     		cmp	r2, #0
 208 00de 07D1     		bne	.L26
 152:.\BLEApplication.c ****                 CyBle_L2capLeConnectionParamUpdateRequest(cyBle_connHandle.bdHandle,&connParam);
 209              		.loc 1 152 0
 210 00e0 6A48     		ldr	r0, .L50+36
 211 00e2 FFF7FEFF 		bl	puts
 212              	.LVL25:
 153:.\BLEApplication.c ****             }
 213              		.loc 1 153 0
 214 00e6 2078     		ldrb	r0, [r4]
 215 00e8 291C     		mov	r1, r5
 216 00ea FFF7FEFF 		bl	CyBle_L2capLeConnectionParamUpdateRequest
 217              	.LVL26:
 218 00ee B9E0     		b	.L1
 219              	.L26:
 157:.\BLEApplication.c **** //                ‰∏é‰ªéÊú∫ËøûÊé•ÊàêÂäüÂêéÔºå‰∏ªÊú∫ÂèëËµ∑ËøûÊé•Èó¥ÈöîÊõ¥Êñ∞ËØ∑Ê±Ç
 220              		.loc 1 157 0
 221 00f0 9978     		ldrb	r1, [r3, #2]
 222 00f2 6748     		ldr	r0, .L50+40
 223 00f4 FFF7FEFF 		bl	printf
 224              	.LVL27:
 159:.\BLEApplication.c ****                                 /* Initiate an MTU exchange request CYBLE_GATT_MTU*/
 225              		.loc 1 159 0
 226 00f8 291C     		mov	r1, r5
 227 00fa 2078     		ldrb	r0, [r4]
 228 00fc FFF7FEFF 		bl	CyBle_GapcConnectionParamUpdateRequest
 229              	.LVL28:
 161:.\BLEApplication.c ****             }
 230              		.loc 1 161 0
 231 0100 6078     		ldrb	r0, [r4, #1]
 232 0102 2378     		ldrb	r3, [r4]
 233 0104 0002     		lsl	r0, r0, #8
 234 0106 1843     		orr	r0, r3
 235 0108 3321     		mov	r1, #51
 236 010a FFF7FEFF 		bl	CyBle_GattcExchangeMtuReq
 237              	.LVL29:
 238 010e A9E0     		b	.L1
 239              	.LVL30:
 240              	.L16:
 173:.\BLEApplication.c ****             printf("+UPDATECONN_EVT=OK\r\n");
 241              		.loc 1 173 0
 242 0110 5C48     		ldr	r0, .L50+28
ARM GAS  C:\Users\Helon\AppData\Local\Temp\ccTLkFeM.s 			page 13


 243              	.LVL31:
 244 0112 0822     		mov	r2, #8
 245 0114 FFF7FEFF 		bl	memcpy
 246              	.LVL32:
 174:.\BLEApplication.c **** //            if(Role==Central)
 247              		.loc 1 174 0
 248 0118 5E48     		ldr	r0, .L50+44
 249 011a 9AE0     		b	.L44
 250              	.LVL33:
 251              	.L14:
 199:.\BLEApplication.c ****             negotiatedMtu = (((CYBLE_GATT_XCHG_MTU_PARAM_T *)eventParam)->mtu < CYBLE_GATT_MTU) ?
 252              		.loc 1 199 0
 253 011c 5A4A     		ldr	r2, .L50+32
 254 011e 3321     		mov	r1, #51
 255              	.LVL34:
 256 0120 5078     		ldrb	r0, [r2, #1]
 257              	.LVL35:
 258 0122 1378     		ldrb	r3, [r2]
 259 0124 0002     		lsl	r0, r0, #8
 260 0126 1843     		orr	r0, r3
 261 0128 FFF7FEFF 		bl	CyBle_GattsExchangeMtuRsp
 262              	.LVL36:
 200:.\BLEApplication.c ****                             ((CYBLE_GATT_XCHG_MTU_PARAM_T *)eventParam)->mtu : CYBLE_GATT_MTU;
 263              		.loc 1 200 0
 264 012c 8022     		mov	r2, #128
 265 012e 6188     		ldrh	r1, [r4, #2]
 266 0130 9200     		lsl	r2, r2, #2
 267 0132 0B1C     		add	r3, r1, #0
 268 0134 9142     		cmp	r1, r2
 269 0136 00D9     		bls	.L27
 270 0138 131C     		add	r3, r2, #0
 271              	.L27:
 272 013a 4D4A     		ldr	r2, .L50+8
 273 013c 99B2     		uxth	r1, r3
 274 013e 1381     		strh	r3, [r2, #8]
 275              	.L47:
 202:.\BLEApplication.c **** //            printf("'MTU Exchange Request' received from GATT client device\r\n");
 276              		.loc 1 202 0
 277 0140 5548     		ldr	r0, .L50+48
 278 0142 7FE0     		b	.L46
 279              	.LVL37:
 280              	.L49:
 206:.\BLEApplication.c ****             cyBle_discoveryModeInfo.advParam->advIntvMin = CYBLE_FAST_ADV_INT_MIN;
 281              		.loc 1 206 0
 282 0144 1E22     		mov	r2, #30
 283 0146 554B     		ldr	r3, .L50+52
 209:.\BLEApplication.c ****             {
 284              		.loc 1 209 0
 285 0148 4B4D     		ldr	r5, .L50+16
 206:.\BLEApplication.c ****             cyBle_discoveryModeInfo.advParam->advIntvMin = CYBLE_FAST_ADV_INT_MIN;
 286              		.loc 1 206 0
 287 014a 1A82     		strh	r2, [r3, #16]
 207:.\BLEApplication.c ****             cyBle_discoveryModeInfo.advParam->advIntvMax = CYBLE_FAST_ADV_INT_MAX;                 
 288              		.loc 1 207 0
 289 014c 5B68     		ldr	r3, [r3, #4]
 290 014e 0232     		add	r2, r2, #2
 291 0150 1A80     		strh	r2, [r3]
ARM GAS  C:\Users\Helon\AppData\Local\Temp\ccTLkFeM.s 			page 14


 208:.\BLEApplication.c ****             if(Role==Peripheral)
 292              		.loc 1 208 0
 293 0152 5A80     		strh	r2, [r3, #2]
 209:.\BLEApplication.c ****             {
 294              		.loc 1 209 0
 295 0154 6B78     		ldrb	r3, [r5, #1]
 296 0156 0A78     		ldrb	r2, [r1]
 297 0158 002B     		cmp	r3, #0
 298 015a 04D1     		bne	.L28
 211:.\BLEApplication.c ****             }
 299              		.loc 1 211 0
 300 015c 111C     		mov	r1, r2
 301              	.LVL38:
 302 015e 5048     		ldr	r0, .L50+56
 303              	.LVL39:
 304 0160 FFF7FEFF 		bl	printf
 305              	.LVL40:
 306 0164 03E0     		b	.L30
 307              	.LVL41:
 308              	.L28:
 215:.\BLEApplication.c ****             }
 309              		.loc 1 215 0
 310 0166 A978     		ldrb	r1, [r5, #2]
 311              	.LVL42:
 312 0168 4E48     		ldr	r0, .L50+60
 313              	.LVL43:
 314 016a FFF7FEFF 		bl	printf
 315              	.LVL44:
 316              	.L30:
 217:.\BLEApplication.c ****             LowPower_EN=TURE;
 317              		.loc 1 217 0 discriminator 5
 318 016e FFF7FEFF 		bl	UART_SpiUartGetTxBufferSize
 319              	.LVL45:
 320 0172 0122     		mov	r2, #1
 321 0174 3F4B     		ldr	r3, .L50+12
 322 0176 1B68     		ldr	r3, [r3]
 323 0178 DB0B     		lsr	r3, r3, #15
 324 017a 1340     		and	r3, r2
 325 017c C018     		add	r0, r0, r3
 326 017e 0028     		cmp	r0, #0
 327 0180 F5D1     		bne	.L30
 218:.\BLEApplication.c ****             AUTHFLAG=FALSE;
 328              		.loc 1 218 0
 329 0182 3B4B     		ldr	r3, .L50+8
 219:.\BLEApplication.c ****         break;
 330              		.loc 1 219 0
 331 0184 E870     		strb	r0, [r5, #3]
 218:.\BLEApplication.c ****             AUTHFLAG=FALSE;
 332              		.loc 1 218 0
 333 0186 9A72     		strb	r2, [r3, #10]
 220:.\BLEApplication.c **** //            ‰ªéÊú∫Êé•Êî∂‰∏ªÊú∫ÁöÑÂÜôËØ∑Ê±ÇÔºåÂπ∂‰∏î‰ªéÊú∫‰∏çÈúÄË¶ÅÂÜôÂìçÂ∫î
 334              		.loc 1 220 0
 335 0188 6CE0     		b	.L1
 336              	.LVL46:
 337              	.L22:
 223:.\BLEApplication.c ****             //Ëá™ÂÆö‰πâÊúçÂä°ÁöÑCUSTOM Characteristic
 338              		.loc 1 223 0
ARM GAS  C:\Users\Helon\AppData\Local\Temp\ccTLkFeM.s 			page 15


 339 018a 8B89     		ldrh	r3, [r1, #12]
 340 018c 4D68     		ldr	r5, [r1, #4]
 341              	.LVL47:
 342 018e 0E89     		ldrh	r6, [r1, #8]
 343              	.LVL48:
 225:.\BLEApplication.c ****                CYBLE_TROUGHPUT_SERVICE_CUSTOM_CHARACTERISTIC_CHAR_HANDLE)
 344              		.loc 1 225 0
 345 0190 0E2B     		cmp	r3, #14
 346 0192 0CD1     		bne	.L31
 231:.\BLEApplication.c ****                 {                    
 347              		.loc 1 231 0
 348 0194 0024     		mov	r4, #0
 228:.\BLEApplication.c **** //                printf("0x");
 349              		.loc 1 228 0
 350 0196 384A     		ldr	r2, .L50+16
 351 0198 5368     		ldr	r3, [r2, #4]
 352              	.LVL49:
 353 019a F318     		add	r3, r6, r3
 354 019c 5360     		str	r3, [r2, #4]
 355              	.LVL50:
 356              	.L32:
 231:.\BLEApplication.c ****                 {                    
 357              		.loc 1 231 0 discriminator 1
 358 019e B442     		cmp	r4, r6
 359 01a0 60D2     		bcs	.L1
 234:.\BLEApplication.c ****                 }   
 360              		.loc 1 234 0 discriminator 3
 361 01a2 285D     		ldrb	r0, [r5, r4]
 231:.\BLEApplication.c ****                 {                    
 362              		.loc 1 231 0 discriminator 3
 363 01a4 0134     		add	r4, r4, #1
 364              	.LVL51:
 234:.\BLEApplication.c ****                 }   
 365              		.loc 1 234 0 discriminator 3
 366 01a6 FFF7FEFF 		bl	UART_SpiUartWriteTxData
 367              	.LVL52:
 231:.\BLEApplication.c ****                 {                    
 368              		.loc 1 231 0 discriminator 3
 369 01aa E4B2     		uxtb	r4, r4
 370              	.LVL53:
 371 01ac F7E7     		b	.L32
 372              	.LVL54:
 373              	.L31:
 248:.\BLEApplication.c ****                CYBLE_TROUGHPUT_SERVICE_CUSTOM_CHARACTERISTIC_CLIENT_CHARACTERISTIC_CONFIGURATION_DE
 374              		.loc 1 248 0
 375 01ae 0F2B     		cmp	r3, #15
 376 01b0 58D1     		bne	.L1
 251:.\BLEApplication.c ****                 if(charNotificationEnabled)
 377              		.loc 1 251 0
 378 01b2 2A78     		ldrb	r2, [r5]
 379 01b4 304B     		ldr	r3, .L50+16
 380              	.LVL55:
 381 01b6 1A72     		strb	r2, [r3, #8]
 252:.\BLEApplication.c ****                 {               
 382              		.loc 1 252 0
 383 01b8 002A     		cmp	r2, #0
 384 01ba 03D0     		beq	.L34
ARM GAS  C:\Users\Helon\AppData\Local\Temp\ccTLkFeM.s 			page 16


 254:.\BLEApplication.c ****                     printf("+MODE=<THROUGHT_MODE>\r\n");
 385              		.loc 1 254 0
 386 01bc 0122     		mov	r2, #1
 255:.\BLEApplication.c ****                 }
 387              		.loc 1 255 0
 388 01be 3A48     		ldr	r0, .L50+64
 389              	.LVL56:
 254:.\BLEApplication.c ****                     printf("+MODE=<THROUGHT_MODE>\r\n");
 390              		.loc 1 254 0
 391 01c0 5A72     		strb	r2, [r3, #9]
 392 01c2 46E0     		b	.L44
 393              	.LVL57:
 394              	.L34:
 259:.\BLEApplication.c ****                     printf("+MODE=<AT_COMMAND_MODE>\r\n");
 395              		.loc 1 259 0
 396 01c4 0022     		mov	r2, #0
 260:.\BLEApplication.c ****                 }
 397              		.loc 1 260 0
 398 01c6 3948     		ldr	r0, .L50+68
 399              	.LVL58:
 259:.\BLEApplication.c ****                     printf("+MODE=<AT_COMMAND_MODE>\r\n");
 400              		.loc 1 259 0
 401 01c8 5A72     		strb	r2, [r3, #9]
 402 01ca 42E0     		b	.L44
 403              	.LVL59:
 404              	.L23:
 330:.\BLEApplication.c ****             {
 405              		.loc 1 330 0
 406 01cc 2A4B     		ldr	r3, .L50+16
 407 01ce 997A     		ldrb	r1, [r3, #10]
 408              	.LVL60:
 409 01d0 5A78     		ldrb	r2, [r3, #1]
 410 01d2 0129     		cmp	r1, #1
 411 01d4 09D1     		bne	.L35
 332:.\BLEApplication.c ****                 {
 412              		.loc 1 332 0
 413 01d6 012A     		cmp	r2, #1
 414 01d8 44D1     		bne	.L1
 415              	.LVL61:
 335:.\BLEApplication.c ****                     {
 416              		.loc 1 335 0
 417 01da A289     		ldrh	r2, [r4, #12]
 418 01dc 0E2A     		cmp	r2, #14
 419 01de 41D1     		bne	.L1
 338:.\BLEApplication.c ****                     }
 420              		.loc 1 338 0
 421 01e0 2289     		ldrh	r2, [r4, #8]
 422 01e2 D968     		ldr	r1, [r3, #12]
 423 01e4 5218     		add	r2, r2, r1
 424 01e6 DA60     		str	r2, [r3, #12]
 425 01e8 3CE0     		b	.L1
 426              	.LVL62:
 427              	.L35:
 345:.\BLEApplication.c ****                 {
 428              		.loc 1 345 0
 429 01ea 012A     		cmp	r2, #1
 430 01ec 3AD1     		bne	.L1
ARM GAS  C:\Users\Helon\AppData\Local\Temp\ccTLkFeM.s 			page 17


 431              	.LVL63:
 348:.\BLEApplication.c ****                     {
 432              		.loc 1 348 0
 433 01ee A389     		ldrh	r3, [r4, #12]
 434 01f0 0E2B     		cmp	r3, #14
 435 01f2 37D1     		bne	.L1
 436 01f4 0025     		mov	r5, #0
 437              	.LVL64:
 438              	.L36:
 354:.\BLEApplication.c ****                         {
 439              		.loc 1 354 0 discriminator 1
 440 01f6 2389     		ldrh	r3, [r4, #8]
 441 01f8 AB42     		cmp	r3, r5
 442 01fa 33D9     		bls	.L1
 357:.\BLEApplication.c ****                         }
 443              		.loc 1 357 0 discriminator 3
 444 01fc 6368     		ldr	r3, [r4, #4]
 445 01fe 585D     		ldrb	r0, [r3, r5]
 354:.\BLEApplication.c ****                         {
 446              		.loc 1 354 0 discriminator 3
 447 0200 0135     		add	r5, r5, #1
 448              	.LVL65:
 357:.\BLEApplication.c ****                         }
 449              		.loc 1 357 0 discriminator 3
 450 0202 FFF7FEFF 		bl	UART_SpiUartWriteTxData
 451              	.LVL66:
 354:.\BLEApplication.c ****                         {
 452              		.loc 1 354 0 discriminator 3
 453 0206 EDB2     		uxtb	r5, r5
 454              	.LVL67:
 455 0208 F5E7     		b	.L36
 456              	.LVL68:
 457              	.L19:
 387:.\BLEApplication.c ****             {                
 458              		.loc 1 387 0
 459 020a 0024     		mov	r4, #0
 382:.\BLEApplication.c **** //            printf("+DISALLCHAR=<0x%02X%02X,",);
 460              		.loc 1 382 0
 461 020c 4D68     		ldr	r5, [r1, #4]
 462              	.LVL69:
 463 020e 0E89     		ldrh	r6, [r1, #8]
 464              	.LVL70:
 465              	.L38:
 387:.\BLEApplication.c ****             {                
 466              		.loc 1 387 0 discriminator 1
 467 0210 B442     		cmp	r4, r6
 468 0212 27D2     		bcs	.L1
 390:.\BLEApplication.c ****                     DisAllCharResult.handleValueList.list[i+3],DisAllCharResult.handleValueList.lis
 469              		.loc 1 390 0
 470 0214 2819     		add	r0, r5, r4
 389:.\BLEApplication.c ****                     DisAllCharResult.handleValueList.list[i+1],DisAllCharResult.handleValueList.lis
 471              		.loc 1 389 0
 472 0216 4178     		ldrb	r1, [r0, #1]
 473 0218 C378     		ldrb	r3, [r0, #3]
 474 021a 8078     		ldrb	r0, [r0, #2]
 475 021c 2A5D     		ldrb	r2, [r5, r4]
 476 021e 0090     		str	r0, [sp]
ARM GAS  C:\Users\Helon\AppData\Local\Temp\ccTLkFeM.s 			page 18


 392:.\BLEApplication.c ****             }
 477              		.loc 1 392 0
 478 0220 0434     		add	r4, r4, #4
 479              	.LVL71:
 389:.\BLEApplication.c ****                     DisAllCharResult.handleValueList.list[i+1],DisAllCharResult.handleValueList.lis
 480              		.loc 1 389 0
 481 0222 2348     		ldr	r0, .L50+72
 482 0224 FFF7FEFF 		bl	printf
 483              	.LVL72:
 392:.\BLEApplication.c ****             }
 484              		.loc 1 392 0
 485 0228 E4B2     		uxtb	r4, r4
 486              	.LVL73:
 487 022a F1E7     		b	.L38
 488              	.LVL74:
 489              	.L5:
 396:.\BLEApplication.c ****             {
 490              		.loc 1 396 0
 491 022c 124B     		ldr	r3, .L50+16
 492 022e 5B78     		ldrb	r3, [r3, #1]
 493 0230 002B     		cmp	r3, #0
 494 0232 17D1     		bne	.L1
 398:.\BLEApplication.c ****             }
 495              		.loc 1 398 0
 496 0234 144B     		ldr	r3, .L50+32
 497 0236 1F49     		ldr	r1, .L50+76
 498              	.LVL75:
 499 0238 1878     		ldrb	r0, [r3]
 500              	.LVL76:
 501 023a FFF7FEFF 		bl	CyBle_GappAuthReqReply
 502              	.LVL77:
 503 023e 11E0     		b	.L1
 504              	.LVL78:
 505              	.L10:
 407:.\BLEApplication.c ****         break;
 506              		.loc 1 407 0
 507 0240 1D48     		ldr	r0, .L50+80
 508              	.LVL79:
 509 0242 0968     		ldr	r1, [r1]
 510              	.LVL80:
 511              	.L46:
 512 0244 FFF7FEFF 		bl	printf
 513              	.LVL81:
 408:.\BLEApplication.c ****         case CYBLE_EVT_GAP_PASSKEY_ENTRY_REQUEST:
 514              		.loc 1 408 0
 515 0248 0CE0     		b	.L1
 516              	.LVL82:
 517              	.L11:
 410:.\BLEApplication.c ****             printf("Please Input PassKey:\r\n");            
 518              		.loc 1 410 0
 519 024a 0122     		mov	r2, #1
 520 024c 0A4B     		ldr	r3, .L50+16
 411:.\BLEApplication.c ****         break;
 521              		.loc 1 411 0
 522 024e 1B48     		ldr	r0, .L50+84
 523              	.LVL83:
 410:.\BLEApplication.c ****             printf("Please Input PassKey:\r\n");            
ARM GAS  C:\Users\Helon\AppData\Local\Temp\ccTLkFeM.s 			page 19


 524              		.loc 1 410 0
 525 0250 1A74     		strb	r2, [r3, #16]
 526              	.LVL84:
 527              	.L44:
 411:.\BLEApplication.c ****         break;
 528              		.loc 1 411 0
 529 0252 FFF7FEFF 		bl	puts
 530              	.LVL85:
 412:.\BLEApplication.c ****         case CYBLE_EVT_GAP_AUTH_COMPLETE:
 531              		.loc 1 412 0
 532 0256 05E0     		b	.L1
 533              	.LVL86:
 534              	.L12:
 414:.\BLEApplication.c ****              AUTHFLAG=TURE;
 535              		.loc 1 414 0
 536 0258 1948     		ldr	r0, .L50+88
 537              	.LVL87:
 538 025a FFF7FEFF 		bl	puts
 539              	.LVL88:
 415:.\BLEApplication.c ****         break;
 540              		.loc 1 415 0
 541 025e 0122     		mov	r2, #1
 542              	.L45:
 543              		.loc 1 419 0
 544 0260 054B     		ldr	r3, .L50+16
 545 0262 DA70     		strb	r2, [r3, #3]
 546              	.LVL89:
 547              	.L1:
 420:.\BLEApplication.c ****         break;
 421:.\BLEApplication.c ****         default:
 422:.\BLEApplication.c ****         break;
 423:.\BLEApplication.c ****     
 424:.\BLEApplication.c ****     }
 425:.\BLEApplication.c **** }
 548              		.loc 1 425 0
 549 0264 08B0     		add	sp, sp, #32
 550              		@ sp needed
 551 0266 70BD     		pop	{r4, r5, r6, pc}
 552              	.L51:
 553              		.align	2
 554              	.L50:
 555 0268 00000000 		.word	.LC0
 556 026c 1F010000 		.word	.LC36
 557 0270 00000000 		.word	.LANCHOR1
 558 0274 08022440 		.word	1076101640
 559 0278 00000000 		.word	.LANCHOR0
 560 027c 0E000000 		.word	.LC3
 561 0280 1A000000 		.word	.LC5
 562 0284 00000000 		.word	ConnParam
 563 0288 00000000 		.word	cyBle_connHandle
 564 028c 25000000 		.word	.LC8
 565 0290 33000000 		.word	.LC12
 566 0294 47000000 		.word	.LC14
 567 0298 5B000000 		.word	.LC16
 568 029c 00000000 		.word	cyBle_discoveryModeInfo
 569 02a0 67000000 		.word	.LC19
 570 02a4 7F000000 		.word	.LC21
ARM GAS  C:\Users\Helon\AppData\Local\Temp\ccTLkFeM.s 			page 20


 571 02a8 9A000000 		.word	.LC23
 572 02ac B1000000 		.word	.LC25
 573 02b0 CA000000 		.word	.LC27
 574 02b4 00000000 		.word	cyBle_authInfo
 575 02b8 ED000000 		.word	.LC30
 576 02bc FE000000 		.word	.LC32
 577 02c0 15010000 		.word	.LC34
 578              		.cfi_endproc
 579              	.LFE35:
 580              		.size	StackEventHandler, .-StackEventHandler
 581              		.section	.text.MyTimerIsr,"ax",%progbits
 582              		.align	1
 583              		.global	MyTimerIsr
 584              		.code	16
 585              		.thumb_func
 586              		.type	MyTimerIsr, %function
 587              	MyTimerIsr:
 588              	.LFB45:
 426:.\BLEApplication.c **** 
 427:.\BLEApplication.c **** 
 428:.\BLEApplication.c **** /******************************************************************************
 429:.\BLEApplication.c **** * Function Name: LowPowerManagement
 430:.\BLEApplication.c **** ***************************************************************************//**
 431:.\BLEApplication.c **** * 
 432:.\BLEApplication.c **** *  BLE‰ΩéÂäüËÄóÁÆ°ÁêÜ
 433:.\BLEApplication.c **** * 
 434:.\BLEApplication.c **** * \return
 435:.\BLEApplication.c **** *  None
 436:.\BLEApplication.c **** * 
 437:.\BLEApplication.c **** ******************************************************************************/
 438:.\BLEApplication.c **** //uint8_t size=0,ch[10]={0},i=0;
 439:.\BLEApplication.c **** void LowPowerManagement(void)
 440:.\BLEApplication.c **** {
 441:.\BLEApplication.c ****     /* Local variable to store the status of BLESS Hardware block */
 442:.\BLEApplication.c **** 		CYBLE_LP_MODE_T sleepMode;
 443:.\BLEApplication.c **** 		CYBLE_BLESS_STATE_T blessState;
 444:.\BLEApplication.c **** 	
 445:.\BLEApplication.c **** 		/* Put BLESS into Deep Sleep and check the return status */
 446:.\BLEApplication.c **** 		sleepMode = CyBle_EnterLPM(CYBLE_BLESS_DEEPSLEEP);
 447:.\BLEApplication.c **** 		
 448:.\BLEApplication.c **** 		/* Disable global interrupt to prevent changes from any other interrupt ISR */
 449:.\BLEApplication.c **** 		CyGlobalIntDisable;
 450:.\BLEApplication.c **** 	
 451:.\BLEApplication.c **** 		/* Check the Status of BLESS */
 452:.\BLEApplication.c **** 		blessState = CyBle_GetBleSsState();
 453:.\BLEApplication.c **** 
 454:.\BLEApplication.c **** 		if(sleepMode == CYBLE_BLESS_DEEPSLEEP)
 455:.\BLEApplication.c **** 		{
 456:.\BLEApplication.c **** 		    /* If the ECO has started or the BLESS can go to Deep Sleep, then place CPU 
 457:.\BLEApplication.c **** 			* to Deep Sleep */
 458:.\BLEApplication.c **** 			if(blessState == CYBLE_BLESS_STATE_ECO_ON || blessState == CYBLE_BLESS_STATE_DEEPSLEEP)
 459:.\BLEApplication.c **** 		    {
 460:.\BLEApplication.c **** //                printf("Device is going into DeepSleep!\r\n");
 461:.\BLEApplication.c ****                 Status_LED_Write(LED_ON);             
 462:.\BLEApplication.c ****                 while((UART_SpiUartGetTxBufferSize() + UART_GET_TX_FIFO_SR_VALID) != 0);//Á≠âÂæÖ‰∏≤
 463:.\BLEApplication.c ****                 UART_Sleep();
 464:.\BLEApplication.c **** 		        CySysPmDeepSleep();
ARM GAS  C:\Users\Helon\AppData\Local\Temp\ccTLkFeM.s 			page 21


 465:.\BLEApplication.c ****                 UART_Wakeup();
 466:.\BLEApplication.c ****                 CyDelay(5);
 467:.\BLEApplication.c ****                 UART_SpiUartClearRxBuffer();//Ê∏ÖÈô§‰∏≤Âè£Êé•Êî∂ÁºìÂÜ≤Âå∫
 468:.\BLEApplication.c ****                 UART_RX_WAKEUP_IRQ_ClearPending();
 469:.\BLEApplication.c **** //                UART_SCB_IRQ_ClearPending();
 470:.\BLEApplication.c ****                 UART_rx_wake_ClearInterrupt();                
 471:.\BLEApplication.c **** //                UART_RX_WAKEUP_IRQ_Disable();
 472:.\BLEApplication.c **** //                UART_UartPutString("Device is WakeUp!\r\n");                
 473:.\BLEApplication.c **** //                Âî§ÈÜíÂêé‰ΩøËÉΩ‰∏≤Âè£Êé•Êî∂‰∏≠Êñ≠
 474:.\BLEApplication.c **** //                  UART_SetCustomInterruptHandler(My_ISR_UART);            
 475:.\BLEApplication.c ****                 LowPower_EN=FALSE;
 476:.\BLEApplication.c ****                 Status_LED_Write(LED_OFF);  
 477:.\BLEApplication.c **** 
 478:.\BLEApplication.c **** 		 	}
 479:.\BLEApplication.c **** 		}
 480:.\BLEApplication.c **** 		else if(sleepMode == CYBLE_BLESS_SLEEP)
 481:.\BLEApplication.c **** 		{
 482:.\BLEApplication.c **** 		    if(blessState != CYBLE_BLESS_STATE_EVENT_CLOSE)
 483:.\BLEApplication.c **** 		    {
 484:.\BLEApplication.c **** 				/* If the BLESS hardware block cannot go to Deep Sleep and BLE Event has not 
 485:.\BLEApplication.c **** 				* closed yet, then place CPU to Sleep */ 
 486:.\BLEApplication.c **** 		        CySysPmSleep();  
 487:.\BLEApplication.c **** 		    }
 488:.\BLEApplication.c **** 		}
 489:.\BLEApplication.c **** 		/* Re-enable global interrupt mask after wakeup */
 490:.\BLEApplication.c **** 		CyGlobalIntEnable;           
 491:.\BLEApplication.c ****         
 492:.\BLEApplication.c **** }
 493:.\BLEApplication.c **** 
 494:.\BLEApplication.c **** /******************************************************************************
 495:.\BLEApplication.c **** * Function Name: MY_ISR_USERBUTTON
 496:.\BLEApplication.c **** ***************************************************************************//**
 497:.\BLEApplication.c **** * 
 498:.\BLEApplication.c **** *  Âî§ÈÜíÊåâÈîÆ‰∏≠Êñ≠Â§ÑÁêÜÂáΩÊï∞
 499:.\BLEApplication.c **** * 
 500:.\BLEApplication.c **** * \return
 501:.\BLEApplication.c **** *  None
 502:.\BLEApplication.c **** * 
 503:.\BLEApplication.c **** ******************************************************************************/
 504:.\BLEApplication.c **** CY_ISR(MY_ISR_USERBUTTON)
 505:.\BLEApplication.c **** {
 506:.\BLEApplication.c **** //    isr_UserButton_ClearPending();
 507:.\BLEApplication.c **** //    UserButton_ClearInterrupt();
 508:.\BLEApplication.c **** ////    Ê∏ÖÈô§‰∏≤Âè£Êé•Êî∂ÁºìÂÜ≤Âå∫,Èò≤Ê≠¢‰øÆÊîπ‰∫Ü‰∏≤Âè£Ê≥¢ÁâπÁéá‰πãÂêé,ÂèëÈÄÅÁ´ØÊú™ÂèäÊó∂Áõ∏Â∫îÁö
 509:.\BLEApplication.c **** //    memset(RX_BUFFER,0,sizeof(RX_BUFFER));
 510:.\BLEApplication.c **** //    Buffer_Length=0;
 511:.\BLEApplication.c **** //    if(Peripheral==Role)
 512:.\BLEApplication.c **** //    {
 513:.\BLEApplication.c **** //        CyBle_GappStartAdvertisement(CYBLE_ADVERTISING_FAST);
 514:.\BLEApplication.c **** //    }
 515:.\BLEApplication.c **** //    StartScan=TRUE;
 516:.\BLEApplication.c **** //    printf("test!\r\n");
 517:.\BLEApplication.c **** }
 518:.\BLEApplication.c **** /******************************************************************************
 519:.\BLEApplication.c **** * Function Name: My_ISR_UART
 520:.\BLEApplication.c **** ***************************************************************************//**
 521:.\BLEApplication.c **** * 
ARM GAS  C:\Users\Helon\AppData\Local\Temp\ccTLkFeM.s 			page 22


 522:.\BLEApplication.c **** *  ‰∏≤Âè£Êé•Êî∂‰∏≠Êñ≠Â§ÑÁêÜÂáΩÊï∞
 523:.\BLEApplication.c **** * 
 524:.\BLEApplication.c **** * \return
 525:.\BLEApplication.c **** *  None
 526:.\BLEApplication.c **** * 
 527:.\BLEApplication.c **** ******************************************************************************/
 528:.\BLEApplication.c **** CY_ISR(My_ISR_UART)
 529:.\BLEApplication.c **** {
 530:.\BLEApplication.c **** //    uint8_t rxdata;
 531:.\BLEApplication.c ****     if(UART_GetRxInterruptSourceMasked()&UART_INTR_RX_NOT_EMPTY)//Âà§Êñ≠Êé•Êî∂‰∏≠Êñ≠ÁöÑÁ±ªÂûã
 532:.\BLEApplication.c ****     {
 533:.\BLEApplication.c ****         rx_isover=TURE;
 534:.\BLEApplication.c ****         //ËØªÂèñ‰∏≤Âè£Êï∞ÊçÆ
 535:.\BLEApplication.c **** //        rxdata=UART_UartGetByte();
 536:.\BLEApplication.c **** //        if(rxdata!='\n')
 537:.\BLEApplication.c **** //        {
 538:.\BLEApplication.c **** //          RX_BUFFER[Buffer_Length]=rxdata;//ËØªÂèñ‰∏≤Âè£Êé•Êî∂ÁºìÂÜ≤Âå∫ÁöÑÊï∞ÊçÆ
 539:.\BLEApplication.c **** //          Buffer_Length++;
 540:.\BLEApplication.c **** //        }
 541:.\BLEApplication.c **** //        else
 542:.\BLEApplication.c **** //        {          
 543:.\BLEApplication.c **** //          RX_BUFFER[Buffer_Length]=rxdata;//ËØªÂèñ‰∏≤Âè£Êé•Êî∂ÁºìÂÜ≤Âå∫ÁöÑÊï∞ÊçÆ
 544:.\BLEApplication.c **** //          rx_isover=TURE;
 545:.\BLEApplication.c **** //        }
 546:.\BLEApplication.c ****     }
 547:.\BLEApplication.c **** //    UART_SpiUartClearRxBuffer();//Ê∏ÖÈô§‰∏≤Âè£Êé•Êî∂ÁºìÂÜ≤Âå∫
 548:.\BLEApplication.c **** //    UART_RX_WAKEUP_IRQ_ClearPending();
 549:.\BLEApplication.c **** //    UART_SCB_IRQ_ClearPending();
 550:.\BLEApplication.c **** //    UART_rx_wake_ClearInterrupt();    
 551:.\BLEApplication.c ****     UART_ClearRxInterruptSource(UART_INTR_RX_NOT_EMPTY);
 552:.\BLEApplication.c ****   
 553:.\BLEApplication.c **** }
 554:.\BLEApplication.c **** 
 555:.\BLEApplication.c **** /******************************************************************************
 556:.\BLEApplication.c **** * Function Name: SystemInitialization
 557:.\BLEApplication.c **** ***************************************************************************//**
 558:.\BLEApplication.c **** * 
 559:.\BLEApplication.c **** *  BLEÂçèËÆÆÊ†à„ÄÅÂ§ñËÆæÂàùÂßãÂåñ
 560:.\BLEApplication.c **** * 
 561:.\BLEApplication.c **** * \return
 562:.\BLEApplication.c **** *  None
 563:.\BLEApplication.c **** * 
 564:.\BLEApplication.c **** ******************************************************************************/
 565:.\BLEApplication.c **** void SystemInitialization(void)
 566:.\BLEApplication.c **** {
 567:.\BLEApplication.c **** //    ÊµÅÊéßÂºïËÑöÁöÑÂàùÂßãÂåñ
 568:.\BLEApplication.c ****     CTS_SetDriveMode(CTS_DM_STRONG);//ÊµÅÊéßÂºïËÑöËÆæÁΩÆ‰∏∫Êé®ÊåΩËæìÂá∫
 569:.\BLEApplication.c ****     CTS_Write(CTS_OFF);//ÊµÅÊéßÊòØ‰ΩéÁîµÂπ≥ÊúâÊïà
 570:.\BLEApplication.c **** //    uint16_t counter;
 571:.\BLEApplication.c ****     //Â≠òÊîæNotifyÂÄºÁöÑÊï∞ÁªÑÂàùÂßãÂåñ
 572:.\BLEApplication.c **** //    for(counter = 0; counter < 20; counter++)
 573:.\BLEApplication.c **** //    {
 574:.\BLEApplication.c **** //        buffer[counter] = counter;
 575:.\BLEApplication.c **** //    }
 576:.\BLEApplication.c **** //    ÂàùÂßãÂåñÂÜôËØ∑Ê±ÇÊï∞ÊçÆ
 577:.\BLEApplication.c ****     writeRequestData.attrHandle=CYBLE_TROUGHPUT_SERVICE_CUSTOM_CHARACTERISTIC_CLIENT_CHARACTERISTIC
 578:.\BLEApplication.c ****     writeRequestData.value=cccdNotifFlagSetStruct;
ARM GAS  C:\Users\Helon\AppData\Local\Temp\ccTLkFeM.s 			page 23


 579:.\BLEApplication.c **** //    ÂàùÂßãÂåñÂπøÊí≠Èó¥ÈöîÂíåÂπøÂëäË∂ÖÊó∂Êó∂Èó¥
 580:.\BLEApplication.c **** //    updateadvparam.advParam->advIntvMin=CYBLE_FAST_ADV_INT_MIN;
 581:.\BLEApplication.c **** //    updateadvparam.advParam->advIntvMax=CYBLE_FAST_ADV_INT_MAX;
 582:.\BLEApplication.c **** //    updateadvparam.advTo=CYBLE_FAST_ADV_TIMEOUT;
 583:.\BLEApplication.c **** //    ConfigUartInit();
 584:.\BLEApplication.c **** //    SetUartConfiguration(BAUD_9600);    
 585:.\BLEApplication.c ****     Timer_Init();
 586:.\BLEApplication.c ****     TimerInterrupt_StartEx(MyTimerIsr);
 587:.\BLEApplication.c ****     UART_Start();
 588:.\BLEApplication.c ****   //    UART_SCB_IRQ_StartEx(My_ISR_UART);   
 589:.\BLEApplication.c **** //    isr_UserButton_StartEx(MY_ISR_USERBUTTON);
 590:.\BLEApplication.c ****     LedInit();
 591:.\BLEApplication.c ****     CyBle_Start(StackEventHandler);
 592:.\BLEApplication.c ****     
 593:.\BLEApplication.c **** }
 594:.\BLEApplication.c **** 
 595:.\BLEApplication.c **** /******************************************************************************
 596:.\BLEApplication.c **** * Function Name: ConfigUartInit
 597:.\BLEApplication.c **** ***************************************************************************//**
 598:.\BLEApplication.c **** * 
 599:.\BLEApplication.c **** *  UARTÈÖçÁΩÆÂàùÂßãÂåñ
 600:.\BLEApplication.c **** * 
 601:.\BLEApplication.c **** * \return
 602:.\BLEApplication.c **** *  None   
 603:.\BLEApplication.c **** * 
 604:.\BLEApplication.c **** ******************************************************************************/
 605:.\BLEApplication.c **** void ConfigUartInit(void)
 606:.\BLEApplication.c **** {   
 607:.\BLEApplication.c **** //    configUart.mode=UART_UART_MODE_STD;         /* mode: Standard */ 
 608:.\BLEApplication.c **** //    configUart.direction=UART_UART_TX_RX;       /* direction: RX + TX */ 
 609:.\BLEApplication.c **** //    configUart.dataBits=8;                      /* dataBits: 8 bits */
 610:.\BLEApplication.c **** //    configUart.parity=UART_UART_PARITY_NONE;    /* parity: None */
 611:.\BLEApplication.c **** //    configUart.stopBits=UART_UART_STOP_BITS_1;  /* stopBits: 1 bit */ 
 612:.\BLEApplication.c **** //    configUart.oversample=16;                   /* oversample: 16u */
 613:.\BLEApplication.c **** //    configUart.enableIrdaLowPower=0;            /* enableIrdaLowPower: disable */
 614:.\BLEApplication.c **** //    configUart.enableMedianFilter=1;            /* enableMedianFilter: enable */
 615:.\BLEApplication.c **** //    configUart.enableRetryNack=0;               /* enableRetryNack: disable */
 616:.\BLEApplication.c **** //    configUart.enableInvertedRx=0;              /* enableInvertedRx: disable */
 617:.\BLEApplication.c **** //    configUart.dropOnParityErr=0;               /* dropOnParityErr: disable */
 618:.\BLEApplication.c **** //    configUart.dropOnFrameErr=0;                /* dropOnFrameErr: disable */
 619:.\BLEApplication.c **** //    configUart.enableWake=0;                    /* enableWake: disable */
 620:.\BLEApplication.c **** //    configUart.rxBufferSize=UART_RX_BUFFER;   /* rxBufferSize: software buffer 10 bytes */
 621:.\BLEApplication.c **** //    configUart.rxBuffer=bufferRx;               /* rxBuffer: RX software buffer enable */ 
 622:.\BLEApplication.c **** //    configUart.txBufferSize=UART_TX_BUFFER;   /* txBufferSize: software buffer 10 bytes */
 623:.\BLEApplication.c **** //    configUart.txBuffer=bufferTx;               /* txBuffer: TX software buffer enable */
 624:.\BLEApplication.c **** //    configUart.enableMultiproc=0;               /* enableMultiproc: disable */
 625:.\BLEApplication.c **** //    configUart.multiprocAcceptAddr=0;           /* multiprocAcceptAddr: disable */ 
 626:.\BLEApplication.c **** //    configUart.multiprocAddr=0;                 /* multiprocAddr: N/A for this configuration */ 
 627:.\BLEApplication.c **** //    configUart.multiprocAddrMask=0;             /* multiprocAddrMask: N/A for this configuration 
 628:.\BLEApplication.c **** //    configUart.enableInterrupt=1;               /* enableInterrupt: enable to process software bu
 629:.\BLEApplication.c **** //    configUart.rxInterruptMask=UART_INTR_RX_NOT_EMPTY; /* rxInterruptMask: enable NOT_EMPTY for R
 630:.\BLEApplication.c **** //    configUart.rxTriggerLevel=0;               /* rxTriggerLevel: N/A for this configuration */ 
 631:.\BLEApplication.c **** //    configUart.txInterruptMask=0;              /* txInterruptMask: NOT_FULL is enabled when there
 632:.\BLEApplication.c **** //    configUart.txTriggerLevel=0;               /* txTriggerLevel: N/A for this configuration */ 
 633:.\BLEApplication.c **** }
 634:.\BLEApplication.c **** /******************************************************************************
 635:.\BLEApplication.c **** * Function Name: SetUartConfiguration
ARM GAS  C:\Users\Helon\AppData\Local\Temp\ccTLkFeM.s 			page 24


 636:.\BLEApplication.c **** ***************************************************************************//**
 637:.\BLEApplication.c **** * 
 638:.\BLEApplication.c **** *  ËÆæÁΩÆ‰∏≤Âè£ÈÖçÁΩÆ
 639:.\BLEApplication.c **** * \param  DIVIDER_CLOCK:ÈÖçÁΩÆÊ≥¢ÁâπÁéáÁöÑÊó∂ÈíüÂàÜÈ¢ëÔºå‰∏çÂêåÁöÑÈ¢ëÁéáÂàÜÈ¢ëÁ≥ªÁªü‰∏çÂêå„ÄÇ
 640:.\BLEApplication.c **** * \return
 641:.\BLEApplication.c **** *   CYRET_SUCCESS    //Successful
 642:.\BLEApplication.c **** *   CYRET_BAD_PARAM  //Uknowns operation mode - no actions 
 643:.\BLEApplication.c **** ******************************************************************************/
 644:.\BLEApplication.c **** void SetUartConfiguration(uint32_t DIVIDER_CLOCK) 
 645:.\BLEApplication.c **** {
 646:.\BLEApplication.c **** //    cystatus status = CYRET_SUCCESS; 
 647:.\BLEApplication.c **** //    UART_Stop();                    /* Disable component before configuration change */ 
 648:.\BLEApplication.c **** //    /* Change clock divider */
 649:.\BLEApplication.c **** //    UART_CLOCK_Stop();
 650:.\BLEApplication.c **** //    UART_CLOCK_SetFractionalDividerRegister(DIVIDER_CLOCK, 0u); 
 651:.\BLEApplication.c **** //    UART_CLOCK_Start();
 652:.\BLEApplication.c **** //    /* Configure to UART operation */ 
 653:.\BLEApplication.c **** //    UART_UartInit(&configUart);          
 654:.\BLEApplication.c **** //    UART_Start();                       /* Enable component after configuration change */     
 655:.\BLEApplication.c **** }
 656:.\BLEApplication.c **** 
 657:.\BLEApplication.c **** /******************************************************************************
 658:.\BLEApplication.c **** * Function Name: LedInit
 659:.\BLEApplication.c **** ***************************************************************************//**
 660:.\BLEApplication.c **** * 
 661:.\BLEApplication.c **** *  Áä∂ÊÄÅÁÅØÂàùÂßãÂåñ
 662:.\BLEApplication.c **** * 
 663:.\BLEApplication.c **** * \return
 664:.\BLEApplication.c **** *  None
 665:.\BLEApplication.c **** * 
 666:.\BLEApplication.c **** ******************************************************************************/
 667:.\BLEApplication.c **** void LedInit(void)
 668:.\BLEApplication.c **** {
 669:.\BLEApplication.c ****     Status_LED_SetDriveMode(Status_LED_DM_STRONG);
 670:.\BLEApplication.c ****     Connected_LED_SetDriveMode(Connected_LED_DM_STRONG);
 671:.\BLEApplication.c ****     Status_LED_Write(LED_OFF);
 672:.\BLEApplication.c ****     Connected_LED_Write(LED_OFF);
 673:.\BLEApplication.c **** }
 674:.\BLEApplication.c **** 
 675:.\BLEApplication.c **** /******************************************************************************
 676:.\BLEApplication.c **** * Function Name: Parser_UartData
 677:.\BLEApplication.c **** ***************************************************************************//**
 678:.\BLEApplication.c **** * 
 679:.\BLEApplication.c **** *  Ëß£ÊûêÊé•Êî∂Âà∞ÁöÑ‰∏≤Âè£Êï∞ÊçÆ
 680:.\BLEApplication.c **** * \param  SerialData:ÊåáÂêëcharÂûãÁöÑÊåáÈíà
 681:.\BLEApplication.c **** * \return
 682:.\BLEApplication.c **** *  None
 683:.\BLEApplication.c **** * 
 684:.\BLEApplication.c **** ******************************************************************************/
 685:.\BLEApplication.c **** void Parser_UartData(const char* SerialData)
 686:.\BLEApplication.c **** {
 687:.\BLEApplication.c ****     if(NULL==SerialData)
 688:.\BLEApplication.c ****         return;
 689:.\BLEApplication.c ****     uint8_t At_Command_Idex=0,i=0;
 690:.\BLEApplication.c ****     uint8_t idx=0;    
 691:.\BLEApplication.c ****     int16_t AdvMin,AdvMax;
 692:.\BLEApplication.c ****     char8 Name[27]={0};
ARM GAS  C:\Users\Helon\AppData\Local\Temp\ccTLkFeM.s 			page 25


 693:.\BLEApplication.c ****     char AdvData[31]={0};
 694:.\BLEApplication.c ****     char StrAdvData[62]={0};
 695:.\BLEApplication.c ****     char StrAdvDataLength[2]={0};
 696:.\BLEApplication.c ****     char AdvDataLength=0;
 697:.\BLEApplication.c ****     char AdvParamArray[2]={0};
 698:.\BLEApplication.c ****     char AdvParam=0;
 699:.\BLEApplication.c ****     uint32 WriteDataToFlash=0;
 700:.\BLEApplication.c **** //    double connintv=0;
 701:.\BLEApplication.c **** //    uint16 supervisionTO=0;
 702:.\BLEApplication.c ****     CYBLE_API_RESULT_T API_RESULT=0;
 703:.\BLEApplication.c ****     uint8_t STAUS_T=0;
 704:.\BLEApplication.c ****     CYBLE_GATTC_FIND_INFO_REQ_T range;    
 705:.\BLEApplication.c ****     CYBLE_GAPP_DISC_DATA_T advDiscData;
 706:.\BLEApplication.c **** //    CYBLE_CONN_HANDLE_T  connHandle; 
 707:.\BLEApplication.c **** //     uint8 bdHandle=0;
 708:.\BLEApplication.c ****     At_Command_Idex=Command_Identify(SerialData);
 709:.\BLEApplication.c ****     switch(At_Command_Idex)
 710:.\BLEApplication.c ****     {
 711:.\BLEApplication.c **** //        ÊµãËØï‰∏≤Âè£ÊòØÂê¶Ê≠£Â∏∏----‰∏ª‰ªéÊúâÊïà
 712:.\BLEApplication.c ****         case _AT:
 713:.\BLEApplication.c **** //            printf("OK\r\n");
 714:.\BLEApplication.c ****             printf("AT+OK\r\n");
 715:.\BLEApplication.c ****         break;
 716:.\BLEApplication.c **** //        ËΩØÂ§ç‰Ωç----‰∏ª‰ªéÊúâÊïà
 717:.\BLEApplication.c ****         case RESET:
 718:.\BLEApplication.c ****             printf("AT+OK\r\n");
 719:.\BLEApplication.c **** //            printf("AT+RESET=1\r\n");
 720:.\BLEApplication.c **** //            printf("OK\r\n");
 721:.\BLEApplication.c ****             while((UART_SpiUartGetTxBufferSize() + UART_GET_TX_FIFO_SR_VALID) != 0);//Á≠âÂæÖ‰∏≤Âè£Á
 722:.\BLEApplication.c ****             CySoftwareReset();
 723:.\BLEApplication.c ****         break;
 724:.\BLEApplication.c ****         case REFAC:
 725:.\BLEApplication.c ****         break;
 726:.\BLEApplication.c **** //         ÂΩìÂâçÂõ∫‰ª∂ÁâàÊú¨ÁöÑÊü•ËØ¢
 727:.\BLEApplication.c ****         case VERSION:
 728:.\BLEApplication.c ****             printf("+VERSION=Ver1.4\r\n");
 729:.\BLEApplication.c ****         break;
 730:.\BLEApplication.c **** //            ÊöÇÊó∂Êó†ÊïàÔºåÂõ∫ÂÆö‰∏∫9600ÁöÑÊ≥¢ÁâπÁéá
 731:.\BLEApplication.c ****         case BAUD:
 732:.\BLEApplication.c **** //            idx=SerialData[8];             
 733:.\BLEApplication.c **** //            UartBuadRate_Handler(idx);
 734:.\BLEApplication.c ****         break;
 735:.\BLEApplication.c **** //            MACÂú∞ÂùÄÊü•ËØ¢----‰∏ª‰ªéÊúâÊïà
 736:.\BLEApplication.c ****         case LADDR:
 737:.\BLEApplication.c ****             idx=SerialData[9]; 
 738:.\BLEApplication.c ****             if('?'==idx)
 739:.\BLEApplication.c ****                 CyBle_GetDeviceAddress(&DeviceAddr);
 740:.\BLEApplication.c ****                 printf("+LADDR:<0x%02X%02X%02X%02X%02X%02X>\r\n",                  
 741:.\BLEApplication.c ****                     DeviceAddr.bdAddr[5],
 742:.\BLEApplication.c ****                     DeviceAddr.bdAddr[4],
 743:.\BLEApplication.c ****                     DeviceAddr.bdAddr[3],
 744:.\BLEApplication.c ****                     DeviceAddr.bdAddr[2],
 745:.\BLEApplication.c ****                     DeviceAddr.bdAddr[1],
 746:.\BLEApplication.c ****                     DeviceAddr.bdAddr[0]                             
 747:.\BLEApplication.c ****                   );
 748:.\BLEApplication.c ****         break;
 749:.\BLEApplication.c **** //                ËÆæÂ§áÂêçÊü•ËØ¢Âèä‰øÆÊîπ---‰ªéÊú∫ÊúâÊïà
ARM GAS  C:\Users\Helon\AppData\Local\Temp\ccTLkFeM.s 			page 26


 750:.\BLEApplication.c ****         case NAME:
 751:.\BLEApplication.c ****              idx=SerialData[8];
 752:.\BLEApplication.c ****              if(Peripheral==Role)
 753:.\BLEApplication.c ****              {
 754:.\BLEApplication.c ****                 switch(idx)
 755:.\BLEApplication.c ****                 {
 756:.\BLEApplication.c ****                     case '?':
 757:.\BLEApplication.c ****                         CyBle_GapGetLocalName(Name);
 758:.\BLEApplication.c ****                         printf("+NAME=<%s>\r\n",Name);
 759:.\BLEApplication.c **** //                        free(Name);
 760:.\BLEApplication.c ****                     break;
 761:.\BLEApplication.c ****                     case '<':                        
 762:.\BLEApplication.c ****                         if((CYBLE_STATE_CONNECTED!=CyBle_GetState()))
 763:.\BLEApplication.c ****                         {
 764:.\BLEApplication.c ****                             CyBle_GappStopAdvertisement();
 765:.\BLEApplication.c ****                             memset(Name,0,sizeof(char8)*27);
 766:.\BLEApplication.c ****                             memcpy(Name,RX_BUFFER+9,Buffer_Length-11);
 767:.\BLEApplication.c ****                             API_RESULT=CyBle_GapSetLocalName(Name);                            
 768:.\BLEApplication.c ****                             if(API_RESULT==CYBLE_ERROR_OK)
 769:.\BLEApplication.c ****                             {
 770:.\BLEApplication.c ****                                 printf("AT+OK\r\n");
 771:.\BLEApplication.c **** //                                printf("AT+ NAME=<%s>\r\n",Name);
 772:.\BLEApplication.c **** //                                printf("OK\r\n");
 773:.\BLEApplication.c ****                             }
 774:.\BLEApplication.c ****                             else
 775:.\BLEApplication.c ****                             {
 776:.\BLEApplication.c ****                                 printf("AT+ERR=2\r\n");//Ë°®Á§∫ÂëΩ‰ª§ËÆæÁΩÆÂ§±Ë¥•
 777:.\BLEApplication.c ****                             }
 778:.\BLEApplication.c **** //                            free(Name);
 779:.\BLEApplication.c **** //                            CyBle_GappStartAdvertisement(CYBLE_ADVERTISING_FAST);
 780:.\BLEApplication.c ****                         }
 781:.\BLEApplication.c ****                         else
 782:.\BLEApplication.c ****                         {
 783:.\BLEApplication.c ****                                 printf("AT+ERR=3\r\n");//Ë°®Á§∫ÂΩìÂâçÁä∂ÊÄÅ‰∏çÊîØÊåÅËØ•ÂëΩ‰ª§
 784:.\BLEApplication.c **** //                            printf("+NAME=<INVALID>\r\n"); 
 785:.\BLEApplication.c ****                         }
 786:.\BLEApplication.c ****                     break;
 787:.\BLEApplication.c ****                 }                   
 788:.\BLEApplication.c ****              }
 789:.\BLEApplication.c ****             else
 790:.\BLEApplication.c ****             {
 791:.\BLEApplication.c **** //                printf("+NAME=<INVALID>\r\n"); 
 792:.\BLEApplication.c ****                 printf("AT+ERR=4\r\n");//Ë°®Á§∫ÂΩìÂâçËßíËâ≤‰∏çÊîØÊåÅËØ•ÂëΩ‰ª§ 
 793:.\BLEApplication.c ****             }
 794:.\BLEApplication.c ****                 
 795:.\BLEApplication.c ****         break;
 796:.\BLEApplication.c ****         case CPIN:
 797:.\BLEApplication.c ****         break;
 798:.\BLEApplication.c **** //            ÂèëÂ∞ÑÂäüÁéáÊü•ËØ¢Âèä‰øÆÊîπ----‰ªéÊú∫ÊúâÊïà
 799:.\BLEApplication.c ****         case TXP:
 800:.\BLEApplication.c ****             idx=SerialData[7];
 801:.\BLEApplication.c ****             if(Role==Peripheral)
 802:.\BLEApplication.c ****                 TxPower_Handler(idx);
 803:.\BLEApplication.c ****              else
 804:.\BLEApplication.c ****             {
 805:.\BLEApplication.c **** //                printf("+TXP=<INVALID>\r\n"); 
 806:.\BLEApplication.c ****                 printf("AT+ERR=4\r\n");//Ë°®Á§∫ÂΩìÂâçËßíËâ≤‰∏çÊîØÊåÅËØ•ÂëΩ‰ª§ 
ARM GAS  C:\Users\Helon\AppData\Local\Temp\ccTLkFeM.s 			page 27


 807:.\BLEApplication.c ****             }
 808:.\BLEApplication.c ****         break;
 809:.\BLEApplication.c **** //            ÂπøÊí≠Êï∞ÊçÆÁöÑ‰øÆÊîπÂèäÊü•ËØ¢----‰ªéÊú∫ÊúâÊïà
 810:.\BLEApplication.c ****         case ADVD:
 811:.\BLEApplication.c ****             idx=SerialData[8];
 812:.\BLEApplication.c ****             if(Peripheral==Role)
 813:.\BLEApplication.c ****             {
 814:.\BLEApplication.c ****                 if(CYBLE_STATE_ADVERTISING==CyBle_GetState())
 815:.\BLEApplication.c ****                 {
 816:.\BLEApplication.c ****                     switch(idx)
 817:.\BLEApplication.c ****                     {
 818:.\BLEApplication.c ****                         case '<':                        
 819:.\BLEApplication.c ****                             memset(advDiscData.advData,0,CYBLE_GAP_MAX_ADV_DATA_LEN);
 820:.\BLEApplication.c ****                             memcpy(StrAdvDataLength,SerialData+9,2);
 821:.\BLEApplication.c ****                             StrToHex(&AdvDataLength,StrAdvDataLength,1);
 822:.\BLEApplication.c ****                             advDiscData.advDataLen=AdvDataLength;
 823:.\BLEApplication.c ****                             memcpy(StrAdvData,SerialData+12,AdvDataLength*2);
 824:.\BLEApplication.c ****                             StrToHex(AdvData,StrAdvData,sizeof(StrAdvData)/sizeof(char)/2);
 825:.\BLEApplication.c ****                             memcpy(advDiscData.advData,AdvData,advDiscData.advDataLen);
 826:.\BLEApplication.c ****                             API_RESULT=CyBle_GapUpdateAdvData(&advDiscData,NULL);
 827:.\BLEApplication.c ****                             if(CYBLE_ERROR_OK==API_RESULT)
 828:.\BLEApplication.c ****                             {
 829:.\BLEApplication.c ****     //                            printf("+ADVD=<SUCCESS>\r\n");
 830:.\BLEApplication.c ****                                 cyBle_discoveryModeInfo.advData->advDataLen=AdvDataLength;
 831:.\BLEApplication.c ****                                 memcpy(cyBle_discoveryModeInfo.advData->advData,AdvData,AdvDataLeng
 832:.\BLEApplication.c ****                                 printf("AT+OK\r\n");
 833:.\BLEApplication.c ****                             }
 834:.\BLEApplication.c ****                             else
 835:.\BLEApplication.c ****                             {
 836:.\BLEApplication.c ****                                 printf("AT+ERR=2\r\n");//Ë°®Á§∫ÂëΩ‰ª§ËÆæÁΩÆÂ§±Ë¥•
 837:.\BLEApplication.c ****                             }
 838:.\BLEApplication.c ****                         break;
 839:.\BLEApplication.c ****                         case '?':
 840:.\BLEApplication.c ****                             printf("+ADVD=<0x");
 841:.\BLEApplication.c ****                             for(i=0;i<cyBle_discoveryModeInfo.advData->advDataLen;i++)
 842:.\BLEApplication.c ****                             {
 843:.\BLEApplication.c ****                                 printf("%02X",cyBle_discoveryModeInfo.advData->advData[i]);
 844:.\BLEApplication.c ****                             }
 845:.\BLEApplication.c ****                             printf(">\r\n");
 846:.\BLEApplication.c ****                         break;
 847:.\BLEApplication.c ****                     }
 848:.\BLEApplication.c ****                 }
 849:.\BLEApplication.c ****                 else
 850:.\BLEApplication.c ****                 {
 851:.\BLEApplication.c ****                     printf("AT+ERR=3\r\n");//Ë°®Á§∫ÂΩìÂâçÁä∂ÊÄÅ‰∏çÊîØÊåÅËØ•ÂëΩ‰ª§
 852:.\BLEApplication.c ****                 }
 853:.\BLEApplication.c ****             }                
 854:.\BLEApplication.c ****             else
 855:.\BLEApplication.c ****             {
 856:.\BLEApplication.c **** //                printf("+ADVD=<INVALID>\r\n");
 857:.\BLEApplication.c ****                 printf("AT+ERR=4\r\n");//Ë°®Á§∫ÂΩìÂâçËßíËâ≤‰∏çÊîØÊåÅËØ•ÂëΩ‰ª§
 858:.\BLEApplication.c ****             }
 859:.\BLEApplication.c ****         break;
 860:.\BLEApplication.c **** //            ÂπøÊí≠Èó¥ÈöîÁöÑ‰øÆÊîπÂèäÊü•ËØ¢----‰ªéÊú∫ÊúâÊïà
 861:.\BLEApplication.c ****         case ADVI:            
 862:.\BLEApplication.c ****             if(Role==Peripheral)
 863:.\BLEApplication.c ****             {
ARM GAS  C:\Users\Helon\AppData\Local\Temp\ccTLkFeM.s 			page 28


 864:.\BLEApplication.c ****                 idx=SerialData[8];  
 865:.\BLEApplication.c ****                 if((CYBLE_STATE_CONNECTED!=CyBle_GetState()))
 866:.\BLEApplication.c ****                 {
 867:.\BLEApplication.c ****                     switch(idx)
 868:.\BLEApplication.c ****                     {
 869:.\BLEApplication.c ****                         case '?':
 870:.\BLEApplication.c ****                         AdvMin=(cyBle_discoveryModeInfo.advParam->advIntvMin)*0.625;
 871:.\BLEApplication.c ****                         AdvMax=(cyBle_discoveryModeInfo.advParam->advIntvMax)*0.625;               
 872:.\BLEApplication.c ****                         printf("+ADVI=<MIN=%hdms,MAX=%hdms,TIMEOUT=%hus>\r\n",AdvMin,
 873:.\BLEApplication.c ****                         AdvMax,cyBle_discoveryModeInfo.advTo);
 874:.\BLEApplication.c ****                         while((UART_SpiUartGetTxBufferSize() + UART_GET_TX_FIFO_SR_VALID) != 0);//Á
 875:.\BLEApplication.c ****                         break;
 876:.\BLEApplication.c ****                         case '<':
 877:.\BLEApplication.c ****     //                    Âè™ÊúâÂÅúÊ≠¢ÂπøÊí≠‰∫Ü‰øÆÊîπÊâçÊúâÊïà
 878:.\BLEApplication.c ****                         if(CYBLE_STATE_ADVERTISING!=CyBle_GetState())
 879:.\BLEApplication.c ****                         {
 880:.\BLEApplication.c ****                          //              Ëé∑ÂèñAdvMinÂÄº
 881:.\BLEApplication.c ****                             AdvParamArray[0]=SerialData[9];
 882:.\BLEApplication.c ****                             AdvParamArray[1]=SerialData[10];
 883:.\BLEApplication.c ****                             StrToHex(&AdvParam,AdvParamArray,1);
 884:.\BLEApplication.c ****                             cyBle_discoveryModeInfo.advParam->advIntvMin=AdvParam;
 885:.\BLEApplication.c ****         //                    Ëé∑ÂèñAdvMaxÂÄº
 886:.\BLEApplication.c ****                             AdvParamArray[0]=SerialData[12];
 887:.\BLEApplication.c ****                             AdvParamArray[1]=SerialData[13];
 888:.\BLEApplication.c ****                             StrToHex(&AdvParam,AdvParamArray,1);
 889:.\BLEApplication.c ****                             cyBle_discoveryModeInfo.advParam->advIntvMax=AdvParam;
 890:.\BLEApplication.c ****         //                      Ëé∑ÂèñAdvToÂÄº
 891:.\BLEApplication.c ****                             AdvParamArray[0]=SerialData[15];
 892:.\BLEApplication.c ****                             AdvParamArray[1]=SerialData[16];
 893:.\BLEApplication.c ****                             StrToHex(&AdvParam,AdvParamArray,1);
 894:.\BLEApplication.c ****                             cyBle_discoveryModeInfo.advTo=AdvParam;
 895:.\BLEApplication.c ****                             printf("AT+OK\r\n");
 896:.\BLEApplication.c **** //                            printf("%s",SerialData);
 897:.\BLEApplication.c **** //                            printf("OK\r\n");
 898:.\BLEApplication.c ****                         }
 899:.\BLEApplication.c ****                         else
 900:.\BLEApplication.c ****                         {
 901:.\BLEApplication.c **** //                             printf("+ADVI=<INVALID>\r\n");
 902:.\BLEApplication.c ****                             printf("AT+ERR=3\r\n");//Ë°®Á§∫ÂΩìÂâçÁä∂ÊÄÅ‰∏çÊîØÊåÅËØ•ÂëΩ‰ª§
 903:.\BLEApplication.c ****                         }
 904:.\BLEApplication.c ****                         break;
 905:.\BLEApplication.c ****                     }  
 906:.\BLEApplication.c ****                 }
 907:.\BLEApplication.c ****                 else
 908:.\BLEApplication.c ****                 {
 909:.\BLEApplication.c ****                     printf("AT+ERR=3\r\n");//Ë°®Á§∫ÂΩìÂâçÁä∂ÊÄÅ‰∏çÊîØÊåÅËØ•ÂëΩ‰ª§
 910:.\BLEApplication.c ****                 }
 911:.\BLEApplication.c ****                                             
 912:.\BLEApplication.c ****             }
 913:.\BLEApplication.c ****             else
 914:.\BLEApplication.c ****             {
 915:.\BLEApplication.c **** //                printf("+ADVI=<INVALID>\r\n");
 916:.\BLEApplication.c ****                 printf("AT+ERR=4\r\n");//Ë°®Á§∫ÂΩìÂâçËßíËâ≤‰∏çÊîØÊåÅËØ•ÂëΩ‰ª§
 917:.\BLEApplication.c ****             }
 918:.\BLEApplication.c ****             
 919:.\BLEApplication.c ****         break;
 920:.\BLEApplication.c **** //            ËøûÊé•Èó¥ÈöîÁöÑ‰øÆÊîπÂèäÊü•ËØ¢----‰∏ªÊú∫ÊúâÊïàÔºåÊü•ËØ¢Âàô‰∏ª‰ªéÊúâÊïà
ARM GAS  C:\Users\Helon\AppData\Local\Temp\ccTLkFeM.s 			page 29


 921:.\BLEApplication.c ****         case CONNI:  
 922:.\BLEApplication.c ****             idx=SerialData[9];
 923:.\BLEApplication.c ****             switch(idx)
 924:.\BLEApplication.c ****             {
 925:.\BLEApplication.c ****                 case '?':
 926:.\BLEApplication.c ****                 if(CYBLE_STATE_CONNECTED==CyBle_GetState())
 927:.\BLEApplication.c ****                 {
 928:.\BLEApplication.c **** //                    connintv=(ConnParam.connIntv)*1.25;
 929:.\BLEApplication.c **** //                    supervisionTO=(ConnParam.supervisionTO)*10;
 930:.\BLEApplication.c ****                     printf("+CONNI=<CONNINTV=0x%04X,CONNTO=0x%04X,CONNLATENCY=0x%04X>\r\n",ConnPara
 931:.\BLEApplication.c ****                     ConnParam.supervisionTO,ConnParam.connLatency);
 932:.\BLEApplication.c ****                 }
 933:.\BLEApplication.c ****                 else
 934:.\BLEApplication.c ****                 {
 935:.\BLEApplication.c **** //                    printf("+CONNI=<INVALID>\r\n");
 936:.\BLEApplication.c ****                     printf("AT+ERR=3\r\n");//Ë°®Á§∫ÂΩìÂâçÁä∂ÊÄÅ‰∏çÊîØÊåÅËØ•ÂëΩ‰ª§
 937:.\BLEApplication.c ****                 }
 938:.\BLEApplication.c ****                 break;
 939:.\BLEApplication.c ****                 case '<':
 940:.\BLEApplication.c **** //                Âè™Êúâ‰∏ªÊú∫ÂèØ‰ª•Êõ¥ÊîπËøûÊé•ÂèÇÊï∞
 941:.\BLEApplication.c ****                 if(Role==Central)
 942:.\BLEApplication.c ****                 {
 943:.\BLEApplication.c **** //                    Ëé∑ÂèñÊúÄÂ∞èËøûÊé•Èó¥Èöî
 944:.\BLEApplication.c ****                     AdvParamArray[0]=SerialData[10];
 945:.\BLEApplication.c ****                     AdvParamArray[1]=SerialData[11];
 946:.\BLEApplication.c ****                     StrToHex(&AdvParam,AdvParamArray,1);
 947:.\BLEApplication.c ****                     connParam.connIntvMin=AdvParam;
 948:.\BLEApplication.c **** //                    Ëé∑ÂèñÊúÄÂ§ßËøûÊé•Èó¥Èöî                    
 949:.\BLEApplication.c ****                     AdvParamArray[0]=SerialData[13];
 950:.\BLEApplication.c ****                     AdvParamArray[1]=SerialData[14];
 951:.\BLEApplication.c ****                     StrToHex(&AdvParam,AdvParamArray,1);
 952:.\BLEApplication.c ****                     connParam.connIntvMax=AdvParam;
 953:.\BLEApplication.c **** //                    ÂèëËµ∑ËøûÊé•Èó¥ÈöîÊõ¥Êñ∞ËØ∑Ê±Ç
 954:.\BLEApplication.c ****                     API_RESULT=CyBle_GapcConnectionParamUpdateRequest(cyBle_connHandle.bdHandle,&co
 955:.\BLEApplication.c ****                     if(CYBLE_ERROR_OK==API_RESULT)
 956:.\BLEApplication.c ****                     {
 957:.\BLEApplication.c ****                         printf("AT+OK\r\n");
 958:.\BLEApplication.c **** //                        printf("%s",SerialData);
 959:.\BLEApplication.c **** //                        printf("OK\r\n");
 960:.\BLEApplication.c ****                     }
 961:.\BLEApplication.c ****                     else
 962:.\BLEApplication.c ****                     {
 963:.\BLEApplication.c **** //                        printf("+CONNI=<FAIL>\r\n");
 964:.\BLEApplication.c ****                         printf("AT+ERR=2\r\n");//Ë°®Á§∫ÂëΩ‰ª§ËÆæÁΩÆÂ§±Ë¥•
 965:.\BLEApplication.c ****                     }
 966:.\BLEApplication.c ****                     
 967:.\BLEApplication.c ****                 }
 968:.\BLEApplication.c ****                 else
 969:.\BLEApplication.c ****                 {
 970:.\BLEApplication.c **** //                    printf("+CONNI=<INVALID>\r\n");
 971:.\BLEApplication.c ****                     printf("AT+ERR=4\r\n");//Ë°®Á§∫ÂΩìÂâçËßíËâ≤‰∏çÊîØÊåÅËØ•ÂëΩ‰ª§
 972:.\BLEApplication.c ****                 }
 973:.\BLEApplication.c ****                 break;
 974:.\BLEApplication.c ****             }
 975:.\BLEApplication.c ****             
 976:.\BLEApplication.c ****         break;
 977:.\BLEApplication.c **** //              ‰∏ª‰ªé‰∏Ä‰ΩìÂàáÊç¢ÂëΩ‰ª§-----‰∏ª‰ªéÊúâÊïà
ARM GAS  C:\Users\Helon\AppData\Local\Temp\ccTLkFeM.s 			page 30


 978:.\BLEApplication.c ****         case ROLE:
 979:.\BLEApplication.c ****             idx=SerialData[8];
 980:.\BLEApplication.c ****             switch(idx)
 981:.\BLEApplication.c ****             {
 982:.\BLEApplication.c ****                 case '?':
 983:.\BLEApplication.c ****                     if(Peripheral==Role)
 984:.\BLEApplication.c ****                     {
 985:.\BLEApplication.c ****                         printf("+ROLE:<Peripheral>\r\n");
 986:.\BLEApplication.c ****                     }
 987:.\BLEApplication.c ****                     else
 988:.\BLEApplication.c ****                     {
 989:.\BLEApplication.c ****                         printf("+ROLE:<Central>\r\n");
 990:.\BLEApplication.c ****                     }
 991:.\BLEApplication.c ****                 break;
 992:.\BLEApplication.c **** //                    0Ôºö‰ªéÊú∫(Slave)
 993:.\BLEApplication.c ****                 case '0':
 994:.\BLEApplication.c ****                     if(CYBLE_STATE_CONNECTED!=CyBle_GetState())
 995:.\BLEApplication.c ****                     {
 996:.\BLEApplication.c ****                         WriteDataToFlash=Peripheral;//ÊääÂΩìÂâçÁöÑÂÄºÂÜôÂÖ•Flash‰∏≠,Áî®‰∫éÂ§ç‰ΩçÊó∂
 997:.\BLEApplication.c ****                         if(USER_SFLASH_WRITE_SUCCESSFUL==WriteUserSFlashRow(0,&WriteDataToFlash))
 998:.\BLEApplication.c ****                         {
 999:.\BLEApplication.c ****                             //ÂÅúÊ≠¢Êâ´Êèè
1000:.\BLEApplication.c ****                             CyBle_GapcStopScan();
1001:.\BLEApplication.c ****                             //ÂºÄÂßãÂπøÊí≠
1002:.\BLEApplication.c ****                             CyBle_GappStartAdvertisement(CYBLE_ADVERTISING_FAST);
1003:.\BLEApplication.c ****                             Role=Peripheral;
1004:.\BLEApplication.c ****                             printf("AT+OK\r\n");
1005:.\BLEApplication.c **** //                            printf("+ROLE:<Peripheral>\r\n");
1006:.\BLEApplication.c **** //                            printf("OK\r\n");
1007:.\BLEApplication.c ****                         }  
1008:.\BLEApplication.c ****                         
1009:.\BLEApplication.c ****                     } 
1010:.\BLEApplication.c ****                     else
1011:.\BLEApplication.c ****                     {
1012:.\BLEApplication.c ****                         printf("AT+ERR=3\r\n");//Ë°®Á§∫ÂΩìÂâçÁä∂ÊÄÅ‰∏çÊîØÊåÅËØ•ÂëΩ‰ª§
1013:.\BLEApplication.c ****                     }
1014:.\BLEApplication.c ****                 break;
1015:.\BLEApplication.c **** //                     1Ôºö‰∏ªÊú∫(Master)
1016:.\BLEApplication.c ****                 case '1':
1017:.\BLEApplication.c ****                     if(CYBLE_STATE_CONNECTED!=CyBle_GetState())
1018:.\BLEApplication.c ****                     {
1019:.\BLEApplication.c ****                         WriteDataToFlash=Central;
1020:.\BLEApplication.c ****                         if(USER_SFLASH_WRITE_SUCCESSFUL==WriteUserSFlashRow(0,&WriteDataToFlash))
1021:.\BLEApplication.c ****                         {
1022:.\BLEApplication.c **** //                        ÂÅúÊ≠¢ÂπøÊí≠
1023:.\BLEApplication.c ****                             CyBle_GappStopAdvertisement();
1024:.\BLEApplication.c **** //                        ÂºÄÂßãÊâ´Êèè
1025:.\BLEApplication.c ****                             CyBle_GapcStartScan(CYBLE_SCANNING_FAST);
1026:.\BLEApplication.c ****                             Role=Central;
1027:.\BLEApplication.c ****                             printf("AT+OK\r\n");
1028:.\BLEApplication.c **** //                            printf("+ROLE:<Central>\r\n");
1029:.\BLEApplication.c **** //                            printf("OK\r\n");
1030:.\BLEApplication.c ****                         }
1031:.\BLEApplication.c **** 
1032:.\BLEApplication.c ****                     }
1033:.\BLEApplication.c ****                     else
1034:.\BLEApplication.c ****                     {
ARM GAS  C:\Users\Helon\AppData\Local\Temp\ccTLkFeM.s 			page 31


1035:.\BLEApplication.c ****                         printf("AT+ERR=3\r\n");//Ë°®Á§∫ÂΩìÂâçÁä∂ÊÄÅ‰∏çÊîØÊåÅËØ•ÂëΩ‰ª§
1036:.\BLEApplication.c ****                     }
1037:.\BLEApplication.c ****                     
1038:.\BLEApplication.c ****                 break;
1039:.\BLEApplication.c ****             }
1040:.\BLEApplication.c ****         break;
1041:.\BLEApplication.c **** ////            Êü•ËØ¢ÊâÄÊúâÁöÑÁâπÂæÅÊèèËø∞Á¨¶----‰∏ªÊú∫ÊúâÊïà
1042:.\BLEApplication.c ****         case DISALLCHAR:
1043:.\BLEApplication.c ****             if(Role==Central)
1044:.\BLEApplication.c ****             {
1045:.\BLEApplication.c ****                 range.startHandle=0x0001;
1046:.\BLEApplication.c ****                 range.endHandle=0xFFFF;       
1047:.\BLEApplication.c ****                 API_RESULT=CyBle_GattcDiscoverAllCharacteristicDescriptors(cyBle_connHandle,&range)
1048:.\BLEApplication.c ****             }
1049:.\BLEApplication.c ****             else
1050:.\BLEApplication.c ****             {
1051:.\BLEApplication.c ****                 printf("AT+ERR=4\r\n");//Ë°®Á§∫ÂΩìÂâçËßíËâ≤‰∏çÊîØÊåÅËØ•ÂëΩ‰ª§
1052:.\BLEApplication.c **** //                printf("+DISALLCHAR=<INVALID>\r\n");
1053:.\BLEApplication.c ****             }
1054:.\BLEApplication.c ****         break;
1055:.\BLEApplication.c **** //            Êâ´ÊèèÂë®Âõ¥ÁöÑBLEËÆæÂ§á----‰∏ªÊú∫ÊúâÊïà
1056:.\BLEApplication.c ****         case SCAN:
1057:.\BLEApplication.c ****             if(Role==Central)
1058:.\BLEApplication.c ****             {
1059:.\BLEApplication.c ****                 if(SerialData[8]=='1')
1060:.\BLEApplication.c ****                 {
1061:.\BLEApplication.c ****                     if(CYBLE_STATE_CONNECTED!=CyBle_GetState())
1062:.\BLEApplication.c ****                     {
1063:.\BLEApplication.c ****                         ScanDeviceInfoInit();
1064:.\BLEApplication.c ****                         if(CYBLE_ERROR_OK==CyBle_GapcStartScan(CYBLE_SCANNING_FAST))
1065:.\BLEApplication.c ****                         {
1066:.\BLEApplication.c ****                             printf("AT+OK\r\n");  
1067:.\BLEApplication.c ****                         }
1068:.\BLEApplication.c ****                         else
1069:.\BLEApplication.c ****                         {
1070:.\BLEApplication.c ****                             printf("AT+ERR=2\r\n");//Ë°®Á§∫ÂëΩ‰ª§ËÆæÁΩÆÂ§±Ë¥•
1071:.\BLEApplication.c ****                         }
1072:.\BLEApplication.c ****                     }
1073:.\BLEApplication.c ****                     else
1074:.\BLEApplication.c ****                     {
1075:.\BLEApplication.c ****                         printf("AT+ERR=3\r\n");//Ë°®Á§∫ÂΩìÂâçÁä∂ÊÄÅ‰∏çÊîØÊåÅËØ•ÂëΩ‰ª§
1076:.\BLEApplication.c ****                     }
1077:.\BLEApplication.c ****                     
1078:.\BLEApplication.c ****                 }
1079:.\BLEApplication.c ****                 else if(SerialData[8]=='0')
1080:.\BLEApplication.c ****                 {
1081:.\BLEApplication.c ****                     if(CYBLE_STATE_SCANNING==CyBle_GetState())
1082:.\BLEApplication.c ****                     {
1083:.\BLEApplication.c ****                         ScanDeviceInfoInit();
1084:.\BLEApplication.c ****                         CyBle_GapcStopScan();                                   
1085:.\BLEApplication.c ****                         STOP_SCAN_FLAG=TRUE;
1086:.\BLEApplication.c ****                         printf("AT+OK\r\n"); 
1087:.\BLEApplication.c ****                     }
1088:.\BLEApplication.c ****                     else
1089:.\BLEApplication.c ****                     {
1090:.\BLEApplication.c ****                         printf("AT+ERR=3\r\n");//Ë°®Á§∫ÂΩìÂâçÁä∂ÊÄÅ‰∏çÊîØÊåÅËØ•ÂëΩ‰ª§
1091:.\BLEApplication.c ****                     }
ARM GAS  C:\Users\Helon\AppData\Local\Temp\ccTLkFeM.s 			page 32


1092:.\BLEApplication.c ****                 }
1093:.\BLEApplication.c ****                 else if(SerialData[8]=='?')
1094:.\BLEApplication.c ****                 {
1095:.\BLEApplication.c ****                     for(i=0;i<DeviceCount;i++)
1096:.\BLEApplication.c ****                     {
1097:.\BLEApplication.c ****                         printf("+INQ_SCAN:<%d,0x%02X%02X%02X%02X%02X%02X>\r\n",
1098:.\BLEApplication.c ****                         DeviceInfo[i].idx,
1099:.\BLEApplication.c ****                         DeviceInfo[i].DeviceList.bdAddr[5],
1100:.\BLEApplication.c ****                         DeviceInfo[i].DeviceList.bdAddr[4],
1101:.\BLEApplication.c ****                         DeviceInfo[i].DeviceList.bdAddr[3],
1102:.\BLEApplication.c ****                         DeviceInfo[i].DeviceList.bdAddr[2],
1103:.\BLEApplication.c ****                         DeviceInfo[i].DeviceList.bdAddr[1],
1104:.\BLEApplication.c ****                         DeviceInfo[i].DeviceList.bdAddr[0]                             
1105:.\BLEApplication.c ****                       );
1106:.\BLEApplication.c ****     //                  while((UART_SpiUartGetTxBufferSize() + UART_GET_TX_FIFO_SR_VALID) != 0);//Á
1107:.\BLEApplication.c ****                     }
1108:.\BLEApplication.c ****                 }
1109:.\BLEApplication.c ****             }
1110:.\BLEApplication.c ****             else
1111:.\BLEApplication.c ****             {
1112:.\BLEApplication.c **** //                printf("+SCAN=<INVALID>\r\n");
1113:.\BLEApplication.c ****                 printf("AT+ERR=4\r\n");//Ë°®Á§∫ÂΩìÂâçËßíËâ≤‰∏çÊîØÊåÅËØ•ÂëΩ‰ª§
1114:.\BLEApplication.c ****             }
1115:.\BLEApplication.c ****         break;
1116:.\BLEApplication.c **** //            ËøûÊé•ÈÄâ‰∏≠ÁöÑBLEËÆæÂ§á-----‰∏ªÊú∫ÊúâÊïà
1117:.\BLEApplication.c ****         case CONNT:
1118:.\BLEApplication.c ****             if(Role==Central)
1119:.\BLEApplication.c ****             {
1120:.\BLEApplication.c ****                 idx=SerialData[9];
1121:.\BLEApplication.c ****                 Connect_Device(idx);      
1122:.\BLEApplication.c ****             }
1123:.\BLEApplication.c ****             else
1124:.\BLEApplication.c ****             {
1125:.\BLEApplication.c **** //                printf("+CONNT=<INVALID>\r\n");
1126:.\BLEApplication.c ****                 printf("AT+ERR=4\r\n");//Ë°®Á§∫ÂΩìÂâçËßíËâ≤‰∏çÊîØÊåÅËØ•ÂëΩ‰ª§
1127:.\BLEApplication.c ****             }
1128:.\BLEApplication.c ****         break;
1129:.\BLEApplication.c **** //            Êñ≠ÂºÄËøûÊé•----‰∏ª‰ªéÊúâÊïà
1130:.\BLEApplication.c ****         case DISCONN:
1131:.\BLEApplication.c ****             if(CYBLE_STATE_CONNECTED==CyBle_GetState())
1132:.\BLEApplication.c ****             {
1133:.\BLEApplication.c ****                 idx=SerialData[11];
1134:.\BLEApplication.c ****                 switch(idx)
1135:.\BLEApplication.c ****                 {
1136:.\BLEApplication.c ****                     case '1':
1137:.\BLEApplication.c ****                         API_RESULT=CyBle_GapDisconnect(cyBle_connHandle.bdHandle);
1138:.\BLEApplication.c ****                         if(CYBLE_ERROR_OK!=API_RESULT)  
1139:.\BLEApplication.c ****                         {
1140:.\BLEApplication.c ****                             printf("AT+ERR=<%d,0x%02X>\r\n",idx-0x30,API_RESULT);                  
1141:.\BLEApplication.c ****                         }
1142:.\BLEApplication.c ****                         else
1143:.\BLEApplication.c ****                         {
1144:.\BLEApplication.c ****                             //Êñ≠ÂºÄËøûÊé•ÂêéÔºåÂ∫îËØ•Ê∏ÖÁ©∫ËøûÊé•ÂàóË°®ÂØπÂ∫îÁöÑÂÜÖÂÆπ
1145:.\BLEApplication.c ****                             for(i=0;i<Conn_Or_Disconn_Info.Connected_Count;i++)
1146:.\BLEApplication.c ****                             {
1147:.\BLEApplication.c ****                                 if(1==Conn_Or_Disconn_Info.Connect_Idx[i])
1148:.\BLEApplication.c ****                                 {
ARM GAS  C:\Users\Helon\AppData\Local\Temp\ccTLkFeM.s 			page 33


1149:.\BLEApplication.c ****                                     Conn_Or_Disconn_Info.Connected_Count--;
1150:.\BLEApplication.c ****                                     memset(Conn_Or_Disconn_Info.DeviceAddr[i].bdAddr,0,6);
1151:.\BLEApplication.c ****                                     Conn_Or_Disconn_Info.Connect_Idx[i]=0;
1152:.\BLEApplication.c ****                                     Conn_Or_Disconn_Info.Disconn_Idx[0]=idx-0x30;
1153:.\BLEApplication.c ****                                     Conn_or_Disconn_Idx=idx-0x30;
1154:.\BLEApplication.c ****                                     break;
1155:.\BLEApplication.c ****                                 }
1156:.\BLEApplication.c ****                             }
1157:.\BLEApplication.c ****                             printf("AT+OK\r\n");
1158:.\BLEApplication.c ****                         }
1159:.\BLEApplication.c ****                     break;
1160:.\BLEApplication.c ****                     case '2':
1161:.\BLEApplication.c ****                     break;
1162:.\BLEApplication.c ****                     case '3':
1163:.\BLEApplication.c ****                     break;
1164:.\BLEApplication.c ****                     case '4':
1165:.\BLEApplication.c ****                     break;                    
1166:.\BLEApplication.c ****                 }
1167:.\BLEApplication.c ****             }
1168:.\BLEApplication.c ****             else
1169:.\BLEApplication.c ****             {
1170:.\BLEApplication.c ****                 printf("AT+ERR=3\r\n");//Ë°®Á§∫ÂΩìÂâçÁä∂ÊÄÅ‰∏çÊîØÊåÅËØ•ÂëΩ‰ª§
1171:.\BLEApplication.c ****             }
1172:.\BLEApplication.c ****             
1173:.\BLEApplication.c ****         break;
1174:.\BLEApplication.c ****         case LOGIN:
1175:.\BLEApplication.c ****         break;
1176:.\BLEApplication.c ****         case TX:
1177:.\BLEApplication.c ****         break;
1178:.\BLEApplication.c **** //            ‰∏ªÊú∫Êåá‰ª§ËØªÂèñ‰ªéÊú∫ÁöÑRSSI----‰∏ª‰ªéÊú∫ÊúâÊïà
1179:.\BLEApplication.c ****         case RSSI:
1180:.\BLEApplication.c ****             if(CYBLE_STATE_CONNECTED==CyBle_GetState())
1181:.\BLEApplication.c ****             {
1182:.\BLEApplication.c ****                 idx=SerialData[8];
1183:.\BLEApplication.c ****                 if(idx=='?')
1184:.\BLEApplication.c ****                     printf("+RSSI:<%ddBm>\r\n",CyBle_GetRssi());
1185:.\BLEApplication.c ****             }
1186:.\BLEApplication.c ****             else
1187:.\BLEApplication.c ****             {
1188:.\BLEApplication.c ****                printf("AT+ERR=3\r\n");//Ë°®Á§∫ÂΩìÂâçÁä∂ÊÄÅ‰∏çÊîØÊåÅËØ•ÂëΩ‰ª§ 
1189:.\BLEApplication.c ****             }
1190:.\BLEApplication.c ****         break;     
1191:.\BLEApplication.c **** //            ÈÄè‰º†ÈÄüÁéáÊµãËØï----‰∏ªÊúâÊïà
1192:.\BLEApplication.c ****         case SPEED:
1193:.\BLEApplication.c ****             idx=SerialData[9];
1194:.\BLEApplication.c ****             if('?'==idx)
1195:.\BLEApplication.c ****             {
1196:.\BLEApplication.c ****                 printf("%ld\r\n",testCount);
1197:.\BLEApplication.c ****                 testCount=0;
1198:.\BLEApplication.c ****             }
1199:.\BLEApplication.c **** //            if(CYBLE_STATE_CONNECTED==CyBle_GetState()&&(Central==Role))//ÂΩì‰∏î‰ªÖÂΩìÊòØËøûÊé•Áä
1200:.\BLEApplication.c **** //            {
1201:.\BLEApplication.c **** //                idx=SerialData[9];
1202:.\BLEApplication.c **** ////                MTU_REQ_FLAG=TRUE;                
1203:.\BLEApplication.c **** //                if('?'==idx)
1204:.\BLEApplication.c **** //                {                           
1205:.\BLEApplication.c **** //                    printf("Test Start\r\n");
ARM GAS  C:\Users\Helon\AppData\Local\Temp\ccTLkFeM.s 			page 34


1206:.\BLEApplication.c **** //                    Timer_Enable();
1207:.\BLEApplication.c **** //                    //‰∏ªÊú∫ÂèëÈÄÅÁöÑMTU exchange request
1208:.\BLEApplication.c **** ////                    if(MTU_REQ_FLAG^FALSE)
1209:.\BLEApplication.c **** ////                    {
1210:.\BLEApplication.c **** ////                        TroughtTest_Flag=TURE;                        
1211:.\BLEApplication.c **** ////                        MTU_REQ_FLAG=FALSE;
1212:.\BLEApplication.c **** ////                        API_RESULT=CyBle_GattcExchangeMtuReq(cyBle_connHandle, CYBLE_GATT_MTU);
1213:.\BLEApplication.c **** //////                        printf("GattcExchangeMtuReq is %d\r\n",API_RESULT);
1214:.\BLEApplication.c **** ////                        break;
1215:.\BLEApplication.c **** ////                    }
1216:.\BLEApplication.c **** ////                    else
1217:.\BLEApplication.c **** ////                    {
1218:.\BLEApplication.c **** //////                        TroughtTest_Flag=TURE;
1219:.\BLEApplication.c **** //////                        charNotificationEnabled = TURE;
1220:.\BLEApplication.c **** ////                        totalByteCounter=0;
1221:.\BLEApplication.c **** //////                        UART_UartPutString("Calculating throughput. Please wait...\n\r");
1222:.\BLEApplication.c **** //////                        Timer_Enable();
1223:.\BLEApplication.c **** ////                        writeRequestData.value.val[0]=0x01;
1224:.\BLEApplication.c **** ////                        writeRequestData.attrHandle=CYBLE_TROUGHPUT_SERVICE_SPEEDTEST_CHAR_HAND
1225:.\BLEApplication.c **** ////                        API_RESULT=CyBle_GattcWriteCharacteristicValue(cyBle_connHandle, &write
1226:.\BLEApplication.c **** ////                        if(CYBLE_ERROR_OK==API_RESULT)
1227:.\BLEApplication.c **** ////                        {
1228:.\BLEApplication.c **** ////                            CyBle_ProcessEvents();
1229:.\BLEApplication.c **** ////                        }                       
1230:.\BLEApplication.c **** ////                        printf("CyBle_GattcWriteCharacteristicDescriptors is %d\r\n",API_RESULT
1231:.\BLEApplication.c **** ////                    }
1232:.\BLEApplication.c **** //                }    
1233:.\BLEApplication.c **** ////            break;
1234:.\BLEApplication.c **** //            }
1235:.\BLEApplication.c **** //            else
1236:.\BLEApplication.c **** //            {                
1237:.\BLEApplication.c **** //            }
1238:.\BLEApplication.c ****         break;
1239:.\BLEApplication.c **** //            ‰ΩøËÉΩNotifyÂ±ûÊÄßÁöÑÁâπÂæÅÂÄº-----‰∏ªÊú∫ÊúâÊïàÔºå‰ΩÜÊòØ‰ªéÊú∫‰πüÂèØ‰ª•ÊúâÊïàÂè™ÊòØ‰∏
1240:.\BLEApplication.c ****         case NOTIFY:
1241:.\BLEApplication.c ****             idx=SerialData[10];
1242:.\BLEApplication.c ****             if((CYBLE_STATE_CONNECTED==CyBle_GetState())&&(Central==Role))//‰∏ªÊú∫Ê®°Âºè‰∏ã‰∏îÊòØAT
1243:.\BLEApplication.c ****             {                  
1244:.\BLEApplication.c ****                 switch(idx)
1245:.\BLEApplication.c ****                 {
1246:.\BLEApplication.c **** //                    //ÂÖ≥Èó≠ÈÄè‰º†ÈÄöÈÅì,Âú®ÈÄè‰º†Ê®°Âºè‰∏ã‰∏ç‰ºöËøõÊù•ËøôÈáå
1247:.\BLEApplication.c **** //                    case '0':
1248:.\BLEApplication.c **** //                        writeRequestData.value.val[0]=0x00;
1249:.\BLEApplication.c **** //                        writeRequestData.attrHandle=CYBLE_TROUGHPUT_SERVICE_CUSTOM_CHARACTERISTIC
1250:.\BLEApplication.c **** //                        API_RESULT=CyBle_GattcWriteCharacteristicValue(cyBle_connHandle, &writeRe
1251:.\BLEApplication.c **** //                        if(CYBLE_ERROR_OK==API_RESULT)
1252:.\BLEApplication.c **** //                        {
1253:.\BLEApplication.c **** //                            CommandMode=AT_COMMAND_MODE;
1254:.\BLEApplication.c **** //                            printf("+MODE=<AT_COMMAND_MODE>\r\n");
1255:.\BLEApplication.c **** //                        }
1256:.\BLEApplication.c **** ////                        printf("CyBle_GattcWriteCharacteristicValue is %d\r\n",API_RESULT);
1257:.\BLEApplication.c **** //                    break;
1258:.\BLEApplication.c **** //                    ÊâìÂºÄÈÄè‰º†ÈÄöÈÅì
1259:.\BLEApplication.c ****                     case '1':
1260:.\BLEApplication.c ****                         writeRequestData.value.val[0]=0x01;
1261:.\BLEApplication.c ****                         writeRequestData.attrHandle=CYBLE_TROUGHPUT_SERVICE_CUSTOM_CHARACTERISTIC_C
1262:.\BLEApplication.c ****                         API_RESULT=CyBle_GattcWriteWithoutResponse(cyBle_connHandle, &writeRequestD
ARM GAS  C:\Users\Helon\AppData\Local\Temp\ccTLkFeM.s 			page 35


1263:.\BLEApplication.c ****                         if(CYBLE_ERROR_OK==API_RESULT)
1264:.\BLEApplication.c ****                         {
1265:.\BLEApplication.c ****                             CommandMode=THROUGHT_MODE;
1266:.\BLEApplication.c ****                             printf("+MODE=<THROUGHT_MODE>\r\n");
1267:.\BLEApplication.c ****                         }
1268:.\BLEApplication.c **** //                        printf("CyBle_GattcWriteCharacteristicValue is %d\r\n",API_RESULT);
1269:.\BLEApplication.c ****                     break;
1270:.\BLEApplication.c ****                     case '?'://‰∏ªÊú∫Ê®°Âºè‰∏ãÔºåËÉΩÊé•Êî∂Âà∞ËØ•ÂëΩ‰ª§Âàô‰∏ÄÂÆöÊòØATÂëΩ‰ª§Ê®°Âºè
1271:.\BLEApplication.c ****                         printf("+MODE=<AT_COMMAND_MODE>\r\n");                       
1272:.\BLEApplication.c ****                     break;
1273:.\BLEApplication.c **** //                        API_RESULT=CyBle_GattcReadCharacteristicValue(cyBle_connHandle,readReques
1274:.\BLEApplication.c **** //                        printf("CyBle_GattcReadCharacteristicDescriptors is %d\r\n",API_RESULT); 
1275:.\BLEApplication.c ****                         
1276:.\BLEApplication.c **** //                    break;
1277:.\BLEApplication.c ****                 }
1278:.\BLEApplication.c ****             }
1279:.\BLEApplication.c ****             else if((CYBLE_STATE_CONNECTED==CyBle_GetState())&&(Peripheral==Role))//‰ªéÊú∫Ê®°Âºè‰∏ã
1280:.\BLEApplication.c ****             {
1281:.\BLEApplication.c ****                 switch(idx)
1282:.\BLEApplication.c ****                 {
1283:.\BLEApplication.c ****                     case '1'://‰ªéÊú∫Ê®°Âºè‰∏îATÂëΩ‰ª§Ê®°Âºè‰∏ãÔºåÊâìÂºÄ‰ªéÊú∫Áªô‰∏ªÊú∫ÁöÑÈÄè‰º†ÈÄö
1284:.\BLEApplication.c ****                         CommandMode=THROUGHT_MODE;
1285:.\BLEApplication.c ****                         printf("+MODE=<THROUGHT_MODE>\r\n");
1286:.\BLEApplication.c ****                     break;
1287:.\BLEApplication.c ****                     case '?'://‰ªéÊú∫Ê®°Âºè‰∏ãÔºåËÉΩÊé•Êî∂Âà∞ËØ•ÂëΩ‰ª§Âàô‰∏ÄÂÆöÊòØATÂëΩ‰ª§Ê®°Âºè
1288:.\BLEApplication.c ****                         printf("+MODE=<AT_COMMAND_MODE>\r\n");                       
1289:.\BLEApplication.c ****                     break;
1290:.\BLEApplication.c ****                 }
1291:.\BLEApplication.c **** //                printf("+NOTIFY=<INVALID>\r\n");
1292:.\BLEApplication.c ****             }
1293:.\BLEApplication.c ****             else
1294:.\BLEApplication.c ****             {
1295:.\BLEApplication.c **** //                printf("+NOTIFY=<INVALID>\r\n");
1296:.\BLEApplication.c ****                 printf("AT+ERR=3\r\n");//Ë°®Á§∫ÂΩìÂâçÁä∂ÊÄÅ‰∏çÊîØÊåÅËØ•ÂëΩ‰ª§
1297:.\BLEApplication.c ****             }
1298:.\BLEApplication.c ****         break;
1299:.\BLEApplication.c **** //            ÂΩìÂâçBLEËÆæÂ§áÁä∂ÊÄÅÊü•ËØ¢----‰∏ª‰ªéÊúâÊïà
1300:.\BLEApplication.c ****         case STAUS:
1301:.\BLEApplication.c ****             idx=SerialData[9];            
1302:.\BLEApplication.c ****             if(idx=='?')
1303:.\BLEApplication.c ****             {
1304:.\BLEApplication.c ****                 STAUS_T=CyBle_GetState();
1305:.\BLEApplication.c ****                 switch(STAUS_T)
1306:.\BLEApplication.c ****                 {
1307:.\BLEApplication.c ****                     case 0:
1308:.\BLEApplication.c ****                         printf("+STAUS=<STATE_STOPPED>\r\n");
1309:.\BLEApplication.c ****                     break;
1310:.\BLEApplication.c ****                     case 1:
1311:.\BLEApplication.c ****                         printf("+STAUS=<STATE_INITIALIZING>\r\n");
1312:.\BLEApplication.c ****                     break;
1313:.\BLEApplication.c ****                     case 2:
1314:.\BLEApplication.c ****                         printf("+STAUS=<STATE_CONNECTED>\r\n");
1315:.\BLEApplication.c ****                     break;
1316:.\BLEApplication.c ****                     case 3:
1317:.\BLEApplication.c ****                         printf("+STAUS=<STATE_ADVERTISING>\r\n");
1318:.\BLEApplication.c ****                     break;
1319:.\BLEApplication.c ****                     case 4:
ARM GAS  C:\Users\Helon\AppData\Local\Temp\ccTLkFeM.s 			page 36


1320:.\BLEApplication.c ****                         printf("+STAUS=<STATE_SCANNING>\r\n");
1321:.\BLEApplication.c ****                     break;
1322:.\BLEApplication.c ****                     case 5:
1323:.\BLEApplication.c ****                         printf("+STAUS=<STATE_CONNECTING>\r\n");
1324:.\BLEApplication.c ****                     break;
1325:.\BLEApplication.c ****                     case 6:
1326:.\BLEApplication.c ****                         printf("+STAUS=<STATE_DISCONNECTED>\r\n");
1327:.\BLEApplication.c ****                     break;
1328:.\BLEApplication.c ****                     default:
1329:.\BLEApplication.c ****                     break;
1330:.\BLEApplication.c ****                 }
1331:.\BLEApplication.c ****             }
1332:.\BLEApplication.c ****         break;
1333:.\BLEApplication.c **** //            ÂπøÊí≠ÁöÑÊâìÂºÄ‰∏éÂÖ≥Èó≠-----‰ªéÊú∫ÊúâÊïà
1334:.\BLEApplication.c ****         case ADVS:            
1335:.\BLEApplication.c ****             idx=SerialData[8];            
1336:.\BLEApplication.c ****             if(CYBLE_STATE_CONNECTED!=CyBle_GetState())
1337:.\BLEApplication.c ****             {
1338:.\BLEApplication.c ****                 if(idx=='1')//ÂºÄÂßãÂπøÊí≠
1339:.\BLEApplication.c ****                 {
1340:.\BLEApplication.c ****                     if(CYBLE_STATE_ADVERTISING!=CyBle_GetState())
1341:.\BLEApplication.c ****                     {
1342:.\BLEApplication.c ****                         API_RESULT=CyBle_GappStartAdvertisement(CYBLE_ADVERTISING_FAST);
1343:.\BLEApplication.c ****                         if(CYBLE_ERROR_OK==API_RESULT)
1344:.\BLEApplication.c ****                         {
1345:.\BLEApplication.c **** //                           printf("+ADV=<ENABLE>\r\n");
1346:.\BLEApplication.c ****                             printf("AT+OK\r\n");
1347:.\BLEApplication.c ****                         }
1348:.\BLEApplication.c ****                         else
1349:.\BLEApplication.c ****                         {
1350:.\BLEApplication.c ****                             printf("AT+ERR=2\r\n");//Ë°®Á§∫ÂëΩ‰ª§ËÆæÁΩÆÂ§±Ë¥•
1351:.\BLEApplication.c ****                         }
1352:.\BLEApplication.c ****                     }
1353:.\BLEApplication.c ****                     else
1354:.\BLEApplication.c ****                     {
1355:.\BLEApplication.c **** //                        printf("+ADV=<ENABLE>\r\n");
1356:.\BLEApplication.c ****                         printf("AT+ERR=3\r\n");//Ë°®Á§∫ÂΩìÂâçÁä∂ÊÄÅ‰∏çÊîØÊåÅËØ•ÂëΩ‰ª§
1357:.\BLEApplication.c ****                     }
1358:.\BLEApplication.c ****                 }
1359:.\BLEApplication.c ****                 else if(idx=='0')//ÂÖ≥Èó≠ÂπøÊí≠
1360:.\BLEApplication.c ****                 {
1361:.\BLEApplication.c ****                     if(CYBLE_STATE_ADVERTISING==CyBle_GetState())
1362:.\BLEApplication.c ****                     {
1363:.\BLEApplication.c ****                         CyBle_GappStopAdvertisement();
1364:.\BLEApplication.c ****                         printf("AT+OK\r\n");
1365:.\BLEApplication.c **** //                        printf("+ADV=<DISABLE>\r\n");                        
1366:.\BLEApplication.c ****                     }
1367:.\BLEApplication.c ****                     else
1368:.\BLEApplication.c ****                     {
1369:.\BLEApplication.c **** //                        printf("+ADV=<DISABLE>\r\n");  
1370:.\BLEApplication.c ****                         printf("AT+ERR=3\r\n");//Ë°®Á§∫ÂΩìÂâçÁä∂ÊÄÅ‰∏çÊîØÊåÅËØ•ÂëΩ‰ª§
1371:.\BLEApplication.c ****                     }
1372:.\BLEApplication.c ****                 }
1373:.\BLEApplication.c ****             }
1374:.\BLEApplication.c ****             else
1375:.\BLEApplication.c ****             {
1376:.\BLEApplication.c **** //                printf("+ADV=<INVALID>\r\n"); 
ARM GAS  C:\Users\Helon\AppData\Local\Temp\ccTLkFeM.s 			page 37


1377:.\BLEApplication.c ****                 printf("AT+ERR=3\r\n");//Ë°®Á§∫ÂΩìÂâçÁä∂ÊÄÅ‰∏çÊîØÊåÅËØ•ÂëΩ‰ª§
1378:.\BLEApplication.c ****             }
1379:.\BLEApplication.c ****         break;
1380:.\BLEApplication.c **** //            ËÆæÁΩÆËÆæÂ§áIOÁöÑËÉΩÂäõ-----‰∏ª‰ªéÊúâÊïà
1381:.\BLEApplication.c ****         case IOCAP:
1382:.\BLEApplication.c ****             idx=SerialData[9];
1383:.\BLEApplication.c ****             if(CYBLE_STATE_CONNECTED!=CyBle_GetState())
1384:.\BLEApplication.c ****             {                
1385:.\BLEApplication.c ****                 switch(idx)
1386:.\BLEApplication.c ****                 {
1387:.\BLEApplication.c ****                     case '0':
1388:.\BLEApplication.c ****                     API_RESULT=CyBle_GapSetIoCap(CYBLE_GAP_IOCAP_DISPLAY_ONLY);
1389:.\BLEApplication.c ****                     if(API_RESULT==CYBLE_ERROR_OK)
1390:.\BLEApplication.c ****                     {
1391:.\BLEApplication.c **** //                        printf("+IOCAP=<DISPLAY_ONLY>\r\n");
1392:.\BLEApplication.c ****                         printf("AT+OK\r\n");
1393:.\BLEApplication.c ****                         iocapability=CYBLE_GAP_IOCAP_DISPLAY_ONLY;
1394:.\BLEApplication.c ****                     }
1395:.\BLEApplication.c ****                     else
1396:.\BLEApplication.c ****                     {
1397:.\BLEApplication.c ****                         printf("AT+ERR=2\r\n");//Ë°®Á§∫ÂëΩ‰ª§ËÆæÁΩÆÂ§±Ë¥•
1398:.\BLEApplication.c ****                     }
1399:.\BLEApplication.c ****                     break;
1400:.\BLEApplication.c ****                     case '1':
1401:.\BLEApplication.c ****                     API_RESULT=CyBle_GapSetIoCap(CYBLE_GAP_IOCAP_DISPLAY_YESNO);
1402:.\BLEApplication.c ****                     if(API_RESULT==CYBLE_ERROR_OK)
1403:.\BLEApplication.c ****                     {
1404:.\BLEApplication.c **** //                        printf("+IOCAP=<DISPLAY_YESNO>\r\n");
1405:.\BLEApplication.c ****                         printf("AT+OK\r\n");
1406:.\BLEApplication.c ****                         iocapability=CYBLE_GAP_IOCAP_DISPLAY_YESNO;
1407:.\BLEApplication.c ****                     }
1408:.\BLEApplication.c ****                     else
1409:.\BLEApplication.c ****                     {
1410:.\BLEApplication.c ****                         printf("AT+ERR=2\r\n");//Ë°®Á§∫ÂëΩ‰ª§ËÆæÁΩÆÂ§±Ë¥•
1411:.\BLEApplication.c ****                     }
1412:.\BLEApplication.c ****                     break;
1413:.\BLEApplication.c ****                     case '2':
1414:.\BLEApplication.c ****                     API_RESULT=CyBle_GapSetIoCap(CYBLE_GAP_IOCAP_KEYBOARD_ONLY);
1415:.\BLEApplication.c ****                     if(API_RESULT==CYBLE_ERROR_OK)
1416:.\BLEApplication.c ****                     {
1417:.\BLEApplication.c **** //                        printf("+IOCAP=<KEYBOARD_ONLY>\r\n");
1418:.\BLEApplication.c ****                         printf("AT+OK\r\n");
1419:.\BLEApplication.c ****                         iocapability=CYBLE_GAP_IOCAP_KEYBOARD_ONLY;
1420:.\BLEApplication.c ****                     }
1421:.\BLEApplication.c ****                     else
1422:.\BLEApplication.c ****                     {
1423:.\BLEApplication.c ****                         printf("AT+ERR=2\r\n");//Ë°®Á§∫ÂëΩ‰ª§ËÆæÁΩÆÂ§±Ë¥•
1424:.\BLEApplication.c ****                     }
1425:.\BLEApplication.c ****                     break;
1426:.\BLEApplication.c ****                     case '3':
1427:.\BLEApplication.c ****                     API_RESULT=CyBle_GapSetIoCap(CYBLE_GAP_IOCAP_NOINPUT_NOOUTPUT);
1428:.\BLEApplication.c ****                     if(API_RESULT==CYBLE_ERROR_OK)
1429:.\BLEApplication.c ****                     {
1430:.\BLEApplication.c **** //                        printf("+IOCAP=<NOINPUT_NOOUTPUT>\r\n");
1431:.\BLEApplication.c ****                         printf("AT+OK\r\n");
1432:.\BLEApplication.c ****                         iocapability=CYBLE_GAP_IOCAP_NOINPUT_NOOUTPUT;
1433:.\BLEApplication.c ****                     }
ARM GAS  C:\Users\Helon\AppData\Local\Temp\ccTLkFeM.s 			page 38


1434:.\BLEApplication.c ****                     else
1435:.\BLEApplication.c ****                     {
1436:.\BLEApplication.c ****                         printf("AT+ERR=2\r\n");//Ë°®Á§∫ÂëΩ‰ª§ËÆæÁΩÆÂ§±Ë¥•
1437:.\BLEApplication.c ****                     }
1438:.\BLEApplication.c ****                     break;
1439:.\BLEApplication.c ****                     case '4':
1440:.\BLEApplication.c ****                     API_RESULT=CyBle_GapSetIoCap(CYBLE_GAP_IOCAP_KEYBOARD_DISPLAY);
1441:.\BLEApplication.c ****                     if(API_RESULT==CYBLE_ERROR_OK)
1442:.\BLEApplication.c ****                     {
1443:.\BLEApplication.c **** //                        printf("+IOCAP=<KEYBOARD_DISPLAY>\r\n");
1444:.\BLEApplication.c ****                         printf("AT+OK\r\n");
1445:.\BLEApplication.c ****                         iocapability=CYBLE_GAP_IOCAP_KEYBOARD_DISPLAY;
1446:.\BLEApplication.c ****                     }
1447:.\BLEApplication.c ****                     else
1448:.\BLEApplication.c ****                     {
1449:.\BLEApplication.c ****                         printf("AT+ERR=2\r\n");//Ë°®Á§∫ÂëΩ‰ª§ËÆæÁΩÆÂ§±Ë¥•
1450:.\BLEApplication.c ****                     }
1451:.\BLEApplication.c ****                     break;
1452:.\BLEApplication.c ****                     case '?':
1453:.\BLEApplication.c ****                         switch(iocapability)
1454:.\BLEApplication.c ****                         {
1455:.\BLEApplication.c ****                             case 0:
1456:.\BLEApplication.c ****                                 printf("+IOCAP=<DISPLAY_ONLY>\r\n");
1457:.\BLEApplication.c ****                             break;
1458:.\BLEApplication.c ****                             case 1:
1459:.\BLEApplication.c ****                                 printf("+IOCAP=<DISPLAY_YESNO>\r\n");
1460:.\BLEApplication.c ****                             break;
1461:.\BLEApplication.c ****                             case 2:
1462:.\BLEApplication.c ****                                 printf("+IOCAP=<KEYBOARD_ONLY>\r\n");
1463:.\BLEApplication.c ****                             break;
1464:.\BLEApplication.c ****                             case 3:
1465:.\BLEApplication.c ****                                 printf("+IOCAP=<NOINPUT_NOOUTPUT>\r\n");
1466:.\BLEApplication.c ****                             break;
1467:.\BLEApplication.c ****                             case 4:
1468:.\BLEApplication.c ****                                 printf("+IOCAP=<KEYBOARD_DISPLAY>\r\n");
1469:.\BLEApplication.c ****                             break;
1470:.\BLEApplication.c ****                         }
1471:.\BLEApplication.c ****                     break;
1472:.\BLEApplication.c ****                 }   
1473:.\BLEApplication.c ****             }            
1474:.\BLEApplication.c ****             else
1475:.\BLEApplication.c ****             {
1476:.\BLEApplication.c **** //                printf("+IOCAP=<INVALID>\r\n");
1477:.\BLEApplication.c ****                 printf("AT+ERR=3\r\n");//Ë°®Á§∫ÂΩìÂâçÁä∂ÊÄÅ‰∏çÊîØÊåÅËØ•ÂëΩ‰ª§
1478:.\BLEApplication.c ****             }
1479:.\BLEApplication.c ****         break;
1480:.\BLEApplication.c ****         case AUTH:
1481:.\BLEApplication.c ****             idx=SerialData[8];
1482:.\BLEApplication.c ****             if(idx=='?')
1483:.\BLEApplication.c ****             {
1484:.\BLEApplication.c ****                 if(AUTHFLAG)
1485:.\BLEApplication.c ****                     printf("+AUTH=<ENABLE>\r\n");
1486:.\BLEApplication.c ****                 else
1487:.\BLEApplication.c ****                     printf("+AUTH=<DISABLE>\r\n");
1488:.\BLEApplication.c ****             }
1489:.\BLEApplication.c ****             else if(idx=='1')
1490:.\BLEApplication.c ****             {
ARM GAS  C:\Users\Helon\AppData\Local\Temp\ccTLkFeM.s 			page 39


1491:.\BLEApplication.c ****                 if(!AUTHFLAG)
1492:.\BLEApplication.c ****                 {
1493:.\BLEApplication.c **** //                  ÂèëÈÄÅËÆ§ËØÅËØ∑Ê±Ç  
1494:.\BLEApplication.c ****                     API_RESULT=CyBle_GapAuthReq(cyBle_connHandle.bdHandle,&cyBle_authInfo); 
1495:.\BLEApplication.c ****                     if(API_RESULT==CYBLE_ERROR_OK)
1496:.\BLEApplication.c ****                     {
1497:.\BLEApplication.c ****                         printf("AT+OK\r\n");
1498:.\BLEApplication.c ****                     }
1499:.\BLEApplication.c ****                     else
1500:.\BLEApplication.c ****                     {
1501:.\BLEApplication.c ****                         printf("AT+ERR=2\r\n");//Ë°®Á§∫ÂëΩ‰ª§ËÆæÁΩÆÂ§±Ë¥•
1502:.\BLEApplication.c ****                     }
1503:.\BLEApplication.c ****                 }                                  
1504:.\BLEApplication.c ****                 else
1505:.\BLEApplication.c ****                 {
1506:.\BLEApplication.c ****                     printf("AT+ERR=3\r\n");//Ë°®Á§∫ÂΩìÂâçÁä∂ÊÄÅ‰∏çÊîØÊåÅËØ•ÂëΩ‰ª§
1507:.\BLEApplication.c ****                 }
1508:.\BLEApplication.c ****                     
1509:.\BLEApplication.c **** //                    printf("+AUTH=<INVALID>\r\n");
1510:.\BLEApplication.c ****             }
1511:.\BLEApplication.c ****         break;
1512:.\BLEApplication.c ****         default:
1513:.\BLEApplication.c ****         break;
1514:.\BLEApplication.c ****     }
1515:.\BLEApplication.c ****         
1516:.\BLEApplication.c **** }
1517:.\BLEApplication.c **** 
1518:.\BLEApplication.c **** /******************************************************************************
1519:.\BLEApplication.c **** * Function Name: Command_Identify
1520:.\BLEApplication.c **** ***************************************************************************//**
1521:.\BLEApplication.c **** * 
1522:.\BLEApplication.c **** *  ËØÜÂà´ATÂëΩ‰ª§
1523:.\BLEApplication.c **** * \param  SerialData:ÊåáÂêëcharÂûãÁöÑÊåáÈíà
1524:.\BLEApplication.c **** * \return ËøîÂõûATÂëΩ‰ª§Âú®ATÂëΩ‰ª§ÂàóË°®‰∏≠ÁöÑÁ¥¢ÂºïÂÄº
1525:.\BLEApplication.c **** *  
1526:.\BLEApplication.c **** * 
1527:.\BLEApplication.c **** ******************************************************************************/
1528:.\BLEApplication.c **** uint8_t Command_Identify(const char* SerialData)
1529:.\BLEApplication.c **** {
1530:.\BLEApplication.c ****     if(NULL==SerialData)
1531:.\BLEApplication.c ****         return FALSE;
1532:.\BLEApplication.c ****     uint8_t SerialArryLength=0,i=0,location;    
1533:.\BLEApplication.c **** //    char String[20]={0};
1534:.\BLEApplication.c ****     if(0==strcmp(SerialData,"AT\r\n"))
1535:.\BLEApplication.c ****     {
1536:.\BLEApplication.c **** //        printf("OK\r\n");
1537:.\BLEApplication.c ****         return _AT;
1538:.\BLEApplication.c ****     }
1539:.\BLEApplication.c ****     //Ëé∑ÂèñATÂëΩ‰ª§Á≠âÂè∑ÁöÑ‰ΩçÁΩÆÔºåÂ¶Ç‚ÄúAT+RESET=1‚Äù‰∏≠‚Äú=‚ÄùÂè∑ÁöÑ‰ΩçÁΩÆÊòØ8.
1540:.\BLEApplication.c ****     location=strchr((char*)SerialData,'=')-SerialData;
1541:.\BLEApplication.c **** //    Âä®ÊÄÅÂàÜÈÖçÂ†ÜÁ©∫Èó¥
1542:.\BLEApplication.c ****     char* String=malloc(sizeof(char)*location);
1543:.\BLEApplication.c ****     //‰øùÂ≠òATÂëΩ‰ª§Á≠âÂè∑ÂâçÁöÑÊï∞ÊçÆ.
1544:.\BLEApplication.c ****     strncpy(String,SerialData,location);
1545:.\BLEApplication.c ****     SerialArryLength=sizeof(StringArry)/sizeof(StringArry[0]);   
1546:.\BLEApplication.c **** //    ÂåπÈÖçATÂëΩ‰ª§ÂàóË°®‰∏≠ATÂëΩ‰ª§ÁöÑ‰ΩçÁΩÆ
1547:.\BLEApplication.c ****     for(i=0;i<SerialArryLength;i++)
ARM GAS  C:\Users\Helon\AppData\Local\Temp\ccTLkFeM.s 			page 40


1548:.\BLEApplication.c ****     {
1549:.\BLEApplication.c ****         if(strncmp((char*)String,StringArry[i],location)==0)
1550:.\BLEApplication.c ****         {
1551:.\BLEApplication.c ****             break;
1552:.\BLEApplication.c ****         }
1553:.\BLEApplication.c **** //        printf("%s\r\n",StringArry[i]);
1554:.\BLEApplication.c **** //        printf("%d\r\n",strcmp((char*)String,StringArry[i]));
1555:.\BLEApplication.c ****     }
1556:.\BLEApplication.c **** //    ÈáäÊîæ‰πãÂâçÂàÜÈÖçÁöÑÂ†ÜÁ©∫Èó¥
1557:.\BLEApplication.c ****     free(String);
1558:.\BLEApplication.c ****     return i;
1559:.\BLEApplication.c **** }
1560:.\BLEApplication.c **** 
1561:.\BLEApplication.c **** /*******************************************************************************
1562:.\BLEApplication.c **** * Function Name: MyTimerIsr()
1563:.\BLEApplication.c **** ********************************************************************************
1564:.\BLEApplication.c **** * Summary:
1565:.\BLEApplication.c **** * Interrupt service routine for the timer block.
1566:.\BLEApplication.c **** *
1567:.\BLEApplication.c **** * Parameters:
1568:.\BLEApplication.c **** * None
1569:.\BLEApplication.c **** *
1570:.\BLEApplication.c **** * Return:
1571:.\BLEApplication.c **** * None
1572:.\BLEApplication.c **** *
1573:.\BLEApplication.c **** * Theory:
1574:.\BLEApplication.c **** * The ISR is fired when the timer reaches terminal count. In the ISR, the total
1575:.\BLEApplication.c **** * number of bytes received until now is cached locally (to avoid any potential 
1576:.\BLEApplication.c **** * race conditions) and then the throughput is calculated from it.
1577:.\BLEApplication.c **** * Since the ISR fires 10 seconds after the timer is started, the total number
1578:.\BLEApplication.c **** * of bytes is divided by 10. The bytes are converted to kilobytes by dividing 
1579:.\BLEApplication.c **** * by 1024. It is then converted to kilo bits by multiplying the result by 8.
1580:.\BLEApplication.c **** *
1581:.\BLEApplication.c **** * Side Effects:
1582:.\BLEApplication.c **** * None
1583:.\BLEApplication.c **** *
1584:.\BLEApplication.c **** *******************************************************************************/
1585:.\BLEApplication.c **** CY_ISR(MyTimerIsr)
1586:.\BLEApplication.c **** {
 589              		.loc 1 1586 0
 590              		.cfi_startproc
 591 0000 38B5     		push	{r3, r4, r5, lr}
 592              		.cfi_def_cfa_offset 16
 593              		.cfi_offset 3, -16
 594              		.cfi_offset 4, -12
 595              		.cfi_offset 5, -8
 596              		.cfi_offset 14, -4
1587:.\BLEApplication.c **** //    uint32 cachedTotalByteCounter = totalByteCounter;
1588:.\BLEApplication.c **** //    uint32 throughput;
1589:.\BLEApplication.c ****     static uint32 timercount=0;
1590:.\BLEApplication.c ****     Timer_ClearInterrupt(Timer_INTR_MASK_TC);
 597              		.loc 1 1590 0
 598 0002 0120     		mov	r0, #1
 599 0004 FFF7FEFF 		bl	Timer_ClearInterrupt
 600              	.LVL90:
1591:.\BLEApplication.c ****     _10sIsOver=TURE;
 601              		.loc 1 1591 0
ARM GAS  C:\Users\Helon\AppData\Local\Temp\ccTLkFeM.s 			page 41


 602 0008 0123     		mov	r3, #1
 603 000a 084C     		ldr	r4, .L54
1592:.\BLEApplication.c ****     timercount++;
1593:.\BLEApplication.c ****     if(timercount==10001)
 604              		.loc 1 1593 0
 605 000c 084A     		ldr	r2, .L54+4
1591:.\BLEApplication.c ****     _10sIsOver=TURE;
 606              		.loc 1 1591 0
 607 000e 6374     		strb	r3, [r4, #17]
1592:.\BLEApplication.c ****     timercount++;
 608              		.loc 1 1592 0
 609 0010 6369     		ldr	r3, [r4, #20]
 610 0012 0133     		add	r3, r3, #1
 611 0014 6361     		str	r3, [r4, #20]
 612              		.loc 1 1593 0
 613 0016 9342     		cmp	r3, r2
 614 0018 07D1     		bne	.L52
 615              	.LBB26:
 616              	.LBB27:
1594:.\BLEApplication.c ****     {
1595:.\BLEApplication.c ****         _10sIsOver=FALSE;
 617              		.loc 1 1595 0
 618 001a 0025     		mov	r5, #0
 619 001c 6574     		strb	r5, [r4, #17]
1596:.\BLEApplication.c ****         Timer_Stop();
 620              		.loc 1 1596 0
 621 001e FFF7FEFF 		bl	Timer_Stop
 622              	.LVL91:
1597:.\BLEApplication.c ****         timercount=0;
1598:.\BLEApplication.c ****         printf("Send Compelete!\r\n");
 623              		.loc 1 1598 0
 624 0022 0448     		ldr	r0, .L54+8
1597:.\BLEApplication.c ****         timercount=0;
 625              		.loc 1 1597 0
 626 0024 6561     		str	r5, [r4, #20]
 627              		.loc 1 1598 0
 628 0026 FFF7FEFF 		bl	puts
 629              	.LVL92:
 630              	.L52:
 631              	.LBE27:
 632              	.LBE26:
1599:.\BLEApplication.c ****         
1600:.\BLEApplication.c ****     }
1601:.\BLEApplication.c **** //    charNotificationEnabled=FALSE;
1602:.\BLEApplication.c **** //    TroughtTest_Flag=FALSE;
1603:.\BLEApplication.c **** //    TroughtTest_Flag=FALSE;
1604:.\BLEApplication.c ****     /* Total bytes received in 10 seconds converted to Kilo bits per second */
1605:.\BLEApplication.c **** //    printf("totalByteCounter is %ld",totalByteCounter);
1606:.\BLEApplication.c **** //    while((UART_SpiUartGetTxBufferSize() + UART_GET_TX_FIFO_SR_VALID) != 0);//Á≠âÂæÖ‰∏≤Âè£ÁºìÂÜ≤Â
1607:.\BLEApplication.c **** //    throughput = (cachedTotalByteCounter >> 7) / 10;
1608:.\BLEApplication.c **** //    printf("\r\n+SPEED=<%ldkbps>\r\n",throughput);      
1609:.\BLEApplication.c **** //    CyBle_GattcWriteCharacteristicDescriptors(cyBle_connHandle, &writeRequestData);
1610:.\BLEApplication.c **** }
 633              		.loc 1 1610 0
 634              		@ sp needed
 635 002a 38BD     		pop	{r3, r4, r5, pc}
 636              	.L55:
ARM GAS  C:\Users\Helon\AppData\Local\Temp\ccTLkFeM.s 			page 42


 637              		.align	2
 638              	.L54:
 639 002c 00000000 		.word	.LANCHOR0
 640 0030 11270000 		.word	10001
 641 0034 2B010000 		.word	.LC42
 642              		.cfi_endproc
 643              	.LFE45:
 644              		.size	MyTimerIsr, .-MyTimerIsr
 645              		.section	.text.LowPowerManagement,"ax",%progbits
 646              		.align	1
 647              		.global	LowPowerManagement
 648              		.code	16
 649              		.thumb_func
 650              		.type	LowPowerManagement, %function
 651              	LowPowerManagement:
 652              	.LFB36:
 440:.\BLEApplication.c ****     /* Local variable to store the status of BLESS Hardware block */
 653              		.loc 1 440 0
 654              		.cfi_startproc
 655 0000 38B5     		push	{r3, r4, r5, lr}
 656              		.cfi_def_cfa_offset 16
 657              		.cfi_offset 3, -16
 658              		.cfi_offset 4, -12
 659              		.cfi_offset 5, -8
 660              		.cfi_offset 14, -4
 446:.\BLEApplication.c **** 		
 661              		.loc 1 446 0
 662 0002 0320     		mov	r0, #3
 663 0004 FFF7FEFF 		bl	CyBle_EnterLPM
 664              	.LVL93:
 665 0008 041C     		mov	r4, r0
 666              	.LVL94:
 449:.\BLEApplication.c **** 	
 667              		.loc 1 449 0
 668              	@ 449 ".\BLEApplication.c" 1
 669 000a 72B6     		CPSID   i
 670              	@ 0 "" 2
 452:.\BLEApplication.c **** 
 671              		.loc 1 452 0
 672              		.code	16
 673 000c FFF7FEFF 		bl	CyBle_GetBleSsState
 674              	.LVL95:
 454:.\BLEApplication.c **** 		{
 675              		.loc 1 454 0
 676 0010 032C     		cmp	r4, #3
 677 0012 25D1     		bne	.L57
 458:.\BLEApplication.c **** 		    {
 678              		.loc 1 458 0
 679 0014 FD23     		mov	r3, #253
 680 0016 1840     		and	r0, r3
 681              	.LVL96:
 682 0018 0428     		cmp	r0, #4
 683 001a 27D1     		bne	.L58
 461:.\BLEApplication.c ****                 while((UART_SpiUartGetTxBufferSize() + UART_GET_TX_FIFO_SR_VALID) != 0);//Á≠âÂæÖ‰∏≤
 684              		.loc 1 461 0
 685 001c 0020     		mov	r0, #0
 686 001e FFF7FEFF 		bl	Status_LED_Write
ARM GAS  C:\Users\Helon\AppData\Local\Temp\ccTLkFeM.s 			page 43


 687              	.LVL97:
 688              	.L59:
 462:.\BLEApplication.c ****                 UART_Sleep();
 689              		.loc 1 462 0 discriminator 5
 690 0022 0125     		mov	r5, #1
 691 0024 FFF7FEFF 		bl	UART_SpiUartGetTxBufferSize
 692              	.LVL98:
 693 0028 114B     		ldr	r3, .L63
 694 002a 1C68     		ldr	r4, [r3]
 695 002c E40B     		lsr	r4, r4, #15
 696 002e 2C40     		and	r4, r5
 697 0030 0419     		add	r4, r0, r4
 698 0032 002C     		cmp	r4, #0
 699 0034 F5D1     		bne	.L59
 463:.\BLEApplication.c **** 		        CySysPmDeepSleep();
 700              		.loc 1 463 0
 701 0036 FFF7FEFF 		bl	UART_Sleep
 702              	.LVL99:
 464:.\BLEApplication.c ****                 UART_Wakeup();
 703              		.loc 1 464 0
 704 003a FFF7FEFF 		bl	CySysPmDeepSleep
 705              	.LVL100:
 465:.\BLEApplication.c ****                 CyDelay(5);
 706              		.loc 1 465 0
 707 003e FFF7FEFF 		bl	UART_Wakeup
 708              	.LVL101:
 466:.\BLEApplication.c ****                 UART_SpiUartClearRxBuffer();//Ê∏ÖÈô§‰∏≤Âè£Êé•Êî∂ÁºìÂÜ≤Âå∫
 709              		.loc 1 466 0
 710 0042 0520     		mov	r0, #5
 711 0044 FFF7FEFF 		bl	CyDelay
 712              	.LVL102:
 467:.\BLEApplication.c ****                 UART_RX_WAKEUP_IRQ_ClearPending();
 713              		.loc 1 467 0
 714 0048 FFF7FEFF 		bl	UART_SpiUartClearRxBuffer
 715              	.LVL103:
 468:.\BLEApplication.c **** //                UART_SCB_IRQ_ClearPending();
 716              		.loc 1 468 0
 717 004c FFF7FEFF 		bl	UART_RX_WAKEUP_IRQ_ClearPending
 718              	.LVL104:
 470:.\BLEApplication.c **** //                UART_RX_WAKEUP_IRQ_Disable();
 719              		.loc 1 470 0
 720 0050 FFF7FEFF 		bl	UART_rx_wake_ClearInterrupt
 721              	.LVL105:
 475:.\BLEApplication.c ****                 Status_LED_Write(LED_OFF);  
 722              		.loc 1 475 0
 723 0054 074B     		ldr	r3, .L63+4
 476:.\BLEApplication.c **** 
 724              		.loc 1 476 0
 725 0056 281C     		mov	r0, r5
 475:.\BLEApplication.c ****                 Status_LED_Write(LED_OFF);  
 726              		.loc 1 475 0
 727 0058 9C72     		strb	r4, [r3, #10]
 476:.\BLEApplication.c **** 
 728              		.loc 1 476 0
 729 005a FFF7FEFF 		bl	Status_LED_Write
 730              	.LVL106:
 731 005e 05E0     		b	.L58
ARM GAS  C:\Users\Helon\AppData\Local\Temp\ccTLkFeM.s 			page 44


 732              	.LVL107:
 733              	.L57:
 480:.\BLEApplication.c **** 		{
 734              		.loc 1 480 0
 735 0060 022C     		cmp	r4, #2
 736 0062 03D1     		bne	.L58
 482:.\BLEApplication.c **** 		    {
 737              		.loc 1 482 0
 738 0064 0228     		cmp	r0, #2
 739 0066 01D0     		beq	.L58
 486:.\BLEApplication.c **** 		    }
 740              		.loc 1 486 0
 741 0068 FFF7FEFF 		bl	CySysPmSleep
 742              	.LVL108:
 743              	.L58:
 490:.\BLEApplication.c ****         
 744              		.loc 1 490 0
 745              	@ 490 ".\BLEApplication.c" 1
 746 006c 62B6     		CPSIE   i
 747              	@ 0 "" 2
 492:.\BLEApplication.c **** 
 748              		.loc 1 492 0
 749              		.code	16
 750              		@ sp needed
 751 006e 38BD     		pop	{r3, r4, r5, pc}
 752              	.L64:
 753              		.align	2
 754              	.L63:
 755 0070 08022440 		.word	1076101640
 756 0074 00000000 		.word	.LANCHOR1
 757              		.cfi_endproc
 758              	.LFE36:
 759              		.size	LowPowerManagement, .-LowPowerManagement
 760              		.section	.text.MY_ISR_USERBUTTON,"ax",%progbits
 761              		.align	1
 762              		.global	MY_ISR_USERBUTTON
 763              		.code	16
 764              		.thumb_func
 765              		.type	MY_ISR_USERBUTTON, %function
 766              	MY_ISR_USERBUTTON:
 767              	.LFB37:
 505:.\BLEApplication.c **** //    isr_UserButton_ClearPending();
 768              		.loc 1 505 0
 769              		.cfi_startproc
 517:.\BLEApplication.c **** /******************************************************************************
 770              		.loc 1 517 0
 771              		@ sp needed
 772 0000 7047     		bx	lr
 773              		.cfi_endproc
 774              	.LFE37:
 775              		.size	MY_ISR_USERBUTTON, .-MY_ISR_USERBUTTON
 776              		.section	.text.My_ISR_UART,"ax",%progbits
 777              		.align	1
 778              		.global	My_ISR_UART
 779              		.code	16
 780              		.thumb_func
 781              		.type	My_ISR_UART, %function
ARM GAS  C:\Users\Helon\AppData\Local\Temp\ccTLkFeM.s 			page 45


 782              	My_ISR_UART:
 783              	.LFB38:
 529:.\BLEApplication.c **** //    uint8_t rxdata;
 784              		.loc 1 529 0
 785              		.cfi_startproc
 531:.\BLEApplication.c ****     {
 786              		.loc 1 531 0
 787 0000 054B     		ldr	r3, .L71
 788 0002 1B68     		ldr	r3, [r3]
 789 0004 5B07     		lsl	r3, r3, #29
 790 0006 02D5     		bpl	.L67
 533:.\BLEApplication.c ****         //ËØªÂèñ‰∏≤Âè£Êï∞ÊçÆ
 791              		.loc 1 533 0
 792 0008 0122     		mov	r2, #1
 793 000a 044B     		ldr	r3, .L71+4
 794 000c 1A76     		strb	r2, [r3, #24]
 795              	.L67:
 551:.\BLEApplication.c ****   
 796              		.loc 1 551 0
 797 000e 0422     		mov	r2, #4
 798 0010 034B     		ldr	r3, .L71+8
 553:.\BLEApplication.c **** 
 799              		.loc 1 553 0
 800              		@ sp needed
 551:.\BLEApplication.c ****   
 801              		.loc 1 551 0
 802 0012 1A60     		str	r2, [r3]
 553:.\BLEApplication.c **** 
 803              		.loc 1 553 0
 804 0014 7047     		bx	lr
 805              	.L72:
 806 0016 C046     		.align	2
 807              	.L71:
 808 0018 CC0F2440 		.word	1076105164
 809 001c 00000000 		.word	.LANCHOR0
 810 0020 C00F2440 		.word	1076105152
 811              		.cfi_endproc
 812              	.LFE38:
 813              		.size	My_ISR_UART, .-My_ISR_UART
 814              		.section	.text.ConfigUartInit,"ax",%progbits
 815              		.align	1
 816              		.global	ConfigUartInit
 817              		.code	16
 818              		.thumb_func
 819              		.type	ConfigUartInit, %function
 820              	ConfigUartInit:
 821              	.LFB40:
 606:.\BLEApplication.c **** //    configUart.mode=UART_UART_MODE_STD;         /* mode: Standard */ 
 822              		.loc 1 606 0
 823              		.cfi_startproc
 633:.\BLEApplication.c **** /******************************************************************************
 824              		.loc 1 633 0
 825              		@ sp needed
 826 0000 7047     		bx	lr
 827              		.cfi_endproc
 828              	.LFE40:
 829              		.size	ConfigUartInit, .-ConfigUartInit
ARM GAS  C:\Users\Helon\AppData\Local\Temp\ccTLkFeM.s 			page 46


 830              		.section	.text.SetUartConfiguration,"ax",%progbits
 831              		.align	1
 832              		.global	SetUartConfiguration
 833              		.code	16
 834              		.thumb_func
 835              		.type	SetUartConfiguration, %function
 836              	SetUartConfiguration:
 837              	.LFB41:
 645:.\BLEApplication.c **** //    cystatus status = CYRET_SUCCESS; 
 838              		.loc 1 645 0
 839              		.cfi_startproc
 840              	.LVL109:
 655:.\BLEApplication.c **** 
 841              		.loc 1 655 0
 842              		@ sp needed
 843 0000 7047     		bx	lr
 844              		.cfi_endproc
 845              	.LFE41:
 846              		.size	SetUartConfiguration, .-SetUartConfiguration
 847              		.section	.text.LedInit,"ax",%progbits
 848              		.align	1
 849              		.global	LedInit
 850              		.code	16
 851              		.thumb_func
 852              		.type	LedInit, %function
 853              	LedInit:
 854              	.LFB42:
 668:.\BLEApplication.c ****     Status_LED_SetDriveMode(Status_LED_DM_STRONG);
 855              		.loc 1 668 0
 856              		.cfi_startproc
 857 0000 08B5     		push	{r3, lr}
 858              		.cfi_def_cfa_offset 8
 859              		.cfi_offset 3, -8
 860              		.cfi_offset 14, -4
 669:.\BLEApplication.c ****     Connected_LED_SetDriveMode(Connected_LED_DM_STRONG);
 861              		.loc 1 669 0
 862 0002 0620     		mov	r0, #6
 863 0004 FFF7FEFF 		bl	Status_LED_SetDriveMode
 864              	.LVL110:
 670:.\BLEApplication.c ****     Status_LED_Write(LED_OFF);
 865              		.loc 1 670 0
 866 0008 0620     		mov	r0, #6
 867 000a FFF7FEFF 		bl	Connected_LED_SetDriveMode
 868              	.LVL111:
 671:.\BLEApplication.c ****     Connected_LED_Write(LED_OFF);
 869              		.loc 1 671 0
 870 000e 0120     		mov	r0, #1
 871 0010 FFF7FEFF 		bl	Status_LED_Write
 872              	.LVL112:
 672:.\BLEApplication.c **** }
 873              		.loc 1 672 0
 874 0014 0120     		mov	r0, #1
 875 0016 FFF7FEFF 		bl	Connected_LED_Write
 876              	.LVL113:
 673:.\BLEApplication.c **** 
 877              		.loc 1 673 0
 878              		@ sp needed
ARM GAS  C:\Users\Helon\AppData\Local\Temp\ccTLkFeM.s 			page 47


 879 001a 08BD     		pop	{r3, pc}
 880              		.cfi_endproc
 881              	.LFE42:
 882              		.size	LedInit, .-LedInit
 883              		.section	.text.SystemInitialization,"ax",%progbits
 884              		.align	1
 885              		.global	SystemInitialization
 886              		.code	16
 887              		.thumb_func
 888              		.type	SystemInitialization, %function
 889              	SystemInitialization:
 890              	.LFB39:
 566:.\BLEApplication.c **** //    ÊµÅÊéßÂºïËÑöÁöÑÂàùÂßãÂåñ
 891              		.loc 1 566 0
 892              		.cfi_startproc
 893 0000 08B5     		push	{r3, lr}
 894              		.cfi_def_cfa_offset 8
 895              		.cfi_offset 3, -8
 896              		.cfi_offset 14, -4
 568:.\BLEApplication.c ****     CTS_Write(CTS_OFF);//ÊµÅÊéßÊòØ‰ΩéÁîµÂπ≥ÊúâÊïà
 897              		.loc 1 568 0
 898 0002 0620     		mov	r0, #6
 899 0004 FFF7FEFF 		bl	CTS_SetDriveMode
 900              	.LVL114:
 569:.\BLEApplication.c **** //    uint16_t counter;
 901              		.loc 1 569 0
 902 0008 0120     		mov	r0, #1
 903 000a FFF7FEFF 		bl	CTS_Write
 904              	.LVL115:
 577:.\BLEApplication.c ****     writeRequestData.value=cccdNotifFlagSetStruct;
 905              		.loc 1 577 0
 906 000e 0F23     		mov	r3, #15
 907 0010 094A     		ldr	r2, .L77
 593:.\BLEApplication.c **** 
 908              		.loc 1 593 0
 909              		@ sp needed
 577:.\BLEApplication.c ****     writeRequestData.value=cccdNotifFlagSetStruct;
 910              		.loc 1 577 0
 911 0012 1381     		strh	r3, [r2, #8]
 578:.\BLEApplication.c **** //    ÂàùÂßãÂåñÂπøÊí≠Èó¥ÈöîÂíåÂπøÂëäË∂ÖÊó∂Êó∂Èó¥
 912              		.loc 1 578 0
 913 0014 094B     		ldr	r3, .L77+4
 914 0016 0C33     		add	r3, r3, #12
 915 0018 03CB     		ldmia	r3!, {r0, r1}
 916 001a 03C2     		stmia	r2!, {r0, r1}
 585:.\BLEApplication.c ****     TimerInterrupt_StartEx(MyTimerIsr);
 917              		.loc 1 585 0
 918 001c FFF7FEFF 		bl	Timer_Init
 919              	.LVL116:
 586:.\BLEApplication.c ****     UART_Start();
 920              		.loc 1 586 0
 921 0020 0748     		ldr	r0, .L77+8
 922 0022 FFF7FEFF 		bl	TimerInterrupt_StartEx
 923              	.LVL117:
 587:.\BLEApplication.c ****   //    UART_SCB_IRQ_StartEx(My_ISR_UART);   
 924              		.loc 1 587 0
 925 0026 FFF7FEFF 		bl	UART_Start
ARM GAS  C:\Users\Helon\AppData\Local\Temp\ccTLkFeM.s 			page 48


 926              	.LVL118:
 590:.\BLEApplication.c ****     CyBle_Start(StackEventHandler);
 927              		.loc 1 590 0
 928 002a FFF7FEFF 		bl	LedInit
 929              	.LVL119:
 591:.\BLEApplication.c ****     
 930              		.loc 1 591 0
 931 002e 0548     		ldr	r0, .L77+12
 932 0030 FFF7FEFF 		bl	CyBle_Start
 933              	.LVL120:
 593:.\BLEApplication.c **** 
 934              		.loc 1 593 0
 935 0034 08BD     		pop	{r3, pc}
 936              	.L78:
 937 0036 C046     		.align	2
 938              	.L77:
 939 0038 00000000 		.word	writeRequestData
 940 003c 00000000 		.word	.LANCHOR1
 941 0040 00000000 		.word	MyTimerIsr
 942 0044 00000000 		.word	StackEventHandler
 943              		.cfi_endproc
 944              	.LFE39:
 945              		.size	SystemInitialization, .-SystemInitialization
 946              		.section	.text.Command_Identify,"ax",%progbits
 947              		.align	1
 948              		.global	Command_Identify
 949              		.code	16
 950              		.thumb_func
 951              		.type	Command_Identify, %function
 952              	Command_Identify:
 953              	.LFB44:
1529:.\BLEApplication.c ****     if(NULL==SerialData)
 954              		.loc 1 1529 0
 955              		.cfi_startproc
 956              	.LVL121:
 957 0000 F8B5     		push	{r3, r4, r5, r6, r7, lr}
 958              		.cfi_def_cfa_offset 24
 959              		.cfi_offset 3, -24
 960              		.cfi_offset 4, -20
 961              		.cfi_offset 5, -16
 962              		.cfi_offset 6, -12
 963              		.cfi_offset 7, -8
 964              		.cfi_offset 14, -4
1531:.\BLEApplication.c ****     uint8_t SerialArryLength=0,i=0,location;    
 965              		.loc 1 1531 0
 966 0002 031E     		sub	r3, r0, #0
1530:.\BLEApplication.c ****         return FALSE;
 967              		.loc 1 1530 0
 968 0004 28D0     		beq	.L80
1534:.\BLEApplication.c ****     {
 969              		.loc 1 1534 0
 970 0006 1549     		ldr	r1, .L89
 971 0008 041C     		mov	r4, r0
 972              	.LVL122:
 973 000a FFF7FEFF 		bl	strcmp
 974              	.LVL123:
1537:.\BLEApplication.c ****     }
ARM GAS  C:\Users\Helon\AppData\Local\Temp\ccTLkFeM.s 			page 49


 975              		.loc 1 1537 0
 976 000e 1323     		mov	r3, #19
1534:.\BLEApplication.c ****     {
 977              		.loc 1 1534 0
 978 0010 0028     		cmp	r0, #0
 979 0012 21D0     		beq	.L80
 980              	.LVL124:
 981              	.LBB30:
 982              	.LBB31:
1540:.\BLEApplication.c **** //    Âä®ÊÄÅÂàÜÈÖçÂ†ÜÁ©∫Èó¥
 983              		.loc 1 1540 0
 984 0014 3D21     		mov	r1, #61
 985 0016 201C     		mov	r0, r4
 986 0018 FFF7FEFF 		bl	strchr
 987              	.LVL125:
 988 001c 051B     		sub	r5, r0, r4
 989 001e EDB2     		uxtb	r5, r5
1542:.\BLEApplication.c ****     //‰øùÂ≠òATÂëΩ‰ª§Á≠âÂè∑ÂâçÁöÑÊï∞ÊçÆ.
 990              		.loc 1 1542 0
 991 0020 281C     		mov	r0, r5
 992              	.LVL126:
 993 0022 FFF7FEFF 		bl	malloc
 994              	.LVL127:
1544:.\BLEApplication.c ****     SerialArryLength=sizeof(StringArry)/sizeof(StringArry[0]);   
 995              		.loc 1 1544 0
 996 0026 211C     		mov	r1, r4
 997 0028 2A1C     		mov	r2, r5
1542:.\BLEApplication.c ****     //‰øùÂ≠òATÂëΩ‰ª§Á≠âÂè∑ÂâçÁöÑÊï∞ÊçÆ.
 998              		.loc 1 1542 0
 999 002a 061C     		mov	r6, r0
 1000              	.LVL128:
1544:.\BLEApplication.c ****     SerialArryLength=sizeof(StringArry)/sizeof(StringArry[0]);   
 1001              		.loc 1 1544 0
 1002 002c 0027     		mov	r7, #0
 1003 002e FFF7FEFF 		bl	strncpy
 1004              	.LVL129:
 1005              	.L82:
1549:.\BLEApplication.c ****         {
 1006              		.loc 1 1549 0
 1007 0032 0B4B     		ldr	r3, .L89+4
 1008 0034 BA00     		lsl	r2, r7, #2
 1009 0036 1433     		add	r3, r3, #20
 1010 0038 D158     		ldr	r1, [r2, r3]
 1011 003a 301C     		mov	r0, r6
 1012 003c 2A1C     		mov	r2, r5
 1013 003e FCB2     		uxtb	r4, r7
 1014              	.LVL130:
 1015 0040 FFF7FEFF 		bl	strncmp
 1016              	.LVL131:
 1017 0044 0028     		cmp	r0, #0
 1018 0046 03D0     		beq	.L81
 1019              	.LVL132:
 1020 0048 0137     		add	r7, r7, #1
 1021              	.LVL133:
1547:.\BLEApplication.c ****     {
 1022              		.loc 1 1547 0
 1023 004a 1A2F     		cmp	r7, #26
ARM GAS  C:\Users\Helon\AppData\Local\Temp\ccTLkFeM.s 			page 50


 1024 004c F1D1     		bne	.L82
 1025 004e 3C1C     		mov	r4, r7
 1026              	.LVL134:
 1027              	.L81:
1557:.\BLEApplication.c ****     return i;
 1028              		.loc 1 1557 0
 1029 0050 301C     		mov	r0, r6
 1030 0052 FFF7FEFF 		bl	free
 1031              	.LVL135:
 1032 0056 231C     		mov	r3, r4
 1033              	.LVL136:
 1034              	.L80:
 1035              	.LBE31:
 1036              	.LBE30:
1559:.\BLEApplication.c **** 
 1037              		.loc 1 1559 0
 1038 0058 181C     		mov	r0, r3
 1039              		@ sp needed
 1040 005a F8BD     		pop	{r3, r4, r5, r6, r7, pc}
 1041              	.L90:
 1042              		.align	2
 1043              	.L89:
 1044 005c 3C010000 		.word	.LC52
 1045 0060 00000000 		.word	.LANCHOR1
 1046              		.cfi_endproc
 1047              	.LFE44:
 1048              		.size	Command_Identify, .-Command_Identify
 1049              		.section	.text.SendNotification,"ax",%progbits
 1050              		.align	1
 1051              		.global	SendNotification
 1052              		.code	16
 1053              		.thumb_func
 1054              		.type	SendNotification, %function
 1055              	SendNotification:
 1056              	.LFB46:
1611:.\BLEApplication.c **** 
1612:.\BLEApplication.c **** /*******************************************************************************
1613:.\BLEApplication.c **** * Function Name: SendNotification()
1614:.\BLEApplication.c **** ********************************************************************************
1615:.\BLEApplication.c **** * Summary:
1616:.\BLEApplication.c **** * This function creates a notification packet and sends it.
1617:.\BLEApplication.c **** *
1618:.\BLEApplication.c **** * Parameters:
1619:.\BLEApplication.c **** * None
1620:.\BLEApplication.c **** *
1621:.\BLEApplication.c **** * Return:
1622:.\BLEApplication.c **** * None
1623:.\BLEApplication.c **** *
1624:.\BLEApplication.c **** * Theory:
1625:.\BLEApplication.c **** * The function creates a notification packet for the custom characteristic and 
1626:.\BLEApplication.c **** * sends it over BLE. The amount of data sent for the characteristic is equal 
1627:.\BLEApplication.c **** * to (negotiated MTU size - 3) bytes.
1628:.\BLEApplication.c **** *
1629:.\BLEApplication.c **** * Side Effects:
1630:.\BLEApplication.c **** * None
1631:.\BLEApplication.c **** *
1632:.\BLEApplication.c **** *******************************************************************************/
ARM GAS  C:\Users\Helon\AppData\Local\Temp\ccTLkFeM.s 			page 51


1633:.\BLEApplication.c **** void SendNotification(uint8_t*val,uint16_t len)
1634:.\BLEApplication.c **** {
 1057              		.loc 1 1634 0
 1058              		.cfi_startproc
 1059              	.LVL137:
 1060 0000 1FB5     		push	{r0, r1, r2, r3, r4, lr}
 1061              		.cfi_def_cfa_offset 24
 1062              		.cfi_offset 0, -24
 1063              		.cfi_offset 1, -20
 1064              		.cfi_offset 2, -16
 1065              		.cfi_offset 3, -12
 1066              		.cfi_offset 4, -8
 1067              		.cfi_offset 14, -4
1635:.\BLEApplication.c **** //    uint8   index;
1636:.\BLEApplication.c **** //    uint8   uartTxData[negotiatedMtu - 3];
1637:.\BLEApplication.c ****     CYBLE_API_RESULT_T API_RESULT=0;
1638:.\BLEApplication.c **** //    uint16_t uartTxDataLength;
1639:.\BLEApplication.c **** //    static uint16 uartIdleCount = UART_IDLE_TIMEOUT;
1640:.\BLEApplication.c **** ////    Uart_Char=UART_UartGetChar();
1641:.\BLEApplication.c **** //    CYBLE_GATTS_HANDLE_VALUE_NTF_T      uartTxDataNtf;
1642:.\BLEApplication.c ****     
1643:.\BLEApplication.c ****     /* Create a new notification packet */
1644:.\BLEApplication.c ****     CYBLE_GATTS_HANDLE_VALUE_NTF_T notificationPacket;
1645:.\BLEApplication.c **** //    CYBLE_API_RESULT_T API_RESULT;
1646:.\BLEApplication.c ****     /* Update Notification packet with the data.
1647:.\BLEApplication.c ****      * Maximum data which can be sent is equal to (Negotiated MTU - 3) bytes.
1648:.\BLEApplication.c ****      */
1649:.\BLEApplication.c ****     notificationPacket.attrHandle = CYBLE_TROUGHPUT_SERVICE_CUSTOM_CHARACTERISTIC_CHAR_HANDLE;
 1068              		.loc 1 1649 0
 1069 0002 0E22     		mov	r2, #14
 1070 0004 01AB     		add	r3, sp, #4
1650:.\BLEApplication.c ****     notificationPacket.value.val = val;   
1651:.\BLEApplication.c ****     notificationPacket.value.len = len - 3;
 1071              		.loc 1 1651 0
 1072 0006 0339     		sub	r1, r1, #3
 1073              	.LVL138:
 1074 0008 9980     		strh	r1, [r3, #4]
1652:.\BLEApplication.c **** //    notificationPacket.value.actualLen=0x00;
1653:.\BLEApplication.c ****     /* Report data to BLE component */
1654:.\BLEApplication.c ****     CyBle_GattsNotification(cyBle_connHandle, &notificationPacket);
 1075              		.loc 1 1654 0
 1076 000a 0849     		ldr	r1, .L92
1650:.\BLEApplication.c ****     notificationPacket.value.val = val;   
 1077              		.loc 1 1650 0
 1078 000c 0190     		str	r0, [sp, #4]
 1079              		.loc 1 1654 0
 1080 000e 4878     		ldrb	r0, [r1, #1]
 1081              	.LVL139:
1649:.\BLEApplication.c ****     notificationPacket.value.val = val;   
 1082              		.loc 1 1649 0
 1083 0010 1A81     		strh	r2, [r3, #8]
 1084              		.loc 1 1654 0
 1085 0012 0A78     		ldrb	r2, [r1]
 1086 0014 0002     		lsl	r0, r0, #8
 1087 0016 191C     		mov	r1, r3
 1088 0018 1043     		orr	r0, r2
 1089 001a FFF7FEFF 		bl	CyBle_GattsNotification
ARM GAS  C:\Users\Helon\AppData\Local\Temp\ccTLkFeM.s 			page 52


 1090              	.LVL140:
1655:.\BLEApplication.c ****     printf("SendNotification is %d\r\n",API_RESULT);
 1091              		.loc 1 1655 0
 1092 001e 0021     		mov	r1, #0
 1093 0020 0348     		ldr	r0, .L92+4
 1094 0022 FFF7FEFF 		bl	printf
 1095              	.LVL141:
1656:.\BLEApplication.c **** }
 1096              		.loc 1 1656 0
 1097 0026 05B0     		add	sp, sp, #20
 1098              		@ sp needed
 1099 0028 00BD     		pop	{pc}
 1100              	.L93:
 1101 002a C046     		.align	2
 1102              	.L92:
 1103 002c 00000000 		.word	cyBle_connHandle
 1104 0030 41010000 		.word	.LC57
 1105              		.cfi_endproc
 1106              	.LFE46:
 1107              		.size	SendNotification, .-SendNotification
 1108              		.section	.text.SendData_toSlave,"ax",%progbits
 1109              		.align	1
 1110              		.global	SendData_toSlave
 1111              		.code	16
 1112              		.thumb_func
 1113              		.type	SendData_toSlave, %function
 1114              	SendData_toSlave:
 1115              	.LFB47:
1657:.\BLEApplication.c **** /******************************************************************************
1658:.\BLEApplication.c **** * Function Name: SendData_toSlave
1659:.\BLEApplication.c **** ***************************************************************************//**
1660:.\BLEApplication.c **** * 
1661:.\BLEApplication.c **** *  MasterÁªôSlaveÂèëÊï∞ÊçÆ
1662:.\BLEApplication.c **** * \param  val:ÊåáÂêëË¶ÅÂèëÈÄÅÁöÑÊï∞ÊçÆÁöÑÈ¶ñÂú∞ÂùÄ
1663:.\BLEApplication.c **** * \param  len:Ë¶ÅÂèëÈÄÅÁöÑÊï∞ÊçÆÁöÑÈïøÂ∫¶
1664:.\BLEApplication.c **** * \return none
1665:.\BLEApplication.c **** *  
1666:.\BLEApplication.c **** * 
1667:.\BLEApplication.c **** ******************************************************************************/
1668:.\BLEApplication.c **** void SendData_toSlave(uint8_t*val,uint16_t len)
1669:.\BLEApplication.c **** {
 1116              		.loc 1 1669 0
 1117              		.cfi_startproc
 1118              	.LVL142:
 1119 0000 1FB5     		push	{r0, r1, r2, r3, r4, lr}
 1120              		.cfi_def_cfa_offset 24
 1121              		.cfi_offset 0, -24
 1122              		.cfi_offset 1, -20
 1123              		.cfi_offset 2, -16
 1124              		.cfi_offset 3, -12
 1125              		.cfi_offset 4, -8
 1126              		.cfi_offset 14, -4
1670:.\BLEApplication.c **** //    uint8 cccdNotifEnabledValue[] = {0x01, 0x00};
1671:.\BLEApplication.c ****     CYBLE_API_RESULT_T API_RESULT=0;
1672:.\BLEApplication.c ****     CYBLE_GATT_VALUE_T SendDataStruct =
1673:.\BLEApplication.c ****     {
1674:.\BLEApplication.c ****         val,
ARM GAS  C:\Users\Helon\AppData\Local\Temp\ccTLkFeM.s 			page 53


1675:.\BLEApplication.c ****         len,
1676:.\BLEApplication.c ****         0
1677:.\BLEApplication.c ****     };
1678:.\BLEApplication.c ****     CYBLE_GATTC_WRITE_REQ_T writeRequestData;
1679:.\BLEApplication.c ****     writeRequestData.attrHandle=CYBLE_TROUGHPUT_SERVICE_CUSTOM_CHARACTERISTIC_CHAR_HANDLE;
 1127              		.loc 1 1679 0
 1128 0002 0E23     		mov	r3, #14
 1129 0004 01AC     		add	r4, sp, #4
 1130 0006 2381     		strh	r3, [r4, #8]
1680:.\BLEApplication.c ****     writeRequestData.value=SendDataStruct;
 1131              		.loc 1 1680 0
 1132 0008 0023     		mov	r3, #0
 1133 000a 0190     		str	r0, [sp, #4]
 1134 000c A180     		strh	r1, [r4, #4]
 1135 000e E380     		strh	r3, [r4, #6]
 1136              	.LVL143:
 1137              	.L96:
1681:.\BLEApplication.c **** //    CyBle_GattcWriteCharacteristicValue(cyBle_connHandle,&writeRequestData);
1682:.\BLEApplication.c ****     do{
1683:.\BLEApplication.c ****         API_RESULT=CyBle_GattcWriteWithoutResponse(cyBle_connHandle,&writeRequestData);
 1138              		.loc 1 1683 0 discriminator 2
 1139 0010 074A     		ldr	r2, .L101
 1140 0012 211C     		mov	r1, r4
 1141 0014 5078     		ldrb	r0, [r2, #1]
 1142 0016 1378     		ldrb	r3, [r2]
 1143 0018 0002     		lsl	r0, r0, #8
 1144 001a 1843     		orr	r0, r3
 1145 001c FFF7FEFF 		bl	CyBle_GattcWriteWithoutResponse
 1146              	.LVL144:
1684:.\BLEApplication.c ****       }
1685:.\BLEApplication.c ****     while((CYBLE_ERROR_OK != API_RESULT)  && (CYBLE_STATE_CONNECTED == cyBle_state));
 1147              		.loc 1 1685 0 discriminator 2
 1148 0020 0028     		cmp	r0, #0
 1149 0022 03D0     		beq	.L94
 1150              		.loc 1 1685 0 is_stmt 0 discriminator 1
 1151 0024 034B     		ldr	r3, .L101+4
 1152 0026 1B78     		ldrb	r3, [r3]
 1153 0028 022B     		cmp	r3, #2
 1154 002a F1D0     		beq	.L96
 1155              	.L94:
1686:.\BLEApplication.c ****     
1687:.\BLEApplication.c ****     
1688:.\BLEApplication.c **** }
 1156              		.loc 1 1688 0 is_stmt 1
 1157              		@ sp needed
 1158 002c 1FBD     		pop	{r0, r1, r2, r3, r4, pc}
 1159              	.L102:
 1160 002e C046     		.align	2
 1161              	.L101:
 1162 0030 00000000 		.word	cyBle_connHandle
 1163 0034 00000000 		.word	cyBle_state
 1164              		.cfi_endproc
 1165              	.LFE47:
 1166              		.size	SendData_toSlave, .-SendData_toSlave
 1167              		.section	.text.Connect_Device,"ax",%progbits
 1168              		.align	1
 1169              		.global	Connect_Device
ARM GAS  C:\Users\Helon\AppData\Local\Temp\ccTLkFeM.s 			page 54


 1170              		.code	16
 1171              		.thumb_func
 1172              		.type	Connect_Device, %function
 1173              	Connect_Device:
 1174              	.LFB49:
1689:.\BLEApplication.c **** /******************************************************************************
1690:.\BLEApplication.c **** * Function Name: Slave_UartHandler
1691:.\BLEApplication.c **** ***************************************************************************//**
1692:.\BLEApplication.c **** * 
1693:.\BLEApplication.c **** *  Âú®Master_SlaveÊ®°Âºè‰∏ãÂ§ÑÁêÜ‰∏≤Âè£Êåá‰ª§
1694:.\BLEApplication.c **** * \param  none
1695:.\BLEApplication.c **** * \return none
1696:.\BLEApplication.c **** *  
1697:.\BLEApplication.c **** * 
1698:.\BLEApplication.c **** ******************************************************************************/
1699:.\BLEApplication.c **** void Master_Slave_UartHandler(uint8_t Role)
1700:.\BLEApplication.c **** {
1701:.\BLEApplication.c ****     uint8_t Uart_Char=0;
1702:.\BLEApplication.c ****     uint32 passkey=0;
1703:.\BLEApplication.c ****     uint32 pow;
1704:.\BLEApplication.c ****     uint8   index;
1705:.\BLEApplication.c ****     uint8   uartTxData[negotiatedMtu - 3];
1706:.\BLEApplication.c ****     CYBLE_API_RESULT_T API_RESULT=0;
1707:.\BLEApplication.c ****     uint16_t uartTxDataLength;
1708:.\BLEApplication.c ****     static uint16 uartIdleCount = UART_IDLE_TIMEOUT;
1709:.\BLEApplication.c **** //    Uart_Char=UART_UartGetChar();
1710:.\BLEApplication.c ****     CYBLE_GATTS_HANDLE_VALUE_NTF_T      uartTxDataNtf;
1711:.\BLEApplication.c ****     uartTxDataLength = UART_SpiUartGetRxBufferSize();//Âè™ÊúâËØªÂèñÂÆå‰∫ÜRX_BufferÊâçÊ∏Ö0
1712:.\BLEApplication.c ****     #ifdef  FLOW_CONTROL//Ê≠§Â§ÑÊúÄÂ•ΩÁΩÆ‰∏ÄGPIOÂè£‰∏∫‰ΩéÁîµÂπ≥ÂëäËØâÂèëÈÄÅÊñπÂÅúÊ≠¢ÂèëÈÄÅÊï∞ÊçÆ
1713:.\BLEApplication.c ****         if(uartTxDataLength>=(UART_RX_BUFFER/2))
1714:.\BLEApplication.c ****         {
1715:.\BLEApplication.c ****             UART_RX_INT_DISABLE();
1716:.\BLEApplication.c ****             CTS_Write(CTS_ON);
1717:.\BLEApplication.c ****         }
1718:.\BLEApplication.c ****         else
1719:.\BLEApplication.c ****         {
1720:.\BLEApplication.c ****             UART_RX_INT_ENABLE();
1721:.\BLEApplication.c ****             CTS_Write(CTS_OFF);
1722:.\BLEApplication.c ****         }
1723:.\BLEApplication.c ****     #endif
1724:.\BLEApplication.c **** //        Â§ÑÁêÜ‰∏≤Âè£‰ø°ÊÅØ,‰∏çÈááÁî®‰∏≠Êñ≠ÁöÑÊñπÂºè,ÈááÂèñ‰∏≠Êñ≠‰ºöÂΩ±ÂìçÈÄè‰º†ÈÄüÁéá
1725:.\BLEApplication.c ****     if((0!=uartTxDataLength)&&((CommandMode==THROUGHT_MODE)))
1726:.\BLEApplication.c ****     {   
1727:.\BLEApplication.c ****         if(uartTxDataLength>=negotiatedMtu-3)
1728:.\BLEApplication.c ****         {
1729:.\BLEApplication.c ****             uartIdleCount=UART_IDLE_TIMEOUT;
1730:.\BLEApplication.c ****             uartTxDataLength=negotiatedMtu-3;
1731:.\BLEApplication.c ****         }
1732:.\BLEApplication.c ****         else//Â¶ÇÊûúÂ∞è‰∫é20Â≠óËäÇÂàôÁ≠â‰∏™100ms,Â¶ÇÊûú100msÂêéËøòÊòØÂ∞ë‰∫é20Â≠óËäÇÂàôÈÄè‰º†Âá∫Âéª
1733:.\BLEApplication.c ****         {
1734:.\BLEApplication.c ****             if(--uartIdleCount == 0)
1735:.\BLEApplication.c ****             {
1736:.\BLEApplication.c ****                 /*uartTxDataLength remains unchanged */;
1737:.\BLEApplication.c ****             }
1738:.\BLEApplication.c ****             else
1739:.\BLEApplication.c ****             {
1740:.\BLEApplication.c ****                 uartTxDataLength = 0;
ARM GAS  C:\Users\Helon\AppData\Local\Temp\ccTLkFeM.s 			page 55


1741:.\BLEApplication.c ****             }
1742:.\BLEApplication.c ****         }
1743:.\BLEApplication.c ****         if(0!=uartTxDataLength)
1744:.\BLEApplication.c ****         {
1745:.\BLEApplication.c ****             uartIdleCount=UART_IDLE_TIMEOUT;
1746:.\BLEApplication.c ****             for(index=0;index<uartTxDataLength;index++)//‰∏çÁÆ°ÊòØ‰∏ªÊú∫ËøòÊòØ‰ªéÊú∫ÔºåÂú®ÈÄè‰º†Ê®°
1747:.\BLEApplication.c ****             {
1748:.\BLEApplication.c ****                 uartTxData[index] = (uint8) UART_UartGetByte();
1749:.\BLEApplication.c ****             }
1750:.\BLEApplication.c ****             if(0==memcmp("AT+NOTIFY=0",uartTxData,11))//Âú®ÈÄè‰º†Ê®°Âºè‰∏ãÔºåÂà§Êñ≠ÊòØ‰∏çÊòØË¶ÅÈÄÄÂ
1751:.\BLEApplication.c ****             {
1752:.\BLEApplication.c ****                 if(Role==Central) //‰∏ªÊú∫Ê®°Âºè‰∏ãÈÄÄÂá∫ÈÄè‰º†Ê®°Âºè
1753:.\BLEApplication.c ****                 {
1754:.\BLEApplication.c ****                     writeRequestData.value.val[0]=0x00;
1755:.\BLEApplication.c ****                     writeRequestData.attrHandle=CYBLE_TROUGHPUT_SERVICE_CUSTOM_CHARACTERISTIC_CLIEN
1756:.\BLEApplication.c ****                     API_RESULT=CyBle_GattcWriteCharacteristicValue(cyBle_connHandle, &writeRequestD
1757:.\BLEApplication.c ****                     if(CYBLE_ERROR_OK==API_RESULT)
1758:.\BLEApplication.c ****                     {
1759:.\BLEApplication.c ****                         CommandMode=AT_COMMAND_MODE;
1760:.\BLEApplication.c ****                         Buffer_Length=0;
1761:.\BLEApplication.c ****                         memset(RX_BUFFER,0,sizeof(RX_BUFFER));
1762:.\BLEApplication.c ****                         printf("+MODE=<AT_COMMAND_MODE>\r\n");
1763:.\BLEApplication.c ****                     }
1764:.\BLEApplication.c ****                 }
1765:.\BLEApplication.c ****                 else //‰ªéÊú∫Ê®°Âºè‰∏ãÈÄÄÂá∫ÈÄè‰º†Ê®°Âºè
1766:.\BLEApplication.c ****                 {
1767:.\BLEApplication.c ****                     CommandMode=AT_COMMAND_MODE;
1768:.\BLEApplication.c ****                     Buffer_Length=0;
1769:.\BLEApplication.c ****                     memset(RX_BUFFER,0,sizeof(RX_BUFFER));
1770:.\BLEApplication.c ****                     printf("+MODE=<AT_COMMAND_MODE>\r\n");
1771:.\BLEApplication.c ****                 }
1772:.\BLEApplication.c ****                 return;
1773:.\BLEApplication.c ****             }  
1774:.\BLEApplication.c ****             if(0==memcmp("AT+NOTIFY=?",uartTxData,11))//‰∏çÁÆ°‰∏ªÊú∫ËøòÊòØ‰ªéÊú∫ÔºåÂú®ÈÄè‰º†Ê®°Âºè‰
1775:.\BLEApplication.c ****             {
1776:.\BLEApplication.c ****                 Buffer_Length=0;
1777:.\BLEApplication.c ****                 memset(RX_BUFFER,0,sizeof(RX_BUFFER));
1778:.\BLEApplication.c ****                 printf("+MODE=<THROUGHT_MODE>\r\n");
1779:.\BLEApplication.c ****                 return;
1780:.\BLEApplication.c ****             }
1781:.\BLEApplication.c ****             else if(Peripheral==Role)//‰ªéÊú∫Áªô‰∏ªÊú∫ÂèëÈÄÅÈÄè‰º†Êï∞ÊçÆ
1782:.\BLEApplication.c ****             {
1783:.\BLEApplication.c ****                while(CyBle_GattGetBusStatus()!= CYBLE_STACK_STATE_FREE);//Âè™ÊúâÂΩìËìùÁâôÂçèËÆÆÊ†àÁ
1784:.\BLEApplication.c ****                 uartTxDataNtf.value.val  = uartTxData;
1785:.\BLEApplication.c ****                 uartTxDataNtf.value.len  = uartTxDataLength;
1786:.\BLEApplication.c ****                 uartTxDataNtf.attrHandle = CYBLE_TROUGHPUT_SERVICE_CUSTOM_CHARACTERISTIC_CHAR_HANDL
1787:.\BLEApplication.c **** //                #ifdef FLOW_CONTROL
1788:.\BLEApplication.c **** //                    UART_RX_INT_DISABLE();
1789:.\BLEApplication.c **** //                #endif
1790:.\BLEApplication.c ****                 do
1791:.\BLEApplication.c ****                 {
1792:.\BLEApplication.c ****                     API_RESULT = CyBle_GattsNotification(cyBle_connHandle, &uartTxDataNtf);
1793:.\BLEApplication.c ****                     CyBle_ProcessEvents();
1794:.\BLEApplication.c ****                 }
1795:.\BLEApplication.c ****                 while((CYBLE_ERROR_OK != API_RESULT)  && (CYBLE_STATE_CONNECTED == cyBle_state));
1796:.\BLEApplication.c **** //                testCount+=uartTxDataLength;
1797:.\BLEApplication.c ****             }
ARM GAS  C:\Users\Helon\AppData\Local\Temp\ccTLkFeM.s 			page 56


1798:.\BLEApplication.c ****             else////‰∏ªÊú∫Áªô‰ªéÊú∫ÂèëÈÄÅÈÄè‰º†Êï∞ÊçÆ
1799:.\BLEApplication.c ****             {
1800:.\BLEApplication.c ****                 #ifdef FLOW_CONTROL
1801:.\BLEApplication.c ****                     UART_RX_INT_DISABLE();
1802:.\BLEApplication.c ****                 #endif
1803:.\BLEApplication.c ****                 while(CyBle_GattGetBusStatus()!= CYBLE_STACK_STATE_FREE);//Âè™ÊúâÂΩìËìùÁâôÂçèËÆÆÊ†à
1804:.\BLEApplication.c ****                 SendData_toSlave(uartTxData,uartTxDataLength);
1805:.\BLEApplication.c ****             }
1806:.\BLEApplication.c ****         }
1807:.\BLEApplication.c ****         return ;
1808:.\BLEApplication.c ****     }
1809:.\BLEApplication.c ****     else if(0!=uartTxDataLength)
1810:.\BLEApplication.c ****     {   
1811:.\BLEApplication.c ****         if(KEYBOARD)
1812:.\BLEApplication.c ****         {
1813:.\BLEApplication.c ****            KEYBOARD=FALSE;
1814:.\BLEApplication.c ****         /*Set the passkey to zero before receiving New passkey */
1815:.\BLEApplication.c ****             passkey = 0u;
1816:.\BLEApplication.c ****             pow = 100000ul;
1817:.\BLEApplication.c ****             
1818:.\BLEApplication.c ****             /*Get 6 digit number from UART terminal*/
1819:.\BLEApplication.c ****             for(index = 0u; index < CYBLE_GAP_USER_PASSKEY_SIZE; index++)
1820:.\BLEApplication.c ****             {
1821:.\BLEApplication.c ****                 while((Uart_Char = UART_UartGetChar()) == 0);
1822:.\BLEApplication.c ****                 
1823:.\BLEApplication.c ****                 /* accept the digits that are in between the range '0' and '9'  */
1824:.\BLEApplication.c ****                 if((Uart_Char >= '0') && (Uart_Char <= '9'))  
1825:.\BLEApplication.c ****                 {
1826:.\BLEApplication.c ****                     passkey += (uint32)(Uart_Char - '0') * pow;
1827:.\BLEApplication.c ****                     pow /= 10u;
1828:.\BLEApplication.c **** //                    UART_UartPutChar(Uart_Char); 
1829:.\BLEApplication.c ****                 }
1830:.\BLEApplication.c ****                 else  /* If entered digit is not in between the rnage '0' and '9'*/
1831:.\BLEApplication.c ****                 {
1832:.\BLEApplication.c ****                     printf("+AUTHKEY=<INVALID>\r\n");
1833:.\BLEApplication.c ****                     break;
1834:.\BLEApplication.c ****                 }
1835:.\BLEApplication.c ****             }            
1836:.\BLEApplication.c ****             /*Send Pass key Response to to create an Authenticated Link*/
1837:.\BLEApplication.c ****             API_RESULT = CyBle_GapAuthPassKeyReply(cyBle_connHandle.bdHandle,passkey,1);         
1838:.\BLEApplication.c ****             /*Check the result of CyBle_GapAuthPassKeyReply*/
1839:.\BLEApplication.c ****             if(API_RESULT== CYBLE_ERROR_INVALID_PARAMETER)
1840:.\BLEApplication.c ****             {
1841:.\BLEApplication.c ****                 printf("CYBLE_ERROR_INVALID_PARAMETER \r\n");               
1842:.\BLEApplication.c ****             }
1843:.\BLEApplication.c ****             else if(API_RESULT==CYBLE_ERROR_MEMORY_ALLOCATION_FAILED)
1844:.\BLEApplication.c ****             {
1845:.\BLEApplication.c ****                 printf("CYBLE_ERROR_MEMORY_ALLOCATION_FAILED\r\n");
1846:.\BLEApplication.c ****             }
1847:.\BLEApplication.c ****             else if(API_RESULT==CYBLE_ERROR_NO_DEVICE_ENTITY)
1848:.\BLEApplication.c ****             {
1849:.\BLEApplication.c ****                 printf("CYBLE_ERROR_NO_DEVICE_ENTITY\r\n");
1850:.\BLEApplication.c ****             }
1851:.\BLEApplication.c ****             else if(API_RESULT==CYBLE_ERROR_OK)
1852:.\BLEApplication.c ****             {
1853:.\BLEApplication.c ****                 printf("+AUTHKEY=<SUCCESFULLY>\r\n");
1854:.\BLEApplication.c ****             }
ARM GAS  C:\Users\Helon\AppData\Local\Temp\ccTLkFeM.s 			page 57


1855:.\BLEApplication.c ****         }
1856:.\BLEApplication.c ****         else
1857:.\BLEApplication.c ****         {
1858:.\BLEApplication.c ****             Uart_Char=(uint8) UART_UartGetByte();
1859:.\BLEApplication.c ****             if('\n'!=Uart_Char)
1860:.\BLEApplication.c ****             {
1861:.\BLEApplication.c ****     //            if(CommandMode==THROUGHT_MODE)
1862:.\BLEApplication.c ****     //            {
1863:.\BLEApplication.c ****     //                RX_BUFFER[Buffer_Length]=Uart_Char-0x30;//ËØªÂèñ‰∏≤Âè£Êé•Êî∂ÁºìÂÜ≤Âå∫ÁöÑÊï∞Êç
1864:.\BLEApplication.c ****     //                Buffer_Length++;
1865:.\BLEApplication.c ****     //            }
1866:.\BLEApplication.c ****     //            else
1867:.\BLEApplication.c ****     //            {
1868:.\BLEApplication.c ****                     RX_BUFFER[Buffer_Length]=Uart_Char;//ËØªÂèñ‰∏≤Âè£Êé•Êî∂ÁºìÂÜ≤Âå∫ÁöÑÊï∞ÊçÆ
1869:.\BLEApplication.c ****                     Buffer_Length++;
1870:.\BLEApplication.c ****     //            }                
1871:.\BLEApplication.c ****             }
1872:.\BLEApplication.c ****             else
1873:.\BLEApplication.c ****             {
1874:.\BLEApplication.c ****             //‰∏≤Âè£Êé•Êî∂ÁöÑÊï∞ÊçÆÈïøÂ∫¶Ê∏ÖÈõ∂,‰ª•‰æø‰∏ã‰∏ÄÊù°ÂëΩ‰ª§ËøáÊù•Êó∂ËøòÊòØÂ≠òÊîæÂú®Êï∞ÁªÑ
1875:.\BLEApplication.c ****                 RX_BUFFER[Buffer_Length]=Uart_Char;//ËØªÂèñ‰∏≤Âè£Êé•Êî∂ÁºìÂÜ≤Âå∫ÁöÑÊï∞ÊçÆ          
1876:.\BLEApplication.c ****                 Parser_UartData((char*)RX_BUFFER);
1877:.\BLEApplication.c ****                 Buffer_Length=0;
1878:.\BLEApplication.c ****                 memset(RX_BUFFER,0,sizeof(RX_BUFFER));
1879:.\BLEApplication.c ****     //            if(CommandMode==THROUGHT_MODE)
1880:.\BLEApplication.c ****     //            {
1881:.\BLEApplication.c ****     //                
1882:.\BLEApplication.c ****     //                if(Role==Peripheral)
1883:.\BLEApplication.c ****     //                    SendNotification(RX_BUFFER,Buffer_Length+3);
1884:.\BLEApplication.c ****     //                else
1885:.\BLEApplication.c ****     //                    SendData_toSlave(RX_BUFFER,Buffer_Length);
1886:.\BLEApplication.c ****     //                //‰∏≤Âè£Êé•Êî∂ÁöÑÊï∞ÊçÆÈïøÂ∫¶Ê∏ÖÈõ∂,‰ª•‰æø‰∏ã‰∏ÄÊù°ÂëΩ‰ª§ËøáÊù•Êó∂ËøòÊòØÂ≠òÊî
1887:.\BLEApplication.c ****     //                Buffer_Length=0;
1888:.\BLEApplication.c ****     //                memset(RX_BUFFER,0,sizeof(RX_BUFFER));
1889:.\BLEApplication.c ****     //            }
1890:.\BLEApplication.c ****     //            else
1891:.\BLEApplication.c ****     //            {
1892:.\BLEApplication.c ****     //                
1893:.\BLEApplication.c ****     //            }
1894:.\BLEApplication.c ****             }
1895:.\BLEApplication.c ****         }
1896:.\BLEApplication.c ****         
1897:.\BLEApplication.c ****     }
1898:.\BLEApplication.c **** }
1899:.\BLEApplication.c **** 
1900:.\BLEApplication.c **** /******************************************************************************
1901:.\BLEApplication.c **** * Function Name: Connect_Device
1902:.\BLEApplication.c **** ***************************************************************************//**
1903:.\BLEApplication.c **** * 
1904:.\BLEApplication.c **** *  ËøûÊé•Êâ´ÊèèÂàóË°®‰∏≠ÁöÑSlaveËÆæÂ§á
1905:.\BLEApplication.c **** * \param  idx:Êâ´ÊèèÂàóË°®‰∏≠ÁöÑÁ¥¢ÂºïÂè∑
1906:.\BLEApplication.c **** * \return none
1907:.\BLEApplication.c **** *  
1908:.\BLEApplication.c **** * 
1909:.\BLEApplication.c **** ******************************************************************************/
1910:.\BLEApplication.c **** void Connect_Device(uint8_t idx)
1911:.\BLEApplication.c **** {
ARM GAS  C:\Users\Helon\AppData\Local\Temp\ccTLkFeM.s 			page 58


 1175              		.loc 1 1911 0
 1176              		.cfi_startproc
 1177              	.LVL145:
 1178 0000 30B5     		push	{r4, r5, lr}
 1179              		.cfi_def_cfa_offset 12
 1180              		.cfi_offset 4, -12
 1181              		.cfi_offset 5, -8
 1182              		.cfi_offset 14, -4
1912:.\BLEApplication.c ****     CYBLE_API_RESULT_T API_RESULT=0;
1913:.\BLEApplication.c ****     uint8_t i=0;
1914:.\BLEApplication.c ****     if(Role==Central)
 1183              		.loc 1 1914 0
 1184 0002 444C     		ldr	r4, .L126
1911:.\BLEApplication.c ****     CYBLE_API_RESULT_T API_RESULT=0;
 1185              		.loc 1 1911 0
 1186 0004 85B0     		sub	sp, sp, #20
 1187              		.cfi_def_cfa_offset 32
 1188              		.loc 1 1914 0
 1189 0006 6378     		ldrb	r3, [r4, #1]
 1190 0008 012B     		cmp	r3, #1
 1191 000a 00D0     		beq	.LCB1096
 1192 000c 7DE0     		b	.L104	@long jump
 1193              	.LCB1096:
 1194              	.LVL146:
 1195              	.LBB34:
 1196              	.LBB35:
1915:.\BLEApplication.c ****     {
1916:.\BLEApplication.c ****         switch(idx)
 1197              		.loc 1 1916 0
 1198 000e 3138     		sub	r0, r0, #49
 1199              	.LVL147:
 1200 0010 0E28     		cmp	r0, #14
 1201 0012 00D9     		bls	.LCB1104
 1202 0014 7CE0     		b	.L103	@long jump
 1203              	.LCB1104:
 1204 0016 FFF7FEFF 		bl	__gnu_thumb1_case_uqi
 1205              	.L107:
 1206 001a 08       		.byte	(.L106-.L107)/2
 1207 001b 19       		.byte	(.L108-.L107)/2
 1208 001c 2C       		.byte	(.L109-.L107)/2
 1209 001d 3D       		.byte	(.L110-.L107)/2
 1210 001e 7B       		.byte	(.L103-.L107)/2
 1211 001f 7B       		.byte	(.L103-.L107)/2
 1212 0020 7B       		.byte	(.L103-.L107)/2
 1213 0021 7B       		.byte	(.L103-.L107)/2
 1214 0022 7B       		.byte	(.L103-.L107)/2
 1215 0023 7B       		.byte	(.L103-.L107)/2
 1216 0024 7B       		.byte	(.L103-.L107)/2
 1217 0025 7B       		.byte	(.L103-.L107)/2
 1218 0026 7B       		.byte	(.L103-.L107)/2
 1219 0027 7B       		.byte	(.L103-.L107)/2
 1220 0028 59       		.byte	(.L111-.L107)/2
 1221 0029 00       		.p2align 1
 1222              	.L106:
1917:.\BLEApplication.c ****         {
1918:.\BLEApplication.c ****             case '1':
1919:.\BLEApplication.c ****                 API_RESULT=CyBle_GapcConnectDevice(&DeviceInfo[idx-1-0x30].DeviceList);
ARM GAS  C:\Users\Helon\AppData\Local\Temp\ccTLkFeM.s 			page 59


 1223              		.loc 1 1919 0
 1224 002a 3B4D     		ldr	r5, .L126+4
 1225 002c 281C     		mov	r0, r5
 1226 002e FFF7FEFF 		bl	CyBle_GapcConnectDevice
 1227              	.LVL148:
 1228 0032 021E     		sub	r2, r0, #0
 1229              	.LVL149:
1920:.\BLEApplication.c ****                 if(CYBLE_ERROR_OK!=API_RESULT)  
 1230              		.loc 1 1920 0
 1231 0034 02D0     		beq	.L112
1921:.\BLEApplication.c ****                 {
1922:.\BLEApplication.c ****                     printf("AT+ERR=<%d,0x%02X>\r\n",idx-0x30,API_RESULT);                    
 1232              		.loc 1 1922 0
 1233 0036 3948     		ldr	r0, .L126+8
 1234              	.LVL150:
 1235 0038 0121     		mov	r1, #1
 1236 003a 0FE0     		b	.L122
 1237              	.LVL151:
 1238              	.L112:
1923:.\BLEApplication.c ****                 }
1924:.\BLEApplication.c ****                 else
1925:.\BLEApplication.c ****                 {
1926:.\BLEApplication.c ****                     Conn_Or_Disconn_Info.Connected_Count++;
 1239              		.loc 1 1926 0
 1240 003c 384A     		ldr	r2, .L126+12
1927:.\BLEApplication.c ****                     Conn_Or_Disconn_Info.Connect_Idx[Conn_Or_Disconn_Info.Connected_Count-1]=idx-0x
 1241              		.loc 1 1927 0
 1242 003e 0121     		mov	r1, #1
1926:.\BLEApplication.c ****                     Conn_Or_Disconn_Info.Connect_Idx[Conn_Or_Disconn_Info.Connected_Count-1]=idx-0x
 1243              		.loc 1 1926 0
 1244 0040 137A     		ldrb	r3, [r2, #8]
 1245 0042 0133     		add	r3, r3, #1
 1246 0044 DBB2     		uxtb	r3, r3
 1247 0046 1372     		strb	r3, [r2, #8]
 1248              		.loc 1 1927 0
 1249 0048 013B     		sub	r3, r3, #1
 1250 004a 33E0     		b	.L124
 1251              	.LVL152:
 1252              	.L108:
1928:.\BLEApplication.c ****                     Conn_or_Disconn_Idx=idx-0x30;
1929:.\BLEApplication.c ****                     memcpy(Conn_Or_Disconn_Info.DeviceAddr[Conn_Or_Disconn_Info.Connected_Count-1].
1930:.\BLEApplication.c ****                            DeviceInfo[idx-1-0x30].DeviceList.bdAddr,6);  
1931:.\BLEApplication.c ****                     printf("AT+OK\r\n");
1932:.\BLEApplication.c **** //                        CyBle_GapGetPeerBdHandle(bdHandle,&DeviceInfo[idx-1-0x30].DeviceList);
1933:.\BLEApplication.c **** //                        printf("0x%02X\r\n",*bdHandle);  
1934:.\BLEApplication.c ****                 }
1935:.\BLEApplication.c ****             break;
1936:.\BLEApplication.c ****             case '2':
1937:.\BLEApplication.c ****                 API_RESULT=CyBle_GapcConnectDevice(&DeviceInfo[idx-1-0x30].DeviceList);
 1253              		.loc 1 1937 0
 1254 004c 354D     		ldr	r5, .L126+16
 1255 004e 281C     		mov	r0, r5
 1256 0050 FFF7FEFF 		bl	CyBle_GapcConnectDevice
 1257              	.LVL153:
 1258 0054 021E     		sub	r2, r0, #0
 1259              	.LVL154:
1938:.\BLEApplication.c ****                 if(CYBLE_ERROR_OK!=API_RESULT)  
ARM GAS  C:\Users\Helon\AppData\Local\Temp\ccTLkFeM.s 			page 60


 1260              		.loc 1 1938 0
 1261 0056 04D0     		beq	.L113
1939:.\BLEApplication.c ****                 {
1940:.\BLEApplication.c ****                     printf("AT+ERR=<%d,0x%02X>\r\n",idx-0x30,API_RESULT);                    
 1262              		.loc 1 1940 0
 1263 0058 0221     		mov	r1, #2
 1264 005a 3048     		ldr	r0, .L126+8
 1265              	.LVL155:
 1266              	.L122:
 1267 005c FFF7FEFF 		bl	printf
 1268              	.LVL156:
 1269 0060 56E0     		b	.L103
 1270              	.LVL157:
 1271              	.L113:
1941:.\BLEApplication.c ****                 }
1942:.\BLEApplication.c ****                 else
1943:.\BLEApplication.c ****                 {
1944:.\BLEApplication.c ****                     Conn_Or_Disconn_Info.Connected_Count++;
 1272              		.loc 1 1944 0
 1273 0062 2F4A     		ldr	r2, .L126+12
1945:.\BLEApplication.c ****                     Conn_Or_Disconn_Info.Connect_Idx[Conn_Or_Disconn_Info.Connected_Count-1]=idx-0x
 1274              		.loc 1 1945 0
 1275 0064 0221     		mov	r1, #2
1944:.\BLEApplication.c ****                     Conn_Or_Disconn_Info.Connect_Idx[Conn_Or_Disconn_Info.Connected_Count-1]=idx-0x
 1276              		.loc 1 1944 0
 1277 0066 137A     		ldrb	r3, [r2, #8]
 1278 0068 0133     		add	r3, r3, #1
 1279 006a DBB2     		uxtb	r3, r3
 1280 006c 1372     		strb	r3, [r2, #8]
 1281              		.loc 1 1945 0
 1282 006e 013B     		sub	r3, r3, #1
 1283 0070 20E0     		b	.L124
 1284              	.LVL158:
 1285              	.L109:
1946:.\BLEApplication.c ****                     Conn_or_Disconn_Idx=idx-0x30;
1947:.\BLEApplication.c ****                     memcpy(Conn_Or_Disconn_Info.DeviceAddr[Conn_Or_Disconn_Info.Connected_Count-1].
1948:.\BLEApplication.c ****                            DeviceInfo[idx-1-0x30].DeviceList.bdAddr,6);
1949:.\BLEApplication.c ****                     printf("AT+OK\r\n");
1950:.\BLEApplication.c ****                 }
1951:.\BLEApplication.c ****             break;
1952:.\BLEApplication.c ****             case '3':
1953:.\BLEApplication.c ****                 API_RESULT=CyBle_GapcConnectDevice(&DeviceInfo[idx-1-0x30].DeviceList);
 1286              		.loc 1 1953 0
 1287 0072 2D4D     		ldr	r5, .L126+20
 1288 0074 281C     		mov	r0, r5
 1289 0076 FFF7FEFF 		bl	CyBle_GapcConnectDevice
 1290              	.LVL159:
 1291 007a 021E     		sub	r2, r0, #0
 1292              	.LVL160:
1954:.\BLEApplication.c ****                 if(CYBLE_ERROR_OK!=API_RESULT)  
 1293              		.loc 1 1954 0
 1294 007c 02D0     		beq	.L114
1955:.\BLEApplication.c ****                 {
1956:.\BLEApplication.c ****                     printf("AT+ERR=<%d,0x%02X>\r\n",idx-0x30,API_RESULT);                    
 1295              		.loc 1 1956 0
 1296 007e 2748     		ldr	r0, .L126+8
 1297              	.LVL161:
ARM GAS  C:\Users\Helon\AppData\Local\Temp\ccTLkFeM.s 			page 61


 1298 0080 0321     		mov	r1, #3
 1299 0082 EBE7     		b	.L122
 1300              	.LVL162:
 1301              	.L114:
1957:.\BLEApplication.c ****                 }
1958:.\BLEApplication.c ****                 else
1959:.\BLEApplication.c ****                 {
1960:.\BLEApplication.c ****                     Conn_Or_Disconn_Info.Connected_Count++;
 1302              		.loc 1 1960 0
 1303 0084 264A     		ldr	r2, .L126+12
1961:.\BLEApplication.c ****                     Conn_Or_Disconn_Info.Connect_Idx[Conn_Or_Disconn_Info.Connected_Count-1]=idx-0x
 1304              		.loc 1 1961 0
 1305 0086 0321     		mov	r1, #3
1960:.\BLEApplication.c ****                     Conn_Or_Disconn_Info.Connect_Idx[Conn_Or_Disconn_Info.Connected_Count-1]=idx-0x
 1306              		.loc 1 1960 0
 1307 0088 137A     		ldrb	r3, [r2, #8]
 1308 008a 0133     		add	r3, r3, #1
 1309 008c DBB2     		uxtb	r3, r3
 1310 008e 1372     		strb	r3, [r2, #8]
 1311              		.loc 1 1961 0
 1312 0090 013B     		sub	r3, r3, #1
 1313 0092 0FE0     		b	.L124
 1314              	.LVL163:
 1315              	.L110:
1962:.\BLEApplication.c ****                     Conn_or_Disconn_Idx=idx-0x30;
1963:.\BLEApplication.c ****                     memcpy(Conn_Or_Disconn_Info.DeviceAddr[Conn_Or_Disconn_Info.Connected_Count-1].
1964:.\BLEApplication.c ****                            DeviceInfo[idx-1-0x30].DeviceList.bdAddr,6);
1965:.\BLEApplication.c ****                     printf("AT+OK\r\n");
1966:.\BLEApplication.c ****                 }
1967:.\BLEApplication.c ****             break;
1968:.\BLEApplication.c ****             case '4':
1969:.\BLEApplication.c ****                 API_RESULT=CyBle_GapcConnectDevice(&DeviceInfo[idx-1-0x30].DeviceList);
 1316              		.loc 1 1969 0
 1317 0094 254D     		ldr	r5, .L126+24
 1318 0096 281C     		mov	r0, r5
 1319 0098 FFF7FEFF 		bl	CyBle_GapcConnectDevice
 1320              	.LVL164:
 1321 009c 021E     		sub	r2, r0, #0
 1322              	.LVL165:
1970:.\BLEApplication.c ****                 if(CYBLE_ERROR_OK!=API_RESULT)  
 1323              		.loc 1 1970 0
 1324 009e 02D0     		beq	.L115
1971:.\BLEApplication.c ****                 {
1972:.\BLEApplication.c ****                     printf("AT+ERR=<%d,0x%02X>\r\n",idx-0x30,API_RESULT);                    
 1325              		.loc 1 1972 0
 1326 00a0 1E48     		ldr	r0, .L126+8
 1327              	.LVL166:
 1328 00a2 0421     		mov	r1, #4
 1329 00a4 DAE7     		b	.L122
 1330              	.LVL167:
 1331              	.L115:
1973:.\BLEApplication.c ****                 }
1974:.\BLEApplication.c ****                 else
1975:.\BLEApplication.c ****                 {
1976:.\BLEApplication.c ****                     Conn_Or_Disconn_Info.Connected_Count++;
1977:.\BLEApplication.c ****                     Conn_Or_Disconn_Info.Connect_Idx[Conn_Or_Disconn_Info.Connected_Count-1]=idx-0x
 1332              		.loc 1 1977 0
ARM GAS  C:\Users\Helon\AppData\Local\Temp\ccTLkFeM.s 			page 62


 1333 00a6 0421     		mov	r1, #4
1976:.\BLEApplication.c ****                     Conn_Or_Disconn_Info.Connect_Idx[Conn_Or_Disconn_Info.Connected_Count-1]=idx-0x
 1334              		.loc 1 1976 0
 1335 00a8 1D4A     		ldr	r2, .L126+12
 1336 00aa 137A     		ldrb	r3, [r2, #8]
 1337 00ac 0133     		add	r3, r3, #1
 1338 00ae DBB2     		uxtb	r3, r3
 1339 00b0 1372     		strb	r3, [r2, #8]
 1340              		.loc 1 1977 0
 1341 00b2 013B     		sub	r3, r3, #1
 1342              	.L124:
1978:.\BLEApplication.c ****                     Conn_or_Disconn_Idx=idx-0x30;
1979:.\BLEApplication.c ****                     memcpy(Conn_Or_Disconn_Info.DeviceAddr[Conn_Or_Disconn_Info.Connected_Count-1].
 1343              		.loc 1 1979 0
 1344 00b4 0720     		mov	r0, #7
 1345              	.LVL168:
1977:.\BLEApplication.c ****                     Conn_or_Disconn_Idx=idx-0x30;
 1346              		.loc 1 1977 0
 1347 00b6 D154     		strb	r1, [r2, r3]
 1348              		.loc 1 1979 0
 1349 00b8 4343     		mul	r3, r0
 1350 00ba D018     		add	r0, r2, r3
1978:.\BLEApplication.c ****                     Conn_or_Disconn_Idx=idx-0x30;
 1351              		.loc 1 1978 0
 1352 00bc A170     		strb	r1, [r4, #2]
 1353              		.loc 1 1979 0
 1354 00be 0930     		add	r0, r0, #9
 1355 00c0 291C     		mov	r1, r5
 1356 00c2 0622     		mov	r2, #6
 1357 00c4 FFF7FEFF 		bl	memcpy
 1358              	.LVL169:
1980:.\BLEApplication.c ****                            DeviceInfo[idx-1-0x30].DeviceList.bdAddr,6);
1981:.\BLEApplication.c ****                     printf("AT+OK\r\n");
 1359              		.loc 1 1981 0
 1360 00c8 1948     		ldr	r0, .L126+28
 1361 00ca 1FE0     		b	.L123
 1362              	.L111:
1982:.\BLEApplication.c ****                 }
1983:.\BLEApplication.c ****             break;
1984:.\BLEApplication.c ****             case '?':
1985:.\BLEApplication.c ****                 if(CYBLE_STATE_CONNECTED==CyBle_GetState())
 1363              		.loc 1 1985 0
 1364 00cc 194B     		ldr	r3, .L126+32
 1365 00ce 0024     		mov	r4, #0
 1366 00d0 1B78     		ldrb	r3, [r3]
 1367 00d2 022B     		cmp	r3, #2
 1368 00d4 17D1     		bne	.L125
 1369              	.L116:
 1370              	.LVL170:
1986:.\BLEApplication.c ****                 {
1987:.\BLEApplication.c ****                     for(i=0;i<Conn_Or_Disconn_Info.Connected_Count;i++)
 1371              		.loc 1 1987 0
 1372 00d6 124B     		ldr	r3, .L126+12
 1373 00d8 1A7A     		ldrb	r2, [r3, #8]
 1374 00da A242     		cmp	r2, r4
 1375 00dc 18D9     		bls	.L103
1988:.\BLEApplication.c ****                     {
ARM GAS  C:\Users\Helon\AppData\Local\Temp\ccTLkFeM.s 			page 63


1989:.\BLEApplication.c ****                         printf("+INQ_CONN:<%d,0x%02X%02X%02X%02X%02X%02X>\r\n",
1990:.\BLEApplication.c ****                         Conn_Or_Disconn_Info.Connect_Idx[i],
1991:.\BLEApplication.c ****                         Conn_Or_Disconn_Info.DeviceAddr[i].bdAddr[5],
 1376              		.loc 1 1991 0
 1377 00de 0720     		mov	r0, #7
 1378 00e0 6043     		mul	r0, r4
 1379 00e2 1818     		add	r0, r3, r0
1989:.\BLEApplication.c ****                         Conn_Or_Disconn_Info.Connect_Idx[i],
 1380              		.loc 1 1989 0
 1381 00e4 057B     		ldrb	r5, [r0, #12]
 1382 00e6 195D     		ldrb	r1, [r3, r4]
 1383 00e8 827B     		ldrb	r2, [r0, #14]
 1384 00ea 437B     		ldrb	r3, [r0, #13]
 1385 00ec 0095     		str	r5, [sp]
 1386 00ee C57A     		ldrb	r5, [r0, #11]
1987:.\BLEApplication.c ****                     {
 1387              		.loc 1 1987 0
 1388 00f0 0134     		add	r4, r4, #1
 1389              	.LVL171:
1989:.\BLEApplication.c ****                         Conn_Or_Disconn_Info.Connect_Idx[i],
 1390              		.loc 1 1989 0
 1391 00f2 0195     		str	r5, [sp, #4]
 1392 00f4 857A     		ldrb	r5, [r0, #10]
1987:.\BLEApplication.c ****                     {
 1393              		.loc 1 1987 0
 1394 00f6 E4B2     		uxtb	r4, r4
1989:.\BLEApplication.c ****                         Conn_Or_Disconn_Info.Connect_Idx[i],
 1395              		.loc 1 1989 0
 1396 00f8 0295     		str	r5, [sp, #8]
 1397 00fa 407A     		ldrb	r0, [r0, #9]
 1398 00fc 0390     		str	r0, [sp, #12]
 1399 00fe 0E48     		ldr	r0, .L126+36
 1400 0100 FFF7FEFF 		bl	printf
 1401              	.LVL172:
 1402 0104 E7E7     		b	.L116
 1403              	.LVL173:
 1404              	.L125:
1992:.\BLEApplication.c ****                         Conn_Or_Disconn_Info.DeviceAddr[i].bdAddr[4],
1993:.\BLEApplication.c ****                         Conn_Or_Disconn_Info.DeviceAddr[i].bdAddr[3],
1994:.\BLEApplication.c ****                         Conn_Or_Disconn_Info.DeviceAddr[i].bdAddr[2],
1995:.\BLEApplication.c ****                         Conn_Or_Disconn_Info.DeviceAddr[i].bdAddr[1],
1996:.\BLEApplication.c ****                         Conn_Or_Disconn_Info.DeviceAddr[i].bdAddr[0]
1997:.\BLEApplication.c ****                       );
1998:.\BLEApplication.c ****                     }
1999:.\BLEApplication.c ****                 }
2000:.\BLEApplication.c ****                 else
2001:.\BLEApplication.c ****                 {
2002:.\BLEApplication.c ****                     printf("AT+ERR=3\r\n");//Ë°®Á§∫ÂΩìÂâçÁä∂ÊÄÅ‰∏çÊîØÊåÅËØ•ÂëΩ‰ª§
 1405              		.loc 1 2002 0
 1406 0106 0D48     		ldr	r0, .L126+40
 1407 0108 00E0     		b	.L123
 1408              	.LVL174:
 1409              	.L104:
 1410              	.LBE35:
 1411              	.LBE34:
2003:.\BLEApplication.c ****                 }
2004:.\BLEApplication.c ****                 
ARM GAS  C:\Users\Helon\AppData\Local\Temp\ccTLkFeM.s 			page 64


2005:.\BLEApplication.c ****             break;
2006:.\BLEApplication.c ****         }
2007:.\BLEApplication.c ****     }
2008:.\BLEApplication.c ****     else
2009:.\BLEApplication.c ****     {
2010:.\BLEApplication.c ****         printf("AT+ERR=4\r\n");//Ë°®Á§∫ÂΩìÂâçËßíËâ≤‰∏çÊîØÊåÅËØ•ÂëΩ‰ª§ 
 1412              		.loc 1 2010 0
 1413 010a 0D48     		ldr	r0, .L126+44
 1414              	.LVL175:
 1415              	.L123:
 1416 010c FFF7FEFF 		bl	puts
 1417              	.LVL176:
 1418              	.L103:
2011:.\BLEApplication.c ****     }
2012:.\BLEApplication.c **** }
 1419              		.loc 1 2012 0
 1420 0110 05B0     		add	sp, sp, #20
 1421              		@ sp needed
 1422 0112 30BD     		pop	{r4, r5, pc}
 1423              	.L127:
 1424              		.align	2
 1425              	.L126:
 1426 0114 00000000 		.word	.LANCHOR0
 1427 0118 00000000 		.word	DeviceInfo
 1428 011c 5A010000 		.word	.LC63
 1429 0120 00000000 		.word	Conn_Or_Disconn_Info
 1430 0124 1E000000 		.word	DeviceInfo+30
 1431 0128 3C000000 		.word	DeviceInfo+60
 1432 012c 5A000000 		.word	DeviceInfo+90
 1433 0130 6F010000 		.word	.LC66
 1434 0134 00000000 		.word	cyBle_state
 1435 0138 76010000 		.word	.LC72
 1436 013c A2010000 		.word	.LC74
 1437 0140 AC010000 		.word	.LC76
 1438              		.cfi_endproc
 1439              	.LFE49:
 1440              		.size	Connect_Device, .-Connect_Device
 1441              		.section	.text.UartBuadRate_Handler,"ax",%progbits
 1442              		.align	1
 1443              		.global	UartBuadRate_Handler
 1444              		.code	16
 1445              		.thumb_func
 1446              		.type	UartBuadRate_Handler, %function
 1447              	UartBuadRate_Handler:
 1448              	.LFB50:
2013:.\BLEApplication.c **** /******************************************************************************
2014:.\BLEApplication.c **** * Function Name: UartBuadRate_Handler
2015:.\BLEApplication.c **** ***************************************************************************//**
2016:.\BLEApplication.c **** * 
2017:.\BLEApplication.c **** *  ËÆæÂ§á‰∏≤Âè£Ê≥¢ÁâπÁéáÊàñËÄÖÊü•ËØ¢ÂΩìÂâçÁöÑ‰∏≤Âè£Ê≥¢ÁâπÁéá
2018:.\BLEApplication.c **** * \param  idx:ËÆæÁΩÆÁöÑÊ≥¢ÁâπÁéáÂÄºÊàñÊü•ËØ¢Ê≥¢ÁâπÁéáÁöÑÁä∂ÊÄÅ
2019:.\BLEApplication.c **** * \return none
2020:.\BLEApplication.c **** *  
2021:.\BLEApplication.c **** * 
2022:.\BLEApplication.c **** ******************************************************************************/
2023:.\BLEApplication.c **** void UartBuadRate_Handler(uint8_t idx)
2024:.\BLEApplication.c **** {
ARM GAS  C:\Users\Helon\AppData\Local\Temp\ccTLkFeM.s 			page 65


 1449              		.loc 1 2024 0
 1450              		.cfi_startproc
 1451              	.LVL177:
 1452 0000 70B5     		push	{r4, r5, r6, lr}
 1453              		.cfi_def_cfa_offset 16
 1454              		.cfi_offset 4, -16
 1455              		.cfi_offset 5, -12
 1456              		.cfi_offset 6, -8
 1457              		.cfi_offset 14, -4
 1458              		.loc 1 2024 0
 1459 0002 041E     		sub	r4, r0, #0
2025:.\BLEApplication.c ****     switch(idx)
 1460              		.loc 1 2025 0
 1461 0004 362C     		cmp	r4, #54
 1462 0006 00D1     		bne	.LCB1342
 1463 0008 8AE0     		b	.L130	@long jump
 1464              	.LCB1342:
 1465 000a 3628     		cmp	r0, #54
 1466 000c 1AD8     		bhi	.L131
 1467 000e 3228     		cmp	r0, #50
 1468 0010 4FD0     		beq	.L132
 1469 0012 0BD8     		bhi	.L133
 1470 0014 3028     		cmp	r0, #48
 1471 0016 2FD0     		beq	.L134
 1472 0018 3128     		cmp	r0, #49
 1473 001a 00D0     		beq	.LCB1352
 1474 001c A7E1     		b	.L128	@long jump
 1475              	.LCB1352:
2026:.\BLEApplication.c ****     {
2027:.\BLEApplication.c **** //                1200
2028:.\BLEApplication.c ****         case '0':                     
2029:.\BLEApplication.c ****              printf("AT+BAUD=<1200>\r\n");
2030:.\BLEApplication.c ****              printf("OK\r\n");
2031:.\BLEApplication.c ****              while((UART_SpiUartGetTxBufferSize() + UART_GET_TX_FIFO_SR_VALID) != 0);//Á≠âÂæÖ‰∏≤Âè£
2032:.\BLEApplication.c ****              SetUartConfiguration(BAUD_1200);
2033:.\BLEApplication.c ****              Baud_rate_idx=idx;
2034:.\BLEApplication.c ****         break;
2035:.\BLEApplication.c **** //                2400
2036:.\BLEApplication.c ****         case '1':
2037:.\BLEApplication.c ****              printf("AT+BAUD=<2400>\r\n");
 1476              		.loc 1 2037 0
 1477 001e B648     		ldr	r0, .L197
 1478              	.LVL178:
 1479 0020 FFF7FEFF 		bl	puts
 1480              	.LVL179:
2038:.\BLEApplication.c ****              printf("OK\r\n");
 1481              		.loc 1 2038 0
 1482 0024 B548     		ldr	r0, .L197+4
 1483 0026 FFF7FEFF 		bl	puts
 1484              	.LVL180:
2039:.\BLEApplication.c ****              while((UART_SpiUartGetTxBufferSize() + UART_GET_TX_FIFO_SR_VALID) != 0);//Á≠âÂæÖ‰∏≤Âè£
 1485              		.loc 1 2039 0
 1486 002a 35E0     		b	.L146
 1487              	.LVL181:
 1488              	.L133:
 1489 002c B34E     		ldr	r6, .L197+4
 1490 002e B44D     		ldr	r5, .L197+8
ARM GAS  C:\Users\Helon\AppData\Local\Temp\ccTLkFeM.s 			page 66


2025:.\BLEApplication.c ****     {
 1491              		.loc 1 2025 0
 1492 0030 3428     		cmp	r0, #52
 1493 0032 57D0     		beq	.L136
 1494 0034 65D8     		bhi	.L196
2040:.\BLEApplication.c ****              SetUartConfiguration(BAUD_2400);
2041:.\BLEApplication.c ****              Baud_rate_idx=idx;
2042:.\BLEApplication.c ****         break;
2043:.\BLEApplication.c **** //                4800
2044:.\BLEApplication.c ****         case '2':
2045:.\BLEApplication.c ****              printf("AT+BAUD=<4800>\r\n");
2046:.\BLEApplication.c ****              printf("OK\r\n");
2047:.\BLEApplication.c ****              while((UART_SpiUartGetTxBufferSize() + UART_GET_TX_FIFO_SR_VALID) != 0);//Á≠âÂæÖ‰∏≤Âè£
2048:.\BLEApplication.c ****              SetUartConfiguration(BAUD_4800);
2049:.\BLEApplication.c ****              Baud_rate_idx=idx;
2050:.\BLEApplication.c ****         break;
2051:.\BLEApplication.c **** //                9600
2052:.\BLEApplication.c ****         case '3':
2053:.\BLEApplication.c ****              printf("AT+BAUD=<9600>\r\n");
 1495              		.loc 1 2053 0
 1496 0036 B348     		ldr	r0, .L197+12
 1497              	.LVL182:
 1498 0038 FFF7FEFF 		bl	puts
 1499              	.LVL183:
2054:.\BLEApplication.c ****              printf("OK\r\n");
 1500              		.loc 1 2054 0
 1501 003c 301C     		mov	r0, r6
 1502 003e FFF7FEFF 		bl	puts
 1503              	.LVL184:
2055:.\BLEApplication.c ****              while((UART_SpiUartGetTxBufferSize() + UART_GET_TX_FIFO_SR_VALID) != 0);//Á≠âÂæÖ‰∏≤Âè£
 1504              		.loc 1 2055 0
 1505 0042 46E0     		b	.L148
 1506              	.LVL185:
 1507              	.L131:
2025:.\BLEApplication.c ****     {
 1508              		.loc 1 2025 0
 1509 0044 3928     		cmp	r0, #57
 1510 0046 00D1     		bne	.LCB1384
 1511 0048 94E0     		b	.L139	@long jump
 1512              	.LCB1384:
 1513 004a 0BD8     		bhi	.L140
 1514 004c 3728     		cmp	r0, #55
 1515 004e 77D0     		beq	.L141
 1516 0050 3828     		cmp	r0, #56
 1517 0052 00D0     		beq	.LCB1390
 1518 0054 8BE1     		b	.L128	@long jump
 1519              	.LCB1390:
2056:.\BLEApplication.c ****              SetUartConfiguration(BAUD_9600);
2057:.\BLEApplication.c ****              Baud_rate_idx=idx;
2058:.\BLEApplication.c ****         break;
2059:.\BLEApplication.c ****         case '4':
2060:.\BLEApplication.c ****              printf("AT+BAUD=<19200>\r\n");
2061:.\BLEApplication.c ****              printf("OK\r\n");
2062:.\BLEApplication.c ****              while((UART_SpiUartGetTxBufferSize() + UART_GET_TX_FIFO_SR_VALID) != 0);//Á≠âÂæÖ‰∏≤Âè£
2063:.\BLEApplication.c ****              SetUartConfiguration(BAUD_19200);
2064:.\BLEApplication.c ****              Baud_rate_idx=idx;
2065:.\BLEApplication.c ****         break;
ARM GAS  C:\Users\Helon\AppData\Local\Temp\ccTLkFeM.s 			page 67


2066:.\BLEApplication.c ****         case '5':
2067:.\BLEApplication.c ****              printf("AT+BAUD=<38400>\r\n");
2068:.\BLEApplication.c ****              printf("OK\r\n");
2069:.\BLEApplication.c ****              while((UART_SpiUartGetTxBufferSize() + UART_GET_TX_FIFO_SR_VALID) != 0);//Á≠âÂæÖ‰∏≤Âè£
2070:.\BLEApplication.c ****              SetUartConfiguration(BAUD_38400);
2071:.\BLEApplication.c ****              Baud_rate_idx=idx;
2072:.\BLEApplication.c ****         break;
2073:.\BLEApplication.c **** //                57600
2074:.\BLEApplication.c ****         case '6':
2075:.\BLEApplication.c ****              printf("AT+BAUD=<57600>\r\n");
2076:.\BLEApplication.c ****              printf("OK\r\n");
2077:.\BLEApplication.c ****              while((UART_SpiUartGetTxBufferSize() + UART_GET_TX_FIFO_SR_VALID) != 0);//Á≠âÂæÖ‰∏≤Âè£
2078:.\BLEApplication.c ****              SetUartConfiguration(BAUD_57600);
2079:.\BLEApplication.c ****              Baud_rate_idx=idx;
2080:.\BLEApplication.c ****         break;
2081:.\BLEApplication.c ****         case '7':
2082:.\BLEApplication.c ****              printf("AT+BAUD=<115200>\r\n");
2083:.\BLEApplication.c ****              printf("OK\r\n");
2084:.\BLEApplication.c ****              while((UART_SpiUartGetTxBufferSize() + UART_GET_TX_FIFO_SR_VALID) != 0);//Á≠âÂæÖ‰∏≤Âè£
2085:.\BLEApplication.c ****              SetUartConfiguration(BAUD_115200);
2086:.\BLEApplication.c ****              Baud_rate_idx=idx;
2087:.\BLEApplication.c ****         break;
2088:.\BLEApplication.c ****         case '8':
2089:.\BLEApplication.c ****              printf("AT+BAUD=<230400>\r\n");
 1520              		.loc 1 2089 0
 1521 0056 AC48     		ldr	r0, .L197+16
 1522              	.LVL186:
 1523 0058 FFF7FEFF 		bl	puts
 1524              	.LVL187:
2090:.\BLEApplication.c ****              printf("OK\r\n");
 1525              		.loc 1 2090 0
 1526 005c A748     		ldr	r0, .L197+4
 1527 005e FFF7FEFF 		bl	puts
 1528              	.LVL188:
2091:.\BLEApplication.c ****              while((UART_SpiUartGetTxBufferSize() + UART_GET_TX_FIFO_SR_VALID) != 0);//Á≠âÂæÖ‰∏≤Âè£
 1529              		.loc 1 2091 0
 1530 0062 7DE0     		b	.L153
 1531              	.LVL189:
 1532              	.L140:
2025:.\BLEApplication.c ****     {
 1533              		.loc 1 2025 0
 1534 0064 4128     		cmp	r0, #65
 1535 0066 00D1     		bne	.LCB1404
 1536 0068 94E0     		b	.L143	@long jump
 1537              	.LCB1404:
 1538 006a 6128     		cmp	r0, #97
 1539 006c 00D1     		bne	.LCB1406
 1540 006e 91E0     		b	.L143	@long jump
 1541              	.LCB1406:
 1542 0070 3F28     		cmp	r0, #63
 1543 0072 00D1     		bne	.LCB1408
 1544 0074 A0E0     		b	.L144	@long jump
 1545              	.LCB1408:
 1546 0076 7AE1     		b	.L128
 1547              	.L134:
2029:.\BLEApplication.c ****              printf("OK\r\n");
 1548              		.loc 1 2029 0
ARM GAS  C:\Users\Helon\AppData\Local\Temp\ccTLkFeM.s 			page 68


 1549 0078 A448     		ldr	r0, .L197+20
 1550              	.LVL190:
 1551 007a FFF7FEFF 		bl	puts
 1552              	.LVL191:
2030:.\BLEApplication.c ****              while((UART_SpiUartGetTxBufferSize() + UART_GET_TX_FIFO_SR_VALID) != 0);//Á≠âÂæÖ‰∏≤Âè£
 1553              		.loc 1 2030 0
 1554 007e 9F48     		ldr	r0, .L197+4
 1555 0080 FFF7FEFF 		bl	puts
 1556              	.LVL192:
 1557              	.L145:
2031:.\BLEApplication.c ****              SetUartConfiguration(BAUD_1200);
 1558              		.loc 1 2031 0 discriminator 5
 1559 0084 FFF7FEFF 		bl	UART_SpiUartGetTxBufferSize
 1560              	.LVL193:
 1561 0088 9D4B     		ldr	r3, .L197+8
 1562 008a 1B68     		ldr	r3, [r3]
 1563 008c 1B04     		lsl	r3, r3, #16
 1564 008e DB17     		asr	r3, r3, #31
 1565 0090 8342     		cmp	r3, r0
 1566 0092 F7D1     		bne	.L145
 1567              	.LVL194:
2033:.\BLEApplication.c ****         break;
 1568              		.loc 1 2033 0
 1569 0094 3022     		mov	r2, #48
 1570 0096 08E0     		b	.L195
 1571              	.LVL195:
 1572              	.L146:
2039:.\BLEApplication.c ****              SetUartConfiguration(BAUD_2400);
 1573              		.loc 1 2039 0 discriminator 5
 1574 0098 FFF7FEFF 		bl	UART_SpiUartGetTxBufferSize
 1575              	.LVL196:
 1576 009c 984B     		ldr	r3, .L197+8
 1577 009e 1B68     		ldr	r3, [r3]
 1578 00a0 1B04     		lsl	r3, r3, #16
 1579 00a2 DB17     		asr	r3, r3, #31
 1580 00a4 8342     		cmp	r3, r0
 1581 00a6 F7D1     		bne	.L146
 1582              	.LVL197:
2041:.\BLEApplication.c ****         break;
 1583              		.loc 1 2041 0
 1584 00a8 3122     		mov	r2, #49
 1585              	.LVL198:
 1586              	.L195:
 1587 00aa 994B     		ldr	r3, .L197+24
 1588 00ac 7C33     		add	r3, r3, #124
 1589 00ae 1A70     		strb	r2, [r3]
2042:.\BLEApplication.c **** //                4800
 1590              		.loc 1 2042 0
 1591 00b0 5DE1     		b	.L128
 1592              	.LVL199:
 1593              	.L132:
2045:.\BLEApplication.c ****              printf("OK\r\n");
 1594              		.loc 1 2045 0
 1595 00b2 9848     		ldr	r0, .L197+28
 1596              	.LVL200:
 1597 00b4 FFF7FEFF 		bl	puts
 1598              	.LVL201:
ARM GAS  C:\Users\Helon\AppData\Local\Temp\ccTLkFeM.s 			page 69


2046:.\BLEApplication.c ****              while((UART_SpiUartGetTxBufferSize() + UART_GET_TX_FIFO_SR_VALID) != 0);//Á≠âÂæÖ‰∏≤Âè£
 1599              		.loc 1 2046 0
 1600 00b8 9048     		ldr	r0, .L197+4
 1601 00ba FFF7FEFF 		bl	puts
 1602              	.LVL202:
 1603              	.L147:
2047:.\BLEApplication.c ****              SetUartConfiguration(BAUD_4800);
 1604              		.loc 1 2047 0 discriminator 5
 1605 00be FFF7FEFF 		bl	UART_SpiUartGetTxBufferSize
 1606              	.LVL203:
 1607 00c2 8F4B     		ldr	r3, .L197+8
 1608 00c4 1B68     		ldr	r3, [r3]
 1609 00c6 1B04     		lsl	r3, r3, #16
 1610 00c8 DB17     		asr	r3, r3, #31
 1611 00ca 8342     		cmp	r3, r0
 1612 00cc F7D1     		bne	.L147
 1613              	.LVL204:
2049:.\BLEApplication.c ****         break;
 1614              		.loc 1 2049 0
 1615 00ce 3222     		mov	r2, #50
 1616 00d0 EBE7     		b	.L195
 1617              	.LVL205:
 1618              	.L148:
2055:.\BLEApplication.c ****              SetUartConfiguration(BAUD_9600);
 1619              		.loc 1 2055 0 discriminator 5
 1620 00d2 FFF7FEFF 		bl	UART_SpiUartGetTxBufferSize
 1621              	.LVL206:
 1622 00d6 2B68     		ldr	r3, [r5]
 1623 00d8 1B04     		lsl	r3, r3, #16
 1624 00da DB17     		asr	r3, r3, #31
 1625 00dc 8342     		cmp	r3, r0
 1626 00de F8D1     		bne	.L148
 1627              	.LVL207:
2057:.\BLEApplication.c ****         break;
 1628              		.loc 1 2057 0
 1629 00e0 3322     		mov	r2, #51
 1630 00e2 E2E7     		b	.L195
 1631              	.LVL208:
 1632              	.L136:
2060:.\BLEApplication.c ****              printf("OK\r\n");
 1633              		.loc 1 2060 0
 1634 00e4 8C48     		ldr	r0, .L197+32
 1635              	.LVL209:
 1636 00e6 FFF7FEFF 		bl	puts
 1637              	.LVL210:
2061:.\BLEApplication.c ****              while((UART_SpiUartGetTxBufferSize() + UART_GET_TX_FIFO_SR_VALID) != 0);//Á≠âÂæÖ‰∏≤Âè£
 1638              		.loc 1 2061 0
 1639 00ea 301C     		mov	r0, r6
 1640 00ec FFF7FEFF 		bl	puts
 1641              	.LVL211:
 1642              	.L149:
2062:.\BLEApplication.c ****              SetUartConfiguration(BAUD_19200);
 1643              		.loc 1 2062 0 discriminator 5
 1644 00f0 FFF7FEFF 		bl	UART_SpiUartGetTxBufferSize
 1645              	.LVL212:
 1646 00f4 2B68     		ldr	r3, [r5]
 1647 00f6 1B04     		lsl	r3, r3, #16
ARM GAS  C:\Users\Helon\AppData\Local\Temp\ccTLkFeM.s 			page 70


 1648 00f8 DB17     		asr	r3, r3, #31
 1649 00fa 8342     		cmp	r3, r0
 1650 00fc F8D1     		bne	.L149
 1651              	.LVL213:
2064:.\BLEApplication.c ****         break;
 1652              		.loc 1 2064 0
 1653 00fe 3422     		mov	r2, #52
 1654 0100 D3E7     		b	.L195
 1655              	.LVL214:
 1656              	.L196:
2067:.\BLEApplication.c ****              printf("OK\r\n");
 1657              		.loc 1 2067 0
 1658 0102 8648     		ldr	r0, .L197+36
 1659              	.LVL215:
 1660 0104 FFF7FEFF 		bl	puts
 1661              	.LVL216:
2068:.\BLEApplication.c ****              while((UART_SpiUartGetTxBufferSize() + UART_GET_TX_FIFO_SR_VALID) != 0);//Á≠âÂæÖ‰∏≤Âè£
 1662              		.loc 1 2068 0
 1663 0108 301C     		mov	r0, r6
 1664 010a FFF7FEFF 		bl	puts
 1665              	.LVL217:
 1666              	.L150:
2069:.\BLEApplication.c ****              SetUartConfiguration(BAUD_38400);
 1667              		.loc 1 2069 0 discriminator 5
 1668 010e FFF7FEFF 		bl	UART_SpiUartGetTxBufferSize
 1669              	.LVL218:
 1670 0112 2B68     		ldr	r3, [r5]
 1671 0114 1B04     		lsl	r3, r3, #16
 1672 0116 DB17     		asr	r3, r3, #31
 1673 0118 8342     		cmp	r3, r0
 1674 011a F8D1     		bne	.L150
 1675              	.LVL219:
2071:.\BLEApplication.c ****         break;
 1676              		.loc 1 2071 0
 1677 011c 3522     		mov	r2, #53
 1678 011e C4E7     		b	.L195
 1679              	.LVL220:
 1680              	.L130:
2075:.\BLEApplication.c ****              printf("OK\r\n");
 1681              		.loc 1 2075 0
 1682 0120 7F48     		ldr	r0, .L197+40
 1683              	.LVL221:
 1684 0122 FFF7FEFF 		bl	puts
 1685              	.LVL222:
2076:.\BLEApplication.c ****              while((UART_SpiUartGetTxBufferSize() + UART_GET_TX_FIFO_SR_VALID) != 0);//Á≠âÂæÖ‰∏≤Âè£
 1686              		.loc 1 2076 0
 1687 0126 7548     		ldr	r0, .L197+4
 1688 0128 FFF7FEFF 		bl	puts
 1689              	.LVL223:
 1690              	.L151:
2077:.\BLEApplication.c ****              SetUartConfiguration(BAUD_57600);
 1691              		.loc 1 2077 0 discriminator 5
 1692 012c FFF7FEFF 		bl	UART_SpiUartGetTxBufferSize
 1693              	.LVL224:
 1694 0130 734B     		ldr	r3, .L197+8
 1695 0132 1B68     		ldr	r3, [r3]
 1696 0134 1B04     		lsl	r3, r3, #16
ARM GAS  C:\Users\Helon\AppData\Local\Temp\ccTLkFeM.s 			page 71


 1697 0136 DB17     		asr	r3, r3, #31
 1698 0138 8342     		cmp	r3, r0
 1699 013a F7D1     		bne	.L151
 1700              	.LVL225:
2079:.\BLEApplication.c ****         break;
 1701              		.loc 1 2079 0
 1702 013c 3622     		mov	r2, #54
 1703 013e B4E7     		b	.L195
 1704              	.LVL226:
 1705              	.L141:
2082:.\BLEApplication.c ****              printf("OK\r\n");
 1706              		.loc 1 2082 0
 1707 0140 7848     		ldr	r0, .L197+44
 1708              	.LVL227:
 1709 0142 FFF7FEFF 		bl	puts
 1710              	.LVL228:
2083:.\BLEApplication.c ****              while((UART_SpiUartGetTxBufferSize() + UART_GET_TX_FIFO_SR_VALID) != 0);//Á≠âÂæÖ‰∏≤Âè£
 1711              		.loc 1 2083 0
 1712 0146 6D48     		ldr	r0, .L197+4
 1713 0148 FFF7FEFF 		bl	puts
 1714              	.LVL229:
 1715              	.L152:
2084:.\BLEApplication.c ****              SetUartConfiguration(BAUD_115200);
 1716              		.loc 1 2084 0 discriminator 5
 1717 014c FFF7FEFF 		bl	UART_SpiUartGetTxBufferSize
 1718              	.LVL230:
 1719 0150 6B4B     		ldr	r3, .L197+8
 1720 0152 1B68     		ldr	r3, [r3]
 1721 0154 1B04     		lsl	r3, r3, #16
 1722 0156 DB17     		asr	r3, r3, #31
 1723 0158 8342     		cmp	r3, r0
 1724 015a F7D1     		bne	.L152
 1725              	.LVL231:
2086:.\BLEApplication.c ****         break;
 1726              		.loc 1 2086 0
 1727 015c 3722     		mov	r2, #55
 1728 015e A4E7     		b	.L195
 1729              	.LVL232:
 1730              	.L153:
 1731              		.loc 1 2091 0 discriminator 5
 1732 0160 FFF7FEFF 		bl	UART_SpiUartGetTxBufferSize
 1733              	.LVL233:
 1734 0164 664B     		ldr	r3, .L197+8
 1735 0166 1B68     		ldr	r3, [r3]
 1736 0168 1B04     		lsl	r3, r3, #16
 1737 016a DB17     		asr	r3, r3, #31
 1738 016c 8342     		cmp	r3, r0
 1739 016e F7D1     		bne	.L153
 1740              	.LVL234:
2092:.\BLEApplication.c ****              SetUartConfiguration(BAUD_230400);
2093:.\BLEApplication.c ****              Baud_rate_idx=idx;
 1741              		.loc 1 2093 0
 1742 0170 3822     		mov	r2, #56
 1743 0172 9AE7     		b	.L195
 1744              	.LVL235:
 1745              	.L139:
2094:.\BLEApplication.c ****         break;
ARM GAS  C:\Users\Helon\AppData\Local\Temp\ccTLkFeM.s 			page 72


2095:.\BLEApplication.c ****         case '9':
2096:.\BLEApplication.c ****              printf("AT+BAUD=<460800>\r\n");
 1746              		.loc 1 2096 0
 1747 0174 6C48     		ldr	r0, .L197+48
 1748              	.LVL236:
 1749 0176 FFF7FEFF 		bl	puts
 1750              	.LVL237:
2097:.\BLEApplication.c ****              printf("OK\r\n");
 1751              		.loc 1 2097 0
 1752 017a 6048     		ldr	r0, .L197+4
 1753 017c FFF7FEFF 		bl	puts
 1754              	.LVL238:
 1755              	.L154:
2098:.\BLEApplication.c ****              while((UART_SpiUartGetTxBufferSize() + UART_GET_TX_FIFO_SR_VALID) != 0);//Á≠âÂæÖ‰∏≤Âè£
 1756              		.loc 1 2098 0 discriminator 5
 1757 0180 FFF7FEFF 		bl	UART_SpiUartGetTxBufferSize
 1758              	.LVL239:
 1759 0184 5E4B     		ldr	r3, .L197+8
 1760 0186 1B68     		ldr	r3, [r3]
 1761 0188 1B04     		lsl	r3, r3, #16
 1762 018a DB17     		asr	r3, r3, #31
 1763 018c 8342     		cmp	r3, r0
 1764 018e F7D1     		bne	.L154
 1765              	.LVL240:
2099:.\BLEApplication.c ****              SetUartConfiguration(BAUD_460800);
2100:.\BLEApplication.c ****              Baud_rate_idx=idx;
 1766              		.loc 1 2100 0
 1767 0190 3922     		mov	r2, #57
 1768 0192 8AE7     		b	.L195
 1769              	.LVL241:
 1770              	.L143:
2101:.\BLEApplication.c ****         break;
2102:.\BLEApplication.c ****         case 'a':
2103:.\BLEApplication.c ****         case 'A':
2104:.\BLEApplication.c ****              printf("AT+BAUD=<921600>\r\n");
 1771              		.loc 1 2104 0
 1772 0194 6548     		ldr	r0, .L197+52
 1773              	.LVL242:
 1774 0196 FFF7FEFF 		bl	puts
 1775              	.LVL243:
2105:.\BLEApplication.c ****              printf("OK\r\n");
 1776              		.loc 1 2105 0
 1777 019a 5848     		ldr	r0, .L197+4
 1778 019c FFF7FEFF 		bl	puts
 1779              	.LVL244:
 1780              	.L155:
2106:.\BLEApplication.c ****              while((UART_SpiUartGetTxBufferSize() + UART_GET_TX_FIFO_SR_VALID) != 0);//Á≠âÂæÖ‰∏≤Âè£
 1781              		.loc 1 2106 0 discriminator 5
 1782 01a0 FFF7FEFF 		bl	UART_SpiUartGetTxBufferSize
 1783              	.LVL245:
 1784 01a4 564B     		ldr	r3, .L197+8
 1785 01a6 1B68     		ldr	r3, [r3]
 1786 01a8 1B04     		lsl	r3, r3, #16
 1787 01aa DB17     		asr	r3, r3, #31
 1788 01ac 8342     		cmp	r3, r0
 1789 01ae F7D1     		bne	.L155
 1790              	.LVL246:
ARM GAS  C:\Users\Helon\AppData\Local\Temp\ccTLkFeM.s 			page 73


2107:.\BLEApplication.c ****              SetUartConfiguration(BAUD_921600);
2108:.\BLEApplication.c ****              Baud_rate_idx=idx;
 1791              		.loc 1 2108 0
 1792 01b0 574B     		ldr	r3, .L197+24
 1793 01b2 7C33     		add	r3, r3, #124
 1794 01b4 1C70     		strb	r4, [r3]
2109:.\BLEApplication.c ****         break;
 1795              		.loc 1 2109 0
 1796 01b6 DAE0     		b	.L128
 1797              	.LVL247:
 1798              	.L144:
2110:.\BLEApplication.c ****         case '?':
2111:.\BLEApplication.c ****             switch(Baud_rate_idx)
 1799              		.loc 1 2111 0
 1800 01b8 554B     		ldr	r3, .L197+24
 1801 01ba 7C33     		add	r3, r3, #124
 1802 01bc 1B78     		ldrb	r3, [r3]
 1803 01be 352B     		cmp	r3, #53
 1804 01c0 64D0     		beq	.L156
 1805 01c2 14D8     		bhi	.L157
 1806 01c4 322B     		cmp	r3, #50
 1807 01c6 40D0     		beq	.L158
 1808 01c8 08D8     		bhi	.L159
 1809 01ca 302B     		cmp	r3, #48
 1810 01cc 28D0     		beq	.L160
 1811 01ce 312B     		cmp	r3, #49
 1812 01d0 00D0     		beq	.LCB1699
 1813 01d2 CCE0     		b	.L128	@long jump
 1814              	.LCB1699:
2112:.\BLEApplication.c ****             {
2113:.\BLEApplication.c **** //                1200
2114:.\BLEApplication.c ****                 case '0':                     
2115:.\BLEApplication.c ****                      printf("+BAUD:<1200>\r\n");
2116:.\BLEApplication.c **** //                             printf("OK\r\n");
2117:.\BLEApplication.c ****                      while((UART_SpiUartGetTxBufferSize() + UART_GET_TX_FIFO_SR_VALID) != 0);//Á≠âÂ
2118:.\BLEApplication.c **** //                             SetUartConfiguration(BAUD_1200);
2119:.\BLEApplication.c ****                 break;
2120:.\BLEApplication.c **** //                2400
2121:.\BLEApplication.c ****                 case '1':
2122:.\BLEApplication.c ****                      printf("+BAUD:<2400>\r\n");
 1815              		.loc 1 2122 0
 1816 01d4 5648     		ldr	r0, .L197+56
 1817              	.LVL248:
 1818 01d6 FFF7FEFF 		bl	puts
 1819              	.LVL249:
2123:.\BLEApplication.c **** //                             printf("OK\r\n");
2124:.\BLEApplication.c ****                      while((UART_SpiUartGetTxBufferSize() + UART_GET_TX_FIFO_SR_VALID) != 0);//Á≠âÂ
 1820              		.loc 1 2124 0
 1821 01da 2DE0     		b	.L171
 1822              	.LVL250:
 1823              	.L159:
2111:.\BLEApplication.c ****             {
 1824              		.loc 1 2111 0
 1825 01dc 332B     		cmp	r3, #51
 1826 01de 40D0     		beq	.L162
 1827 01e0 342B     		cmp	r3, #52
 1828 01e2 00D0     		beq	.LCB1712
ARM GAS  C:\Users\Helon\AppData\Local\Temp\ccTLkFeM.s 			page 74


 1829 01e4 C3E0     		b	.L128	@long jump
 1830              	.LCB1712:
2125:.\BLEApplication.c **** //                             SetUartConfiguration(BAUD_2400);
2126:.\BLEApplication.c ****                 break;
2127:.\BLEApplication.c **** //                4800
2128:.\BLEApplication.c ****                 case '2':
2129:.\BLEApplication.c ****                      printf("+BAUD:<4800>\r\n");
2130:.\BLEApplication.c **** //                             printf("OK\r\n");
2131:.\BLEApplication.c ****                      while((UART_SpiUartGetTxBufferSize() + UART_GET_TX_FIFO_SR_VALID) != 0);//Á≠âÂ
2132:.\BLEApplication.c **** //                             SetUartConfiguration(BAUD_4800);
2133:.\BLEApplication.c ****                 break;
2134:.\BLEApplication.c **** //                9600
2135:.\BLEApplication.c ****                 case '3':
2136:.\BLEApplication.c ****                      printf("+BAUD:<9600>\r\n");
2137:.\BLEApplication.c **** //                             printf("OK\r\n");
2138:.\BLEApplication.c ****                      while((UART_SpiUartGetTxBufferSize() + UART_GET_TX_FIFO_SR_VALID) != 0);//Á≠âÂ
2139:.\BLEApplication.c **** //                             SetUartConfiguration(BAUD_9600);
2140:.\BLEApplication.c ****                 break;
2141:.\BLEApplication.c ****                 case '4':
2142:.\BLEApplication.c ****                      printf("+BAUD:<19200>\r\n");
 1831              		.loc 1 2142 0
 1832 01e6 5348     		ldr	r0, .L197+60
 1833              	.LVL251:
 1834 01e8 FFF7FEFF 		bl	puts
 1835              	.LVL252:
2143:.\BLEApplication.c **** //                             printf("OK\r\n");
2144:.\BLEApplication.c ****                      while((UART_SpiUartGetTxBufferSize() + UART_GET_TX_FIFO_SR_VALID) != 0);//Á≠âÂ
 1836              		.loc 1 2144 0
 1837 01ec 45E0     		b	.L175
 1838              	.LVL253:
 1839              	.L157:
2111:.\BLEApplication.c ****             {
 1840              		.loc 1 2111 0
 1841 01ee 382B     		cmp	r3, #56
 1842 01f0 6DD0     		beq	.L164
 1843 01f2 08D8     		bhi	.L165
 1844 01f4 362B     		cmp	r3, #54
 1845 01f6 55D0     		beq	.L166
 1846 01f8 372B     		cmp	r3, #55
 1847 01fa 00D0     		beq	.LCB1729
 1848 01fc B7E0     		b	.L128	@long jump
 1849              	.LCB1729:
2145:.\BLEApplication.c **** //                             SetUartConfiguration(BAUD_19200);
2146:.\BLEApplication.c ****                 break;
2147:.\BLEApplication.c ****                 case '5':
2148:.\BLEApplication.c ****                      printf("+BAUD:<38400>\r\n");
2149:.\BLEApplication.c **** //                             printf("OK\r\n");
2150:.\BLEApplication.c ****                      while((UART_SpiUartGetTxBufferSize() + UART_GET_TX_FIFO_SR_VALID) != 0);//Á≠âÂ
2151:.\BLEApplication.c **** //                             SetUartConfiguration(BAUD_38400);
2152:.\BLEApplication.c ****                 break;
2153:.\BLEApplication.c **** //                57600
2154:.\BLEApplication.c ****                 case '6':
2155:.\BLEApplication.c ****                      printf("+BAUD:<57600>\r\n");
2156:.\BLEApplication.c **** //                             printf("OK\r\n");
2157:.\BLEApplication.c ****                      while((UART_SpiUartGetTxBufferSize() + UART_GET_TX_FIFO_SR_VALID) != 0);//Á≠âÂ
2158:.\BLEApplication.c **** //                             SetUartConfiguration(BAUD_57600);
2159:.\BLEApplication.c ****                 break;
ARM GAS  C:\Users\Helon\AppData\Local\Temp\ccTLkFeM.s 			page 75


2160:.\BLEApplication.c ****                 case '7':
2161:.\BLEApplication.c ****                      printf("+BAUD:<115200>\r\n");
 1850              		.loc 1 2161 0
 1851 01fe 4E48     		ldr	r0, .L197+64
 1852              	.LVL254:
 1853 0200 FFF7FEFF 		bl	puts
 1854              	.LVL255:
2162:.\BLEApplication.c **** //                             printf("OK\r\n");
2163:.\BLEApplication.c ****                      while((UART_SpiUartGetTxBufferSize() + UART_GET_TX_FIFO_SR_VALID) != 0);//Á≠âÂ
 1855              		.loc 1 2163 0
 1856 0204 5AE0     		b	.L178
 1857              	.LVL256:
 1858              	.L165:
2111:.\BLEApplication.c ****             {
 1859              		.loc 1 2111 0
 1860 0206 412B     		cmp	r3, #65
 1861 0208 00D1     		bne	.LCB1740
 1862 020a A5E0     		b	.L168	@long jump
 1863              	.LCB1740:
 1864 020c 612B     		cmp	r3, #97
 1865 020e 00D1     		bne	.LCB1742
 1866 0210 A2E0     		b	.L168	@long jump
 1867              	.LCB1742:
 1868 0212 392B     		cmp	r3, #57
 1869 0214 00D0     		beq	.LCB1744
 1870 0216 AAE0     		b	.L128	@long jump
 1871              	.LCB1744:
2164:.\BLEApplication.c **** //                             SetUartConfiguration(BAUD_115200);
2165:.\BLEApplication.c ****                 break;
2166:.\BLEApplication.c ****                 case '8':
2167:.\BLEApplication.c ****                      printf("+BAUD:<230400>\r\n");
2168:.\BLEApplication.c **** //                             printf("OK\r\n");
2169:.\BLEApplication.c ****                      while((UART_SpiUartGetTxBufferSize() + UART_GET_TX_FIFO_SR_VALID) != 0);//Á≠âÂ
2170:.\BLEApplication.c **** //                             SetUartConfiguration(BAUD_230400);
2171:.\BLEApplication.c ****                 break;
2172:.\BLEApplication.c ****                 case '9':
2173:.\BLEApplication.c ****                      printf("+BAUD:<460800>\r\n");
 1872              		.loc 1 2173 0
 1873 0218 4848     		ldr	r0, .L197+68
 1874              	.LVL257:
 1875 021a FFF7FEFF 		bl	puts
 1876              	.LVL258:
2174:.\BLEApplication.c **** //                             printf("OK\r\n");
2175:.\BLEApplication.c ****                      while((UART_SpiUartGetTxBufferSize() + UART_GET_TX_FIFO_SR_VALID) != 0);//Á≠âÂ
 1877              		.loc 1 2175 0
 1878 021e 62E0     		b	.L180
 1879              	.LVL259:
 1880              	.L160:
2115:.\BLEApplication.c **** //                             printf("OK\r\n");
 1881              		.loc 1 2115 0
 1882 0220 4748     		ldr	r0, .L197+72
 1883              	.LVL260:
 1884 0222 FFF7FEFF 		bl	puts
 1885              	.LVL261:
 1886              	.L170:
2117:.\BLEApplication.c **** //                             SetUartConfiguration(BAUD_1200);
 1887              		.loc 1 2117 0 discriminator 5
ARM GAS  C:\Users\Helon\AppData\Local\Temp\ccTLkFeM.s 			page 76


 1888 0226 FFF7FEFF 		bl	UART_SpiUartGetTxBufferSize
 1889              	.LVL262:
 1890 022a 354B     		ldr	r3, .L197+8
 1891 022c 1B68     		ldr	r3, [r3]
 1892 022e 1B04     		lsl	r3, r3, #16
 1893 0230 DB17     		asr	r3, r3, #31
 1894 0232 8342     		cmp	r3, r0
 1895 0234 F7D1     		bne	.L170
 1896 0236 9AE0     		b	.L128
 1897              	.L171:
2124:.\BLEApplication.c **** //                             SetUartConfiguration(BAUD_2400);
 1898              		.loc 1 2124 0 discriminator 5
 1899 0238 FFF7FEFF 		bl	UART_SpiUartGetTxBufferSize
 1900              	.LVL263:
 1901 023c 304B     		ldr	r3, .L197+8
 1902 023e 1B68     		ldr	r3, [r3]
 1903 0240 1B04     		lsl	r3, r3, #16
 1904 0242 DB17     		asr	r3, r3, #31
 1905 0244 8342     		cmp	r3, r0
 1906 0246 F7D1     		bne	.L171
 1907 0248 91E0     		b	.L128
 1908              	.LVL264:
 1909              	.L158:
2129:.\BLEApplication.c **** //                             printf("OK\r\n");
 1910              		.loc 1 2129 0
 1911 024a 3E48     		ldr	r0, .L197+76
 1912              	.LVL265:
 1913 024c FFF7FEFF 		bl	puts
 1914              	.LVL266:
 1915              	.L173:
2131:.\BLEApplication.c **** //                             SetUartConfiguration(BAUD_4800);
 1916              		.loc 1 2131 0 discriminator 5
 1917 0250 FFF7FEFF 		bl	UART_SpiUartGetTxBufferSize
 1918              	.LVL267:
 1919 0254 2A4B     		ldr	r3, .L197+8
 1920 0256 1B68     		ldr	r3, [r3]
 1921 0258 1B04     		lsl	r3, r3, #16
 1922 025a DB17     		asr	r3, r3, #31
 1923 025c 8342     		cmp	r3, r0
 1924 025e F7D1     		bne	.L173
 1925 0260 85E0     		b	.L128
 1926              	.LVL268:
 1927              	.L162:
2136:.\BLEApplication.c **** //                             printf("OK\r\n");
 1928              		.loc 1 2136 0
 1929 0262 3948     		ldr	r0, .L197+80
 1930              	.LVL269:
 1931 0264 FFF7FEFF 		bl	puts
 1932              	.LVL270:
 1933              	.L174:
2138:.\BLEApplication.c **** //                             SetUartConfiguration(BAUD_9600);
 1934              		.loc 1 2138 0 discriminator 5
 1935 0268 FFF7FEFF 		bl	UART_SpiUartGetTxBufferSize
 1936              	.LVL271:
 1937 026c 244B     		ldr	r3, .L197+8
 1938 026e 1B68     		ldr	r3, [r3]
 1939 0270 1B04     		lsl	r3, r3, #16
ARM GAS  C:\Users\Helon\AppData\Local\Temp\ccTLkFeM.s 			page 77


 1940 0272 DB17     		asr	r3, r3, #31
 1941 0274 8342     		cmp	r3, r0
 1942 0276 F7D1     		bne	.L174
 1943 0278 79E0     		b	.L128
 1944              	.L175:
2144:.\BLEApplication.c **** //                             SetUartConfiguration(BAUD_19200);
 1945              		.loc 1 2144 0 discriminator 5
 1946 027a FFF7FEFF 		bl	UART_SpiUartGetTxBufferSize
 1947              	.LVL272:
 1948 027e 204B     		ldr	r3, .L197+8
 1949 0280 1B68     		ldr	r3, [r3]
 1950 0282 1B04     		lsl	r3, r3, #16
 1951 0284 DB17     		asr	r3, r3, #31
 1952 0286 8342     		cmp	r3, r0
 1953 0288 F7D1     		bne	.L175
 1954 028a 70E0     		b	.L128
 1955              	.LVL273:
 1956              	.L156:
2148:.\BLEApplication.c **** //                             printf("OK\r\n");
 1957              		.loc 1 2148 0
 1958 028c 2F48     		ldr	r0, .L197+84
 1959              	.LVL274:
 1960 028e FFF7FEFF 		bl	puts
 1961              	.LVL275:
 1962              	.L176:
2150:.\BLEApplication.c **** //                             SetUartConfiguration(BAUD_38400);
 1963              		.loc 1 2150 0 discriminator 5
 1964 0292 FFF7FEFF 		bl	UART_SpiUartGetTxBufferSize
 1965              	.LVL276:
 1966 0296 1A4B     		ldr	r3, .L197+8
 1967 0298 1B68     		ldr	r3, [r3]
 1968 029a 1B04     		lsl	r3, r3, #16
 1969 029c DB17     		asr	r3, r3, #31
 1970 029e 8342     		cmp	r3, r0
 1971 02a0 F7D1     		bne	.L176
 1972 02a2 64E0     		b	.L128
 1973              	.LVL277:
 1974              	.L166:
2155:.\BLEApplication.c **** //                             printf("OK\r\n");
 1975              		.loc 1 2155 0
 1976 02a4 2A48     		ldr	r0, .L197+88
 1977              	.LVL278:
 1978 02a6 FFF7FEFF 		bl	puts
 1979              	.LVL279:
 1980              	.L177:
2157:.\BLEApplication.c **** //                             SetUartConfiguration(BAUD_57600);
 1981              		.loc 1 2157 0 discriminator 5
 1982 02aa FFF7FEFF 		bl	UART_SpiUartGetTxBufferSize
 1983              	.LVL280:
 1984 02ae 144B     		ldr	r3, .L197+8
 1985 02b0 1B68     		ldr	r3, [r3]
 1986 02b2 1B04     		lsl	r3, r3, #16
 1987 02b4 DB17     		asr	r3, r3, #31
 1988 02b6 8342     		cmp	r3, r0
 1989 02b8 F7D1     		bne	.L177
 1990 02ba 58E0     		b	.L128
 1991              	.L178:
ARM GAS  C:\Users\Helon\AppData\Local\Temp\ccTLkFeM.s 			page 78


2163:.\BLEApplication.c **** //                             SetUartConfiguration(BAUD_115200);
 1992              		.loc 1 2163 0 discriminator 5
 1993 02bc FFF7FEFF 		bl	UART_SpiUartGetTxBufferSize
 1994              	.LVL281:
 1995 02c0 0F4B     		ldr	r3, .L197+8
 1996 02c2 1B68     		ldr	r3, [r3]
 1997 02c4 1B04     		lsl	r3, r3, #16
 1998 02c6 DB17     		asr	r3, r3, #31
 1999 02c8 8342     		cmp	r3, r0
 2000 02ca F7D1     		bne	.L178
 2001 02cc 4FE0     		b	.L128
 2002              	.LVL282:
 2003              	.L164:
2167:.\BLEApplication.c **** //                             printf("OK\r\n");
 2004              		.loc 1 2167 0
 2005 02ce 2148     		ldr	r0, .L197+92
 2006              	.LVL283:
 2007 02d0 FFF7FEFF 		bl	puts
 2008              	.LVL284:
 2009              	.L179:
2169:.\BLEApplication.c **** //                             SetUartConfiguration(BAUD_230400);
 2010              		.loc 1 2169 0 discriminator 5
 2011 02d4 FFF7FEFF 		bl	UART_SpiUartGetTxBufferSize
 2012              	.LVL285:
 2013 02d8 094B     		ldr	r3, .L197+8
 2014 02da 1B68     		ldr	r3, [r3]
 2015 02dc 1B04     		lsl	r3, r3, #16
 2016 02de DB17     		asr	r3, r3, #31
 2017 02e0 8342     		cmp	r3, r0
 2018 02e2 F7D1     		bne	.L179
 2019 02e4 43E0     		b	.L128
 2020              	.L180:
 2021              		.loc 1 2175 0 discriminator 5
 2022 02e6 FFF7FEFF 		bl	UART_SpiUartGetTxBufferSize
 2023              	.LVL286:
 2024 02ea 054B     		ldr	r3, .L197+8
 2025 02ec 1B68     		ldr	r3, [r3]
 2026 02ee 1B04     		lsl	r3, r3, #16
 2027 02f0 DB17     		asr	r3, r3, #31
 2028 02f2 8342     		cmp	r3, r0
 2029 02f4 F7D1     		bne	.L180
 2030 02f6 3AE0     		b	.L128
 2031              	.L198:
 2032              		.align	2
 2033              	.L197:
 2034 02f8 CA010000 		.word	.LC84
 2035 02fc C6010000 		.word	.LC81
 2036 0300 08022440 		.word	1076101640
 2037 0304 EA010000 		.word	.LC88
 2038 0308 3F020000 		.word	.LC98
 2039 030c B6010000 		.word	.LC79
 2040 0310 00000000 		.word	.LANCHOR1
 2041 0314 DA010000 		.word	.LC86
 2042 0318 FA010000 		.word	.LC90
 2043 031c 0B020000 		.word	.LC92
 2044 0320 1C020000 		.word	.LC94
 2045 0324 2D020000 		.word	.LC96
ARM GAS  C:\Users\Helon\AppData\Local\Temp\ccTLkFeM.s 			page 79


 2046 0328 51020000 		.word	.LC100
 2047 032c 63020000 		.word	.LC102
 2048 0330 83020000 		.word	.LC106
 2049 0334 AD020000 		.word	.LC112
 2050 0338 DA020000 		.word	.LC118
 2051 033c FA020000 		.word	.LC122
 2052 0340 75020000 		.word	.LC104
 2053 0344 91020000 		.word	.LC108
 2054 0348 9F020000 		.word	.LC110
 2055 034c BC020000 		.word	.LC114
 2056 0350 CB020000 		.word	.LC116
 2057 0354 EA020000 		.word	.LC120
 2058              	.LVL287:
 2059              	.L168:
2176:.\BLEApplication.c **** //                             SetUartConfiguration(BAUD_460800);
2177:.\BLEApplication.c ****                 break;
2178:.\BLEApplication.c ****                 case 'a':
2179:.\BLEApplication.c ****                 case 'A':
2180:.\BLEApplication.c ****                      printf("+BAUD:<921600>\r\n");
 2060              		.loc 1 2180 0
 2061 0358 0548     		ldr	r0, .L199
 2062              	.LVL288:
 2063 035a FFF7FEFF 		bl	puts
 2064              	.LVL289:
 2065              	.L181:
2181:.\BLEApplication.c **** //                             printf("OK\r\n");
2182:.\BLEApplication.c ****                      while((UART_SpiUartGetTxBufferSize() + UART_GET_TX_FIFO_SR_VALID) != 0);//Á≠âÂ
 2066              		.loc 1 2182 0 discriminator 5
 2067 035e FFF7FEFF 		bl	UART_SpiUartGetTxBufferSize
 2068              	.LVL290:
 2069 0362 044B     		ldr	r3, .L199+4
 2070 0364 1B68     		ldr	r3, [r3]
 2071 0366 1B04     		lsl	r3, r3, #16
 2072 0368 DB17     		asr	r3, r3, #31
 2073 036a 8342     		cmp	r3, r0
 2074 036c F7D1     		bne	.L181
 2075              	.L128:
2183:.\BLEApplication.c **** //                             SetUartConfiguration(BAUD_921600);
2184:.\BLEApplication.c ****                 break;
2185:.\BLEApplication.c ****                 default:
2186:.\BLEApplication.c ****                 break;
2187:.\BLEApplication.c ****              }
2188:.\BLEApplication.c ****         break;
2189:.\BLEApplication.c ****     }  
2190:.\BLEApplication.c **** }
 2076              		.loc 1 2190 0
 2077              		@ sp needed
 2078 036e 70BD     		pop	{r4, r5, r6, pc}
 2079              	.L200:
 2080              		.align	2
 2081              	.L199:
 2082 0370 0A030000 		.word	.LC124
 2083 0374 08022440 		.word	1076101640
 2084              		.cfi_endproc
 2085              	.LFE50:
 2086              		.size	UartBuadRate_Handler, .-UartBuadRate_Handler
 2087              		.section	.text.TxPower_Handler,"ax",%progbits
ARM GAS  C:\Users\Helon\AppData\Local\Temp\ccTLkFeM.s 			page 80


 2088              		.align	1
 2089              		.global	TxPower_Handler
 2090              		.code	16
 2091              		.thumb_func
 2092              		.type	TxPower_Handler, %function
 2093              	TxPower_Handler:
 2094              	.LFB51:
2191:.\BLEApplication.c **** /******************************************************************************
2192:.\BLEApplication.c **** * Function Name: TxPower_Handler
2193:.\BLEApplication.c **** ***************************************************************************//**
2194:.\BLEApplication.c **** * 
2195:.\BLEApplication.c **** *  ËÆæÁΩÆÂèëÂ∞ÑÂäüÁéáÊàñËÄÖÊü•ËØ¢ÂΩìÂâçÁöÑÂèëÂ∞ÑÂäüÁéá
2196:.\BLEApplication.c **** * \param  idx:ËÆæÁΩÆÁöÑÂèëÂ∞ÑÂäüÁéáÂÄºÊàñÊü•ËØ¢ÂèëÂ∞ÑÂäüÁéáÁöÑÁä∂ÊÄÅ
2197:.\BLEApplication.c **** * \return none
2198:.\BLEApplication.c **** *  
2199:.\BLEApplication.c **** * 
2200:.\BLEApplication.c **** ******************************************************************************/
2201:.\BLEApplication.c **** void TxPower_Handler(uint8_t idx)
2202:.\BLEApplication.c **** {
 2095              		.loc 1 2202 0
 2096              		.cfi_startproc
 2097              	.LVL291:
2203:.\BLEApplication.c ****     CYBLE_BLESS_PWR_IN_DB_T bleSsPwrLvl;
2204:.\BLEApplication.c ****     CYBLE_API_RESULT_T API_RESULT=0;
2205:.\BLEApplication.c ****     if(CYBLE_STATE_ADVERTISING==CyBle_GetState())
 2098              		.loc 1 2205 0
 2099 0000 2B4B     		ldr	r3, .L261
2202:.\BLEApplication.c ****     CYBLE_BLESS_PWR_IN_DB_T bleSsPwrLvl;
 2100              		.loc 1 2202 0
 2101 0002 13B5     		push	{r0, r1, r4, lr}
 2102              		.cfi_def_cfa_offset 16
 2103              		.cfi_offset 0, -16
 2104              		.cfi_offset 1, -12
 2105              		.cfi_offset 4, -8
 2106              		.cfi_offset 14, -4
 2107              		.loc 1 2205 0
 2108 0004 1B78     		ldrb	r3, [r3]
2206:.\BLEApplication.c ****     {
2207:.\BLEApplication.c ****         bleSsPwrLvl.bleSsChId=CYBLE_LL_ADV_CH_TYPE;
 2109              		.loc 1 2207 0
 2110 0006 0022     		mov	r2, #0
2205:.\BLEApplication.c ****     {
 2111              		.loc 1 2205 0
 2112 0008 032B     		cmp	r3, #3
 2113 000a 02D0     		beq	.L252
2208:.\BLEApplication.c ****     }
2209:.\BLEApplication.c ****     else if(CYBLE_STATE_CONNECTED==CyBle_GetState())
 2114              		.loc 1 2209 0
 2115 000c 022B     		cmp	r3, #2
 2116 000e 4DD1     		bne	.L201
2210:.\BLEApplication.c ****     {
2211:.\BLEApplication.c ****         bleSsPwrLvl.bleSsChId=CYBLE_LL_CONN_CH_TYPE;
 2117              		.loc 1 2211 0
 2118 0010 0122     		mov	r2, #1
 2119              	.L252:
 2120 0012 01AB     		add	r3, sp, #4
2212:.\BLEApplication.c ****     }
ARM GAS  C:\Users\Helon\AppData\Local\Temp\ccTLkFeM.s 			page 81


2213:.\BLEApplication.c ****     else//Â¶Ç‰Ωï‰∏çÊòØÂπøÊí≠ÊàñËÄÖËøûÊé•Áä∂ÊÄÅÂàôÊó†Êïà
2214:.\BLEApplication.c ****     {
2215:.\BLEApplication.c ****         return;
2216:.\BLEApplication.c ****     }
2217:.\BLEApplication.c ****     switch(idx)
 2121              		.loc 1 2217 0
 2122 0014 3138     		sub	r0, r0, #49
 2123              	.LVL292:
2211:.\BLEApplication.c ****     }
 2124              		.loc 1 2211 0
 2125 0016 5A70     		strb	r2, [r3, #1]
 2126              		.loc 1 2217 0
 2127 0018 0E28     		cmp	r0, #14
 2128 001a 47D8     		bhi	.L201
 2129 001c FFF7FEFF 		bl	__gnu_thumb1_case_uqi
 2130              	.L207:
 2131 0020 26       		.byte	(.L206-.L207)/2
 2132 0021 31       		.byte	(.L208-.L207)/2
 2133 0022 34       		.byte	(.L209-.L207)/2
 2134 0023 37       		.byte	(.L210-.L207)/2
 2135 0024 3A       		.byte	(.L211-.L207)/2
 2136 0025 3D       		.byte	(.L212-.L207)/2
 2137 0026 40       		.byte	(.L213-.L207)/2
 2138 0027 43       		.byte	(.L214-.L207)/2
 2139 0028 46       		.byte	(.L201-.L207)/2
 2140 0029 46       		.byte	(.L201-.L207)/2
 2141 002a 46       		.byte	(.L201-.L207)/2
 2142 002b 46       		.byte	(.L201-.L207)/2
 2143 002c 46       		.byte	(.L201-.L207)/2
 2144 002d 46       		.byte	(.L201-.L207)/2
 2145 002e 08       		.byte	(.L215-.L207)/2
 2146 002f 00       		.p2align 1
 2147              	.L215:
2218:.\BLEApplication.c ****     {
2219:.\BLEApplication.c ****         case '?':                        
2220:.\BLEApplication.c ****             CyBle_GetTxPowerLevel(&bleSsPwrLvl);
 2148              		.loc 1 2220 0
 2149 0030 01AC     		add	r4, sp, #4
 2150 0032 201C     		mov	r0, r4
 2151 0034 FFF7FEFF 		bl	CyBle_GetTxPowerLevel
 2152              	.LVL293:
2221:.\BLEApplication.c ****             idx=bleSsPwrLvl.blePwrLevelInDbm;
2222:.\BLEApplication.c ****             switch(idx)
 2153              		.loc 1 2222 0
 2154 0038 2078     		ldrb	r0, [r4]
 2155 003a 0138     		sub	r0, r0, #1
 2156 003c 0728     		cmp	r0, #7
 2157 003e 35D8     		bhi	.L201
 2158 0040 FFF7FEFF 		bl	__gnu_thumb1_case_uqi
 2159              	.L217:
 2160 0044 04       		.byte	(.L216-.L217)/2
 2161 0045 06       		.byte	(.L218-.L217)/2
 2162 0046 08       		.byte	(.L219-.L217)/2
 2163 0047 0A       		.byte	(.L220-.L217)/2
 2164 0048 0C       		.byte	(.L221-.L217)/2
 2165 0049 0E       		.byte	(.L222-.L217)/2
 2166 004a 10       		.byte	(.L223-.L217)/2
ARM GAS  C:\Users\Helon\AppData\Local\Temp\ccTLkFeM.s 			page 82


 2167 004b 12       		.byte	(.L224-.L217)/2
 2168              		.p2align 1
 2169              	.L216:
2223:.\BLEApplication.c ****             {
2224:.\BLEApplication.c ****                 case 1:
2225:.\BLEApplication.c ****                     printf("+TXP:<-18dBm>\r\n");
 2170              		.loc 1 2225 0
 2171 004c 1948     		ldr	r0, .L261+4
 2172 004e 15E0     		b	.L260
 2173              	.L218:
2226:.\BLEApplication.c ****                 break;
2227:.\BLEApplication.c ****                 case 2:
2228:.\BLEApplication.c ****                     printf("+TXP:<-12dBm>\r\n");
 2174              		.loc 1 2228 0
 2175 0050 1948     		ldr	r0, .L261+8
 2176 0052 13E0     		b	.L260
 2177              	.L219:
2229:.\BLEApplication.c ****                 break;
2230:.\BLEApplication.c ****                 case 3:
2231:.\BLEApplication.c ****                     printf("+TXP:<-6dBm>\r\n");
 2178              		.loc 1 2231 0
 2179 0054 1948     		ldr	r0, .L261+12
 2180 0056 11E0     		b	.L260
 2181              	.L220:
2232:.\BLEApplication.c ****                 break;
2233:.\BLEApplication.c ****                 case 4:
2234:.\BLEApplication.c ****                     printf("+TXP:<-3dBm>\r\n");
 2182              		.loc 1 2234 0
 2183 0058 1948     		ldr	r0, .L261+16
 2184 005a 0FE0     		b	.L260
 2185              	.L221:
2235:.\BLEApplication.c ****                 break;
2236:.\BLEApplication.c ****                 case 5:
2237:.\BLEApplication.c ****                     printf("+TXP:<-2dBm>\r\n");
 2186              		.loc 1 2237 0
 2187 005c 1948     		ldr	r0, .L261+20
 2188 005e 0DE0     		b	.L260
 2189              	.L222:
2238:.\BLEApplication.c ****                 break;
2239:.\BLEApplication.c ****                 case 6:
2240:.\BLEApplication.c ****                     printf("+TXP:<-1dBm>\r\n");
 2190              		.loc 1 2240 0
 2191 0060 1948     		ldr	r0, .L261+24
 2192 0062 0BE0     		b	.L260
 2193              	.L223:
2241:.\BLEApplication.c ****                 break;
2242:.\BLEApplication.c ****                 case 7:
2243:.\BLEApplication.c ****                     printf("+TXP:<0dBm>\r\n");
 2194              		.loc 1 2243 0
 2195 0064 1948     		ldr	r0, .L261+28
 2196 0066 09E0     		b	.L260
 2197              	.L224:
2244:.\BLEApplication.c ****                 break;
2245:.\BLEApplication.c ****                 case 8:
2246:.\BLEApplication.c ****                     printf("+TXP:<3dBm>\r\n");
 2198              		.loc 1 2246 0
 2199 0068 1948     		ldr	r0, .L261+32
ARM GAS  C:\Users\Helon\AppData\Local\Temp\ccTLkFeM.s 			page 83


 2200 006a 07E0     		b	.L260
 2201              	.LVL294:
 2202              	.L206:
2247:.\BLEApplication.c ****                 break;
2248:.\BLEApplication.c ****             }
2249:.\BLEApplication.c ****             
2250:.\BLEApplication.c ****         break;
2251:.\BLEApplication.c ****         case '1':
2252:.\BLEApplication.c ****             bleSsPwrLvl.blePwrLevelInDbm=CYBLE_LL_PWR_LVL_NEG_18_DBM;
 2203              		.loc 1 2252 0
 2204 006c 0123     		mov	r3, #1
 2205 006e 01A8     		add	r0, sp, #4
 2206              	.L253:
 2207 0070 0370     		strb	r3, [r0]
2253:.\BLEApplication.c ****             API_RESULT=CyBle_SetTxPowerLevel(&bleSsPwrLvl);
 2208              		.loc 1 2253 0
 2209 0072 FFF7FEFF 		bl	CyBle_SetTxPowerLevel
 2210              	.LVL295:
2254:.\BLEApplication.c ****             if(CYBLE_ERROR_OK==API_RESULT)
 2211              		.loc 1 2254 0
 2212 0076 0028     		cmp	r0, #0
 2213 0078 18D1     		bne	.L201
2255:.\BLEApplication.c ****             {     
2256:.\BLEApplication.c ****                 printf("AT+OK\r\n");
 2214              		.loc 1 2256 0
 2215 007a 1648     		ldr	r0, .L261+36
 2216              	.LVL296:
 2217              	.L260:
 2218 007c FFF7FEFF 		bl	puts
 2219              	.LVL297:
 2220 0080 14E0     		b	.L201
 2221              	.LVL298:
 2222              	.L208:
2257:.\BLEApplication.c **** //                printf("AT+TXP=<-18dBm>\r\n");
2258:.\BLEApplication.c **** //                printf("OK\r\n");
2259:.\BLEApplication.c ****             }            
2260:.\BLEApplication.c ****         break;
2261:.\BLEApplication.c ****         case '2':
2262:.\BLEApplication.c ****             bleSsPwrLvl.blePwrLevelInDbm=CYBLE_LL_PWR_LVL_NEG_12_DBM;
 2223              		.loc 1 2262 0
 2224 0082 01A8     		add	r0, sp, #4
 2225 0084 0223     		mov	r3, #2
 2226 0086 F3E7     		b	.L253
 2227              	.L209:
2263:.\BLEApplication.c ****             API_RESULT=CyBle_SetTxPowerLevel(&bleSsPwrLvl);
2264:.\BLEApplication.c ****             if(CYBLE_ERROR_OK==API_RESULT)
2265:.\BLEApplication.c ****             {     
2266:.\BLEApplication.c ****                 printf("AT+OK\r\n");
2267:.\BLEApplication.c **** //                printf("AT+TXP=<-12dBm>\r\n");
2268:.\BLEApplication.c **** //                printf("OK\r\n");
2269:.\BLEApplication.c ****             }            
2270:.\BLEApplication.c ****         break;
2271:.\BLEApplication.c ****         case '3':
2272:.\BLEApplication.c ****             bleSsPwrLvl.blePwrLevelInDbm=CYBLE_LL_PWR_LVL_NEG_6_DBM;
 2228              		.loc 1 2272 0
 2229 0088 01A8     		add	r0, sp, #4
 2230 008a 0323     		mov	r3, #3
ARM GAS  C:\Users\Helon\AppData\Local\Temp\ccTLkFeM.s 			page 84


 2231 008c F0E7     		b	.L253
 2232              	.L210:
2273:.\BLEApplication.c ****             API_RESULT=CyBle_SetTxPowerLevel(&bleSsPwrLvl);
2274:.\BLEApplication.c ****             if(CYBLE_ERROR_OK==API_RESULT)
2275:.\BLEApplication.c ****             {     
2276:.\BLEApplication.c ****                 printf("AT+OK\r\n");
2277:.\BLEApplication.c **** //                printf("AT+TXP=<-6dBm>\r\n");
2278:.\BLEApplication.c **** //                printf("OK\r\n");
2279:.\BLEApplication.c ****             }            
2280:.\BLEApplication.c ****         break;
2281:.\BLEApplication.c ****         case '4':
2282:.\BLEApplication.c ****             bleSsPwrLvl.blePwrLevelInDbm=CYBLE_LL_PWR_LVL_NEG_3_DBM;
 2233              		.loc 1 2282 0
 2234 008e 01A8     		add	r0, sp, #4
 2235 0090 0423     		mov	r3, #4
 2236 0092 EDE7     		b	.L253
 2237              	.L211:
2283:.\BLEApplication.c ****             API_RESULT=CyBle_SetTxPowerLevel(&bleSsPwrLvl);
2284:.\BLEApplication.c ****             if(CYBLE_ERROR_OK==API_RESULT)
2285:.\BLEApplication.c ****             {    
2286:.\BLEApplication.c ****                 printf("AT+OK\r\n");
2287:.\BLEApplication.c **** //                printf("AT+TXP=<-3dBm>\r\n");
2288:.\BLEApplication.c **** //                printf("OK\r\n");
2289:.\BLEApplication.c ****             }            
2290:.\BLEApplication.c ****         break;
2291:.\BLEApplication.c ****         case '5':
2292:.\BLEApplication.c ****             bleSsPwrLvl.blePwrLevelInDbm=CYBLE_LL_PWR_LVL_NEG_2_DBM;
 2238              		.loc 1 2292 0
 2239 0094 01A8     		add	r0, sp, #4
 2240 0096 0523     		mov	r3, #5
 2241 0098 EAE7     		b	.L253
 2242              	.L212:
2293:.\BLEApplication.c ****             API_RESULT=CyBle_SetTxPowerLevel(&bleSsPwrLvl);
2294:.\BLEApplication.c ****             if(CYBLE_ERROR_OK==API_RESULT)
2295:.\BLEApplication.c ****             {     
2296:.\BLEApplication.c ****                 printf("AT+OK\r\n");
2297:.\BLEApplication.c **** //                printf("AT+TXP=<-2dBm>\r\n");
2298:.\BLEApplication.c **** //                printf("OK\r\n");
2299:.\BLEApplication.c ****             }           
2300:.\BLEApplication.c ****         break;
2301:.\BLEApplication.c ****         case '6':
2302:.\BLEApplication.c ****             bleSsPwrLvl.blePwrLevelInDbm=CYBLE_LL_PWR_LVL_NEG_1_DBM;
 2243              		.loc 1 2302 0
 2244 009a 01A8     		add	r0, sp, #4
 2245 009c 0623     		mov	r3, #6
 2246 009e E7E7     		b	.L253
 2247              	.L213:
2303:.\BLEApplication.c ****             API_RESULT=CyBle_SetTxPowerLevel(&bleSsPwrLvl);
2304:.\BLEApplication.c ****             if(CYBLE_ERROR_OK==API_RESULT)
2305:.\BLEApplication.c ****             {    
2306:.\BLEApplication.c ****                 printf("AT+OK\r\n");
2307:.\BLEApplication.c **** //                printf("AT+TXP=<-1dBm>\r\n");
2308:.\BLEApplication.c **** //                printf("OK\r\n");
2309:.\BLEApplication.c ****             }            
2310:.\BLEApplication.c ****         break;
2311:.\BLEApplication.c ****         case '7':
2312:.\BLEApplication.c ****             bleSsPwrLvl.blePwrLevelInDbm=CYBLE_LL_PWR_LVL_0_DBM;
ARM GAS  C:\Users\Helon\AppData\Local\Temp\ccTLkFeM.s 			page 85


 2248              		.loc 1 2312 0
 2249 00a0 01A8     		add	r0, sp, #4
 2250 00a2 0723     		mov	r3, #7
 2251 00a4 E4E7     		b	.L253
 2252              	.L214:
2313:.\BLEApplication.c ****             API_RESULT=CyBle_SetTxPowerLevel(&bleSsPwrLvl);
2314:.\BLEApplication.c ****             if(CYBLE_ERROR_OK==API_RESULT)
2315:.\BLEApplication.c ****             {   
2316:.\BLEApplication.c ****                 printf("AT+OK\r\n");
2317:.\BLEApplication.c **** //                printf("AT+TXP=<0dBm>\r\n");
2318:.\BLEApplication.c **** //                printf("OK\r\n");
2319:.\BLEApplication.c ****             }      
2320:.\BLEApplication.c ****         break;
2321:.\BLEApplication.c ****         case '8':
2322:.\BLEApplication.c ****             bleSsPwrLvl.blePwrLevelInDbm=CYBLE_LL_PWR_LVL_3_DBM;
 2253              		.loc 1 2322 0
 2254 00a6 01A8     		add	r0, sp, #4
 2255 00a8 0823     		mov	r3, #8
 2256 00aa E1E7     		b	.L253
 2257              	.LVL299:
 2258              	.L201:
2323:.\BLEApplication.c ****             API_RESULT=CyBle_SetTxPowerLevel(&bleSsPwrLvl);
2324:.\BLEApplication.c ****             if(CYBLE_ERROR_OK==API_RESULT)
2325:.\BLEApplication.c ****             {     
2326:.\BLEApplication.c ****                 printf("AT+OK\r\n");
2327:.\BLEApplication.c **** //                printf("AT+TXP=<3dBm>\r\n");
2328:.\BLEApplication.c **** //                printf("OK\r\n");
2329:.\BLEApplication.c ****             }           
2330:.\BLEApplication.c ****         break;
2331:.\BLEApplication.c ****     }    
2332:.\BLEApplication.c **** }
 2259              		.loc 1 2332 0
 2260              		@ sp needed
 2261 00ac 13BD     		pop	{r0, r1, r4, pc}
 2262              	.L262:
 2263 00ae C046     		.align	2
 2264              	.L261:
 2265 00b0 00000000 		.word	cyBle_state
 2266 00b4 1A030000 		.word	.LC128
 2267 00b8 29030000 		.word	.LC130
 2268 00bc 38030000 		.word	.LC132
 2269 00c0 46030000 		.word	.LC134
 2270 00c4 54030000 		.word	.LC136
 2271 00c8 62030000 		.word	.LC138
 2272 00cc 70030000 		.word	.LC140
 2273 00d0 7D030000 		.word	.LC142
 2274 00d4 6F010000 		.word	.LC66
 2275              		.cfi_endproc
 2276              	.LFE51:
 2277              		.size	TxPower_Handler, .-TxPower_Handler
 2278              		.section	.text.StrToHex,"ax",%progbits
 2279              		.align	1
 2280              		.global	StrToHex
 2281              		.code	16
 2282              		.thumb_func
 2283              		.type	StrToHex, %function
 2284              	StrToHex:
ARM GAS  C:\Users\Helon\AppData\Local\Temp\ccTLkFeM.s 			page 86


 2285              	.LFB52:
2333:.\BLEApplication.c **** /******************************************************************************
2334:.\BLEApplication.c **** * Function Name: StrToHex
2335:.\BLEApplication.c **** ***************************************************************************//**
2336:.\BLEApplication.c **** * 
2337:.\BLEApplication.c **** *  Â≠óÁ¨¶‰∏≤ËΩ¨ÂçÅÂÖ≠ËøõÂà∂
2338:.\BLEApplication.c **** * \param  pbDest:ËæìÂá∫ÁºìÂÜ≤Âå∫
2339:.\BLEApplication.c **** * \param  pbSrc :ËæìÂÖ•ÁöÑÂ≠óÁ¨¶‰∏≤
2340:.\BLEApplication.c **** * \param  nLen :ËæìÂÖ•ÁöÑÂ≠óÁ¨¶‰∏≤16ËøõÂà∂Êï∞ÁöÑÂ≠óËäÇÊï∞(Â≠óÁ¨¶‰∏≤ÁöÑÈïøÂ∫¶/2)
2341:.\BLEApplication.c **** * \return none
2342:.\BLEApplication.c **** *  
2343:.\BLEApplication.c **** * 
2344:.\BLEApplication.c **** ******************************************************************************/
2345:.\BLEApplication.c **** void StrToHex(char *pbDest, char *pbSrc, int nLen)
2346:.\BLEApplication.c **** {
 2286              		.loc 1 2346 0
 2287              		.cfi_startproc
 2288              	.LVL300:
 2289 0000 F7B5     		push	{r0, r1, r2, r4, r5, r6, r7, lr}
 2290              		.cfi_def_cfa_offset 32
 2291              		.cfi_offset 0, -32
 2292              		.cfi_offset 1, -28
 2293              		.cfi_offset 2, -24
 2294              		.cfi_offset 4, -20
 2295              		.cfi_offset 5, -16
 2296              		.cfi_offset 6, -12
 2297              		.cfi_offset 7, -8
 2298              		.cfi_offset 14, -4
2347:.\BLEApplication.c ****     unsigned char h1,h2;
2348:.\BLEApplication.c ****     unsigned char s1,s2;
2349:.\BLEApplication.c ****     int i;
2350:.\BLEApplication.c **** 
2351:.\BLEApplication.c ****     for (i=0; i<nLen; i++)
 2299              		.loc 1 2351 0
 2300 0002 051C     		mov	r5, r0
2346:.\BLEApplication.c ****     unsigned char h1,h2;
 2301              		.loc 1 2346 0
 2302 0004 0192     		str	r2, [sp, #4]
 2303              	.LVL301:
 2304              	.L264:
 2305              		.loc 1 2351 0 discriminator 1
 2306 0006 019A     		ldr	r2, [sp, #4]
 2307 0008 2B1A     		sub	r3, r5, r0
 2308 000a 9342     		cmp	r3, r2
 2309 000c 29DA     		bge	.L272
 2310              	.LBB36:
2352:.\BLEApplication.c ****     {
2353:.\BLEApplication.c ****     h1 = pbSrc[2*i];
2354:.\BLEApplication.c ****     h2 = pbSrc[2*i+1];
2355:.\BLEApplication.c **** 
2356:.\BLEApplication.c ****     s1 = toupper(h1) - 0x30;
 2311              		.loc 1 2356 0
 2312 000e 154E     		ldr	r6, .L273
 2313              	.LBE36:
2353:.\BLEApplication.c ****     h2 = pbSrc[2*i+1];
 2314              		.loc 1 2353 0
 2315 0010 0C78     		ldrb	r4, [r1]
ARM GAS  C:\Users\Helon\AppData\Local\Temp\ccTLkFeM.s 			page 87


 2316              	.LVL302:
 2317              	.LBB37:
 2318              		.loc 1 2356 0
 2319 0012 3768     		ldr	r7, [r6]
 2320              	.LBE37:
2354:.\BLEApplication.c **** 
 2321              		.loc 1 2354 0
 2322 0014 4B78     		ldrb	r3, [r1, #1]
 2323              	.LVL303:
 2324              	.LBB38:
 2325              		.loc 1 2356 0
 2326 0016 3E19     		add	r6, r7, r4
 2327 0018 7678     		ldrb	r6, [r6, #1]
 2328 001a B446     		mov	ip, r6
 2329 001c 0326     		mov	r6, #3
 2330 001e 6246     		mov	r2, ip
 2331 0020 1640     		and	r6, r2
 2332 0022 022E     		cmp	r6, #2
 2333 0024 00D1     		bne	.L266
 2334              		.loc 1 2356 0 is_stmt 0 discriminator 1
 2335 0026 203C     		sub	r4, r4, #32
 2336              	.LVL304:
 2337              	.L266:
 2338              	.LBE38:
 2339              		.loc 1 2356 0 discriminator 4
 2340 0028 E4B2     		uxtb	r4, r4
 2341 002a 261C     		mov	r6, r4
 2342 002c 303E     		sub	r6, r6, #48
 2343 002e F6B2     		uxtb	r6, r6
 2344              	.LVL305:
2357:.\BLEApplication.c ****     if (s1 > 9) 
 2345              		.loc 1 2357 0 is_stmt 1 discriminator 4
 2346 0030 092E     		cmp	r6, #9
 2347 0032 01D9     		bls	.L267
2358:.\BLEApplication.c ****     s1 -= 7;
 2348              		.loc 1 2358 0
 2349 0034 373C     		sub	r4, r4, #55
 2350 0036 E6B2     		uxtb	r6, r4
 2351              	.LVL306:
 2352              	.L267:
 2353              	.LBB39:
2359:.\BLEApplication.c **** 
2360:.\BLEApplication.c ****     s2 = toupper(h2) - 0x30;
 2354              		.loc 1 2360 0
 2355 0038 0324     		mov	r4, #3
 2356 003a FF18     		add	r7, r7, r3
 2357 003c 7F78     		ldrb	r7, [r7, #1]
 2358 003e 3C40     		and	r4, r7
 2359 0040 022C     		cmp	r4, #2
 2360 0042 00D1     		bne	.L269
 2361              		.loc 1 2360 0 is_stmt 0 discriminator 1
 2362 0044 203B     		sub	r3, r3, #32
 2363              	.LVL307:
 2364              	.L269:
 2365              	.LBE39:
 2366              		.loc 1 2360 0 discriminator 4
 2367 0046 DBB2     		uxtb	r3, r3
ARM GAS  C:\Users\Helon\AppData\Local\Temp\ccTLkFeM.s 			page 88


 2368 0048 1C1C     		mov	r4, r3
 2369 004a 303C     		sub	r4, r4, #48
 2370 004c E4B2     		uxtb	r4, r4
 2371              	.LVL308:
2361:.\BLEApplication.c ****     if (s2 > 9) 
 2372              		.loc 1 2361 0 is_stmt 1 discriminator 4
 2373 004e 092C     		cmp	r4, #9
 2374 0050 01D9     		bls	.L270
2362:.\BLEApplication.c ****     s2 -= 7;
 2375              		.loc 1 2362 0
 2376 0052 373B     		sub	r3, r3, #55
 2377 0054 DCB2     		uxtb	r4, r3
 2378              	.LVL309:
 2379              	.L270:
2363:.\BLEApplication.c **** 
2364:.\BLEApplication.c ****     pbDest[i] = s1*16 + s2;
 2380              		.loc 1 2364 0 discriminator 2
 2381 0056 3601     		lsl	r6, r6, #4
 2382              	.LVL310:
 2383 0058 A319     		add	r3, r4, r6
 2384 005a 2B70     		strb	r3, [r5]
 2385              	.LVL311:
 2386 005c 0231     		add	r1, r1, #2
 2387 005e 0135     		add	r5, r5, #1
 2388              	.LVL312:
 2389 0060 D1E7     		b	.L264
 2390              	.LVL313:
 2391              	.L272:
2365:.\BLEApplication.c ****     }
2366:.\BLEApplication.c **** }
 2392              		.loc 1 2366 0
 2393              		@ sp needed
 2394              	.LVL314:
 2395 0062 F7BD     		pop	{r0, r1, r2, r4, r5, r6, r7, pc}
 2396              	.L274:
 2397              		.align	2
 2398              	.L273:
 2399 0064 00000000 		.word	__ctype_ptr__
 2400              		.cfi_endproc
 2401              	.LFE52:
 2402              		.size	StrToHex, .-StrToHex
 2403              		.global	__aeabi_i2d
 2404              		.global	__aeabi_dmul
 2405              		.global	__aeabi_d2iz
 2406              		.section	.text.Parser_UartData.part.3,"ax",%progbits
 2407              		.align	1
 2408              		.code	16
 2409              		.thumb_func
 2410              		.type	Parser_UartData.part.3, %function
 2411              	Parser_UartData.part.3:
 2412              	.LFB57:
 685:.\BLEApplication.c **** {
 2413              		.loc 1 685 0
 2414              		.cfi_startproc
 2415              	.LVL315:
 2416 0000 F0B5     		push	{r4, r5, r6, r7, lr}
 2417              		.cfi_def_cfa_offset 20
ARM GAS  C:\Users\Helon\AppData\Local\Temp\ccTLkFeM.s 			page 89


 2418              		.cfi_offset 4, -20
 2419              		.cfi_offset 5, -16
 2420              		.cfi_offset 6, -12
 2421              		.cfi_offset 7, -8
 2422              		.cfi_offset 14, -4
 2423 0002 B1B0     		sub	sp, sp, #196
 2424              		.cfi_def_cfa_offset 216
 685:.\BLEApplication.c **** {
 2425              		.loc 1 685 0
 2426 0004 041C     		mov	r4, r0
 692:.\BLEApplication.c ****     char AdvData[31]={0};
 2427              		.loc 1 692 0
 2428 0006 0021     		mov	r1, #0
 2429 0008 1B22     		mov	r2, #27
 2430 000a 09A8     		add	r0, sp, #36
 2431              	.LVL316:
 2432 000c FFF7FEFF 		bl	memset
 2433              	.LVL317:
 693:.\BLEApplication.c ****     char StrAdvData[62]={0};
 2434              		.loc 1 693 0
 2435 0010 0021     		mov	r1, #0
 2436 0012 1F22     		mov	r2, #31
 2437 0014 10A8     		add	r0, sp, #64
 2438 0016 FFF7FEFF 		bl	memset
 2439              	.LVL318:
 694:.\BLEApplication.c ****     char StrAdvDataLength[2]={0};
 2440              		.loc 1 694 0
 2441 001a 3E22     		mov	r2, #62
 2442 001c 20A8     		add	r0, sp, #128
 2443 001e 0021     		mov	r1, #0
 2444 0020 FFF7FEFF 		bl	memset
 2445              	.LVL319:
 695:.\BLEApplication.c ****     char AdvDataLength=0;
 2446              		.loc 1 695 0
 2447 0024 0023     		mov	r3, #0
 2448 0026 6A46     		mov	r2, sp
 698:.\BLEApplication.c ****     uint32 WriteDataToFlash=0;
 2449              		.loc 1 698 0
 2450 0028 1726     		mov	r6, #23
 695:.\BLEApplication.c ****     char AdvDataLength=0;
 2451              		.loc 1 695 0
 2452 002a 1383     		strh	r3, [r2, #24]
 696:.\BLEApplication.c ****     char AdvParamArray[2]={0};
 2453              		.loc 1 696 0
 2454 002c 1622     		mov	r2, #22
 697:.\BLEApplication.c ****     char AdvParam=0;
 2455              		.loc 1 697 0
 2456 002e 07AD     		add	r5, sp, #28
 696:.\BLEApplication.c ****     char AdvParamArray[2]={0};
 2457              		.loc 1 696 0
 2458 0030 6A44     		add	r2, r2, sp
 698:.\BLEApplication.c ****     uint32 WriteDataToFlash=0;
 2459              		.loc 1 698 0
 2460 0032 6E44     		add	r6, r6, sp
 708:.\BLEApplication.c ****     switch(At_Command_Idex)
 2461              		.loc 1 708 0
 2462 0034 201C     		mov	r0, r4
ARM GAS  C:\Users\Helon\AppData\Local\Temp\ccTLkFeM.s 			page 90


 696:.\BLEApplication.c ****     char AdvParamArray[2]={0};
 2463              		.loc 1 696 0
 2464 0036 1370     		strb	r3, [r2]
 697:.\BLEApplication.c ****     char AdvParam=0;
 2465              		.loc 1 697 0
 2466 0038 2B80     		strh	r3, [r5]
 698:.\BLEApplication.c ****     uint32 WriteDataToFlash=0;
 2467              		.loc 1 698 0
 2468 003a 3370     		strb	r3, [r6]
 699:.\BLEApplication.c **** //    double connintv=0;
 2469              		.loc 1 699 0
 2470 003c 0893     		str	r3, [sp, #32]
 2471              	.LVL320:
 708:.\BLEApplication.c ****     switch(At_Command_Idex)
 2472              		.loc 1 708 0
 2473 003e FFF7FEFF 		bl	Command_Identify
 2474              	.LVL321:
 709:.\BLEApplication.c ****     {
 2475              		.loc 1 709 0
 2476 0042 1928     		cmp	r0, #25
 2477 0044 00D9     		bls	.LCB2381
 2478 0046 46E3     		b	.L275	@long jump
 2479              	.LCB2381:
 2480 0048 FFF7FEFF 		bl	__gnu_thumb1_case_uhi
 2481              	.L278:
 2482 004c 1A00     		.2byte	(.L277-.L278)/2
 2483 004e 4503     		.2byte	(.L275-.L278)/2
 2484 0050 2800     		.2byte	(.L279-.L278)/2
 2485 0052 4503     		.2byte	(.L275-.L278)/2
 2486 0054 2A00     		.2byte	(.L280-.L278)/2
 2487 0056 3E00     		.2byte	(.L281-.L278)/2
 2488 0058 4503     		.2byte	(.L275-.L278)/2
 2489 005a 7900     		.2byte	(.L282-.L278)/2
 2490 005c 6800     		.2byte	(.L283-.L278)/2
 2491 005e 7300     		.2byte	(.L284-.L278)/2
 2492 0060 2101     		.2byte	(.L285-.L278)/2
 2493 0062 5701     		.2byte	(.L286-.L278)/2
 2494 0064 A701     		.2byte	(.L287-.L278)/2
 2495 0066 1302     		.2byte	(.L288-.L278)/2
 2496 0068 1C02     		.2byte	(.L289-.L278)/2
 2497 006a 4503     		.2byte	(.L275-.L278)/2
 2498 006c 4503     		.2byte	(.L275-.L278)/2
 2499 006e 4C02     		.2byte	(.L290-.L278)/2
 2500 0070 9601     		.2byte	(.L291-.L278)/2
 2501 0072 C702     		.2byte	(.L403-.L278)/2
 2502 0074 5C02     		.2byte	(.L293-.L278)/2
 2503 0076 6802     		.2byte	(.L294-.L278)/2
 2504 0078 9302     		.2byte	(.L295-.L278)/2
 2505 007a B002     		.2byte	(.L296-.L278)/2
 2506 007c 2C03     		.2byte	(.L297-.L278)/2
 2507 007e C902     		.2byte	(.L298-.L278)/2
 2508              		.p2align 1
 2509              	.L277:
 718:.\BLEApplication.c **** //            printf("AT+RESET=1\r\n");
 2510              		.loc 1 718 0
 2511 0080 CF48     		ldr	r0, .L411
 2512              	.LVL322:
ARM GAS  C:\Users\Helon\AppData\Local\Temp\ccTLkFeM.s 			page 91


 2513 0082 FFF7FEFF 		bl	puts
 2514              	.LVL323:
 2515              	.L299:
 721:.\BLEApplication.c ****             CySoftwareReset();
 2516              		.loc 1 721 0
 2517 0086 FFF7FEFF 		bl	UART_SpiUartGetTxBufferSize
 2518              	.LVL324:
 2519 008a CE4B     		ldr	r3, .L411+4
 2520 008c 1B68     		ldr	r3, [r3]
 2521 008e 1B04     		lsl	r3, r3, #16
 2522 0090 DB17     		asr	r3, r3, #31
 2523 0092 8342     		cmp	r3, r0
 2524 0094 F7D1     		bne	.L299
 722:.\BLEApplication.c ****         break;
 2525              		.loc 1 722 0
 2526 0096 FFF7FEFF 		bl	CySoftwareReset
 2527              	.LVL325:
 2528 009a 1CE3     		b	.L275
 2529              	.LVL326:
 2530              	.L279:
 728:.\BLEApplication.c ****         break;
 2531              		.loc 1 728 0
 2532 009c CA48     		ldr	r0, .L411+8
 2533              	.LVL327:
 2534 009e 0AE3     		b	.L400
 2535              	.LVL328:
 2536              	.L280:
 738:.\BLEApplication.c ****                 CyBle_GetDeviceAddress(&DeviceAddr);
 2537              		.loc 1 738 0
 2538 00a0 637A     		ldrb	r3, [r4, #9]
 2539 00a2 CA4C     		ldr	r4, .L411+12
 2540              	.LVL329:
 2541 00a4 3F2B     		cmp	r3, #63
 2542 00a6 02D1     		bne	.L300
 739:.\BLEApplication.c ****                 printf("+LADDR:<0x%02X%02X%02X%02X%02X%02X>\r\n",                  
 2543              		.loc 1 739 0
 2544 00a8 201C     		mov	r0, r4
 2545              	.LVL330:
 2546 00aa FFF7FEFF 		bl	CyBle_GetDeviceAddress
 2547              	.LVL331:
 2548              	.L300:
 740:.\BLEApplication.c ****                     DeviceAddr.bdAddr[5],
 2549              		.loc 1 740 0
 2550 00ae A078     		ldrb	r0, [r4, #2]
 2551 00b0 6179     		ldrb	r1, [r4, #5]
 2552 00b2 2279     		ldrb	r2, [r4, #4]
 2553 00b4 E378     		ldrb	r3, [r4, #3]
 2554 00b6 0090     		str	r0, [sp]
 2555 00b8 6078     		ldrb	r0, [r4, #1]
 2556 00ba 0190     		str	r0, [sp, #4]
 2557 00bc 2078     		ldrb	r0, [r4]
 2558 00be 0290     		str	r0, [sp, #8]
 2559 00c0 C348     		ldr	r0, .L411+16
 2560 00c2 FFF7FEFF 		bl	printf
 2561              	.LVL332:
 2562 00c6 06E3     		b	.L275
 2563              	.LVL333:
ARM GAS  C:\Users\Helon\AppData\Local\Temp\ccTLkFeM.s 			page 92


 2564              	.L281:
 751:.\BLEApplication.c ****              if(Peripheral==Role)
 2565              		.loc 1 751 0
 2566 00c8 237A     		ldrb	r3, [r4, #8]
 2567              	.LVL334:
 752:.\BLEApplication.c ****              {
 2568              		.loc 1 752 0
 2569 00ca C24C     		ldr	r4, .L411+20
 2570              	.LVL335:
 2571 00cc 6578     		ldrb	r5, [r4, #1]
 2572 00ce 002D     		cmp	r5, #0
 2573 00d0 33D1     		bne	.L301
 754:.\BLEApplication.c ****                 {
 2574              		.loc 1 754 0
 2575 00d2 3C2B     		cmp	r3, #60
 2576 00d4 08D0     		beq	.L302
 2577 00d6 3F2B     		cmp	r3, #63
 2578 00d8 00D0     		beq	.LCB2461
 2579 00da FCE2     		b	.L275	@long jump
 2580              	.LCB2461:
 757:.\BLEApplication.c ****                         printf("+NAME=<%s>\r\n",Name);
 2581              		.loc 1 757 0
 2582 00dc 09A8     		add	r0, sp, #36
 2583              	.LVL336:
 2584 00de FFF7FEFF 		bl	CyBle_GapGetLocalName
 2585              	.LVL337:
 758:.\BLEApplication.c **** //                        free(Name);
 2586              		.loc 1 758 0
 2587 00e2 BD48     		ldr	r0, .L411+24
 2588 00e4 09A9     		add	r1, sp, #36
 2589 00e6 0AE2     		b	.L401
 2590              	.LVL338:
 2591              	.L302:
 762:.\BLEApplication.c ****                         {
 2592              		.loc 1 762 0
 2593 00e8 BC4B     		ldr	r3, .L411+28
 2594              	.LVL339:
 2595 00ea 1B78     		ldrb	r3, [r3]
 2596 00ec 022B     		cmp	r3, #2
 2597 00ee 1ED0     		beq	.L304
 764:.\BLEApplication.c ****                             memset(Name,0,sizeof(char8)*27);
 2598              		.loc 1 764 0
 2599 00f0 FFF7FEFF 		bl	CyBle_GappStopAdvertisement
 2600              	.LVL340:
 765:.\BLEApplication.c ****                             memcpy(Name,RX_BUFFER+9,Buffer_Length-11);
 2601              		.loc 1 765 0
 2602 00f4 291C     		mov	r1, r5
 2603 00f6 1B22     		mov	r2, #27
 2604 00f8 09A8     		add	r0, sp, #36
 2605 00fa FFF7FEFF 		bl	memset
 2606              	.LVL341:
 766:.\BLEApplication.c ****                             API_RESULT=CyBle_GapSetLocalName(Name);                            
 2607              		.loc 1 766 0
 2608 00fe 211C     		mov	r1, r4
 2609 0100 627E     		ldrb	r2, [r4, #25]
 2610 0102 2331     		add	r1, r1, #35
 2611 0104 0B3A     		sub	r2, r2, #11
ARM GAS  C:\Users\Helon\AppData\Local\Temp\ccTLkFeM.s 			page 93


 2612 0106 09A8     		add	r0, sp, #36
 2613 0108 FFF7FEFF 		bl	memcpy
 2614              	.LVL342:
 767:.\BLEApplication.c ****                             if(API_RESULT==CYBLE_ERROR_OK)
 2615              		.loc 1 767 0
 2616 010c 09A8     		add	r0, sp, #36
 2617 010e FFF7FEFF 		bl	CyBle_GapSetLocalName
 2618              	.LVL343:
 2619              	.L399:
 768:.\BLEApplication.c ****                             {
 2620              		.loc 1 768 0
 2621 0112 0028     		cmp	r0, #0
 2622 0114 00D1     		bne	.LCB2506
 2623 0116 60E2     		b	.L403	@long jump
 2624              	.LCB2506:
 2625              	.L305:
 776:.\BLEApplication.c ****                             }
 2626              		.loc 1 776 0
 2627 0118 B148     		ldr	r0, .L411+32
 2628              	.LVL344:
 2629 011a CCE2     		b	.L400
 2630              	.LVL345:
 2631              	.L283:
 812:.\BLEApplication.c ****             {
 2632              		.loc 1 812 0
 2633 011c AD4A     		ldr	r2, .L411+20
 811:.\BLEApplication.c ****             if(Peripheral==Role)
 2634              		.loc 1 811 0
 2635 011e 237A     		ldrb	r3, [r4, #8]
 2636              	.LVL346:
 812:.\BLEApplication.c ****             {
 2637              		.loc 1 812 0
 2638 0120 5578     		ldrb	r5, [r2, #1]
 2639 0122 002D     		cmp	r5, #0
 2640 0124 09D1     		bne	.L301
 814:.\BLEApplication.c ****                 {
 2641              		.loc 1 814 0
 2642 0126 AD4A     		ldr	r2, .L411+28
 2643 0128 1278     		ldrb	r2, [r2]
 2644 012a 032A     		cmp	r2, #3
 2645 012c 0FD0     		beq	.L407
 2646              	.LVL347:
 2647              	.L304:
 783:.\BLEApplication.c **** //                            printf("+NAME=<INVALID>\r\n"); 
 2648              		.loc 1 783 0
 2649 012e AD48     		ldr	r0, .L411+36
 2650 0130 C1E2     		b	.L400
 2651              	.LVL348:
 2652              	.L284:
 862:.\BLEApplication.c ****             {
 2653              		.loc 1 862 0
 2654 0132 A84B     		ldr	r3, .L411+20
 2655 0134 5B78     		ldrb	r3, [r3, #1]
 2656 0136 002B     		cmp	r3, #0
 2657 0138 53D0     		beq	.L408
 2658              	.LVL349:
 2659              	.L301:
ARM GAS  C:\Users\Helon\AppData\Local\Temp\ccTLkFeM.s 			page 94


 792:.\BLEApplication.c ****             }
 2660              		.loc 1 792 0
 2661 013a AB48     		ldr	r0, .L411+40
 2662 013c BBE2     		b	.L400
 2663              	.LVL350:
 2664              	.L282:
 801:.\BLEApplication.c ****                 TxPower_Handler(idx);
 2665              		.loc 1 801 0
 2666 013e A54B     		ldr	r3, .L411+20
 800:.\BLEApplication.c ****             if(Role==Peripheral)
 2667              		.loc 1 800 0
 2668 0140 E079     		ldrb	r0, [r4, #7]
 2669              	.LVL351:
 801:.\BLEApplication.c ****                 TxPower_Handler(idx);
 2670              		.loc 1 801 0
 2671 0142 5B78     		ldrb	r3, [r3, #1]
 2672 0144 002B     		cmp	r3, #0
 2673 0146 F8D1     		bne	.L301
 802:.\BLEApplication.c ****              else
 2674              		.loc 1 802 0
 2675 0148 FFF7FEFF 		bl	TxPower_Handler
 2676              	.LVL352:
 2677 014c C3E2     		b	.L275
 2678              	.LVL353:
 2679              	.L407:
 816:.\BLEApplication.c ****                     {
 2680              		.loc 1 816 0
 2681 014e 3C2B     		cmp	r3, #60
 2682 0150 06D0     		beq	.L306
 2683 0152 3F2B     		cmp	r3, #63
 2684 0154 00D0     		beq	.LCB2577
 2685 0156 BEE2     		b	.L275	@long jump
 2686              	.LCB2577:
 840:.\BLEApplication.c ****                             for(i=0;i<cyBle_discoveryModeInfo.advData->advDataLen;i++)
 2687              		.loc 1 840 0
 2688 0158 A448     		ldr	r0, .L411+44
 2689              	.LVL354:
 2690 015a FFF7FEFF 		bl	printf
 2691              	.LVL355:
 2692 015e 32E0     		b	.L308
 2693              	.LVL356:
 2694              	.L306:
 819:.\BLEApplication.c ****                             memcpy(StrAdvDataLength,SerialData+9,2);
 2695              		.loc 1 819 0
 2696 0160 18AE     		add	r6, sp, #96
 2697 0162 291C     		mov	r1, r5
 2698 0164 1F22     		mov	r2, #31
 2699 0166 301C     		mov	r0, r6
 2700              	.LVL357:
 2701 0168 FFF7FEFF 		bl	memset
 2702              	.LVL358:
 821:.\BLEApplication.c ****                             advDiscData.advDataLen=AdvDataLength;
 2703              		.loc 1 821 0
 2704 016c 1627     		mov	r7, #22
 820:.\BLEApplication.c ****                             StrToHex(&AdvDataLength,StrAdvDataLength,1);
 2705              		.loc 1 820 0
 2706 016e 211C     		mov	r1, r4
ARM GAS  C:\Users\Helon\AppData\Local\Temp\ccTLkFeM.s 			page 95


 2707 0170 0222     		mov	r2, #2
 2708 0172 0931     		add	r1, r1, #9
 821:.\BLEApplication.c ****                             advDiscData.advDataLen=AdvDataLength;
 2709              		.loc 1 821 0
 2710 0174 6F44     		add	r7, r7, sp
 820:.\BLEApplication.c ****                             StrToHex(&AdvDataLength,StrAdvDataLength,1);
 2711              		.loc 1 820 0
 2712 0176 06A8     		add	r0, sp, #24
 2713 0178 FFF7FEFF 		bl	memcpy
 2714              	.LVL359:
 821:.\BLEApplication.c ****                             advDiscData.advDataLen=AdvDataLength;
 2715              		.loc 1 821 0
 2716 017c 381C     		mov	r0, r7
 2717 017e 06A9     		add	r1, sp, #24
 2718 0180 0122     		mov	r2, #1
 2719 0182 FFF7FEFF 		bl	StrToHex
 2720              	.LVL360:
 823:.\BLEApplication.c ****                             StrToHex(AdvData,StrAdvData,sizeof(StrAdvData)/sizeof(char)/2);
 2721              		.loc 1 823 0
 2722 0186 211C     		mov	r1, r4
 822:.\BLEApplication.c ****                             memcpy(StrAdvData,SerialData+12,AdvDataLength*2);
 2723              		.loc 1 822 0
 2724 0188 3A78     		ldrb	r2, [r7]
 823:.\BLEApplication.c ****                             StrToHex(AdvData,StrAdvData,sizeof(StrAdvData)/sizeof(char)/2);
 2725              		.loc 1 823 0
 2726 018a 0C31     		add	r1, r1, #12
 822:.\BLEApplication.c ****                             memcpy(StrAdvData,SerialData+12,AdvDataLength*2);
 2727              		.loc 1 822 0
 2728 018c F277     		strb	r2, [r6, #31]
 823:.\BLEApplication.c ****                             StrToHex(AdvData,StrAdvData,sizeof(StrAdvData)/sizeof(char)/2);
 2729              		.loc 1 823 0
 2730 018e 20A8     		add	r0, sp, #128
 2731 0190 5200     		lsl	r2, r2, #1
 2732 0192 FFF7FEFF 		bl	memcpy
 2733              	.LVL361:
 824:.\BLEApplication.c ****                             memcpy(advDiscData.advData,AdvData,advDiscData.advDataLen);
 2734              		.loc 1 824 0
 2735 0196 10A8     		add	r0, sp, #64
 2736 0198 20A9     		add	r1, sp, #128
 2737 019a 1F22     		mov	r2, #31
 2738 019c FFF7FEFF 		bl	StrToHex
 2739              	.LVL362:
 825:.\BLEApplication.c ****                             API_RESULT=CyBle_GapUpdateAdvData(&advDiscData,NULL);
 2740              		.loc 1 825 0
 2741 01a0 10A9     		add	r1, sp, #64
 2742 01a2 F27F     		ldrb	r2, [r6, #31]
 2743 01a4 301C     		mov	r0, r6
 2744 01a6 FFF7FEFF 		bl	memcpy
 2745              	.LVL363:
 826:.\BLEApplication.c ****                             if(CYBLE_ERROR_OK==API_RESULT)
 2746              		.loc 1 826 0
 2747 01aa 301C     		mov	r0, r6
 2748 01ac 291C     		mov	r1, r5
 2749 01ae FFF7FEFF 		bl	CyBle_GapUpdateAdvData
 2750              	.LVL364:
 827:.\BLEApplication.c ****                             {
 2751              		.loc 1 827 0
ARM GAS  C:\Users\Helon\AppData\Local\Temp\ccTLkFeM.s 			page 96


 2752 01b2 0028     		cmp	r0, #0
 2753 01b4 B0D1     		bne	.L305
 830:.\BLEApplication.c ****                                 memcpy(cyBle_discoveryModeInfo.advData->advData,AdvData,AdvDataLeng
 2754              		.loc 1 830 0
 2755 01b6 8E4B     		ldr	r3, .L411+48
 2756 01b8 3A78     		ldrb	r2, [r7]
 2757 01ba 9868     		ldr	r0, [r3, #8]
 2758              	.LVL365:
 831:.\BLEApplication.c ****                                 printf("AT+OK\r\n");
 2759              		.loc 1 831 0
 2760 01bc 10A9     		add	r1, sp, #64
 830:.\BLEApplication.c ****                                 memcpy(cyBle_discoveryModeInfo.advData->advData,AdvData,AdvDataLeng
 2761              		.loc 1 830 0
 2762 01be C277     		strb	r2, [r0, #31]
 831:.\BLEApplication.c ****                                 printf("AT+OK\r\n");
 2763              		.loc 1 831 0
 2764 01c0 FFF7FEFF 		bl	memcpy
 2765              	.LVL366:
 2766 01c4 09E2     		b	.L403
 2767              	.LVL367:
 2768              	.L308:
 841:.\BLEApplication.c ****                             {
 2769              		.loc 1 841 0
 2770 01c6 8A4B     		ldr	r3, .L411+48
 2771 01c8 9B68     		ldr	r3, [r3, #8]
 2772 01ca DA7F     		ldrb	r2, [r3, #31]
 2773 01cc AA42     		cmp	r2, r5
 2774 01ce 06D9     		bls	.L409
 843:.\BLEApplication.c ****                             }
 2775              		.loc 1 843 0
 2776 01d0 595D     		ldrb	r1, [r3, r5]
 2777 01d2 8848     		ldr	r0, .L411+52
 841:.\BLEApplication.c ****                             {
 2778              		.loc 1 841 0
 2779 01d4 0135     		add	r5, r5, #1
 2780              	.LVL368:
 843:.\BLEApplication.c ****                             }
 2781              		.loc 1 843 0
 2782 01d6 FFF7FEFF 		bl	printf
 2783              	.LVL369:
 841:.\BLEApplication.c ****                             {
 2784              		.loc 1 841 0
 2785 01da EDB2     		uxtb	r5, r5
 2786              	.LVL370:
 2787 01dc F3E7     		b	.L308
 2788              	.L409:
 845:.\BLEApplication.c ****                         break;
 2789              		.loc 1 845 0
 2790 01de 8648     		ldr	r0, .L411+56
 2791 01e0 69E2     		b	.L400
 2792              	.LVL371:
 2793              	.L408:
 865:.\BLEApplication.c ****                 {
 2794              		.loc 1 865 0
 2795 01e2 7E4B     		ldr	r3, .L411+28
 864:.\BLEApplication.c ****                 if((CYBLE_STATE_CONNECTED!=CyBle_GetState()))
 2796              		.loc 1 864 0
ARM GAS  C:\Users\Helon\AppData\Local\Temp\ccTLkFeM.s 			page 97


 2797 01e4 227A     		ldrb	r2, [r4, #8]
 2798              	.LVL372:
 865:.\BLEApplication.c ****                 {
 2799              		.loc 1 865 0
 2800 01e6 1B78     		ldrb	r3, [r3]
 2801 01e8 022B     		cmp	r3, #2
 2802 01ea A0D0     		beq	.L304
 867:.\BLEApplication.c ****                     {
 2803              		.loc 1 867 0
 2804 01ec 3C2A     		cmp	r2, #60
 2805 01ee 26D0     		beq	.L310
 2806 01f0 3F2A     		cmp	r2, #63
 2807 01f2 00D0     		beq	.LCB2688
 2808 01f4 6FE2     		b	.L275	@long jump
 2809              	.LCB2688:
 870:.\BLEApplication.c ****                         AdvMax=(cyBle_discoveryModeInfo.advParam->advIntvMax)*0.625;               
 2810              		.loc 1 870 0
 2811 01f6 7E4D     		ldr	r5, .L411+48
 2812 01f8 6E68     		ldr	r6, [r5, #4]
 2813              	.LVL373:
 2814 01fa 3088     		ldrh	r0, [r6]
 2815              	.LVL374:
 2816 01fc FFF7FEFF 		bl	__aeabi_i2d
 2817              	.LVL375:
 2818 0200 0022     		mov	r2, #0
 2819 0202 7E4B     		ldr	r3, .L411+60
 2820 0204 FFF7FEFF 		bl	__aeabi_dmul
 2821              	.LVL376:
 2822 0208 FFF7FEFF 		bl	__aeabi_d2iz
 2823              	.LVL377:
 872:.\BLEApplication.c ****                         AdvMax,cyBle_discoveryModeInfo.advTo);
 2824              		.loc 1 872 0
 2825 020c 04B2     		sxth	r4, r0
 2826              	.LVL378:
 871:.\BLEApplication.c ****                         printf("+ADVI=<MIN=%hdms,MAX=%hdms,TIMEOUT=%hus>\r\n",AdvMin,
 2827              		.loc 1 871 0
 2828 020e 7088     		ldrh	r0, [r6, #2]
 2829              	.LVL379:
 2830 0210 FFF7FEFF 		bl	__aeabi_i2d
 2831              	.LVL380:
 2832 0214 0022     		mov	r2, #0
 2833 0216 794B     		ldr	r3, .L411+60
 2834 0218 FFF7FEFF 		bl	__aeabi_dmul
 2835              	.LVL381:
 2836 021c FFF7FEFF 		bl	__aeabi_d2iz
 2837              	.LVL382:
 872:.\BLEApplication.c ****                         AdvMax,cyBle_discoveryModeInfo.advTo);
 2838              		.loc 1 872 0
 2839 0220 2B8A     		ldrh	r3, [r5, #16]
 2840 0222 02B2     		sxth	r2, r0
 2841 0224 211C     		mov	r1, r4
 2842 0226 7648     		ldr	r0, .L411+64
 2843 0228 FFF7FEFF 		bl	printf
 2844              	.LVL383:
 2845              	.L312:
 874:.\BLEApplication.c ****                         break;
 2846              		.loc 1 874 0
ARM GAS  C:\Users\Helon\AppData\Local\Temp\ccTLkFeM.s 			page 98


 2847 022c FFF7FEFF 		bl	UART_SpiUartGetTxBufferSize
 2848              	.LVL384:
 2849 0230 644B     		ldr	r3, .L411+4
 2850 0232 1B68     		ldr	r3, [r3]
 2851 0234 1B04     		lsl	r3, r3, #16
 2852 0236 DB17     		asr	r3, r3, #31
 2853 0238 8342     		cmp	r3, r0
 2854 023a F7D1     		bne	.L312
 2855 023c 4BE2     		b	.L275
 2856              	.LVL385:
 2857              	.L310:
 878:.\BLEApplication.c ****                         {
 2858              		.loc 1 878 0
 2859 023e 032B     		cmp	r3, #3
 2860 0240 00D1     		bne	.LCB2747
 2861 0242 74E7     		b	.L304	@long jump
 2862              	.LCB2747:
 881:.\BLEApplication.c ****                             AdvParamArray[1]=SerialData[10];
 2863              		.loc 1 881 0
 2864 0244 637A     		ldrb	r3, [r4, #9]
 883:.\BLEApplication.c ****                             cyBle_discoveryModeInfo.advParam->advIntvMin=AdvParam;
 2865              		.loc 1 883 0
 2866 0246 301C     		mov	r0, r6
 2867              	.LVL386:
 881:.\BLEApplication.c ****                             AdvParamArray[1]=SerialData[10];
 2868              		.loc 1 881 0
 2869 0248 2B70     		strb	r3, [r5]
 882:.\BLEApplication.c ****                             StrToHex(&AdvParam,AdvParamArray,1);
 2870              		.loc 1 882 0
 2871 024a A37A     		ldrb	r3, [r4, #10]
 883:.\BLEApplication.c ****                             cyBle_discoveryModeInfo.advParam->advIntvMin=AdvParam;
 2872              		.loc 1 883 0
 2873 024c 291C     		mov	r1, r5
 2874 024e 0122     		mov	r2, #1
 2875              	.LVL387:
 882:.\BLEApplication.c ****                             StrToHex(&AdvParam,AdvParamArray,1);
 2876              		.loc 1 882 0
 2877 0250 6B70     		strb	r3, [r5, #1]
 883:.\BLEApplication.c ****                             cyBle_discoveryModeInfo.advParam->advIntvMin=AdvParam;
 2878              		.loc 1 883 0
 2879 0252 FFF7FEFF 		bl	StrToHex
 2880              	.LVL388:
 884:.\BLEApplication.c ****         //                    Ëé∑ÂèñAdvMaxÂÄº
 2881              		.loc 1 884 0
 2882 0256 664F     		ldr	r7, .L411+48
 2883 0258 3378     		ldrb	r3, [r6]
 2884 025a 7A68     		ldr	r2, [r7, #4]
 888:.\BLEApplication.c ****                             cyBle_discoveryModeInfo.advParam->advIntvMax=AdvParam;
 2885              		.loc 1 888 0
 2886 025c 301C     		mov	r0, r6
 884:.\BLEApplication.c ****         //                    Ëé∑ÂèñAdvMaxÂÄº
 2887              		.loc 1 884 0
 2888 025e 1380     		strh	r3, [r2]
 886:.\BLEApplication.c ****                             AdvParamArray[1]=SerialData[13];
 2889              		.loc 1 886 0
 2890 0260 237B     		ldrb	r3, [r4, #12]
 888:.\BLEApplication.c ****                             cyBle_discoveryModeInfo.advParam->advIntvMax=AdvParam;
ARM GAS  C:\Users\Helon\AppData\Local\Temp\ccTLkFeM.s 			page 99


 2891              		.loc 1 888 0
 2892 0262 291C     		mov	r1, r5
 886:.\BLEApplication.c ****                             AdvParamArray[1]=SerialData[13];
 2893              		.loc 1 886 0
 2894 0264 2B70     		strb	r3, [r5]
 887:.\BLEApplication.c ****                             StrToHex(&AdvParam,AdvParamArray,1);
 2895              		.loc 1 887 0
 2896 0266 637B     		ldrb	r3, [r4, #13]
 888:.\BLEApplication.c ****                             cyBle_discoveryModeInfo.advParam->advIntvMax=AdvParam;
 2897              		.loc 1 888 0
 2898 0268 0122     		mov	r2, #1
 887:.\BLEApplication.c ****                             StrToHex(&AdvParam,AdvParamArray,1);
 2899              		.loc 1 887 0
 2900 026a 6B70     		strb	r3, [r5, #1]
 888:.\BLEApplication.c ****                             cyBle_discoveryModeInfo.advParam->advIntvMax=AdvParam;
 2901              		.loc 1 888 0
 2902 026c FFF7FEFF 		bl	StrToHex
 2903              	.LVL389:
 889:.\BLEApplication.c ****         //                      Ëé∑ÂèñAdvToÂÄº
 2904              		.loc 1 889 0
 2905 0270 3378     		ldrb	r3, [r6]
 2906 0272 7A68     		ldr	r2, [r7, #4]
 893:.\BLEApplication.c ****                             cyBle_discoveryModeInfo.advTo=AdvParam;
 2907              		.loc 1 893 0
 2908 0274 301C     		mov	r0, r6
 889:.\BLEApplication.c ****         //                      Ëé∑ÂèñAdvToÂÄº
 2909              		.loc 1 889 0
 2910 0276 5380     		strh	r3, [r2, #2]
 891:.\BLEApplication.c ****                             AdvParamArray[1]=SerialData[16];
 2911              		.loc 1 891 0
 2912 0278 E37B     		ldrb	r3, [r4, #15]
 893:.\BLEApplication.c ****                             cyBle_discoveryModeInfo.advTo=AdvParam;
 2913              		.loc 1 893 0
 2914 027a 291C     		mov	r1, r5
 891:.\BLEApplication.c ****                             AdvParamArray[1]=SerialData[16];
 2915              		.loc 1 891 0
 2916 027c 2B70     		strb	r3, [r5]
 892:.\BLEApplication.c ****                             StrToHex(&AdvParam,AdvParamArray,1);
 2917              		.loc 1 892 0
 2918 027e 237C     		ldrb	r3, [r4, #16]
 893:.\BLEApplication.c ****                             cyBle_discoveryModeInfo.advTo=AdvParam;
 2919              		.loc 1 893 0
 2920 0280 0122     		mov	r2, #1
 892:.\BLEApplication.c ****                             StrToHex(&AdvParam,AdvParamArray,1);
 2921              		.loc 1 892 0
 2922 0282 6B70     		strb	r3, [r5, #1]
 893:.\BLEApplication.c ****                             cyBle_discoveryModeInfo.advTo=AdvParam;
 2923              		.loc 1 893 0
 2924 0284 FFF7FEFF 		bl	StrToHex
 2925              	.LVL390:
 894:.\BLEApplication.c ****                             printf("AT+OK\r\n");
 2926              		.loc 1 894 0
 2927 0288 3378     		ldrb	r3, [r6]
 2928 028a 3B82     		strh	r3, [r7, #16]
 2929 028c A5E1     		b	.L403
 2930              	.LVL391:
 2931              	.L285:
ARM GAS  C:\Users\Helon\AppData\Local\Temp\ccTLkFeM.s 			page 100


 923:.\BLEApplication.c ****             {
 2932              		.loc 1 923 0
 2933 028e 637A     		ldrb	r3, [r4, #9]
 2934 0290 3C2B     		cmp	r3, #60
 2935 0292 0FD0     		beq	.L313
 2936 0294 3F2B     		cmp	r3, #63
 2937 0296 00D0     		beq	.LCB2802
 2938 0298 1DE2     		b	.L275	@long jump
 2939              	.LCB2802:
 926:.\BLEApplication.c ****                 {
 2940              		.loc 1 926 0
 2941 029a 504B     		ldr	r3, .L411+28
 2942 029c 1B78     		ldrb	r3, [r3]
 2943 029e 022B     		cmp	r3, #2
 2944 02a0 00D0     		beq	.LCB2806
 2945 02a2 44E7     		b	.L304	@long jump
 2946              	.LCB2806:
 930:.\BLEApplication.c ****                     ConnParam.supervisionTO,ConnParam.connLatency);
 2947              		.loc 1 930 0
 2948 02a4 574B     		ldr	r3, .L411+68
 2949 02a6 5848     		ldr	r0, .L411+72
 2950              	.LVL392:
 2951 02a8 5988     		ldrh	r1, [r3, #2]
 2952 02aa DA88     		ldrh	r2, [r3, #6]
 2953 02ac 9B88     		ldrh	r3, [r3, #4]
 2954 02ae FFF7FEFF 		bl	printf
 2955              	.LVL393:
 2956 02b2 10E2     		b	.L275
 2957              	.LVL394:
 2958              	.L313:
 941:.\BLEApplication.c ****                 {
 2959              		.loc 1 941 0
 2960 02b4 474B     		ldr	r3, .L411+20
 2961 02b6 5F78     		ldrb	r7, [r3, #1]
 2962 02b8 012F     		cmp	r7, #1
 2963 02ba 00D0     		beq	.LCB2825
 2964 02bc 3DE7     		b	.L301	@long jump
 2965              	.LCB2825:
 944:.\BLEApplication.c ****                     AdvParamArray[1]=SerialData[11];
 2966              		.loc 1 944 0
 2967 02be A37A     		ldrb	r3, [r4, #10]
 946:.\BLEApplication.c ****                     connParam.connIntvMin=AdvParam;
 2968              		.loc 1 946 0
 2969 02c0 301C     		mov	r0, r6
 2970              	.LVL395:
 944:.\BLEApplication.c ****                     AdvParamArray[1]=SerialData[11];
 2971              		.loc 1 944 0
 2972 02c2 2B70     		strb	r3, [r5]
 945:.\BLEApplication.c ****                     StrToHex(&AdvParam,AdvParamArray,1);
 2973              		.loc 1 945 0
 2974 02c4 E37A     		ldrb	r3, [r4, #11]
 946:.\BLEApplication.c ****                     connParam.connIntvMin=AdvParam;
 2975              		.loc 1 946 0
 2976 02c6 291C     		mov	r1, r5
 2977 02c8 3A1C     		mov	r2, r7
 945:.\BLEApplication.c ****                     StrToHex(&AdvParam,AdvParamArray,1);
 2978              		.loc 1 945 0
ARM GAS  C:\Users\Helon\AppData\Local\Temp\ccTLkFeM.s 			page 101


 2979 02ca 6B70     		strb	r3, [r5, #1]
 946:.\BLEApplication.c ****                     connParam.connIntvMin=AdvParam;
 2980              		.loc 1 946 0
 2981 02cc FFF7FEFF 		bl	StrToHex
 2982              	.LVL396:
 947:.\BLEApplication.c **** //                    Ëé∑ÂèñÊúÄÂ§ßËøûÊé•Èó¥Èöî                    
 2983              		.loc 1 947 0
 2984 02d0 3378     		ldrb	r3, [r6]
 2985 02d2 4E4A     		ldr	r2, .L411+76
 951:.\BLEApplication.c ****                     connParam.connIntvMax=AdvParam;
 2986              		.loc 1 951 0
 2987 02d4 301C     		mov	r0, r6
 947:.\BLEApplication.c **** //                    Ëé∑ÂèñÊúÄÂ§ßËøûÊé•Èó¥Èöî                    
 2988              		.loc 1 947 0
 2989 02d6 1380     		strh	r3, [r2]
 949:.\BLEApplication.c ****                     AdvParamArray[1]=SerialData[14];
 2990              		.loc 1 949 0
 2991 02d8 637B     		ldrb	r3, [r4, #13]
 951:.\BLEApplication.c ****                     connParam.connIntvMax=AdvParam;
 2992              		.loc 1 951 0
 2993 02da 291C     		mov	r1, r5
 949:.\BLEApplication.c ****                     AdvParamArray[1]=SerialData[14];
 2994              		.loc 1 949 0
 2995 02dc 2B70     		strb	r3, [r5]
 950:.\BLEApplication.c ****                     StrToHex(&AdvParam,AdvParamArray,1);
 2996              		.loc 1 950 0
 2997 02de A37B     		ldrb	r3, [r4, #14]
 951:.\BLEApplication.c ****                     connParam.connIntvMax=AdvParam;
 2998              		.loc 1 951 0
 2999 02e0 3A1C     		mov	r2, r7
 950:.\BLEApplication.c ****                     StrToHex(&AdvParam,AdvParamArray,1);
 3000              		.loc 1 950 0
 3001 02e2 6B70     		strb	r3, [r5, #1]
 951:.\BLEApplication.c ****                     connParam.connIntvMax=AdvParam;
 3002              		.loc 1 951 0
 3003 02e4 FFF7FEFF 		bl	StrToHex
 3004              	.LVL397:
 952:.\BLEApplication.c **** //                    ÂèëËµ∑ËøûÊé•Èó¥ÈöîÊõ¥Êñ∞ËØ∑Ê±Ç
 3005              		.loc 1 952 0
 3006 02e8 3378     		ldrb	r3, [r6]
 3007 02ea 484A     		ldr	r2, .L411+76
 3008 02ec 5380     		strh	r3, [r2, #2]
 954:.\BLEApplication.c ****                     if(CYBLE_ERROR_OK==API_RESULT)
 3009              		.loc 1 954 0
 3010 02ee 484B     		ldr	r3, .L411+80
 3011 02f0 111C     		mov	r1, r2
 3012 02f2 1878     		ldrb	r0, [r3]
 3013 02f4 FFF7FEFF 		bl	CyBle_GapcConnectionParamUpdateRequest
 3014              	.LVL398:
 3015 02f8 0BE7     		b	.L399
 3016              	.LVL399:
 3017              	.L286:
 980:.\BLEApplication.c ****             {
 3018              		.loc 1 980 0
 3019 02fa 237A     		ldrb	r3, [r4, #8]
 3020 02fc 312B     		cmp	r3, #49
 3021 02fe 23D0     		beq	.L316
ARM GAS  C:\Users\Helon\AppData\Local\Temp\ccTLkFeM.s 			page 102


 3022 0300 3F2B     		cmp	r3, #63
 3023 0302 03D0     		beq	.L317
 3024 0304 302B     		cmp	r3, #48
 3025 0306 00D0     		beq	.LCB2875
 3026 0308 E5E1     		b	.L275	@long jump
 3027              	.LCB2875:
 3028 030a 07E0     		b	.L410
 3029              	.L317:
 983:.\BLEApplication.c ****                     {
 3030              		.loc 1 983 0
 3031 030c 314B     		ldr	r3, .L411+20
 985:.\BLEApplication.c ****                     }
 3032              		.loc 1 985 0
 3033 030e 4148     		ldr	r0, .L411+84
 3034              	.LVL400:
 983:.\BLEApplication.c ****                     {
 3035              		.loc 1 983 0
 3036 0310 5B78     		ldrb	r3, [r3, #1]
 3037 0312 002B     		cmp	r3, #0
 3038 0314 00D1     		bne	.LCB2885
 3039 0316 CEE1     		b	.L400	@long jump
 3040              	.LCB2885:
 989:.\BLEApplication.c ****                     }
 3041              		.loc 1 989 0
 3042 0318 3F48     		ldr	r0, .L411+88
 3043 031a CCE1     		b	.L400
 3044              	.LVL401:
 3045              	.L410:
 994:.\BLEApplication.c ****                     {
 3046              		.loc 1 994 0
 3047 031c 2F4B     		ldr	r3, .L411+28
 3048 031e 1B78     		ldrb	r3, [r3]
 3049 0320 022B     		cmp	r3, #2
 3050 0322 00D1     		bne	.LCB2895
 3051 0324 03E7     		b	.L304	@long jump
 3052              	.LCB2895:
 996:.\BLEApplication.c ****                         if(USER_SFLASH_WRITE_SUCCESSFUL==WriteUserSFlashRow(0,&WriteDataToFlash))
 3053              		.loc 1 996 0
 3054 0326 0024     		mov	r4, #0
 3055              	.LVL402:
 997:.\BLEApplication.c ****                         {
 3056              		.loc 1 997 0
 3057 0328 08A9     		add	r1, sp, #32
 3058 032a 201C     		mov	r0, r4
 3059              	.LVL403:
 996:.\BLEApplication.c ****                         if(USER_SFLASH_WRITE_SUCCESSFUL==WriteUserSFlashRow(0,&WriteDataToFlash))
 3060              		.loc 1 996 0
 3061 032c 0894     		str	r4, [sp, #32]
 997:.\BLEApplication.c ****                         {
 3062              		.loc 1 997 0
 3063 032e FFF7FEFF 		bl	WriteUserSFlashRow
 3064              	.LVL404:
 3065 0332 A023     		mov	r3, #160
 3066 0334 1B06     		lsl	r3, r3, #24
 3067 0336 9842     		cmp	r0, r3
 3068 0338 00D0     		beq	.LCB2909
 3069 033a CCE1     		b	.L275	@long jump
ARM GAS  C:\Users\Helon\AppData\Local\Temp\ccTLkFeM.s 			page 103


 3070              	.LCB2909:
1000:.\BLEApplication.c ****                             //ÂºÄÂßãÂπøÊí≠
 3071              		.loc 1 1000 0
 3072 033c FFF7FEFF 		bl	CyBle_GapcStopScan
 3073              	.LVL405:
1002:.\BLEApplication.c ****                             Role=Peripheral;
 3074              		.loc 1 1002 0
 3075 0340 201C     		mov	r0, r4
 3076 0342 FFF7FEFF 		bl	CyBle_GappStartAdvertisement
 3077              	.LVL406:
 3078 0346 14E0     		b	.L406
 3079              	.LVL407:
 3080              	.L316:
1017:.\BLEApplication.c ****                     {
 3081              		.loc 1 1017 0
 3082 0348 244B     		ldr	r3, .L411+28
 3083 034a 1B78     		ldrb	r3, [r3]
 3084 034c 022B     		cmp	r3, #2
 3085 034e 00D1     		bne	.LCB2925
 3086 0350 EDE6     		b	.L304	@long jump
 3087              	.LCB2925:
1019:.\BLEApplication.c ****                         if(USER_SFLASH_WRITE_SUCCESSFUL==WriteUserSFlashRow(0,&WriteDataToFlash))
 3088              		.loc 1 1019 0
 3089 0352 0124     		mov	r4, #1
 3090              	.LVL408:
1020:.\BLEApplication.c ****                         {
 3091              		.loc 1 1020 0
 3092 0354 0020     		mov	r0, #0
 3093              	.LVL409:
 3094 0356 08A9     		add	r1, sp, #32
1019:.\BLEApplication.c ****                         if(USER_SFLASH_WRITE_SUCCESSFUL==WriteUserSFlashRow(0,&WriteDataToFlash))
 3095              		.loc 1 1019 0
 3096 0358 0894     		str	r4, [sp, #32]
1020:.\BLEApplication.c ****                         {
 3097              		.loc 1 1020 0
 3098 035a FFF7FEFF 		bl	WriteUserSFlashRow
 3099              	.LVL410:
 3100 035e A023     		mov	r3, #160
 3101 0360 1B06     		lsl	r3, r3, #24
 3102 0362 9842     		cmp	r0, r3
 3103 0364 00D0     		beq	.LCB2939
 3104 0366 B6E1     		b	.L275	@long jump
 3105              	.LCB2939:
1023:.\BLEApplication.c **** //                        ÂºÄÂßãÊâ´Êèè
 3106              		.loc 1 1023 0
 3107 0368 FFF7FEFF 		bl	CyBle_GappStopAdvertisement
 3108              	.LVL411:
1025:.\BLEApplication.c ****                             Role=Central;
 3109              		.loc 1 1025 0
 3110 036c 0020     		mov	r0, #0
 3111 036e FFF7FEFF 		bl	CyBle_GapcStartScan
 3112              	.LVL412:
 3113              	.L406:
1026:.\BLEApplication.c ****                             printf("AT+OK\r\n");
 3114              		.loc 1 1026 0
 3115 0372 184B     		ldr	r3, .L411+20
 3116 0374 5C70     		strb	r4, [r3, #1]
ARM GAS  C:\Users\Helon\AppData\Local\Temp\ccTLkFeM.s 			page 104


 3117 0376 30E1     		b	.L403
 3118              	.LVL413:
 3119              	.L291:
1043:.\BLEApplication.c ****             {
 3120              		.loc 1 1043 0
 3121 0378 164B     		ldr	r3, .L411+20
 3122 037a 5B78     		ldrb	r3, [r3, #1]
 3123 037c 012B     		cmp	r3, #1
 3124 037e 00D0     		beq	.LCB2959
 3125 0380 DBE6     		b	.L301	@long jump
 3126              	.LCB2959:
1047:.\BLEApplication.c ****             }
 3127              		.loc 1 1047 0
 3128 0382 234A     		ldr	r2, .L411+80
1045:.\BLEApplication.c ****                 range.endHandle=0xFFFF;       
 3129              		.loc 1 1045 0
 3130 0384 18A9     		add	r1, sp, #96
 3131 0386 0B80     		strh	r3, [r1]
1047:.\BLEApplication.c ****             }
 3132              		.loc 1 1047 0
 3133 0388 5078     		ldrb	r0, [r2, #1]
 3134              	.LVL414:
1046:.\BLEApplication.c ****                 API_RESULT=CyBle_GattcDiscoverAllCharacteristicDescriptors(cyBle_connHandle,&range)
 3135              		.loc 1 1046 0
 3136 038a 023B     		sub	r3, r3, #2
 3137 038c 4B80     		strh	r3, [r1, #2]
1047:.\BLEApplication.c ****             }
 3138              		.loc 1 1047 0
 3139 038e 1378     		ldrb	r3, [r2]
 3140 0390 0002     		lsl	r0, r0, #8
 3141 0392 1843     		orr	r0, r3
 3142 0394 FFF7FEFF 		bl	CyBle_GattcDiscoverAllCharacteristicDescriptors
 3143              	.LVL415:
 3144 0398 9DE1     		b	.L275
 3145              	.LVL416:
 3146              	.L287:
1057:.\BLEApplication.c ****             {
 3147              		.loc 1 1057 0
 3148 039a 0E4D     		ldr	r5, .L411+20
 3149 039c 6E78     		ldrb	r6, [r5, #1]
 3150 039e 012E     		cmp	r6, #1
 3151 03a0 00D0     		beq	.LCB2984
 3152 03a2 CAE6     		b	.L301	@long jump
 3153              	.LCB2984:
1059:.\BLEApplication.c ****                 {
 3154              		.loc 1 1059 0
 3155 03a4 237A     		ldrb	r3, [r4, #8]
 3156 03a6 312B     		cmp	r3, #49
 3157 03a8 38D1     		bne	.L321
1061:.\BLEApplication.c ****                     {
 3158              		.loc 1 1061 0
 3159 03aa 0C4B     		ldr	r3, .L411+28
 3160 03ac 1B78     		ldrb	r3, [r3]
 3161 03ae 022B     		cmp	r3, #2
 3162 03b0 00D1     		bne	.LCB2991
 3163 03b2 BCE6     		b	.L304	@long jump
 3164              	.LCB2991:
ARM GAS  C:\Users\Helon\AppData\Local\Temp\ccTLkFeM.s 			page 105


1063:.\BLEApplication.c ****                         if(CYBLE_ERROR_OK==CyBle_GapcStartScan(CYBLE_SCANNING_FAST))
 3165              		.loc 1 1063 0
 3166 03b4 FFF7FEFF 		bl	ScanDeviceInfoInit
 3167              	.LVL417:
1064:.\BLEApplication.c ****                         {
 3168              		.loc 1 1064 0
 3169 03b8 0020     		mov	r0, #0
 3170 03ba FFF7FEFF 		bl	CyBle_GapcStartScan
 3171              	.LVL418:
 3172 03be A8E6     		b	.L399
 3173              	.L412:
 3174              		.align	2
 3175              	.L411:
 3176 03c0 6F010000 		.word	.LC66
 3177 03c4 08022440 		.word	1076101640
 3178 03c8 8A030000 		.word	.LC150
 3179 03cc 00000000 		.word	DeviceAddr
 3180 03d0 9B030000 		.word	.LC153
 3181 03d4 00000000 		.word	.LANCHOR0
 3182 03d8 C1030000 		.word	.LC156
 3183 03dc 00000000 		.word	cyBle_state
 3184 03e0 CE030000 		.word	.LC159
 3185 03e4 A2010000 		.word	.LC74
 3186 03e8 AC010000 		.word	.LC76
 3187 03ec D8030000 		.word	.LC164
 3188 03f0 00000000 		.word	cyBle_discoveryModeInfo
 3189 03f4 E2030000 		.word	.LC166
 3190 03f8 E7030000 		.word	.LC168
 3191 03fc 0000E43F 		.word	1071906816
 3192 0400 EA030000 		.word	.LC170
 3193 0404 00000000 		.word	ConnParam
 3194 0408 15040000 		.word	.LC172
 3195 040c 00000000 		.word	.LANCHOR1
 3196 0410 00000000 		.word	cyBle_connHandle
 3197 0414 51040000 		.word	.LC177
 3198 0418 65040000 		.word	.LC179
 3199              	.LVL419:
 3200              	.L321:
1079:.\BLEApplication.c ****                 {
 3201              		.loc 1 1079 0
 3202 041c 302B     		cmp	r3, #48
 3203 041e 0AD1     		bne	.L322
1081:.\BLEApplication.c ****                     {
 3204              		.loc 1 1081 0
 3205 0420 AE4B     		ldr	r3, .L413
 3206 0422 1B78     		ldrb	r3, [r3]
 3207 0424 042B     		cmp	r3, #4
 3208 0426 00D0     		beq	.LCB3036
 3209 0428 81E6     		b	.L304	@long jump
 3210              	.LCB3036:
1083:.\BLEApplication.c ****                         CyBle_GapcStopScan();                                   
 3211              		.loc 1 1083 0
 3212 042a FFF7FEFF 		bl	ScanDeviceInfoInit
 3213              	.LVL420:
1084:.\BLEApplication.c ****                         STOP_SCAN_FLAG=TRUE;
 3214              		.loc 1 1084 0
 3215 042e FFF7FEFF 		bl	CyBle_GapcStopScan
ARM GAS  C:\Users\Helon\AppData\Local\Temp\ccTLkFeM.s 			page 106


 3216              	.LVL421:
1085:.\BLEApplication.c ****                         printf("AT+OK\r\n"); 
 3217              		.loc 1 1085 0
 3218 0432 2E70     		strb	r6, [r5]
 3219 0434 D1E0     		b	.L403
 3220              	.LVL422:
 3221              	.L322:
1093:.\BLEApplication.c ****                 {
 3222              		.loc 1 1093 0
 3223 0436 3F2B     		cmp	r3, #63
 3224 0438 00D0     		beq	.LCB3049
 3225 043a 4CE1     		b	.L275	@long jump
 3226              	.LCB3049:
 3227 043c 0024     		mov	r4, #0
 3228              	.LVL423:
 3229              	.L323:
1095:.\BLEApplication.c ****                     {
 3230              		.loc 1 1095 0
 3231 043e A84B     		ldr	r3, .L413+4
 3232 0440 1B78     		ldrb	r3, [r3]
 3233 0442 A342     		cmp	r3, r4
 3234 0444 00D8     		bhi	.LCB3060
 3235 0446 46E1     		b	.L275	@long jump
 3236              	.LCB3060:
1098:.\BLEApplication.c ****                         DeviceInfo[i].DeviceList.bdAddr[5],
 3237              		.loc 1 1098 0
 3238 0448 1E25     		mov	r5, #30
 3239 044a 6543     		mul	r5, r4
 3240 044c A54E     		ldr	r6, .L413+8
1095:.\BLEApplication.c ****                     {
 3241              		.loc 1 1095 0
 3242 044e 0134     		add	r4, r4, #1
 3243              	.LVL424:
1098:.\BLEApplication.c ****                         DeviceInfo[i].DeviceList.bdAddr[5],
 3244              		.loc 1 1098 0
 3245 0450 7019     		add	r0, r6, r5
1097:.\BLEApplication.c ****                         DeviceInfo[i].idx,
 3246              		.loc 1 1097 0
 3247 0452 C778     		ldrb	r7, [r0, #3]
 3248 0454 C179     		ldrb	r1, [r0, #7]
 3249 0456 4279     		ldrb	r2, [r0, #5]
 3250 0458 0379     		ldrb	r3, [r0, #4]
 3251 045a 0097     		str	r7, [sp]
 3252 045c 8778     		ldrb	r7, [r0, #2]
1095:.\BLEApplication.c ****                     {
 3253              		.loc 1 1095 0
 3254 045e E4B2     		uxtb	r4, r4
1097:.\BLEApplication.c ****                         DeviceInfo[i].idx,
 3255              		.loc 1 1097 0
 3256 0460 0197     		str	r7, [sp, #4]
 3257 0462 4078     		ldrb	r0, [r0, #1]
 3258 0464 0290     		str	r0, [sp, #8]
 3259 0466 A85D     		ldrb	r0, [r5, r6]
 3260 0468 0390     		str	r0, [sp, #12]
 3261 046a 9F48     		ldr	r0, .L413+12
 3262 046c FFF7FEFF 		bl	printf
 3263              	.LVL425:
ARM GAS  C:\Users\Helon\AppData\Local\Temp\ccTLkFeM.s 			page 107


 3264 0470 E5E7     		b	.L323
 3265              	.LVL426:
 3266              	.L288:
1118:.\BLEApplication.c ****             {
 3267              		.loc 1 1118 0
 3268 0472 9E4B     		ldr	r3, .L413+16
 3269 0474 5B78     		ldrb	r3, [r3, #1]
 3270 0476 012B     		cmp	r3, #1
 3271 0478 00D0     		beq	.LCB3093
 3272 047a 5EE6     		b	.L301	@long jump
 3273              	.LCB3093:
 3274              	.LVL427:
1121:.\BLEApplication.c ****             }
 3275              		.loc 1 1121 0
 3276 047c 607A     		ldrb	r0, [r4, #9]
 3277              	.LVL428:
 3278 047e FFF7FEFF 		bl	Connect_Device
 3279              	.LVL429:
 3280 0482 28E1     		b	.L275
 3281              	.LVL430:
 3282              	.L289:
1131:.\BLEApplication.c ****             {
 3283              		.loc 1 1131 0
 3284 0484 954B     		ldr	r3, .L413
 3285 0486 1B78     		ldrb	r3, [r3]
 3286 0488 022B     		cmp	r3, #2
 3287 048a 00D0     		beq	.LCB3110
 3288 048c 4FE6     		b	.L304	@long jump
 3289              	.LCB3110:
 3290              	.LVL431:
1134:.\BLEApplication.c ****                 {
 3291              		.loc 1 1134 0
 3292 048e E37A     		ldrb	r3, [r4, #11]
 3293 0490 312B     		cmp	r3, #49
 3294 0492 00D0     		beq	.LCB3115
 3295 0494 1FE1     		b	.L275	@long jump
 3296              	.LCB3115:
1137:.\BLEApplication.c ****                         if(CYBLE_ERROR_OK!=API_RESULT)  
 3297              		.loc 1 1137 0
 3298 0496 964B     		ldr	r3, .L413+20
 3299 0498 1878     		ldrb	r0, [r3]
 3300              	.LVL432:
 3301 049a FFF7FEFF 		bl	CyBle_GapDisconnect
 3302              	.LVL433:
 3303 049e 021E     		sub	r2, r0, #0
 3304              	.LVL434:
1138:.\BLEApplication.c ****                         {
 3305              		.loc 1 1138 0
 3306 04a0 02D1     		bne	.L326
1145:.\BLEApplication.c ****                             {
 3307              		.loc 1 1145 0
 3308 04a2 944D     		ldr	r5, .L413+24
 3309 04a4 2B7A     		ldrb	r3, [r5, #8]
 3310 04a6 04E0     		b	.L359
 3311              	.L326:
1140:.\BLEApplication.c ****                         }
 3312              		.loc 1 1140 0
ARM GAS  C:\Users\Helon\AppData\Local\Temp\ccTLkFeM.s 			page 108


 3313 04a8 0121     		mov	r1, #1
 3314 04aa 9348     		ldr	r0, .L413+28
 3315              	.LVL435:
 3316 04ac FFF7FEFF 		bl	printf
 3317              	.LVL436:
 3318 04b0 11E1     		b	.L275
 3319              	.LVL437:
 3320              	.L359:
1147:.\BLEApplication.c ****                                 {
 3321              		.loc 1 1147 0
 3322 04b2 141C     		mov	r4, r2
 3323              	.LVL438:
1145:.\BLEApplication.c ****                             {
 3324              		.loc 1 1145 0
 3325 04b4 D2B2     		uxtb	r2, r2
 3326 04b6 9A42     		cmp	r2, r3
 3327 04b8 00D3     		bcc	.LCB3149
 3328 04ba 8EE0     		b	.L403	@long jump
 3329              	.LCB3149:
1147:.\BLEApplication.c ****                                 {
 3330              		.loc 1 1147 0
 3331 04bc 2E5D     		ldrb	r6, [r5, r4]
 3332 04be 621C     		add	r2, r4, #1
 3333              	.LVL439:
 3334 04c0 012E     		cmp	r6, #1
 3335 04c2 F6D1     		bne	.L359
1150:.\BLEApplication.c ****                                     Conn_Or_Disconn_Info.Connect_Idx[i]=0;
 3336              		.loc 1 1150 0
 3337 04c4 0720     		mov	r0, #7
 3338              	.LVL440:
 3339 04c6 6043     		mul	r0, r4
 3340 04c8 2818     		add	r0, r5, r0
1149:.\BLEApplication.c ****                                     memset(Conn_Or_Disconn_Info.DeviceAddr[i].bdAddr,0,6);
 3341              		.loc 1 1149 0
 3342 04ca 013B     		sub	r3, r3, #1
1150:.\BLEApplication.c ****                                     Conn_Or_Disconn_Info.Connect_Idx[i]=0;
 3343              		.loc 1 1150 0
 3344 04cc 0930     		add	r0, r0, #9
 3345 04ce 0021     		mov	r1, #0
 3346 04d0 0622     		mov	r2, #6
1149:.\BLEApplication.c ****                                     memset(Conn_Or_Disconn_Info.DeviceAddr[i].bdAddr,0,6);
 3347              		.loc 1 1149 0
 3348 04d2 2B72     		strb	r3, [r5, #8]
1150:.\BLEApplication.c ****                                     Conn_Or_Disconn_Info.Connect_Idx[i]=0;
 3349              		.loc 1 1150 0
 3350 04d4 FFF7FEFF 		bl	memset
 3351              	.LVL441:
1151:.\BLEApplication.c ****                                     Conn_Or_Disconn_Info.Disconn_Idx[0]=idx-0x30;
 3352              		.loc 1 1151 0
 3353 04d8 0023     		mov	r3, #0
 3354 04da 2B55     		strb	r3, [r5, r4]
1153:.\BLEApplication.c ****                                     break;
 3355              		.loc 1 1153 0
 3356 04dc 834B     		ldr	r3, .L413+16
1152:.\BLEApplication.c ****                                     Conn_or_Disconn_Idx=idx-0x30;
 3357              		.loc 1 1152 0
 3358 04de 2E71     		strb	r6, [r5, #4]
ARM GAS  C:\Users\Helon\AppData\Local\Temp\ccTLkFeM.s 			page 109


1153:.\BLEApplication.c ****                                     break;
 3359              		.loc 1 1153 0
 3360 04e0 9E70     		strb	r6, [r3, #2]
 3361 04e2 7AE0     		b	.L403
 3362              	.LVL442:
 3363              	.L290:
1180:.\BLEApplication.c ****             {
 3364              		.loc 1 1180 0
 3365 04e4 7D4B     		ldr	r3, .L413
 3366 04e6 1B78     		ldrb	r3, [r3]
 3367 04e8 022B     		cmp	r3, #2
 3368 04ea 00D0     		beq	.LCB3185
 3369 04ec 1FE6     		b	.L304	@long jump
 3370              	.LCB3185:
 3371              	.LVL443:
1183:.\BLEApplication.c ****                     printf("+RSSI:<%ddBm>\r\n",CyBle_GetRssi());
 3372              		.loc 1 1183 0
 3373 04ee 237A     		ldrb	r3, [r4, #8]
 3374 04f0 3F2B     		cmp	r3, #63
 3375 04f2 00D0     		beq	.LCB3189
 3376 04f4 EFE0     		b	.L275	@long jump
 3377              	.LCB3189:
1184:.\BLEApplication.c ****             }
 3378              		.loc 1 1184 0
 3379 04f6 FFF7FEFF 		bl	CyBle_GetRssi
 3380              	.LVL444:
 3381 04fa 011C     		mov	r1, r0
 3382 04fc 7F48     		ldr	r0, .L413+32
 3383              	.LVL445:
 3384              	.L401:
 3385 04fe FFF7FEFF 		bl	printf
 3386              	.LVL446:
 3387 0502 E8E0     		b	.L275
 3388              	.LVL447:
 3389              	.L293:
1194:.\BLEApplication.c ****             {
 3390              		.loc 1 1194 0
 3391 0504 637A     		ldrb	r3, [r4, #9]
 3392 0506 3F2B     		cmp	r3, #63
 3393 0508 00D0     		beq	.LCB3212
 3394 050a E4E0     		b	.L275	@long jump
 3395              	.LCB3212:
1196:.\BLEApplication.c ****                 testCount=0;
 3396              		.loc 1 1196 0
 3397 050c 774C     		ldr	r4, .L413+16
 3398              	.LVL448:
 3399 050e 7C48     		ldr	r0, .L413+36
 3400              	.LVL449:
 3401 0510 6168     		ldr	r1, [r4, #4]
 3402 0512 FFF7FEFF 		bl	printf
 3403              	.LVL450:
1197:.\BLEApplication.c ****             }
 3404              		.loc 1 1197 0
 3405 0516 0023     		mov	r3, #0
 3406 0518 6360     		str	r3, [r4, #4]
 3407 051a DCE0     		b	.L275
 3408              	.LVL451:
ARM GAS  C:\Users\Helon\AppData\Local\Temp\ccTLkFeM.s 			page 110


 3409              	.L294:
1242:.\BLEApplication.c ****             {                  
 3410              		.loc 1 1242 0
 3411 051c 6F4A     		ldr	r2, .L413
1241:.\BLEApplication.c ****             if((CYBLE_STATE_CONNECTED==CyBle_GetState())&&(Central==Role))//‰∏ªÊú∫Ê®°Âºè‰∏ã‰∏îÊòØAT
 3412              		.loc 1 1241 0
 3413 051e A37A     		ldrb	r3, [r4, #10]
 3414              	.LVL452:
1242:.\BLEApplication.c ****             {                  
 3415              		.loc 1 1242 0
 3416 0520 1278     		ldrb	r2, [r2]
 3417 0522 022A     		cmp	r2, #2
 3418 0524 00D0     		beq	.LCB3236
 3419 0526 02E6     		b	.L304	@long jump
 3420              	.LCB3236:
 3421 0528 704D     		ldr	r5, .L413+16
 3422 052a 6C78     		ldrb	r4, [r5, #1]
 3423              	.LVL453:
 3424 052c 012C     		cmp	r4, #1
 3425 052e 12D1     		bne	.L329
1244:.\BLEApplication.c ****                 {
 3426              		.loc 1 1244 0
 3427 0530 312B     		cmp	r3, #49
 3428 0532 15D1     		bne	.L405
1260:.\BLEApplication.c ****                         writeRequestData.attrHandle=CYBLE_TROUGHPUT_SERVICE_CUSTOM_CHARACTERISTIC_C
 3429              		.loc 1 1260 0
 3430 0534 7349     		ldr	r1, .L413+40
1262:.\BLEApplication.c ****                         if(CYBLE_ERROR_OK==API_RESULT)
 3431              		.loc 1 1262 0
 3432 0536 6E4A     		ldr	r2, .L413+20
1260:.\BLEApplication.c ****                         writeRequestData.attrHandle=CYBLE_TROUGHPUT_SERVICE_CUSTOM_CHARACTERISTIC_C
 3433              		.loc 1 1260 0
 3434 0538 0B68     		ldr	r3, [r1]
 3435              	.LVL454:
 3436 053a 1C70     		strb	r4, [r3]
 3437              	.LVL455:
1261:.\BLEApplication.c ****                         API_RESULT=CyBle_GattcWriteWithoutResponse(cyBle_connHandle, &writeRequestD
 3438              		.loc 1 1261 0
 3439 053c 0F23     		mov	r3, #15
1262:.\BLEApplication.c ****                         if(CYBLE_ERROR_OK==API_RESULT)
 3440              		.loc 1 1262 0
 3441 053e 5078     		ldrb	r0, [r2, #1]
 3442              	.LVL456:
1261:.\BLEApplication.c ****                         API_RESULT=CyBle_GattcWriteWithoutResponse(cyBle_connHandle, &writeRequestD
 3443              		.loc 1 1261 0
 3444 0540 0B81     		strh	r3, [r1, #8]
1262:.\BLEApplication.c ****                         if(CYBLE_ERROR_OK==API_RESULT)
 3445              		.loc 1 1262 0
 3446 0542 1378     		ldrb	r3, [r2]
 3447 0544 0002     		lsl	r0, r0, #8
 3448 0546 1843     		orr	r0, r3
 3449 0548 FFF7FEFF 		bl	CyBle_GattcWriteWithoutResponse
 3450              	.LVL457:
1263:.\BLEApplication.c ****                         {
 3451              		.loc 1 1263 0
 3452 054c 0028     		cmp	r0, #0
 3453 054e 00D0     		beq	.LCB3264
ARM GAS  C:\Users\Helon\AppData\Local\Temp\ccTLkFeM.s 			page 111


 3454 0550 C1E0     		b	.L275	@long jump
 3455              	.LCB3264:
1265:.\BLEApplication.c ****                             printf("+MODE=<THROUGHT_MODE>\r\n");
 3456              		.loc 1 1265 0
 3457 0552 6C72     		strb	r4, [r5, #9]
 3458 0554 0BE0     		b	.L404
 3459              	.LVL458:
 3460              	.L329:
1279:.\BLEApplication.c ****             {
 3461              		.loc 1 1279 0
 3462 0556 002C     		cmp	r4, #0
 3463 0558 00D0     		beq	.LCB3274
 3464 055a E8E5     		b	.L304	@long jump
 3465              	.LCB3274:
1281:.\BLEApplication.c ****                 {
 3466              		.loc 1 1281 0
 3467 055c 312B     		cmp	r3, #49
 3468 055e 04D0     		beq	.L332
 3469              	.L405:
 3470 0560 3F2B     		cmp	r3, #63
 3471 0562 00D0     		beq	.LCB3279
 3472 0564 B7E0     		b	.L275	@long jump
 3473              	.LCB3279:
1288:.\BLEApplication.c ****                     break;
 3474              		.loc 1 1288 0
 3475 0566 6848     		ldr	r0, .L413+44
 3476              	.LVL459:
 3477 0568 A5E0     		b	.L400
 3478              	.LVL460:
 3479              	.L332:
1284:.\BLEApplication.c ****                         printf("+MODE=<THROUGHT_MODE>\r\n");
 3480              		.loc 1 1284 0
 3481 056a 0123     		mov	r3, #1
 3482              	.LVL461:
 3483 056c 6B72     		strb	r3, [r5, #9]
 3484              	.LVL462:
 3485              	.L404:
1285:.\BLEApplication.c ****                     break;
 3486              		.loc 1 1285 0
 3487 056e 6748     		ldr	r0, .L413+48
 3488 0570 A1E0     		b	.L400
 3489              	.LVL463:
 3490              	.L295:
1302:.\BLEApplication.c ****             {
 3491              		.loc 1 1302 0
 3492 0572 637A     		ldrb	r3, [r4, #9]
 3493 0574 3F2B     		cmp	r3, #63
 3494 0576 00D0     		beq	.LCB3307
 3495 0578 ADE0     		b	.L275	@long jump
 3496              	.LCB3307:
 3497              	.LVL464:
1304:.\BLEApplication.c ****                 switch(STAUS_T)
 3498              		.loc 1 1304 0
 3499 057a 584B     		ldr	r3, .L413
 3500              	.LVL465:
1305:.\BLEApplication.c ****                 {
 3501              		.loc 1 1305 0
ARM GAS  C:\Users\Helon\AppData\Local\Temp\ccTLkFeM.s 			page 112


 3502 057c 1878     		ldrb	r0, [r3]
 3503              	.LVL466:
 3504 057e 0628     		cmp	r0, #6
 3505 0580 00D9     		bls	.LCB3314
 3506 0582 A8E0     		b	.L275	@long jump
 3507              	.LCB3314:
 3508 0584 FFF7FEFF 		bl	__gnu_thumb1_case_uqi
 3509              	.L335:
 3510 0588 04       		.byte	(.L334-.L335)/2
 3511 0589 06       		.byte	(.L336-.L335)/2
 3512 058a 08       		.byte	(.L337-.L335)/2
 3513 058b 0A       		.byte	(.L338-.L335)/2
 3514 058c 0C       		.byte	(.L339-.L335)/2
 3515 058d 0E       		.byte	(.L340-.L335)/2
 3516 058e 10       		.byte	(.L341-.L335)/2
 3517 058f 00       		.p2align 1
 3518              	.L334:
1308:.\BLEApplication.c ****                     break;
 3519              		.loc 1 1308 0
 3520 0590 5F48     		ldr	r0, .L413+52
 3521 0592 90E0     		b	.L400
 3522              	.L336:
1311:.\BLEApplication.c ****                     break;
 3523              		.loc 1 1311 0
 3524 0594 5F48     		ldr	r0, .L413+56
 3525 0596 8EE0     		b	.L400
 3526              	.L337:
1314:.\BLEApplication.c ****                     break;
 3527              		.loc 1 1314 0
 3528 0598 5F48     		ldr	r0, .L413+60
 3529 059a 8CE0     		b	.L400
 3530              	.L338:
1317:.\BLEApplication.c ****                     break;
 3531              		.loc 1 1317 0
 3532 059c 5F48     		ldr	r0, .L413+64
 3533 059e 8AE0     		b	.L400
 3534              	.L339:
1320:.\BLEApplication.c ****                     break;
 3535              		.loc 1 1320 0
 3536 05a0 5F48     		ldr	r0, .L413+68
 3537 05a2 88E0     		b	.L400
 3538              	.L340:
1323:.\BLEApplication.c ****                     break;
 3539              		.loc 1 1323 0
 3540 05a4 5F48     		ldr	r0, .L413+72
 3541 05a6 86E0     		b	.L400
 3542              	.L341:
1326:.\BLEApplication.c ****                     break;
 3543              		.loc 1 1326 0
 3544 05a8 5F48     		ldr	r0, .L413+76
 3545 05aa 84E0     		b	.L400
 3546              	.LVL467:
 3547              	.L296:
1336:.\BLEApplication.c ****             {
 3548              		.loc 1 1336 0
 3549 05ac 4B4B     		ldr	r3, .L413
1335:.\BLEApplication.c ****             if(CYBLE_STATE_CONNECTED!=CyBle_GetState())
ARM GAS  C:\Users\Helon\AppData\Local\Temp\ccTLkFeM.s 			page 113


 3550              		.loc 1 1335 0
 3551 05ae 227A     		ldrb	r2, [r4, #8]
 3552              	.LVL468:
1336:.\BLEApplication.c ****             {
 3553              		.loc 1 1336 0
 3554 05b0 1B78     		ldrb	r3, [r3]
 3555 05b2 022B     		cmp	r3, #2
 3556 05b4 00D1     		bne	.LCB3365
 3557 05b6 BAE5     		b	.L304	@long jump
 3558              	.LCB3365:
1338:.\BLEApplication.c ****                 {
 3559              		.loc 1 1338 0
 3560 05b8 312A     		cmp	r2, #49
 3561 05ba 06D1     		bne	.L342
1340:.\BLEApplication.c ****                     {
 3562              		.loc 1 1340 0
 3563 05bc 032B     		cmp	r3, #3
 3564 05be 00D1     		bne	.LCB3369
 3565 05c0 B5E5     		b	.L304	@long jump
 3566              	.LCB3369:
1342:.\BLEApplication.c ****                         if(CYBLE_ERROR_OK==API_RESULT)
 3567              		.loc 1 1342 0
 3568 05c2 0020     		mov	r0, #0
 3569              	.LVL469:
 3570 05c4 FFF7FEFF 		bl	CyBle_GappStartAdvertisement
 3571              	.LVL470:
 3572 05c8 A3E5     		b	.L399
 3573              	.LVL471:
 3574              	.L342:
1359:.\BLEApplication.c ****                 {
 3575              		.loc 1 1359 0
 3576 05ca 302A     		cmp	r2, #48
 3577 05cc 00D0     		beq	.LCB3384
 3578 05ce 82E0     		b	.L275	@long jump
 3579              	.LCB3384:
1361:.\BLEApplication.c ****                     {
 3580              		.loc 1 1361 0
 3581 05d0 032B     		cmp	r3, #3
 3582 05d2 00D0     		beq	.LCB3386
 3583 05d4 ABE5     		b	.L304	@long jump
 3584              	.LCB3386:
1363:.\BLEApplication.c ****                         printf("AT+OK\r\n");
 3585              		.loc 1 1363 0
 3586 05d6 FFF7FEFF 		bl	CyBle_GappStopAdvertisement
 3587              	.LVL472:
 3588              	.L403:
1364:.\BLEApplication.c **** //                        printf("+ADV=<DISABLE>\r\n");                        
 3589              		.loc 1 1364 0
 3590 05da 5448     		ldr	r0, .L413+80
 3591 05dc 6BE0     		b	.L400
 3592              	.LVL473:
 3593              	.L298:
1383:.\BLEApplication.c ****             {                
 3594              		.loc 1 1383 0
 3595 05de 3F4B     		ldr	r3, .L413
1382:.\BLEApplication.c ****             if(CYBLE_STATE_CONNECTED!=CyBle_GetState())
 3596              		.loc 1 1382 0
ARM GAS  C:\Users\Helon\AppData\Local\Temp\ccTLkFeM.s 			page 114


 3597 05e0 607A     		ldrb	r0, [r4, #9]
 3598              	.LVL474:
1383:.\BLEApplication.c ****             {                
 3599              		.loc 1 1383 0
 3600 05e2 1B78     		ldrb	r3, [r3]
 3601 05e4 022B     		cmp	r3, #2
 3602 05e6 00D1     		bne	.LCB3413
 3603 05e8 A1E5     		b	.L304	@long jump
 3604              	.LCB3413:
1385:.\BLEApplication.c ****                 {
 3605              		.loc 1 1385 0
 3606 05ea 3038     		sub	r0, r0, #48
 3607              	.LVL475:
 3608 05ec 0F28     		cmp	r0, #15
 3609 05ee 72D8     		bhi	.L275
 3610 05f0 FFF7FEFF 		bl	__gnu_thumb1_case_uqi
 3611              	.L344:
 3612 05f4 08       		.byte	(.L343-.L344)/2
 3613 05f5 15       		.byte	(.L345-.L344)/2
 3614 05f6 20       		.byte	(.L346-.L344)/2
 3615 05f7 2B       		.byte	(.L347-.L344)/2
 3616 05f8 36       		.byte	(.L348-.L344)/2
 3617 05f9 71       		.byte	(.L275-.L344)/2
 3618 05fa 71       		.byte	(.L275-.L344)/2
 3619 05fb 71       		.byte	(.L275-.L344)/2
 3620 05fc 71       		.byte	(.L275-.L344)/2
 3621 05fd 71       		.byte	(.L275-.L344)/2
 3622 05fe 71       		.byte	(.L275-.L344)/2
 3623 05ff 71       		.byte	(.L275-.L344)/2
 3624 0600 71       		.byte	(.L275-.L344)/2
 3625 0601 71       		.byte	(.L275-.L344)/2
 3626 0602 71       		.byte	(.L275-.L344)/2
 3627 0603 44       		.byte	(.L349-.L344)/2
 3628              		.p2align 1
 3629              	.L343:
1388:.\BLEApplication.c ****                     if(API_RESULT==CYBLE_ERROR_OK)
 3630              		.loc 1 1388 0
 3631 0604 0020     		mov	r0, #0
 3632              	.LVL476:
 3633 0606 FFF7FEFF 		bl	CyBle_GapSetIoCap
 3634              	.LVL477:
 3635 060a 041E     		sub	r4, r0, #0
 3636              	.LVL478:
1389:.\BLEApplication.c ****                     {
 3637              		.loc 1 1389 0
 3638 060c 00D0     		beq	.LCB3433
 3639 060e 83E5     		b	.L305	@long jump
 3640              	.LCB3433:
1392:.\BLEApplication.c ****                         iocapability=CYBLE_GAP_IOCAP_DISPLAY_ONLY;
 3641              		.loc 1 1392 0
 3642 0610 4648     		ldr	r0, .L413+80
 3643              	.LVL479:
 3644 0612 FFF7FEFF 		bl	puts
 3645              	.LVL480:
1393:.\BLEApplication.c ****                     }
 3646              		.loc 1 1393 0
 3647 0616 354B     		ldr	r3, .L413+16
ARM GAS  C:\Users\Helon\AppData\Local\Temp\ccTLkFeM.s 			page 115


 3648 0618 4A33     		add	r3, r3, #74
 3649 061a 1C70     		strb	r4, [r3]
 3650 061c 5BE0     		b	.L275
 3651              	.LVL481:
 3652              	.L345:
1401:.\BLEApplication.c ****                     if(API_RESULT==CYBLE_ERROR_OK)
 3653              		.loc 1 1401 0
 3654 061e 0120     		mov	r0, #1
 3655              	.LVL482:
 3656 0620 FFF7FEFF 		bl	CyBle_GapSetIoCap
 3657              	.LVL483:
1402:.\BLEApplication.c ****                     {
 3658              		.loc 1 1402 0
 3659 0624 0028     		cmp	r0, #0
 3660 0626 00D0     		beq	.LCB3455
 3661 0628 76E5     		b	.L305	@long jump
 3662              	.LCB3455:
1405:.\BLEApplication.c ****                         iocapability=CYBLE_GAP_IOCAP_DISPLAY_YESNO;
 3663              		.loc 1 1405 0
 3664 062a 4048     		ldr	r0, .L413+80
 3665              	.LVL484:
 3666 062c FFF7FEFF 		bl	puts
 3667              	.LVL485:
1406:.\BLEApplication.c ****                     }
 3668              		.loc 1 1406 0
 3669 0630 0122     		mov	r2, #1
 3670 0632 1FE0     		b	.L402
 3671              	.LVL486:
 3672              	.L346:
1414:.\BLEApplication.c ****                     if(API_RESULT==CYBLE_ERROR_OK)
 3673              		.loc 1 1414 0
 3674 0634 0220     		mov	r0, #2
 3675              	.LVL487:
 3676 0636 FFF7FEFF 		bl	CyBle_GapSetIoCap
 3677              	.LVL488:
1415:.\BLEApplication.c ****                     {
 3678              		.loc 1 1415 0
 3679 063a 0028     		cmp	r0, #0
 3680 063c 00D0     		beq	.LCB3474
 3681 063e 6BE5     		b	.L305	@long jump
 3682              	.LCB3474:
1418:.\BLEApplication.c ****                         iocapability=CYBLE_GAP_IOCAP_KEYBOARD_ONLY;
 3683              		.loc 1 1418 0
 3684 0640 3A48     		ldr	r0, .L413+80
 3685              	.LVL489:
 3686 0642 FFF7FEFF 		bl	puts
 3687              	.LVL490:
1419:.\BLEApplication.c ****                     }
 3688              		.loc 1 1419 0
 3689 0646 0222     		mov	r2, #2
 3690 0648 14E0     		b	.L402
 3691              	.LVL491:
 3692              	.L347:
1427:.\BLEApplication.c ****                     if(API_RESULT==CYBLE_ERROR_OK)
 3693              		.loc 1 1427 0
 3694 064a 0320     		mov	r0, #3
 3695              	.LVL492:
ARM GAS  C:\Users\Helon\AppData\Local\Temp\ccTLkFeM.s 			page 116


 3696 064c FFF7FEFF 		bl	CyBle_GapSetIoCap
 3697              	.LVL493:
1428:.\BLEApplication.c ****                     {
 3698              		.loc 1 1428 0
 3699 0650 0028     		cmp	r0, #0
 3700 0652 00D0     		beq	.LCB3493
 3701 0654 60E5     		b	.L305	@long jump
 3702              	.LCB3493:
1431:.\BLEApplication.c ****                         iocapability=CYBLE_GAP_IOCAP_NOINPUT_NOOUTPUT;
 3703              		.loc 1 1431 0
 3704 0656 3548     		ldr	r0, .L413+80
 3705              	.LVL494:
 3706 0658 FFF7FEFF 		bl	puts
 3707              	.LVL495:
1432:.\BLEApplication.c ****                     }
 3708              		.loc 1 1432 0
 3709 065c 0322     		mov	r2, #3
 3710 065e 09E0     		b	.L402
 3711              	.LVL496:
 3712              	.L348:
1440:.\BLEApplication.c ****                     if(API_RESULT==CYBLE_ERROR_OK)
 3713              		.loc 1 1440 0
 3714 0660 0420     		mov	r0, #4
 3715              	.LVL497:
 3716 0662 FFF7FEFF 		bl	CyBle_GapSetIoCap
 3717              	.LVL498:
1441:.\BLEApplication.c ****                     {
 3718              		.loc 1 1441 0
 3719 0666 0028     		cmp	r0, #0
 3720 0668 00D0     		beq	.LCB3512
 3721 066a 55E5     		b	.L305	@long jump
 3722              	.LCB3512:
1444:.\BLEApplication.c ****                         iocapability=CYBLE_GAP_IOCAP_KEYBOARD_DISPLAY;
 3723              		.loc 1 1444 0
 3724 066c 2F48     		ldr	r0, .L413+80
 3725              	.LVL499:
 3726 066e FFF7FEFF 		bl	puts
 3727              	.LVL500:
1445:.\BLEApplication.c ****                     }
 3728              		.loc 1 1445 0
 3729 0672 0422     		mov	r2, #4
 3730              	.L402:
 3731 0674 1D4B     		ldr	r3, .L413+16
 3732 0676 4A33     		add	r3, r3, #74
 3733 0678 1A70     		strb	r2, [r3]
 3734 067a 2CE0     		b	.L275
 3735              	.LVL501:
 3736              	.L349:
1453:.\BLEApplication.c ****                         {
 3737              		.loc 1 1453 0
 3738 067c 1B4B     		ldr	r3, .L413+16
 3739 067e 4A33     		add	r3, r3, #74
 3740 0680 1878     		ldrb	r0, [r3]
 3741              	.LVL502:
 3742 0682 0428     		cmp	r0, #4
 3743 0684 27D8     		bhi	.L275
 3744 0686 FFF7FEFF 		bl	__gnu_thumb1_case_uqi
ARM GAS  C:\Users\Helon\AppData\Local\Temp\ccTLkFeM.s 			page 117


 3745              	.L351:
 3746 068a 03       		.byte	(.L350-.L351)/2
 3747 068b 05       		.byte	(.L352-.L351)/2
 3748 068c 07       		.byte	(.L353-.L351)/2
 3749 068d 09       		.byte	(.L354-.L351)/2
 3750 068e 0B       		.byte	(.L355-.L351)/2
 3751 068f 00       		.p2align 1
 3752              	.L350:
1456:.\BLEApplication.c ****                             break;
 3753              		.loc 1 1456 0
 3754 0690 2748     		ldr	r0, .L413+84
 3755 0692 10E0     		b	.L400
 3756              	.L352:
1459:.\BLEApplication.c ****                             break;
 3757              		.loc 1 1459 0
 3758 0694 2748     		ldr	r0, .L413+88
 3759 0696 0EE0     		b	.L400
 3760              	.L353:
1462:.\BLEApplication.c ****                             break;
 3761              		.loc 1 1462 0
 3762 0698 2748     		ldr	r0, .L413+92
 3763 069a 0CE0     		b	.L400
 3764              	.L354:
1465:.\BLEApplication.c ****                             break;
 3765              		.loc 1 1465 0
 3766 069c 2748     		ldr	r0, .L413+96
 3767 069e 0AE0     		b	.L400
 3768              	.L355:
1468:.\BLEApplication.c ****                             break;
 3769              		.loc 1 1468 0
 3770 06a0 2748     		ldr	r0, .L413+100
 3771 06a2 08E0     		b	.L400
 3772              	.LVL503:
 3773              	.L297:
1481:.\BLEApplication.c ****             if(idx=='?')
 3774              		.loc 1 1481 0
 3775 06a4 237A     		ldrb	r3, [r4, #8]
 3776              	.LVL504:
1482:.\BLEApplication.c ****             {
 3777              		.loc 1 1482 0
 3778 06a6 3F2B     		cmp	r3, #63
 3779 06a8 08D1     		bne	.L356
1484:.\BLEApplication.c ****                     printf("+AUTH=<ENABLE>\r\n");
 3780              		.loc 1 1484 0
 3781 06aa 104B     		ldr	r3, .L413+16
 3782              	.LVL505:
1485:.\BLEApplication.c ****                 else
 3783              		.loc 1 1485 0
 3784 06ac 2548     		ldr	r0, .L413+104
 3785              	.LVL506:
1484:.\BLEApplication.c ****                     printf("+AUTH=<ENABLE>\r\n");
 3786              		.loc 1 1484 0
 3787 06ae DB78     		ldrb	r3, [r3, #3]
 3788 06b0 002B     		cmp	r3, #0
 3789 06b2 00D1     		bne	.L400
1487:.\BLEApplication.c ****             }
 3790              		.loc 1 1487 0
ARM GAS  C:\Users\Helon\AppData\Local\Temp\ccTLkFeM.s 			page 118


 3791 06b4 2448     		ldr	r0, .L413+108
 3792              	.LVL507:
 3793              	.L400:
 3794 06b6 FFF7FEFF 		bl	puts
 3795              	.LVL508:
 3796 06ba 0CE0     		b	.L275
 3797              	.LVL509:
 3798              	.L356:
1489:.\BLEApplication.c ****             {
 3799              		.loc 1 1489 0
 3800 06bc 312B     		cmp	r3, #49
 3801 06be 0AD1     		bne	.L275
1491:.\BLEApplication.c ****                 {
 3802              		.loc 1 1491 0
 3803 06c0 0A4B     		ldr	r3, .L413+16
 3804              	.LVL510:
 3805 06c2 DB78     		ldrb	r3, [r3, #3]
 3806 06c4 002B     		cmp	r3, #0
 3807 06c6 00D0     		beq	.LCB3607
 3808 06c8 31E5     		b	.L304	@long jump
 3809              	.LCB3607:
1494:.\BLEApplication.c ****                     if(API_RESULT==CYBLE_ERROR_OK)
 3810              		.loc 1 1494 0
 3811 06ca 094B     		ldr	r3, .L413+20
 3812 06cc 1F49     		ldr	r1, .L413+112
 3813 06ce 1878     		ldrb	r0, [r3]
 3814              	.LVL511:
 3815 06d0 FFF7FEFF 		bl	CyBle_GapAuthReq
 3816              	.LVL512:
 3817 06d4 1DE5     		b	.L399
 3818              	.LVL513:
 3819              	.L275:
1516:.\BLEApplication.c **** 
 3820              		.loc 1 1516 0
 3821 06d6 31B0     		add	sp, sp, #196
 3822              		@ sp needed
 3823 06d8 F0BD     		pop	{r4, r5, r6, r7, pc}
 3824              	.L414:
 3825 06da C046     		.align	2
 3826              	.L413:
 3827 06dc 00000000 		.word	cyBle_state
 3828 06e0 00000000 		.word	DeviceCount
 3829 06e4 00000000 		.word	DeviceInfo
 3830 06e8 76040000 		.word	.LC181
 3831 06ec 00000000 		.word	.LANCHOR0
 3832 06f0 00000000 		.word	cyBle_connHandle
 3833 06f4 00000000 		.word	Conn_Or_Disconn_Info
 3834 06f8 5A010000 		.word	.LC63
 3835 06fc A2040000 		.word	.LC186
 3836 0700 B2040000 		.word	.LC188
 3837 0704 00000000 		.word	writeRequestData
 3838 0708 B1000000 		.word	.LC25
 3839 070c 9A000000 		.word	.LC23
 3840 0710 B8040000 		.word	.LC193
 3841 0714 D0040000 		.word	.LC195
 3842 0718 ED040000 		.word	.LC197
 3843 071c 07050000 		.word	.LC199
ARM GAS  C:\Users\Helon\AppData\Local\Temp\ccTLkFeM.s 			page 119


 3844 0720 23050000 		.word	.LC201
 3845 0724 3C050000 		.word	.LC203
 3846 0728 57050000 		.word	.LC205
 3847 072c 6F010000 		.word	.LC66
 3848 0730 74050000 		.word	.LC207
 3849 0734 8B050000 		.word	.LC209
 3850 0738 A3050000 		.word	.LC211
 3851 073c BB050000 		.word	.LC213
 3852 0740 D6050000 		.word	.LC215
 3853 0744 F1050000 		.word	.LC217
 3854 0748 01060000 		.word	.LC219
 3855 074c 00000000 		.word	cyBle_authInfo
 3856              		.cfi_endproc
 3857              	.LFE57:
 3858              		.size	Parser_UartData.part.3, .-Parser_UartData.part.3
 3859              		.section	.text.Parser_UartData,"ax",%progbits
 3860              		.align	1
 3861              		.global	Parser_UartData
 3862              		.code	16
 3863              		.thumb_func
 3864              		.type	Parser_UartData, %function
 3865              	Parser_UartData:
 3866              	.LFB43:
 686:.\BLEApplication.c ****     if(NULL==SerialData)
 3867              		.loc 1 686 0
 3868              		.cfi_startproc
 3869              	.LVL514:
 3870 0000 08B5     		push	{r3, lr}
 3871              		.cfi_def_cfa_offset 8
 3872              		.cfi_offset 3, -8
 3873              		.cfi_offset 14, -4
 687:.\BLEApplication.c ****         return;
 3874              		.loc 1 687 0
 3875 0002 0028     		cmp	r0, #0
 3876 0004 01D0     		beq	.L415
 3877 0006 FFF7FEFF 		bl	Parser_UartData.part.3
 3878              	.LVL515:
 3879              	.L415:
1516:.\BLEApplication.c **** 
 3880              		.loc 1 1516 0
 3881              		@ sp needed
 3882 000a 08BD     		pop	{r3, pc}
 3883              		.cfi_endproc
 3884              	.LFE43:
 3885              		.size	Parser_UartData, .-Parser_UartData
 3886              		.global	__aeabi_uidiv
 3887              		.section	.text.Master_Slave_UartHandler,"ax",%progbits
 3888              		.align	1
 3889              		.global	Master_Slave_UartHandler
 3890              		.code	16
 3891              		.thumb_func
 3892              		.type	Master_Slave_UartHandler, %function
 3893              	Master_Slave_UartHandler:
 3894              	.LFB48:
1700:.\BLEApplication.c ****     uint8_t Uart_Char=0;
 3895              		.loc 1 1700 0
 3896              		.cfi_startproc
ARM GAS  C:\Users\Helon\AppData\Local\Temp\ccTLkFeM.s 			page 120


 3897              	.LVL516:
 3898 0000 F0B5     		push	{r4, r5, r6, r7, lr}
 3899              		.cfi_def_cfa_offset 20
 3900              		.cfi_offset 4, -20
 3901              		.cfi_offset 5, -16
 3902              		.cfi_offset 6, -12
 3903              		.cfi_offset 7, -8
 3904              		.cfi_offset 14, -4
 3905 0002 8BB0     		sub	sp, sp, #44
 3906              		.cfi_def_cfa_offset 64
 3907 0004 6B46     		mov	r3, sp
1705:.\BLEApplication.c ****     CYBLE_API_RESULT_T API_RESULT=0;
 3908              		.loc 1 1705 0
 3909 0006 6A46     		mov	r2, sp
 3910 0008 7F4C     		ldr	r4, .L457
1700:.\BLEApplication.c ****     uint8_t Uart_Char=0;
 3911              		.loc 1 1700 0
 3912 000a 00AF     		add	r7, sp, #0
 3913              		.cfi_def_cfa_register 7
 3914 000c FB60     		str	r3, [r7, #12]
 3915              	.LVL517:
1705:.\BLEApplication.c ****     CYBLE_API_RESULT_T API_RESULT=0;
 3916              		.loc 1 1705 0
 3917 000e 2389     		ldrh	r3, [r4, #8]
1700:.\BLEApplication.c ****     uint8_t Uart_Char=0;
 3918              		.loc 1 1700 0
 3919 0010 7860     		str	r0, [r7, #4]
1705:.\BLEApplication.c ****     CYBLE_API_RESULT_T API_RESULT=0;
 3920              		.loc 1 1705 0
 3921 0012 0433     		add	r3, r3, #4
 3922 0014 DB08     		lsr	r3, r3, #3
 3923 0016 DB00     		lsl	r3, r3, #3
 3924 0018 D31A     		sub	r3, r2, r3
 3925 001a 9D46     		mov	sp, r3
 3926 001c 7B61     		str	r3, [r7, #20]
 3927              	.LVL518:
1711:.\BLEApplication.c ****     #ifdef  FLOW_CONTROL//Ê≠§Â§ÑÊúÄÂ•ΩÁΩÆ‰∏ÄGPIOÂè£‰∏∫‰ΩéÁîµÂπ≥ÂëäËØâÂèëÈÄÅÊñπÂÅúÊ≠¢ÂèëÈÄÅÊï∞ÊçÆ
 3928              		.loc 1 1711 0
 3929 001e FFF7FEFF 		bl	UART_SpiUartGetRxBufferSize
 3930              	.LVL519:
 3931 0022 B860     		str	r0, [r7, #8]
 3932 0024 3D89     		ldrh	r5, [r7, #8]
 3933              	.LVL520:
1713:.\BLEApplication.c ****         {
 3934              		.loc 1 1713 0
 3935 0026 794B     		ldr	r3, .L457+4
 3936 0028 3C61     		str	r4, [r7, #16]
 3937 002a 794E     		ldr	r6, .L457+8
 3938 002c 0422     		mov	r2, #4
 3939 002e 9D42     		cmp	r5, r3
 3940 0030 06D9     		bls	.L421
1715:.\BLEApplication.c ****             CTS_Write(CTS_ON);
 3941              		.loc 1 1715 0
 3942 0032 3368     		ldr	r3, [r6]
1716:.\BLEApplication.c ****         }
 3943              		.loc 1 1716 0
 3944 0034 0020     		mov	r0, #0
ARM GAS  C:\Users\Helon\AppData\Local\Temp\ccTLkFeM.s 			page 121


1715:.\BLEApplication.c ****             CTS_Write(CTS_ON);
 3945              		.loc 1 1715 0
 3946 0036 9343     		bic	r3, r2
 3947 0038 3360     		str	r3, [r6]
1716:.\BLEApplication.c ****         }
 3948              		.loc 1 1716 0
 3949 003a FFF7FEFF 		bl	CTS_Write
 3950              	.LVL521:
 3951 003e 08E0     		b	.L422
 3952              	.L421:
1720:.\BLEApplication.c ****             CTS_Write(CTS_OFF);
 3953              		.loc 1 1720 0
 3954 0040 3368     		ldr	r3, [r6]
1721:.\BLEApplication.c ****         }
 3955              		.loc 1 1721 0
 3956 0042 0120     		mov	r0, #1
1720:.\BLEApplication.c ****             CTS_Write(CTS_OFF);
 3957              		.loc 1 1720 0
 3958 0044 1343     		orr	r3, r2
 3959 0046 3360     		str	r3, [r6]
1721:.\BLEApplication.c ****         }
 3960              		.loc 1 1721 0
 3961 0048 FFF7FEFF 		bl	CTS_Write
 3962              	.LVL522:
1725:.\BLEApplication.c ****     {   
 3963              		.loc 1 1725 0
 3964 004c 002D     		cmp	r5, #0
 3965 004e 00D1     		bne	.LCB3755
 3966 0050 D4E0     		b	.L432	@long jump
 3967              	.LCB3755:
 3968              	.L422:
1725:.\BLEApplication.c ****     {   
 3969              		.loc 1 1725 0 is_stmt 0 discriminator 1
 3970 0052 704C     		ldr	r4, .L457+12
 3971 0054 637A     		ldrb	r3, [r4, #9]
 3972 0056 012B     		cmp	r3, #1
 3973 0058 00D0     		beq	.LCB3761
 3974 005a 84E0     		b	.L424	@long jump
 3975              	.LCB3761:
1727:.\BLEApplication.c ****         {
 3976              		.loc 1 1727 0 is_stmt 1
 3977 005c 3B69     		ldr	r3, [r7, #16]
 3978 005e 3A69     		ldr	r2, [r7, #16]
 3979 0060 1B89     		ldrh	r3, [r3, #8]
 3980 0062 3989     		ldrh	r1, [r7, #8]
 3981 0064 033B     		sub	r3, r3, #3
 3982 0066 7E32     		add	r2, r2, #126
 3983 0068 9942     		cmp	r1, r3
 3984 006a 06DB     		blt	.L425
1729:.\BLEApplication.c ****             uartTxDataLength=negotiatedMtu-3;
 3985              		.loc 1 1729 0
 3986 006c 6A49     		ldr	r1, .L457+16
1730:.\BLEApplication.c ****         }
 3987              		.loc 1 1730 0
 3988 006e 9DB2     		uxth	r5, r3
 3989              	.LVL523:
1729:.\BLEApplication.c ****             uartTxDataLength=negotiatedMtu-3;
ARM GAS  C:\Users\Helon\AppData\Local\Temp\ccTLkFeM.s 			page 122


 3990              		.loc 1 1729 0
 3991 0070 1180     		strh	r1, [r2]
1743:.\BLEApplication.c ****         {
 3992              		.loc 1 1743 0
 3993 0072 002D     		cmp	r5, #0
 3994 0074 00D1     		bne	.LCB3777
 3995 0076 C1E0     		b	.L432	@long jump
 3996              	.LCB3777:
 3997 0078 06E0     		b	.L426
 3998              	.L425:
1734:.\BLEApplication.c ****             {
 3999              		.loc 1 1734 0
 4000 007a 1388     		ldrh	r3, [r2]
 4001 007c 013B     		sub	r3, r3, #1
 4002 007e 9BB2     		uxth	r3, r3
 4003 0080 1380     		strh	r3, [r2]
 4004 0082 002B     		cmp	r3, #0
 4005 0084 00D0     		beq	.LCB3788
 4006 0086 B9E0     		b	.L432	@long jump
 4007              	.LCB3788:
 4008              	.L426:
1745:.\BLEApplication.c ****             for(index=0;index<uartTxDataLength;index++)//‰∏çÁÆ°ÊòØ‰∏ªÊú∫ËøòÊòØ‰ªéÊú∫ÔºåÂú®ÈÄè‰º†Ê®°
 4009              		.loc 1 1745 0
 4010 0088 3C69     		ldr	r4, [r7, #16]
 4011 008a 634B     		ldr	r3, .L457+16
 4012 008c 7E34     		add	r4, r4, #126
 4013 008e 2380     		strh	r3, [r4]
 4014              	.LVL524:
1746:.\BLEApplication.c ****             {
 4015              		.loc 1 1746 0
 4016 0090 0024     		mov	r4, #0
 4017              	.LVL525:
 4018              	.L428:
1746:.\BLEApplication.c ****             {
 4019              		.loc 1 1746 0 is_stmt 0 discriminator 1
 4020 0092 AC42     		cmp	r4, r5
 4021 0094 06D2     		bcs	.L456
1748:.\BLEApplication.c ****             }
 4022              		.loc 1 1748 0 is_stmt 1 discriminator 3
 4023 0096 FFF7FEFF 		bl	UART_UartGetByte
 4024              	.LVL526:
 4025 009a 7B69     		ldr	r3, [r7, #20]
 4026 009c 1855     		strb	r0, [r3, r4]
1746:.\BLEApplication.c ****             {
 4027              		.loc 1 1746 0 discriminator 3
 4028 009e 0134     		add	r4, r4, #1
 4029              	.LVL527:
 4030 00a0 E4B2     		uxtb	r4, r4
 4031              	.LVL528:
 4032 00a2 F6E7     		b	.L428
 4033              	.L456:
1750:.\BLEApplication.c ****             {
 4034              		.loc 1 1750 0
 4035 00a4 5D48     		ldr	r0, .L457+20
 4036 00a6 7969     		ldr	r1, [r7, #20]
 4037 00a8 0B22     		mov	r2, #11
 4038 00aa FFF7FEFF 		bl	memcmp
ARM GAS  C:\Users\Helon\AppData\Local\Temp\ccTLkFeM.s 			page 123


 4039              	.LVL529:
 4040 00ae 0028     		cmp	r0, #0
 4041 00b0 1CD1     		bne	.L430
1752:.\BLEApplication.c ****                 {
 4042              		.loc 1 1752 0
 4043 00b2 7B68     		ldr	r3, [r7, #4]
 4044 00b4 012B     		cmp	r3, #1
 4045 00b6 0ED1     		bne	.L431
1754:.\BLEApplication.c ****                     writeRequestData.attrHandle=CYBLE_TROUGHPUT_SERVICE_CUSTOM_CHARACTERISTIC_CLIEN
 4046              		.loc 1 1754 0
 4047 00b8 5949     		ldr	r1, .L457+24
1756:.\BLEApplication.c ****                     if(CYBLE_ERROR_OK==API_RESULT)
 4048              		.loc 1 1756 0
 4049 00ba 5A4A     		ldr	r2, .L457+28
1754:.\BLEApplication.c ****                     writeRequestData.attrHandle=CYBLE_TROUGHPUT_SERVICE_CUSTOM_CHARACTERISTIC_CLIEN
 4050              		.loc 1 1754 0
 4051 00bc 0B68     		ldr	r3, [r1]
 4052 00be 1870     		strb	r0, [r3]
1755:.\BLEApplication.c ****                     API_RESULT=CyBle_GattcWriteCharacteristicValue(cyBle_connHandle, &writeRequestD
 4053              		.loc 1 1755 0
 4054 00c0 0F23     		mov	r3, #15
1756:.\BLEApplication.c ****                     if(CYBLE_ERROR_OK==API_RESULT)
 4055              		.loc 1 1756 0
 4056 00c2 5078     		ldrb	r0, [r2, #1]
1755:.\BLEApplication.c ****                     API_RESULT=CyBle_GattcWriteCharacteristicValue(cyBle_connHandle, &writeRequestD
 4057              		.loc 1 1755 0
 4058 00c4 0B81     		strh	r3, [r1, #8]
1756:.\BLEApplication.c ****                     if(CYBLE_ERROR_OK==API_RESULT)
 4059              		.loc 1 1756 0
 4060 00c6 1378     		ldrb	r3, [r2]
 4061 00c8 0002     		lsl	r0, r0, #8
 4062 00ca 1843     		orr	r0, r3
 4063 00cc FFF7FEFF 		bl	CyBle_GattcWriteCharacteristicValue
 4064              	.LVL530:
1757:.\BLEApplication.c ****                     {
 4065              		.loc 1 1757 0
 4066 00d0 0028     		cmp	r0, #0
 4067 00d2 00D0     		beq	.LCB3847
 4068 00d4 92E0     		b	.L432	@long jump
 4069              	.LCB3847:
 4070              	.LVL531:
 4071              	.L431:
1759:.\BLEApplication.c ****                         Buffer_Length=0;
 4072              		.loc 1 1759 0
 4073 00d6 4F4B     		ldr	r3, .L457+12
 4074 00d8 0021     		mov	r1, #0
1761:.\BLEApplication.c ****                         printf("+MODE=<AT_COMMAND_MODE>\r\n");
 4075              		.loc 1 1761 0
 4076 00da 181C     		mov	r0, r3
 4077 00dc 3022     		mov	r2, #48
 4078 00de 1A30     		add	r0, r0, #26
1759:.\BLEApplication.c ****                         Buffer_Length=0;
 4079              		.loc 1 1759 0
 4080 00e0 5972     		strb	r1, [r3, #9]
1760:.\BLEApplication.c ****                         memset(RX_BUFFER,0,sizeof(RX_BUFFER));
 4081              		.loc 1 1760 0
 4082 00e2 5976     		strb	r1, [r3, #25]
ARM GAS  C:\Users\Helon\AppData\Local\Temp\ccTLkFeM.s 			page 124


1761:.\BLEApplication.c ****                         printf("+MODE=<AT_COMMAND_MODE>\r\n");
 4083              		.loc 1 1761 0
 4084 00e4 FFF7FEFF 		bl	memset
 4085              	.LVL532:
1762:.\BLEApplication.c ****                     }
 4086              		.loc 1 1762 0
 4087 00e8 4F48     		ldr	r0, .L457+32
 4088 00ea 0EE0     		b	.L455
 4089              	.LVL533:
 4090              	.L430:
1774:.\BLEApplication.c ****             {
 4091              		.loc 1 1774 0
 4092 00ec 7969     		ldr	r1, [r7, #20]
 4093 00ee 4F48     		ldr	r0, .L457+36
 4094 00f0 0B22     		mov	r2, #11
 4095 00f2 FFF7FEFF 		bl	memcmp
 4096              	.LVL534:
 4097 00f6 011E     		sub	r1, r0, #0
 4098 00f8 0AD1     		bne	.L433
1776:.\BLEApplication.c ****                 memset(RX_BUFFER,0,sizeof(RX_BUFFER));
 4099              		.loc 1 1776 0
 4100 00fa 464B     		ldr	r3, .L457+12
1777:.\BLEApplication.c ****                 printf("+MODE=<THROUGHT_MODE>\r\n");
 4101              		.loc 1 1777 0
 4102 00fc 3022     		mov	r2, #48
1776:.\BLEApplication.c ****                 memset(RX_BUFFER,0,sizeof(RX_BUFFER));
 4103              		.loc 1 1776 0
 4104 00fe 5876     		strb	r0, [r3, #25]
1777:.\BLEApplication.c ****                 printf("+MODE=<THROUGHT_MODE>\r\n");
 4105              		.loc 1 1777 0
 4106 0100 181C     		mov	r0, r3
 4107 0102 1A30     		add	r0, r0, #26
 4108 0104 FFF7FEFF 		bl	memset
 4109              	.LVL535:
1778:.\BLEApplication.c ****                 return;
 4110              		.loc 1 1778 0
 4111 0108 4948     		ldr	r0, .L457+40
 4112              	.LVL536:
 4113              	.L455:
 4114 010a FFF7FEFF 		bl	puts
 4115              	.LVL537:
1779:.\BLEApplication.c ****             }
 4116              		.loc 1 1779 0
 4117 010e 75E0     		b	.L432
 4118              	.LVL538:
 4119              	.L433:
1781:.\BLEApplication.c ****             {
 4120              		.loc 1 1781 0
 4121 0110 7B68     		ldr	r3, [r7, #4]
 4122 0112 484A     		ldr	r2, .L457+44
 4123 0114 002B     		cmp	r3, #0
 4124 0116 1AD1     		bne	.L434
 4125              	.L435:
1783:.\BLEApplication.c ****                 uartTxDataNtf.value.val  = uartTxData;
 4126              		.loc 1 1783 0 discriminator 1
 4127 0118 1378     		ldrb	r3, [r2]
 4128 011a 002B     		cmp	r3, #0
ARM GAS  C:\Users\Helon\AppData\Local\Temp\ccTLkFeM.s 			page 125


 4129 011c FCD1     		bne	.L435
1784:.\BLEApplication.c ****                 uartTxDataNtf.value.len  = uartTxDataLength;
 4130              		.loc 1 1784 0
 4131 011e 7B69     		ldr	r3, [r7, #20]
1785:.\BLEApplication.c ****                 uartTxDataNtf.attrHandle = CYBLE_TROUGHPUT_SERVICE_CUSTOM_CHARACTERISTIC_CHAR_HANDL
 4132              		.loc 1 1785 0
 4133 0120 3D84     		strh	r5, [r7, #32]
1784:.\BLEApplication.c ****                 uartTxDataNtf.value.len  = uartTxDataLength;
 4134              		.loc 1 1784 0
 4135 0122 FB61     		str	r3, [r7, #28]
1786:.\BLEApplication.c **** //                #ifdef FLOW_CONTROL
 4136              		.loc 1 1786 0
 4137 0124 0E23     		mov	r3, #14
 4138 0126 BB84     		strh	r3, [r7, #36]
 4139              	.LVL539:
 4140              	.L436:
1792:.\BLEApplication.c ****                     CyBle_ProcessEvents();
 4141              		.loc 1 1792 0 discriminator 2
 4142 0128 3E4A     		ldr	r2, .L457+28
 4143 012a 5078     		ldrb	r0, [r2, #1]
 4144 012c 1378     		ldrb	r3, [r2]
 4145 012e 0002     		lsl	r0, r0, #8
 4146 0130 1843     		orr	r0, r3
 4147 0132 1C23     		mov	r3, #28
 4148 0134 F918     		add	r1, r7, r3
 4149 0136 FFF7FEFF 		bl	CyBle_GattsNotification
 4150              	.LVL540:
 4151 013a 041C     		mov	r4, r0
 4152              	.LVL541:
1793:.\BLEApplication.c ****                 }
 4153              		.loc 1 1793 0 discriminator 2
 4154 013c FFF7FEFF 		bl	CyBle_ProcessEvents
 4155              	.LVL542:
1795:.\BLEApplication.c **** //                testCount+=uartTxDataLength;
 4156              		.loc 1 1795 0 discriminator 2
 4157 0140 002C     		cmp	r4, #0
 4158 0142 5BD0     		beq	.L432
1795:.\BLEApplication.c **** //                testCount+=uartTxDataLength;
 4159              		.loc 1 1795 0 is_stmt 0 discriminator 1
 4160 0144 3C4B     		ldr	r3, .L457+48
 4161 0146 1B78     		ldrb	r3, [r3]
 4162 0148 022B     		cmp	r3, #2
 4163 014a EDD0     		beq	.L436
 4164 014c 56E0     		b	.L432
 4165              	.LVL543:
 4166              	.L434:
1801:.\BLEApplication.c ****                 #endif
 4167              		.loc 1 1801 0 is_stmt 1
 4168 014e 0421     		mov	r1, #4
 4169 0150 3368     		ldr	r3, [r6]
 4170 0152 8B43     		bic	r3, r1
 4171 0154 3360     		str	r3, [r6]
 4172              	.L437:
1803:.\BLEApplication.c ****                 SendData_toSlave(uartTxData,uartTxDataLength);
 4173              		.loc 1 1803 0 discriminator 1
 4174 0156 1378     		ldrb	r3, [r2]
 4175 0158 002B     		cmp	r3, #0
ARM GAS  C:\Users\Helon\AppData\Local\Temp\ccTLkFeM.s 			page 126


 4176 015a FCD1     		bne	.L437
1804:.\BLEApplication.c ****             }
 4177              		.loc 1 1804 0
 4178 015c 7869     		ldr	r0, [r7, #20]
 4179 015e 291C     		mov	r1, r5
 4180 0160 FFF7FEFF 		bl	SendData_toSlave
 4181              	.LVL544:
 4182 0164 4AE0     		b	.L432
 4183              	.LVL545:
 4184              	.L424:
1811:.\BLEApplication.c ****         {
 4185              		.loc 1 1811 0
 4186 0166 267C     		ldrb	r6, [r4, #16]
 4187 0168 002E     		cmp	r6, #0
 4188 016a 32D0     		beq	.L438
1813:.\BLEApplication.c ****         /*Set the passkey to zero before receiving New passkey */
 4189              		.loc 1 1813 0
 4190 016c 0023     		mov	r3, #0
 4191 016e 0625     		mov	r5, #6
 4192              	.LVL546:
 4193 0170 2374     		strb	r3, [r4, #16]
 4194              	.LVL547:
1815:.\BLEApplication.c ****             pow = 100000ul;
 4195              		.loc 1 1815 0
 4196 0172 1C1C     		mov	r4, r3
1816:.\BLEApplication.c ****             
 4197              		.loc 1 1816 0
 4198 0174 314E     		ldr	r6, .L457+52
 4199              	.LVL548:
 4200              	.L439:
1821:.\BLEApplication.c ****                 
 4201              		.loc 1 1821 0 discriminator 1
 4202 0176 FFF7FEFF 		bl	UART_UartGetChar
 4203              	.LVL549:
 4204 017a C3B2     		uxtb	r3, r0
 4205              	.LVL550:
 4206 017c 002B     		cmp	r3, #0
 4207 017e FAD0     		beq	.L439
1824:.\BLEApplication.c ****                 {
 4208              		.loc 1 1824 0
 4209 0180 303B     		sub	r3, r3, #48
 4210              	.LVL551:
 4211 0182 092B     		cmp	r3, #9
 4212 0184 0CD8     		bhi	.L440
1826:.\BLEApplication.c ****                     pow /= 10u;
 4213              		.loc 1 1826 0
 4214 0186 181C     		mov	r0, r3
 4215 0188 7043     		mul	r0, r6
1827:.\BLEApplication.c **** //                    UART_UartPutChar(Uart_Char); 
 4216              		.loc 1 1827 0
 4217 018a 0A21     		mov	r1, #10
1826:.\BLEApplication.c ****                     pow /= 10u;
 4218              		.loc 1 1826 0
 4219 018c 2418     		add	r4, r4, r0
 4220              	.LVL552:
1827:.\BLEApplication.c **** //                    UART_UartPutChar(Uart_Char); 
 4221              		.loc 1 1827 0
ARM GAS  C:\Users\Helon\AppData\Local\Temp\ccTLkFeM.s 			page 127


 4222 018e 301C     		mov	r0, r6
 4223 0190 FFF7FEFF 		bl	__aeabi_uidiv
 4224              	.LVL553:
 4225 0194 013D     		sub	r5, r5, #1
 4226 0196 EDB2     		uxtb	r5, r5
 4227 0198 061C     		mov	r6, r0
 4228              	.LVL554:
1819:.\BLEApplication.c ****             {
 4229              		.loc 1 1819 0
 4230 019a 002D     		cmp	r5, #0
 4231 019c EBD1     		bne	.L439
 4232 019e 02E0     		b	.L442
 4233              	.LVL555:
 4234              	.L440:
1832:.\BLEApplication.c ****                     break;
 4235              		.loc 1 1832 0
 4236 01a0 2748     		ldr	r0, .L457+56
 4237 01a2 FFF7FEFF 		bl	puts
 4238              	.LVL556:
 4239              	.L442:
1837:.\BLEApplication.c ****             /*Check the result of CyBle_GapAuthPassKeyReply*/
 4240              		.loc 1 1837 0
 4241 01a6 1F4B     		ldr	r3, .L457+28
 4242 01a8 211C     		mov	r1, r4
 4243 01aa 1878     		ldrb	r0, [r3]
 4244 01ac 0122     		mov	r2, #1
 4245 01ae FFF7FEFF 		bl	CyBle_GapAuthPassKeyReply
 4246              	.LVL557:
1839:.\BLEApplication.c ****             {
 4247              		.loc 1 1839 0
 4248 01b2 0128     		cmp	r0, #1
 4249 01b4 01D1     		bne	.L443
1841:.\BLEApplication.c ****             }
 4250              		.loc 1 1841 0
 4251 01b6 2348     		ldr	r0, .L457+60
 4252              	.LVL558:
 4253 01b8 A7E7     		b	.L455
 4254              	.LVL559:
 4255              	.L443:
1843:.\BLEApplication.c ****             {
 4256              		.loc 1 1843 0
 4257 01ba 0328     		cmp	r0, #3
 4258 01bc 01D1     		bne	.L444
1845:.\BLEApplication.c ****             }
 4259              		.loc 1 1845 0
 4260 01be 2248     		ldr	r0, .L457+64
 4261              	.LVL560:
 4262 01c0 A3E7     		b	.L455
 4263              	.LVL561:
 4264              	.L444:
1847:.\BLEApplication.c ****             {
 4265              		.loc 1 1847 0
 4266 01c2 0728     		cmp	r0, #7
 4267 01c4 01D1     		bne	.L445
1849:.\BLEApplication.c ****             }
 4268              		.loc 1 1849 0
 4269 01c6 2148     		ldr	r0, .L457+68
ARM GAS  C:\Users\Helon\AppData\Local\Temp\ccTLkFeM.s 			page 128


 4270              	.LVL562:
 4271 01c8 9FE7     		b	.L455
 4272              	.LVL563:
 4273              	.L445:
1851:.\BLEApplication.c ****             {
 4274              		.loc 1 1851 0
 4275 01ca 0028     		cmp	r0, #0
 4276 01cc 16D1     		bne	.L432
1853:.\BLEApplication.c ****             }
 4277              		.loc 1 1853 0
 4278 01ce 2048     		ldr	r0, .L457+72
 4279              	.LVL564:
 4280 01d0 9BE7     		b	.L455
 4281              	.LVL565:
 4282              	.L438:
1858:.\BLEApplication.c ****             if('\n'!=Uart_Char)
 4283              		.loc 1 1858 0
 4284 01d2 FFF7FEFF 		bl	UART_UartGetByte
 4285              	.LVL566:
 4286 01d6 251C     		mov	r5, r4
 4287              	.LVL567:
 4288 01d8 637E     		ldrb	r3, [r4, #25]
 4289 01da C0B2     		uxtb	r0, r0
 4290              	.LVL568:
 4291 01dc 1A35     		add	r5, r5, #26
1868:.\BLEApplication.c ****                     Buffer_Length++;
 4292              		.loc 1 1868 0
 4293 01de E854     		strb	r0, [r5, r3]
1859:.\BLEApplication.c ****             {
 4294              		.loc 1 1859 0
 4295 01e0 0A28     		cmp	r0, #10
 4296 01e2 02D0     		beq	.L447
1869:.\BLEApplication.c ****     //            }                
 4297              		.loc 1 1869 0
 4298 01e4 0133     		add	r3, r3, #1
 4299 01e6 6376     		strb	r3, [r4, #25]
 4300 01e8 08E0     		b	.L432
 4301              	.L447:
 4302              	.LVL569:
 4303              	.LBB42:
 4304              	.LBB43:
 4305 01ea 281C     		mov	r0, r5
 4306              	.LVL570:
 4307 01ec FFF7FEFF 		bl	Parser_UartData.part.3
 4308              	.LVL571:
 4309              	.LBE43:
 4310              	.LBE42:
1878:.\BLEApplication.c ****     //            if(CommandMode==THROUGHT_MODE)
 4311              		.loc 1 1878 0
 4312 01f0 281C     		mov	r0, r5
 4313 01f2 311C     		mov	r1, r6
 4314 01f4 3022     		mov	r2, #48
1877:.\BLEApplication.c ****                 memset(RX_BUFFER,0,sizeof(RX_BUFFER));
 4315              		.loc 1 1877 0
 4316 01f6 6676     		strb	r6, [r4, #25]
1878:.\BLEApplication.c ****     //            if(CommandMode==THROUGHT_MODE)
 4317              		.loc 1 1878 0
ARM GAS  C:\Users\Helon\AppData\Local\Temp\ccTLkFeM.s 			page 129


 4318 01f8 FFF7FEFF 		bl	memset
 4319              	.LVL572:
 4320              	.L432:
1772:.\BLEApplication.c ****             }  
 4321              		.loc 1 1772 0
 4322 01fc FB68     		ldr	r3, [r7, #12]
 4323 01fe 9D46     		mov	sp, r3
 4324              	.LVL573:
1898:.\BLEApplication.c **** 
 4325              		.loc 1 1898 0
 4326 0200 BD46     		mov	sp, r7
 4327 0202 0BB0     		add	sp, sp, #44
 4328              		@ sp needed
 4329              	.LVL574:
 4330 0204 F0BD     		pop	{r4, r5, r6, r7, pc}
 4331              	.L458:
 4332 0206 C046     		.align	2
 4333              	.L457:
 4334 0208 00000000 		.word	.LANCHOR1
 4335 020c FF030000 		.word	1023
 4336 0210 C80F2440 		.word	1076105160
 4337 0214 00000000 		.word	.LANCHOR0
 4338 0218 581B0000 		.word	7000
 4339 021c 12060000 		.word	.LC233
 4340 0220 00000000 		.word	writeRequestData
 4341 0224 00000000 		.word	cyBle_connHandle
 4342 0228 B1000000 		.word	.LC25
 4343 022c 1E060000 		.word	.LC238
 4344 0230 9A000000 		.word	.LC23
 4345 0234 00000000 		.word	cyBle_busyStatus
 4346 0238 00000000 		.word	cyBle_state
 4347 023c A0860100 		.word	100000
 4348 0240 2A060000 		.word	.LC243
 4349 0244 3E060000 		.word	.LC245
 4350 0248 5E060000 		.word	.LC247
 4351 024c 84060000 		.word	.LC249
 4352 0250 A2060000 		.word	.LC251
 4353              		.cfi_endproc
 4354              	.LFE48:
 4355              		.size	Master_Slave_UartHandler, .-Master_Slave_UartHandler
 4356              		.section	.text._write,"ax",%progbits
 4357              		.align	1
 4358              		.global	_write
 4359              		.code	16
 4360              		.thumb_func
 4361              		.type	_write, %function
 4362              	_write:
 4363              	.LFB53:
2367:.\BLEApplication.c **** /******************************************************************************
2368:.\BLEApplication.c **** * Function Name: PrintfÂáΩÊï∞ÈáçÊò†Â∞Ñ
2369:.\BLEApplication.c **** ***************************************************************************//**
2370:.\BLEApplication.c **** * 
2371:.\BLEApplication.c **** *  ÈáçÂÜô_write()ÂáΩÊï∞Ôºå‰∏∫‰∫Ü‰ΩøËÉΩPrintfÂáΩÊï∞ÊâìÂç∞‰∏≤Âè£‰ø°ÊÅØ
2372:.\BLEApplication.c **** * 
2373:.\BLEApplication.c **** * \return
2374:.\BLEApplication.c **** *  None
2375:.\BLEApplication.c **** * 
ARM GAS  C:\Users\Helon\AppData\Local\Temp\ccTLkFeM.s 			page 130


2376:.\BLEApplication.c **** ******************************************************************************/
2377:.\BLEApplication.c **** #if defined(__ARMCC_VERSION)
2378:.\BLEApplication.c **** /* For MDK/RVDS compiler revise fputc function for printf functionality */
2379:.\BLEApplication.c **** struct __FILE
2380:.\BLEApplication.c **** {
2381:.\BLEApplication.c ****     int handle;
2382:.\BLEApplication.c **** };
2383:.\BLEApplication.c **** enum
2384:.\BLEApplication.c **** {
2385:.\BLEApplication.c ****     STDIN_HANDLE,
2386:.\BLEApplication.c ****     STDOUT_HANDLE,
2387:.\BLEApplication.c ****     STDERR_HANDLE
2388:.\BLEApplication.c **** };
2389:.\BLEApplication.c **** FILE __stdin = {STDIN_HANDLE};
2390:.\BLEApplication.c **** FILE __stdout = {STDOUT_HANDLE};
2391:.\BLEApplication.c **** FILE __stderr = {STDERR_HANDLE};
2392:.\BLEApplication.c **** int fputc(int ch, FILE *file)
2393:.\BLEApplication.c **** {
2394:.\BLEApplication.c ****     int ret = EOF;
2395:.\BLEApplication.c ****     switch( file->handle )
2396:.\BLEApplication.c ****     {
2397:.\BLEApplication.c ****         case STDOUT_HANDLE:
2398:.\BLEApplication.c ****             UART_DEB_UartPutChar(ch);
2399:.\BLEApplication.c ****             ret = ch ;
2400:.\BLEApplication.c ****             break ;
2401:.\BLEApplication.c ****         case STDERR_HANDLE:
2402:.\BLEApplication.c ****             ret = ch ;
2403:.\BLEApplication.c ****             break ;
2404:.\BLEApplication.c ****         default:
2405:.\BLEApplication.c ****             file = file;
2406:.\BLEApplication.c ****             break ;
2407:.\BLEApplication.c ****     }
2408:.\BLEApplication.c ****     return ret ;
2409:.\BLEApplication.c **** }
2410:.\BLEApplication.c **** #elif defined (__ICCARM__)      /* IAR */
2411:.\BLEApplication.c **** /* For IAR compiler revise __write() function for printf functionality */
2412:.\BLEApplication.c **** size_t __write(int handle, const unsigned char * buffer, size_t size)
2413:.\BLEApplication.c **** {
2414:.\BLEApplication.c ****     size_t nChars = 0;
2415:.\BLEApplication.c ****     if (buffer == 0)
2416:.\BLEApplication.c ****     {
2417:.\BLEApplication.c ****         /*
2418:.\BLEApplication.c ****          * This means that we should flush internal buffers.  Since we
2419:.\BLEApplication.c ****          * don't we just return.  (Remember, "handle" == -1 means that all
2420:.\BLEApplication.c ****          * handles should be flushed.)
2421:.\BLEApplication.c ****          */
2422:.\BLEApplication.c ****         return (0);
2423:.\BLEApplication.c ****     }
2424:.\BLEApplication.c ****     for (/* Empty */; size != 0; --size)
2425:.\BLEApplication.c ****     {
2426:.\BLEApplication.c ****         UART_DEB_UartPutChar(*buffer++);
2427:.\BLEApplication.c ****         ++nChars;
2428:.\BLEApplication.c ****     }
2429:.\BLEApplication.c ****     return (nChars);
2430:.\BLEApplication.c **** }
2431:.\BLEApplication.c **** #else  /* (__GNUC__)  GCC */
2432:.\BLEApplication.c **** /* For GCC compiler revise _write() function for printf functionality */
ARM GAS  C:\Users\Helon\AppData\Local\Temp\ccTLkFeM.s 			page 131


2433:.\BLEApplication.c **** int _write(int file, char *ptr, int len)
2434:.\BLEApplication.c **** {
 4364              		.loc 1 2434 0
 4365              		.cfi_startproc
 4366              	.LVL575:
 4367 0000 70B5     		push	{r4, r5, r6, lr}
 4368              		.cfi_def_cfa_offset 16
 4369              		.cfi_offset 4, -16
 4370              		.cfi_offset 5, -12
 4371              		.cfi_offset 6, -8
 4372              		.cfi_offset 14, -4
 4373              		.loc 1 2434 0
 4374 0002 0E1C     		mov	r6, r1
 4375 0004 151C     		mov	r5, r2
2435:.\BLEApplication.c ****     int i;
2436:.\BLEApplication.c ****     file = file;
2437:.\BLEApplication.c ****     for (i = 0; i < len; i++)
 4376              		.loc 1 2437 0
 4377 0006 0C1C     		mov	r4, r1
 4378              	.LVL576:
 4379              	.L460:
 4380 0008 A31B     		sub	r3, r4, r6
 4381              		.loc 1 2437 0 is_stmt 0 discriminator 1
 4382 000a AB42     		cmp	r3, r5
 4383 000c 04DA     		bge	.L462
 4384              	.LVL577:
2438:.\BLEApplication.c ****     {
2439:.\BLEApplication.c ****         UART_UartPutChar(*ptr++);//ËøôÈáåÊõø‰ª£ÊàêUARTÁöÑÂèëÈÄÅÂçïÂ≠óËäÇÁöÑÂáΩÊï∞Âç≥ÂèØ
 4385              		.loc 1 2439 0 is_stmt 1 discriminator 3
 4386 000e 2078     		ldrb	r0, [r4]
 4387 0010 FFF7FEFF 		bl	UART_SpiUartWriteTxData
 4388              	.LVL578:
 4389 0014 0134     		add	r4, r4, #1
 4390              	.LVL579:
 4391 0016 F7E7     		b	.L460
 4392              	.L462:
2440:.\BLEApplication.c ****     }
2441:.\BLEApplication.c ****     return len;
2442:.\BLEApplication.c **** }
 4393              		.loc 1 2442 0
 4394 0018 281C     		mov	r0, r5
 4395              		@ sp needed
 4396              	.LVL580:
 4397              	.LVL581:
 4398 001a 70BD     		pop	{r4, r5, r6, pc}
 4399              		.cfi_endproc
 4400              	.LFE53:
 4401              		.size	_write, .-_write
 4402              		.global	Baud_rate_idx
 4403              		.global	STOP_SCAN_FLAG
 4404              		.global	StringArry
 4405              		.global	readRequestData
 4406              		.comm	writeRequestData,12,4
 4407              		.global	connParam
 4408              		.global	cccdNotifFlagSetStruct
 4409              		.global	cccdNotifEnabledValue
 4410              		.global	_10sIsOver
ARM GAS  C:\Users\Helon\AppData\Local\Temp\ccTLkFeM.s 			page 132


 4411              		.comm	DeviceAddr,7,1
 4412              		.global	AUTHFLAG
 4413              		.global	KEYBOARD
 4414              		.comm	ConnParam,8,2
 4415              		.global	iocapability
 4416              		.global	testCount
 4417              		.global	CommandMode
 4418              		.global	negotiatedMtu
 4419              		.comm	buffer,20,1
 4420              		.global	Role
 4421              		.global	totalByteCounter
 4422              		.global	charNotificationEnabled
 4423              		.global	TroughtTest_Flag
 4424              		.global	MTU_REQ_FLAG
 4425              		.global	Conn_or_Disconn_Idx
 4426              		.comm	Conn_Or_Disconn_Info,37,1
 4427              		.global	rx_isover
 4428              		.global	Buffer_Length
 4429              		.global	RX_BUFFER
 4430              		.global	LowPower_EN
 4431              		.comm	configUart,112,4
 4432              		.section	.rodata.str1.1,"aMS",%progbits,1
 4433              	.LC0:
 4434 0000 424C4520 		.ascii	"BLE is Ready\015\000"
 4434      69732052 
 4434      65616479 
 4434      0D00
 4435              	.LC3:
 4436 000e 2B534341 		.ascii	"+SCAN_STOP\015\000"
 4436      4E5F5354 
 4436      4F500D00 
 4437              	.LC5:
 4438 001a 2B534341 		.ascii	"+SCAN_CMP\015\000"
 4438      4E5F434D 
 4438      500D00
 4439              	.LC8:
 4440 0025 2B434F4E 		.ascii	"+CONN_EVT=OK\015\000"
 4440      4E5F4556 
 4440      543D4F4B 
 4440      0D00
 4441              	.LC12:
 4442 0033 2B434F4E 		.ascii	"+CONN_EVT=<%d,OK>\015\012\000"
 4442      4E5F4556 
 4442      543D3C25 
 4442      642C4F4B 
 4442      3E0D0A00 
 4443              	.LC14:
 4444 0047 2B555044 		.ascii	"+UPDATECONN_EVT=OK\015\000"
 4444      41544543 
 4444      4F4E4E5F 
 4444      4556543D 
 4444      4F4B0D00 
 4445              	.LC16:
 4446 005b 6D747520 		.ascii	"mtu is %d\015\012\000"
 4446      69732025 
 4446      640D0A00 
 4447              	.LC19:
ARM GAS  C:\Users\Helon\AppData\Local\Temp\ccTLkFeM.s 			page 133


 4448 0067 2B444953 		.ascii	"+DISCONN_EVT=<0x%02X>\015\012\000"
 4448      434F4E4E 
 4448      5F455654 
 4448      3D3C3078 
 4448      25303258 
 4449              	.LC21:
 4450 007f 2B444953 		.ascii	"+DISCONN_EVT=<%d,0x%02X>\015\012\000"
 4450      434F4E4E 
 4450      5F455654 
 4450      3D3C2564 
 4450      2C307825 
 4451              	.LC23:
 4452 009a 2B4D4F44 		.ascii	"+MODE=<THROUGHT_MODE>\015\000"
 4452      453D3C54 
 4452      48524F55 
 4452      4748545F 
 4452      4D4F4445 
 4453              	.LC25:
 4454 00b1 2B4D4F44 		.ascii	"+MODE=<AT_COMMAND_MODE>\015\000"
 4454      453D3C41 
 4454      545F434F 
 4454      4D4D414E 
 4454      445F4D4F 
 4455              	.LC27:
 4456 00ca 2B444953 		.ascii	"+DIS_EVT=<0x%02X%02X,0x%02X%02X>\015\012\000"
 4456      5F455654 
 4456      3D3C3078 
 4456      25303258 
 4456      25303258 
 4457              	.LC30:
 4458 00ed 2B415554 		.ascii	"+AUTHKEY=<%lu>\015\012\000"
 4458      484B4559 
 4458      3D3C256C 
 4458      753E0D0A 
 4458      00
 4459              	.LC32:
 4460 00fe 506C6561 		.ascii	"Please Input PassKey:\015\000"
 4460      73652049 
 4460      6E707574 
 4460      20506173 
 4460      734B6579 
 4461              	.LC34:
 4462 0115 2B415554 		.ascii	"+AUTH=OK\015\000"
 4462      483D4F4B 
 4462      0D00
 4463              	.LC36:
 4464 011f 41542B45 		.ascii	"AT+ERR=%d\015\012\000"
 4464      52523D25 
 4464      640D0A00 
 4465              	.LC42:
 4466 012b 53656E64 		.ascii	"Send Compelete!\015\000"
 4466      20436F6D 
 4466      70656C65 
 4466      7465210D 
 4466      00
 4467              	.LC52:
 4468 013c 41540D0A 		.ascii	"AT\015\012\000"
ARM GAS  C:\Users\Helon\AppData\Local\Temp\ccTLkFeM.s 			page 134


 4468      00
 4469              	.LC57:
 4470 0141 53656E64 		.ascii	"SendNotification is %d\015\012\000"
 4470      4E6F7469 
 4470      66696361 
 4470      74696F6E 
 4470      20697320 
 4471              	.LC63:
 4472 015a 41542B45 		.ascii	"AT+ERR=<%d,0x%02X>\015\012\000"
 4472      52523D3C 
 4472      25642C30 
 4472      78253032 
 4472      583E0D0A 
 4473              	.LC66:
 4474 016f 41542B4F 		.ascii	"AT+OK\015\000"
 4474      4B0D00
 4475              	.LC72:
 4476 0176 2B494E51 		.ascii	"+INQ_CONN:<%d,0x%02X%02X%02X%02X%02X%02X>\015\012\000"
 4476      5F434F4E 
 4476      4E3A3C25 
 4476      642C3078 
 4476      25303258 
 4477              	.LC74:
 4478 01a2 41542B45 		.ascii	"AT+ERR=3\015\000"
 4478      52523D33 
 4478      0D00
 4479              	.LC76:
 4480 01ac 41542B45 		.ascii	"AT+ERR=4\015\000"
 4480      52523D34 
 4480      0D00
 4481              	.LC79:
 4482 01b6 41542B42 		.ascii	"AT+BAUD=<1200>\015\000"
 4482      4155443D 
 4482      3C313230 
 4482      303E0D00 
 4483              	.LC81:
 4484 01c6 4F4B0D00 		.ascii	"OK\015\000"
 4485              	.LC84:
 4486 01ca 41542B42 		.ascii	"AT+BAUD=<2400>\015\000"
 4486      4155443D 
 4486      3C323430 
 4486      303E0D00 
 4487              	.LC86:
 4488 01da 41542B42 		.ascii	"AT+BAUD=<4800>\015\000"
 4488      4155443D 
 4488      3C343830 
 4488      303E0D00 
 4489              	.LC88:
 4490 01ea 41542B42 		.ascii	"AT+BAUD=<9600>\015\000"
 4490      4155443D 
 4490      3C393630 
 4490      303E0D00 
 4491              	.LC90:
 4492 01fa 41542B42 		.ascii	"AT+BAUD=<19200>\015\000"
 4492      4155443D 
 4492      3C313932 
 4492      30303E0D 
ARM GAS  C:\Users\Helon\AppData\Local\Temp\ccTLkFeM.s 			page 135


 4492      00
 4493              	.LC92:
 4494 020b 41542B42 		.ascii	"AT+BAUD=<38400>\015\000"
 4494      4155443D 
 4494      3C333834 
 4494      30303E0D 
 4494      00
 4495              	.LC94:
 4496 021c 41542B42 		.ascii	"AT+BAUD=<57600>\015\000"
 4496      4155443D 
 4496      3C353736 
 4496      30303E0D 
 4496      00
 4497              	.LC96:
 4498 022d 41542B42 		.ascii	"AT+BAUD=<115200>\015\000"
 4498      4155443D 
 4498      3C313135 
 4498      3230303E 
 4498      0D00
 4499              	.LC98:
 4500 023f 41542B42 		.ascii	"AT+BAUD=<230400>\015\000"
 4500      4155443D 
 4500      3C323330 
 4500      3430303E 
 4500      0D00
 4501              	.LC100:
 4502 0251 41542B42 		.ascii	"AT+BAUD=<460800>\015\000"
 4502      4155443D 
 4502      3C343630 
 4502      3830303E 
 4502      0D00
 4503              	.LC102:
 4504 0263 41542B42 		.ascii	"AT+BAUD=<921600>\015\000"
 4504      4155443D 
 4504      3C393231 
 4504      3630303E 
 4504      0D00
 4505              	.LC104:
 4506 0275 2B424155 		.ascii	"+BAUD:<1200>\015\000"
 4506      443A3C31 
 4506      3230303E 
 4506      0D00
 4507              	.LC106:
 4508 0283 2B424155 		.ascii	"+BAUD:<2400>\015\000"
 4508      443A3C32 
 4508      3430303E 
 4508      0D00
 4509              	.LC108:
 4510 0291 2B424155 		.ascii	"+BAUD:<4800>\015\000"
 4510      443A3C34 
 4510      3830303E 
 4510      0D00
 4511              	.LC110:
 4512 029f 2B424155 		.ascii	"+BAUD:<9600>\015\000"
 4512      443A3C39 
 4512      3630303E 
 4512      0D00
ARM GAS  C:\Users\Helon\AppData\Local\Temp\ccTLkFeM.s 			page 136


 4513              	.LC112:
 4514 02ad 2B424155 		.ascii	"+BAUD:<19200>\015\000"
 4514      443A3C31 
 4514      39323030 
 4514      3E0D00
 4515              	.LC114:
 4516 02bc 2B424155 		.ascii	"+BAUD:<38400>\015\000"
 4516      443A3C33 
 4516      38343030 
 4516      3E0D00
 4517              	.LC116:
 4518 02cb 2B424155 		.ascii	"+BAUD:<57600>\015\000"
 4518      443A3C35 
 4518      37363030 
 4518      3E0D00
 4519              	.LC118:
 4520 02da 2B424155 		.ascii	"+BAUD:<115200>\015\000"
 4520      443A3C31 
 4520      31353230 
 4520      303E0D00 
 4521              	.LC120:
 4522 02ea 2B424155 		.ascii	"+BAUD:<230400>\015\000"
 4522      443A3C32 
 4522      33303430 
 4522      303E0D00 
 4523              	.LC122:
 4524 02fa 2B424155 		.ascii	"+BAUD:<460800>\015\000"
 4524      443A3C34 
 4524      36303830 
 4524      303E0D00 
 4525              	.LC124:
 4526 030a 2B424155 		.ascii	"+BAUD:<921600>\015\000"
 4526      443A3C39 
 4526      32313630 
 4526      303E0D00 
 4527              	.LC128:
 4528 031a 2B545850 		.ascii	"+TXP:<-18dBm>\015\000"
 4528      3A3C2D31 
 4528      3864426D 
 4528      3E0D00
 4529              	.LC130:
 4530 0329 2B545850 		.ascii	"+TXP:<-12dBm>\015\000"
 4530      3A3C2D31 
 4530      3264426D 
 4530      3E0D00
 4531              	.LC132:
 4532 0338 2B545850 		.ascii	"+TXP:<-6dBm>\015\000"
 4532      3A3C2D36 
 4532      64426D3E 
 4532      0D00
 4533              	.LC134:
 4534 0346 2B545850 		.ascii	"+TXP:<-3dBm>\015\000"
 4534      3A3C2D33 
 4534      64426D3E 
 4534      0D00
 4535              	.LC136:
 4536 0354 2B545850 		.ascii	"+TXP:<-2dBm>\015\000"
ARM GAS  C:\Users\Helon\AppData\Local\Temp\ccTLkFeM.s 			page 137


 4536      3A3C2D32 
 4536      64426D3E 
 4536      0D00
 4537              	.LC138:
 4538 0362 2B545850 		.ascii	"+TXP:<-1dBm>\015\000"
 4538      3A3C2D31 
 4538      64426D3E 
 4538      0D00
 4539              	.LC140:
 4540 0370 2B545850 		.ascii	"+TXP:<0dBm>\015\000"
 4540      3A3C3064 
 4540      426D3E0D 
 4540      00
 4541              	.LC142:
 4542 037d 2B545850 		.ascii	"+TXP:<3dBm>\015\000"
 4542      3A3C3364 
 4542      426D3E0D 
 4542      00
 4543              	.LC150:
 4544 038a 2B564552 		.ascii	"+VERSION=Ver1.4\015\000"
 4544      53494F4E 
 4544      3D566572 
 4544      312E340D 
 4544      00
 4545              	.LC153:
 4546 039b 2B4C4144 		.ascii	"+LADDR:<0x%02X%02X%02X%02X%02X%02X>\015\012\000"
 4546      44523A3C 
 4546      30782530 
 4546      32582530 
 4546      32582530 
 4547              	.LC156:
 4548 03c1 2B4E414D 		.ascii	"+NAME=<%s>\015\012\000"
 4548      453D3C25 
 4548      733E0D0A 
 4548      00
 4549              	.LC159:
 4550 03ce 41542B45 		.ascii	"AT+ERR=2\015\000"
 4550      52523D32 
 4550      0D00
 4551              	.LC164:
 4552 03d8 2B414456 		.ascii	"+ADVD=<0x\000"
 4552      443D3C30 
 4552      7800
 4553              	.LC166:
 4554 03e2 25303258 		.ascii	"%02X\000"
 4554      00
 4555              	.LC168:
 4556 03e7 3E0D00   		.ascii	">\015\000"
 4557              	.LC170:
 4558 03ea 2B414456 		.ascii	"+ADVI=<MIN=%hdms,MAX=%hdms,TIMEOUT=%hus>\015\012\000"
 4558      493D3C4D 
 4558      494E3D25 
 4558      68646D73 
 4558      2C4D4158 
 4559              	.LC172:
 4560 0415 2B434F4E 		.ascii	"+CONNI=<CONNINTV=0x%04X,CONNTO=0x%04X,CONNLATENCY=0"
 4560      4E493D3C 
ARM GAS  C:\Users\Helon\AppData\Local\Temp\ccTLkFeM.s 			page 138


 4560      434F4E4E 
 4560      494E5456 
 4560      3D307825 
 4561 0448 78253034 		.ascii	"x%04X>\015\012\000"
 4561      583E0D0A 
 4561      00
 4562              	.LC177:
 4563 0451 2B524F4C 		.ascii	"+ROLE:<Peripheral>\015\000"
 4563      453A3C50 
 4563      65726970 
 4563      68657261 
 4563      6C3E0D00 
 4564              	.LC179:
 4565 0465 2B524F4C 		.ascii	"+ROLE:<Central>\015\000"
 4565      453A3C43 
 4565      656E7472 
 4565      616C3E0D 
 4565      00
 4566              	.LC181:
 4567 0476 2B494E51 		.ascii	"+INQ_SCAN:<%d,0x%02X%02X%02X%02X%02X%02X>\015\012\000"
 4567      5F534341 
 4567      4E3A3C25 
 4567      642C3078 
 4567      25303258 
 4568              	.LC186:
 4569 04a2 2B525353 		.ascii	"+RSSI:<%ddBm>\015\012\000"
 4569      493A3C25 
 4569      6464426D 
 4569      3E0D0A00 
 4570              	.LC188:
 4571 04b2 256C640D 		.ascii	"%ld\015\012\000"
 4571      0A00
 4572              	.LC193:
 4573 04b8 2B535441 		.ascii	"+STAUS=<STATE_STOPPED>\015\000"
 4573      55533D3C 
 4573      53544154 
 4573      455F5354 
 4573      4F505045 
 4574              	.LC195:
 4575 04d0 2B535441 		.ascii	"+STAUS=<STATE_INITIALIZING>\015\000"
 4575      55533D3C 
 4575      53544154 
 4575      455F494E 
 4575      49544941 
 4576              	.LC197:
 4577 04ed 2B535441 		.ascii	"+STAUS=<STATE_CONNECTED>\015\000"
 4577      55533D3C 
 4577      53544154 
 4577      455F434F 
 4577      4E4E4543 
 4578              	.LC199:
 4579 0507 2B535441 		.ascii	"+STAUS=<STATE_ADVERTISING>\015\000"
 4579      55533D3C 
 4579      53544154 
 4579      455F4144 
 4579      56455254 
 4580              	.LC201:
ARM GAS  C:\Users\Helon\AppData\Local\Temp\ccTLkFeM.s 			page 139


 4581 0523 2B535441 		.ascii	"+STAUS=<STATE_SCANNING>\015\000"
 4581      55533D3C 
 4581      53544154 
 4581      455F5343 
 4581      414E4E49 
 4582              	.LC203:
 4583 053c 2B535441 		.ascii	"+STAUS=<STATE_CONNECTING>\015\000"
 4583      55533D3C 
 4583      53544154 
 4583      455F434F 
 4583      4E4E4543 
 4584              	.LC205:
 4585 0557 2B535441 		.ascii	"+STAUS=<STATE_DISCONNECTED>\015\000"
 4585      55533D3C 
 4585      53544154 
 4585      455F4449 
 4585      53434F4E 
 4586              	.LC207:
 4587 0574 2B494F43 		.ascii	"+IOCAP=<DISPLAY_ONLY>\015\000"
 4587      41503D3C 
 4587      44495350 
 4587      4C41595F 
 4587      4F4E4C59 
 4588              	.LC209:
 4589 058b 2B494F43 		.ascii	"+IOCAP=<DISPLAY_YESNO>\015\000"
 4589      41503D3C 
 4589      44495350 
 4589      4C41595F 
 4589      5945534E 
 4590              	.LC211:
 4591 05a3 2B494F43 		.ascii	"+IOCAP=<KEYBOARD_ONLY>\015\000"
 4591      41503D3C 
 4591      4B455942 
 4591      4F415244 
 4591      5F4F4E4C 
 4592              	.LC213:
 4593 05bb 2B494F43 		.ascii	"+IOCAP=<NOINPUT_NOOUTPUT>\015\000"
 4593      41503D3C 
 4593      4E4F494E 
 4593      5055545F 
 4593      4E4F4F55 
 4594              	.LC215:
 4595 05d6 2B494F43 		.ascii	"+IOCAP=<KEYBOARD_DISPLAY>\015\000"
 4595      41503D3C 
 4595      4B455942 
 4595      4F415244 
 4595      5F444953 
 4596              	.LC217:
 4597 05f1 2B415554 		.ascii	"+AUTH=<ENABLE>\015\000"
 4597      483D3C45 
 4597      4E41424C 
 4597      453E0D00 
 4598              	.LC219:
 4599 0601 2B415554 		.ascii	"+AUTH=<DISABLE>\015\000"
 4599      483D3C44 
 4599      49534142 
 4599      4C453E0D 
ARM GAS  C:\Users\Helon\AppData\Local\Temp\ccTLkFeM.s 			page 140


 4599      00
 4600              	.LC233:
 4601 0612 41542B4E 		.ascii	"AT+NOTIFY=0\000"
 4601      4F544946 
 4601      593D3000 
 4602              	.LC238:
 4603 061e 41542B4E 		.ascii	"AT+NOTIFY=?\000"
 4603      4F544946 
 4603      593D3F00 
 4604              	.LC243:
 4605 062a 2B415554 		.ascii	"+AUTHKEY=<INVALID>\015\000"
 4605      484B4559 
 4605      3D3C494E 
 4605      56414C49 
 4605      443E0D00 
 4606              	.LC245:
 4607 063e 4359424C 		.ascii	"CYBLE_ERROR_INVALID_PARAMETER \015\000"
 4607      455F4552 
 4607      524F525F 
 4607      494E5641 
 4607      4C49445F 
 4608              	.LC247:
 4609 065e 4359424C 		.ascii	"CYBLE_ERROR_MEMORY_ALLOCATION_FAILED\015\000"
 4609      455F4552 
 4609      524F525F 
 4609      4D454D4F 
 4609      52595F41 
 4610              	.LC249:
 4611 0684 4359424C 		.ascii	"CYBLE_ERROR_NO_DEVICE_ENTITY\015\000"
 4611      455F4552 
 4611      524F525F 
 4611      4E4F5F44 
 4611      45564943 
 4612              	.LC251:
 4613 06a2 2B415554 		.ascii	"+AUTHKEY=<SUCCESFULLY>\015\000"
 4613      484B4559 
 4613      3D3C5355 
 4613      43434553 
 4613      46554C4C 
 4614              	.LC257:
 4615 06ba 41542B52 		.ascii	"AT+RESET\000"
 4615      45534554 
 4615      00
 4616              	.LC258:
 4617 06c3 41542B52 		.ascii	"AT+REFAC\000"
 4617      45464143 
 4617      00
 4618              	.LC259:
 4619 06cc 41542B56 		.ascii	"AT+VERSION\000"
 4619      45525349 
 4619      4F4E00
 4620              	.LC260:
 4621 06d7 41542B42 		.ascii	"AT+BAUD\000"
 4621      41554400 
 4622              	.LC261:
 4623 06df 41542B4C 		.ascii	"AT+LADDR\000"
 4623      41444452 
ARM GAS  C:\Users\Helon\AppData\Local\Temp\ccTLkFeM.s 			page 141


 4623      00
 4624              	.LC262:
 4625 06e8 41542B4E 		.ascii	"AT+NAME\000"
 4625      414D4500 
 4626              	.LC263:
 4627 06f0 41542B43 		.ascii	"AT+CPIN\000"
 4627      50494E00 
 4628              	.LC264:
 4629 06f8 41542B54 		.ascii	"AT+TXP\000"
 4629      585000
 4630              	.LC265:
 4631 06ff 41542B41 		.ascii	"AT+ADVD\000"
 4631      44564400 
 4632              	.LC266:
 4633 0707 41542B41 		.ascii	"AT+ADVI\000"
 4633      44564900 
 4634              	.LC267:
 4635 070f 41542B43 		.ascii	"AT+CONNI\000"
 4635      4F4E4E49 
 4635      00
 4636              	.LC268:
 4637 0718 41542B52 		.ascii	"AT+ROLE\000"
 4637      4F4C4500 
 4638              	.LC269:
 4639 0720 41542B53 		.ascii	"AT+SCAN\000"
 4639      43414E00 
 4640              	.LC270:
 4641 0728 41542B43 		.ascii	"AT+CONNT\000"
 4641      4F4E4E54 
 4641      00
 4642              	.LC271:
 4643 0731 41542B44 		.ascii	"AT+DISCONN\000"
 4643      4953434F 
 4643      4E4E00
 4644              	.LC272:
 4645 073c 41542B4C 		.ascii	"AT+LOGIN\000"
 4645      4F47494E 
 4645      00
 4646              	.LC273:
 4647 0745 41542B54 		.ascii	"AT+TX\000"
 4647      5800
 4648              	.LC274:
 4649 074b 41542B52 		.ascii	"AT+RSSI\000"
 4649      53534900 
 4650              	.LC275:
 4651 0753 41542B44 		.ascii	"AT+DISALLCHAR\000"
 4651      4953414C 
 4651      4C434841 
 4651      5200
 4652              	.LC276:
 4653 0761 415400   		.ascii	"AT\000"
 4654              	.LC277:
 4655 0764 41542B53 		.ascii	"AT+SPEED\000"
 4655      50454544 
 4655      00
 4656              	.LC278:
 4657 076d 41542B4E 		.ascii	"AT+NOTIFY\000"
ARM GAS  C:\Users\Helon\AppData\Local\Temp\ccTLkFeM.s 			page 142


 4657      4F544946 
 4657      5900
 4658              	.LC279:
 4659 0777 41542B53 		.ascii	"AT+STAUS\000"
 4659      54415553 
 4659      00
 4660              	.LC280:
 4661 0780 41542B41 		.ascii	"AT+ADVS\000"
 4661      44565300 
 4662              	.LC281:
 4663 0788 41542B41 		.ascii	"AT+AUTH\000"
 4663      55544800 
 4664              	.LC282:
 4665 0790 41542B49 		.ascii	"AT+IOCAP\000"
 4665      4F434150 
 4665      00
 4666              		.data
 4667              		.align	2
 4668              		.set	.LANCHOR1,. + 0
 4669              		.type	connParam, %object
 4670              		.size	connParam, 8
 4671              	connParam:
 4672 0000 1000     		.short	16
 4673 0002 1000     		.short	16
 4674 0004 0000     		.short	0
 4675 0006 E803     		.short	1000
 4676              		.type	negotiatedMtu, %object
 4677              		.size	negotiatedMtu, 2
 4678              	negotiatedMtu:
 4679 0008 1700     		.short	23
 4680              		.type	LowPower_EN, %object
 4681              		.size	LowPower_EN, 1
 4682              	LowPower_EN:
 4683 000a 01       		.byte	1
 4684 000b 00       		.space	1
 4685              		.type	cccdNotifFlagSetStruct, %object
 4686              		.size	cccdNotifFlagSetStruct, 8
 4687              	cccdNotifFlagSetStruct:
 4688 000c 00000000 		.word	cccdNotifEnabledValue
 4689 0010 0200     		.short	2
 4690 0012 0000     		.short	0
 4691              		.type	StringArry, %object
 4692              		.size	StringArry, 104
 4693              	StringArry:
 4694 0014 BA060000 		.word	.LC257
 4695 0018 C3060000 		.word	.LC258
 4696 001c CC060000 		.word	.LC259
 4697 0020 D7060000 		.word	.LC260
 4698 0024 DF060000 		.word	.LC261
 4699 0028 E8060000 		.word	.LC262
 4700 002c F0060000 		.word	.LC263
 4701 0030 F8060000 		.word	.LC264
 4702 0034 FF060000 		.word	.LC265
 4703 0038 07070000 		.word	.LC266
 4704 003c 0F070000 		.word	.LC267
 4705 0040 18070000 		.word	.LC268
 4706 0044 20070000 		.word	.LC269
ARM GAS  C:\Users\Helon\AppData\Local\Temp\ccTLkFeM.s 			page 143


 4707 0048 28070000 		.word	.LC270
 4708 004c 31070000 		.word	.LC271
 4709 0050 3C070000 		.word	.LC272
 4710 0054 45070000 		.word	.LC273
 4711 0058 4B070000 		.word	.LC274
 4712 005c 53070000 		.word	.LC275
 4713 0060 61070000 		.word	.LC276
 4714 0064 64070000 		.word	.LC277
 4715 0068 6D070000 		.word	.LC278
 4716 006c 77070000 		.word	.LC279
 4717 0070 80070000 		.word	.LC280
 4718 0074 88070000 		.word	.LC281
 4719 0078 90070000 		.word	.LC282
 4720              		.type	Baud_rate_idx, %object
 4721              		.size	Baud_rate_idx, 1
 4722              	Baud_rate_idx:
 4723 007c 37       		.byte	55
 4724 007d 00       		.space	1
 4725              		.type	uartIdleCount.7941, %object
 4726              		.size	uartIdleCount.7941, 2
 4727              	uartIdleCount.7941:
 4728 007e 581B     		.short	7000
 4729              		.type	readRequestData, %object
 4730              		.size	readRequestData, 2
 4731              	readRequestData:
 4732 0080 0F00     		.short	15
 4733              		.type	cccdNotifEnabledValue, %object
 4734              		.size	cccdNotifEnabledValue, 2
 4735              	cccdNotifEnabledValue:
 4736 0082 01       		.byte	1
 4737 0083 00       		.byte	0
 4738              		.type	MTU_REQ_FLAG, %object
 4739              		.size	MTU_REQ_FLAG, 1
 4740              	MTU_REQ_FLAG:
 4741 0084 01       		.byte	1
 4742 0085 000000   		.bss
 4743              		.align	2
 4744              		.set	.LANCHOR0,. + 0
 4745              		.type	STOP_SCAN_FLAG, %object
 4746              		.size	STOP_SCAN_FLAG, 1
 4747              	STOP_SCAN_FLAG:
 4748 0000 00       		.space	1
 4749              		.type	Role, %object
 4750              		.size	Role, 1
 4751              	Role:
 4752 0001 00       		.space	1
 4753              		.type	Conn_or_Disconn_Idx, %object
 4754              		.size	Conn_or_Disconn_Idx, 1
 4755              	Conn_or_Disconn_Idx:
 4756 0002 00       		.space	1
 4757              		.type	AUTHFLAG, %object
 4758              		.size	AUTHFLAG, 1
 4759              	AUTHFLAG:
 4760 0003 00       		.space	1
 4761              		.type	testCount, %object
 4762              		.size	testCount, 4
 4763              	testCount:
ARM GAS  C:\Users\Helon\AppData\Local\Temp\ccTLkFeM.s 			page 144


 4764 0004 00000000 		.space	4
 4765              		.type	charNotificationEnabled, %object
 4766              		.size	charNotificationEnabled, 1
 4767              	charNotificationEnabled:
 4768 0008 00       		.space	1
 4769              		.type	CommandMode, %object
 4770              		.size	CommandMode, 1
 4771              	CommandMode:
 4772 0009 00       		.space	1
 4773              		.type	TroughtTest_Flag, %object
 4774              		.size	TroughtTest_Flag, 1
 4775              	TroughtTest_Flag:
 4776 000a 00       		.space	1
 4777 000b 00       		.space	1
 4778              		.type	totalByteCounter, %object
 4779              		.size	totalByteCounter, 4
 4780              	totalByteCounter:
 4781 000c 00000000 		.space	4
 4782              		.type	KEYBOARD, %object
 4783              		.size	KEYBOARD, 1
 4784              	KEYBOARD:
 4785 0010 00       		.space	1
 4786              		.type	_10sIsOver, %object
 4787              		.size	_10sIsOver, 1
 4788              	_10sIsOver:
 4789 0011 00       		.space	1
 4790 0012 0000     		.space	2
 4791              		.type	timercount.7915, %object
 4792              		.size	timercount.7915, 4
 4793              	timercount.7915:
 4794 0014 00000000 		.space	4
 4795              		.type	rx_isover, %object
 4796              		.size	rx_isover, 1
 4797              	rx_isover:
 4798 0018 00       		.space	1
 4799              		.type	Buffer_Length, %object
 4800              		.size	Buffer_Length, 1
 4801              	Buffer_Length:
 4802 0019 00       		.space	1
 4803              		.type	RX_BUFFER, %object
 4804              		.size	RX_BUFFER, 48
 4805              	RX_BUFFER:
 4806 001a 00000000 		.space	48
 4806      00000000 
 4806      00000000 
 4806      00000000 
 4806      00000000 
 4807              		.type	iocapability, %object
 4808              		.size	iocapability, 1
 4809              	iocapability:
 4810 004a 00       		.space	1
 4811 004b 00       		.text
 4812              	.Letext0:
 4813              		.file 2 "c:\\program files (x86)\\cypress\\psoc creator\\3.3\\psoc creator\\import\\gnu\\arm\\4.9.
 4814              		.file 3 "c:\\program files (x86)\\cypress\\psoc creator\\3.3\\psoc creator\\import\\gnu\\arm\\4.9.
 4815              		.file 4 "Generated_Source\\PSoC4/cytypes.h"
 4816              		.file 5 "c:\\program files (x86)\\cypress\\psoc creator\\3.3\\psoc creator\\import\\gnu\\arm\\4.9.
ARM GAS  C:\Users\Helon\AppData\Local\Temp\ccTLkFeM.s 			page 145


 4817              		.file 6 "Generated_Source\\PSoC4/BLE_Stack.h"
 4818              		.file 7 "Generated_Source\\PSoC4/BLE_StackHostMain.h"
 4819              		.file 8 "Generated_Source\\PSoC4/BLE_StackGap.h"
 4820              		.file 9 "Generated_Source\\PSoC4/BLE_StackGatt.h"
 4821              		.file 10 "Generated_Source\\PSoC4/BLE_StackGattServer.h"
 4822              		.file 11 "Generated_Source\\PSoC4/BLE_StackGattClient.h"
 4823              		.file 12 "Generated_Source\\PSoC4/BLE.h"
 4824              		.file 13 "Generated_Source\\PSoC4/BLE_eventHandler.h"
 4825              		.file 14 "Generated_Source\\PSoC4/UART_SPI_UART.h"
 4826              		.file 15 ".\\BLEApplication.h"
 4827              		.file 16 ".\\BLEClient.h"
 4828              		.file 17 "c:\\program files (x86)\\cypress\\psoc creator\\3.3\\psoc creator\\import\\gnu\\arm\\4.9
 4829              		.file 18 "c:\\program files (x86)\\cypress\\psoc creator\\3.3\\psoc creator\\import\\gnu\\arm\\4.9
 4830              		.file 19 "Generated_Source\\PSoC4/BLE_StackL2cap.h"
 4831              		.file 20 "Generated_Source\\PSoC4/Timer.h"
 4832              		.file 21 "Generated_Source\\PSoC4/Status_LED.h"
 4833              		.file 22 "Generated_Source\\PSoC4/UART.h"
 4834              		.file 23 "Generated_Source\\PSoC4/cyPm.h"
 4835              		.file 24 "Generated_Source\\PSoC4/CyLib.h"
 4836              		.file 25 "Generated_Source\\PSoC4/UART_RX_WAKEUP_IRQ.h"
 4837              		.file 26 "Generated_Source\\PSoC4/UART_rx_wake.h"
 4838              		.file 27 "Generated_Source\\PSoC4/Connected_LED.h"
 4839              		.file 28 "Generated_Source\\PSoC4/CTS.h"
 4840              		.file 29 "Generated_Source\\PSoC4/TimerInterrupt.h"
 4841              		.file 30 "c:\\program files (x86)\\cypress\\psoc creator\\3.3\\psoc creator\\import\\gnu\\arm\\4.9
 4842              		.file 31 "c:\\program files (x86)\\cypress\\psoc creator\\3.3\\psoc creator\\import\\gnu\\arm\\4.9
 4843              		.file 32 ".\\WriteUserSFlash.h"
 4844              		.file 33 "<built-in>"
 4845              		.section	.debug_info,"",%progbits
 4846              	.Ldebug_info0:
 4847 0000 BD350000 		.4byte	0x35bd
 4848 0004 0400     		.2byte	0x4
 4849 0006 00000000 		.4byte	.Ldebug_abbrev0
 4850 000a 04       		.byte	0x4
 4851 000b 01       		.uleb128 0x1
 4852 000c DB290000 		.4byte	.LASF746
 4853 0010 01       		.byte	0x1
 4854 0011 11400000 		.4byte	.LASF747
 4855 0015 D90B0000 		.4byte	.LASF748
 4856 0019 20000000 		.4byte	.Ldebug_ranges0+0x20
 4857 001d 00000000 		.4byte	0
 4858 0021 00000000 		.4byte	.Ldebug_line0
 4859 0025 02       		.uleb128 0x2
 4860 0026 08       		.byte	0x8
 4861 0027 04       		.byte	0x4
 4862 0028 90240000 		.4byte	.LASF0
 4863 002c 03       		.uleb128 0x3
 4864 002d 04       		.byte	0x4
 4865 002e 05       		.byte	0x5
 4866 002f 696E7400 		.ascii	"int\000"
 4867 0033 02       		.uleb128 0x2
 4868 0034 02       		.byte	0x2
 4869 0035 05       		.byte	0x5
 4870 0036 633A0000 		.4byte	.LASF1
 4871 003a 04       		.uleb128 0x4
 4872 003b EE300000 		.4byte	.LASF3
 4873 003f 02       		.byte	0x2
ARM GAS  C:\Users\Helon\AppData\Local\Temp\ccTLkFeM.s 			page 146


 4874 0040 1B       		.byte	0x1b
 4875 0041 45000000 		.4byte	0x45
 4876 0045 02       		.uleb128 0x2
 4877 0046 01       		.byte	0x1
 4878 0047 06       		.byte	0x6
 4879 0048 760F0000 		.4byte	.LASF2
 4880 004c 04       		.uleb128 0x4
 4881 004d B0090000 		.4byte	.LASF4
 4882 0051 02       		.byte	0x2
 4883 0052 1D       		.byte	0x1d
 4884 0053 57000000 		.4byte	0x57
 4885 0057 02       		.uleb128 0x2
 4886 0058 01       		.byte	0x1
 4887 0059 08       		.byte	0x8
 4888 005a 30110000 		.4byte	.LASF5
 4889 005e 04       		.uleb128 0x4
 4890 005f 4C350000 		.4byte	.LASF6
 4891 0063 02       		.byte	0x2
 4892 0064 29       		.byte	0x29
 4893 0065 33000000 		.4byte	0x33
 4894 0069 04       		.uleb128 0x4
 4895 006a 45150000 		.4byte	.LASF7
 4896 006e 02       		.byte	0x2
 4897 006f 2B       		.byte	0x2b
 4898 0070 74000000 		.4byte	0x74
 4899 0074 02       		.uleb128 0x2
 4900 0075 02       		.byte	0x2
 4901 0076 07       		.byte	0x7
 4902 0077 E9420000 		.4byte	.LASF8
 4903 007b 02       		.uleb128 0x2
 4904 007c 04       		.byte	0x4
 4905 007d 05       		.byte	0x5
 4906 007e 810B0000 		.4byte	.LASF9
 4907 0082 04       		.uleb128 0x4
 4908 0083 C6220000 		.4byte	.LASF10
 4909 0087 02       		.byte	0x2
 4910 0088 41       		.byte	0x41
 4911 0089 8D000000 		.4byte	0x8d
 4912 008d 02       		.uleb128 0x2
 4913 008e 04       		.byte	0x4
 4914 008f 07       		.byte	0x7
 4915 0090 4A1E0000 		.4byte	.LASF11
 4916 0094 02       		.uleb128 0x2
 4917 0095 08       		.byte	0x8
 4918 0096 05       		.byte	0x5
 4919 0097 46230000 		.4byte	.LASF12
 4920 009b 02       		.uleb128 0x2
 4921 009c 08       		.byte	0x8
 4922 009d 07       		.byte	0x7
 4923 009e 84310000 		.4byte	.LASF13
 4924 00a2 02       		.uleb128 0x2
 4925 00a3 04       		.byte	0x4
 4926 00a4 07       		.byte	0x7
 4927 00a5 37280000 		.4byte	.LASF14
 4928 00a9 04       		.uleb128 0x4
 4929 00aa 26000000 		.4byte	.LASF15
 4930 00ae 03       		.byte	0x3
ARM GAS  C:\Users\Helon\AppData\Local\Temp\ccTLkFeM.s 			page 147


 4931 00af 14       		.byte	0x14
 4932 00b0 3A000000 		.4byte	0x3a
 4933 00b4 04       		.uleb128 0x4
 4934 00b5 C80F0000 		.4byte	.LASF16
 4935 00b9 03       		.byte	0x3
 4936 00ba 15       		.byte	0x15
 4937 00bb 4C000000 		.4byte	0x4c
 4938 00bf 04       		.uleb128 0x4
 4939 00c0 753B0000 		.4byte	.LASF17
 4940 00c4 03       		.byte	0x3
 4941 00c5 20       		.byte	0x20
 4942 00c6 5E000000 		.4byte	0x5e
 4943 00ca 04       		.uleb128 0x4
 4944 00cb E7310000 		.4byte	.LASF18
 4945 00cf 03       		.byte	0x3
 4946 00d0 21       		.byte	0x21
 4947 00d1 69000000 		.4byte	0x69
 4948 00d5 04       		.uleb128 0x4
 4949 00d6 4A410000 		.4byte	.LASF19
 4950 00da 03       		.byte	0x3
 4951 00db 2D       		.byte	0x2d
 4952 00dc 82000000 		.4byte	0x82
 4953 00e0 04       		.uleb128 0x4
 4954 00e1 C6390000 		.4byte	.LASF20
 4955 00e5 04       		.byte	0x4
 4956 00e6 C2       		.byte	0xc2
 4957 00e7 57000000 		.4byte	0x57
 4958 00eb 04       		.uleb128 0x4
 4959 00ec 66460000 		.4byte	.LASF21
 4960 00f0 04       		.byte	0x4
 4961 00f1 C3       		.byte	0xc3
 4962 00f2 74000000 		.4byte	0x74
 4963 00f6 04       		.uleb128 0x4
 4964 00f7 50030000 		.4byte	.LASF22
 4965 00fb 04       		.byte	0x4
 4966 00fc C4       		.byte	0xc4
 4967 00fd 8D000000 		.4byte	0x8d
 4968 0101 04       		.uleb128 0x4
 4969 0102 2F080000 		.4byte	.LASF23
 4970 0106 04       		.byte	0x4
 4971 0107 C5       		.byte	0xc5
 4972 0108 45000000 		.4byte	0x45
 4973 010c 02       		.uleb128 0x2
 4974 010d 04       		.byte	0x4
 4975 010e 04       		.byte	0x4
 4976 010f AC260000 		.4byte	.LASF24
 4977 0113 04       		.uleb128 0x4
 4978 0114 45060000 		.4byte	.LASF25
 4979 0118 04       		.byte	0x4
 4980 0119 D3       		.byte	0xd3
 4981 011a 1E010000 		.4byte	0x11e
 4982 011e 02       		.uleb128 0x2
 4983 011f 01       		.byte	0x1
 4984 0120 08       		.byte	0x8
 4985 0121 4F140000 		.4byte	.LASF26
 4986 0125 05       		.uleb128 0x5
 4987 0126 E0000000 		.4byte	0xe0
ARM GAS  C:\Users\Helon\AppData\Local\Temp\ccTLkFeM.s 			page 148


 4988 012a 06       		.uleb128 0x6
 4989 012b F0310000 		.4byte	.LASF27
 4990 012f 04       		.byte	0x4
 4991 0130 6E01     		.2byte	0x16e
 4992 0132 36010000 		.4byte	0x136
 4993 0136 05       		.uleb128 0x5
 4994 0137 F6000000 		.4byte	0xf6
 4995 013b 06       		.uleb128 0x6
 4996 013c 56300000 		.4byte	.LASF28
 4997 0140 04       		.byte	0x4
 4998 0141 7E01     		.2byte	0x17e
 4999 0143 47010000 		.4byte	0x147
 5000 0147 07       		.uleb128 0x7
 5001 0148 04       		.byte	0x4
 5002 0149 4D010000 		.4byte	0x14d
 5003 014d 08       		.uleb128 0x8
 5004 014e 04       		.uleb128 0x4
 5005 014f 81000000 		.4byte	.LASF29
 5006 0153 05       		.byte	0x5
 5007 0154 D4       		.byte	0xd4
 5008 0155 A2000000 		.4byte	0xa2
 5009 0159 02       		.uleb128 0x2
 5010 015a 04       		.byte	0x4
 5011 015b 07       		.byte	0x7
 5012 015c 88000000 		.4byte	.LASF30
 5013 0160 09       		.uleb128 0x9
 5014 0161 04       		.byte	0x4
 5015 0162 07       		.uleb128 0x7
 5016 0163 04       		.byte	0x4
 5017 0164 1E010000 		.4byte	0x11e
 5018 0168 07       		.uleb128 0x7
 5019 0169 04       		.byte	0x4
 5020 016a 6E010000 		.4byte	0x16e
 5021 016e 0A       		.uleb128 0xa
 5022 016f 1E010000 		.4byte	0x11e
 5023 0173 0B       		.uleb128 0xb
 5024 0174 01       		.byte	0x1
 5025 0175 06       		.byte	0x6
 5026 0176 A4       		.byte	0xa4
 5027 0177 F8020000 		.4byte	0x2f8
 5028 017b 0C       		.uleb128 0xc
 5029 017c F5140000 		.4byte	.LASF31
 5030 0180 00       		.sleb128 0
 5031 0181 0C       		.uleb128 0xc
 5032 0182 9D0C0000 		.4byte	.LASF32
 5033 0186 01       		.sleb128 1
 5034 0187 0C       		.uleb128 0xc
 5035 0188 A3310000 		.4byte	.LASF33
 5036 018c 02       		.sleb128 2
 5037 018d 0C       		.uleb128 0xc
 5038 018e 5A100000 		.4byte	.LASF34
 5039 0192 03       		.sleb128 3
 5040 0193 0C       		.uleb128 0xc
 5041 0194 50440000 		.4byte	.LASF35
 5042 0198 04       		.sleb128 4
 5043 0199 0C       		.uleb128 0xc
 5044 019a ED1F0000 		.4byte	.LASF36
ARM GAS  C:\Users\Helon\AppData\Local\Temp\ccTLkFeM.s 			page 149


 5045 019e 05       		.sleb128 5
 5046 019f 0C       		.uleb128 0xc
 5047 01a0 D13C0000 		.4byte	.LASF37
 5048 01a4 20       		.sleb128 32
 5049 01a5 0C       		.uleb128 0xc
 5050 01a6 18080000 		.4byte	.LASF38
 5051 01aa 21       		.sleb128 33
 5052 01ab 0C       		.uleb128 0xc
 5053 01ac F2210000 		.4byte	.LASF39
 5054 01b0 22       		.sleb128 34
 5055 01b1 0C       		.uleb128 0xc
 5056 01b2 FE2B0000 		.4byte	.LASF40
 5057 01b6 23       		.sleb128 35
 5058 01b7 0C       		.uleb128 0xc
 5059 01b8 C01C0000 		.4byte	.LASF41
 5060 01bc 24       		.sleb128 36
 5061 01bd 0C       		.uleb128 0xc
 5062 01be 0F1D0000 		.4byte	.LASF42
 5063 01c2 25       		.sleb128 37
 5064 01c3 0C       		.uleb128 0xc
 5065 01c4 FA380000 		.4byte	.LASF43
 5066 01c8 26       		.sleb128 38
 5067 01c9 0C       		.uleb128 0xc
 5068 01ca A9020000 		.4byte	.LASF44
 5069 01ce 27       		.sleb128 39
 5070 01cf 0C       		.uleb128 0xc
 5071 01d0 BB450000 		.4byte	.LASF45
 5072 01d4 28       		.sleb128 40
 5073 01d5 0C       		.uleb128 0xc
 5074 01d6 FD2E0000 		.4byte	.LASF46
 5075 01da 29       		.sleb128 41
 5076 01db 0C       		.uleb128 0xc
 5077 01dc AE200000 		.4byte	.LASF47
 5078 01e0 2A       		.sleb128 42
 5079 01e1 0C       		.uleb128 0xc
 5080 01e2 CA2A0000 		.4byte	.LASF48
 5081 01e6 2B       		.sleb128 43
 5082 01e7 0C       		.uleb128 0xc
 5083 01e8 B2410000 		.4byte	.LASF49
 5084 01ec 2C       		.sleb128 44
 5085 01ed 0C       		.uleb128 0xc
 5086 01ee 7D3B0000 		.4byte	.LASF50
 5087 01f2 C000     		.sleb128 64
 5088 01f4 0C       		.uleb128 0xc
 5089 01f5 F9020000 		.4byte	.LASF51
 5090 01f9 C100     		.sleb128 65
 5091 01fb 0C       		.uleb128 0xc
 5092 01fc 7D440000 		.4byte	.LASF52
 5093 0200 C200     		.sleb128 66
 5094 0202 0C       		.uleb128 0xc
 5095 0203 C82F0000 		.4byte	.LASF53
 5096 0207 C300     		.sleb128 67
 5097 0209 0C       		.uleb128 0xc
 5098 020a 3E110000 		.4byte	.LASF54
 5099 020e C400     		.sleb128 68
 5100 0210 0C       		.uleb128 0xc
 5101 0211 D2100000 		.4byte	.LASF55
ARM GAS  C:\Users\Helon\AppData\Local\Temp\ccTLkFeM.s 			page 150


 5102 0215 C500     		.sleb128 69
 5103 0217 0C       		.uleb128 0xc
 5104 0218 B1360000 		.4byte	.LASF56
 5105 021c C600     		.sleb128 70
 5106 021e 0C       		.uleb128 0xc
 5107 021f 93360000 		.4byte	.LASF57
 5108 0223 C700     		.sleb128 71
 5109 0225 0C       		.uleb128 0xc
 5110 0226 BE130000 		.4byte	.LASF58
 5111 022a C800     		.sleb128 72
 5112 022c 0C       		.uleb128 0xc
 5113 022d 872C0000 		.4byte	.LASF59
 5114 0231 C900     		.sleb128 73
 5115 0233 0C       		.uleb128 0xc
 5116 0234 7B150000 		.4byte	.LASF60
 5117 0238 CA00     		.sleb128 74
 5118 023a 0C       		.uleb128 0xc
 5119 023b 8B140000 		.4byte	.LASF61
 5120 023f CB00     		.sleb128 75
 5121 0241 0C       		.uleb128 0xc
 5122 0242 432B0000 		.4byte	.LASF62
 5123 0246 CC00     		.sleb128 76
 5124 0248 0C       		.uleb128 0xc
 5125 0249 17380000 		.4byte	.LASF63
 5126 024d CD00     		.sleb128 77
 5127 024f 0C       		.uleb128 0xc
 5128 0250 200B0000 		.4byte	.LASF64
 5129 0254 CE00     		.sleb128 78
 5130 0256 0C       		.uleb128 0xc
 5131 0257 44280000 		.4byte	.LASF65
 5132 025b CF00     		.sleb128 79
 5133 025d 0C       		.uleb128 0xc
 5134 025e B23C0000 		.4byte	.LASF66
 5135 0262 D000     		.sleb128 80
 5136 0264 0C       		.uleb128 0xc
 5137 0265 DF150000 		.4byte	.LASF67
 5138 0269 D100     		.sleb128 81
 5139 026b 0C       		.uleb128 0xc
 5140 026c F7070000 		.4byte	.LASF68
 5141 0270 D200     		.sleb128 82
 5142 0272 0C       		.uleb128 0xc
 5143 0273 AC400000 		.4byte	.LASF69
 5144 0277 D300     		.sleb128 83
 5145 0279 0C       		.uleb128 0xc
 5146 027a FD450000 		.4byte	.LASF70
 5147 027e D400     		.sleb128 84
 5148 0280 0C       		.uleb128 0xc
 5149 0281 762B0000 		.4byte	.LASF71
 5150 0285 D500     		.sleb128 85
 5151 0287 0C       		.uleb128 0xc
 5152 0288 B7160000 		.4byte	.LASF72
 5153 028c D600     		.sleb128 86
 5154 028e 0C       		.uleb128 0xc
 5155 028f 58270000 		.4byte	.LASF73
 5156 0293 D700     		.sleb128 87
 5157 0295 0C       		.uleb128 0xc
 5158 0296 32420000 		.4byte	.LASF74
ARM GAS  C:\Users\Helon\AppData\Local\Temp\ccTLkFeM.s 			page 151


 5159 029a F000     		.sleb128 112
 5160 029c 0C       		.uleb128 0xc
 5161 029d 511B0000 		.4byte	.LASF75
 5162 02a1 F100     		.sleb128 113
 5163 02a3 0C       		.uleb128 0xc
 5164 02a4 DC0E0000 		.4byte	.LASF76
 5165 02a8 F200     		.sleb128 114
 5166 02aa 0C       		.uleb128 0xc
 5167 02ab 943C0000 		.4byte	.LASF77
 5168 02af F300     		.sleb128 115
 5169 02b1 0C       		.uleb128 0xc
 5170 02b2 EE2C0000 		.4byte	.LASF78
 5171 02b6 F400     		.sleb128 116
 5172 02b8 0C       		.uleb128 0xc
 5173 02b9 55210000 		.4byte	.LASF79
 5174 02bd F500     		.sleb128 117
 5175 02bf 0C       		.uleb128 0xc
 5176 02c0 9D130000 		.4byte	.LASF80
 5177 02c4 F600     		.sleb128 118
 5178 02c6 0C       		.uleb128 0xc
 5179 02c7 66320000 		.4byte	.LASF81
 5180 02cb F700     		.sleb128 119
 5181 02cd 0C       		.uleb128 0xc
 5182 02ce 4B060000 		.4byte	.LASF82
 5183 02d2 F800     		.sleb128 120
 5184 02d4 0C       		.uleb128 0xc
 5185 02d5 7E120000 		.4byte	.LASF83
 5186 02d9 F900     		.sleb128 121
 5187 02db 0C       		.uleb128 0xc
 5188 02dc E1440000 		.4byte	.LASF84
 5189 02e0 FA00     		.sleb128 122
 5190 02e2 0C       		.uleb128 0xc
 5191 02e3 DC240000 		.4byte	.LASF85
 5192 02e7 FA01     		.sleb128 250
 5193 02e9 0C       		.uleb128 0xc
 5194 02ea 6B3F0000 		.4byte	.LASF86
 5195 02ee FB01     		.sleb128 251
 5196 02f0 0C       		.uleb128 0xc
 5197 02f1 BC2A0000 		.4byte	.LASF87
 5198 02f5 FF01     		.sleb128 255
 5199 02f7 00       		.byte	0
 5200 02f8 0D       		.uleb128 0xd
 5201 02f9 02       		.byte	0x2
 5202 02fa 06       		.byte	0x6
 5203 02fb 0C02     		.2byte	0x20c
 5204 02fd AF030000 		.4byte	0x3af
 5205 0301 0C       		.uleb128 0xc
 5206 0302 8D100000 		.4byte	.LASF88
 5207 0306 00       		.sleb128 0
 5208 0307 0C       		.uleb128 0xc
 5209 0308 E5170000 		.4byte	.LASF89
 5210 030c 01       		.sleb128 1
 5211 030d 0C       		.uleb128 0xc
 5212 030e 2A440000 		.4byte	.LASF90
 5213 0312 02       		.sleb128 2
 5214 0313 0C       		.uleb128 0xc
 5215 0314 E9190000 		.4byte	.LASF91
ARM GAS  C:\Users\Helon\AppData\Local\Temp\ccTLkFeM.s 			page 152


 5216 0318 03       		.sleb128 3
 5217 0319 0C       		.uleb128 0xc
 5218 031a BC1D0000 		.4byte	.LASF92
 5219 031e 04       		.sleb128 4
 5220 031f 0C       		.uleb128 0xc
 5221 0320 2B240000 		.4byte	.LASF93
 5222 0324 05       		.sleb128 5
 5223 0325 0C       		.uleb128 0xc
 5224 0326 C13E0000 		.4byte	.LASF94
 5225 032a 06       		.sleb128 6
 5226 032b 0C       		.uleb128 0xc
 5227 032c 50150000 		.4byte	.LASF95
 5228 0330 07       		.sleb128 7
 5229 0331 0C       		.uleb128 0xc
 5230 0332 2D260000 		.4byte	.LASF96
 5231 0336 08       		.sleb128 8
 5232 0337 0C       		.uleb128 0xc
 5233 0338 713D0000 		.4byte	.LASF97
 5234 033c 09       		.sleb128 9
 5235 033d 0C       		.uleb128 0xc
 5236 033e A8460000 		.4byte	.LASF98
 5237 0342 0A       		.sleb128 10
 5238 0343 0C       		.uleb128 0xc
 5239 0344 8A080000 		.4byte	.LASF99
 5240 0348 0B       		.sleb128 11
 5241 0349 0C       		.uleb128 0xc
 5242 034a 33410000 		.4byte	.LASF100
 5243 034e 0C       		.sleb128 12
 5244 034f 0C       		.uleb128 0xc
 5245 0350 99290000 		.4byte	.LASF101
 5246 0354 0D       		.sleb128 13
 5247 0355 0C       		.uleb128 0xc
 5248 0356 971F0000 		.4byte	.LASF102
 5249 035a 0E       		.sleb128 14
 5250 035b 0C       		.uleb128 0xc
 5251 035c 06240000 		.4byte	.LASF103
 5252 0360 0F       		.sleb128 15
 5253 0361 0C       		.uleb128 0xc
 5254 0362 9A050000 		.4byte	.LASF104
 5255 0366 10       		.sleb128 16
 5256 0367 0C       		.uleb128 0xc
 5257 0368 F8250000 		.4byte	.LASF105
 5258 036c 11       		.sleb128 17
 5259 036d 0C       		.uleb128 0xc
 5260 036e B00C0000 		.4byte	.LASF106
 5261 0372 12       		.sleb128 18
 5262 0373 0C       		.uleb128 0xc
 5263 0374 4E0F0000 		.4byte	.LASF107
 5264 0378 13       		.sleb128 19
 5265 0379 0C       		.uleb128 0xc
 5266 037a 97240000 		.4byte	.LASF108
 5267 037e 27       		.sleb128 39
 5268 037f 0C       		.uleb128 0xc
 5269 0380 0D270000 		.4byte	.LASF109
 5270 0384 28       		.sleb128 40
 5271 0385 0C       		.uleb128 0xc
 5272 0386 C8050000 		.4byte	.LASF110
ARM GAS  C:\Users\Helon\AppData\Local\Temp\ccTLkFeM.s 			page 153


 5273 038a 29       		.sleb128 41
 5274 038b 0C       		.uleb128 0xc
 5275 038c 1E1B0000 		.4byte	.LASF111
 5276 0390 FF01     		.sleb128 255
 5277 0392 0C       		.uleb128 0xc
 5278 0393 3D2C0000 		.4byte	.LASF112
 5279 0397 8002     		.sleb128 256
 5280 0399 0C       		.uleb128 0xc
 5281 039a 242C0000 		.4byte	.LASF113
 5282 039e 8102     		.sleb128 257
 5283 03a0 0C       		.uleb128 0xc
 5284 03a1 A70D0000 		.4byte	.LASF114
 5285 03a5 8202     		.sleb128 258
 5286 03a7 0C       		.uleb128 0xc
 5287 03a8 1D320000 		.4byte	.LASF115
 5288 03ac 8302     		.sleb128 259
 5289 03ae 00       		.byte	0
 5290 03af 06       		.uleb128 0x6
 5291 03b0 8A3F0000 		.4byte	.LASF116
 5292 03b4 06       		.byte	0x6
 5293 03b5 6902     		.2byte	0x269
 5294 03b7 F8020000 		.4byte	0x2f8
 5295 03bb 0D       		.uleb128 0xd
 5296 03bc 01       		.byte	0x1
 5297 03bd 06       		.byte	0x6
 5298 03be 6D02     		.2byte	0x26d
 5299 03c0 E4030000 		.4byte	0x3e4
 5300 03c4 0C       		.uleb128 0xc
 5301 03c5 F7300000 		.4byte	.LASF117
 5302 03c9 01       		.sleb128 1
 5303 03ca 0C       		.uleb128 0xc
 5304 03cb 4C120000 		.4byte	.LASF118
 5305 03cf 02       		.sleb128 2
 5306 03d0 0C       		.uleb128 0xc
 5307 03d1 75230000 		.4byte	.LASF119
 5308 03d5 03       		.sleb128 3
 5309 03d6 0C       		.uleb128 0xc
 5310 03d7 1D3F0000 		.4byte	.LASF120
 5311 03db 04       		.sleb128 4
 5312 03dc 0C       		.uleb128 0xc
 5313 03dd 781C0000 		.4byte	.LASF121
 5314 03e1 FF01     		.sleb128 255
 5315 03e3 00       		.byte	0
 5316 03e4 06       		.uleb128 0x6
 5317 03e5 1A140000 		.4byte	.LASF122
 5318 03e9 06       		.byte	0x6
 5319 03ea 8902     		.2byte	0x289
 5320 03ec BB030000 		.4byte	0x3bb
 5321 03f0 0D       		.uleb128 0xd
 5322 03f1 01       		.byte	0x1
 5323 03f2 06       		.byte	0x6
 5324 03f3 8D02     		.2byte	0x28d
 5325 03f5 2B040000 		.4byte	0x42b
 5326 03f9 0C       		.uleb128 0xc
 5327 03fa 1D130000 		.4byte	.LASF123
 5328 03fe 01       		.sleb128 1
 5329 03ff 0C       		.uleb128 0xc
ARM GAS  C:\Users\Helon\AppData\Local\Temp\ccTLkFeM.s 			page 154


 5330 0400 E10D0000 		.4byte	.LASF124
 5331 0404 02       		.sleb128 2
 5332 0405 0C       		.uleb128 0xc
 5333 0406 030D0000 		.4byte	.LASF125
 5334 040a 03       		.sleb128 3
 5335 040b 0C       		.uleb128 0xc
 5336 040c 37030000 		.4byte	.LASF126
 5337 0410 04       		.sleb128 4
 5338 0411 0C       		.uleb128 0xc
 5339 0412 8D3E0000 		.4byte	.LASF127
 5340 0416 05       		.sleb128 5
 5341 0417 0C       		.uleb128 0xc
 5342 0418 1B470000 		.4byte	.LASF128
 5343 041c 06       		.sleb128 6
 5344 041d 0C       		.uleb128 0xc
 5345 041e 9A030000 		.4byte	.LASF129
 5346 0422 07       		.sleb128 7
 5347 0423 0C       		.uleb128 0xc
 5348 0424 D23F0000 		.4byte	.LASF130
 5349 0428 FF01     		.sleb128 255
 5350 042a 00       		.byte	0
 5351 042b 06       		.uleb128 0x6
 5352 042c 461D0000 		.4byte	.LASF131
 5353 0430 06       		.byte	0x6
 5354 0431 9602     		.2byte	0x296
 5355 0433 F0030000 		.4byte	0x3f0
 5356 0437 0D       		.uleb128 0xd
 5357 0438 01       		.byte	0x1
 5358 0439 06       		.byte	0x6
 5359 043a 9A02     		.2byte	0x29a
 5360 043c 77040000 		.4byte	0x477
 5361 0440 0C       		.uleb128 0xc
 5362 0441 820F0000 		.4byte	.LASF132
 5363 0445 01       		.sleb128 1
 5364 0446 0C       		.uleb128 0xc
 5365 0447 4E0A0000 		.4byte	.LASF133
 5366 044b 02       		.sleb128 2
 5367 044c 0C       		.uleb128 0xc
 5368 044d DD2D0000 		.4byte	.LASF134
 5369 0451 03       		.sleb128 3
 5370 0452 0C       		.uleb128 0xc
 5371 0453 3F090000 		.4byte	.LASF135
 5372 0457 04       		.sleb128 4
 5373 0458 0C       		.uleb128 0xc
 5374 0459 54140000 		.4byte	.LASF136
 5375 045d 05       		.sleb128 5
 5376 045e 0C       		.uleb128 0xc
 5377 045f 8F1E0000 		.4byte	.LASF137
 5378 0463 06       		.sleb128 6
 5379 0464 0C       		.uleb128 0xc
 5380 0465 DB3E0000 		.4byte	.LASF138
 5381 0469 07       		.sleb128 7
 5382 046a 0C       		.uleb128 0xc
 5383 046b 331E0000 		.4byte	.LASF139
 5384 046f 08       		.sleb128 8
 5385 0470 0C       		.uleb128 0xc
 5386 0471 22250000 		.4byte	.LASF140
ARM GAS  C:\Users\Helon\AppData\Local\Temp\ccTLkFeM.s 			page 155


 5387 0475 09       		.sleb128 9
 5388 0476 00       		.byte	0
 5389 0477 06       		.uleb128 0x6
 5390 0478 20220000 		.4byte	.LASF141
 5391 047c 06       		.byte	0x6
 5392 047d B102     		.2byte	0x2b1
 5393 047f 37040000 		.4byte	0x437
 5394 0483 0D       		.uleb128 0xd
 5395 0484 01       		.byte	0x1
 5396 0485 06       		.byte	0x6
 5397 0486 B502     		.2byte	0x2b5
 5398 0488 9F040000 		.4byte	0x49f
 5399 048c 0C       		.uleb128 0xc
 5400 048d 333F0000 		.4byte	.LASF142
 5401 0491 00       		.sleb128 0
 5402 0492 0C       		.uleb128 0xc
 5403 0493 E6280000 		.4byte	.LASF143
 5404 0497 01       		.sleb128 1
 5405 0498 0C       		.uleb128 0xc
 5406 0499 13420000 		.4byte	.LASF144
 5407 049d 02       		.sleb128 2
 5408 049e 00       		.byte	0
 5409 049f 06       		.uleb128 0x6
 5410 04a0 9C100000 		.4byte	.LASF145
 5411 04a4 06       		.byte	0x6
 5412 04a5 BC02     		.2byte	0x2bc
 5413 04a7 83040000 		.4byte	0x483
 5414 04ab 0E       		.uleb128 0xe
 5415 04ac 02       		.byte	0x2
 5416 04ad 06       		.byte	0x6
 5417 04ae BF02     		.2byte	0x2bf
 5418 04b0 CF040000 		.4byte	0x4cf
 5419 04b4 0F       		.uleb128 0xf
 5420 04b5 35040000 		.4byte	.LASF146
 5421 04b9 06       		.byte	0x6
 5422 04ba C202     		.2byte	0x2c2
 5423 04bc 77040000 		.4byte	0x477
 5424 04c0 00       		.byte	0
 5425 04c1 0F       		.uleb128 0xf
 5426 04c2 420E0000 		.4byte	.LASF147
 5427 04c6 06       		.byte	0x6
 5428 04c7 C402     		.2byte	0x2c4
 5429 04c9 9F040000 		.4byte	0x49f
 5430 04cd 01       		.byte	0x1
 5431 04ce 00       		.byte	0
 5432 04cf 06       		.uleb128 0x6
 5433 04d0 FB410000 		.4byte	.LASF148
 5434 04d4 06       		.byte	0x6
 5435 04d5 C502     		.2byte	0x2c5
 5436 04d7 AB040000 		.4byte	0x4ab
 5437 04db 0E       		.uleb128 0xe
 5438 04dc 07       		.byte	0x7
 5439 04dd 06       		.byte	0x6
 5440 04de 0503     		.2byte	0x305
 5441 04e0 FF040000 		.4byte	0x4ff
 5442 04e4 0F       		.uleb128 0xf
 5443 04e5 233E0000 		.4byte	.LASF149
ARM GAS  C:\Users\Helon\AppData\Local\Temp\ccTLkFeM.s 			page 156


 5444 04e9 06       		.byte	0x6
 5445 04ea 0803     		.2byte	0x308
 5446 04ec FF040000 		.4byte	0x4ff
 5447 04f0 00       		.byte	0
 5448 04f1 0F       		.uleb128 0xf
 5449 04f2 C8060000 		.4byte	.LASF150
 5450 04f6 06       		.byte	0x6
 5451 04f7 0A03     		.2byte	0x30a
 5452 04f9 E0000000 		.4byte	0xe0
 5453 04fd 06       		.byte	0x6
 5454 04fe 00       		.byte	0
 5455 04ff 10       		.uleb128 0x10
 5456 0500 E0000000 		.4byte	0xe0
 5457 0504 0F050000 		.4byte	0x50f
 5458 0508 11       		.uleb128 0x11
 5459 0509 59010000 		.4byte	0x159
 5460 050d 05       		.byte	0x5
 5461 050e 00       		.byte	0
 5462 050f 06       		.uleb128 0x6
 5463 0510 3F340000 		.4byte	.LASF151
 5464 0514 06       		.byte	0x6
 5465 0515 0B03     		.2byte	0x30b
 5466 0517 DB040000 		.4byte	0x4db
 5467 051b 0B       		.uleb128 0xb
 5468 051c 01       		.byte	0x1
 5469 051d 07       		.byte	0x7
 5470 051e 4B       		.byte	0x4b
 5471 051f 3C050000 		.4byte	0x53c
 5472 0523 0C       		.uleb128 0xc
 5473 0524 C6340000 		.4byte	.LASF152
 5474 0528 01       		.sleb128 1
 5475 0529 0C       		.uleb128 0xc
 5476 052a BA330000 		.4byte	.LASF153
 5477 052e 02       		.sleb128 2
 5478 052f 0C       		.uleb128 0xc
 5479 0530 A9440000 		.4byte	.LASF154
 5480 0534 03       		.sleb128 3
 5481 0535 0C       		.uleb128 0xc
 5482 0536 33360000 		.4byte	.LASF155
 5483 053a 04       		.sleb128 4
 5484 053b 00       		.byte	0
 5485 053c 0B       		.uleb128 0xb
 5486 053d 01       		.byte	0x1
 5487 053e 08       		.byte	0x8
 5488 053f 90       		.byte	0x90
 5489 0540 63050000 		.4byte	0x563
 5490 0544 0C       		.uleb128 0xc
 5491 0545 BD430000 		.4byte	.LASF156
 5492 0549 00       		.sleb128 0
 5493 054a 0C       		.uleb128 0xc
 5494 054b A02C0000 		.4byte	.LASF157
 5495 054f 01       		.sleb128 1
 5496 0550 0C       		.uleb128 0xc
 5497 0551 703C0000 		.4byte	.LASF158
 5498 0555 02       		.sleb128 2
 5499 0556 0C       		.uleb128 0xc
 5500 0557 A70E0000 		.4byte	.LASF159
ARM GAS  C:\Users\Helon\AppData\Local\Temp\ccTLkFeM.s 			page 157


 5501 055b 03       		.sleb128 3
 5502 055c 0C       		.uleb128 0xc
 5503 055d 85190000 		.4byte	.LASF160
 5504 0561 04       		.sleb128 4
 5505 0562 00       		.byte	0
 5506 0563 04       		.uleb128 0x4
 5507 0564 132B0000 		.4byte	.LASF161
 5508 0568 08       		.byte	0x8
 5509 0569 A0       		.byte	0xa0
 5510 056a 3C050000 		.4byte	0x53c
 5511 056e 0B       		.uleb128 0xb
 5512 056f 01       		.byte	0x1
 5513 0570 08       		.byte	0x8
 5514 0571 A4       		.byte	0xa4
 5515 0572 95050000 		.4byte	0x595
 5516 0576 0C       		.uleb128 0xc
 5517 0577 620B0000 		.4byte	.LASF162
 5518 057b 00       		.sleb128 0
 5519 057c 0C       		.uleb128 0xc
 5520 057d CC330000 		.4byte	.LASF163
 5521 0581 01       		.sleb128 1
 5522 0582 0C       		.uleb128 0xc
 5523 0583 CE3A0000 		.4byte	.LASF164
 5524 0587 02       		.sleb128 2
 5525 0588 0C       		.uleb128 0xc
 5526 0589 080A0000 		.4byte	.LASF165
 5527 058d 03       		.sleb128 3
 5528 058e 0C       		.uleb128 0xc
 5529 058f 61000000 		.4byte	.LASF166
 5530 0593 04       		.sleb128 4
 5531 0594 00       		.byte	0
 5532 0595 04       		.uleb128 0x4
 5533 0596 AA3E0000 		.4byte	.LASF167
 5534 059a 08       		.byte	0x8
 5535 059b B4       		.byte	0xb4
 5536 059c 6E050000 		.4byte	0x56e
 5537 05a0 0B       		.uleb128 0xb
 5538 05a1 01       		.byte	0x1
 5539 05a2 08       		.byte	0x8
 5540 05a3 D2       		.byte	0xd2
 5541 05a4 C7050000 		.4byte	0x5c7
 5542 05a8 0C       		.uleb128 0xc
 5543 05a9 E1080000 		.4byte	.LASF168
 5544 05ad 00       		.sleb128 0
 5545 05ae 0C       		.uleb128 0xc
 5546 05af 5F410000 		.4byte	.LASF169
 5547 05b3 01       		.sleb128 1
 5548 05b4 0C       		.uleb128 0xc
 5549 05b5 C0140000 		.4byte	.LASF170
 5550 05b9 02       		.sleb128 2
 5551 05ba 0C       		.uleb128 0xc
 5552 05bb C8020000 		.4byte	.LASF171
 5553 05bf 03       		.sleb128 3
 5554 05c0 0C       		.uleb128 0xc
 5555 05c1 973B0000 		.4byte	.LASF172
 5556 05c5 04       		.sleb128 4
 5557 05c6 00       		.byte	0
ARM GAS  C:\Users\Helon\AppData\Local\Temp\ccTLkFeM.s 			page 158


 5558 05c7 04       		.uleb128 0x4
 5559 05c8 88030000 		.4byte	.LASF173
 5560 05cc 08       		.byte	0x8
 5561 05cd E4       		.byte	0xe4
 5562 05ce A0050000 		.4byte	0x5a0
 5563 05d2 0B       		.uleb128 0xb
 5564 05d3 01       		.byte	0x1
 5565 05d4 08       		.byte	0x8
 5566 05d5 E8       		.byte	0xe8
 5567 05d6 29060000 		.4byte	0x629
 5568 05da 0C       		.uleb128 0xc
 5569 05db E32E0000 		.4byte	.LASF174
 5570 05df 00       		.sleb128 0
 5571 05e0 0C       		.uleb128 0xc
 5572 05e1 CD090000 		.4byte	.LASF175
 5573 05e5 01       		.sleb128 1
 5574 05e6 0C       		.uleb128 0xc
 5575 05e7 16300000 		.4byte	.LASF176
 5576 05eb 02       		.sleb128 2
 5577 05ec 0C       		.uleb128 0xc
 5578 05ed 061F0000 		.4byte	.LASF177
 5579 05f1 03       		.sleb128 3
 5580 05f2 0C       		.uleb128 0xc
 5581 05f3 7A0D0000 		.4byte	.LASF178
 5582 05f7 04       		.sleb128 4
 5583 05f8 0C       		.uleb128 0xc
 5584 05f9 D5350000 		.4byte	.LASF179
 5585 05fd 05       		.sleb128 5
 5586 05fe 0C       		.uleb128 0xc
 5587 05ff E8220000 		.4byte	.LASF180
 5588 0603 06       		.sleb128 6
 5589 0604 0C       		.uleb128 0xc
 5590 0605 DB1E0000 		.4byte	.LASF181
 5591 0609 07       		.sleb128 7
 5592 060a 0C       		.uleb128 0xc
 5593 060b 5E070000 		.4byte	.LASF182
 5594 060f 08       		.sleb128 8
 5595 0610 0C       		.uleb128 0xc
 5596 0611 2E210000 		.4byte	.LASF183
 5597 0615 09       		.sleb128 9
 5598 0616 0C       		.uleb128 0xc
 5599 0617 E4120000 		.4byte	.LASF184
 5600 061b 0A       		.sleb128 10
 5601 061c 0C       		.uleb128 0xc
 5602 061d 10070000 		.4byte	.LASF185
 5603 0621 15       		.sleb128 21
 5604 0622 0C       		.uleb128 0xc
 5605 0623 771B0000 		.4byte	.LASF186
 5606 0627 18       		.sleb128 24
 5607 0628 00       		.byte	0
 5608 0629 06       		.uleb128 0x6
 5609 062a 242B0000 		.4byte	.LASF187
 5610 062e 08       		.byte	0x8
 5611 062f 1401     		.2byte	0x114
 5612 0631 D2050000 		.4byte	0x5d2
 5613 0635 0E       		.uleb128 0xe
 5614 0636 04       		.byte	0x4
ARM GAS  C:\Users\Helon\AppData\Local\Temp\ccTLkFeM.s 			page 159


 5615 0637 08       		.byte	0x8
 5616 0638 2D01     		.2byte	0x12d
 5617 063a 73060000 		.4byte	0x673
 5618 063e 0F       		.uleb128 0xf
 5619 063f 1F3A0000 		.4byte	.LASF188
 5620 0643 08       		.byte	0x8
 5621 0644 3601     		.2byte	0x136
 5622 0646 E0000000 		.4byte	0xe0
 5623 064a 00       		.byte	0
 5624 064b 0F       		.uleb128 0xf
 5625 064c 11280000 		.4byte	.LASF189
 5626 0650 08       		.byte	0x8
 5627 0651 3C01     		.2byte	0x13c
 5628 0653 E0000000 		.4byte	0xe0
 5629 0657 01       		.byte	0x1
 5630 0658 0F       		.uleb128 0xf
 5631 0659 15010000 		.4byte	.LASF190
 5632 065d 08       		.byte	0x8
 5633 065e 4201     		.2byte	0x142
 5634 0660 E0000000 		.4byte	0xe0
 5635 0664 02       		.byte	0x2
 5636 0665 0F       		.uleb128 0xf
 5637 0666 6D3A0000 		.4byte	.LASF191
 5638 066a 08       		.byte	0x8
 5639 066b 4601     		.2byte	0x146
 5640 066d 29060000 		.4byte	0x629
 5641 0671 03       		.byte	0x3
 5642 0672 00       		.byte	0
 5643 0673 06       		.uleb128 0x6
 5644 0674 AA140000 		.4byte	.LASF192
 5645 0678 08       		.byte	0x8
 5646 0679 4801     		.2byte	0x148
 5647 067b 35060000 		.4byte	0x635
 5648 067f 10       		.uleb128 0x10
 5649 0680 0F050000 		.4byte	0x50f
 5650 0684 8F060000 		.4byte	0x68f
 5651 0688 11       		.uleb128 0x11
 5652 0689 59010000 		.4byte	0x159
 5653 068d 03       		.byte	0x3
 5654 068e 00       		.byte	0
 5655 068f 0E       		.uleb128 0xe
 5656 0690 10       		.byte	0x10
 5657 0691 08       		.byte	0x8
 5658 0692 6E01     		.2byte	0x16e
 5659 0694 01070000 		.4byte	0x701
 5660 0698 0F       		.uleb128 0xf
 5661 0699 A1120000 		.4byte	.LASF193
 5662 069d 08       		.byte	0x8
 5663 069e 7401     		.2byte	0x174
 5664 06a0 EB000000 		.4byte	0xeb
 5665 06a4 00       		.byte	0
 5666 06a5 0F       		.uleb128 0xf
 5667 06a6 9A470000 		.4byte	.LASF194
 5668 06aa 08       		.byte	0x8
 5669 06ab 7A01     		.2byte	0x17a
 5670 06ad EB000000 		.4byte	0xeb
 5671 06b1 02       		.byte	0x2
ARM GAS  C:\Users\Helon\AppData\Local\Temp\ccTLkFeM.s 			page 160


 5672 06b2 0F       		.uleb128 0xf
 5673 06b3 811D0000 		.4byte	.LASF195
 5674 06b7 08       		.byte	0x8
 5675 06b8 8301     		.2byte	0x183
 5676 06ba 63050000 		.4byte	0x563
 5677 06be 04       		.byte	0x4
 5678 06bf 0F       		.uleb128 0xf
 5679 06c0 9C460000 		.4byte	.LASF196
 5680 06c4 08       		.byte	0x8
 5681 06c5 8901     		.2byte	0x189
 5682 06c7 E0000000 		.4byte	0xe0
 5683 06cb 05       		.byte	0x5
 5684 06cc 0F       		.uleb128 0xf
 5685 06cd 8C250000 		.4byte	.LASF197
 5686 06d1 08       		.byte	0x8
 5687 06d2 9001     		.2byte	0x190
 5688 06d4 E0000000 		.4byte	0xe0
 5689 06d8 06       		.byte	0x6
 5690 06d9 0F       		.uleb128 0xf
 5691 06da 35430000 		.4byte	.LASF198
 5692 06de 08       		.byte	0x8
 5693 06df 9601     		.2byte	0x196
 5694 06e1 FF040000 		.4byte	0x4ff
 5695 06e5 07       		.byte	0x7
 5696 06e6 0F       		.uleb128 0xf
 5697 06e7 60430000 		.4byte	.LASF199
 5698 06eb 08       		.byte	0x8
 5699 06ec 9E01     		.2byte	0x19e
 5700 06ee E0000000 		.4byte	0xe0
 5701 06f2 0D       		.byte	0xd
 5702 06f3 0F       		.uleb128 0xf
 5703 06f4 DC1C0000 		.4byte	.LASF200
 5704 06f8 08       		.byte	0x8
 5705 06f9 AA01     		.2byte	0x1aa
 5706 06fb E0000000 		.4byte	0xe0
 5707 06ff 0E       		.byte	0xe
 5708 0700 00       		.byte	0
 5709 0701 06       		.uleb128 0x6
 5710 0702 8C1C0000 		.4byte	.LASF201
 5711 0706 08       		.byte	0x8
 5712 0707 AC01     		.2byte	0x1ac
 5713 0709 8F060000 		.4byte	0x68f
 5714 070d 0E       		.uleb128 0xe
 5715 070e 20       		.byte	0x20
 5716 070f 08       		.byte	0x8
 5717 0710 AF01     		.2byte	0x1af
 5718 0712 31070000 		.4byte	0x731
 5719 0716 0F       		.uleb128 0xf
 5720 0717 672B0000 		.4byte	.LASF202
 5721 071b 08       		.byte	0x8
 5722 071c B201     		.2byte	0x1b2
 5723 071e 31070000 		.4byte	0x731
 5724 0722 00       		.byte	0
 5725 0723 0F       		.uleb128 0xf
 5726 0724 81350000 		.4byte	.LASF203
 5727 0728 08       		.byte	0x8
 5728 0729 B501     		.2byte	0x1b5
ARM GAS  C:\Users\Helon\AppData\Local\Temp\ccTLkFeM.s 			page 161


 5729 072b E0000000 		.4byte	0xe0
 5730 072f 1F       		.byte	0x1f
 5731 0730 00       		.byte	0
 5732 0731 10       		.uleb128 0x10
 5733 0732 E0000000 		.4byte	0xe0
 5734 0736 41070000 		.4byte	0x741
 5735 073a 11       		.uleb128 0x11
 5736 073b 59010000 		.4byte	0x159
 5737 073f 1E       		.byte	0x1e
 5738 0740 00       		.byte	0
 5739 0741 06       		.uleb128 0x6
 5740 0742 36130000 		.4byte	.LASF204
 5741 0746 08       		.byte	0x8
 5742 0747 B701     		.2byte	0x1b7
 5743 0749 0D070000 		.4byte	0x70d
 5744 074d 0E       		.uleb128 0xe
 5745 074e 20       		.byte	0x20
 5746 074f 08       		.byte	0x8
 5747 0750 BA01     		.2byte	0x1ba
 5748 0752 71070000 		.4byte	0x771
 5749 0756 0F       		.uleb128 0xf
 5750 0757 75000000 		.4byte	.LASF205
 5751 075b 08       		.byte	0x8
 5752 075c BE01     		.2byte	0x1be
 5753 075e 31070000 		.4byte	0x731
 5754 0762 00       		.byte	0
 5755 0763 0F       		.uleb128 0xf
 5756 0764 F83A0000 		.4byte	.LASF206
 5757 0768 08       		.byte	0x8
 5758 0769 C101     		.2byte	0x1c1
 5759 076b E0000000 		.4byte	0xe0
 5760 076f 1F       		.byte	0x1f
 5761 0770 00       		.byte	0
 5762 0771 06       		.uleb128 0x6
 5763 0772 22390000 		.4byte	.LASF207
 5764 0776 08       		.byte	0x8
 5765 0777 C301     		.2byte	0x1c3
 5766 0779 4D070000 		.4byte	0x74d
 5767 077d 0E       		.uleb128 0xe
 5768 077e 14       		.byte	0x14
 5769 077f 08       		.byte	0x8
 5770 0780 C601     		.2byte	0x1c6
 5771 0782 C8070000 		.4byte	0x7c8
 5772 0786 0F       		.uleb128 0xf
 5773 0787 19050000 		.4byte	.LASF208
 5774 078b 08       		.byte	0x8
 5775 078c CE01     		.2byte	0x1ce
 5776 078e E0000000 		.4byte	0xe0
 5777 0792 00       		.byte	0
 5778 0793 0F       		.uleb128 0xf
 5779 0794 FD230000 		.4byte	.LASF209
 5780 0798 08       		.byte	0x8
 5781 0799 D101     		.2byte	0x1d1
 5782 079b C8070000 		.4byte	0x7c8
 5783 079f 04       		.byte	0x4
 5784 07a0 0F       		.uleb128 0xf
 5785 07a1 672B0000 		.4byte	.LASF202
ARM GAS  C:\Users\Helon\AppData\Local\Temp\ccTLkFeM.s 			page 162


 5786 07a5 08       		.byte	0x8
 5787 07a6 D301     		.2byte	0x1d3
 5788 07a8 CE070000 		.4byte	0x7ce
 5789 07ac 08       		.byte	0x8
 5790 07ad 0F       		.uleb128 0xf
 5791 07ae 75000000 		.4byte	.LASF205
 5792 07b2 08       		.byte	0x8
 5793 07b3 D501     		.2byte	0x1d5
 5794 07b5 D4070000 		.4byte	0x7d4
 5795 07b9 0C       		.byte	0xc
 5796 07ba 0F       		.uleb128 0xf
 5797 07bb AA2D0000 		.4byte	.LASF210
 5798 07bf 08       		.byte	0x8
 5799 07c0 DF01     		.2byte	0x1df
 5800 07c2 EB000000 		.4byte	0xeb
 5801 07c6 10       		.byte	0x10
 5802 07c7 00       		.byte	0
 5803 07c8 07       		.uleb128 0x7
 5804 07c9 04       		.byte	0x4
 5805 07ca 01070000 		.4byte	0x701
 5806 07ce 07       		.uleb128 0x7
 5807 07cf 04       		.byte	0x4
 5808 07d0 41070000 		.4byte	0x741
 5809 07d4 07       		.uleb128 0x7
 5810 07d5 04       		.byte	0x4
 5811 07d6 71070000 		.4byte	0x771
 5812 07da 06       		.uleb128 0x6
 5813 07db 44360000 		.4byte	.LASF211
 5814 07df 08       		.byte	0x8
 5815 07e0 E101     		.2byte	0x1e1
 5816 07e2 7D070000 		.4byte	0x77d
 5817 07e6 0E       		.uleb128 0xe
 5818 07e7 14       		.byte	0x14
 5819 07e8 08       		.byte	0x8
 5820 07e9 6802     		.2byte	0x268
 5821 07eb 3E080000 		.4byte	0x83e
 5822 07ef 0F       		.uleb128 0xf
 5823 07f0 A2400000 		.4byte	.LASF212
 5824 07f4 08       		.byte	0x8
 5825 07f5 7102     		.2byte	0x271
 5826 07f7 95050000 		.4byte	0x595
 5827 07fb 00       		.byte	0
 5828 07fc 0F       		.uleb128 0xf
 5829 07fd 493D0000 		.4byte	.LASF213
 5830 0801 08       		.byte	0x8
 5831 0802 7702     		.2byte	0x277
 5832 0804 E0000000 		.4byte	0xe0
 5833 0808 01       		.byte	0x1
 5834 0809 0F       		.uleb128 0xf
 5835 080a C7100000 		.4byte	.LASF214
 5836 080e 08       		.byte	0x8
 5837 080f 7B02     		.2byte	0x27b
 5838 0811 3E080000 		.4byte	0x83e
 5839 0815 04       		.byte	0x4
 5840 0816 0F       		.uleb128 0xf
 5841 0817 D10B0000 		.4byte	.LASF215
 5842 081b 08       		.byte	0x8
ARM GAS  C:\Users\Helon\AppData\Local\Temp\ccTLkFeM.s 			page 163


 5843 081c 7E02     		.2byte	0x27e
 5844 081e E0000000 		.4byte	0xe0
 5845 0822 08       		.byte	0x8
 5846 0823 0F       		.uleb128 0xf
 5847 0824 9A450000 		.4byte	.LASF216
 5848 0828 08       		.byte	0x8
 5849 0829 8102     		.2byte	0x281
 5850 082b 3E080000 		.4byte	0x83e
 5851 082f 0C       		.byte	0xc
 5852 0830 0F       		.uleb128 0xf
 5853 0831 46450000 		.4byte	.LASF217
 5854 0835 08       		.byte	0x8
 5855 0836 8602     		.2byte	0x286
 5856 0838 01010000 		.4byte	0x101
 5857 083c 10       		.byte	0x10
 5858 083d 00       		.byte	0
 5859 083e 07       		.uleb128 0x7
 5860 083f 04       		.byte	0x4
 5861 0840 E0000000 		.4byte	0xe0
 5862 0844 06       		.uleb128 0x6
 5863 0845 4E460000 		.4byte	.LASF218
 5864 0849 08       		.byte	0x8
 5865 084a 8802     		.2byte	0x288
 5866 084c E6070000 		.4byte	0x7e6
 5867 0850 0E       		.uleb128 0xe
 5868 0851 08       		.byte	0x8
 5869 0852 08       		.byte	0x8
 5870 0853 9602     		.2byte	0x296
 5871 0855 8E080000 		.4byte	0x88e
 5872 0859 0F       		.uleb128 0xf
 5873 085a D50D0000 		.4byte	.LASF219
 5874 085e 08       		.byte	0x8
 5875 085f 9D02     		.2byte	0x29d
 5876 0861 EB000000 		.4byte	0xeb
 5877 0865 00       		.byte	0
 5878 0866 0F       		.uleb128 0xf
 5879 0867 8E420000 		.4byte	.LASF220
 5880 086b 08       		.byte	0x8
 5881 086c A402     		.2byte	0x2a4
 5882 086e EB000000 		.4byte	0xeb
 5883 0872 02       		.byte	0x2
 5884 0873 0F       		.uleb128 0xf
 5885 0874 53410000 		.4byte	.LASF221
 5886 0878 08       		.byte	0x8
 5887 0879 A902     		.2byte	0x2a9
 5888 087b EB000000 		.4byte	0xeb
 5889 087f 04       		.byte	0x4
 5890 0880 0F       		.uleb128 0xf
 5891 0881 9B440000 		.4byte	.LASF222
 5892 0885 08       		.byte	0x8
 5893 0886 AF02     		.2byte	0x2af
 5894 0888 EB000000 		.4byte	0xeb
 5895 088c 06       		.byte	0x6
 5896 088d 00       		.byte	0
 5897 088e 06       		.uleb128 0x6
 5898 088f 5A1D0000 		.4byte	.LASF223
 5899 0893 08       		.byte	0x8
ARM GAS  C:\Users\Helon\AppData\Local\Temp\ccTLkFeM.s 			page 164


 5900 0894 B102     		.2byte	0x2b1
 5901 0896 50080000 		.4byte	0x850
 5902 089a 0E       		.uleb128 0xe
 5903 089b 08       		.byte	0x8
 5904 089c 08       		.byte	0x8
 5905 089d B402     		.2byte	0x2b4
 5906 089f D8080000 		.4byte	0x8d8
 5907 08a3 0F       		.uleb128 0xf
 5908 08a4 881E0000 		.4byte	.LASF224
 5909 08a8 08       		.byte	0x8
 5910 08a9 B802     		.2byte	0x2b8
 5911 08ab E0000000 		.4byte	0xe0
 5912 08af 00       		.byte	0
 5913 08b0 0F       		.uleb128 0xf
 5914 08b1 E0420000 		.4byte	.LASF225
 5915 08b5 08       		.byte	0x8
 5916 08b6 BE02     		.2byte	0x2be
 5917 08b8 EB000000 		.4byte	0xeb
 5918 08bc 02       		.byte	0x2
 5919 08bd 0F       		.uleb128 0xf
 5920 08be 53410000 		.4byte	.LASF221
 5921 08c2 08       		.byte	0x8
 5922 08c3 C302     		.2byte	0x2c3
 5923 08c5 EB000000 		.4byte	0xeb
 5924 08c9 04       		.byte	0x4
 5925 08ca 0F       		.uleb128 0xf
 5926 08cb 9B440000 		.4byte	.LASF222
 5927 08cf 08       		.byte	0x8
 5928 08d0 C902     		.2byte	0x2c9
 5929 08d2 EB000000 		.4byte	0xeb
 5930 08d6 06       		.byte	0x6
 5931 08d7 00       		.byte	0
 5932 08d8 06       		.uleb128 0x6
 5933 08d9 0A310000 		.4byte	.LASF226
 5934 08dd 08       		.byte	0x8
 5935 08de CB02     		.2byte	0x2cb
 5936 08e0 9A080000 		.4byte	0x89a
 5937 08e4 06       		.uleb128 0x6
 5938 08e5 37320000 		.4byte	.LASF227
 5939 08e9 09       		.byte	0x9
 5940 08ea 8801     		.2byte	0x188
 5941 08ec EB000000 		.4byte	0xeb
 5942 08f0 0E       		.uleb128 0xe
 5943 08f1 02       		.byte	0x2
 5944 08f2 09       		.byte	0x9
 5945 08f3 9201     		.2byte	0x192
 5946 08f5 14090000 		.4byte	0x914
 5947 08f9 0F       		.uleb128 0xf
 5948 08fa 7D090000 		.4byte	.LASF228
 5949 08fe 09       		.byte	0x9
 5950 08ff 9901     		.2byte	0x199
 5951 0901 E0000000 		.4byte	0xe0
 5952 0905 00       		.byte	0
 5953 0906 0F       		.uleb128 0xf
 5954 0907 24440000 		.4byte	.LASF229
 5955 090b 09       		.byte	0x9
 5956 090c 9F01     		.2byte	0x19f
ARM GAS  C:\Users\Helon\AppData\Local\Temp\ccTLkFeM.s 			page 165


 5957 090e E0000000 		.4byte	0xe0
 5958 0912 01       		.byte	0x1
 5959 0913 00       		.byte	0
 5960 0914 06       		.uleb128 0x6
 5961 0915 5C080000 		.4byte	.LASF230
 5962 0919 09       		.byte	0x9
 5963 091a A101     		.2byte	0x1a1
 5964 091c F0080000 		.4byte	0x8f0
 5965 0920 0E       		.uleb128 0xe
 5966 0921 08       		.byte	0x8
 5967 0922 09       		.byte	0x9
 5968 0923 BD01     		.2byte	0x1bd
 5969 0925 51090000 		.4byte	0x951
 5970 0929 12       		.uleb128 0x12
 5971 092a 76616C00 		.ascii	"val\000"
 5972 092e 09       		.byte	0x9
 5973 092f C001     		.2byte	0x1c0
 5974 0931 3E080000 		.4byte	0x83e
 5975 0935 00       		.byte	0
 5976 0936 12       		.uleb128 0x12
 5977 0937 6C656E00 		.ascii	"len\000"
 5978 093b 09       		.byte	0x9
 5979 093c C301     		.2byte	0x1c3
 5980 093e EB000000 		.4byte	0xeb
 5981 0942 04       		.byte	0x4
 5982 0943 0F       		.uleb128 0xf
 5983 0944 56430000 		.4byte	.LASF231
 5984 0948 09       		.byte	0x9
 5985 0949 CA01     		.2byte	0x1ca
 5986 094b EB000000 		.4byte	0xeb
 5987 094f 06       		.byte	0x6
 5988 0950 00       		.byte	0
 5989 0951 06       		.uleb128 0x6
 5990 0952 78060000 		.4byte	.LASF232
 5991 0956 09       		.byte	0x9
 5992 0957 CC01     		.2byte	0x1cc
 5993 0959 20090000 		.4byte	0x920
 5994 095d 0E       		.uleb128 0xe
 5995 095e 0C       		.byte	0xc
 5996 095f 09       		.byte	0x9
 5997 0960 CF01     		.2byte	0x1cf
 5998 0962 81090000 		.4byte	0x981
 5999 0966 0F       		.uleb128 0xf
 6000 0967 A8320000 		.4byte	.LASF233
 6001 096b 09       		.byte	0x9
 6002 096c D201     		.2byte	0x1d2
 6003 096e 51090000 		.4byte	0x951
 6004 0972 00       		.byte	0
 6005 0973 0F       		.uleb128 0xf
 6006 0974 C6270000 		.4byte	.LASF234
 6007 0978 09       		.byte	0x9
 6008 0979 D501     		.2byte	0x1d5
 6009 097b E4080000 		.4byte	0x8e4
 6010 097f 08       		.byte	0x8
 6011 0980 00       		.byte	0
 6012 0981 06       		.uleb128 0x6
 6013 0982 FF0D0000 		.4byte	.LASF235
ARM GAS  C:\Users\Helon\AppData\Local\Temp\ccTLkFeM.s 			page 166


 6014 0986 09       		.byte	0x9
 6015 0987 D701     		.2byte	0x1d7
 6016 0989 5D090000 		.4byte	0x95d
 6017 098d 0E       		.uleb128 0xe
 6018 098e 04       		.byte	0x4
 6019 098f 09       		.byte	0x9
 6020 0990 DA01     		.2byte	0x1da
 6021 0992 B1090000 		.4byte	0x9b1
 6022 0996 0F       		.uleb128 0xf
 6023 0997 A41C0000 		.4byte	.LASF236
 6024 099b 09       		.byte	0x9
 6025 099c DD01     		.2byte	0x1dd
 6026 099e E4080000 		.4byte	0x8e4
 6027 09a2 00       		.byte	0
 6028 09a3 0F       		.uleb128 0xf
 6029 09a4 DB3D0000 		.4byte	.LASF237
 6030 09a8 09       		.byte	0x9
 6031 09a9 E001     		.2byte	0x1e0
 6032 09ab E4080000 		.4byte	0x8e4
 6033 09af 02       		.byte	0x2
 6034 09b0 00       		.byte	0
 6035 09b1 06       		.uleb128 0x6
 6036 09b2 B83B0000 		.4byte	.LASF238
 6037 09b6 09       		.byte	0x9
 6038 09b7 E201     		.2byte	0x1e2
 6039 09b9 8D090000 		.4byte	0x98d
 6040 09bd 0E       		.uleb128 0xe
 6041 09be 04       		.byte	0x4
 6042 09bf 09       		.byte	0x9
 6043 09c0 E501     		.2byte	0x1e5
 6044 09c2 E1090000 		.4byte	0x9e1
 6045 09c6 0F       		.uleb128 0xf
 6046 09c7 41350000 		.4byte	.LASF239
 6047 09cb 09       		.byte	0x9
 6048 09cc E801     		.2byte	0x1e8
 6049 09ce 14090000 		.4byte	0x914
 6050 09d2 00       		.byte	0
 6051 09d3 12       		.uleb128 0x12
 6052 09d4 6D747500 		.ascii	"mtu\000"
 6053 09d8 09       		.byte	0x9
 6054 09d9 EB01     		.2byte	0x1eb
 6055 09db EB000000 		.4byte	0xeb
 6056 09df 02       		.byte	0x2
 6057 09e0 00       		.byte	0
 6058 09e1 06       		.uleb128 0x6
 6059 09e2 80110000 		.4byte	.LASF240
 6060 09e6 09       		.byte	0x9
 6061 09e7 ED01     		.2byte	0x1ed
 6062 09e9 BD090000 		.4byte	0x9bd
 6063 09ed 04       		.uleb128 0x4
 6064 09ee B3000000 		.4byte	.LASF241
 6065 09f2 0A       		.byte	0xa
 6066 09f3 34       		.byte	0x34
 6067 09f4 81090000 		.4byte	0x981
 6068 09f8 13       		.uleb128 0x13
 6069 09f9 10       		.byte	0x10
 6070 09fa 0A       		.byte	0xa
ARM GAS  C:\Users\Helon\AppData\Local\Temp\ccTLkFeM.s 			page 167


 6071 09fb 8A       		.byte	0x8a
 6072 09fc 190A0000 		.4byte	0xa19
 6073 0a00 14       		.uleb128 0x14
 6074 0a01 41350000 		.4byte	.LASF239
 6075 0a05 0A       		.byte	0xa
 6076 0a06 8D       		.byte	0x8d
 6077 0a07 14090000 		.4byte	0x914
 6078 0a0b 00       		.byte	0
 6079 0a0c 14       		.uleb128 0x14
 6080 0a0d 01350000 		.4byte	.LASF242
 6081 0a11 0A       		.byte	0xa
 6082 0a12 90       		.byte	0x90
 6083 0a13 81090000 		.4byte	0x981
 6084 0a17 04       		.byte	0x4
 6085 0a18 00       		.byte	0
 6086 0a19 04       		.uleb128 0x4
 6087 0a1a 19280000 		.4byte	.LASF243
 6088 0a1e 0A       		.byte	0xa
 6089 0a1f 92       		.byte	0x92
 6090 0a20 F8090000 		.4byte	0x9f8
 6091 0a24 04       		.uleb128 0x4
 6092 0a25 47400000 		.4byte	.LASF244
 6093 0a29 0B       		.byte	0xb
 6094 0a2a 4F       		.byte	0x4f
 6095 0a2b B1090000 		.4byte	0x9b1
 6096 0a2f 04       		.uleb128 0x4
 6097 0a30 090B0000 		.4byte	.LASF245
 6098 0a34 0B       		.byte	0xb
 6099 0a35 55       		.byte	0x55
 6100 0a36 E4080000 		.4byte	0x8e4
 6101 0a3a 04       		.uleb128 0x4
 6102 0a3b B0300000 		.4byte	.LASF246
 6103 0a3f 0B       		.byte	0xb
 6104 0a40 74       		.byte	0x74
 6105 0a41 81090000 		.4byte	0x981
 6106 0a45 04       		.uleb128 0x4
 6107 0a46 F80E0000 		.4byte	.LASF247
 6108 0a4a 0B       		.byte	0xb
 6109 0a4b 77       		.byte	0x77
 6110 0a4c 81090000 		.4byte	0x981
 6111 0a50 13       		.uleb128 0x13
 6112 0a51 10       		.byte	0x10
 6113 0a52 0B       		.byte	0xb
 6114 0a53 88       		.byte	0x88
 6115 0a54 710A0000 		.4byte	0xa71
 6116 0a58 14       		.uleb128 0x14
 6117 0a59 41350000 		.4byte	.LASF239
 6118 0a5d 0B       		.byte	0xb
 6119 0a5e 8B       		.byte	0x8b
 6120 0a5f 14090000 		.4byte	0x914
 6121 0a63 00       		.byte	0
 6122 0a64 14       		.uleb128 0x14
 6123 0a65 01350000 		.4byte	.LASF242
 6124 0a69 0B       		.byte	0xb
 6125 0a6a 8E       		.byte	0x8e
 6126 0a6b 81090000 		.4byte	0x981
 6127 0a6f 04       		.byte	0x4
ARM GAS  C:\Users\Helon\AppData\Local\Temp\ccTLkFeM.s 			page 168


 6128 0a70 00       		.byte	0
 6129 0a71 04       		.uleb128 0x4
 6130 0a72 22160000 		.4byte	.LASF248
 6131 0a76 0B       		.byte	0xb
 6132 0a77 90       		.byte	0x90
 6133 0a78 500A0000 		.4byte	0xa50
 6134 0a7c 13       		.uleb128 0x13
 6135 0a7d 08       		.byte	0x8
 6136 0a7e 0B       		.byte	0xb
 6137 0a7f C0       		.byte	0xc0
 6138 0a80 9D0A0000 		.4byte	0xa9d
 6139 0a84 14       		.uleb128 0x14
 6140 0a85 B72A0000 		.4byte	.LASF249
 6141 0a89 0B       		.byte	0xb
 6142 0a8a C4       		.byte	0xc4
 6143 0a8b 3E080000 		.4byte	0x83e
 6144 0a8f 00       		.byte	0
 6145 0a90 14       		.uleb128 0x14
 6146 0a91 B01C0000 		.4byte	.LASF250
 6147 0a95 0B       		.byte	0xb
 6148 0a96 C7       		.byte	0xc7
 6149 0a97 EB000000 		.4byte	0xeb
 6150 0a9b 04       		.byte	0x4
 6151 0a9c 00       		.byte	0
 6152 0a9d 04       		.uleb128 0x4
 6153 0a9e ED110000 		.4byte	.LASF251
 6154 0aa2 0B       		.byte	0xb
 6155 0aa3 C9       		.byte	0xc9
 6156 0aa4 7C0A0000 		.4byte	0xa7c
 6157 0aa8 13       		.uleb128 0x13
 6158 0aa9 10       		.byte	0x10
 6159 0aaa 0B       		.byte	0xb
 6160 0aab CC       		.byte	0xcc
 6161 0aac D50A0000 		.4byte	0xad5
 6162 0ab0 14       		.uleb128 0x14
 6163 0ab1 41350000 		.4byte	.LASF239
 6164 0ab5 0B       		.byte	0xb
 6165 0ab6 CF       		.byte	0xcf
 6166 0ab7 14090000 		.4byte	0x914
 6167 0abb 00       		.byte	0
 6168 0abc 14       		.uleb128 0x14
 6169 0abd FD310000 		.4byte	.LASF252
 6170 0ac1 0B       		.byte	0xb
 6171 0ac2 D2       		.byte	0xd2
 6172 0ac3 9D0A0000 		.4byte	0xa9d
 6173 0ac7 04       		.byte	0x4
 6174 0ac8 14       		.uleb128 0x14
 6175 0ac9 213C0000 		.4byte	.LASF253
 6176 0acd 0B       		.byte	0xb
 6177 0ace D5       		.byte	0xd5
 6178 0acf E0000000 		.4byte	0xe0
 6179 0ad3 0C       		.byte	0xc
 6180 0ad4 00       		.byte	0
 6181 0ad5 04       		.uleb128 0x4
 6182 0ad6 F82D0000 		.4byte	.LASF254
 6183 0ada 0B       		.byte	0xb
 6184 0adb D7       		.byte	0xd7
ARM GAS  C:\Users\Helon\AppData\Local\Temp\ccTLkFeM.s 			page 169


 6185 0adc A80A0000 		.4byte	0xaa8
 6186 0ae0 06       		.uleb128 0x6
 6187 0ae1 A2070000 		.4byte	.LASF255
 6188 0ae5 0C       		.byte	0xc
 6189 0ae6 4101     		.2byte	0x141
 6190 0ae8 EC0A0000 		.4byte	0xaec
 6191 0aec 07       		.uleb128 0x7
 6192 0aed 04       		.byte	0x4
 6193 0aee F20A0000 		.4byte	0xaf2
 6194 0af2 15       		.uleb128 0x15
 6195 0af3 020B0000 		.4byte	0xb02
 6196 0af7 16       		.uleb128 0x16
 6197 0af8 F6000000 		.4byte	0xf6
 6198 0afc 16       		.uleb128 0x16
 6199 0afd 60010000 		.4byte	0x160
 6200 0b01 00       		.byte	0
 6201 0b02 0B       		.uleb128 0xb
 6202 0b03 02       		.byte	0x2
 6203 0b04 0D       		.byte	0xd
 6204 0b05 9D       		.byte	0x9d
 6205 0b06 F7110000 		.4byte	0x11f7
 6206 0b0a 0C       		.uleb128 0xc
 6207 0b0b 61290000 		.4byte	.LASF256
 6208 0b0f 8002     		.sleb128 256
 6209 0b11 0C       		.uleb128 0xc
 6210 0b12 14450000 		.4byte	.LASF257
 6211 0b16 8102     		.sleb128 257
 6212 0b18 0C       		.uleb128 0xc
 6213 0b19 560C0000 		.4byte	.LASF258
 6214 0b1d 8202     		.sleb128 258
 6215 0b1f 0C       		.uleb128 0xc
 6216 0b20 BB440000 		.4byte	.LASF259
 6217 0b24 8302     		.sleb128 259
 6218 0b26 0C       		.uleb128 0xc
 6219 0b27 61310000 		.4byte	.LASF260
 6220 0b2b 8402     		.sleb128 260
 6221 0b2d 0C       		.uleb128 0xc
 6222 0b2e AA3A0000 		.4byte	.LASF261
 6223 0b32 8502     		.sleb128 261
 6224 0b34 0C       		.uleb128 0xc
 6225 0b35 C9120000 		.4byte	.LASF262
 6226 0b39 8602     		.sleb128 262
 6227 0b3b 0C       		.uleb128 0xc
 6228 0b3c 100F0000 		.4byte	.LASF263
 6229 0b40 8702     		.sleb128 263
 6230 0b42 0C       		.uleb128 0xc
 6231 0b43 B5420000 		.4byte	.LASF264
 6232 0b47 8802     		.sleb128 264
 6233 0b49 0C       		.uleb128 0xc
 6234 0b4a F9050000 		.4byte	.LASF265
 6235 0b4e 8902     		.sleb128 265
 6236 0b50 0C       		.uleb128 0xc
 6237 0b51 B3040000 		.4byte	.LASF266
 6238 0b55 8A02     		.sleb128 266
 6239 0b57 0C       		.uleb128 0xc
 6240 0b58 E9330000 		.4byte	.LASF267
 6241 0b5c 8B02     		.sleb128 267
ARM GAS  C:\Users\Helon\AppData\Local\Temp\ccTLkFeM.s 			page 170


 6242 0b5e 0C       		.uleb128 0xc
 6243 0b5f AD230000 		.4byte	.LASF268
 6244 0b63 8C02     		.sleb128 268
 6245 0b65 0C       		.uleb128 0xc
 6246 0b66 862F0000 		.4byte	.LASF269
 6247 0b6a 8D02     		.sleb128 269
 6248 0b6c 0C       		.uleb128 0xc
 6249 0b6d 8B040000 		.4byte	.LASF270
 6250 0b71 8E02     		.sleb128 270
 6251 0b73 0C       		.uleb128 0xc
 6252 0b74 FA240000 		.4byte	.LASF271
 6253 0b78 8F02     		.sleb128 271
 6254 0b7a 0C       		.uleb128 0xc
 6255 0b7b 34080000 		.4byte	.LASF272
 6256 0b7f 9002     		.sleb128 272
 6257 0b81 0C       		.uleb128 0xc
 6258 0b82 24400000 		.4byte	.LASF273
 6259 0b86 9102     		.sleb128 273
 6260 0b88 0C       		.uleb128 0xc
 6261 0b89 E5130000 		.4byte	.LASF274
 6262 0b8d 9202     		.sleb128 274
 6263 0b8f 0C       		.uleb128 0xc
 6264 0b90 0F350000 		.4byte	.LASF275
 6265 0b94 9302     		.sleb128 275
 6266 0b96 0C       		.uleb128 0xc
 6267 0b97 6E430000 		.4byte	.LASF276
 6268 0b9b 9402     		.sleb128 276
 6269 0b9d 0C       		.uleb128 0xc
 6270 0b9e 61390000 		.4byte	.LASF277
 6271 0ba2 9502     		.sleb128 277
 6272 0ba4 0C       		.uleb128 0xc
 6273 0ba5 8A0B0000 		.4byte	.LASF278
 6274 0ba9 9602     		.sleb128 278
 6275 0bab 0C       		.uleb128 0xc
 6276 0bac 78460000 		.4byte	.LASF279
 6277 0bb0 9702     		.sleb128 279
 6278 0bb2 0C       		.uleb128 0xc
 6279 0bb3 81270000 		.4byte	.LASF280
 6280 0bb7 9802     		.sleb128 280
 6281 0bb9 0C       		.uleb128 0xc
 6282 0bba 28180000 		.4byte	.LASF281
 6283 0bbe 9902     		.sleb128 281
 6284 0bc0 0C       		.uleb128 0xc
 6285 0bc1 023C0000 		.4byte	.LASF282
 6286 0bc5 9A02     		.sleb128 282
 6287 0bc7 0C       		.uleb128 0xc
 6288 0bc8 EF2A0000 		.4byte	.LASF283
 6289 0bcc 9B02     		.sleb128 283
 6290 0bce 0C       		.uleb128 0xc
 6291 0bcf EC3F0000 		.4byte	.LASF284
 6292 0bd3 9C02     		.sleb128 284
 6293 0bd5 0C       		.uleb128 0xc
 6294 0bd6 4E3C0000 		.4byte	.LASF285
 6295 0bda 9D02     		.sleb128 285
 6296 0bdc 0C       		.uleb128 0xc
 6297 0bdd 9F450000 		.4byte	.LASF286
 6298 0be1 9E02     		.sleb128 286
ARM GAS  C:\Users\Helon\AppData\Local\Temp\ccTLkFeM.s 			page 171


 6299 0be3 0C       		.uleb128 0xc
 6300 0be4 521F0000 		.4byte	.LASF287
 6301 0be8 9F02     		.sleb128 287
 6302 0bea 0C       		.uleb128 0xc
 6303 0beb A31B0000 		.4byte	.LASF288
 6304 0bef A002     		.sleb128 288
 6305 0bf1 0C       		.uleb128 0xc
 6306 0bf2 46050000 		.4byte	.LASF289
 6307 0bf6 A102     		.sleb128 289
 6308 0bf8 0C       		.uleb128 0xc
 6309 0bf9 6C240000 		.4byte	.LASF290
 6310 0bfd A202     		.sleb128 290
 6311 0bff 0C       		.uleb128 0xc
 6312 0c00 09200000 		.4byte	.LASF291
 6313 0c04 A302     		.sleb128 291
 6314 0c06 0C       		.uleb128 0xc
 6315 0c07 5C350000 		.4byte	.LASF292
 6316 0c0b A402     		.sleb128 292
 6317 0c0d 0C       		.uleb128 0xc
 6318 0c0e C72E0000 		.4byte	.LASF293
 6319 0c12 A502     		.sleb128 293
 6320 0c14 0C       		.uleb128 0xc
 6321 0c15 E53D0000 		.4byte	.LASF294
 6322 0c19 A602     		.sleb128 294
 6323 0c1b 0C       		.uleb128 0xc
 6324 0c1c 12100000 		.4byte	.LASF295
 6325 0c20 A702     		.sleb128 295
 6326 0c22 0C       		.uleb128 0xc
 6327 0c23 1E0E0000 		.4byte	.LASF296
 6328 0c27 A802     		.sleb128 296
 6329 0c29 0C       		.uleb128 0xc
 6330 0c2a 78050000 		.4byte	.LASF297
 6331 0c2e A902     		.sleb128 297
 6332 0c30 0C       		.uleb128 0xc
 6333 0c31 353B0000 		.4byte	.LASF298
 6334 0c35 AA02     		.sleb128 298
 6335 0c37 0C       		.uleb128 0xc
 6336 0c38 F7030000 		.4byte	.LASF299
 6337 0c3c AB02     		.sleb128 299
 6338 0c3e 0C       		.uleb128 0xc
 6339 0c3f 1B040000 		.4byte	.LASF300
 6340 0c43 AC02     		.sleb128 300
 6341 0c45 0C       		.uleb128 0xc
 6342 0c46 91000000 		.4byte	.LASF301
 6343 0c4a AD02     		.sleb128 301
 6344 0c4c 0C       		.uleb128 0xc
 6345 0c4d 85320000 		.4byte	.LASF302
 6346 0c51 AE02     		.sleb128 302
 6347 0c53 0C       		.uleb128 0xc
 6348 0c54 4B450000 		.4byte	.LASF303
 6349 0c58 AF02     		.sleb128 303
 6350 0c5a 0C       		.uleb128 0xc
 6351 0c5b 3C070000 		.4byte	.LASF304
 6352 0c5f B002     		.sleb128 304
 6353 0c61 0C       		.uleb128 0xc
 6354 0c62 B8280000 		.4byte	.LASF305
 6355 0c66 B102     		.sleb128 305
ARM GAS  C:\Users\Helon\AppData\Local\Temp\ccTLkFeM.s 			page 172


 6356 0c68 0C       		.uleb128 0xc
 6357 0c69 BB010000 		.4byte	.LASF306
 6358 0c6d B202     		.sleb128 306
 6359 0c6f 0C       		.uleb128 0xc
 6360 0c70 A7170000 		.4byte	.LASF307
 6361 0c74 B302     		.sleb128 307
 6362 0c76 0C       		.uleb128 0xc
 6363 0c77 692A0000 		.4byte	.LASF308
 6364 0c7b B402     		.sleb128 308
 6365 0c7d 0C       		.uleb128 0xc
 6366 0c7e 8D1A0000 		.4byte	.LASF309
 6367 0c82 B502     		.sleb128 309
 6368 0c84 0C       		.uleb128 0xc
 6369 0c85 86070000 		.4byte	.LASF310
 6370 0c89 B602     		.sleb128 310
 6371 0c8b 0C       		.uleb128 0xc
 6372 0c8c 87020000 		.4byte	.LASF311
 6373 0c90 B702     		.sleb128 311
 6374 0c92 0C       		.uleb128 0xc
 6375 0c93 2B0A0000 		.4byte	.LASF312
 6376 0c97 B802     		.sleb128 312
 6377 0c99 0C       		.uleb128 0xc
 6378 0c9a CA320000 		.4byte	.LASF313
 6379 0c9e B902     		.sleb128 313
 6380 0ca0 0C       		.uleb128 0xc
 6381 0ca1 8B3A0000 		.4byte	.LASF314
 6382 0ca5 BA02     		.sleb128 314
 6383 0ca7 0C       		.uleb128 0xc
 6384 0ca8 0A090000 		.4byte	.LASF315
 6385 0cac BB02     		.sleb128 315
 6386 0cae 0C       		.uleb128 0xc
 6387 0caf 0C2D0000 		.4byte	.LASF316
 6388 0cb3 BC02     		.sleb128 316
 6389 0cb5 0C       		.uleb128 0xc
 6390 0cb6 483F0000 		.4byte	.LASF317
 6391 0cba BD02     		.sleb128 317
 6392 0cbc 0C       		.uleb128 0xc
 6393 0cbd 49240000 		.4byte	.LASF318
 6394 0cc1 BE02     		.sleb128 318
 6395 0cc3 0C       		.uleb128 0xc
 6396 0cc4 9D3F0000 		.4byte	.LASF319
 6397 0cc8 BF02     		.sleb128 319
 6398 0cca 0C       		.uleb128 0xc
 6399 0ccb 8B090000 		.4byte	.LASF320
 6400 0ccf C002     		.sleb128 320
 6401 0cd1 0C       		.uleb128 0xc
 6402 0cd2 B82D0000 		.4byte	.LASF321
 6403 0cd6 C102     		.sleb128 321
 6404 0cd8 0C       		.uleb128 0xc
 6405 0cd9 58420000 		.4byte	.LASF322
 6406 0cdd C202     		.sleb128 322
 6407 0cdf 0C       		.uleb128 0xc
 6408 0ce0 63400000 		.4byte	.LASF323
 6409 0ce4 C302     		.sleb128 323
 6410 0ce6 0C       		.uleb128 0xc
 6411 0ce7 D7000000 		.4byte	.LASF324
 6412 0ceb C402     		.sleb128 324
ARM GAS  C:\Users\Helon\AppData\Local\Temp\ccTLkFeM.s 			page 173


 6413 0ced 0C       		.uleb128 0xc
 6414 0cee 583B0000 		.4byte	.LASF325
 6415 0cf2 C502     		.sleb128 325
 6416 0cf4 0C       		.uleb128 0xc
 6417 0cf5 D7200000 		.4byte	.LASF326
 6418 0cf9 C602     		.sleb128 326
 6419 0cfb 0C       		.uleb128 0xc
 6420 0cfc 7E390000 		.4byte	.LASF327
 6421 0d00 C702     		.sleb128 327
 6422 0d02 0C       		.uleb128 0xc
 6423 0d03 F8360000 		.4byte	.LASF328
 6424 0d07 C802     		.sleb128 328
 6425 0d09 0C       		.uleb128 0xc
 6426 0d0a 32020000 		.4byte	.LASF329
 6427 0d0e C902     		.sleb128 329
 6428 0d10 0C       		.uleb128 0xc
 6429 0d11 B1350000 		.4byte	.LASF330
 6430 0d15 CA02     		.sleb128 330
 6431 0d17 0C       		.uleb128 0xc
 6432 0d18 9C110000 		.4byte	.LASF331
 6433 0d1c CB02     		.sleb128 331
 6434 0d1e 0C       		.uleb128 0xc
 6435 0d1f B10A0000 		.4byte	.LASF332
 6436 0d23 CC02     		.sleb128 332
 6437 0d25 0C       		.uleb128 0xc
 6438 0d26 8E0A0000 		.4byte	.LASF333
 6439 0d2a CD02     		.sleb128 333
 6440 0d2c 0C       		.uleb128 0xc
 6441 0d2d 5C110000 		.4byte	.LASF334
 6442 0d31 CE02     		.sleb128 334
 6443 0d33 0C       		.uleb128 0xc
 6444 0d34 6E220000 		.4byte	.LASF335
 6445 0d38 CF02     		.sleb128 335
 6446 0d3a 0C       		.uleb128 0xc
 6447 0d3b E3430000 		.4byte	.LASF336
 6448 0d3f D002     		.sleb128 336
 6449 0d41 0C       		.uleb128 0xc
 6450 0d42 D9160000 		.4byte	.LASF337
 6451 0d46 D102     		.sleb128 337
 6452 0d48 0C       		.uleb128 0xc
 6453 0d49 AE320000 		.4byte	.LASF338
 6454 0d4d D202     		.sleb128 338
 6455 0d4f 0C       		.uleb128 0xc
 6456 0d50 70080000 		.4byte	.LASF339
 6457 0d54 D302     		.sleb128 339
 6458 0d56 0C       		.uleb128 0xc
 6459 0d57 99010000 		.4byte	.LASF340
 6460 0d5b D402     		.sleb128 340
 6461 0d5d 0C       		.uleb128 0xc
 6462 0d5e 7F200000 		.4byte	.LASF341
 6463 0d62 D502     		.sleb128 341
 6464 0d64 0C       		.uleb128 0xc
 6465 0d65 F2000000 		.4byte	.LASF342
 6466 0d69 D602     		.sleb128 342
 6467 0d6b 0C       		.uleb128 0xc
 6468 0d6c 3E0B0000 		.4byte	.LASF343
 6469 0d70 D702     		.sleb128 343
ARM GAS  C:\Users\Helon\AppData\Local\Temp\ccTLkFeM.s 			page 174


 6470 0d72 0C       		.uleb128 0xc
 6471 0d73 CD400000 		.4byte	.LASF344
 6472 0d77 D802     		.sleb128 344
 6473 0d79 0C       		.uleb128 0xc
 6474 0d7a 421A0000 		.4byte	.LASF345
 6475 0d7e D902     		.sleb128 345
 6476 0d80 0C       		.uleb128 0xc
 6477 0d81 F8180000 		.4byte	.LASF346
 6478 0d85 DA02     		.sleb128 346
 6479 0d87 0C       		.uleb128 0xc
 6480 0d88 8B060000 		.4byte	.LASF347
 6481 0d8c DB02     		.sleb128 347
 6482 0d8e 0C       		.uleb128 0xc
 6483 0d8f F23E0000 		.4byte	.LASF348
 6484 0d93 DC02     		.sleb128 348
 6485 0d95 0C       		.uleb128 0xc
 6486 0d96 D0250000 		.4byte	.LASF349
 6487 0d9a DD02     		.sleb128 349
 6488 0d9c 0C       		.uleb128 0xc
 6489 0d9d 8D210000 		.4byte	.LASF350
 6490 0da1 DE02     		.sleb128 350
 6491 0da3 0C       		.uleb128 0xc
 6492 0da4 AA080000 		.4byte	.LASF351
 6493 0da8 DF02     		.sleb128 351
 6494 0daa 0C       		.uleb128 0xc
 6495 0dab B3070000 		.4byte	.LASF352
 6496 0daf E002     		.sleb128 352
 6497 0db1 0C       		.uleb128 0xc
 6498 0db2 ED010000 		.4byte	.LASF353
 6499 0db6 E102     		.sleb128 353
 6500 0db8 0C       		.uleb128 0xc
 6501 0db9 88260000 		.4byte	.LASF354
 6502 0dbd E202     		.sleb128 354
 6503 0dbf 0C       		.uleb128 0xc
 6504 0dc0 2A460000 		.4byte	.LASF355
 6505 0dc4 E302     		.sleb128 355
 6506 0dc6 0C       		.uleb128 0xc
 6507 0dc7 011C0000 		.4byte	.LASF356
 6508 0dcb E402     		.sleb128 356
 6509 0dcd 0C       		.uleb128 0xc
 6510 0dce 1E190000 		.4byte	.LASF357
 6511 0dd2 E502     		.sleb128 357
 6512 0dd4 0C       		.uleb128 0xc
 6513 0dd5 71280000 		.4byte	.LASF358
 6514 0dd9 E602     		.sleb128 358
 6515 0ddb 0C       		.uleb128 0xc
 6516 0ddc F53C0000 		.4byte	.LASF359
 6517 0de0 E702     		.sleb128 359
 6518 0de2 0C       		.uleb128 0xc
 6519 0de3 58330000 		.4byte	.LASF360
 6520 0de7 E802     		.sleb128 360
 6521 0de9 0C       		.uleb128 0xc
 6522 0dea 69040000 		.4byte	.LASF361
 6523 0dee E902     		.sleb128 361
 6524 0df0 0C       		.uleb128 0xc
 6525 0df1 B5310000 		.4byte	.LASF362
 6526 0df5 EA02     		.sleb128 362
ARM GAS  C:\Users\Helon\AppData\Local\Temp\ccTLkFeM.s 			page 175


 6527 0df7 0C       		.uleb128 0xc
 6528 0df8 891D0000 		.4byte	.LASF363
 6529 0dfc EB02     		.sleb128 363
 6530 0dfe 0C       		.uleb128 0xc
 6531 0dff 41200000 		.4byte	.LASF364
 6532 0e03 EC02     		.sleb128 364
 6533 0e05 0C       		.uleb128 0xc
 6534 0e06 CC2C0000 		.4byte	.LASF365
 6535 0e0a ED02     		.sleb128 365
 6536 0e0c 0C       		.uleb128 0xc
 6537 0e0d 31380000 		.4byte	.LASF366
 6538 0e11 EE02     		.sleb128 366
 6539 0e13 0C       		.uleb128 0xc
 6540 0e14 25170000 		.4byte	.LASF367
 6541 0e18 EF02     		.sleb128 367
 6542 0e1a 0C       		.uleb128 0xc
 6543 0e1b 66260000 		.4byte	.LASF368
 6544 0e1f F002     		.sleb128 368
 6545 0e21 0C       		.uleb128 0xc
 6546 0e22 B9240000 		.4byte	.LASF369
 6547 0e26 F102     		.sleb128 369
 6548 0e28 0C       		.uleb128 0xc
 6549 0e29 3A290000 		.4byte	.LASF370
 6550 0e2d F202     		.sleb128 370
 6551 0e2f 0C       		.uleb128 0xc
 6552 0e30 FD370000 		.4byte	.LASF371
 6553 0e34 F302     		.sleb128 371
 6554 0e36 0C       		.uleb128 0xc
 6555 0e37 361C0000 		.4byte	.LASF372
 6556 0e3b F402     		.sleb128 372
 6557 0e3d 0C       		.uleb128 0xc
 6558 0e3e 4B260000 		.4byte	.LASF373
 6559 0e42 F502     		.sleb128 373
 6560 0e44 0C       		.uleb128 0xc
 6561 0e45 F1260000 		.4byte	.LASF374
 6562 0e49 F602     		.sleb128 374
 6563 0e4b 0C       		.uleb128 0xc
 6564 0e4c 0E180000 		.4byte	.LASF375
 6565 0e50 F702     		.sleb128 375
 6566 0e52 0C       		.uleb128 0xc
 6567 0e53 680E0000 		.4byte	.LASF376
 6568 0e57 F802     		.sleb128 376
 6569 0e59 0C       		.uleb128 0xc
 6570 0e5a D73B0000 		.4byte	.LASF377
 6571 0e5e F902     		.sleb128 377
 6572 0e60 0C       		.uleb128 0xc
 6573 0e61 EC1C0000 		.4byte	.LASF378
 6574 0e65 FA02     		.sleb128 378
 6575 0e67 0C       		.uleb128 0xc
 6576 0e68 1B0D0000 		.4byte	.LASF379
 6577 0e6c FB02     		.sleb128 379
 6578 0e6e 0C       		.uleb128 0xc
 6579 0e6f 2C3C0000 		.4byte	.LASF380
 6580 0e73 FC02     		.sleb128 380
 6581 0e75 0C       		.uleb128 0xc
 6582 0e76 97330000 		.4byte	.LASF381
 6583 0e7a FD02     		.sleb128 381
ARM GAS  C:\Users\Helon\AppData\Local\Temp\ccTLkFeM.s 			page 176


 6584 0e7c 0C       		.uleb128 0xc
 6585 0e7d A2390000 		.4byte	.LASF382
 6586 0e81 FE02     		.sleb128 382
 6587 0e83 0C       		.uleb128 0xc
 6588 0e84 CE230000 		.4byte	.LASF383
 6589 0e88 FF02     		.sleb128 383
 6590 0e8a 0C       		.uleb128 0xc
 6591 0e8b 57020000 		.4byte	.LASF384
 6592 0e8f 8003     		.sleb128 384
 6593 0e91 0C       		.uleb128 0xc
 6594 0e92 6C2D0000 		.4byte	.LASF385
 6595 0e96 8103     		.sleb128 385
 6596 0e98 0C       		.uleb128 0xc
 6597 0e99 A3430000 		.4byte	.LASF386
 6598 0e9d 8203     		.sleb128 386
 6599 0e9f 0C       		.uleb128 0xc
 6600 0ea0 073E0000 		.4byte	.LASF387
 6601 0ea4 8303     		.sleb128 387
 6602 0ea6 0C       		.uleb128 0xc
 6603 0ea7 75380000 		.4byte	.LASF388
 6604 0eab 8403     		.sleb128 388
 6605 0ead 0C       		.uleb128 0xc
 6606 0eae 14030000 		.4byte	.LASF389
 6607 0eb2 8503     		.sleb128 389
 6608 0eb4 0C       		.uleb128 0xc
 6609 0eb5 22150000 		.4byte	.LASF390
 6610 0eb9 8603     		.sleb128 390
 6611 0ebb 0C       		.uleb128 0xc
 6612 0ebc 7E400000 		.4byte	.LASF391
 6613 0ec0 8703     		.sleb128 391
 6614 0ec2 0C       		.uleb128 0xc
 6615 0ec3 51470000 		.4byte	.LASF392
 6616 0ec7 8803     		.sleb128 392
 6617 0ec9 0C       		.uleb128 0xc
 6618 0eca 32270000 		.4byte	.LASF393
 6619 0ece 8903     		.sleb128 393
 6620 0ed0 0C       		.uleb128 0xc
 6621 0ed1 DD450000 		.4byte	.LASF394
 6622 0ed5 8A03     		.sleb128 394
 6623 0ed7 0C       		.uleb128 0xc
 6624 0ed8 CF260000 		.4byte	.LASF395
 6625 0edc 8B03     		.sleb128 395
 6626 0ede 0C       		.uleb128 0xc
 6627 0edf 360F0000 		.4byte	.LASF396
 6628 0ee3 8C03     		.sleb128 396
 6629 0ee5 0C       		.uleb128 0xc
 6630 0ee6 291D0000 		.4byte	.LASF397
 6631 0eea 8D03     		.sleb128 397
 6632 0eec 0C       		.uleb128 0xc
 6633 0eed B91A0000 		.4byte	.LASF398
 6634 0ef1 8E03     		.sleb128 398
 6635 0ef3 0C       		.uleb128 0xc
 6636 0ef4 8A0E0000 		.4byte	.LASF399
 6637 0ef8 8F03     		.sleb128 399
 6638 0efa 0C       		.uleb128 0xc
 6639 0efb 23370000 		.4byte	.LASF400
 6640 0eff 9003     		.sleb128 400
ARM GAS  C:\Users\Helon\AppData\Local\Temp\ccTLkFeM.s 			page 177


 6641 0f01 0C       		.uleb128 0xc
 6642 0f02 0F1E0000 		.4byte	.LASF401
 6643 0f06 9103     		.sleb128 401
 6644 0f08 0C       		.uleb128 0xc
 6645 0f09 812E0000 		.4byte	.LASF402
 6646 0f0d 9203     		.sleb128 402
 6647 0f0f 0C       		.uleb128 0xc
 6648 0f10 8C350000 		.4byte	.LASF403
 6649 0f14 9303     		.sleb128 403
 6650 0f16 0C       		.uleb128 0xc
 6651 0f17 00170000 		.4byte	.LASF404
 6652 0f1b 9403     		.sleb128 404
 6653 0f1d 0C       		.uleb128 0xc
 6654 0f1e 9D180000 		.4byte	.LASF405
 6655 0f22 9503     		.sleb128 405
 6656 0f24 0C       		.uleb128 0xc
 6657 0f25 CA470000 		.4byte	.LASF406
 6658 0f29 9603     		.sleb128 406
 6659 0f2b 0C       		.uleb128 0xc
 6660 0f2c 1A2E0000 		.4byte	.LASF407
 6661 0f30 9703     		.sleb128 407
 6662 0f32 0C       		.uleb128 0xc
 6663 0f33 A52E0000 		.4byte	.LASF408
 6664 0f37 9803     		.sleb128 408
 6665 0f39 0C       		.uleb128 0xc
 6666 0f3a 53340000 		.4byte	.LASF409
 6667 0f3e 9903     		.sleb128 409
 6668 0f40 0C       		.uleb128 0xc
 6669 0f41 0E1A0000 		.4byte	.LASF410
 6670 0f45 9A03     		.sleb128 410
 6671 0f47 0C       		.uleb128 0xc
 6672 0f48 BF370000 		.4byte	.LASF411
 6673 0f4c 9B03     		.sleb128 411
 6674 0f4e 0C       		.uleb128 0xc
 6675 0f4f 560D0000 		.4byte	.LASF412
 6676 0f53 9C03     		.sleb128 412
 6677 0f55 0C       		.uleb128 0xc
 6678 0f56 3C000000 		.4byte	.LASF413
 6679 0f5a 9D03     		.sleb128 413
 6680 0f5c 0C       		.uleb128 0xc
 6681 0f5d 863D0000 		.4byte	.LASF414
 6682 0f61 9E03     		.sleb128 414
 6683 0f63 0C       		.uleb128 0xc
 6684 0f64 99150000 		.4byte	.LASF415
 6685 0f68 9F03     		.sleb128 415
 6686 0f6a 0C       		.uleb128 0xc
 6687 0f6b 76470000 		.4byte	.LASF416
 6688 0f6f A003     		.sleb128 416
 6689 0f71 0C       		.uleb128 0xc
 6690 0f72 C61F0000 		.4byte	.LASF417
 6691 0f76 A103     		.sleb128 417
 6692 0f78 0C       		.uleb128 0xc
 6693 0f79 2A230000 		.4byte	.LASF418
 6694 0f7d A203     		.sleb128 418
 6695 0f7f 0C       		.uleb128 0xc
 6696 0f80 37470000 		.4byte	.LASF419
 6697 0f84 A303     		.sleb128 419
ARM GAS  C:\Users\Helon\AppData\Local\Temp\ccTLkFeM.s 			page 178


 6698 0f86 0C       		.uleb128 0xc
 6699 0f87 CC390000 		.4byte	.LASF420
 6700 0f8b A403     		.sleb128 420
 6701 0f8d 0C       		.uleb128 0xc
 6702 0f8e 942A0000 		.4byte	.LASF421
 6703 0f92 A503     		.sleb128 421
 6704 0f94 0C       		.uleb128 0xc
 6705 0f95 2F2D0000 		.4byte	.LASF422
 6706 0f99 A603     		.sleb128 422
 6707 0f9b 0C       		.uleb128 0xc
 6708 0f9c 8E410000 		.4byte	.LASF423
 6709 0fa0 A703     		.sleb128 423
 6710 0fa2 0C       		.uleb128 0xc
 6711 0fa3 5C1E0000 		.4byte	.LASF424
 6712 0fa7 A803     		.sleb128 424
 6713 0fa9 0C       		.uleb128 0xc
 6714 0faa CB190000 		.4byte	.LASF425
 6715 0fae A903     		.sleb128 425
 6716 0fb0 0C       		.uleb128 0xc
 6717 0fb1 AE250000 		.4byte	.LASF426
 6718 0fb5 AA03     		.sleb128 426
 6719 0fb7 0C       		.uleb128 0xc
 6720 0fb8 6A3E0000 		.4byte	.LASF427
 6721 0fbc AB03     		.sleb128 427
 6722 0fbe 0C       		.uleb128 0xc
 6723 0fbf 1D340000 		.4byte	.LASF428
 6724 0fc3 AC03     		.sleb128 428
 6725 0fc5 0C       		.uleb128 0xc
 6726 0fc6 46040000 		.4byte	.LASF429
 6727 0fca AD03     		.sleb128 429
 6728 0fcc 0C       		.uleb128 0xc
 6729 0fcd 63300000 		.4byte	.LASF430
 6730 0fd1 AE03     		.sleb128 430
 6731 0fd3 0C       		.uleb128 0xc
 6732 0fd4 D30A0000 		.4byte	.LASF431
 6733 0fd8 AF03     		.sleb128 431
 6734 0fda 0C       		.uleb128 0xc
 6735 0fdb 49220000 		.4byte	.LASF432
 6736 0fdf B003     		.sleb128 432
 6737 0fe1 0C       		.uleb128 0xc
 6738 0fe2 E3370000 		.4byte	.LASF433
 6739 0fe6 B103     		.sleb128 433
 6740 0fe8 0C       		.uleb128 0xc
 6741 0fe9 AE060000 		.4byte	.LASF434
 6742 0fed B203     		.sleb128 434
 6743 0fef 0C       		.uleb128 0xc
 6744 0ff0 1D330000 		.4byte	.LASF435
 6745 0ff4 B303     		.sleb128 435
 6746 0ff6 0C       		.uleb128 0xc
 6747 0ff7 CC300000 		.4byte	.LASF436
 6748 0ffb B403     		.sleb128 436
 6749 0ffd 0C       		.uleb128 0xc
 6750 0ffe 2E1B0000 		.4byte	.LASF437
 6751 1002 B503     		.sleb128 437
 6752 1004 0C       		.uleb128 0xc
 6753 1005 741F0000 		.4byte	.LASF438
 6754 1009 B603     		.sleb128 438
ARM GAS  C:\Users\Helon\AppData\Local\Temp\ccTLkFeM.s 			page 179


 6755 100b 0C       		.uleb128 0xc
 6756 100c 68250000 		.4byte	.LASF439
 6757 1010 B703     		.sleb128 439
 6758 1012 0C       		.uleb128 0xc
 6759 1013 522F0000 		.4byte	.LASF440
 6760 1017 B803     		.sleb128 440
 6761 1019 0C       		.uleb128 0xc
 6762 101a DC340000 		.4byte	.LASF441
 6763 101e B903     		.sleb128 441
 6764 1020 0C       		.uleb128 0xc
 6765 1021 D2360000 		.4byte	.LASF442
 6766 1025 BA03     		.sleb128 442
 6767 1027 0C       		.uleb128 0xc
 6768 1028 64200000 		.4byte	.LASF443
 6769 102c BB03     		.sleb128 443
 6770 102e 0C       		.uleb128 0xc
 6771 102f BE290000 		.4byte	.LASF444
 6772 1033 BC03     		.sleb128 444
 6773 1035 0C       		.uleb128 0xc
 6774 1036 ED060000 		.4byte	.LASF445
 6775 103a BD03     		.sleb128 445
 6776 103c 0C       		.uleb128 0xc
 6777 103d AD0B0000 		.4byte	.LASF446
 6778 1041 BE03     		.sleb128 446
 6779 1043 0C       		.uleb128 0xc
 6780 1044 87160000 		.4byte	.LASF447
 6781 1048 BF03     		.sleb128 447
 6782 104a 0C       		.uleb128 0xc
 6783 104b 283A0000 		.4byte	.LASF448
 6784 104f C003     		.sleb128 448
 6785 1051 0C       		.uleb128 0xc
 6786 1052 C2460000 		.4byte	.LASF449
 6787 1056 C103     		.sleb128 449
 6788 1058 0C       		.uleb128 0xc
 6789 1059 DF1D0000 		.4byte	.LASF450
 6790 105d C203     		.sleb128 450
 6791 105f 0C       		.uleb128 0xc
 6792 1060 0D110000 		.4byte	.LASF451
 6793 1064 C303     		.sleb128 451
 6794 1066 0C       		.uleb128 0xc
 6795 1067 42190000 		.4byte	.LASF452
 6796 106b C403     		.sleb128 452
 6797 106d 0C       		.uleb128 0xc
 6798 106e 362E0000 		.4byte	.LASF453
 6799 1072 C503     		.sleb128 453
 6800 1074 0C       		.uleb128 0xc
 6801 1075 DA040000 		.4byte	.LASF454
 6802 1079 C603     		.sleb128 454
 6803 107b 0C       		.uleb128 0xc
 6804 107c C1380000 		.4byte	.LASF455
 6805 1080 C703     		.sleb128 455
 6806 1082 0C       		.uleb128 0xc
 6807 1083 D2110000 		.4byte	.LASF456
 6808 1087 C803     		.sleb128 456
 6809 1089 0C       		.uleb128 0xc
 6810 108a CF210000 		.4byte	.LASF457
 6811 108e C903     		.sleb128 457
ARM GAS  C:\Users\Helon\AppData\Local\Temp\ccTLkFeM.s 			page 180


 6812 1090 0C       		.uleb128 0xc
 6813 1091 5E180000 		.4byte	.LASF458
 6814 1095 CA03     		.sleb128 458
 6815 1097 0C       		.uleb128 0xc
 6816 1098 F1400000 		.4byte	.LASF459
 6817 109c CB03     		.sleb128 459
 6818 109e 0C       		.uleb128 0xc
 6819 109f D2030000 		.4byte	.LASF460
 6820 10a3 CC03     		.sleb128 460
 6821 10a5 0C       		.uleb128 0xc
 6822 10a6 1E010000 		.4byte	.LASF461
 6823 10aa CD03     		.sleb128 461
 6824 10ac 0C       		.uleb128 0xc
 6825 10ad BC150000 		.4byte	.LASF462
 6826 10b1 CE03     		.sleb128 462
 6827 10b3 0C       		.uleb128 0xc
 6828 10b4 63130000 		.4byte	.LASF463
 6829 10b8 CF03     		.sleb128 463
 6830 10ba 0C       		.uleb128 0xc
 6831 10bb FC280000 		.4byte	.LASF464
 6832 10bf D003     		.sleb128 464
 6833 10c1 0C       		.uleb128 0xc
 6834 10c2 2A3E0000 		.4byte	.LASF465
 6835 10c6 D103     		.sleb128 465
 6836 10c8 0C       		.uleb128 0xc
 6837 10c9 B2260000 		.4byte	.LASF466
 6838 10cd D203     		.sleb128 466
 6839 10cf 0C       		.uleb128 0xc
 6840 10d0 9B370000 		.4byte	.LASF467
 6841 10d4 D303     		.sleb128 467
 6842 10d6 0C       		.uleb128 0xc
 6843 10d7 2A140000 		.4byte	.LASF468
 6844 10db D403     		.sleb128 468
 6845 10dd 0C       		.uleb128 0xc
 6846 10de 22050000 		.4byte	.LASF469
 6847 10e2 D503     		.sleb128 469
 6848 10e4 0C       		.uleb128 0xc
 6849 10e5 76370000 		.4byte	.LASF470
 6850 10e9 D603     		.sleb128 470
 6851 10eb 0C       		.uleb128 0xc
 6852 10ec 6F140000 		.4byte	.LASF471
 6853 10f0 D703     		.sleb128 471
 6854 10f2 0C       		.uleb128 0xc
 6855 10f3 8B230000 		.4byte	.LASF472
 6856 10f7 D803     		.sleb128 472
 6857 10f9 0C       		.uleb128 0xc
 6858 10fa 10360000 		.4byte	.LASF473
 6859 10fe D903     		.sleb128 473
 6860 1100 0C       		.uleb128 0xc
 6861 1101 CF180000 		.4byte	.LASF474
 6862 1105 DA03     		.sleb128 474
 6863 1107 0C       		.uleb128 0xc
 6864 1108 0F3D0000 		.4byte	.LASF475
 6865 110c DB03     		.sleb128 475
 6866 110e 0C       		.uleb128 0xc
 6867 110f 64160000 		.4byte	.LASF476
 6868 1113 DC03     		.sleb128 476
ARM GAS  C:\Users\Helon\AppData\Local\Temp\ccTLkFeM.s 			page 181


 6869 1115 0C       		.uleb128 0xc
 6870 1116 1A2F0000 		.4byte	.LASF477
 6871 111a DD03     		.sleb128 477
 6872 111c 0C       		.uleb128 0xc
 6873 111d E62F0000 		.4byte	.LASF478
 6874 1121 DE03     		.sleb128 478
 6875 1123 0C       		.uleb128 0xc
 6876 1124 C61B0000 		.4byte	.LASF479
 6877 1128 DF03     		.sleb128 479
 6878 112a 0C       		.uleb128 0xc
 6879 112b 541C0000 		.4byte	.LASF480
 6880 112f E003     		.sleb128 480
 6881 1131 0C       		.uleb128 0xc
 6882 1132 80450000 		.4byte	.LASF481
 6883 1136 E103     		.sleb128 481
 6884 1138 0C       		.uleb128 0xc
 6885 1139 C7080000 		.4byte	.LASF482
 6886 113d E203     		.sleb128 482
 6887 113f 0C       		.uleb128 0xc
 6888 1140 D1270000 		.4byte	.LASF483
 6889 1144 E303     		.sleb128 483
 6890 1146 0C       		.uleb128 0xc
 6891 1147 96280000 		.4byte	.LASF484
 6892 114b E403     		.sleb128 484
 6893 114d 0C       		.uleb128 0xc
 6894 114e A72B0000 		.4byte	.LASF485
 6895 1152 E503     		.sleb128 485
 6896 1154 0C       		.uleb128 0xc
 6897 1155 B83D0000 		.4byte	.LASF486
 6898 1159 E603     		.sleb128 486
 6899 115b 0C       		.uleb128 0xc
 6900 115c F5040000 		.4byte	.LASF487
 6901 1160 E703     		.sleb128 487
 6902 1162 0C       		.uleb128 0xc
 6903 1163 75360000 		.4byte	.LASF488
 6904 1167 E803     		.sleb128 488
 6905 1169 0C       		.uleb128 0xc
 6906 116a 37250000 		.4byte	.LASF489
 6907 116e E903     		.sleb128 489
 6908 1170 0C       		.uleb128 0xc
 6909 1171 4A170000 		.4byte	.LASF490
 6910 1175 EA03     		.sleb128 490
 6911 1177 0C       		.uleb128 0xc
 6912 1178 B81E0000 		.4byte	.LASF491
 6913 117c EB03     		.sleb128 491
 6914 117e 0C       		.uleb128 0xc
 6915 117f 862D0000 		.4byte	.LASF492
 6916 1183 EC03     		.sleb128 492
 6917 1185 0C       		.uleb128 0xc
 6918 1186 A5470000 		.4byte	.LASF493
 6919 118a ED03     		.sleb128 493
 6920 118c 0C       		.uleb128 0xc
 6921 118d B0190000 		.4byte	.LASF494
 6922 1191 EE03     		.sleb128 494
 6923 1193 0C       		.uleb128 0xc
 6924 1194 54010000 		.4byte	.LASF495
 6925 1198 EF03     		.sleb128 495
ARM GAS  C:\Users\Helon\AppData\Local\Temp\ccTLkFeM.s 			page 182


 6926 119a 0C       		.uleb128 0xc
 6927 119b D82B0000 		.4byte	.LASF496
 6928 119f F003     		.sleb128 496
 6929 11a1 0C       		.uleb128 0xc
 6930 11a2 ED270000 		.4byte	.LASF497
 6931 11a6 F103     		.sleb128 497
 6932 11a8 0C       		.uleb128 0xc
 6933 11a9 FB1A0000 		.4byte	.LASF498
 6934 11ad F203     		.sleb128 498
 6935 11af 0C       		.uleb128 0xc
 6936 11b0 3D390000 		.4byte	.LASF499
 6937 11b4 F303     		.sleb128 499
 6938 11b6 0C       		.uleb128 0xc
 6939 11b7 D6410000 		.4byte	.LASF500
 6940 11bb F403     		.sleb128 500
 6941 11bd 0C       		.uleb128 0xc
 6942 11be 77010000 		.4byte	.LASF501
 6943 11c2 F503     		.sleb128 501
 6944 11c4 0C       		.uleb128 0xc
 6945 11c5 8D300000 		.4byte	.LASF502
 6946 11c9 F603     		.sleb128 502
 6947 11cb 0C       		.uleb128 0xc
 6948 11cc FE150000 		.4byte	.LASF503
 6949 11d0 F703     		.sleb128 503
 6950 11d2 0C       		.uleb128 0xc
 6951 11d3 CB170000 		.4byte	.LASF504
 6952 11d7 F803     		.sleb128 504
 6953 11d9 0C       		.uleb128 0xc
 6954 11da E7460000 		.4byte	.LASF505
 6955 11de F903     		.sleb128 505
 6956 11e0 0C       		.uleb128 0xc
 6957 11e1 12120000 		.4byte	.LASF506
 6958 11e5 FA03     		.sleb128 506
 6959 11e7 0C       		.uleb128 0xc
 6960 11e8 EE0F0000 		.4byte	.LASF507
 6961 11ec FB03     		.sleb128 507
 6962 11ee 0C       		.uleb128 0xc
 6963 11ef 522D0000 		.4byte	.LASF508
 6964 11f3 80C003   		.sleb128 57344
 6965 11f6 00       		.byte	0
 6966 11f7 0D       		.uleb128 0xd
 6967 11f8 01       		.byte	0x1
 6968 11f9 0D       		.byte	0xd
 6969 11fa 3707     		.2byte	0x737
 6970 11fc 2B120000 		.4byte	0x122b
 6971 1200 0C       		.uleb128 0xc
 6972 1201 F9100000 		.4byte	.LASF509
 6973 1205 00       		.sleb128 0
 6974 1206 0C       		.uleb128 0xc
 6975 1207 FA200000 		.4byte	.LASF510
 6976 120b 01       		.sleb128 1
 6977 120c 0C       		.uleb128 0xc
 6978 120d 40430000 		.4byte	.LASF511
 6979 1211 02       		.sleb128 2
 6980 1212 0C       		.uleb128 0xc
 6981 1213 65090000 		.4byte	.LASF512
 6982 1217 03       		.sleb128 3
ARM GAS  C:\Users\Helon\AppData\Local\Temp\ccTLkFeM.s 			page 183


 6983 1218 0C       		.uleb128 0xc
 6984 1219 E4050000 		.4byte	.LASF513
 6985 121d 04       		.sleb128 4
 6986 121e 0C       		.uleb128 0xc
 6987 121f DE140000 		.4byte	.LASF514
 6988 1223 05       		.sleb128 5
 6989 1224 0C       		.uleb128 0xc
 6990 1225 5C380000 		.4byte	.LASF515
 6991 1229 06       		.sleb128 6
 6992 122a 00       		.byte	0
 6993 122b 06       		.uleb128 0x6
 6994 122c 37310000 		.4byte	.LASF516
 6995 1230 0D       		.byte	0xd
 6996 1231 4507     		.2byte	0x745
 6997 1233 F7110000 		.4byte	0x11f7
 6998 1237 0E       		.uleb128 0xe
 6999 1238 70       		.byte	0x70
 7000 1239 0E       		.byte	0xe
 7001 123a 2501     		.2byte	0x125
 7002 123c D4130000 		.4byte	0x13d4
 7003 1240 0F       		.uleb128 0xf
 7004 1241 A53A0000 		.4byte	.LASF517
 7005 1245 0E       		.byte	0xe
 7006 1246 2701     		.2byte	0x127
 7007 1248 F6000000 		.4byte	0xf6
 7008 124c 00       		.byte	0
 7009 124d 0F       		.uleb128 0xf
 7010 124e 6E060000 		.4byte	.LASF518
 7011 1252 0E       		.byte	0xe
 7012 1253 2801     		.2byte	0x128
 7013 1255 F6000000 		.4byte	0xf6
 7014 1259 04       		.byte	0x4
 7015 125a 0F       		.uleb128 0xf
 7016 125b 6E1A0000 		.4byte	.LASF519
 7017 125f 0E       		.byte	0xe
 7018 1260 2901     		.2byte	0x129
 7019 1262 F6000000 		.4byte	0xf6
 7020 1266 08       		.byte	0x8
 7021 1267 0F       		.uleb128 0xf
 7022 1268 B51D0000 		.4byte	.LASF520
 7023 126c 0E       		.byte	0xe
 7024 126d 2A01     		.2byte	0x12a
 7025 126f F6000000 		.4byte	0xf6
 7026 1273 0C       		.byte	0xc
 7027 1274 0F       		.uleb128 0xf
 7028 1275 51370000 		.4byte	.LASF521
 7029 1279 0E       		.byte	0xe
 7030 127a 2B01     		.2byte	0x12b
 7031 127c F6000000 		.4byte	0xf6
 7032 1280 10       		.byte	0x10
 7033 1281 0F       		.uleb128 0xf
 7034 1282 46370000 		.4byte	.LASF522
 7035 1286 0E       		.byte	0xe
 7036 1287 2C01     		.2byte	0x12c
 7037 1289 F6000000 		.4byte	0xf6
 7038 128d 14       		.byte	0x14
 7039 128e 0F       		.uleb128 0xf
ARM GAS  C:\Users\Helon\AppData\Local\Temp\ccTLkFeM.s 			page 184


 7040 128f 53320000 		.4byte	.LASF523
 7041 1293 0E       		.byte	0xe
 7042 1294 2D01     		.2byte	0x12d
 7043 1296 F6000000 		.4byte	0xf6
 7044 129a 18       		.byte	0x18
 7045 129b 0F       		.uleb128 0xf
 7046 129c 2C090000 		.4byte	.LASF524
 7047 12a0 0E       		.byte	0xe
 7048 12a1 2E01     		.2byte	0x12e
 7049 12a3 F6000000 		.4byte	0xf6
 7050 12a7 1C       		.byte	0x1c
 7051 12a8 0F       		.uleb128 0xf
 7052 12a9 0A140000 		.4byte	.LASF525
 7053 12ad 0E       		.byte	0xe
 7054 12ae 2F01     		.2byte	0x12f
 7055 12b0 F6000000 		.4byte	0xf6
 7056 12b4 20       		.byte	0x20
 7057 12b5 0F       		.uleb128 0xf
 7058 12b6 6F450000 		.4byte	.LASF526
 7059 12ba 0E       		.byte	0xe
 7060 12bb 3001     		.2byte	0x130
 7061 12bd F6000000 		.4byte	0xf6
 7062 12c1 24       		.byte	0x24
 7063 12c2 0F       		.uleb128 0xf
 7064 12c3 0D320000 		.4byte	.LASF527
 7065 12c7 0E       		.byte	0xe
 7066 12c8 3101     		.2byte	0x131
 7067 12ca F6000000 		.4byte	0xf6
 7068 12ce 28       		.byte	0x28
 7069 12cf 0F       		.uleb128 0xf
 7070 12d0 05450000 		.4byte	.LASF528
 7071 12d4 0E       		.byte	0xe
 7072 12d5 3201     		.2byte	0x132
 7073 12d7 F6000000 		.4byte	0xf6
 7074 12db 2C       		.byte	0x2c
 7075 12dc 0F       		.uleb128 0xf
 7076 12dd 6A230000 		.4byte	.LASF529
 7077 12e1 0E       		.byte	0xe
 7078 12e2 3301     		.2byte	0x133
 7079 12e4 F6000000 		.4byte	0xf6
 7080 12e8 30       		.byte	0x30
 7081 12e9 0F       		.uleb128 0xf
 7082 12ea 33060000 		.4byte	.LASF530
 7083 12ee 0E       		.byte	0xe
 7084 12ef 3401     		.2byte	0x134
 7085 12f1 F6000000 		.4byte	0xf6
 7086 12f5 34       		.byte	0x34
 7087 12f6 0F       		.uleb128 0xf
 7088 12f7 781D0000 		.4byte	.LASF531
 7089 12fb 0E       		.byte	0xe
 7090 12fc 3501     		.2byte	0x135
 7091 12fe 3E080000 		.4byte	0x83e
 7092 1302 38       		.byte	0x38
 7093 1303 0F       		.uleb128 0xf
 7094 1304 9A2B0000 		.4byte	.LASF532
 7095 1308 0E       		.byte	0xe
 7096 1309 3601     		.2byte	0x136
ARM GAS  C:\Users\Helon\AppData\Local\Temp\ccTLkFeM.s 			page 185


 7097 130b F6000000 		.4byte	0xf6
 7098 130f 3C       		.byte	0x3c
 7099 1310 0F       		.uleb128 0xf
 7100 1311 00000000 		.4byte	.LASF533
 7101 1315 0E       		.byte	0xe
 7102 1316 3701     		.2byte	0x137
 7103 1318 3E080000 		.4byte	0x83e
 7104 131c 40       		.byte	0x40
 7105 131d 0F       		.uleb128 0xf
 7106 131e 36450000 		.4byte	.LASF534
 7107 1322 0E       		.byte	0xe
 7108 1323 3801     		.2byte	0x138
 7109 1325 F6000000 		.4byte	0xf6
 7110 1329 44       		.byte	0x44
 7111 132a 0F       		.uleb128 0xf
 7112 132b 42300000 		.4byte	.LASF535
 7113 132f 0E       		.byte	0xe
 7114 1330 3901     		.2byte	0x139
 7115 1332 F6000000 		.4byte	0xf6
 7116 1336 48       		.byte	0x48
 7117 1337 0F       		.uleb128 0xf
 7118 1338 6D150000 		.4byte	.LASF536
 7119 133c 0E       		.byte	0xe
 7120 133d 3A01     		.2byte	0x13a
 7121 133f F6000000 		.4byte	0xf6
 7122 1343 4C       		.byte	0x4c
 7123 1344 0F       		.uleb128 0xf
 7124 1345 B4220000 		.4byte	.LASF537
 7125 1349 0E       		.byte	0xe
 7126 134a 3B01     		.2byte	0x13b
 7127 134c F6000000 		.4byte	0xf6
 7128 1350 50       		.byte	0x50
 7129 1351 0F       		.uleb128 0xf
 7130 1352 00360000 		.4byte	.LASF538
 7131 1356 0E       		.byte	0xe
 7132 1357 3C01     		.2byte	0x13c
 7133 1359 F6000000 		.4byte	0xf6
 7134 135d 54       		.byte	0x54
 7135 135e 0F       		.uleb128 0xf
 7136 135f E7070000 		.4byte	.LASF539
 7137 1363 0E       		.byte	0xe
 7138 1364 3D01     		.2byte	0x13d
 7139 1366 F6000000 		.4byte	0xf6
 7140 136a 58       		.byte	0x58
 7141 136b 0F       		.uleb128 0xf
 7142 136c 2B290000 		.4byte	.LASF540
 7143 1370 0E       		.byte	0xe
 7144 1371 3E01     		.2byte	0x13e
 7145 1373 F6000000 		.4byte	0xf6
 7146 1377 5C       		.byte	0x5c
 7147 1378 0F       		.uleb128 0xf
 7148 1379 91170000 		.4byte	.LASF541
 7149 137d 0E       		.byte	0xe
 7150 137e 3F01     		.2byte	0x13f
 7151 1380 F6000000 		.4byte	0xf6
 7152 1384 60       		.byte	0x60
 7153 1385 0F       		.uleb128 0xf
ARM GAS  C:\Users\Helon\AppData\Local\Temp\ccTLkFeM.s 			page 186


 7154 1386 B8100000 		.4byte	.LASF542
 7155 138a 0E       		.byte	0xe
 7156 138b 4001     		.2byte	0x140
 7157 138d F6000000 		.4byte	0xf6
 7158 1391 64       		.byte	0x64
 7159 1392 0F       		.uleb128 0xf
 7160 1393 2D000000 		.4byte	.LASF543
 7161 1397 0E       		.byte	0xe
 7162 1398 4101     		.2byte	0x141
 7163 139a E0000000 		.4byte	0xe0
 7164 139e 68       		.byte	0x68
 7165 139f 0F       		.uleb128 0xf
 7166 13a0 361F0000 		.4byte	.LASF544
 7167 13a4 0E       		.byte	0xe
 7168 13a5 4201     		.2byte	0x142
 7169 13a7 E0000000 		.4byte	0xe0
 7170 13ab 69       		.byte	0x69
 7171 13ac 0F       		.uleb128 0xf
 7172 13ad A9420000 		.4byte	.LASF545
 7173 13b1 0E       		.byte	0xe
 7174 13b2 4301     		.2byte	0x143
 7175 13b4 E0000000 		.4byte	0xe0
 7176 13b8 6A       		.byte	0x6a
 7177 13b9 0F       		.uleb128 0xf
 7178 13ba 15440000 		.4byte	.LASF546
 7179 13be 0E       		.byte	0xe
 7180 13bf 4401     		.2byte	0x144
 7181 13c1 E0000000 		.4byte	0xe0
 7182 13c5 6B       		.byte	0x6b
 7183 13c6 0F       		.uleb128 0xf
 7184 13c7 40120000 		.4byte	.LASF547
 7185 13cb 0E       		.byte	0xe
 7186 13cc 4501     		.2byte	0x145
 7187 13ce E0000000 		.4byte	0xe0
 7188 13d2 6C       		.byte	0x6c
 7189 13d3 00       		.byte	0
 7190 13d4 06       		.uleb128 0x6
 7191 13d5 EB1B0000 		.4byte	.LASF548
 7192 13d9 0E       		.byte	0xe
 7193 13da 4601     		.2byte	0x146
 7194 13dc 37120000 		.4byte	0x1237
 7195 13e0 0B       		.uleb128 0xb
 7196 13e1 01       		.byte	0x1
 7197 13e2 0F       		.byte	0xf
 7198 13e3 7C       		.byte	0x7c
 7199 13e4 84140000 		.4byte	0x1484
 7200 13e8 0C       		.uleb128 0xc
 7201 13e9 56350000 		.4byte	.LASF549
 7202 13ed 00       		.sleb128 0
 7203 13ee 0C       		.uleb128 0xc
 7204 13ef 09470000 		.4byte	.LASF550
 7205 13f3 01       		.sleb128 1
 7206 13f4 0C       		.uleb128 0xc
 7207 13f5 FA3B0000 		.4byte	.LASF551
 7208 13f9 02       		.sleb128 2
 7209 13fa 0C       		.uleb128 0xc
 7210 13fb 8C170000 		.4byte	.LASF552
ARM GAS  C:\Users\Helon\AppData\Local\Temp\ccTLkFeM.s 			page 187


 7211 13ff 03       		.sleb128 3
 7212 1400 0C       		.uleb128 0xc
 7213 1401 8E2A0000 		.4byte	.LASF553
 7214 1405 04       		.sleb128 4
 7215 1406 0C       		.uleb128 0xc
 7216 1407 86090000 		.4byte	.LASF554
 7217 140b 05       		.sleb128 5
 7218 140c 0C       		.uleb128 0xc
 7219 140d 4D180000 		.4byte	.LASF555
 7220 1411 06       		.sleb128 6
 7221 1412 17       		.uleb128 0x17
 7222 1413 54585000 		.ascii	"TXP\000"
 7223 1417 07       		.sleb128 7
 7224 1418 0C       		.uleb128 0xc
 7225 1419 09000000 		.4byte	.LASF556
 7226 141d 08       		.sleb128 8
 7227 141e 0C       		.uleb128 0xc
 7228 141f 05090000 		.4byte	.LASF557
 7229 1423 09       		.sleb128 9
 7230 1424 0C       		.uleb128 0xc
 7231 1425 E92A0000 		.4byte	.LASF558
 7232 1429 0A       		.sleb128 10
 7233 142a 0C       		.uleb128 0xc
 7234 142b DB420000 		.4byte	.LASF559
 7235 142f 0B       		.sleb128 11
 7236 1430 0C       		.uleb128 0xc
 7237 1431 9E1B0000 		.4byte	.LASF560
 7238 1435 0C       		.sleb128 12
 7239 1436 0C       		.uleb128 0xc
 7240 1437 2F3B0000 		.4byte	.LASF561
 7241 143b 0D       		.sleb128 13
 7242 143c 0C       		.uleb128 0xc
 7243 143d 66190000 		.4byte	.LASF562
 7244 1441 0E       		.sleb128 14
 7245 1442 0C       		.uleb128 0xc
 7246 1443 C01F0000 		.4byte	.LASF563
 7247 1447 0F       		.sleb128 15
 7248 1448 17       		.uleb128 0x17
 7249 1449 545800   		.ascii	"TX\000"
 7250 144c 10       		.sleb128 16
 7251 144d 0C       		.uleb128 0xc
 7252 144e 5C250000 		.4byte	.LASF564
 7253 1452 11       		.sleb128 17
 7254 1453 0C       		.uleb128 0xc
 7255 1454 97380000 		.4byte	.LASF565
 7256 1458 12       		.sleb128 18
 7257 1459 17       		.uleb128 0x17
 7258 145a 5F415400 		.ascii	"_AT\000"
 7259 145e 13       		.sleb128 19
 7260 145f 0C       		.uleb128 0xc
 7261 1460 A1170000 		.4byte	.LASF566
 7262 1464 14       		.sleb128 20
 7263 1465 0C       		.uleb128 0xc
 7264 1466 F6310000 		.4byte	.LASF567
 7265 146a 15       		.sleb128 21
 7266 146b 0C       		.uleb128 0xc
 7267 146c 72050000 		.4byte	.LASF568
ARM GAS  C:\Users\Helon\AppData\Local\Temp\ccTLkFeM.s 			page 188


 7268 1470 16       		.sleb128 22
 7269 1471 0C       		.uleb128 0xc
 7270 1472 D2000000 		.4byte	.LASF569
 7271 1476 17       		.sleb128 23
 7272 1477 0C       		.uleb128 0xc
 7273 1478 5E3A0000 		.4byte	.LASF570
 7274 147c 18       		.sleb128 24
 7275 147d 0C       		.uleb128 0xc
 7276 147e 4C2F0000 		.4byte	.LASF571
 7277 1482 19       		.sleb128 25
 7278 1483 00       		.byte	0
 7279 1484 13       		.uleb128 0x13
 7280 1485 25       		.byte	0x25
 7281 1486 0F       		.byte	0xf
 7282 1487 B6       		.byte	0xb6
 7283 1488 BD140000 		.4byte	0x14bd
 7284 148c 14       		.uleb128 0x14
 7285 148d 0F470000 		.4byte	.LASF572
 7286 1491 0F       		.byte	0xf
 7287 1492 B9       		.byte	0xb9
 7288 1493 BD140000 		.4byte	0x14bd
 7289 1497 00       		.byte	0
 7290 1498 14       		.uleb128 0x14
 7291 1499 52180000 		.4byte	.LASF573
 7292 149d 0F       		.byte	0xf
 7293 149e BA       		.byte	0xba
 7294 149f BD140000 		.4byte	0x14bd
 7295 14a3 04       		.byte	0x4
 7296 14a4 14       		.uleb128 0x14
 7297 14a5 261C0000 		.4byte	.LASF574
 7298 14a9 0F       		.byte	0xf
 7299 14aa BC       		.byte	0xbc
 7300 14ab B4000000 		.4byte	0xb4
 7301 14af 08       		.byte	0x8
 7302 14b0 14       		.uleb128 0x14
 7303 14b1 F32B0000 		.4byte	.LASF575
 7304 14b5 0F       		.byte	0xf
 7305 14b6 BE       		.byte	0xbe
 7306 14b7 7F060000 		.4byte	0x67f
 7307 14bb 09       		.byte	0x9
 7308 14bc 00       		.byte	0
 7309 14bd 10       		.uleb128 0x10
 7310 14be B4000000 		.4byte	0xb4
 7311 14c2 CD140000 		.4byte	0x14cd
 7312 14c6 11       		.uleb128 0x11
 7313 14c7 59010000 		.4byte	0x159
 7314 14cb 03       		.byte	0x3
 7315 14cc 00       		.byte	0
 7316 14cd 04       		.uleb128 0x4
 7317 14ce 82180000 		.4byte	.LASF576
 7318 14d2 0F       		.byte	0xf
 7319 14d3 BF       		.byte	0xbf
 7320 14d4 84140000 		.4byte	0x1484
 7321 14d8 13       		.uleb128 0x13
 7322 14d9 1E       		.byte	0x1e
 7323 14da 10       		.byte	0x10
 7324 14db 25       		.byte	0x25
ARM GAS  C:\Users\Helon\AppData\Local\Temp\ccTLkFeM.s 			page 189


 7325 14dc 1D150000 		.4byte	0x151d
 7326 14e0 14       		.uleb128 0x14
 7327 14e1 7E420000 		.4byte	.LASF577
 7328 14e5 10       		.byte	0x10
 7329 14e6 27       		.byte	0x27
 7330 14e7 0F050000 		.4byte	0x50f
 7331 14eb 00       		.byte	0
 7332 14ec 18       		.uleb128 0x18
 7333 14ed 69647800 		.ascii	"idx\000"
 7334 14f1 10       		.byte	0x10
 7335 14f2 28       		.byte	0x28
 7336 14f3 B4000000 		.4byte	0xb4
 7337 14f7 07       		.byte	0x7
 7338 14f8 14       		.uleb128 0x14
 7339 14f9 46450000 		.4byte	.LASF217
 7340 14fd 10       		.byte	0x10
 7341 14fe 29       		.byte	0x29
 7342 14ff A9000000 		.4byte	0xa9
 7343 1503 08       		.byte	0x8
 7344 1504 14       		.uleb128 0x14
 7345 1505 5A090000 		.4byte	.LASF578
 7346 1509 10       		.byte	0x10
 7347 150a 2A       		.byte	0x2a
 7348 150b 1D150000 		.4byte	0x151d
 7349 150f 09       		.byte	0x9
 7350 1510 14       		.uleb128 0x14
 7351 1511 2A060000 		.4byte	.LASF579
 7352 1515 10       		.byte	0x10
 7353 1516 2C       		.byte	0x2c
 7354 1517 B4000000 		.4byte	0xb4
 7355 151b 1D       		.byte	0x1d
 7356 151c 00       		.byte	0
 7357 151d 10       		.uleb128 0x10
 7358 151e A9000000 		.4byte	0xa9
 7359 1522 2D150000 		.4byte	0x152d
 7360 1526 11       		.uleb128 0x11
 7361 1527 59010000 		.4byte	0x159
 7362 152b 13       		.byte	0x13
 7363 152c 00       		.byte	0
 7364 152d 04       		.uleb128 0x4
 7365 152e A8210000 		.4byte	.LASF580
 7366 1532 10       		.byte	0x10
 7367 1533 2D       		.byte	0x2d
 7368 1534 D8140000 		.4byte	0x14d8
 7369 1538 19       		.uleb128 0x19
 7370 1539 AE1A0000 		.4byte	.LASF585
 7371 153d 01       		.byte	0x1
 7372 153e 3106     		.2byte	0x631
 7373 1540 01       		.byte	0x1
 7374 1541 52150000 		.4byte	0x1552
 7375 1545 1A       		.uleb128 0x1a
 7376 1546 6D1C0000 		.4byte	.LASF581
 7377 154a 01       		.byte	0x1
 7378 154b 3506     		.2byte	0x635
 7379 154d F6000000 		.4byte	0xf6
 7380 1551 00       		.byte	0
 7381 1552 1B       		.uleb128 0x1b
ARM GAS  C:\Users\Helon\AppData\Local\Temp\ccTLkFeM.s 			page 190


 7382 1553 35100000 		.4byte	.LASF678
 7383 1557 01       		.byte	0x1
 7384 1558 F805     		.2byte	0x5f8
 7385 155a B4000000 		.4byte	0xb4
 7386 155e 01       		.byte	0x1
 7387 155f 9E150000 		.4byte	0x159e
 7388 1563 1C       		.uleb128 0x1c
 7389 1564 1F060000 		.4byte	.LASF587
 7390 1568 01       		.byte	0x1
 7391 1569 F805     		.2byte	0x5f8
 7392 156b 68010000 		.4byte	0x168
 7393 156f 1A       		.uleb128 0x1a
 7394 1570 14430000 		.4byte	.LASF582
 7395 1574 01       		.byte	0x1
 7396 1575 FC05     		.2byte	0x5fc
 7397 1577 B4000000 		.4byte	0xb4
 7398 157b 1D       		.uleb128 0x1d
 7399 157c 6900     		.ascii	"i\000"
 7400 157e 01       		.byte	0x1
 7401 157f FC05     		.2byte	0x5fc
 7402 1581 B4000000 		.4byte	0xb4
 7403 1585 1A       		.uleb128 0x1a
 7404 1586 BA210000 		.4byte	.LASF583
 7405 158a 01       		.byte	0x1
 7406 158b FC05     		.2byte	0x5fc
 7407 158d B4000000 		.4byte	0xb4
 7408 1591 1A       		.uleb128 0x1a
 7409 1592 6F2B0000 		.4byte	.LASF584
 7410 1596 01       		.byte	0x1
 7411 1597 0606     		.2byte	0x606
 7412 1599 62010000 		.4byte	0x162
 7413 159d 00       		.byte	0
 7414 159e 19       		.uleb128 0x19
 7415 159f 672C0000 		.4byte	.LASF586
 7416 15a3 01       		.byte	0x1
 7417 15a4 7607     		.2byte	0x776
 7418 15a6 01       		.byte	0x1
 7419 15a7 CE150000 		.4byte	0x15ce
 7420 15ab 1E       		.uleb128 0x1e
 7421 15ac 69647800 		.ascii	"idx\000"
 7422 15b0 01       		.byte	0x1
 7423 15b1 7607     		.2byte	0x776
 7424 15b3 B4000000 		.4byte	0xb4
 7425 15b7 1A       		.uleb128 0x1a
 7426 15b8 ED3A0000 		.4byte	.LASF588
 7427 15bc 01       		.byte	0x1
 7428 15bd 7807     		.2byte	0x778
 7429 15bf AF030000 		.4byte	0x3af
 7430 15c3 1D       		.uleb128 0x1d
 7431 15c4 6900     		.ascii	"i\000"
 7432 15c6 01       		.byte	0x1
 7433 15c7 7907     		.2byte	0x779
 7434 15c9 B4000000 		.4byte	0xb4
 7435 15cd 00       		.byte	0
 7436 15ce 19       		.uleb128 0x19
 7437 15cf 0A3A0000 		.4byte	.LASF589
 7438 15d3 01       		.byte	0x1
ARM GAS  C:\Users\Helon\AppData\Local\Temp\ccTLkFeM.s 			page 191


 7439 15d4 8402     		.2byte	0x284
 7440 15d6 01       		.byte	0x1
 7441 15d7 E8150000 		.4byte	0x15e8
 7442 15db 1C       		.uleb128 0x1c
 7443 15dc 4A330000 		.4byte	.LASF590
 7444 15e0 01       		.byte	0x1
 7445 15e1 8402     		.2byte	0x284
 7446 15e3 D5000000 		.4byte	0xd5
 7447 15e7 00       		.byte	0
 7448 15e8 19       		.uleb128 0x19
 7449 15e9 25430000 		.4byte	.LASF591
 7450 15ed 01       		.byte	0x1
 7451 15ee AD02     		.2byte	0x2ad
 7452 15f0 01       		.byte	0x1
 7453 15f1 CC160000 		.4byte	0x16cc
 7454 15f5 1C       		.uleb128 0x1c
 7455 15f6 1F060000 		.4byte	.LASF587
 7456 15fa 01       		.byte	0x1
 7457 15fb AD02     		.2byte	0x2ad
 7458 15fd 68010000 		.4byte	0x168
 7459 1601 1A       		.uleb128 0x1a
 7460 1602 05440000 		.4byte	.LASF592
 7461 1606 01       		.byte	0x1
 7462 1607 B102     		.2byte	0x2b1
 7463 1609 B4000000 		.4byte	0xb4
 7464 160d 1D       		.uleb128 0x1d
 7465 160e 6900     		.ascii	"i\000"
 7466 1610 01       		.byte	0x1
 7467 1611 B102     		.2byte	0x2b1
 7468 1613 B4000000 		.4byte	0xb4
 7469 1617 1D       		.uleb128 0x1d
 7470 1618 69647800 		.ascii	"idx\000"
 7471 161c 01       		.byte	0x1
 7472 161d B202     		.2byte	0x2b2
 7473 161f B4000000 		.4byte	0xb4
 7474 1623 1A       		.uleb128 0x1a
 7475 1624 61250000 		.4byte	.LASF593
 7476 1628 01       		.byte	0x1
 7477 1629 B302     		.2byte	0x2b3
 7478 162b BF000000 		.4byte	0xbf
 7479 162f 1A       		.uleb128 0x1a
 7480 1630 DF010000 		.4byte	.LASF594
 7481 1634 01       		.byte	0x1
 7482 1635 B302     		.2byte	0x2b3
 7483 1637 BF000000 		.4byte	0xbf
 7484 163b 1A       		.uleb128 0x1a
 7485 163c 881A0000 		.4byte	.LASF595
 7486 1640 01       		.byte	0x1
 7487 1641 B402     		.2byte	0x2b4
 7488 1643 CC160000 		.4byte	0x16cc
 7489 1647 1A       		.uleb128 0x1a
 7490 1648 6E370000 		.4byte	.LASF596
 7491 164c 01       		.byte	0x1
 7492 164d B502     		.2byte	0x2b5
 7493 164f DC160000 		.4byte	0x16dc
 7494 1653 1A       		.uleb128 0x1a
 7495 1654 7D030000 		.4byte	.LASF597
ARM GAS  C:\Users\Helon\AppData\Local\Temp\ccTLkFeM.s 			page 192


 7496 1658 01       		.byte	0x1
 7497 1659 B602     		.2byte	0x2b6
 7498 165b EC160000 		.4byte	0x16ec
 7499 165f 1A       		.uleb128 0x1a
 7500 1660 7D410000 		.4byte	.LASF598
 7501 1664 01       		.byte	0x1
 7502 1665 B702     		.2byte	0x2b7
 7503 1667 FC160000 		.4byte	0x16fc
 7504 166b 1A       		.uleb128 0x1a
 7505 166c AA1E0000 		.4byte	.LASF599
 7506 1670 01       		.byte	0x1
 7507 1671 B802     		.2byte	0x2b8
 7508 1673 1E010000 		.4byte	0x11e
 7509 1677 1A       		.uleb128 0x1a
 7510 1678 7A1E0000 		.4byte	.LASF600
 7511 167c 01       		.byte	0x1
 7512 167d B902     		.2byte	0x2b9
 7513 167f FC160000 		.4byte	0x16fc
 7514 1683 1A       		.uleb128 0x1a
 7515 1684 5E2E0000 		.4byte	.LASF601
 7516 1688 01       		.byte	0x1
 7517 1689 BA02     		.2byte	0x2ba
 7518 168b 1E010000 		.4byte	0x11e
 7519 168f 1A       		.uleb128 0x1a
 7520 1690 C1110000 		.4byte	.LASF602
 7521 1694 01       		.byte	0x1
 7522 1695 BB02     		.2byte	0x2bb
 7523 1697 F6000000 		.4byte	0xf6
 7524 169b 1A       		.uleb128 0x1a
 7525 169c ED3A0000 		.4byte	.LASF588
 7526 16a0 01       		.byte	0x1
 7527 16a1 BE02     		.2byte	0x2be
 7528 16a3 AF030000 		.4byte	0x3af
 7529 16a7 1A       		.uleb128 0x1a
 7530 16a8 AD1D0000 		.4byte	.LASF603
 7531 16ac 01       		.byte	0x1
 7532 16ad BF02     		.2byte	0x2bf
 7533 16af B4000000 		.4byte	0xb4
 7534 16b3 1A       		.uleb128 0x1a
 7535 16b4 71010000 		.4byte	.LASF604
 7536 16b8 01       		.byte	0x1
 7537 16b9 C002     		.2byte	0x2c0
 7538 16bb 240A0000 		.4byte	0xa24
 7539 16bf 1A       		.uleb128 0x1a
 7540 16c0 1E230000 		.4byte	.LASF605
 7541 16c4 01       		.byte	0x1
 7542 16c5 C102     		.2byte	0x2c1
 7543 16c7 41070000 		.4byte	0x741
 7544 16cb 00       		.byte	0
 7545 16cc 10       		.uleb128 0x10
 7546 16cd 13010000 		.4byte	0x113
 7547 16d1 DC160000 		.4byte	0x16dc
 7548 16d5 11       		.uleb128 0x11
 7549 16d6 59010000 		.4byte	0x159
 7550 16da 1A       		.byte	0x1a
 7551 16db 00       		.byte	0
 7552 16dc 10       		.uleb128 0x10
ARM GAS  C:\Users\Helon\AppData\Local\Temp\ccTLkFeM.s 			page 193


 7553 16dd 1E010000 		.4byte	0x11e
 7554 16e1 EC160000 		.4byte	0x16ec
 7555 16e5 11       		.uleb128 0x11
 7556 16e6 59010000 		.4byte	0x159
 7557 16ea 1E       		.byte	0x1e
 7558 16eb 00       		.byte	0
 7559 16ec 10       		.uleb128 0x10
 7560 16ed 1E010000 		.4byte	0x11e
 7561 16f1 FC160000 		.4byte	0x16fc
 7562 16f5 11       		.uleb128 0x11
 7563 16f6 59010000 		.4byte	0x159
 7564 16fa 3D       		.byte	0x3d
 7565 16fb 00       		.byte	0
 7566 16fc 10       		.uleb128 0x10
 7567 16fd 1E010000 		.4byte	0x11e
 7568 1701 0C170000 		.4byte	0x170c
 7569 1705 11       		.uleb128 0x11
 7570 1706 59010000 		.4byte	0x159
 7571 170a 01       		.byte	0x1
 7572 170b 00       		.byte	0
 7573 170c 1F       		.uleb128 0x1f
 7574 170d E91A0000 		.4byte	.LASF612
 7575 1711 01       		.byte	0x1
 7576 1712 5F       		.byte	0x5f
 7577 1713 00000000 		.4byte	.LFB35
 7578 1717 C4020000 		.4byte	.LFE35-.LFB35
 7579 171b 01       		.uleb128 0x1
 7580 171c 9C       		.byte	0x9c
 7581 171d 20190000 		.4byte	0x1920
 7582 1721 20       		.uleb128 0x20
 7583 1722 29410000 		.4byte	.LASF606
 7584 1726 01       		.byte	0x1
 7585 1727 5F       		.byte	0x5f
 7586 1728 F6000000 		.4byte	0xf6
 7587 172c 00000000 		.4byte	.LLST0
 7588 1730 20       		.uleb128 0x20
 7589 1731 7C020000 		.4byte	.LASF607
 7590 1735 01       		.byte	0x1
 7591 1736 5F       		.byte	0x5f
 7592 1737 60010000 		.4byte	0x160
 7593 173b FC010000 		.4byte	.LLST1
 7594 173f 21       		.uleb128 0x21
 7595 1740 35350000 		.4byte	.LASF608
 7596 1744 01       		.byte	0x1
 7597 1745 61       		.byte	0x61
 7598 1746 44080000 		.4byte	0x844
 7599 174a 02       		.uleb128 0x2
 7600 174b 91       		.byte	0x91
 7601 174c 5C       		.sleb128 -36
 7602 174d 22       		.uleb128 0x22
 7603 174e 311A0000 		.4byte	.LASF609
 7604 1752 01       		.byte	0x1
 7605 1753 63       		.byte	0x63
 7606 1754 D50A0000 		.4byte	0xad5
 7607 1758 C1030000 		.4byte	.LLST2
 7608 175c 23       		.uleb128 0x23
 7609 175d 6900     		.ascii	"i\000"
ARM GAS  C:\Users\Helon\AppData\Local\Temp\ccTLkFeM.s 			page 194


 7610 175f 01       		.byte	0x1
 7611 1760 64       		.byte	0x64
 7612 1761 B4000000 		.4byte	0xb4
 7613 1765 EE030000 		.4byte	.LLST3
 7614 1769 22       		.uleb128 0x22
 7615 176a 76340000 		.4byte	.LASF610
 7616 176e 01       		.byte	0x1
 7617 176f 65       		.byte	0x65
 7618 1770 20190000 		.4byte	0x1920
 7619 1774 68040000 		.4byte	.LLST4
 7620 1778 22       		.uleb128 0x22
 7621 1779 DB280000 		.4byte	.LASF611
 7622 177d 01       		.byte	0x1
 7623 177e 66       		.byte	0x66
 7624 177f 190A0000 		.4byte	0xa19
 7625 1783 86040000 		.4byte	.LLST5
 7626 1787 24       		.uleb128 0x24
 7627 1788 28000000 		.4byte	.LVL2
 7628 178c 63300000 		.4byte	0x3063
 7629 1790 9E170000 		.4byte	0x179e
 7630 1794 25       		.uleb128 0x25
 7631 1795 01       		.uleb128 0x1
 7632 1796 50       		.byte	0x50
 7633 1797 05       		.uleb128 0x5
 7634 1798 03       		.byte	0x3
 7635 1799 00000000 		.4byte	.LC0
 7636 179d 00       		.byte	0
 7637 179e 24       		.uleb128 0x24
 7638 179f 48000000 		.4byte	.LVL6
 7639 17a3 7C300000 		.4byte	0x307c
 7640 17a7 B5170000 		.4byte	0x17b5
 7641 17ab 25       		.uleb128 0x25
 7642 17ac 01       		.uleb128 0x1
 7643 17ad 50       		.byte	0x50
 7644 17ae 05       		.uleb128 0x5
 7645 17af 03       		.byte	0x3
 7646 17b0 1F010000 		.4byte	.LC36
 7647 17b4 00       		.byte	0
 7648 17b5 26       		.uleb128 0x26
 7649 17b6 8A000000 		.4byte	.LVL11
 7650 17ba 92300000 		.4byte	0x3092
 7651 17be 24       		.uleb128 0x24
 7652 17bf A8000000 		.4byte	.LVL16
 7653 17c3 9E300000 		.4byte	0x309e
 7654 17c7 D2170000 		.4byte	0x17d2
 7655 17cb 25       		.uleb128 0x25
 7656 17cc 01       		.uleb128 0x1
 7657 17cd 50       		.byte	0x50
 7658 17ce 02       		.uleb128 0x2
 7659 17cf 91       		.byte	0x91
 7660 17d0 5C       		.sleb128 -36
 7661 17d1 00       		.byte	0
 7662 17d2 26       		.uleb128 0x26
 7663 17d3 C8000000 		.4byte	.LVL20
 7664 17d7 B5300000 		.4byte	0x30b5
 7665 17db 24       		.uleb128 0x24
 7666 17dc D4000000 		.4byte	.LVL23
ARM GAS  C:\Users\Helon\AppData\Local\Temp\ccTLkFeM.s 			page 195


 7667 17e0 BD300000 		.4byte	0x30bd
 7668 17e4 F7170000 		.4byte	0x17f7
 7669 17e8 25       		.uleb128 0x25
 7670 17e9 01       		.uleb128 0x1
 7671 17ea 52       		.byte	0x52
 7672 17eb 01       		.uleb128 0x1
 7673 17ec 38       		.byte	0x38
 7674 17ed 25       		.uleb128 0x25
 7675 17ee 01       		.uleb128 0x1
 7676 17ef 50       		.byte	0x50
 7677 17f0 05       		.uleb128 0x5
 7678 17f1 03       		.byte	0x3
 7679 17f2 00000000 		.4byte	ConnParam
 7680 17f6 00       		.byte	0
 7681 17f7 24       		.uleb128 0x24
 7682 17f8 E6000000 		.4byte	.LVL25
 7683 17fc 63300000 		.4byte	0x3063
 7684 1800 0E180000 		.4byte	0x180e
 7685 1804 25       		.uleb128 0x25
 7686 1805 01       		.uleb128 0x1
 7687 1806 50       		.byte	0x50
 7688 1807 05       		.uleb128 0x5
 7689 1808 03       		.byte	0x3
 7690 1809 25000000 		.4byte	.LC8
 7691 180d 00       		.byte	0
 7692 180e 24       		.uleb128 0x24
 7693 180f EE000000 		.4byte	.LVL26
 7694 1813 E1300000 		.4byte	0x30e1
 7695 1817 22180000 		.4byte	0x1822
 7696 181b 25       		.uleb128 0x25
 7697 181c 01       		.uleb128 0x1
 7698 181d 51       		.byte	0x51
 7699 181e 02       		.uleb128 0x2
 7700 181f 75       		.byte	0x75
 7701 1820 00       		.sleb128 0
 7702 1821 00       		.byte	0
 7703 1822 24       		.uleb128 0x24
 7704 1823 F8000000 		.4byte	.LVL27
 7705 1827 7C300000 		.4byte	0x307c
 7706 182b 39180000 		.4byte	0x1839
 7707 182f 25       		.uleb128 0x25
 7708 1830 01       		.uleb128 0x1
 7709 1831 50       		.byte	0x50
 7710 1832 05       		.uleb128 0x5
 7711 1833 03       		.byte	0x3
 7712 1834 33000000 		.4byte	.LC12
 7713 1838 00       		.byte	0
 7714 1839 24       		.uleb128 0x24
 7715 183a 00010000 		.4byte	.LVL28
 7716 183e 02310000 		.4byte	0x3102
 7717 1842 4D180000 		.4byte	0x184d
 7718 1846 25       		.uleb128 0x25
 7719 1847 01       		.uleb128 0x1
 7720 1848 51       		.byte	0x51
 7721 1849 02       		.uleb128 0x2
 7722 184a 75       		.byte	0x75
 7723 184b 00       		.sleb128 0
ARM GAS  C:\Users\Helon\AppData\Local\Temp\ccTLkFeM.s 			page 196


 7724 184c 00       		.byte	0
 7725 184d 24       		.uleb128 0x24
 7726 184e 0E010000 		.4byte	.LVL29
 7727 1852 1D310000 		.4byte	0x311d
 7728 1856 61180000 		.4byte	0x1861
 7729 185a 25       		.uleb128 0x25
 7730 185b 01       		.uleb128 0x1
 7731 185c 51       		.byte	0x51
 7732 185d 02       		.uleb128 0x2
 7733 185e 08       		.byte	0x8
 7734 185f 33       		.byte	0x33
 7735 1860 00       		.byte	0
 7736 1861 24       		.uleb128 0x24
 7737 1862 18010000 		.4byte	.LVL32
 7738 1866 BD300000 		.4byte	0x30bd
 7739 186a 7D180000 		.4byte	0x187d
 7740 186e 25       		.uleb128 0x25
 7741 186f 01       		.uleb128 0x1
 7742 1870 52       		.byte	0x52
 7743 1871 01       		.uleb128 0x1
 7744 1872 38       		.byte	0x38
 7745 1873 25       		.uleb128 0x25
 7746 1874 01       		.uleb128 0x1
 7747 1875 50       		.byte	0x50
 7748 1876 05       		.uleb128 0x5
 7749 1877 03       		.byte	0x3
 7750 1878 00000000 		.4byte	ConnParam
 7751 187c 00       		.byte	0
 7752 187d 24       		.uleb128 0x24
 7753 187e 2C010000 		.4byte	.LVL36
 7754 1882 38310000 		.4byte	0x3138
 7755 1886 91180000 		.4byte	0x1891
 7756 188a 25       		.uleb128 0x25
 7757 188b 01       		.uleb128 0x1
 7758 188c 51       		.byte	0x51
 7759 188d 02       		.uleb128 0x2
 7760 188e 08       		.byte	0x8
 7761 188f 33       		.byte	0x33
 7762 1890 00       		.byte	0
 7763 1891 24       		.uleb128 0x24
 7764 1892 64010000 		.4byte	.LVL40
 7765 1896 7C300000 		.4byte	0x307c
 7766 189a A8180000 		.4byte	0x18a8
 7767 189e 25       		.uleb128 0x25
 7768 189f 01       		.uleb128 0x1
 7769 18a0 50       		.byte	0x50
 7770 18a1 05       		.uleb128 0x5
 7771 18a2 03       		.byte	0x3
 7772 18a3 67000000 		.4byte	.LC19
 7773 18a7 00       		.byte	0
 7774 18a8 24       		.uleb128 0x24
 7775 18a9 6E010000 		.4byte	.LVL44
 7776 18ad 7C300000 		.4byte	0x307c
 7777 18b1 BF180000 		.4byte	0x18bf
 7778 18b5 25       		.uleb128 0x25
 7779 18b6 01       		.uleb128 0x1
 7780 18b7 50       		.byte	0x50
ARM GAS  C:\Users\Helon\AppData\Local\Temp\ccTLkFeM.s 			page 197


 7781 18b8 05       		.uleb128 0x5
 7782 18b9 03       		.byte	0x3
 7783 18ba 7F000000 		.4byte	.LC21
 7784 18be 00       		.byte	0
 7785 18bf 26       		.uleb128 0x26
 7786 18c0 72010000 		.4byte	.LVL45
 7787 18c4 92300000 		.4byte	0x3092
 7788 18c8 26       		.uleb128 0x26
 7789 18c9 AA010000 		.4byte	.LVL52
 7790 18cd 53310000 		.4byte	0x3153
 7791 18d1 26       		.uleb128 0x26
 7792 18d2 06020000 		.4byte	.LVL66
 7793 18d6 53310000 		.4byte	0x3153
 7794 18da 24       		.uleb128 0x24
 7795 18db 28020000 		.4byte	.LVL72
 7796 18df 7C300000 		.4byte	0x307c
 7797 18e3 F1180000 		.4byte	0x18f1
 7798 18e7 25       		.uleb128 0x25
 7799 18e8 01       		.uleb128 0x1
 7800 18e9 50       		.byte	0x50
 7801 18ea 05       		.uleb128 0x5
 7802 18eb 03       		.byte	0x3
 7803 18ec CA000000 		.4byte	.LC27
 7804 18f0 00       		.byte	0
 7805 18f1 26       		.uleb128 0x26
 7806 18f2 3E020000 		.4byte	.LVL77
 7807 18f6 65310000 		.4byte	0x3165
 7808 18fa 26       		.uleb128 0x26
 7809 18fb 48020000 		.4byte	.LVL81
 7810 18ff 7C300000 		.4byte	0x307c
 7811 1903 26       		.uleb128 0x26
 7812 1904 56020000 		.4byte	.LVL85
 7813 1908 63300000 		.4byte	0x3063
 7814 190c 27       		.uleb128 0x27
 7815 190d 5E020000 		.4byte	.LVL88
 7816 1911 63300000 		.4byte	0x3063
 7817 1915 25       		.uleb128 0x25
 7818 1916 01       		.uleb128 0x1
 7819 1917 50       		.byte	0x50
 7820 1918 05       		.uleb128 0x5
 7821 1919 03       		.byte	0x3
 7822 191a 15010000 		.4byte	.LC34
 7823 191e 00       		.byte	0
 7824 191f 00       		.byte	0
 7825 1920 07       		.uleb128 0x7
 7826 1921 04       		.byte	0x4
 7827 1922 710A0000 		.4byte	0xa71
 7828 1926 28       		.uleb128 0x28
 7829 1927 38150000 		.4byte	0x1538
 7830 192b 00000000 		.4byte	.LFB45
 7831 192f 38000000 		.4byte	.LFE45-.LFB45
 7832 1933 01       		.uleb128 0x1
 7833 1934 9C       		.byte	0x9c
 7834 1935 89190000 		.4byte	0x1989
 7835 1939 29       		.uleb128 0x29
 7836 193a 45150000 		.4byte	0x1545
 7837 193e 05       		.uleb128 0x5
ARM GAS  C:\Users\Helon\AppData\Local\Temp\ccTLkFeM.s 			page 198


 7838 193f 03       		.byte	0x3
 7839 1940 14000000 		.4byte	timercount.7915
 7840 1944 2A       		.uleb128 0x2a
 7841 1945 1A000000 		.4byte	.LBB27
 7842 1949 10000000 		.4byte	.LBE27-.LBB27
 7843 194d 79190000 		.4byte	0x1979
 7844 1951 29       		.uleb128 0x29
 7845 1952 45150000 		.4byte	0x1545
 7846 1956 05       		.uleb128 0x5
 7847 1957 03       		.byte	0x3
 7848 1958 14000000 		.4byte	timercount.7915
 7849 195c 26       		.uleb128 0x26
 7850 195d 22000000 		.4byte	.LVL91
 7851 1961 86310000 		.4byte	0x3186
 7852 1965 27       		.uleb128 0x27
 7853 1966 2A000000 		.4byte	.LVL92
 7854 196a 63300000 		.4byte	0x3063
 7855 196e 25       		.uleb128 0x25
 7856 196f 01       		.uleb128 0x1
 7857 1970 50       		.byte	0x50
 7858 1971 05       		.uleb128 0x5
 7859 1972 03       		.byte	0x3
 7860 1973 2B010000 		.4byte	.LC42
 7861 1977 00       		.byte	0
 7862 1978 00       		.byte	0
 7863 1979 27       		.uleb128 0x27
 7864 197a 08000000 		.4byte	.LVL90
 7865 197e 8E310000 		.4byte	0x318e
 7866 1982 25       		.uleb128 0x25
 7867 1983 01       		.uleb128 0x1
 7868 1984 50       		.byte	0x50
 7869 1985 01       		.uleb128 0x1
 7870 1986 31       		.byte	0x31
 7871 1987 00       		.byte	0
 7872 1988 00       		.byte	0
 7873 1989 2B       		.uleb128 0x2b
 7874 198a 10020000 		.4byte	.LASF613
 7875 198e 01       		.byte	0x1
 7876 198f B701     		.2byte	0x1b7
 7877 1991 00000000 		.4byte	.LFB36
 7878 1995 78000000 		.4byte	.LFE36-.LFB36
 7879 1999 01       		.uleb128 0x1
 7880 199a 9C       		.byte	0x9c
 7881 199b 5E1A0000 		.4byte	0x1a5e
 7882 199f 2C       		.uleb128 0x2c
 7883 19a0 24210000 		.4byte	.LASF614
 7884 19a4 01       		.byte	0x1
 7885 19a5 BA01     		.2byte	0x1ba
 7886 19a7 E4030000 		.4byte	0x3e4
 7887 19ab 19050000 		.4byte	.LLST6
 7888 19af 2C       		.uleb128 0x2c
 7889 19b0 03180000 		.4byte	.LASF615
 7890 19b4 01       		.byte	0x1
 7891 19b5 BB01     		.2byte	0x1bb
 7892 19b7 2B040000 		.4byte	0x42b
 7893 19bb 37050000 		.4byte	.LLST7
 7894 19bf 24       		.uleb128 0x24
ARM GAS  C:\Users\Helon\AppData\Local\Temp\ccTLkFeM.s 			page 199


 7895 19c0 08000000 		.4byte	.LVL93
 7896 19c4 A0310000 		.4byte	0x31a0
 7897 19c8 D2190000 		.4byte	0x19d2
 7898 19cc 25       		.uleb128 0x25
 7899 19cd 01       		.uleb128 0x1
 7900 19ce 50       		.byte	0x50
 7901 19cf 01       		.uleb128 0x1
 7902 19d0 33       		.byte	0x33
 7903 19d1 00       		.byte	0
 7904 19d2 26       		.uleb128 0x26
 7905 19d3 10000000 		.4byte	.LVL95
 7906 19d7 B6310000 		.4byte	0x31b6
 7907 19db 24       		.uleb128 0x24
 7908 19dc 22000000 		.4byte	.LVL97
 7909 19e0 C2310000 		.4byte	0x31c2
 7910 19e4 EE190000 		.4byte	0x19ee
 7911 19e8 25       		.uleb128 0x25
 7912 19e9 01       		.uleb128 0x1
 7913 19ea 50       		.byte	0x50
 7914 19eb 01       		.uleb128 0x1
 7915 19ec 30       		.byte	0x30
 7916 19ed 00       		.byte	0
 7917 19ee 26       		.uleb128 0x26
 7918 19ef 28000000 		.4byte	.LVL98
 7919 19f3 92300000 		.4byte	0x3092
 7920 19f7 26       		.uleb128 0x26
 7921 19f8 3A000000 		.4byte	.LVL99
 7922 19fc D3310000 		.4byte	0x31d3
 7923 1a00 26       		.uleb128 0x26
 7924 1a01 3E000000 		.4byte	.LVL100
 7925 1a05 DA310000 		.4byte	0x31da
 7926 1a09 26       		.uleb128 0x26
 7927 1a0a 42000000 		.4byte	.LVL101
 7928 1a0e E1310000 		.4byte	0x31e1
 7929 1a12 24       		.uleb128 0x24
 7930 1a13 48000000 		.4byte	.LVL102
 7931 1a17 E8310000 		.4byte	0x31e8
 7932 1a1b 251A0000 		.4byte	0x1a25
 7933 1a1f 25       		.uleb128 0x25
 7934 1a20 01       		.uleb128 0x1
 7935 1a21 50       		.byte	0x50
 7936 1a22 01       		.uleb128 0x1
 7937 1a23 35       		.byte	0x35
 7938 1a24 00       		.byte	0
 7939 1a25 26       		.uleb128 0x26
 7940 1a26 4C000000 		.4byte	.LVL103
 7941 1a2a F9310000 		.4byte	0x31f9
 7942 1a2e 26       		.uleb128 0x26
 7943 1a2f 50000000 		.4byte	.LVL104
 7944 1a33 01320000 		.4byte	0x3201
 7945 1a37 26       		.uleb128 0x26
 7946 1a38 54000000 		.4byte	.LVL105
 7947 1a3c 08320000 		.4byte	0x3208
 7948 1a40 24       		.uleb128 0x24
 7949 1a41 5E000000 		.4byte	.LVL106
 7950 1a45 C2310000 		.4byte	0x31c2
 7951 1a49 541A0000 		.4byte	0x1a54
ARM GAS  C:\Users\Helon\AppData\Local\Temp\ccTLkFeM.s 			page 200


 7952 1a4d 25       		.uleb128 0x25
 7953 1a4e 01       		.uleb128 0x1
 7954 1a4f 50       		.byte	0x50
 7955 1a50 02       		.uleb128 0x2
 7956 1a51 75       		.byte	0x75
 7957 1a52 00       		.sleb128 0
 7958 1a53 00       		.byte	0
 7959 1a54 26       		.uleb128 0x26
 7960 1a55 6C000000 		.4byte	.LVL108
 7961 1a59 13320000 		.4byte	0x3213
 7962 1a5d 00       		.byte	0
 7963 1a5e 2D       		.uleb128 0x2d
 7964 1a5f 401F0000 		.4byte	.LASF616
 7965 1a63 01       		.byte	0x1
 7966 1a64 F801     		.2byte	0x1f8
 7967 1a66 00000000 		.4byte	.LFB37
 7968 1a6a 02000000 		.4byte	.LFE37-.LFB37
 7969 1a6e 01       		.uleb128 0x1
 7970 1a6f 9C       		.byte	0x9c
 7971 1a70 2D       		.uleb128 0x2d
 7972 1a71 233B0000 		.4byte	.LASF617
 7973 1a75 01       		.byte	0x1
 7974 1a76 1002     		.2byte	0x210
 7975 1a78 00000000 		.4byte	.LFB38
 7976 1a7c 24000000 		.4byte	.LFE38-.LFB38
 7977 1a80 01       		.uleb128 0x1
 7978 1a81 9C       		.byte	0x9c
 7979 1a82 2D       		.uleb128 0x2d
 7980 1a83 9A420000 		.4byte	.LASF618
 7981 1a87 01       		.byte	0x1
 7982 1a88 5D02     		.2byte	0x25d
 7983 1a8a 00000000 		.4byte	.LFB40
 7984 1a8e 02000000 		.4byte	.LFE40-.LFB40
 7985 1a92 01       		.uleb128 0x1
 7986 1a93 9C       		.byte	0x9c
 7987 1a94 28       		.uleb128 0x28
 7988 1a95 CE150000 		.4byte	0x15ce
 7989 1a99 00000000 		.4byte	.LFB41
 7990 1a9d 02000000 		.4byte	.LFE41-.LFB41
 7991 1aa1 01       		.uleb128 0x1
 7992 1aa2 9C       		.byte	0x9c
 7993 1aa3 AF1A0000 		.4byte	0x1aaf
 7994 1aa7 2E       		.uleb128 0x2e
 7995 1aa8 DB150000 		.4byte	0x15db
 7996 1aac 01       		.uleb128 0x1
 7997 1aad 50       		.byte	0x50
 7998 1aae 00       		.byte	0
 7999 1aaf 2B       		.uleb128 0x2b
 8000 1ab0 E01F0000 		.4byte	.LASF619
 8001 1ab4 01       		.byte	0x1
 8002 1ab5 9B02     		.2byte	0x29b
 8003 1ab7 00000000 		.4byte	.LFB42
 8004 1abb 1C000000 		.4byte	.LFE42-.LFB42
 8005 1abf 01       		.uleb128 0x1
 8006 1ac0 9C       		.byte	0x9c
 8007 1ac1 0E1B0000 		.4byte	0x1b0e
 8008 1ac5 24       		.uleb128 0x24
ARM GAS  C:\Users\Helon\AppData\Local\Temp\ccTLkFeM.s 			page 201


 8009 1ac6 08000000 		.4byte	.LVL110
 8010 1aca 1A320000 		.4byte	0x321a
 8011 1ace D81A0000 		.4byte	0x1ad8
 8012 1ad2 25       		.uleb128 0x25
 8013 1ad3 01       		.uleb128 0x1
 8014 1ad4 50       		.byte	0x50
 8015 1ad5 01       		.uleb128 0x1
 8016 1ad6 36       		.byte	0x36
 8017 1ad7 00       		.byte	0
 8018 1ad8 24       		.uleb128 0x24
 8019 1ad9 0E000000 		.4byte	.LVL111
 8020 1add 2B320000 		.4byte	0x322b
 8021 1ae1 EB1A0000 		.4byte	0x1aeb
 8022 1ae5 25       		.uleb128 0x25
 8023 1ae6 01       		.uleb128 0x1
 8024 1ae7 50       		.byte	0x50
 8025 1ae8 01       		.uleb128 0x1
 8026 1ae9 36       		.byte	0x36
 8027 1aea 00       		.byte	0
 8028 1aeb 24       		.uleb128 0x24
 8029 1aec 14000000 		.4byte	.LVL112
 8030 1af0 C2310000 		.4byte	0x31c2
 8031 1af4 FE1A0000 		.4byte	0x1afe
 8032 1af8 25       		.uleb128 0x25
 8033 1af9 01       		.uleb128 0x1
 8034 1afa 50       		.byte	0x50
 8035 1afb 01       		.uleb128 0x1
 8036 1afc 31       		.byte	0x31
 8037 1afd 00       		.byte	0
 8038 1afe 27       		.uleb128 0x27
 8039 1aff 1A000000 		.4byte	.LVL113
 8040 1b03 3C320000 		.4byte	0x323c
 8041 1b07 25       		.uleb128 0x25
 8042 1b08 01       		.uleb128 0x1
 8043 1b09 50       		.byte	0x50
 8044 1b0a 01       		.uleb128 0x1
 8045 1b0b 31       		.byte	0x31
 8046 1b0c 00       		.byte	0
 8047 1b0d 00       		.byte	0
 8048 1b0e 2B       		.uleb128 0x2b
 8049 1b0f A5270000 		.4byte	.LASF620
 8050 1b13 01       		.byte	0x1
 8051 1b14 3502     		.2byte	0x235
 8052 1b16 00000000 		.4byte	.LFB39
 8053 1b1a 48000000 		.4byte	.LFE39-.LFB39
 8054 1b1e 01       		.uleb128 0x1
 8055 1b1f 9C       		.byte	0x9c
 8056 1b20 901B0000 		.4byte	0x1b90
 8057 1b24 24       		.uleb128 0x24
 8058 1b25 08000000 		.4byte	.LVL114
 8059 1b29 4D320000 		.4byte	0x324d
 8060 1b2d 371B0000 		.4byte	0x1b37
 8061 1b31 25       		.uleb128 0x25
 8062 1b32 01       		.uleb128 0x1
 8063 1b33 50       		.byte	0x50
 8064 1b34 01       		.uleb128 0x1
 8065 1b35 36       		.byte	0x36
ARM GAS  C:\Users\Helon\AppData\Local\Temp\ccTLkFeM.s 			page 202


 8066 1b36 00       		.byte	0
 8067 1b37 24       		.uleb128 0x24
 8068 1b38 0E000000 		.4byte	.LVL115
 8069 1b3c 5E320000 		.4byte	0x325e
 8070 1b40 4A1B0000 		.4byte	0x1b4a
 8071 1b44 25       		.uleb128 0x25
 8072 1b45 01       		.uleb128 0x1
 8073 1b46 50       		.byte	0x50
 8074 1b47 01       		.uleb128 0x1
 8075 1b48 31       		.byte	0x31
 8076 1b49 00       		.byte	0
 8077 1b4a 26       		.uleb128 0x26
 8078 1b4b 20000000 		.4byte	.LVL116
 8079 1b4f 6F320000 		.4byte	0x326f
 8080 1b53 24       		.uleb128 0x24
 8081 1b54 26000000 		.4byte	.LVL117
 8082 1b58 77320000 		.4byte	0x3277
 8083 1b5c 6A1B0000 		.4byte	0x1b6a
 8084 1b60 25       		.uleb128 0x25
 8085 1b61 01       		.uleb128 0x1
 8086 1b62 50       		.byte	0x50
 8087 1b63 05       		.uleb128 0x5
 8088 1b64 03       		.byte	0x3
 8089 1b65 00000000 		.4byte	MyTimerIsr
 8090 1b69 00       		.byte	0
 8091 1b6a 26       		.uleb128 0x26
 8092 1b6b 2A000000 		.4byte	.LVL118
 8093 1b6f 88320000 		.4byte	0x3288
 8094 1b73 26       		.uleb128 0x26
 8095 1b74 2E000000 		.4byte	.LVL119
 8096 1b78 AF1A0000 		.4byte	0x1aaf
 8097 1b7c 27       		.uleb128 0x27
 8098 1b7d 34000000 		.4byte	.LVL120
 8099 1b81 8F320000 		.4byte	0x328f
 8100 1b85 25       		.uleb128 0x25
 8101 1b86 01       		.uleb128 0x1
 8102 1b87 50       		.byte	0x50
 8103 1b88 05       		.uleb128 0x5
 8104 1b89 03       		.byte	0x3
 8105 1b8a 00000000 		.4byte	StackEventHandler
 8106 1b8e 00       		.byte	0
 8107 1b8f 00       		.byte	0
 8108 1b90 28       		.uleb128 0x28
 8109 1b91 52150000 		.4byte	0x1552
 8110 1b95 00000000 		.4byte	.LFB44
 8111 1b99 64000000 		.4byte	.LFE44-.LFB44
 8112 1b9d 01       		.uleb128 0x1
 8113 1b9e 9C       		.byte	0x9c
 8114 1b9f 9F1C0000 		.4byte	0x1c9f
 8115 1ba3 2F       		.uleb128 0x2f
 8116 1ba4 63150000 		.4byte	0x1563
 8117 1ba8 55050000 		.4byte	.LLST8
 8118 1bac 30       		.uleb128 0x30
 8119 1bad 6F150000 		.4byte	0x156f
 8120 1bb1 81050000 		.4byte	.LLST9
 8121 1bb5 30       		.uleb128 0x30
 8122 1bb6 7B150000 		.4byte	0x157b
ARM GAS  C:\Users\Helon\AppData\Local\Temp\ccTLkFeM.s 			page 203


 8123 1bba 81050000 		.4byte	.LLST9
 8124 1bbe 31       		.uleb128 0x31
 8125 1bbf 85150000 		.4byte	0x1585
 8126 1bc3 31       		.uleb128 0x31
 8127 1bc4 91150000 		.4byte	0x1591
 8128 1bc8 2A       		.uleb128 0x2a
 8129 1bc9 14000000 		.4byte	.LBB30
 8130 1bcd 44000000 		.4byte	.LBE30-.LBB30
 8131 1bd1 851C0000 		.4byte	0x1c85
 8132 1bd5 2F       		.uleb128 0x2f
 8133 1bd6 63150000 		.4byte	0x1563
 8134 1bda 95050000 		.4byte	.LLST11
 8135 1bde 32       		.uleb128 0x32
 8136 1bdf 14000000 		.4byte	.LBB31
 8137 1be3 44000000 		.4byte	.LBE31-.LBB31
 8138 1be7 30       		.uleb128 0x30
 8139 1be8 6F150000 		.4byte	0x156f
 8140 1bec B6050000 		.4byte	.LLST12
 8141 1bf0 30       		.uleb128 0x30
 8142 1bf1 7B150000 		.4byte	0x157b
 8143 1bf5 CA050000 		.4byte	.LLST13
 8144 1bf9 30       		.uleb128 0x30
 8145 1bfa 85150000 		.4byte	0x1585
 8146 1bfe F7050000 		.4byte	.LLST14
 8147 1c02 30       		.uleb128 0x30
 8148 1c03 91150000 		.4byte	0x1591
 8149 1c07 0F060000 		.4byte	.LLST15
 8150 1c0b 24       		.uleb128 0x24
 8151 1c0c 1C000000 		.4byte	.LVL125
 8152 1c10 A5320000 		.4byte	0x32a5
 8153 1c14 251C0000 		.4byte	0x1c25
 8154 1c18 25       		.uleb128 0x25
 8155 1c19 01       		.uleb128 0x1
 8156 1c1a 51       		.byte	0x51
 8157 1c1b 02       		.uleb128 0x2
 8158 1c1c 08       		.byte	0x8
 8159 1c1d 3D       		.byte	0x3d
 8160 1c1e 25       		.uleb128 0x25
 8161 1c1f 01       		.uleb128 0x1
 8162 1c20 50       		.byte	0x50
 8163 1c21 02       		.uleb128 0x2
 8164 1c22 74       		.byte	0x74
 8165 1c23 00       		.sleb128 0
 8166 1c24 00       		.byte	0
 8167 1c25 24       		.uleb128 0x24
 8168 1c26 26000000 		.4byte	.LVL127
 8169 1c2a BF320000 		.4byte	0x32bf
 8170 1c2e 391C0000 		.4byte	0x1c39
 8171 1c32 25       		.uleb128 0x25
 8172 1c33 01       		.uleb128 0x1
 8173 1c34 50       		.byte	0x50
 8174 1c35 02       		.uleb128 0x2
 8175 1c36 75       		.byte	0x75
 8176 1c37 00       		.sleb128 0
 8177 1c38 00       		.byte	0
 8178 1c39 24       		.uleb128 0x24
 8179 1c3a 32000000 		.4byte	.LVL129
ARM GAS  C:\Users\Helon\AppData\Local\Temp\ccTLkFeM.s 			page 204


 8180 1c3e D4320000 		.4byte	0x32d4
 8181 1c42 591C0000 		.4byte	0x1c59
 8182 1c46 25       		.uleb128 0x25
 8183 1c47 01       		.uleb128 0x1
 8184 1c48 52       		.byte	0x52
 8185 1c49 02       		.uleb128 0x2
 8186 1c4a 75       		.byte	0x75
 8187 1c4b 00       		.sleb128 0
 8188 1c4c 25       		.uleb128 0x25
 8189 1c4d 01       		.uleb128 0x1
 8190 1c4e 51       		.byte	0x51
 8191 1c4f 02       		.uleb128 0x2
 8192 1c50 74       		.byte	0x74
 8193 1c51 00       		.sleb128 0
 8194 1c52 25       		.uleb128 0x25
 8195 1c53 01       		.uleb128 0x1
 8196 1c54 50       		.byte	0x50
 8197 1c55 02       		.uleb128 0x2
 8198 1c56 76       		.byte	0x76
 8199 1c57 00       		.sleb128 0
 8200 1c58 00       		.byte	0
 8201 1c59 24       		.uleb128 0x24
 8202 1c5a 44000000 		.4byte	.LVL131
 8203 1c5e F3320000 		.4byte	0x32f3
 8204 1c62 731C0000 		.4byte	0x1c73
 8205 1c66 25       		.uleb128 0x25
 8206 1c67 01       		.uleb128 0x1
 8207 1c68 52       		.byte	0x52
 8208 1c69 02       		.uleb128 0x2
 8209 1c6a 75       		.byte	0x75
 8210 1c6b 00       		.sleb128 0
 8211 1c6c 25       		.uleb128 0x25
 8212 1c6d 01       		.uleb128 0x1
 8213 1c6e 50       		.byte	0x50
 8214 1c6f 02       		.uleb128 0x2
 8215 1c70 76       		.byte	0x76
 8216 1c71 00       		.sleb128 0
 8217 1c72 00       		.byte	0
 8218 1c73 27       		.uleb128 0x27
 8219 1c74 56000000 		.4byte	.LVL135
 8220 1c78 12330000 		.4byte	0x3312
 8221 1c7c 25       		.uleb128 0x25
 8222 1c7d 01       		.uleb128 0x1
 8223 1c7e 50       		.byte	0x50
 8224 1c7f 02       		.uleb128 0x2
 8225 1c80 76       		.byte	0x76
 8226 1c81 00       		.sleb128 0
 8227 1c82 00       		.byte	0
 8228 1c83 00       		.byte	0
 8229 1c84 00       		.byte	0
 8230 1c85 27       		.uleb128 0x27
 8231 1c86 0E000000 		.4byte	.LVL123
 8232 1c8a 23330000 		.4byte	0x3323
 8233 1c8e 25       		.uleb128 0x25
 8234 1c8f 01       		.uleb128 0x1
 8235 1c90 51       		.byte	0x51
 8236 1c91 05       		.uleb128 0x5
ARM GAS  C:\Users\Helon\AppData\Local\Temp\ccTLkFeM.s 			page 205


 8237 1c92 03       		.byte	0x3
 8238 1c93 3C010000 		.4byte	.LC52
 8239 1c97 25       		.uleb128 0x25
 8240 1c98 01       		.uleb128 0x1
 8241 1c99 50       		.byte	0x50
 8242 1c9a 02       		.uleb128 0x2
 8243 1c9b 74       		.byte	0x74
 8244 1c9c 00       		.sleb128 0
 8245 1c9d 00       		.byte	0
 8246 1c9e 00       		.byte	0
 8247 1c9f 2B       		.uleb128 0x2b
 8248 1ca0 B0380000 		.4byte	.LASF621
 8249 1ca4 01       		.byte	0x1
 8250 1ca5 6106     		.2byte	0x661
 8251 1ca7 00000000 		.4byte	.LFB46
 8252 1cab 34000000 		.4byte	.LFE46-.LFB46
 8253 1caf 01       		.uleb128 0x1
 8254 1cb0 9C       		.byte	0x9c
 8255 1cb1 1E1D0000 		.4byte	0x1d1e
 8256 1cb5 33       		.uleb128 0x33
 8257 1cb6 76616C00 		.ascii	"val\000"
 8258 1cba 01       		.byte	0x1
 8259 1cbb 6106     		.2byte	0x661
 8260 1cbd 1E1D0000 		.4byte	0x1d1e
 8261 1cc1 2D060000 		.4byte	.LLST16
 8262 1cc5 33       		.uleb128 0x33
 8263 1cc6 6C656E00 		.ascii	"len\000"
 8264 1cca 01       		.byte	0x1
 8265 1ccb 6106     		.2byte	0x661
 8266 1ccd CA000000 		.4byte	0xca
 8267 1cd1 5A060000 		.4byte	.LLST17
 8268 1cd5 34       		.uleb128 0x34
 8269 1cd6 ED3A0000 		.4byte	.LASF588
 8270 1cda 01       		.byte	0x1
 8271 1cdb 6506     		.2byte	0x665
 8272 1cdd AF030000 		.4byte	0x3af
 8273 1ce1 00       		.byte	0
 8274 1ce2 35       		.uleb128 0x35
 8275 1ce3 36220000 		.4byte	.LASF622
 8276 1ce7 01       		.byte	0x1
 8277 1ce8 6C06     		.2byte	0x66c
 8278 1cea ED090000 		.4byte	0x9ed
 8279 1cee 02       		.uleb128 0x2
 8280 1cef 91       		.byte	0x91
 8281 1cf0 6C       		.sleb128 -20
 8282 1cf1 24       		.uleb128 0x24
 8283 1cf2 1E000000 		.4byte	.LVL140
 8284 1cf6 3D330000 		.4byte	0x333d
 8285 1cfa 051D0000 		.4byte	0x1d05
 8286 1cfe 25       		.uleb128 0x25
 8287 1cff 01       		.uleb128 0x1
 8288 1d00 51       		.byte	0x51
 8289 1d01 02       		.uleb128 0x2
 8290 1d02 91       		.byte	0x91
 8291 1d03 6C       		.sleb128 -20
 8292 1d04 00       		.byte	0
 8293 1d05 27       		.uleb128 0x27
ARM GAS  C:\Users\Helon\AppData\Local\Temp\ccTLkFeM.s 			page 206


 8294 1d06 26000000 		.4byte	.LVL141
 8295 1d0a 7C300000 		.4byte	0x307c
 8296 1d0e 25       		.uleb128 0x25
 8297 1d0f 01       		.uleb128 0x1
 8298 1d10 51       		.byte	0x51
 8299 1d11 01       		.uleb128 0x1
 8300 1d12 30       		.byte	0x30
 8301 1d13 25       		.uleb128 0x25
 8302 1d14 01       		.uleb128 0x1
 8303 1d15 50       		.byte	0x50
 8304 1d16 05       		.uleb128 0x5
 8305 1d17 03       		.byte	0x3
 8306 1d18 41010000 		.4byte	.LC57
 8307 1d1c 00       		.byte	0
 8308 1d1d 00       		.byte	0
 8309 1d1e 07       		.uleb128 0x7
 8310 1d1f 04       		.byte	0x4
 8311 1d20 B4000000 		.4byte	0xb4
 8312 1d24 2B       		.uleb128 0x2b
 8313 1d25 1C260000 		.4byte	.LASF623
 8314 1d29 01       		.byte	0x1
 8315 1d2a 8406     		.2byte	0x684
 8316 1d2c 00000000 		.4byte	.LFB47
 8317 1d30 38000000 		.4byte	.LFE47-.LFB47
 8318 1d34 01       		.uleb128 0x1
 8319 1d35 9C       		.byte	0x9c
 8320 1d36 9A1D0000 		.4byte	0x1d9a
 8321 1d3a 33       		.uleb128 0x33
 8322 1d3b 76616C00 		.ascii	"val\000"
 8323 1d3f 01       		.byte	0x1
 8324 1d40 8406     		.2byte	0x684
 8325 1d42 1E1D0000 		.4byte	0x1d1e
 8326 1d46 7B060000 		.4byte	.LLST18
 8327 1d4a 33       		.uleb128 0x33
 8328 1d4b 6C656E00 		.ascii	"len\000"
 8329 1d4f 01       		.byte	0x1
 8330 1d50 8406     		.2byte	0x684
 8331 1d52 CA000000 		.4byte	0xca
 8332 1d56 9C060000 		.4byte	.LLST19
 8333 1d5a 2C       		.uleb128 0x2c
 8334 1d5b ED3A0000 		.4byte	.LASF588
 8335 1d5f 01       		.byte	0x1
 8336 1d60 8706     		.2byte	0x687
 8337 1d62 AF030000 		.4byte	0x3af
 8338 1d66 BD060000 		.4byte	.LLST20
 8339 1d6a 2C       		.uleb128 0x2c
 8340 1d6b EE390000 		.4byte	.LASF624
 8341 1d6f 01       		.byte	0x1
 8342 1d70 8806     		.2byte	0x688
 8343 1d72 51090000 		.4byte	0x951
 8344 1d76 DC060000 		.4byte	.LLST21
 8345 1d7a 35       		.uleb128 0x35
 8346 1d7b 0C130000 		.4byte	.LASF625
 8347 1d7f 01       		.byte	0x1
 8348 1d80 8E06     		.2byte	0x68e
 8349 1d82 450A0000 		.4byte	0xa45
 8350 1d86 02       		.uleb128 0x2
ARM GAS  C:\Users\Helon\AppData\Local\Temp\ccTLkFeM.s 			page 207


 8351 1d87 91       		.byte	0x91
 8352 1d88 6C       		.sleb128 -20
 8353 1d89 27       		.uleb128 0x27
 8354 1d8a 20000000 		.4byte	.LVL144
 8355 1d8e 5D330000 		.4byte	0x335d
 8356 1d92 25       		.uleb128 0x25
 8357 1d93 01       		.uleb128 0x1
 8358 1d94 51       		.byte	0x51
 8359 1d95 02       		.uleb128 0x2
 8360 1d96 74       		.byte	0x74
 8361 1d97 00       		.sleb128 0
 8362 1d98 00       		.byte	0
 8363 1d99 00       		.byte	0
 8364 1d9a 28       		.uleb128 0x28
 8365 1d9b 9E150000 		.4byte	0x159e
 8366 1d9f 00000000 		.4byte	.LFB49
 8367 1da3 44010000 		.4byte	.LFE49-.LFB49
 8368 1da7 01       		.uleb128 0x1
 8369 1da8 9C       		.byte	0x9c
 8370 1da9 8B1E0000 		.4byte	0x1e8b
 8371 1dad 2F       		.uleb128 0x2f
 8372 1dae AB150000 		.4byte	0x15ab
 8373 1db2 12070000 		.4byte	.LLST22
 8374 1db6 36       		.uleb128 0x36
 8375 1db7 B7150000 		.4byte	0x15b7
 8376 1dbb 00       		.byte	0
 8377 1dbc 36       		.uleb128 0x36
 8378 1dbd C3150000 		.4byte	0x15c3
 8379 1dc1 00       		.byte	0
 8380 1dc2 2A       		.uleb128 0x2a
 8381 1dc3 0E000000 		.4byte	.LBB34
 8382 1dc7 FC000000 		.4byte	.LBE34-.LBB34
 8383 1dcb 811E0000 		.4byte	0x1e81
 8384 1dcf 2F       		.uleb128 0x2f
 8385 1dd0 AB150000 		.4byte	0x15ab
 8386 1dd4 4C070000 		.4byte	.LLST23
 8387 1dd8 32       		.uleb128 0x32
 8388 1dd9 0E000000 		.4byte	.LBB35
 8389 1ddd FC000000 		.4byte	.LBE35-.LBB35
 8390 1de1 30       		.uleb128 0x30
 8391 1de2 B7150000 		.4byte	0x15b7
 8392 1de6 6D070000 		.4byte	.LLST24
 8393 1dea 30       		.uleb128 0x30
 8394 1deb C3150000 		.4byte	0x15c3
 8395 1def CD070000 		.4byte	.LLST25
 8396 1df3 24       		.uleb128 0x24
 8397 1df4 32000000 		.4byte	.LVL148
 8398 1df8 7E330000 		.4byte	0x337e
 8399 1dfc 071E0000 		.4byte	0x1e07
 8400 1e00 25       		.uleb128 0x25
 8401 1e01 01       		.uleb128 0x1
 8402 1e02 50       		.byte	0x50
 8403 1e03 02       		.uleb128 0x2
 8404 1e04 75       		.byte	0x75
 8405 1e05 00       		.sleb128 0
 8406 1e06 00       		.byte	0
 8407 1e07 24       		.uleb128 0x24
ARM GAS  C:\Users\Helon\AppData\Local\Temp\ccTLkFeM.s 			page 208


 8408 1e08 54000000 		.4byte	.LVL153
 8409 1e0c 7E330000 		.4byte	0x337e
 8410 1e10 1B1E0000 		.4byte	0x1e1b
 8411 1e14 25       		.uleb128 0x25
 8412 1e15 01       		.uleb128 0x1
 8413 1e16 50       		.byte	0x50
 8414 1e17 02       		.uleb128 0x2
 8415 1e18 75       		.byte	0x75
 8416 1e19 00       		.sleb128 0
 8417 1e1a 00       		.byte	0
 8418 1e1b 26       		.uleb128 0x26
 8419 1e1c 60000000 		.4byte	.LVL156
 8420 1e20 7C300000 		.4byte	0x307c
 8421 1e24 24       		.uleb128 0x24
 8422 1e25 7A000000 		.4byte	.LVL159
 8423 1e29 7E330000 		.4byte	0x337e
 8424 1e2d 381E0000 		.4byte	0x1e38
 8425 1e31 25       		.uleb128 0x25
 8426 1e32 01       		.uleb128 0x1
 8427 1e33 50       		.byte	0x50
 8428 1e34 02       		.uleb128 0x2
 8429 1e35 75       		.byte	0x75
 8430 1e36 00       		.sleb128 0
 8431 1e37 00       		.byte	0
 8432 1e38 24       		.uleb128 0x24
 8433 1e39 9C000000 		.4byte	.LVL164
 8434 1e3d 7E330000 		.4byte	0x337e
 8435 1e41 4C1E0000 		.4byte	0x1e4c
 8436 1e45 25       		.uleb128 0x25
 8437 1e46 01       		.uleb128 0x1
 8438 1e47 50       		.byte	0x50
 8439 1e48 02       		.uleb128 0x2
 8440 1e49 75       		.byte	0x75
 8441 1e4a 00       		.sleb128 0
 8442 1e4b 00       		.byte	0
 8443 1e4c 24       		.uleb128 0x24
 8444 1e4d C8000000 		.4byte	.LVL169
 8445 1e51 BD300000 		.4byte	0x30bd
 8446 1e55 651E0000 		.4byte	0x1e65
 8447 1e59 25       		.uleb128 0x25
 8448 1e5a 01       		.uleb128 0x1
 8449 1e5b 52       		.byte	0x52
 8450 1e5c 01       		.uleb128 0x1
 8451 1e5d 36       		.byte	0x36
 8452 1e5e 25       		.uleb128 0x25
 8453 1e5f 01       		.uleb128 0x1
 8454 1e60 51       		.byte	0x51
 8455 1e61 02       		.uleb128 0x2
 8456 1e62 75       		.byte	0x75
 8457 1e63 00       		.sleb128 0
 8458 1e64 00       		.byte	0
 8459 1e65 27       		.uleb128 0x27
 8460 1e66 04010000 		.4byte	.LVL172
 8461 1e6a 7C300000 		.4byte	0x307c
 8462 1e6e 25       		.uleb128 0x25
 8463 1e6f 01       		.uleb128 0x1
 8464 1e70 50       		.byte	0x50
ARM GAS  C:\Users\Helon\AppData\Local\Temp\ccTLkFeM.s 			page 209


 8465 1e71 05       		.uleb128 0x5
 8466 1e72 03       		.byte	0x3
 8467 1e73 76010000 		.4byte	.LC72
 8468 1e77 25       		.uleb128 0x25
 8469 1e78 02       		.uleb128 0x2
 8470 1e79 7D       		.byte	0x7d
 8471 1e7a 08       		.sleb128 8
 8472 1e7b 02       		.uleb128 0x2
 8473 1e7c 75       		.byte	0x75
 8474 1e7d 00       		.sleb128 0
 8475 1e7e 00       		.byte	0
 8476 1e7f 00       		.byte	0
 8477 1e80 00       		.byte	0
 8478 1e81 26       		.uleb128 0x26
 8479 1e82 10010000 		.4byte	.LVL176
 8480 1e86 63300000 		.4byte	0x3063
 8481 1e8a 00       		.byte	0
 8482 1e8b 2B       		.uleb128 0x2b
 8483 1e8c 88130000 		.4byte	.LASF626
 8484 1e90 01       		.byte	0x1
 8485 1e91 E707     		.2byte	0x7e7
 8486 1e93 00000000 		.4byte	.LFB50
 8487 1e97 78030000 		.4byte	.LFE50-.LFB50
 8488 1e9b 01       		.uleb128 0x1
 8489 1e9c 9C       		.byte	0x9c
 8490 1e9d 66220000 		.4byte	0x2266
 8491 1ea1 33       		.uleb128 0x33
 8492 1ea2 69647800 		.ascii	"idx\000"
 8493 1ea6 01       		.byte	0x1
 8494 1ea7 E707     		.2byte	0x7e7
 8495 1ea9 B4000000 		.4byte	0xb4
 8496 1ead EB070000 		.4byte	.LLST26
 8497 1eb1 24       		.uleb128 0x24
 8498 1eb2 24000000 		.4byte	.LVL179
 8499 1eb6 63300000 		.4byte	0x3063
 8500 1eba C81E0000 		.4byte	0x1ec8
 8501 1ebe 25       		.uleb128 0x25
 8502 1ebf 01       		.uleb128 0x1
 8503 1ec0 50       		.byte	0x50
 8504 1ec1 05       		.uleb128 0x5
 8505 1ec2 03       		.byte	0x3
 8506 1ec3 CA010000 		.4byte	.LC84
 8507 1ec7 00       		.byte	0
 8508 1ec8 24       		.uleb128 0x24
 8509 1ec9 2A000000 		.4byte	.LVL180
 8510 1ecd 63300000 		.4byte	0x3063
 8511 1ed1 DF1E0000 		.4byte	0x1edf
 8512 1ed5 25       		.uleb128 0x25
 8513 1ed6 01       		.uleb128 0x1
 8514 1ed7 50       		.byte	0x50
 8515 1ed8 05       		.uleb128 0x5
 8516 1ed9 03       		.byte	0x3
 8517 1eda C6010000 		.4byte	.LC81
 8518 1ede 00       		.byte	0
 8519 1edf 24       		.uleb128 0x24
 8520 1ee0 3C000000 		.4byte	.LVL183
 8521 1ee4 63300000 		.4byte	0x3063
ARM GAS  C:\Users\Helon\AppData\Local\Temp\ccTLkFeM.s 			page 210


 8522 1ee8 F61E0000 		.4byte	0x1ef6
 8523 1eec 25       		.uleb128 0x25
 8524 1eed 01       		.uleb128 0x1
 8525 1eee 50       		.byte	0x50
 8526 1eef 05       		.uleb128 0x5
 8527 1ef0 03       		.byte	0x3
 8528 1ef1 EA010000 		.4byte	.LC88
 8529 1ef5 00       		.byte	0
 8530 1ef6 24       		.uleb128 0x24
 8531 1ef7 42000000 		.4byte	.LVL184
 8532 1efb 63300000 		.4byte	0x3063
 8533 1eff 0A1F0000 		.4byte	0x1f0a
 8534 1f03 25       		.uleb128 0x25
 8535 1f04 01       		.uleb128 0x1
 8536 1f05 50       		.byte	0x50
 8537 1f06 02       		.uleb128 0x2
 8538 1f07 76       		.byte	0x76
 8539 1f08 00       		.sleb128 0
 8540 1f09 00       		.byte	0
 8541 1f0a 24       		.uleb128 0x24
 8542 1f0b 5C000000 		.4byte	.LVL187
 8543 1f0f 63300000 		.4byte	0x3063
 8544 1f13 211F0000 		.4byte	0x1f21
 8545 1f17 25       		.uleb128 0x25
 8546 1f18 01       		.uleb128 0x1
 8547 1f19 50       		.byte	0x50
 8548 1f1a 05       		.uleb128 0x5
 8549 1f1b 03       		.byte	0x3
 8550 1f1c 3F020000 		.4byte	.LC98
 8551 1f20 00       		.byte	0
 8552 1f21 24       		.uleb128 0x24
 8553 1f22 62000000 		.4byte	.LVL188
 8554 1f26 63300000 		.4byte	0x3063
 8555 1f2a 381F0000 		.4byte	0x1f38
 8556 1f2e 25       		.uleb128 0x25
 8557 1f2f 01       		.uleb128 0x1
 8558 1f30 50       		.byte	0x50
 8559 1f31 05       		.uleb128 0x5
 8560 1f32 03       		.byte	0x3
 8561 1f33 C6010000 		.4byte	.LC81
 8562 1f37 00       		.byte	0
 8563 1f38 24       		.uleb128 0x24
 8564 1f39 7E000000 		.4byte	.LVL191
 8565 1f3d 63300000 		.4byte	0x3063
 8566 1f41 4F1F0000 		.4byte	0x1f4f
 8567 1f45 25       		.uleb128 0x25
 8568 1f46 01       		.uleb128 0x1
 8569 1f47 50       		.byte	0x50
 8570 1f48 05       		.uleb128 0x5
 8571 1f49 03       		.byte	0x3
 8572 1f4a B6010000 		.4byte	.LC79
 8573 1f4e 00       		.byte	0
 8574 1f4f 24       		.uleb128 0x24
 8575 1f50 84000000 		.4byte	.LVL192
 8576 1f54 63300000 		.4byte	0x3063
 8577 1f58 661F0000 		.4byte	0x1f66
 8578 1f5c 25       		.uleb128 0x25
ARM GAS  C:\Users\Helon\AppData\Local\Temp\ccTLkFeM.s 			page 211


 8579 1f5d 01       		.uleb128 0x1
 8580 1f5e 50       		.byte	0x50
 8581 1f5f 05       		.uleb128 0x5
 8582 1f60 03       		.byte	0x3
 8583 1f61 C6010000 		.4byte	.LC81
 8584 1f65 00       		.byte	0
 8585 1f66 26       		.uleb128 0x26
 8586 1f67 88000000 		.4byte	.LVL193
 8587 1f6b 92300000 		.4byte	0x3092
 8588 1f6f 26       		.uleb128 0x26
 8589 1f70 9C000000 		.4byte	.LVL196
 8590 1f74 92300000 		.4byte	0x3092
 8591 1f78 24       		.uleb128 0x24
 8592 1f79 B8000000 		.4byte	.LVL201
 8593 1f7d 63300000 		.4byte	0x3063
 8594 1f81 8F1F0000 		.4byte	0x1f8f
 8595 1f85 25       		.uleb128 0x25
 8596 1f86 01       		.uleb128 0x1
 8597 1f87 50       		.byte	0x50
 8598 1f88 05       		.uleb128 0x5
 8599 1f89 03       		.byte	0x3
 8600 1f8a DA010000 		.4byte	.LC86
 8601 1f8e 00       		.byte	0
 8602 1f8f 24       		.uleb128 0x24
 8603 1f90 BE000000 		.4byte	.LVL202
 8604 1f94 63300000 		.4byte	0x3063
 8605 1f98 A61F0000 		.4byte	0x1fa6
 8606 1f9c 25       		.uleb128 0x25
 8607 1f9d 01       		.uleb128 0x1
 8608 1f9e 50       		.byte	0x50
 8609 1f9f 05       		.uleb128 0x5
 8610 1fa0 03       		.byte	0x3
 8611 1fa1 C6010000 		.4byte	.LC81
 8612 1fa5 00       		.byte	0
 8613 1fa6 26       		.uleb128 0x26
 8614 1fa7 C2000000 		.4byte	.LVL203
 8615 1fab 92300000 		.4byte	0x3092
 8616 1faf 26       		.uleb128 0x26
 8617 1fb0 D6000000 		.4byte	.LVL206
 8618 1fb4 92300000 		.4byte	0x3092
 8619 1fb8 24       		.uleb128 0x24
 8620 1fb9 EA000000 		.4byte	.LVL210
 8621 1fbd 63300000 		.4byte	0x3063
 8622 1fc1 CF1F0000 		.4byte	0x1fcf
 8623 1fc5 25       		.uleb128 0x25
 8624 1fc6 01       		.uleb128 0x1
 8625 1fc7 50       		.byte	0x50
 8626 1fc8 05       		.uleb128 0x5
 8627 1fc9 03       		.byte	0x3
 8628 1fca FA010000 		.4byte	.LC90
 8629 1fce 00       		.byte	0
 8630 1fcf 24       		.uleb128 0x24
 8631 1fd0 F0000000 		.4byte	.LVL211
 8632 1fd4 63300000 		.4byte	0x3063
 8633 1fd8 E31F0000 		.4byte	0x1fe3
 8634 1fdc 25       		.uleb128 0x25
 8635 1fdd 01       		.uleb128 0x1
ARM GAS  C:\Users\Helon\AppData\Local\Temp\ccTLkFeM.s 			page 212


 8636 1fde 50       		.byte	0x50
 8637 1fdf 02       		.uleb128 0x2
 8638 1fe0 76       		.byte	0x76
 8639 1fe1 00       		.sleb128 0
 8640 1fe2 00       		.byte	0
 8641 1fe3 26       		.uleb128 0x26
 8642 1fe4 F4000000 		.4byte	.LVL212
 8643 1fe8 92300000 		.4byte	0x3092
 8644 1fec 24       		.uleb128 0x24
 8645 1fed 08010000 		.4byte	.LVL216
 8646 1ff1 63300000 		.4byte	0x3063
 8647 1ff5 03200000 		.4byte	0x2003
 8648 1ff9 25       		.uleb128 0x25
 8649 1ffa 01       		.uleb128 0x1
 8650 1ffb 50       		.byte	0x50
 8651 1ffc 05       		.uleb128 0x5
 8652 1ffd 03       		.byte	0x3
 8653 1ffe 0B020000 		.4byte	.LC92
 8654 2002 00       		.byte	0
 8655 2003 24       		.uleb128 0x24
 8656 2004 0E010000 		.4byte	.LVL217
 8657 2008 63300000 		.4byte	0x3063
 8658 200c 17200000 		.4byte	0x2017
 8659 2010 25       		.uleb128 0x25
 8660 2011 01       		.uleb128 0x1
 8661 2012 50       		.byte	0x50
 8662 2013 02       		.uleb128 0x2
 8663 2014 76       		.byte	0x76
 8664 2015 00       		.sleb128 0
 8665 2016 00       		.byte	0
 8666 2017 26       		.uleb128 0x26
 8667 2018 12010000 		.4byte	.LVL218
 8668 201c 92300000 		.4byte	0x3092
 8669 2020 24       		.uleb128 0x24
 8670 2021 26010000 		.4byte	.LVL222
 8671 2025 63300000 		.4byte	0x3063
 8672 2029 37200000 		.4byte	0x2037
 8673 202d 25       		.uleb128 0x25
 8674 202e 01       		.uleb128 0x1
 8675 202f 50       		.byte	0x50
 8676 2030 05       		.uleb128 0x5
 8677 2031 03       		.byte	0x3
 8678 2032 1C020000 		.4byte	.LC94
 8679 2036 00       		.byte	0
 8680 2037 24       		.uleb128 0x24
 8681 2038 2C010000 		.4byte	.LVL223
 8682 203c 63300000 		.4byte	0x3063
 8683 2040 4E200000 		.4byte	0x204e
 8684 2044 25       		.uleb128 0x25
 8685 2045 01       		.uleb128 0x1
 8686 2046 50       		.byte	0x50
 8687 2047 05       		.uleb128 0x5
 8688 2048 03       		.byte	0x3
 8689 2049 C6010000 		.4byte	.LC81
 8690 204d 00       		.byte	0
 8691 204e 26       		.uleb128 0x26
 8692 204f 30010000 		.4byte	.LVL224
ARM GAS  C:\Users\Helon\AppData\Local\Temp\ccTLkFeM.s 			page 213


 8693 2053 92300000 		.4byte	0x3092
 8694 2057 24       		.uleb128 0x24
 8695 2058 46010000 		.4byte	.LVL228
 8696 205c 63300000 		.4byte	0x3063
 8697 2060 6E200000 		.4byte	0x206e
 8698 2064 25       		.uleb128 0x25
 8699 2065 01       		.uleb128 0x1
 8700 2066 50       		.byte	0x50
 8701 2067 05       		.uleb128 0x5
 8702 2068 03       		.byte	0x3
 8703 2069 2D020000 		.4byte	.LC96
 8704 206d 00       		.byte	0
 8705 206e 24       		.uleb128 0x24
 8706 206f 4C010000 		.4byte	.LVL229
 8707 2073 63300000 		.4byte	0x3063
 8708 2077 85200000 		.4byte	0x2085
 8709 207b 25       		.uleb128 0x25
 8710 207c 01       		.uleb128 0x1
 8711 207d 50       		.byte	0x50
 8712 207e 05       		.uleb128 0x5
 8713 207f 03       		.byte	0x3
 8714 2080 C6010000 		.4byte	.LC81
 8715 2084 00       		.byte	0
 8716 2085 26       		.uleb128 0x26
 8717 2086 50010000 		.4byte	.LVL230
 8718 208a 92300000 		.4byte	0x3092
 8719 208e 26       		.uleb128 0x26
 8720 208f 64010000 		.4byte	.LVL233
 8721 2093 92300000 		.4byte	0x3092
 8722 2097 24       		.uleb128 0x24
 8723 2098 7A010000 		.4byte	.LVL237
 8724 209c 63300000 		.4byte	0x3063
 8725 20a0 AE200000 		.4byte	0x20ae
 8726 20a4 25       		.uleb128 0x25
 8727 20a5 01       		.uleb128 0x1
 8728 20a6 50       		.byte	0x50
 8729 20a7 05       		.uleb128 0x5
 8730 20a8 03       		.byte	0x3
 8731 20a9 51020000 		.4byte	.LC100
 8732 20ad 00       		.byte	0
 8733 20ae 24       		.uleb128 0x24
 8734 20af 80010000 		.4byte	.LVL238
 8735 20b3 63300000 		.4byte	0x3063
 8736 20b7 C5200000 		.4byte	0x20c5
 8737 20bb 25       		.uleb128 0x25
 8738 20bc 01       		.uleb128 0x1
 8739 20bd 50       		.byte	0x50
 8740 20be 05       		.uleb128 0x5
 8741 20bf 03       		.byte	0x3
 8742 20c0 C6010000 		.4byte	.LC81
 8743 20c4 00       		.byte	0
 8744 20c5 26       		.uleb128 0x26
 8745 20c6 84010000 		.4byte	.LVL239
 8746 20ca 92300000 		.4byte	0x3092
 8747 20ce 24       		.uleb128 0x24
 8748 20cf 9A010000 		.4byte	.LVL243
 8749 20d3 63300000 		.4byte	0x3063
ARM GAS  C:\Users\Helon\AppData\Local\Temp\ccTLkFeM.s 			page 214


 8750 20d7 E5200000 		.4byte	0x20e5
 8751 20db 25       		.uleb128 0x25
 8752 20dc 01       		.uleb128 0x1
 8753 20dd 50       		.byte	0x50
 8754 20de 05       		.uleb128 0x5
 8755 20df 03       		.byte	0x3
 8756 20e0 63020000 		.4byte	.LC102
 8757 20e4 00       		.byte	0
 8758 20e5 24       		.uleb128 0x24
 8759 20e6 A0010000 		.4byte	.LVL244
 8760 20ea 63300000 		.4byte	0x3063
 8761 20ee FC200000 		.4byte	0x20fc
 8762 20f2 25       		.uleb128 0x25
 8763 20f3 01       		.uleb128 0x1
 8764 20f4 50       		.byte	0x50
 8765 20f5 05       		.uleb128 0x5
 8766 20f6 03       		.byte	0x3
 8767 20f7 C6010000 		.4byte	.LC81
 8768 20fb 00       		.byte	0
 8769 20fc 26       		.uleb128 0x26
 8770 20fd A4010000 		.4byte	.LVL245
 8771 2101 92300000 		.4byte	0x3092
 8772 2105 24       		.uleb128 0x24
 8773 2106 DA010000 		.4byte	.LVL249
 8774 210a 63300000 		.4byte	0x3063
 8775 210e 1C210000 		.4byte	0x211c
 8776 2112 25       		.uleb128 0x25
 8777 2113 01       		.uleb128 0x1
 8778 2114 50       		.byte	0x50
 8779 2115 05       		.uleb128 0x5
 8780 2116 03       		.byte	0x3
 8781 2117 83020000 		.4byte	.LC106
 8782 211b 00       		.byte	0
 8783 211c 24       		.uleb128 0x24
 8784 211d EC010000 		.4byte	.LVL252
 8785 2121 63300000 		.4byte	0x3063
 8786 2125 33210000 		.4byte	0x2133
 8787 2129 25       		.uleb128 0x25
 8788 212a 01       		.uleb128 0x1
 8789 212b 50       		.byte	0x50
 8790 212c 05       		.uleb128 0x5
 8791 212d 03       		.byte	0x3
 8792 212e AD020000 		.4byte	.LC112
 8793 2132 00       		.byte	0
 8794 2133 24       		.uleb128 0x24
 8795 2134 04020000 		.4byte	.LVL255
 8796 2138 63300000 		.4byte	0x3063
 8797 213c 4A210000 		.4byte	0x214a
 8798 2140 25       		.uleb128 0x25
 8799 2141 01       		.uleb128 0x1
 8800 2142 50       		.byte	0x50
 8801 2143 05       		.uleb128 0x5
 8802 2144 03       		.byte	0x3
 8803 2145 DA020000 		.4byte	.LC118
 8804 2149 00       		.byte	0
 8805 214a 24       		.uleb128 0x24
 8806 214b 1E020000 		.4byte	.LVL258
ARM GAS  C:\Users\Helon\AppData\Local\Temp\ccTLkFeM.s 			page 215


 8807 214f 63300000 		.4byte	0x3063
 8808 2153 61210000 		.4byte	0x2161
 8809 2157 25       		.uleb128 0x25
 8810 2158 01       		.uleb128 0x1
 8811 2159 50       		.byte	0x50
 8812 215a 05       		.uleb128 0x5
 8813 215b 03       		.byte	0x3
 8814 215c FA020000 		.4byte	.LC122
 8815 2160 00       		.byte	0
 8816 2161 24       		.uleb128 0x24
 8817 2162 26020000 		.4byte	.LVL261
 8818 2166 63300000 		.4byte	0x3063
 8819 216a 78210000 		.4byte	0x2178
 8820 216e 25       		.uleb128 0x25
 8821 216f 01       		.uleb128 0x1
 8822 2170 50       		.byte	0x50
 8823 2171 05       		.uleb128 0x5
 8824 2172 03       		.byte	0x3
 8825 2173 75020000 		.4byte	.LC104
 8826 2177 00       		.byte	0
 8827 2178 26       		.uleb128 0x26
 8828 2179 2A020000 		.4byte	.LVL262
 8829 217d 92300000 		.4byte	0x3092
 8830 2181 26       		.uleb128 0x26
 8831 2182 3C020000 		.4byte	.LVL263
 8832 2186 92300000 		.4byte	0x3092
 8833 218a 24       		.uleb128 0x24
 8834 218b 50020000 		.4byte	.LVL266
 8835 218f 63300000 		.4byte	0x3063
 8836 2193 A1210000 		.4byte	0x21a1
 8837 2197 25       		.uleb128 0x25
 8838 2198 01       		.uleb128 0x1
 8839 2199 50       		.byte	0x50
 8840 219a 05       		.uleb128 0x5
 8841 219b 03       		.byte	0x3
 8842 219c 91020000 		.4byte	.LC108
 8843 21a0 00       		.byte	0
 8844 21a1 26       		.uleb128 0x26
 8845 21a2 54020000 		.4byte	.LVL267
 8846 21a6 92300000 		.4byte	0x3092
 8847 21aa 24       		.uleb128 0x24
 8848 21ab 68020000 		.4byte	.LVL270
 8849 21af 63300000 		.4byte	0x3063
 8850 21b3 C1210000 		.4byte	0x21c1
 8851 21b7 25       		.uleb128 0x25
 8852 21b8 01       		.uleb128 0x1
 8853 21b9 50       		.byte	0x50
 8854 21ba 05       		.uleb128 0x5
 8855 21bb 03       		.byte	0x3
 8856 21bc 9F020000 		.4byte	.LC110
 8857 21c0 00       		.byte	0
 8858 21c1 26       		.uleb128 0x26
 8859 21c2 6C020000 		.4byte	.LVL271
 8860 21c6 92300000 		.4byte	0x3092
 8861 21ca 26       		.uleb128 0x26
 8862 21cb 7E020000 		.4byte	.LVL272
 8863 21cf 92300000 		.4byte	0x3092
ARM GAS  C:\Users\Helon\AppData\Local\Temp\ccTLkFeM.s 			page 216


 8864 21d3 24       		.uleb128 0x24
 8865 21d4 92020000 		.4byte	.LVL275
 8866 21d8 63300000 		.4byte	0x3063
 8867 21dc EA210000 		.4byte	0x21ea
 8868 21e0 25       		.uleb128 0x25
 8869 21e1 01       		.uleb128 0x1
 8870 21e2 50       		.byte	0x50
 8871 21e3 05       		.uleb128 0x5
 8872 21e4 03       		.byte	0x3
 8873 21e5 BC020000 		.4byte	.LC114
 8874 21e9 00       		.byte	0
 8875 21ea 26       		.uleb128 0x26
 8876 21eb 96020000 		.4byte	.LVL276
 8877 21ef 92300000 		.4byte	0x3092
 8878 21f3 24       		.uleb128 0x24
 8879 21f4 AA020000 		.4byte	.LVL279
 8880 21f8 63300000 		.4byte	0x3063
 8881 21fc 0A220000 		.4byte	0x220a
 8882 2200 25       		.uleb128 0x25
 8883 2201 01       		.uleb128 0x1
 8884 2202 50       		.byte	0x50
 8885 2203 05       		.uleb128 0x5
 8886 2204 03       		.byte	0x3
 8887 2205 CB020000 		.4byte	.LC116
 8888 2209 00       		.byte	0
 8889 220a 26       		.uleb128 0x26
 8890 220b AE020000 		.4byte	.LVL280
 8891 220f 92300000 		.4byte	0x3092
 8892 2213 26       		.uleb128 0x26
 8893 2214 C0020000 		.4byte	.LVL281
 8894 2218 92300000 		.4byte	0x3092
 8895 221c 24       		.uleb128 0x24
 8896 221d D4020000 		.4byte	.LVL284
 8897 2221 63300000 		.4byte	0x3063
 8898 2225 33220000 		.4byte	0x2233
 8899 2229 25       		.uleb128 0x25
 8900 222a 01       		.uleb128 0x1
 8901 222b 50       		.byte	0x50
 8902 222c 05       		.uleb128 0x5
 8903 222d 03       		.byte	0x3
 8904 222e EA020000 		.4byte	.LC120
 8905 2232 00       		.byte	0
 8906 2233 26       		.uleb128 0x26
 8907 2234 D8020000 		.4byte	.LVL285
 8908 2238 92300000 		.4byte	0x3092
 8909 223c 26       		.uleb128 0x26
 8910 223d EA020000 		.4byte	.LVL286
 8911 2241 92300000 		.4byte	0x3092
 8912 2245 24       		.uleb128 0x24
 8913 2246 5E030000 		.4byte	.LVL289
 8914 224a 63300000 		.4byte	0x3063
 8915 224e 5C220000 		.4byte	0x225c
 8916 2252 25       		.uleb128 0x25
 8917 2253 01       		.uleb128 0x1
 8918 2254 50       		.byte	0x50
 8919 2255 05       		.uleb128 0x5
 8920 2256 03       		.byte	0x3
ARM GAS  C:\Users\Helon\AppData\Local\Temp\ccTLkFeM.s 			page 217


 8921 2257 0A030000 		.4byte	.LC124
 8922 225b 00       		.byte	0
 8923 225c 26       		.uleb128 0x26
 8924 225d 62030000 		.4byte	.LVL290
 8925 2261 92300000 		.4byte	0x3092
 8926 2265 00       		.byte	0
 8927 2266 2B       		.uleb128 0x2b
 8928 2267 45310000 		.4byte	.LASF627
 8929 226b 01       		.byte	0x1
 8930 226c 9908     		.2byte	0x899
 8931 226e 00000000 		.4byte	.LFB51
 8932 2272 D8000000 		.4byte	.LFE51-.LFB51
 8933 2276 01       		.uleb128 0x1
 8934 2277 9C       		.byte	0x9c
 8935 2278 DD220000 		.4byte	0x22dd
 8936 227c 33       		.uleb128 0x33
 8937 227d 69647800 		.ascii	"idx\000"
 8938 2281 01       		.byte	0x1
 8939 2282 9908     		.2byte	0x899
 8940 2284 B4000000 		.4byte	0xb4
 8941 2288 190A0000 		.4byte	.LLST27
 8942 228c 35       		.uleb128 0x35
 8943 228d C3210000 		.4byte	.LASF628
 8944 2291 01       		.byte	0x1
 8945 2292 9B08     		.2byte	0x89b
 8946 2294 CF040000 		.4byte	0x4cf
 8947 2298 02       		.uleb128 0x2
 8948 2299 91       		.byte	0x91
 8949 229a 74       		.sleb128 -12
 8950 229b 2C       		.uleb128 0x2c
 8951 229c ED3A0000 		.4byte	.LASF588
 8952 22a0 01       		.byte	0x1
 8953 22a1 9C08     		.2byte	0x89c
 8954 22a3 AF030000 		.4byte	0x3af
 8955 22a7 620A0000 		.4byte	.LLST28
 8956 22ab 24       		.uleb128 0x24
 8957 22ac 38000000 		.4byte	.LVL293
 8958 22b0 9F330000 		.4byte	0x339f
 8959 22b4 BF220000 		.4byte	0x22bf
 8960 22b8 25       		.uleb128 0x25
 8961 22b9 01       		.uleb128 0x1
 8962 22ba 50       		.byte	0x50
 8963 22bb 02       		.uleb128 0x2
 8964 22bc 74       		.byte	0x74
 8965 22bd 00       		.sleb128 0
 8966 22be 00       		.byte	0
 8967 22bf 24       		.uleb128 0x24
 8968 22c0 76000000 		.4byte	.LVL295
 8969 22c4 BB330000 		.4byte	0x33bb
 8970 22c8 D3220000 		.4byte	0x22d3
 8971 22cc 25       		.uleb128 0x25
 8972 22cd 01       		.uleb128 0x1
 8973 22ce 50       		.byte	0x50
 8974 22cf 02       		.uleb128 0x2
 8975 22d0 91       		.byte	0x91
 8976 22d1 74       		.sleb128 -12
 8977 22d2 00       		.byte	0
ARM GAS  C:\Users\Helon\AppData\Local\Temp\ccTLkFeM.s 			page 218


 8978 22d3 26       		.uleb128 0x26
 8979 22d4 80000000 		.4byte	.LVL297
 8980 22d8 63300000 		.4byte	0x3063
 8981 22dc 00       		.byte	0
 8982 22dd 2B       		.uleb128 0x2b
 8983 22de 46100000 		.4byte	.LASF629
 8984 22e2 01       		.byte	0x1
 8985 22e3 2909     		.2byte	0x929
 8986 22e5 00000000 		.4byte	.LFB52
 8987 22e9 68000000 		.4byte	.LFE52-.LFB52
 8988 22ed 01       		.uleb128 0x1
 8989 22ee 9C       		.byte	0x9c
 8990 22ef A0230000 		.4byte	0x23a0
 8991 22f3 37       		.uleb128 0x37
 8992 22f4 5D160000 		.4byte	.LASF630
 8993 22f8 01       		.byte	0x1
 8994 22f9 2909     		.2byte	0x929
 8995 22fb 62010000 		.4byte	0x162
 8996 22ff 01       		.uleb128 0x1
 8997 2300 50       		.byte	0x50
 8998 2301 38       		.uleb128 0x38
 8999 2302 87300000 		.4byte	.LASF631
 9000 2306 01       		.byte	0x1
 9001 2307 2909     		.2byte	0x929
 9002 2309 62010000 		.4byte	0x162
 9003 230d 8D0A0000 		.4byte	.LLST29
 9004 2311 38       		.uleb128 0x38
 9005 2312 B2160000 		.4byte	.LASF632
 9006 2316 01       		.byte	0x1
 9007 2317 2909     		.2byte	0x929
 9008 2319 2C000000 		.4byte	0x2c
 9009 231d AE0A0000 		.4byte	.LLST30
 9010 2321 39       		.uleb128 0x39
 9011 2322 683100   		.ascii	"h1\000"
 9012 2325 01       		.byte	0x1
 9013 2326 2B09     		.2byte	0x92b
 9014 2328 57000000 		.4byte	0x57
 9015 232c CD0A0000 		.4byte	.LLST31
 9016 2330 39       		.uleb128 0x39
 9017 2331 683200   		.ascii	"h2\000"
 9018 2334 01       		.byte	0x1
 9019 2335 2B09     		.2byte	0x92b
 9020 2337 57000000 		.4byte	0x57
 9021 233b EC0A0000 		.4byte	.LLST32
 9022 233f 39       		.uleb128 0x39
 9023 2340 733100   		.ascii	"s1\000"
 9024 2343 01       		.byte	0x1
 9025 2344 2C09     		.2byte	0x92c
 9026 2346 57000000 		.4byte	0x57
 9027 234a 0B0B0000 		.4byte	.LLST33
 9028 234e 39       		.uleb128 0x39
 9029 234f 733200   		.ascii	"s2\000"
 9030 2352 01       		.byte	0x1
 9031 2353 2C09     		.2byte	0x92c
 9032 2355 57000000 		.4byte	0x57
 9033 2359 1E0B0000 		.4byte	.LLST34
 9034 235d 39       		.uleb128 0x39
ARM GAS  C:\Users\Helon\AppData\Local\Temp\ccTLkFeM.s 			page 219


 9035 235e 6900     		.ascii	"i\000"
 9036 2360 01       		.byte	0x1
 9037 2361 2D09     		.2byte	0x92d
 9038 2363 2C000000 		.4byte	0x2c
 9039 2367 310B0000 		.4byte	.LLST35
 9040 236b 3A       		.uleb128 0x3a
 9041 236c 00000000 		.4byte	.Ldebug_ranges0+0
 9042 2370 85230000 		.4byte	0x2385
 9043 2374 39       		.uleb128 0x39
 9044 2375 5F5F7800 		.ascii	"__x\000"
 9045 2379 01       		.byte	0x1
 9046 237a 3409     		.2byte	0x934
 9047 237c 57000000 		.4byte	0x57
 9048 2380 770B0000 		.4byte	.LLST36
 9049 2384 00       		.byte	0
 9050 2385 32       		.uleb128 0x32
 9051 2386 38000000 		.4byte	.LBB39
 9052 238a 0E000000 		.4byte	.LBE39-.LBB39
 9053 238e 39       		.uleb128 0x39
 9054 238f 5F5F7800 		.ascii	"__x\000"
 9055 2393 01       		.byte	0x1
 9056 2394 3809     		.2byte	0x938
 9057 2396 57000000 		.4byte	0x57
 9058 239a 960B0000 		.4byte	.LLST37
 9059 239e 00       		.byte	0
 9060 239f 00       		.byte	0
 9061 23a0 3B       		.uleb128 0x3b
 9062 23a1 E8150000 		.4byte	0x15e8
 9063 23a5 00000000 		.4byte	.LFB57
 9064 23a9 50070000 		.4byte	.LFE57-.LFB57
 9065 23ad 01       		.uleb128 0x1
 9066 23ae 9C       		.byte	0x9c
 9067 23af F9290000 		.4byte	0x29f9
 9068 23b3 2F       		.uleb128 0x2f
 9069 23b4 F5150000 		.4byte	0x15f5
 9070 23b8 B50B0000 		.4byte	.LLST38
 9071 23bc 30       		.uleb128 0x30
 9072 23bd 01160000 		.4byte	0x1601
 9073 23c1 580D0000 		.4byte	.LLST39
 9074 23c5 30       		.uleb128 0x30
 9075 23c6 0D160000 		.4byte	0x160d
 9076 23ca E20E0000 		.4byte	.LLST40
 9077 23ce 30       		.uleb128 0x30
 9078 23cf 17160000 		.4byte	0x1617
 9079 23d3 690F0000 		.4byte	.LLST41
 9080 23d7 30       		.uleb128 0x30
 9081 23d8 23160000 		.4byte	0x1623
 9082 23dc 45120000 		.4byte	.LLST42
 9083 23e0 30       		.uleb128 0x30
 9084 23e1 2F160000 		.4byte	0x162f
 9085 23e5 74120000 		.4byte	.LLST43
 9086 23e9 29       		.uleb128 0x29
 9087 23ea 3B160000 		.4byte	0x163b
 9088 23ee 03       		.uleb128 0x3
 9089 23ef 91       		.byte	0x91
 9090 23f0 CC7E     		.sleb128 -180
 9091 23f2 29       		.uleb128 0x29
ARM GAS  C:\Users\Helon\AppData\Local\Temp\ccTLkFeM.s 			page 220


 9092 23f3 47160000 		.4byte	0x1647
 9093 23f7 03       		.uleb128 0x3
 9094 23f8 91       		.byte	0x91
 9095 23f9 E87E     		.sleb128 -152
 9096 23fb 29       		.uleb128 0x29
 9097 23fc 53160000 		.4byte	0x1653
 9098 2400 03       		.uleb128 0x3
 9099 2401 91       		.byte	0x91
 9100 2402 A87F     		.sleb128 -88
 9101 2404 29       		.uleb128 0x29
 9102 2405 5F160000 		.4byte	0x165f
 9103 2409 03       		.uleb128 0x3
 9104 240a 91       		.byte	0x91
 9105 240b C07E     		.sleb128 -192
 9106 240d 29       		.uleb128 0x29
 9107 240e 6B160000 		.4byte	0x166b
 9108 2412 03       		.uleb128 0x3
 9109 2413 91       		.byte	0x91
 9110 2414 BE7E     		.sleb128 -194
 9111 2416 29       		.uleb128 0x29
 9112 2417 77160000 		.4byte	0x1677
 9113 241b 03       		.uleb128 0x3
 9114 241c 91       		.byte	0x91
 9115 241d C47E     		.sleb128 -188
 9116 241f 29       		.uleb128 0x29
 9117 2420 83160000 		.4byte	0x1683
 9118 2424 03       		.uleb128 0x3
 9119 2425 91       		.byte	0x91
 9120 2426 BF7E     		.sleb128 -193
 9121 2428 29       		.uleb128 0x29
 9122 2429 8F160000 		.4byte	0x168f
 9123 242d 03       		.uleb128 0x3
 9124 242e 91       		.byte	0x91
 9125 242f C87E     		.sleb128 -184
 9126 2431 30       		.uleb128 0x30
 9127 2432 9B160000 		.4byte	0x169b
 9128 2436 C8120000 		.4byte	.LLST44
 9129 243a 30       		.uleb128 0x30
 9130 243b A7160000 		.4byte	0x16a7
 9131 243f 1F140000 		.4byte	.LLST45
 9132 2443 29       		.uleb128 0x29
 9133 2444 B3160000 		.4byte	0x16b3
 9134 2448 03       		.uleb128 0x3
 9135 2449 91       		.byte	0x91
 9136 244a 887F     		.sleb128 -120
 9137 244c 29       		.uleb128 0x29
 9138 244d BF160000 		.4byte	0x16bf
 9139 2451 03       		.uleb128 0x3
 9140 2452 91       		.byte	0x91
 9141 2453 887F     		.sleb128 -120
 9142 2455 24       		.uleb128 0x24
 9143 2456 10000000 		.4byte	.LVL317
 9144 245a D1330000 		.4byte	0x33d1
 9145 245e 74240000 		.4byte	0x2474
 9146 2462 25       		.uleb128 0x25
 9147 2463 01       		.uleb128 0x1
 9148 2464 52       		.byte	0x52
ARM GAS  C:\Users\Helon\AppData\Local\Temp\ccTLkFeM.s 			page 221


 9149 2465 01       		.uleb128 0x1
 9150 2466 4B       		.byte	0x4b
 9151 2467 25       		.uleb128 0x25
 9152 2468 01       		.uleb128 0x1
 9153 2469 51       		.byte	0x51
 9154 246a 01       		.uleb128 0x1
 9155 246b 30       		.byte	0x30
 9156 246c 25       		.uleb128 0x25
 9157 246d 01       		.uleb128 0x1
 9158 246e 50       		.byte	0x50
 9159 246f 03       		.uleb128 0x3
 9160 2470 91       		.byte	0x91
 9161 2471 CC7E     		.sleb128 -180
 9162 2473 00       		.byte	0
 9163 2474 24       		.uleb128 0x24
 9164 2475 1A000000 		.4byte	.LVL318
 9165 2479 D1330000 		.4byte	0x33d1
 9166 247d 93240000 		.4byte	0x2493
 9167 2481 25       		.uleb128 0x25
 9168 2482 01       		.uleb128 0x1
 9169 2483 52       		.byte	0x52
 9170 2484 01       		.uleb128 0x1
 9171 2485 4F       		.byte	0x4f
 9172 2486 25       		.uleb128 0x25
 9173 2487 01       		.uleb128 0x1
 9174 2488 51       		.byte	0x51
 9175 2489 01       		.uleb128 0x1
 9176 248a 30       		.byte	0x30
 9177 248b 25       		.uleb128 0x25
 9178 248c 01       		.uleb128 0x1
 9179 248d 50       		.byte	0x50
 9180 248e 03       		.uleb128 0x3
 9181 248f 91       		.byte	0x91
 9182 2490 E87E     		.sleb128 -152
 9183 2492 00       		.byte	0
 9184 2493 24       		.uleb128 0x24
 9185 2494 24000000 		.4byte	.LVL319
 9186 2498 D1330000 		.4byte	0x33d1
 9187 249c B3240000 		.4byte	0x24b3
 9188 24a0 25       		.uleb128 0x25
 9189 24a1 01       		.uleb128 0x1
 9190 24a2 52       		.byte	0x52
 9191 24a3 02       		.uleb128 0x2
 9192 24a4 08       		.byte	0x8
 9193 24a5 3E       		.byte	0x3e
 9194 24a6 25       		.uleb128 0x25
 9195 24a7 01       		.uleb128 0x1
 9196 24a8 51       		.byte	0x51
 9197 24a9 01       		.uleb128 0x1
 9198 24aa 30       		.byte	0x30
 9199 24ab 25       		.uleb128 0x25
 9200 24ac 01       		.uleb128 0x1
 9201 24ad 50       		.byte	0x50
 9202 24ae 03       		.uleb128 0x3
 9203 24af 91       		.byte	0x91
 9204 24b0 A87F     		.sleb128 -88
 9205 24b2 00       		.byte	0
ARM GAS  C:\Users\Helon\AppData\Local\Temp\ccTLkFeM.s 			page 222


 9206 24b3 24       		.uleb128 0x24
 9207 24b4 42000000 		.4byte	.LVL321
 9208 24b8 52150000 		.4byte	0x1552
 9209 24bc C7240000 		.4byte	0x24c7
 9210 24c0 25       		.uleb128 0x25
 9211 24c1 01       		.uleb128 0x1
 9212 24c2 50       		.byte	0x50
 9213 24c3 02       		.uleb128 0x2
 9214 24c4 74       		.byte	0x74
 9215 24c5 00       		.sleb128 0
 9216 24c6 00       		.byte	0
 9217 24c7 24       		.uleb128 0x24
 9218 24c8 86000000 		.4byte	.LVL323
 9219 24cc 63300000 		.4byte	0x3063
 9220 24d0 DE240000 		.4byte	0x24de
 9221 24d4 25       		.uleb128 0x25
 9222 24d5 01       		.uleb128 0x1
 9223 24d6 50       		.byte	0x50
 9224 24d7 05       		.uleb128 0x5
 9225 24d8 03       		.byte	0x3
 9226 24d9 6F010000 		.4byte	.LC66
 9227 24dd 00       		.byte	0
 9228 24de 26       		.uleb128 0x26
 9229 24df 8A000000 		.4byte	.LVL324
 9230 24e3 92300000 		.4byte	0x3092
 9231 24e7 26       		.uleb128 0x26
 9232 24e8 9A000000 		.4byte	.LVL325
 9233 24ec EE330000 		.4byte	0x33ee
 9234 24f0 24       		.uleb128 0x24
 9235 24f1 AE000000 		.4byte	.LVL331
 9236 24f5 F5330000 		.4byte	0x33f5
 9237 24f9 04250000 		.4byte	0x2504
 9238 24fd 25       		.uleb128 0x25
 9239 24fe 01       		.uleb128 0x1
 9240 24ff 50       		.byte	0x50
 9241 2500 02       		.uleb128 0x2
 9242 2501 74       		.byte	0x74
 9243 2502 00       		.sleb128 0
 9244 2503 00       		.byte	0
 9245 2504 24       		.uleb128 0x24
 9246 2505 C6000000 		.4byte	.LVL332
 9247 2509 7C300000 		.4byte	0x307c
 9248 250d 1B250000 		.4byte	0x251b
 9249 2511 25       		.uleb128 0x25
 9250 2512 01       		.uleb128 0x1
 9251 2513 50       		.byte	0x50
 9252 2514 05       		.uleb128 0x5
 9253 2515 03       		.byte	0x3
 9254 2516 9B030000 		.4byte	.LC153
 9255 251a 00       		.byte	0
 9256 251b 24       		.uleb128 0x24
 9257 251c E2000000 		.4byte	.LVL337
 9258 2520 11340000 		.4byte	0x3411
 9259 2524 30250000 		.4byte	0x2530
 9260 2528 25       		.uleb128 0x25
 9261 2529 01       		.uleb128 0x1
 9262 252a 50       		.byte	0x50
ARM GAS  C:\Users\Helon\AppData\Local\Temp\ccTLkFeM.s 			page 223


 9263 252b 03       		.uleb128 0x3
 9264 252c 91       		.byte	0x91
 9265 252d CC7E     		.sleb128 -180
 9266 252f 00       		.byte	0
 9267 2530 26       		.uleb128 0x26
 9268 2531 F4000000 		.4byte	.LVL340
 9269 2535 2D340000 		.4byte	0x342d
 9270 2539 24       		.uleb128 0x24
 9271 253a FE000000 		.4byte	.LVL341
 9272 253e D1330000 		.4byte	0x33d1
 9273 2542 59250000 		.4byte	0x2559
 9274 2546 25       		.uleb128 0x25
 9275 2547 01       		.uleb128 0x1
 9276 2548 52       		.byte	0x52
 9277 2549 01       		.uleb128 0x1
 9278 254a 4B       		.byte	0x4b
 9279 254b 25       		.uleb128 0x25
 9280 254c 01       		.uleb128 0x1
 9281 254d 51       		.byte	0x51
 9282 254e 02       		.uleb128 0x2
 9283 254f 75       		.byte	0x75
 9284 2550 00       		.sleb128 0
 9285 2551 25       		.uleb128 0x25
 9286 2552 01       		.uleb128 0x1
 9287 2553 50       		.byte	0x50
 9288 2554 03       		.uleb128 0x3
 9289 2555 91       		.byte	0x91
 9290 2556 CC7E     		.sleb128 -180
 9291 2558 00       		.byte	0
 9292 2559 24       		.uleb128 0x24
 9293 255a 0C010000 		.4byte	.LVL342
 9294 255e BD300000 		.4byte	0x30bd
 9295 2562 74250000 		.4byte	0x2574
 9296 2566 25       		.uleb128 0x25
 9297 2567 01       		.uleb128 0x1
 9298 2568 51       		.byte	0x51
 9299 2569 02       		.uleb128 0x2
 9300 256a 74       		.byte	0x74
 9301 256b 23       		.sleb128 35
 9302 256c 25       		.uleb128 0x25
 9303 256d 01       		.uleb128 0x1
 9304 256e 50       		.byte	0x50
 9305 256f 03       		.uleb128 0x3
 9306 2570 91       		.byte	0x91
 9307 2571 CC7E     		.sleb128 -180
 9308 2573 00       		.byte	0
 9309 2574 24       		.uleb128 0x24
 9310 2575 12010000 		.4byte	.LVL343
 9311 2579 35340000 		.4byte	0x3435
 9312 257d 89250000 		.4byte	0x2589
 9313 2581 25       		.uleb128 0x25
 9314 2582 01       		.uleb128 0x1
 9315 2583 50       		.byte	0x50
 9316 2584 03       		.uleb128 0x3
 9317 2585 91       		.byte	0x91
 9318 2586 CC7E     		.sleb128 -180
 9319 2588 00       		.byte	0
ARM GAS  C:\Users\Helon\AppData\Local\Temp\ccTLkFeM.s 			page 224


 9320 2589 26       		.uleb128 0x26
 9321 258a 4C010000 		.4byte	.LVL352
 9322 258e 66220000 		.4byte	0x2266
 9323 2592 24       		.uleb128 0x24
 9324 2593 5E010000 		.4byte	.LVL355
 9325 2597 7C300000 		.4byte	0x307c
 9326 259b A9250000 		.4byte	0x25a9
 9327 259f 25       		.uleb128 0x25
 9328 25a0 01       		.uleb128 0x1
 9329 25a1 50       		.byte	0x50
 9330 25a2 05       		.uleb128 0x5
 9331 25a3 03       		.byte	0x3
 9332 25a4 D8030000 		.4byte	.LC164
 9333 25a8 00       		.byte	0
 9334 25a9 24       		.uleb128 0x24
 9335 25aa 6C010000 		.4byte	.LVL358
 9336 25ae D1330000 		.4byte	0x33d1
 9337 25b2 C8250000 		.4byte	0x25c8
 9338 25b6 25       		.uleb128 0x25
 9339 25b7 01       		.uleb128 0x1
 9340 25b8 52       		.byte	0x52
 9341 25b9 01       		.uleb128 0x1
 9342 25ba 4F       		.byte	0x4f
 9343 25bb 25       		.uleb128 0x25
 9344 25bc 01       		.uleb128 0x1
 9345 25bd 51       		.byte	0x51
 9346 25be 02       		.uleb128 0x2
 9347 25bf 75       		.byte	0x75
 9348 25c0 00       		.sleb128 0
 9349 25c1 25       		.uleb128 0x25
 9350 25c2 01       		.uleb128 0x1
 9351 25c3 50       		.byte	0x50
 9352 25c4 02       		.uleb128 0x2
 9353 25c5 76       		.byte	0x76
 9354 25c6 00       		.sleb128 0
 9355 25c7 00       		.byte	0
 9356 25c8 24       		.uleb128 0x24
 9357 25c9 7C010000 		.4byte	.LVL359
 9358 25cd BD300000 		.4byte	0x30bd
 9359 25d1 E8250000 		.4byte	0x25e8
 9360 25d5 25       		.uleb128 0x25
 9361 25d6 01       		.uleb128 0x1
 9362 25d7 52       		.byte	0x52
 9363 25d8 01       		.uleb128 0x1
 9364 25d9 32       		.byte	0x32
 9365 25da 25       		.uleb128 0x25
 9366 25db 01       		.uleb128 0x1
 9367 25dc 51       		.byte	0x51
 9368 25dd 02       		.uleb128 0x2
 9369 25de 74       		.byte	0x74
 9370 25df 09       		.sleb128 9
 9371 25e0 25       		.uleb128 0x25
 9372 25e1 01       		.uleb128 0x1
 9373 25e2 50       		.byte	0x50
 9374 25e3 03       		.uleb128 0x3
 9375 25e4 91       		.byte	0x91
 9376 25e5 C07E     		.sleb128 -192
ARM GAS  C:\Users\Helon\AppData\Local\Temp\ccTLkFeM.s 			page 225


 9377 25e7 00       		.byte	0
 9378 25e8 24       		.uleb128 0x24
 9379 25e9 86010000 		.4byte	.LVL360
 9380 25ed DD220000 		.4byte	0x22dd
 9381 25f1 08260000 		.4byte	0x2608
 9382 25f5 25       		.uleb128 0x25
 9383 25f6 01       		.uleb128 0x1
 9384 25f7 52       		.byte	0x52
 9385 25f8 01       		.uleb128 0x1
 9386 25f9 31       		.byte	0x31
 9387 25fa 25       		.uleb128 0x25
 9388 25fb 01       		.uleb128 0x1
 9389 25fc 51       		.byte	0x51
 9390 25fd 03       		.uleb128 0x3
 9391 25fe 91       		.byte	0x91
 9392 25ff C07E     		.sleb128 -192
 9393 2601 25       		.uleb128 0x25
 9394 2602 01       		.uleb128 0x1
 9395 2603 50       		.byte	0x50
 9396 2604 02       		.uleb128 0x2
 9397 2605 77       		.byte	0x77
 9398 2606 00       		.sleb128 0
 9399 2607 00       		.byte	0
 9400 2608 24       		.uleb128 0x24
 9401 2609 96010000 		.4byte	.LVL361
 9402 260d BD300000 		.4byte	0x30bd
 9403 2611 23260000 		.4byte	0x2623
 9404 2615 25       		.uleb128 0x25
 9405 2616 01       		.uleb128 0x1
 9406 2617 51       		.byte	0x51
 9407 2618 02       		.uleb128 0x2
 9408 2619 74       		.byte	0x74
 9409 261a 0C       		.sleb128 12
 9410 261b 25       		.uleb128 0x25
 9411 261c 01       		.uleb128 0x1
 9412 261d 50       		.byte	0x50
 9413 261e 03       		.uleb128 0x3
 9414 261f 91       		.byte	0x91
 9415 2620 A87F     		.sleb128 -88
 9416 2622 00       		.byte	0
 9417 2623 24       		.uleb128 0x24
 9418 2624 A0010000 		.4byte	.LVL362
 9419 2628 DD220000 		.4byte	0x22dd
 9420 262c 44260000 		.4byte	0x2644
 9421 2630 25       		.uleb128 0x25
 9422 2631 01       		.uleb128 0x1
 9423 2632 52       		.byte	0x52
 9424 2633 01       		.uleb128 0x1
 9425 2634 4F       		.byte	0x4f
 9426 2635 25       		.uleb128 0x25
 9427 2636 01       		.uleb128 0x1
 9428 2637 51       		.byte	0x51
 9429 2638 03       		.uleb128 0x3
 9430 2639 91       		.byte	0x91
 9431 263a A87F     		.sleb128 -88
 9432 263c 25       		.uleb128 0x25
 9433 263d 01       		.uleb128 0x1
ARM GAS  C:\Users\Helon\AppData\Local\Temp\ccTLkFeM.s 			page 226


 9434 263e 50       		.byte	0x50
 9435 263f 03       		.uleb128 0x3
 9436 2640 91       		.byte	0x91
 9437 2641 E87E     		.sleb128 -152
 9438 2643 00       		.byte	0
 9439 2644 24       		.uleb128 0x24
 9440 2645 AA010000 		.4byte	.LVL363
 9441 2649 BD300000 		.4byte	0x30bd
 9442 264d 5F260000 		.4byte	0x265f
 9443 2651 25       		.uleb128 0x25
 9444 2652 01       		.uleb128 0x1
 9445 2653 51       		.byte	0x51
 9446 2654 03       		.uleb128 0x3
 9447 2655 91       		.byte	0x91
 9448 2656 E87E     		.sleb128 -152
 9449 2658 25       		.uleb128 0x25
 9450 2659 01       		.uleb128 0x1
 9451 265a 50       		.byte	0x50
 9452 265b 02       		.uleb128 0x2
 9453 265c 76       		.byte	0x76
 9454 265d 00       		.sleb128 0
 9455 265e 00       		.byte	0
 9456 265f 24       		.uleb128 0x24
 9457 2660 B2010000 		.4byte	.LVL364
 9458 2664 56340000 		.4byte	0x3456
 9459 2668 79260000 		.4byte	0x2679
 9460 266c 25       		.uleb128 0x25
 9461 266d 01       		.uleb128 0x1
 9462 266e 51       		.byte	0x51
 9463 266f 02       		.uleb128 0x2
 9464 2670 75       		.byte	0x75
 9465 2671 00       		.sleb128 0
 9466 2672 25       		.uleb128 0x25
 9467 2673 01       		.uleb128 0x1
 9468 2674 50       		.byte	0x50
 9469 2675 02       		.uleb128 0x2
 9470 2676 76       		.byte	0x76
 9471 2677 00       		.sleb128 0
 9472 2678 00       		.byte	0
 9473 2679 24       		.uleb128 0x24
 9474 267a C4010000 		.4byte	.LVL366
 9475 267e BD300000 		.4byte	0x30bd
 9476 2682 8E260000 		.4byte	0x268e
 9477 2686 25       		.uleb128 0x25
 9478 2687 01       		.uleb128 0x1
 9479 2688 51       		.byte	0x51
 9480 2689 03       		.uleb128 0x3
 9481 268a 91       		.byte	0x91
 9482 268b E87E     		.sleb128 -152
 9483 268d 00       		.byte	0
 9484 268e 24       		.uleb128 0x24
 9485 268f DA010000 		.4byte	.LVL369
 9486 2693 7C300000 		.4byte	0x307c
 9487 2697 A5260000 		.4byte	0x26a5
 9488 269b 25       		.uleb128 0x25
 9489 269c 01       		.uleb128 0x1
 9490 269d 50       		.byte	0x50
ARM GAS  C:\Users\Helon\AppData\Local\Temp\ccTLkFeM.s 			page 227


 9491 269e 05       		.uleb128 0x5
 9492 269f 03       		.byte	0x3
 9493 26a0 E2030000 		.4byte	.LC166
 9494 26a4 00       		.byte	0
 9495 26a5 24       		.uleb128 0x24
 9496 26a6 2C020000 		.4byte	.LVL383
 9497 26aa 7C300000 		.4byte	0x307c
 9498 26ae C2260000 		.4byte	0x26c2
 9499 26b2 25       		.uleb128 0x25
 9500 26b3 01       		.uleb128 0x1
 9501 26b4 51       		.byte	0x51
 9502 26b5 02       		.uleb128 0x2
 9503 26b6 74       		.byte	0x74
 9504 26b7 00       		.sleb128 0
 9505 26b8 25       		.uleb128 0x25
 9506 26b9 01       		.uleb128 0x1
 9507 26ba 50       		.byte	0x50
 9508 26bb 05       		.uleb128 0x5
 9509 26bc 03       		.byte	0x3
 9510 26bd EA030000 		.4byte	.LC170
 9511 26c1 00       		.byte	0
 9512 26c2 26       		.uleb128 0x26
 9513 26c3 30020000 		.4byte	.LVL384
 9514 26c7 92300000 		.4byte	0x3092
 9515 26cb 24       		.uleb128 0x24
 9516 26cc 56020000 		.4byte	.LVL388
 9517 26d0 DD220000 		.4byte	0x22dd
 9518 26d4 EA260000 		.4byte	0x26ea
 9519 26d8 25       		.uleb128 0x25
 9520 26d9 01       		.uleb128 0x1
 9521 26da 52       		.byte	0x52
 9522 26db 01       		.uleb128 0x1
 9523 26dc 31       		.byte	0x31
 9524 26dd 25       		.uleb128 0x25
 9525 26de 01       		.uleb128 0x1
 9526 26df 51       		.byte	0x51
 9527 26e0 02       		.uleb128 0x2
 9528 26e1 75       		.byte	0x75
 9529 26e2 00       		.sleb128 0
 9530 26e3 25       		.uleb128 0x25
 9531 26e4 01       		.uleb128 0x1
 9532 26e5 50       		.byte	0x50
 9533 26e6 02       		.uleb128 0x2
 9534 26e7 76       		.byte	0x76
 9535 26e8 00       		.sleb128 0
 9536 26e9 00       		.byte	0
 9537 26ea 24       		.uleb128 0x24
 9538 26eb 70020000 		.4byte	.LVL389
 9539 26ef DD220000 		.4byte	0x22dd
 9540 26f3 09270000 		.4byte	0x2709
 9541 26f7 25       		.uleb128 0x25
 9542 26f8 01       		.uleb128 0x1
 9543 26f9 52       		.byte	0x52
 9544 26fa 01       		.uleb128 0x1
 9545 26fb 31       		.byte	0x31
 9546 26fc 25       		.uleb128 0x25
 9547 26fd 01       		.uleb128 0x1
ARM GAS  C:\Users\Helon\AppData\Local\Temp\ccTLkFeM.s 			page 228


 9548 26fe 51       		.byte	0x51
 9549 26ff 02       		.uleb128 0x2
 9550 2700 75       		.byte	0x75
 9551 2701 00       		.sleb128 0
 9552 2702 25       		.uleb128 0x25
 9553 2703 01       		.uleb128 0x1
 9554 2704 50       		.byte	0x50
 9555 2705 02       		.uleb128 0x2
 9556 2706 76       		.byte	0x76
 9557 2707 00       		.sleb128 0
 9558 2708 00       		.byte	0
 9559 2709 24       		.uleb128 0x24
 9560 270a 88020000 		.4byte	.LVL390
 9561 270e DD220000 		.4byte	0x22dd
 9562 2712 28270000 		.4byte	0x2728
 9563 2716 25       		.uleb128 0x25
 9564 2717 01       		.uleb128 0x1
 9565 2718 52       		.byte	0x52
 9566 2719 01       		.uleb128 0x1
 9567 271a 31       		.byte	0x31
 9568 271b 25       		.uleb128 0x25
 9569 271c 01       		.uleb128 0x1
 9570 271d 51       		.byte	0x51
 9571 271e 02       		.uleb128 0x2
 9572 271f 75       		.byte	0x75
 9573 2720 00       		.sleb128 0
 9574 2721 25       		.uleb128 0x25
 9575 2722 01       		.uleb128 0x1
 9576 2723 50       		.byte	0x50
 9577 2724 02       		.uleb128 0x2
 9578 2725 76       		.byte	0x76
 9579 2726 00       		.sleb128 0
 9580 2727 00       		.byte	0
 9581 2728 24       		.uleb128 0x24
 9582 2729 B2020000 		.4byte	.LVL393
 9583 272d 7C300000 		.4byte	0x307c
 9584 2731 3F270000 		.4byte	0x273f
 9585 2735 25       		.uleb128 0x25
 9586 2736 01       		.uleb128 0x1
 9587 2737 50       		.byte	0x50
 9588 2738 05       		.uleb128 0x5
 9589 2739 03       		.byte	0x3
 9590 273a 15040000 		.4byte	.LC172
 9591 273e 00       		.byte	0
 9592 273f 24       		.uleb128 0x24
 9593 2740 D0020000 		.4byte	.LVL396
 9594 2744 DD220000 		.4byte	0x22dd
 9595 2748 5F270000 		.4byte	0x275f
 9596 274c 25       		.uleb128 0x25
 9597 274d 01       		.uleb128 0x1
 9598 274e 52       		.byte	0x52
 9599 274f 02       		.uleb128 0x2
 9600 2750 77       		.byte	0x77
 9601 2751 00       		.sleb128 0
 9602 2752 25       		.uleb128 0x25
 9603 2753 01       		.uleb128 0x1
 9604 2754 51       		.byte	0x51
ARM GAS  C:\Users\Helon\AppData\Local\Temp\ccTLkFeM.s 			page 229


 9605 2755 02       		.uleb128 0x2
 9606 2756 75       		.byte	0x75
 9607 2757 00       		.sleb128 0
 9608 2758 25       		.uleb128 0x25
 9609 2759 01       		.uleb128 0x1
 9610 275a 50       		.byte	0x50
 9611 275b 02       		.uleb128 0x2
 9612 275c 76       		.byte	0x76
 9613 275d 00       		.sleb128 0
 9614 275e 00       		.byte	0
 9615 275f 24       		.uleb128 0x24
 9616 2760 E8020000 		.4byte	.LVL397
 9617 2764 DD220000 		.4byte	0x22dd
 9618 2768 7F270000 		.4byte	0x277f
 9619 276c 25       		.uleb128 0x25
 9620 276d 01       		.uleb128 0x1
 9621 276e 52       		.byte	0x52
 9622 276f 02       		.uleb128 0x2
 9623 2770 77       		.byte	0x77
 9624 2771 00       		.sleb128 0
 9625 2772 25       		.uleb128 0x25
 9626 2773 01       		.uleb128 0x1
 9627 2774 51       		.byte	0x51
 9628 2775 02       		.uleb128 0x2
 9629 2776 75       		.byte	0x75
 9630 2777 00       		.sleb128 0
 9631 2778 25       		.uleb128 0x25
 9632 2779 01       		.uleb128 0x1
 9633 277a 50       		.byte	0x50
 9634 277b 02       		.uleb128 0x2
 9635 277c 76       		.byte	0x76
 9636 277d 00       		.sleb128 0
 9637 277e 00       		.byte	0
 9638 277f 24       		.uleb128 0x24
 9639 2780 F8020000 		.4byte	.LVL398
 9640 2784 02310000 		.4byte	0x3102
 9641 2788 96270000 		.4byte	0x2796
 9642 278c 25       		.uleb128 0x25
 9643 278d 01       		.uleb128 0x1
 9644 278e 51       		.byte	0x51
 9645 278f 05       		.uleb128 0x5
 9646 2790 03       		.byte	0x3
 9647 2791 00000000 		.4byte	.LANCHOR1
 9648 2795 00       		.byte	0
 9649 2796 24       		.uleb128 0x24
 9650 2797 32030000 		.4byte	.LVL404
 9651 279b 71340000 		.4byte	0x3471
 9652 279f B1270000 		.4byte	0x27b1
 9653 27a3 25       		.uleb128 0x25
 9654 27a4 01       		.uleb128 0x1
 9655 27a5 51       		.byte	0x51
 9656 27a6 03       		.uleb128 0x3
 9657 27a7 91       		.byte	0x91
 9658 27a8 C87E     		.sleb128 -184
 9659 27aa 25       		.uleb128 0x25
 9660 27ab 01       		.uleb128 0x1
 9661 27ac 50       		.byte	0x50
ARM GAS  C:\Users\Helon\AppData\Local\Temp\ccTLkFeM.s 			page 230


 9662 27ad 02       		.uleb128 0x2
 9663 27ae 74       		.byte	0x74
 9664 27af 00       		.sleb128 0
 9665 27b0 00       		.byte	0
 9666 27b1 26       		.uleb128 0x26
 9667 27b2 40030000 		.4byte	.LVL405
 9668 27b6 B5300000 		.4byte	0x30b5
 9669 27ba 24       		.uleb128 0x24
 9670 27bb 46030000 		.4byte	.LVL406
 9671 27bf 91340000 		.4byte	0x3491
 9672 27c3 CE270000 		.4byte	0x27ce
 9673 27c7 25       		.uleb128 0x25
 9674 27c8 01       		.uleb128 0x1
 9675 27c9 50       		.byte	0x50
 9676 27ca 02       		.uleb128 0x2
 9677 27cb 74       		.byte	0x74
 9678 27cc 00       		.sleb128 0
 9679 27cd 00       		.byte	0
 9680 27ce 24       		.uleb128 0x24
 9681 27cf 5E030000 		.4byte	.LVL410
 9682 27d3 71340000 		.4byte	0x3471
 9683 27d7 E8270000 		.4byte	0x27e8
 9684 27db 25       		.uleb128 0x25
 9685 27dc 01       		.uleb128 0x1
 9686 27dd 51       		.byte	0x51
 9687 27de 03       		.uleb128 0x3
 9688 27df 91       		.byte	0x91
 9689 27e0 C87E     		.sleb128 -184
 9690 27e2 25       		.uleb128 0x25
 9691 27e3 01       		.uleb128 0x1
 9692 27e4 50       		.byte	0x50
 9693 27e5 01       		.uleb128 0x1
 9694 27e6 30       		.byte	0x30
 9695 27e7 00       		.byte	0
 9696 27e8 26       		.uleb128 0x26
 9697 27e9 6C030000 		.4byte	.LVL411
 9698 27ed 2D340000 		.4byte	0x342d
 9699 27f1 24       		.uleb128 0x24
 9700 27f2 72030000 		.4byte	.LVL412
 9701 27f6 A7340000 		.4byte	0x34a7
 9702 27fa 04280000 		.4byte	0x2804
 9703 27fe 25       		.uleb128 0x25
 9704 27ff 01       		.uleb128 0x1
 9705 2800 50       		.byte	0x50
 9706 2801 01       		.uleb128 0x1
 9707 2802 30       		.byte	0x30
 9708 2803 00       		.byte	0
 9709 2804 24       		.uleb128 0x24
 9710 2805 98030000 		.4byte	.LVL415
 9711 2809 BD340000 		.4byte	0x34bd
 9712 280d 19280000 		.4byte	0x2819
 9713 2811 25       		.uleb128 0x25
 9714 2812 01       		.uleb128 0x1
 9715 2813 51       		.byte	0x51
 9716 2814 03       		.uleb128 0x3
 9717 2815 91       		.byte	0x91
 9718 2816 887F     		.sleb128 -120
ARM GAS  C:\Users\Helon\AppData\Local\Temp\ccTLkFeM.s 			page 231


 9719 2818 00       		.byte	0
 9720 2819 26       		.uleb128 0x26
 9721 281a B8030000 		.4byte	.LVL417
 9722 281e DE340000 		.4byte	0x34de
 9723 2822 24       		.uleb128 0x24
 9724 2823 BE030000 		.4byte	.LVL418
 9725 2827 A7340000 		.4byte	0x34a7
 9726 282b 35280000 		.4byte	0x2835
 9727 282f 25       		.uleb128 0x25
 9728 2830 01       		.uleb128 0x1
 9729 2831 50       		.byte	0x50
 9730 2832 01       		.uleb128 0x1
 9731 2833 30       		.byte	0x30
 9732 2834 00       		.byte	0
 9733 2835 26       		.uleb128 0x26
 9734 2836 2E040000 		.4byte	.LVL420
 9735 283a DE340000 		.4byte	0x34de
 9736 283e 26       		.uleb128 0x26
 9737 283f 32040000 		.4byte	.LVL421
 9738 2843 B5300000 		.4byte	0x30b5
 9739 2847 24       		.uleb128 0x24
 9740 2848 70040000 		.4byte	.LVL425
 9741 284c 7C300000 		.4byte	0x307c
 9742 2850 65280000 		.4byte	0x2865
 9743 2854 25       		.uleb128 0x25
 9744 2855 01       		.uleb128 0x1
 9745 2856 50       		.byte	0x50
 9746 2857 05       		.uleb128 0x5
 9747 2858 03       		.byte	0x3
 9748 2859 76040000 		.4byte	.LC181
 9749 285d 25       		.uleb128 0x25
 9750 285e 02       		.uleb128 0x2
 9751 285f 7D       		.byte	0x7d
 9752 2860 04       		.sleb128 4
 9753 2861 02       		.uleb128 0x2
 9754 2862 77       		.byte	0x77
 9755 2863 00       		.sleb128 0
 9756 2864 00       		.byte	0
 9757 2865 26       		.uleb128 0x26
 9758 2866 82040000 		.4byte	.LVL429
 9759 286a 9E150000 		.4byte	0x159e
 9760 286e 26       		.uleb128 0x26
 9761 286f 9E040000 		.4byte	.LVL433
 9762 2873 E5340000 		.4byte	0x34e5
 9763 2877 24       		.uleb128 0x24
 9764 2878 B0040000 		.4byte	.LVL436
 9765 287c 7C300000 		.4byte	0x307c
 9766 2880 93280000 		.4byte	0x2893
 9767 2884 25       		.uleb128 0x25
 9768 2885 01       		.uleb128 0x1
 9769 2886 51       		.byte	0x51
 9770 2887 01       		.uleb128 0x1
 9771 2888 31       		.byte	0x31
 9772 2889 25       		.uleb128 0x25
 9773 288a 01       		.uleb128 0x1
 9774 288b 50       		.byte	0x50
 9775 288c 05       		.uleb128 0x5
ARM GAS  C:\Users\Helon\AppData\Local\Temp\ccTLkFeM.s 			page 232


 9776 288d 03       		.byte	0x3
 9777 288e 5A010000 		.4byte	.LC63
 9778 2892 00       		.byte	0
 9779 2893 24       		.uleb128 0x24
 9780 2894 D8040000 		.4byte	.LVL441
 9781 2898 D1330000 		.4byte	0x33d1
 9782 289c B8280000 		.4byte	0x28b8
 9783 28a0 25       		.uleb128 0x25
 9784 28a1 01       		.uleb128 0x1
 9785 28a2 52       		.byte	0x52
 9786 28a3 01       		.uleb128 0x1
 9787 28a4 36       		.byte	0x36
 9788 28a5 25       		.uleb128 0x25
 9789 28a6 01       		.uleb128 0x1
 9790 28a7 51       		.byte	0x51
 9791 28a8 01       		.uleb128 0x1
 9792 28a9 30       		.byte	0x30
 9793 28aa 25       		.uleb128 0x25
 9794 28ab 01       		.uleb128 0x1
 9795 28ac 50       		.byte	0x50
 9796 28ad 09       		.uleb128 0x9
 9797 28ae 74       		.byte	0x74
 9798 28af 00       		.sleb128 0
 9799 28b0 37       		.byte	0x37
 9800 28b1 1E       		.byte	0x1e
 9801 28b2 75       		.byte	0x75
 9802 28b3 00       		.sleb128 0
 9803 28b4 22       		.byte	0x22
 9804 28b5 23       		.byte	0x23
 9805 28b6 09       		.uleb128 0x9
 9806 28b7 00       		.byte	0
 9807 28b8 26       		.uleb128 0x26
 9808 28b9 FA040000 		.4byte	.LVL444
 9809 28bd FB340000 		.4byte	0x34fb
 9810 28c1 26       		.uleb128 0x26
 9811 28c2 02050000 		.4byte	.LVL446
 9812 28c6 7C300000 		.4byte	0x307c
 9813 28ca 24       		.uleb128 0x24
 9814 28cb 16050000 		.4byte	.LVL450
 9815 28cf 7C300000 		.4byte	0x307c
 9816 28d3 E1280000 		.4byte	0x28e1
 9817 28d7 25       		.uleb128 0x25
 9818 28d8 01       		.uleb128 0x1
 9819 28d9 50       		.byte	0x50
 9820 28da 05       		.uleb128 0x5
 9821 28db 03       		.byte	0x3
 9822 28dc B2040000 		.4byte	.LC188
 9823 28e0 00       		.byte	0
 9824 28e1 24       		.uleb128 0x24
 9825 28e2 4C050000 		.4byte	.LVL457
 9826 28e6 5D330000 		.4byte	0x335d
 9827 28ea F8280000 		.4byte	0x28f8
 9828 28ee 25       		.uleb128 0x25
 9829 28ef 01       		.uleb128 0x1
 9830 28f0 51       		.byte	0x51
 9831 28f1 05       		.uleb128 0x5
 9832 28f2 03       		.byte	0x3
ARM GAS  C:\Users\Helon\AppData\Local\Temp\ccTLkFeM.s 			page 233


 9833 28f3 00000000 		.4byte	writeRequestData
 9834 28f7 00       		.byte	0
 9835 28f8 24       		.uleb128 0x24
 9836 28f9 C8050000 		.4byte	.LVL470
 9837 28fd 91340000 		.4byte	0x3491
 9838 2901 0B290000 		.4byte	0x290b
 9839 2905 25       		.uleb128 0x25
 9840 2906 01       		.uleb128 0x1
 9841 2907 50       		.byte	0x50
 9842 2908 01       		.uleb128 0x1
 9843 2909 30       		.byte	0x30
 9844 290a 00       		.byte	0
 9845 290b 26       		.uleb128 0x26
 9846 290c DA050000 		.4byte	.LVL472
 9847 2910 2D340000 		.4byte	0x342d
 9848 2914 24       		.uleb128 0x24
 9849 2915 0A060000 		.4byte	.LVL477
 9850 2919 07350000 		.4byte	0x3507
 9851 291d 27290000 		.4byte	0x2927
 9852 2921 25       		.uleb128 0x25
 9853 2922 01       		.uleb128 0x1
 9854 2923 50       		.byte	0x50
 9855 2924 01       		.uleb128 0x1
 9856 2925 30       		.byte	0x30
 9857 2926 00       		.byte	0
 9858 2927 24       		.uleb128 0x24
 9859 2928 16060000 		.4byte	.LVL480
 9860 292c 63300000 		.4byte	0x3063
 9861 2930 3E290000 		.4byte	0x293e
 9862 2934 25       		.uleb128 0x25
 9863 2935 01       		.uleb128 0x1
 9864 2936 50       		.byte	0x50
 9865 2937 05       		.uleb128 0x5
 9866 2938 03       		.byte	0x3
 9867 2939 6F010000 		.4byte	.LC66
 9868 293d 00       		.byte	0
 9869 293e 24       		.uleb128 0x24
 9870 293f 24060000 		.4byte	.LVL483
 9871 2943 07350000 		.4byte	0x3507
 9872 2947 51290000 		.4byte	0x2951
 9873 294b 25       		.uleb128 0x25
 9874 294c 01       		.uleb128 0x1
 9875 294d 50       		.byte	0x50
 9876 294e 01       		.uleb128 0x1
 9877 294f 31       		.byte	0x31
 9878 2950 00       		.byte	0
 9879 2951 24       		.uleb128 0x24
 9880 2952 30060000 		.4byte	.LVL485
 9881 2956 63300000 		.4byte	0x3063
 9882 295a 68290000 		.4byte	0x2968
 9883 295e 25       		.uleb128 0x25
 9884 295f 01       		.uleb128 0x1
 9885 2960 50       		.byte	0x50
 9886 2961 05       		.uleb128 0x5
 9887 2962 03       		.byte	0x3
 9888 2963 6F010000 		.4byte	.LC66
 9889 2967 00       		.byte	0
ARM GAS  C:\Users\Helon\AppData\Local\Temp\ccTLkFeM.s 			page 234


 9890 2968 24       		.uleb128 0x24
 9891 2969 3A060000 		.4byte	.LVL488
 9892 296d 07350000 		.4byte	0x3507
 9893 2971 7B290000 		.4byte	0x297b
 9894 2975 25       		.uleb128 0x25
 9895 2976 01       		.uleb128 0x1
 9896 2977 50       		.byte	0x50
 9897 2978 01       		.uleb128 0x1
 9898 2979 32       		.byte	0x32
 9899 297a 00       		.byte	0
 9900 297b 24       		.uleb128 0x24
 9901 297c 46060000 		.4byte	.LVL490
 9902 2980 63300000 		.4byte	0x3063
 9903 2984 92290000 		.4byte	0x2992
 9904 2988 25       		.uleb128 0x25
 9905 2989 01       		.uleb128 0x1
 9906 298a 50       		.byte	0x50
 9907 298b 05       		.uleb128 0x5
 9908 298c 03       		.byte	0x3
 9909 298d 6F010000 		.4byte	.LC66
 9910 2991 00       		.byte	0
 9911 2992 24       		.uleb128 0x24
 9912 2993 50060000 		.4byte	.LVL493
 9913 2997 07350000 		.4byte	0x3507
 9914 299b A5290000 		.4byte	0x29a5
 9915 299f 25       		.uleb128 0x25
 9916 29a0 01       		.uleb128 0x1
 9917 29a1 50       		.byte	0x50
 9918 29a2 01       		.uleb128 0x1
 9919 29a3 33       		.byte	0x33
 9920 29a4 00       		.byte	0
 9921 29a5 24       		.uleb128 0x24
 9922 29a6 5C060000 		.4byte	.LVL495
 9923 29aa 63300000 		.4byte	0x3063
 9924 29ae BC290000 		.4byte	0x29bc
 9925 29b2 25       		.uleb128 0x25
 9926 29b3 01       		.uleb128 0x1
 9927 29b4 50       		.byte	0x50
 9928 29b5 05       		.uleb128 0x5
 9929 29b6 03       		.byte	0x3
 9930 29b7 6F010000 		.4byte	.LC66
 9931 29bb 00       		.byte	0
 9932 29bc 24       		.uleb128 0x24
 9933 29bd 66060000 		.4byte	.LVL498
 9934 29c1 07350000 		.4byte	0x3507
 9935 29c5 CF290000 		.4byte	0x29cf
 9936 29c9 25       		.uleb128 0x25
 9937 29ca 01       		.uleb128 0x1
 9938 29cb 50       		.byte	0x50
 9939 29cc 01       		.uleb128 0x1
 9940 29cd 34       		.byte	0x34
 9941 29ce 00       		.byte	0
 9942 29cf 24       		.uleb128 0x24
 9943 29d0 72060000 		.4byte	.LVL500
 9944 29d4 63300000 		.4byte	0x3063
 9945 29d8 E6290000 		.4byte	0x29e6
 9946 29dc 25       		.uleb128 0x25
ARM GAS  C:\Users\Helon\AppData\Local\Temp\ccTLkFeM.s 			page 235


 9947 29dd 01       		.uleb128 0x1
 9948 29de 50       		.byte	0x50
 9949 29df 05       		.uleb128 0x5
 9950 29e0 03       		.byte	0x3
 9951 29e1 6F010000 		.4byte	.LC66
 9952 29e5 00       		.byte	0
 9953 29e6 26       		.uleb128 0x26
 9954 29e7 BA060000 		.4byte	.LVL508
 9955 29eb 63300000 		.4byte	0x3063
 9956 29ef 26       		.uleb128 0x26
 9957 29f0 D4060000 		.4byte	.LVL512
 9958 29f4 1D350000 		.4byte	0x351d
 9959 29f8 00       		.byte	0
 9960 29f9 28       		.uleb128 0x28
 9961 29fa E8150000 		.4byte	0x15e8
 9962 29fe 00000000 		.4byte	.LFB43
 9963 2a02 0C000000 		.4byte	.LFE43-.LFB43
 9964 2a06 01       		.uleb128 0x1
 9965 2a07 9C       		.byte	0x9c
 9966 2a08 7C2A0000 		.4byte	0x2a7c
 9967 2a0c 2F       		.uleb128 0x2f
 9968 2a0d F5150000 		.4byte	0x15f5
 9969 2a11 57140000 		.4byte	.LLST46
 9970 2a15 31       		.uleb128 0x31
 9971 2a16 01160000 		.4byte	0x1601
 9972 2a1a 31       		.uleb128 0x31
 9973 2a1b 0D160000 		.4byte	0x160d
 9974 2a1f 31       		.uleb128 0x31
 9975 2a20 17160000 		.4byte	0x1617
 9976 2a24 31       		.uleb128 0x31
 9977 2a25 23160000 		.4byte	0x1623
 9978 2a29 31       		.uleb128 0x31
 9979 2a2a 2F160000 		.4byte	0x162f
 9980 2a2e 31       		.uleb128 0x31
 9981 2a2f 3B160000 		.4byte	0x163b
 9982 2a33 31       		.uleb128 0x31
 9983 2a34 47160000 		.4byte	0x1647
 9984 2a38 31       		.uleb128 0x31
 9985 2a39 53160000 		.4byte	0x1653
 9986 2a3d 31       		.uleb128 0x31
 9987 2a3e 5F160000 		.4byte	0x165f
 9988 2a42 31       		.uleb128 0x31
 9989 2a43 6B160000 		.4byte	0x166b
 9990 2a47 31       		.uleb128 0x31
 9991 2a48 77160000 		.4byte	0x1677
 9992 2a4c 31       		.uleb128 0x31
 9993 2a4d 83160000 		.4byte	0x1683
 9994 2a51 31       		.uleb128 0x31
 9995 2a52 8F160000 		.4byte	0x168f
 9996 2a56 31       		.uleb128 0x31
 9997 2a57 9B160000 		.4byte	0x169b
 9998 2a5b 31       		.uleb128 0x31
 9999 2a5c A7160000 		.4byte	0x16a7
 10000 2a60 31       		.uleb128 0x31
 10001 2a61 B3160000 		.4byte	0x16b3
 10002 2a65 31       		.uleb128 0x31
 10003 2a66 BF160000 		.4byte	0x16bf
ARM GAS  C:\Users\Helon\AppData\Local\Temp\ccTLkFeM.s 			page 236


 10004 2a6a 27       		.uleb128 0x27
 10005 2a6b 0A000000 		.4byte	.LVL515
 10006 2a6f A0230000 		.4byte	0x23a0
 10007 2a73 25       		.uleb128 0x25
 10008 2a74 01       		.uleb128 0x1
 10009 2a75 50       		.byte	0x50
 10010 2a76 03       		.uleb128 0x3
 10011 2a77 F3       		.byte	0xf3
 10012 2a78 01       		.uleb128 0x1
 10013 2a79 50       		.byte	0x50
 10014 2a7a 00       		.byte	0
 10015 2a7b 00       		.byte	0
 10016 2a7c 3C       		.uleb128 0x3c
 10017 2a7d CE070000 		.4byte	.LASF633
 10018 2a81 01       		.byte	0x1
 10019 2a82 A306     		.2byte	0x6a3
 10020 2a84 00000000 		.4byte	.LFB48
 10021 2a88 54020000 		.4byte	.LFE48-.LFB48
 10022 2a8c 01       		.uleb128 0x1
 10023 2a8d 9C       		.byte	0x9c
 10024 2a8e 3E2D0000 		.4byte	0x2d3e
 10025 2a92 38       		.uleb128 0x38
 10026 2a93 E81F0000 		.4byte	.LASF634
 10027 2a97 01       		.byte	0x1
 10028 2a98 A306     		.2byte	0x6a3
 10029 2a9a B4000000 		.4byte	0xb4
 10030 2a9e 78140000 		.4byte	.LLST47
 10031 2aa2 2C       		.uleb128 0x2c
 10032 2aa3 051E0000 		.4byte	.LASF635
 10033 2aa7 01       		.byte	0x1
 10034 2aa8 A506     		.2byte	0x6a5
 10035 2aaa B4000000 		.4byte	0xb4
 10036 2aae 99140000 		.4byte	.LLST48
 10037 2ab2 2C       		.uleb128 0x2c
 10038 2ab3 48440000 		.4byte	.LASF636
 10039 2ab7 01       		.byte	0x1
 10040 2ab8 A606     		.2byte	0x6a6
 10041 2aba F6000000 		.4byte	0xf6
 10042 2abe 04150000 		.4byte	.LLST49
 10043 2ac2 39       		.uleb128 0x39
 10044 2ac3 706F7700 		.ascii	"pow\000"
 10045 2ac7 01       		.byte	0x1
 10046 2ac8 A706     		.2byte	0x6a7
 10047 2aca F6000000 		.4byte	0xf6
 10048 2ace 3B150000 		.4byte	.LLST50
 10049 2ad2 2C       		.uleb128 0x2c
 10050 2ad3 BA1C0000 		.4byte	.LASF637
 10051 2ad7 01       		.byte	0x1
 10052 2ad8 A806     		.2byte	0x6a8
 10053 2ada E0000000 		.4byte	0xe0
 10054 2ade 5E150000 		.4byte	.LLST51
 10055 2ae2 3D       		.uleb128 0x3d
 10056 2ae3 512D0000 		.4byte	0x2d51
 10057 2ae7 AA150000 		.4byte	.LLST52
 10058 2aeb 2C       		.uleb128 0x2c
 10059 2aec A9220000 		.4byte	.LASF638
 10060 2af0 01       		.byte	0x1
ARM GAS  C:\Users\Helon\AppData\Local\Temp\ccTLkFeM.s 			page 237


 10061 2af1 A906     		.2byte	0x6a9
 10062 2af3 3E2D0000 		.4byte	0x2d3e
 10063 2af7 CA150000 		.4byte	.LLST53
 10064 2afb 2C       		.uleb128 0x2c
 10065 2afc ED3A0000 		.4byte	.LASF588
 10066 2b00 01       		.byte	0x1
 10067 2b01 AA06     		.2byte	0x6aa
 10068 2b03 AF030000 		.4byte	0x3af
 10069 2b07 04160000 		.4byte	.LLST54
 10070 2b0b 2C       		.uleb128 0x2c
 10071 2b0c 39330000 		.4byte	.LASF639
 10072 2b10 01       		.byte	0x1
 10073 2b11 AB06     		.2byte	0x6ab
 10074 2b13 CA000000 		.4byte	0xca
 10075 2b17 8A160000 		.4byte	.LLST55
 10076 2b1b 35       		.uleb128 0x35
 10077 2b1c CA2B0000 		.4byte	.LASF640
 10078 2b20 01       		.byte	0x1
 10079 2b21 AC06     		.2byte	0x6ac
 10080 2b23 EB000000 		.4byte	0xeb
 10081 2b27 05       		.uleb128 0x5
 10082 2b28 03       		.byte	0x3
 10083 2b29 7E000000 		.4byte	uartIdleCount.7941
 10084 2b2d 35       		.uleb128 0x35
 10085 2b2e 3E2F0000 		.4byte	.LASF641
 10086 2b32 01       		.byte	0x1
 10087 2b33 AE06     		.2byte	0x6ae
 10088 2b35 ED090000 		.4byte	0x9ed
 10089 2b39 02       		.uleb128 0x2
 10090 2b3a 91       		.byte	0x91
 10091 2b3b 5C       		.sleb128 -36
 10092 2b3c 3E       		.uleb128 0x3e
 10093 2b3d E8150000 		.4byte	0x15e8
 10094 2b41 EA010000 		.4byte	.LBB42
 10095 2b45 06000000 		.4byte	.LBE42-.LBB42
 10096 2b49 01       		.byte	0x1
 10097 2b4a 5407     		.2byte	0x754
 10098 2b4c C92B0000 		.4byte	0x2bc9
 10099 2b50 2F       		.uleb128 0x2f
 10100 2b51 F5150000 		.4byte	0x15f5
 10101 2b55 CB160000 		.4byte	.LLST56
 10102 2b59 32       		.uleb128 0x32
 10103 2b5a EA010000 		.4byte	.LBB43
 10104 2b5e 06000000 		.4byte	.LBE43-.LBB43
 10105 2b62 31       		.uleb128 0x31
 10106 2b63 01160000 		.4byte	0x1601
 10107 2b67 31       		.uleb128 0x31
 10108 2b68 0D160000 		.4byte	0x160d
 10109 2b6c 31       		.uleb128 0x31
 10110 2b6d 17160000 		.4byte	0x1617
 10111 2b71 31       		.uleb128 0x31
 10112 2b72 23160000 		.4byte	0x1623
 10113 2b76 31       		.uleb128 0x31
 10114 2b77 2F160000 		.4byte	0x162f
 10115 2b7b 31       		.uleb128 0x31
 10116 2b7c 3B160000 		.4byte	0x163b
 10117 2b80 31       		.uleb128 0x31
ARM GAS  C:\Users\Helon\AppData\Local\Temp\ccTLkFeM.s 			page 238


 10118 2b81 47160000 		.4byte	0x1647
 10119 2b85 31       		.uleb128 0x31
 10120 2b86 53160000 		.4byte	0x1653
 10121 2b8a 31       		.uleb128 0x31
 10122 2b8b 5F160000 		.4byte	0x165f
 10123 2b8f 31       		.uleb128 0x31
 10124 2b90 6B160000 		.4byte	0x166b
 10125 2b94 31       		.uleb128 0x31
 10126 2b95 77160000 		.4byte	0x1677
 10127 2b99 31       		.uleb128 0x31
 10128 2b9a 83160000 		.4byte	0x1683
 10129 2b9e 31       		.uleb128 0x31
 10130 2b9f 8F160000 		.4byte	0x168f
 10131 2ba3 31       		.uleb128 0x31
 10132 2ba4 9B160000 		.4byte	0x169b
 10133 2ba8 31       		.uleb128 0x31
 10134 2ba9 A7160000 		.4byte	0x16a7
 10135 2bad 31       		.uleb128 0x31
 10136 2bae B3160000 		.4byte	0x16b3
 10137 2bb2 31       		.uleb128 0x31
 10138 2bb3 BF160000 		.4byte	0x16bf
 10139 2bb7 27       		.uleb128 0x27
 10140 2bb8 F0010000 		.4byte	.LVL571
 10141 2bbc A0230000 		.4byte	0x23a0
 10142 2bc0 25       		.uleb128 0x25
 10143 2bc1 01       		.uleb128 0x1
 10144 2bc2 50       		.byte	0x50
 10145 2bc3 02       		.uleb128 0x2
 10146 2bc4 75       		.byte	0x75
 10147 2bc5 00       		.sleb128 0
 10148 2bc6 00       		.byte	0
 10149 2bc7 00       		.byte	0
 10150 2bc8 00       		.byte	0
 10151 2bc9 26       		.uleb128 0x26
 10152 2bca 22000000 		.4byte	.LVL519
 10153 2bce 38350000 		.4byte	0x3538
 10154 2bd2 24       		.uleb128 0x24
 10155 2bd3 3E000000 		.4byte	.LVL521
 10156 2bd7 5E320000 		.4byte	0x325e
 10157 2bdb E52B0000 		.4byte	0x2be5
 10158 2bdf 25       		.uleb128 0x25
 10159 2be0 01       		.uleb128 0x1
 10160 2be1 50       		.byte	0x50
 10161 2be2 01       		.uleb128 0x1
 10162 2be3 30       		.byte	0x30
 10163 2be4 00       		.byte	0
 10164 2be5 24       		.uleb128 0x24
 10165 2be6 4C000000 		.4byte	.LVL522
 10166 2bea 5E320000 		.4byte	0x325e
 10167 2bee F82B0000 		.4byte	0x2bf8
 10168 2bf2 25       		.uleb128 0x25
 10169 2bf3 01       		.uleb128 0x1
 10170 2bf4 50       		.byte	0x50
 10171 2bf5 01       		.uleb128 0x1
 10172 2bf6 31       		.byte	0x31
 10173 2bf7 00       		.byte	0
 10174 2bf8 26       		.uleb128 0x26
ARM GAS  C:\Users\Helon\AppData\Local\Temp\ccTLkFeM.s 			page 239


 10175 2bf9 9A000000 		.4byte	.LVL526
 10176 2bfd 44350000 		.4byte	0x3544
 10177 2c01 24       		.uleb128 0x24
 10178 2c02 AE000000 		.4byte	.LVL529
 10179 2c06 50350000 		.4byte	0x3550
 10180 2c0a 242C0000 		.4byte	0x2c24
 10181 2c0e 25       		.uleb128 0x25
 10182 2c0f 01       		.uleb128 0x1
 10183 2c10 52       		.byte	0x52
 10184 2c11 01       		.uleb128 0x1
 10185 2c12 3B       		.byte	0x3b
 10186 2c13 25       		.uleb128 0x25
 10187 2c14 01       		.uleb128 0x1
 10188 2c15 51       		.byte	0x51
 10189 2c16 03       		.uleb128 0x3
 10190 2c17 77       		.byte	0x77
 10191 2c18 3C       		.sleb128 60
 10192 2c19 06       		.byte	0x6
 10193 2c1a 25       		.uleb128 0x25
 10194 2c1b 01       		.uleb128 0x1
 10195 2c1c 50       		.byte	0x50
 10196 2c1d 05       		.uleb128 0x5
 10197 2c1e 03       		.byte	0x3
 10198 2c1f 12060000 		.4byte	.LC233
 10199 2c23 00       		.byte	0
 10200 2c24 24       		.uleb128 0x24
 10201 2c25 D0000000 		.4byte	.LVL530
 10202 2c29 6F350000 		.4byte	0x356f
 10203 2c2d 3B2C0000 		.4byte	0x2c3b
 10204 2c31 25       		.uleb128 0x25
 10205 2c32 01       		.uleb128 0x1
 10206 2c33 51       		.byte	0x51
 10207 2c34 05       		.uleb128 0x5
 10208 2c35 03       		.byte	0x3
 10209 2c36 00000000 		.4byte	writeRequestData
 10210 2c3a 00       		.byte	0
 10211 2c3b 24       		.uleb128 0x24
 10212 2c3c E8000000 		.4byte	.LVL532
 10213 2c40 D1330000 		.4byte	0x33d1
 10214 2c44 5D2C0000 		.4byte	0x2c5d
 10215 2c48 25       		.uleb128 0x25
 10216 2c49 01       		.uleb128 0x1
 10217 2c4a 52       		.byte	0x52
 10218 2c4b 02       		.uleb128 0x2
 10219 2c4c 08       		.byte	0x8
 10220 2c4d 30       		.byte	0x30
 10221 2c4e 25       		.uleb128 0x25
 10222 2c4f 01       		.uleb128 0x1
 10223 2c50 51       		.byte	0x51
 10224 2c51 01       		.uleb128 0x1
 10225 2c52 30       		.byte	0x30
 10226 2c53 25       		.uleb128 0x25
 10227 2c54 01       		.uleb128 0x1
 10228 2c55 50       		.byte	0x50
 10229 2c56 05       		.uleb128 0x5
 10230 2c57 03       		.byte	0x3
 10231 2c58 1A000000 		.4byte	.LANCHOR0+26
ARM GAS  C:\Users\Helon\AppData\Local\Temp\ccTLkFeM.s 			page 240


 10232 2c5c 00       		.byte	0
 10233 2c5d 24       		.uleb128 0x24
 10234 2c5e F6000000 		.4byte	.LVL534
 10235 2c62 50350000 		.4byte	0x3550
 10236 2c66 802C0000 		.4byte	0x2c80
 10237 2c6a 25       		.uleb128 0x25
 10238 2c6b 01       		.uleb128 0x1
 10239 2c6c 52       		.byte	0x52
 10240 2c6d 01       		.uleb128 0x1
 10241 2c6e 3B       		.byte	0x3b
 10242 2c6f 25       		.uleb128 0x25
 10243 2c70 01       		.uleb128 0x1
 10244 2c71 51       		.byte	0x51
 10245 2c72 03       		.uleb128 0x3
 10246 2c73 77       		.byte	0x77
 10247 2c74 3C       		.sleb128 60
 10248 2c75 06       		.byte	0x6
 10249 2c76 25       		.uleb128 0x25
 10250 2c77 01       		.uleb128 0x1
 10251 2c78 50       		.byte	0x50
 10252 2c79 05       		.uleb128 0x5
 10253 2c7a 03       		.byte	0x3
 10254 2c7b 1E060000 		.4byte	.LC238
 10255 2c7f 00       		.byte	0
 10256 2c80 24       		.uleb128 0x24
 10257 2c81 08010000 		.4byte	.LVL535
 10258 2c85 D1330000 		.4byte	0x33d1
 10259 2c89 9D2C0000 		.4byte	0x2c9d
 10260 2c8d 25       		.uleb128 0x25
 10261 2c8e 01       		.uleb128 0x1
 10262 2c8f 52       		.byte	0x52
 10263 2c90 02       		.uleb128 0x2
 10264 2c91 08       		.byte	0x8
 10265 2c92 30       		.byte	0x30
 10266 2c93 25       		.uleb128 0x25
 10267 2c94 01       		.uleb128 0x1
 10268 2c95 50       		.byte	0x50
 10269 2c96 05       		.uleb128 0x5
 10270 2c97 03       		.byte	0x3
 10271 2c98 1A000000 		.4byte	.LANCHOR0+26
 10272 2c9c 00       		.byte	0
 10273 2c9d 26       		.uleb128 0x26
 10274 2c9e 0E010000 		.4byte	.LVL537
 10275 2ca2 63300000 		.4byte	0x3063
 10276 2ca6 24       		.uleb128 0x24
 10277 2ca7 3A010000 		.4byte	.LVL540
 10278 2cab 3D330000 		.4byte	0x333d
 10279 2caf BB2C0000 		.4byte	0x2cbb
 10280 2cb3 25       		.uleb128 0x25
 10281 2cb4 01       		.uleb128 0x1
 10282 2cb5 51       		.byte	0x51
 10283 2cb6 03       		.uleb128 0x3
 10284 2cb7 77       		.byte	0x77
 10285 2cb8 C400     		.sleb128 68
 10286 2cba 00       		.byte	0
 10287 2cbb 26       		.uleb128 0x26
 10288 2cbc 40010000 		.4byte	.LVL542
ARM GAS  C:\Users\Helon\AppData\Local\Temp\ccTLkFeM.s 			page 241


 10289 2cc0 90350000 		.4byte	0x3590
 10290 2cc4 24       		.uleb128 0x24
 10291 2cc5 64010000 		.4byte	.LVL544
 10292 2cc9 241D0000 		.4byte	0x1d24
 10293 2ccd DF2C0000 		.4byte	0x2cdf
 10294 2cd1 25       		.uleb128 0x25
 10295 2cd2 01       		.uleb128 0x1
 10296 2cd3 51       		.byte	0x51
 10297 2cd4 02       		.uleb128 0x2
 10298 2cd5 75       		.byte	0x75
 10299 2cd6 00       		.sleb128 0
 10300 2cd7 25       		.uleb128 0x25
 10301 2cd8 01       		.uleb128 0x1
 10302 2cd9 50       		.byte	0x50
 10303 2cda 03       		.uleb128 0x3
 10304 2cdb 77       		.byte	0x77
 10305 2cdc 3C       		.sleb128 60
 10306 2cdd 06       		.byte	0x6
 10307 2cde 00       		.byte	0
 10308 2cdf 26       		.uleb128 0x26
 10309 2ce0 7A010000 		.4byte	.LVL549
 10310 2ce4 98350000 		.4byte	0x3598
 10311 2ce8 24       		.uleb128 0x24
 10312 2ce9 A6010000 		.4byte	.LVL556
 10313 2ced 63300000 		.4byte	0x3063
 10314 2cf1 FF2C0000 		.4byte	0x2cff
 10315 2cf5 25       		.uleb128 0x25
 10316 2cf6 01       		.uleb128 0x1
 10317 2cf7 50       		.byte	0x50
 10318 2cf8 05       		.uleb128 0x5
 10319 2cf9 03       		.byte	0x3
 10320 2cfa 2A060000 		.4byte	.LC243
 10321 2cfe 00       		.byte	0
 10322 2cff 24       		.uleb128 0x24
 10323 2d00 B2010000 		.4byte	.LVL557
 10324 2d04 A4350000 		.4byte	0x35a4
 10325 2d08 182D0000 		.4byte	0x2d18
 10326 2d0c 25       		.uleb128 0x25
 10327 2d0d 01       		.uleb128 0x1
 10328 2d0e 52       		.byte	0x52
 10329 2d0f 01       		.uleb128 0x1
 10330 2d10 31       		.byte	0x31
 10331 2d11 25       		.uleb128 0x25
 10332 2d12 01       		.uleb128 0x1
 10333 2d13 51       		.byte	0x51
 10334 2d14 02       		.uleb128 0x2
 10335 2d15 74       		.byte	0x74
 10336 2d16 00       		.sleb128 0
 10337 2d17 00       		.byte	0
 10338 2d18 26       		.uleb128 0x26
 10339 2d19 D6010000 		.4byte	.LVL566
 10340 2d1d 44350000 		.4byte	0x3544
 10341 2d21 27       		.uleb128 0x27
 10342 2d22 FC010000 		.4byte	.LVL572
 10343 2d26 D1330000 		.4byte	0x33d1
 10344 2d2a 25       		.uleb128 0x25
 10345 2d2b 01       		.uleb128 0x1
ARM GAS  C:\Users\Helon\AppData\Local\Temp\ccTLkFeM.s 			page 242


 10346 2d2c 52       		.byte	0x52
 10347 2d2d 02       		.uleb128 0x2
 10348 2d2e 08       		.byte	0x8
 10349 2d2f 30       		.byte	0x30
 10350 2d30 25       		.uleb128 0x25
 10351 2d31 01       		.uleb128 0x1
 10352 2d32 51       		.byte	0x51
 10353 2d33 02       		.uleb128 0x2
 10354 2d34 76       		.byte	0x76
 10355 2d35 00       		.sleb128 0
 10356 2d36 25       		.uleb128 0x25
 10357 2d37 01       		.uleb128 0x1
 10358 2d38 50       		.byte	0x50
 10359 2d39 02       		.uleb128 0x2
 10360 2d3a 75       		.byte	0x75
 10361 2d3b 00       		.sleb128 0
 10362 2d3c 00       		.byte	0
 10363 2d3d 00       		.byte	0
 10364 2d3e 10       		.uleb128 0x10
 10365 2d3f E0000000 		.4byte	0xe0
 10366 2d43 512D0000 		.4byte	0x2d51
 10367 2d47 3F       		.uleb128 0x3f
 10368 2d48 59010000 		.4byte	0x159
 10369 2d4c E22A0000 		.4byte	0x2ae2
 10370 2d50 00       		.byte	0
 10371 2d51 0A       		.uleb128 0xa
 10372 2d52 59010000 		.4byte	0x159
 10373 2d56 40       		.uleb128 0x40
 10374 2d57 E6010000 		.4byte	.LASF749
 10375 2d5b 01       		.byte	0x1
 10376 2d5c 8109     		.2byte	0x981
 10377 2d5e 2C000000 		.4byte	0x2c
 10378 2d62 00000000 		.4byte	.LFB53
 10379 2d66 1C000000 		.4byte	.LFE53-.LFB53
 10380 2d6a 01       		.uleb128 0x1
 10381 2d6b 9C       		.byte	0x9c
 10382 2d6c B82D0000 		.4byte	0x2db8
 10383 2d70 38       		.uleb128 0x38
 10384 2d71 F3180000 		.4byte	.LASF642
 10385 2d75 01       		.byte	0x1
 10386 2d76 8109     		.2byte	0x981
 10387 2d78 2C000000 		.4byte	0x2c
 10388 2d7c E3160000 		.4byte	.LLST57
 10389 2d80 33       		.uleb128 0x33
 10390 2d81 70747200 		.ascii	"ptr\000"
 10391 2d85 01       		.byte	0x1
 10392 2d86 8109     		.2byte	0x981
 10393 2d88 62010000 		.4byte	0x162
 10394 2d8c 04170000 		.4byte	.LLST58
 10395 2d90 33       		.uleb128 0x33
 10396 2d91 6C656E00 		.ascii	"len\000"
 10397 2d95 01       		.byte	0x1
 10398 2d96 8109     		.2byte	0x981
 10399 2d98 2C000000 		.4byte	0x2c
 10400 2d9c 3A170000 		.4byte	.LLST59
 10401 2da0 39       		.uleb128 0x39
 10402 2da1 6900     		.ascii	"i\000"
ARM GAS  C:\Users\Helon\AppData\Local\Temp\ccTLkFeM.s 			page 243


 10403 2da3 01       		.byte	0x1
 10404 2da4 8309     		.2byte	0x983
 10405 2da6 2C000000 		.4byte	0x2c
 10406 2daa 63170000 		.4byte	.LLST60
 10407 2dae 26       		.uleb128 0x26
 10408 2daf 14000000 		.4byte	.LVL578
 10409 2db3 53310000 		.4byte	0x3153
 10410 2db7 00       		.byte	0
 10411 2db8 41       		.uleb128 0x41
 10412 2db9 A2380000 		.4byte	.LASF643
 10413 2dbd 11       		.byte	0x11
 10414 2dbe 2D       		.byte	0x2d
 10415 2dbf 68010000 		.4byte	0x168
 10416 2dc3 42       		.uleb128 0x42
 10417 2dc4 23020000 		.4byte	.LASF644
 10418 2dc8 0C       		.byte	0xc
 10419 2dc9 D601     		.2byte	0x1d6
 10420 2dcb 73060000 		.4byte	0x673
 10421 2dcf 42       		.uleb128 0x42
 10422 2dd0 313D0000 		.4byte	.LASF645
 10423 2dd4 0C       		.byte	0xc
 10424 2dd5 EA01     		.2byte	0x1ea
 10425 2dd7 DA070000 		.4byte	0x7da
 10426 2ddb 42       		.uleb128 0x42
 10427 2ddc BA270000 		.4byte	.LASF646
 10428 2de0 0D       		.byte	0xd
 10429 2de1 2C09     		.2byte	0x92c
 10430 2de3 2B120000 		.4byte	0x122b
 10431 2de7 42       		.uleb128 0x42
 10432 2de8 4D3A0000 		.4byte	.LASF647
 10433 2dec 0D       		.byte	0xd
 10434 2ded 2D09     		.2byte	0x92d
 10435 2def 14090000 		.4byte	0x914
 10436 2df3 42       		.uleb128 0x42
 10437 2df4 C13F0000 		.4byte	.LASF648
 10438 2df8 0D       		.byte	0xd
 10439 2df9 2E09     		.2byte	0x92e
 10440 2dfb 25010000 		.4byte	0x125
 10441 2dff 41       		.uleb128 0x41
 10442 2e00 55310000 		.4byte	.LASF649
 10443 2e04 01       		.byte	0x1
 10444 2e05 16       		.byte	0x16
 10445 2e06 B4000000 		.4byte	0xb4
 10446 2e0a 10       		.uleb128 0x10
 10447 2e0b 2D150000 		.4byte	0x152d
 10448 2e0f 1A2E0000 		.4byte	0x2e1a
 10449 2e13 11       		.uleb128 0x11
 10450 2e14 59010000 		.4byte	0x159
 10451 2e18 09       		.byte	0x9
 10452 2e19 00       		.byte	0
 10453 2e1a 41       		.uleb128 0x41
 10454 2e1b 6D460000 		.4byte	.LASF650
 10455 2e1f 01       		.byte	0x1
 10456 2e20 17       		.byte	0x17
 10457 2e21 0A2E0000 		.4byte	0x2e0a
 10458 2e25 43       		.uleb128 0x43
 10459 2e26 DE380000 		.4byte	.LASF651
ARM GAS  C:\Users\Helon\AppData\Local\Temp\ccTLkFeM.s 			page 244


 10460 2e2a 01       		.byte	0x1
 10461 2e2b 1C       		.byte	0x1c
 10462 2e2c D4130000 		.4byte	0x13d4
 10463 2e30 05       		.uleb128 0x5
 10464 2e31 03       		.byte	0x3
 10465 2e32 00000000 		.4byte	configUart
 10466 2e36 43       		.uleb128 0x43
 10467 2e37 0A300000 		.4byte	.LASF652
 10468 2e3b 01       		.byte	0x1
 10469 2e3c 1D       		.byte	0x1d
 10470 2e3d B4000000 		.4byte	0xb4
 10471 2e41 05       		.uleb128 0x5
 10472 2e42 03       		.byte	0x3
 10473 2e43 00000000 		.4byte	LowPower_EN
 10474 2e47 10       		.uleb128 0x10
 10475 2e48 B4000000 		.4byte	0xb4
 10476 2e4c 572E0000 		.4byte	0x2e57
 10477 2e50 11       		.uleb128 0x11
 10478 2e51 59010000 		.4byte	0x159
 10479 2e55 2F       		.byte	0x2f
 10480 2e56 00       		.byte	0
 10481 2e57 43       		.uleb128 0x43
 10482 2e58 8E340000 		.4byte	.LASF653
 10483 2e5c 01       		.byte	0x1
 10484 2e5d 1E       		.byte	0x1e
 10485 2e5e 472E0000 		.4byte	0x2e47
 10486 2e62 05       		.uleb128 0x5
 10487 2e63 03       		.byte	0x3
 10488 2e64 00000000 		.4byte	RX_BUFFER
 10489 2e68 43       		.uleb128 0x43
 10490 2e69 C1180000 		.4byte	.LASF654
 10491 2e6d 01       		.byte	0x1
 10492 2e6e 1F       		.byte	0x1f
 10493 2e6f B4000000 		.4byte	0xb4
 10494 2e73 05       		.uleb128 0x5
 10495 2e74 03       		.byte	0x3
 10496 2e75 00000000 		.4byte	Buffer_Length
 10497 2e79 43       		.uleb128 0x43
 10498 2e7a 4C0D0000 		.4byte	.LASF655
 10499 2e7e 01       		.byte	0x1
 10500 2e7f 20       		.byte	0x20
 10501 2e80 B4000000 		.4byte	0xb4
 10502 2e84 05       		.uleb128 0x5
 10503 2e85 03       		.byte	0x3
 10504 2e86 00000000 		.4byte	rx_isover
 10505 2e8a 43       		.uleb128 0x43
 10506 2e8b 60360000 		.4byte	.LASF656
 10507 2e8f 01       		.byte	0x1
 10508 2e90 21       		.byte	0x21
 10509 2e91 CD140000 		.4byte	0x14cd
 10510 2e95 05       		.uleb128 0x5
 10511 2e96 03       		.byte	0x3
 10512 2e97 00000000 		.4byte	Conn_Or_Disconn_Info
 10513 2e9b 43       		.uleb128 0x43
 10514 2e9c EE320000 		.4byte	.LASF657
 10515 2ea0 01       		.byte	0x1
 10516 2ea1 22       		.byte	0x22
ARM GAS  C:\Users\Helon\AppData\Local\Temp\ccTLkFeM.s 			page 245


 10517 2ea2 B4000000 		.4byte	0xb4
 10518 2ea6 05       		.uleb128 0x5
 10519 2ea7 03       		.byte	0x3
 10520 2ea8 00000000 		.4byte	Conn_or_Disconn_Idx
 10521 2eac 43       		.uleb128 0x43
 10522 2ead F3160000 		.4byte	.LASF658
 10523 2eb1 01       		.byte	0x1
 10524 2eb2 25       		.byte	0x25
 10525 2eb3 B4000000 		.4byte	0xb4
 10526 2eb7 05       		.uleb128 0x5
 10527 2eb8 03       		.byte	0x3
 10528 2eb9 00000000 		.4byte	MTU_REQ_FLAG
 10529 2ebd 43       		.uleb128 0x43
 10530 2ebe 762C0000 		.4byte	.LASF659
 10531 2ec2 01       		.byte	0x1
 10532 2ec3 26       		.byte	0x26
 10533 2ec4 B4000000 		.4byte	0xb4
 10534 2ec8 05       		.uleb128 0x5
 10535 2ec9 03       		.byte	0x3
 10536 2eca 00000000 		.4byte	TroughtTest_Flag
 10537 2ece 43       		.uleb128 0x43
 10538 2ecf FC420000 		.4byte	.LASF660
 10539 2ed3 01       		.byte	0x1
 10540 2ed4 27       		.byte	0x27
 10541 2ed5 B4000000 		.4byte	0xb4
 10542 2ed9 05       		.uleb128 0x5
 10543 2eda 03       		.byte	0x3
 10544 2edb 00000000 		.4byte	charNotificationEnabled
 10545 2edf 43       		.uleb128 0x43
 10546 2ee0 771A0000 		.4byte	.LASF661
 10547 2ee4 01       		.byte	0x1
 10548 2ee5 28       		.byte	0x28
 10549 2ee6 F6000000 		.4byte	0xf6
 10550 2eea 05       		.uleb128 0x5
 10551 2eeb 03       		.byte	0x3
 10552 2eec 00000000 		.4byte	totalByteCounter
 10553 2ef0 43       		.uleb128 0x43
 10554 2ef1 E81F0000 		.4byte	.LASF634
 10555 2ef5 01       		.byte	0x1
 10556 2ef6 29       		.byte	0x29
 10557 2ef7 B4000000 		.4byte	0xb4
 10558 2efb 05       		.uleb128 0x5
 10559 2efc 03       		.byte	0x3
 10560 2efd 00000000 		.4byte	Role
 10561 2f01 10       		.uleb128 0x10
 10562 2f02 E0000000 		.4byte	0xe0
 10563 2f06 112F0000 		.4byte	0x2f11
 10564 2f0a 11       		.uleb128 0x11
 10565 2f0b 59010000 		.4byte	0x159
 10566 2f0f 13       		.byte	0x13
 10567 2f10 00       		.byte	0
 10568 2f11 43       		.uleb128 0x43
 10569 2f12 A71A0000 		.4byte	.LASF662
 10570 2f16 01       		.byte	0x1
 10571 2f17 2A       		.byte	0x2a
 10572 2f18 012F0000 		.4byte	0x2f01
 10573 2f1c 05       		.uleb128 0x5
ARM GAS  C:\Users\Helon\AppData\Local\Temp\ccTLkFeM.s 			page 246


 10574 2f1d 03       		.byte	0x3
 10575 2f1e 00000000 		.4byte	buffer
 10576 2f22 43       		.uleb128 0x43
 10577 2f23 780C0000 		.4byte	.LASF663
 10578 2f27 01       		.byte	0x1
 10579 2f28 2B       		.byte	0x2b
 10580 2f29 EB000000 		.4byte	0xeb
 10581 2f2d 05       		.uleb128 0x5
 10582 2f2e 03       		.byte	0x3
 10583 2f2f 00000000 		.4byte	negotiatedMtu
 10584 2f33 43       		.uleb128 0x43
 10585 2f34 11330000 		.4byte	.LASF664
 10586 2f38 01       		.byte	0x1
 10587 2f39 2C       		.byte	0x2c
 10588 2f3a B4000000 		.4byte	0xb4
 10589 2f3e 05       		.uleb128 0x5
 10590 2f3f 03       		.byte	0x3
 10591 2f40 00000000 		.4byte	CommandMode
 10592 2f44 43       		.uleb128 0x43
 10593 2f45 16220000 		.4byte	.LASF665
 10594 2f49 01       		.byte	0x1
 10595 2f4a 2D       		.byte	0x2d
 10596 2f4b F6000000 		.4byte	0xf6
 10597 2f4f 05       		.uleb128 0x5
 10598 2f50 03       		.byte	0x3
 10599 2f51 00000000 		.4byte	testCount
 10600 2f55 43       		.uleb128 0x43
 10601 2f56 FD390000 		.4byte	.LASF666
 10602 2f5a 01       		.byte	0x1
 10603 2f5b 2E       		.byte	0x2e
 10604 2f5c B4000000 		.4byte	0xb4
 10605 2f60 05       		.uleb128 0x5
 10606 2f61 03       		.byte	0x3
 10607 2f62 00000000 		.4byte	iocapability
 10608 2f66 43       		.uleb128 0x43
 10609 2f67 5D2B0000 		.4byte	.LASF667
 10610 2f6b 01       		.byte	0x1
 10611 2f6c 2F       		.byte	0x2f
 10612 2f6d D8080000 		.4byte	0x8d8
 10613 2f71 05       		.uleb128 0x5
 10614 2f72 03       		.byte	0x3
 10615 2f73 00000000 		.4byte	ConnParam
 10616 2f77 43       		.uleb128 0x43
 10617 2f78 69050000 		.4byte	.LASF668
 10618 2f7c 01       		.byte	0x1
 10619 2f7d 30       		.byte	0x30
 10620 2f7e B4000000 		.4byte	0xb4
 10621 2f82 05       		.uleb128 0x5
 10622 2f83 03       		.byte	0x3
 10623 2f84 00000000 		.4byte	KEYBOARD
 10624 2f88 43       		.uleb128 0x43
 10625 2f89 22290000 		.4byte	.LASF669
 10626 2f8d 01       		.byte	0x1
 10627 2f8e 31       		.byte	0x31
 10628 2f8f B4000000 		.4byte	0xb4
 10629 2f93 05       		.uleb128 0x5
 10630 2f94 03       		.byte	0x3
ARM GAS  C:\Users\Helon\AppData\Local\Temp\ccTLkFeM.s 			page 247


 10631 2f95 00000000 		.4byte	AUTHFLAG
 10632 2f99 43       		.uleb128 0x43
 10633 2f9a F32B0000 		.4byte	.LASF575
 10634 2f9e 01       		.byte	0x1
 10635 2f9f 3A       		.byte	0x3a
 10636 2fa0 0F050000 		.4byte	0x50f
 10637 2fa4 05       		.uleb128 0x5
 10638 2fa5 03       		.byte	0x3
 10639 2fa6 00000000 		.4byte	DeviceAddr
 10640 2faa 43       		.uleb128 0x43
 10641 2fab CA0D0000 		.4byte	.LASF670
 10642 2faf 01       		.byte	0x1
 10643 2fb0 3B       		.byte	0x3b
 10644 2fb1 B4000000 		.4byte	0xb4
 10645 2fb5 05       		.uleb128 0x5
 10646 2fb6 03       		.byte	0x3
 10647 2fb7 00000000 		.4byte	_10sIsOver
 10648 2fbb 10       		.uleb128 0x10
 10649 2fbc E0000000 		.4byte	0xe0
 10650 2fc0 CB2F0000 		.4byte	0x2fcb
 10651 2fc4 11       		.uleb128 0x11
 10652 2fc5 59010000 		.4byte	0x159
 10653 2fc9 01       		.byte	0x1
 10654 2fca 00       		.byte	0
 10655 2fcb 43       		.uleb128 0x43
 10656 2fcc 4D130000 		.4byte	.LASF671
 10657 2fd0 01       		.byte	0x1
 10658 2fd1 3C       		.byte	0x3c
 10659 2fd2 BB2F0000 		.4byte	0x2fbb
 10660 2fd6 05       		.uleb128 0x5
 10661 2fd7 03       		.byte	0x3
 10662 2fd8 00000000 		.4byte	cccdNotifEnabledValue
 10663 2fdc 43       		.uleb128 0x43
 10664 2fdd 860C0000 		.4byte	.LASF672
 10665 2fe1 01       		.byte	0x1
 10666 2fe2 3D       		.byte	0x3d
 10667 2fe3 51090000 		.4byte	0x951
 10668 2fe7 05       		.uleb128 0x5
 10669 2fe8 03       		.byte	0x3
 10670 2fe9 00000000 		.4byte	cccdNotifFlagSetStruct
 10671 2fed 43       		.uleb128 0x43
 10672 2fee E40F0000 		.4byte	.LASF673
 10673 2ff2 01       		.byte	0x1
 10674 2ff3 44       		.byte	0x44
 10675 2ff4 8E080000 		.4byte	0x88e
 10676 2ff8 05       		.uleb128 0x5
 10677 2ff9 03       		.byte	0x3
 10678 2ffa 00000000 		.4byte	connParam
 10679 2ffe 43       		.uleb128 0x43
 10680 2fff 0C130000 		.4byte	.LASF625
 10681 3003 01       		.byte	0x1
 10682 3004 4A       		.byte	0x4a
 10683 3005 450A0000 		.4byte	0xa45
 10684 3009 05       		.uleb128 0x5
 10685 300a 03       		.byte	0x3
 10686 300b 00000000 		.4byte	writeRequestData
 10687 300f 43       		.uleb128 0x43
ARM GAS  C:\Users\Helon\AppData\Local\Temp\ccTLkFeM.s 			page 248


 10688 3010 A83D0000 		.4byte	.LASF674
 10689 3014 01       		.byte	0x1
 10690 3015 4B       		.byte	0x4b
 10691 3016 2F0A0000 		.4byte	0xa2f
 10692 301a 05       		.uleb128 0x5
 10693 301b 03       		.byte	0x3
 10694 301c 00000000 		.4byte	readRequestData
 10695 3020 10       		.uleb128 0x10
 10696 3021 62010000 		.4byte	0x162
 10697 3025 30300000 		.4byte	0x3030
 10698 3029 11       		.uleb128 0x11
 10699 302a 59010000 		.4byte	0x159
 10700 302e 19       		.byte	0x19
 10701 302f 00       		.byte	0
 10702 3030 43       		.uleb128 0x43
 10703 3031 74330000 		.4byte	.LASF675
 10704 3035 01       		.byte	0x1
 10705 3036 4D       		.byte	0x4d
 10706 3037 20300000 		.4byte	0x3020
 10707 303b 05       		.uleb128 0x5
 10708 303c 03       		.byte	0x3
 10709 303d 00000000 		.4byte	StringArry
 10710 3041 43       		.uleb128 0x43
 10711 3042 D8310000 		.4byte	.LASF676
 10712 3046 01       		.byte	0x1
 10713 3047 53       		.byte	0x53
 10714 3048 B4000000 		.4byte	0xb4
 10715 304c 05       		.uleb128 0x5
 10716 304d 03       		.byte	0x3
 10717 304e 00000000 		.4byte	STOP_SCAN_FLAG
 10718 3052 43       		.uleb128 0x43
 10719 3053 DB1A0000 		.4byte	.LASF677
 10720 3057 01       		.byte	0x1
 10721 3058 54       		.byte	0x54
 10722 3059 B4000000 		.4byte	0xb4
 10723 305d 05       		.uleb128 0x5
 10724 305e 03       		.byte	0x3
 10725 305f 00000000 		.4byte	Baud_rate_idx
 10726 3063 44       		.uleb128 0x44
 10727 3064 A82F0000 		.4byte	.LASF750
 10728 3068 21       		.byte	0x21
 10729 3069 00       		.byte	0
 10730 306a 40060000 		.4byte	.LASF751
 10731 306e 2C000000 		.4byte	0x2c
 10732 3072 7C300000 		.4byte	0x307c
 10733 3076 16       		.uleb128 0x16
 10734 3077 68010000 		.4byte	0x168
 10735 307b 00       		.byte	0
 10736 307c 45       		.uleb128 0x45
 10737 307d 671A0000 		.4byte	.LASF679
 10738 3081 12       		.byte	0x12
 10739 3082 B2       		.byte	0xb2
 10740 3083 2C000000 		.4byte	0x2c
 10741 3087 92300000 		.4byte	0x3092
 10742 308b 16       		.uleb128 0x16
 10743 308c 68010000 		.4byte	0x168
 10744 3090 46       		.uleb128 0x46
ARM GAS  C:\Users\Helon\AppData\Local\Temp\ccTLkFeM.s 			page 249


 10745 3091 00       		.byte	0
 10746 3092 47       		.uleb128 0x47
 10747 3093 4C0E0000 		.4byte	.LASF692
 10748 3097 0E       		.byte	0xe
 10749 3098 8E01     		.2byte	0x18e
 10750 309a F6000000 		.4byte	0xf6
 10751 309e 48       		.uleb128 0x48
 10752 309f F70A0000 		.4byte	.LASF680
 10753 30a3 10       		.byte	0x10
 10754 30a4 1F       		.byte	0x1f
 10755 30a5 AF300000 		.4byte	0x30af
 10756 30a9 16       		.uleb128 0x16
 10757 30aa AF300000 		.4byte	0x30af
 10758 30ae 00       		.byte	0
 10759 30af 07       		.uleb128 0x7
 10760 30b0 04       		.byte	0x4
 10761 30b1 44080000 		.4byte	0x844
 10762 30b5 49       		.uleb128 0x49
 10763 30b6 BA090000 		.4byte	.LASF688
 10764 30ba 0C       		.byte	0xc
 10765 30bb BE01     		.2byte	0x1be
 10766 30bd 4A       		.uleb128 0x4a
 10767 30be 163F0000 		.4byte	.LASF681
 10768 30c2 60010000 		.4byte	0x160
 10769 30c6 DA300000 		.4byte	0x30da
 10770 30ca 16       		.uleb128 0x16
 10771 30cb 60010000 		.4byte	0x160
 10772 30cf 16       		.uleb128 0x16
 10773 30d0 DA300000 		.4byte	0x30da
 10774 30d4 16       		.uleb128 0x16
 10775 30d5 59010000 		.4byte	0x159
 10776 30d9 00       		.byte	0
 10777 30da 07       		.uleb128 0x7
 10778 30db 04       		.byte	0x4
 10779 30dc E0300000 		.4byte	0x30e0
 10780 30e0 4B       		.uleb128 0x4b
 10781 30e1 4C       		.uleb128 0x4c
 10782 30e2 9E0F0000 		.4byte	.LASF682
 10783 30e6 13       		.byte	0x13
 10784 30e7 8302     		.2byte	0x283
 10785 30e9 AF030000 		.4byte	0x3af
 10786 30ed FC300000 		.4byte	0x30fc
 10787 30f1 16       		.uleb128 0x16
 10788 30f2 E0000000 		.4byte	0xe0
 10789 30f6 16       		.uleb128 0x16
 10790 30f7 FC300000 		.4byte	0x30fc
 10791 30fb 00       		.byte	0
 10792 30fc 07       		.uleb128 0x7
 10793 30fd 04       		.byte	0x4
 10794 30fe 8E080000 		.4byte	0x88e
 10795 3102 4C       		.uleb128 0x4c
 10796 3103 98340000 		.4byte	.LASF683
 10797 3107 08       		.byte	0x8
 10798 3108 1307     		.2byte	0x713
 10799 310a AF030000 		.4byte	0x3af
 10800 310e 1D310000 		.4byte	0x311d
 10801 3112 16       		.uleb128 0x16
ARM GAS  C:\Users\Helon\AppData\Local\Temp\ccTLkFeM.s 			page 250


 10802 3113 E0000000 		.4byte	0xe0
 10803 3117 16       		.uleb128 0x16
 10804 3118 FC300000 		.4byte	0x30fc
 10805 311c 00       		.byte	0
 10806 311d 4C       		.uleb128 0x4c
 10807 311e 8F220000 		.4byte	.LASF684
 10808 3122 0B       		.byte	0xb
 10809 3123 5601     		.2byte	0x156
 10810 3125 AF030000 		.4byte	0x3af
 10811 3129 38310000 		.4byte	0x3138
 10812 312d 16       		.uleb128 0x16
 10813 312e 14090000 		.4byte	0x914
 10814 3132 16       		.uleb128 0x16
 10815 3133 EB000000 		.4byte	0xeb
 10816 3137 00       		.byte	0
 10817 3138 4C       		.uleb128 0x4c
 10818 3139 672E0000 		.4byte	.LASF685
 10819 313d 0A       		.byte	0xa
 10820 313e 6901     		.2byte	0x169
 10821 3140 AF030000 		.4byte	0x3af
 10822 3144 53310000 		.4byte	0x3153
 10823 3148 16       		.uleb128 0x16
 10824 3149 14090000 		.4byte	0x914
 10825 314d 16       		.uleb128 0x16
 10826 314e EB000000 		.4byte	0xeb
 10827 3152 00       		.byte	0
 10828 3153 4D       		.uleb128 0x4d
 10829 3154 7F330000 		.4byte	.LASF686
 10830 3158 0E       		.byte	0xe
 10831 3159 8C01     		.2byte	0x18c
 10832 315b 65310000 		.4byte	0x3165
 10833 315f 16       		.uleb128 0x16
 10834 3160 F6000000 		.4byte	0xf6
 10835 3164 00       		.byte	0
 10836 3165 4C       		.uleb128 0x4c
 10837 3166 D1220000 		.4byte	.LASF687
 10838 316a 08       		.byte	0x8
 10839 316b 3F06     		.2byte	0x63f
 10840 316d AF030000 		.4byte	0x3af
 10841 3171 80310000 		.4byte	0x3180
 10842 3175 16       		.uleb128 0x16
 10843 3176 E0000000 		.4byte	0xe0
 10844 317a 16       		.uleb128 0x16
 10845 317b 80310000 		.4byte	0x3180
 10846 317f 00       		.byte	0
 10847 3180 07       		.uleb128 0x7
 10848 3181 04       		.byte	0x4
 10849 3182 73060000 		.4byte	0x673
 10850 3186 49       		.uleb128 0x49
 10851 3187 F2230000 		.4byte	.LASF689
 10852 318b 14       		.byte	0x14
 10853 318c 3201     		.2byte	0x132
 10854 318e 4D       		.uleb128 0x4d
 10855 318f 84290000 		.4byte	.LASF690
 10856 3193 14       		.byte	0x14
 10857 3194 4601     		.2byte	0x146
 10858 3196 A0310000 		.4byte	0x31a0
ARM GAS  C:\Users\Helon\AppData\Local\Temp\ccTLkFeM.s 			page 251


 10859 319a 16       		.uleb128 0x16
 10860 319b F6000000 		.4byte	0xf6
 10861 319f 00       		.byte	0
 10862 31a0 4C       		.uleb128 0x4c
 10863 31a1 02330000 		.4byte	.LASF691
 10864 31a5 06       		.byte	0x6
 10865 31a6 6B04     		.2byte	0x46b
 10866 31a8 E4030000 		.4byte	0x3e4
 10867 31ac B6310000 		.4byte	0x31b6
 10868 31b0 16       		.uleb128 0x16
 10869 31b1 E4030000 		.4byte	0x3e4
 10870 31b5 00       		.byte	0
 10871 31b6 47       		.uleb128 0x47
 10872 31b7 57030000 		.4byte	.LASF693
 10873 31bb 06       		.byte	0x6
 10874 31bc B906     		.2byte	0x6b9
 10875 31be 2B040000 		.4byte	0x42b
 10876 31c2 48       		.uleb128 0x48
 10877 31c3 13210000 		.4byte	.LASF694
 10878 31c7 15       		.byte	0x15
 10879 31c8 1D       		.byte	0x1d
 10880 31c9 D3310000 		.4byte	0x31d3
 10881 31cd 16       		.uleb128 0x16
 10882 31ce E0000000 		.4byte	0xe0
 10883 31d2 00       		.byte	0
 10884 31d3 4E       		.uleb128 0x4e
 10885 31d4 D10E0000 		.4byte	.LASF695
 10886 31d8 16       		.byte	0x16
 10887 31d9 6C       		.byte	0x6c
 10888 31da 4E       		.uleb128 0x4e
 10889 31db E9380000 		.4byte	.LASF696
 10890 31df 17       		.byte	0x17
 10891 31e0 1D       		.byte	0x1d
 10892 31e1 4E       		.uleb128 0x4e
 10893 31e2 1E460000 		.4byte	.LASF697
 10894 31e6 16       		.byte	0x16
 10895 31e7 6D       		.byte	0x6d
 10896 31e8 48       		.uleb128 0x48
 10897 31e9 9B310000 		.4byte	.LASF698
 10898 31ed 18       		.byte	0x18
 10899 31ee 57       		.byte	0x57
 10900 31ef F9310000 		.4byte	0x31f9
 10901 31f3 16       		.uleb128 0x16
 10902 31f4 F6000000 		.4byte	0xf6
 10903 31f8 00       		.byte	0
 10904 31f9 49       		.uleb128 0x49
 10905 31fa 73100000 		.4byte	.LASF699
 10906 31fe 0E       		.byte	0xe
 10907 31ff 8701     		.2byte	0x187
 10908 3201 4E       		.uleb128 0x4e
 10909 3202 5E120000 		.4byte	.LASF700
 10910 3206 19       		.byte	0x19
 10911 3207 28       		.byte	0x28
 10912 3208 4F       		.uleb128 0x4f
 10913 3209 B6030000 		.4byte	.LASF701
 10914 320d 1A       		.byte	0x1a
 10915 320e 21       		.byte	0x21
ARM GAS  C:\Users\Helon\AppData\Local\Temp\ccTLkFeM.s 			page 252


 10916 320f E0000000 		.4byte	0xe0
 10917 3213 4E       		.uleb128 0x4e
 10918 3214 3F0D0000 		.4byte	.LASF702
 10919 3218 17       		.byte	0x17
 10920 3219 1C       		.byte	0x1c
 10921 321a 48       		.uleb128 0x48
 10922 321b 523E0000 		.4byte	.LASF703
 10923 321f 15       		.byte	0x15
 10924 3220 1E       		.byte	0x1e
 10925 3221 2B320000 		.4byte	0x322b
 10926 3225 16       		.uleb128 0x16
 10927 3226 E0000000 		.4byte	0xe0
 10928 322a 00       		.byte	0
 10929 322b 48       		.uleb128 0x48
 10930 322c 563D0000 		.4byte	.LASF704
 10931 3230 1B       		.byte	0x1b
 10932 3231 1E       		.byte	0x1e
 10933 3232 3C320000 		.4byte	0x323c
 10934 3236 16       		.uleb128 0x16
 10935 3237 E0000000 		.4byte	0xe0
 10936 323b 00       		.byte	0
 10937 323c 48       		.uleb128 0x48
 10938 323d 15410000 		.4byte	.LASF705
 10939 3241 1B       		.byte	0x1b
 10940 3242 1D       		.byte	0x1d
 10941 3243 4D320000 		.4byte	0x324d
 10942 3247 16       		.uleb128 0x16
 10943 3248 E0000000 		.4byte	0xe0
 10944 324c 00       		.byte	0
 10945 324d 48       		.uleb128 0x48
 10946 324e 752F0000 		.4byte	.LASF706
 10947 3252 1C       		.byte	0x1c
 10948 3253 1E       		.byte	0x1e
 10949 3254 5E320000 		.4byte	0x325e
 10950 3258 16       		.uleb128 0x16
 10951 3259 E0000000 		.4byte	0xe0
 10952 325d 00       		.byte	0
 10953 325e 48       		.uleb128 0x48
 10954 325f 28420000 		.4byte	.LASF707
 10955 3263 1C       		.byte	0x1c
 10956 3264 1D       		.byte	0x1d
 10957 3265 6F320000 		.4byte	0x326f
 10958 3269 16       		.uleb128 0x16
 10959 326a E0000000 		.4byte	0xe0
 10960 326e 00       		.byte	0
 10961 326f 49       		.uleb128 0x49
 10962 3270 4F100000 		.4byte	.LASF708
 10963 3274 14       		.byte	0x14
 10964 3275 2F01     		.2byte	0x12f
 10965 3277 48       		.uleb128 0x48
 10966 3278 3D010000 		.4byte	.LASF709
 10967 327c 1D       		.byte	0x1d
 10968 327d 18       		.byte	0x18
 10969 327e 88320000 		.4byte	0x3288
 10970 3282 16       		.uleb128 0x16
 10971 3283 3B010000 		.4byte	0x13b
 10972 3287 00       		.byte	0
ARM GAS  C:\Users\Helon\AppData\Local\Temp\ccTLkFeM.s 			page 253


 10973 3288 4E       		.uleb128 0x4e
 10974 3289 35120000 		.4byte	.LASF710
 10975 328d 16       		.byte	0x16
 10976 328e 68       		.byte	0x68
 10977 328f 4C       		.uleb128 0x4c
 10978 3290 A2200000 		.4byte	.LASF711
 10979 3294 0C       		.byte	0xc
 10980 3295 A101     		.2byte	0x1a1
 10981 3297 AF030000 		.4byte	0x3af
 10982 329b A5320000 		.4byte	0x32a5
 10983 329f 16       		.uleb128 0x16
 10984 32a0 E00A0000 		.4byte	0xae0
 10985 32a4 00       		.byte	0
 10986 32a5 45       		.uleb128 0x45
 10987 32a6 55380000 		.4byte	.LASF712
 10988 32aa 1E       		.byte	0x1e
 10989 32ab 1B       		.byte	0x1b
 10990 32ac 62010000 		.4byte	0x162
 10991 32b0 BF320000 		.4byte	0x32bf
 10992 32b4 16       		.uleb128 0x16
 10993 32b5 68010000 		.4byte	0x168
 10994 32b9 16       		.uleb128 0x16
 10995 32ba 2C000000 		.4byte	0x2c
 10996 32be 00       		.byte	0
 10997 32bf 45       		.uleb128 0x45
 10998 32c0 1C370000 		.4byte	.LASF713
 10999 32c4 1F       		.byte	0x1f
 11000 32c5 25       		.byte	0x25
 11001 32c6 60010000 		.4byte	0x160
 11002 32ca D4320000 		.4byte	0x32d4
 11003 32ce 16       		.uleb128 0x16
 11004 32cf 4E010000 		.4byte	0x14e
 11005 32d3 00       		.byte	0
 11006 32d4 45       		.uleb128 0x45
 11007 32d5 683C0000 		.4byte	.LASF714
 11008 32d9 1E       		.byte	0x1e
 11009 32da 24       		.byte	0x24
 11010 32db 62010000 		.4byte	0x162
 11011 32df F3320000 		.4byte	0x32f3
 11012 32e3 16       		.uleb128 0x16
 11013 32e4 62010000 		.4byte	0x162
 11014 32e8 16       		.uleb128 0x16
 11015 32e9 68010000 		.4byte	0x168
 11016 32ed 16       		.uleb128 0x16
 11017 32ee 4E010000 		.4byte	0x14e
 11018 32f2 00       		.byte	0
 11019 32f3 45       		.uleb128 0x45
 11020 32f4 B02D0000 		.4byte	.LASF715
 11021 32f8 1E       		.byte	0x1e
 11022 32f9 23       		.byte	0x23
 11023 32fa 2C000000 		.4byte	0x2c
 11024 32fe 12330000 		.4byte	0x3312
 11025 3302 16       		.uleb128 0x16
 11026 3303 68010000 		.4byte	0x168
 11027 3307 16       		.uleb128 0x16
 11028 3308 68010000 		.4byte	0x168
 11029 330c 16       		.uleb128 0x16
ARM GAS  C:\Users\Helon\AppData\Local\Temp\ccTLkFeM.s 			page 254


 11030 330d 4E010000 		.4byte	0x14e
 11031 3311 00       		.byte	0
 11032 3312 48       		.uleb128 0x48
 11033 3313 89420000 		.4byte	.LASF716
 11034 3317 1F       		.byte	0x1f
 11035 3318 2D       		.byte	0x2d
 11036 3319 23330000 		.4byte	0x3323
 11037 331d 16       		.uleb128 0x16
 11038 331e 60010000 		.4byte	0x160
 11039 3322 00       		.byte	0
 11040 3323 45       		.uleb128 0x45
 11041 3324 FE080000 		.4byte	.LASF717
 11042 3328 1E       		.byte	0x1e
 11043 3329 1C       		.byte	0x1c
 11044 332a 2C000000 		.4byte	0x2c
 11045 332e 3D330000 		.4byte	0x333d
 11046 3332 16       		.uleb128 0x16
 11047 3333 68010000 		.4byte	0x168
 11048 3337 16       		.uleb128 0x16
 11049 3338 68010000 		.4byte	0x168
 11050 333c 00       		.byte	0
 11051 333d 45       		.uleb128 0x45
 11052 333e 65440000 		.4byte	.LASF718
 11053 3342 0A       		.byte	0xa
 11054 3343 DF       		.byte	0xdf
 11055 3344 AF030000 		.4byte	0x3af
 11056 3348 57330000 		.4byte	0x3357
 11057 334c 16       		.uleb128 0x16
 11058 334d 14090000 		.4byte	0x914
 11059 3351 16       		.uleb128 0x16
 11060 3352 57330000 		.4byte	0x3357
 11061 3356 00       		.byte	0
 11062 3357 07       		.uleb128 0x7
 11063 3358 04       		.byte	0x4
 11064 3359 ED090000 		.4byte	0x9ed
 11065 335d 4C       		.uleb128 0x4c
 11066 335e CD060000 		.4byte	.LASF719
 11067 3362 0B       		.byte	0xb
 11068 3363 6003     		.2byte	0x360
 11069 3365 AF030000 		.4byte	0x3af
 11070 3369 78330000 		.4byte	0x3378
 11071 336d 16       		.uleb128 0x16
 11072 336e 14090000 		.4byte	0x914
 11073 3372 16       		.uleb128 0x16
 11074 3373 78330000 		.4byte	0x3378
 11075 3377 00       		.byte	0
 11076 3378 07       		.uleb128 0x7
 11077 3379 04       		.byte	0x4
 11078 337a 3A0A0000 		.4byte	0xa3a
 11079 337e 4C       		.uleb128 0x4c
 11080 337f 0E000000 		.4byte	.LASF720
 11081 3383 0C       		.byte	0xc
 11082 3384 C201     		.2byte	0x1c2
 11083 3386 AF030000 		.4byte	0x3af
 11084 338a 94330000 		.4byte	0x3394
 11085 338e 16       		.uleb128 0x16
 11086 338f 94330000 		.4byte	0x3394
ARM GAS  C:\Users\Helon\AppData\Local\Temp\ccTLkFeM.s 			page 255


 11087 3393 00       		.byte	0
 11088 3394 07       		.uleb128 0x7
 11089 3395 04       		.byte	0x4
 11090 3396 9A330000 		.4byte	0x339a
 11091 339a 0A       		.uleb128 0xa
 11092 339b 0F050000 		.4byte	0x50f
 11093 339f 4C       		.uleb128 0x4c
 11094 33a0 47160000 		.4byte	.LASF721
 11095 33a4 06       		.byte	0x6
 11096 33a5 1F05     		.2byte	0x51f
 11097 33a7 AF030000 		.4byte	0x3af
 11098 33ab B5330000 		.4byte	0x33b5
 11099 33af 16       		.uleb128 0x16
 11100 33b0 B5330000 		.4byte	0x33b5
 11101 33b4 00       		.byte	0
 11102 33b5 07       		.uleb128 0x7
 11103 33b6 04       		.byte	0x4
 11104 33b7 CF040000 		.4byte	0x4cf
 11105 33bb 4C       		.uleb128 0x4c
 11106 33bc 54230000 		.4byte	.LASF722
 11107 33c0 06       		.byte	0x6
 11108 33c1 4105     		.2byte	0x541
 11109 33c3 AF030000 		.4byte	0x3af
 11110 33c7 D1330000 		.4byte	0x33d1
 11111 33cb 16       		.uleb128 0x16
 11112 33cc B5330000 		.4byte	0x33b5
 11113 33d0 00       		.byte	0
 11114 33d1 4A       		.uleb128 0x4a
 11115 33d2 BF340000 		.4byte	.LASF723
 11116 33d6 60010000 		.4byte	0x160
 11117 33da EE330000 		.4byte	0x33ee
 11118 33de 16       		.uleb128 0x16
 11119 33df 60010000 		.4byte	0x160
 11120 33e3 16       		.uleb128 0x16
 11121 33e4 2C000000 		.4byte	0x2c
 11122 33e8 16       		.uleb128 0x16
 11123 33e9 59010000 		.4byte	0x159
 11124 33ed 00       		.byte	0
 11125 33ee 4E       		.uleb128 0x4e
 11126 33ef E9020000 		.4byte	.LASF724
 11127 33f3 18       		.byte	0x18
 11128 33f4 5D       		.byte	0x5d
 11129 33f5 4C       		.uleb128 0x4c
 11130 33f6 6E190000 		.4byte	.LASF725
 11131 33fa 06       		.byte	0x6
 11132 33fb E504     		.2byte	0x4e5
 11133 33fd AF030000 		.4byte	0x3af
 11134 3401 0B340000 		.4byte	0x340b
 11135 3405 16       		.uleb128 0x16
 11136 3406 0B340000 		.4byte	0x340b
 11137 340a 00       		.byte	0
 11138 340b 07       		.uleb128 0x7
 11139 340c 04       		.byte	0x4
 11140 340d 0F050000 		.4byte	0x50f
 11141 3411 4C       		.uleb128 0x4c
 11142 3412 0C150000 		.4byte	.LASF726
 11143 3416 0D       		.byte	0xd
ARM GAS  C:\Users\Helon\AppData\Local\Temp\ccTLkFeM.s 			page 256


 11144 3417 6908     		.2byte	0x869
 11145 3419 AF030000 		.4byte	0x3af
 11146 341d 27340000 		.4byte	0x3427
 11147 3421 16       		.uleb128 0x16
 11148 3422 27340000 		.4byte	0x3427
 11149 3426 00       		.byte	0
 11150 3427 07       		.uleb128 0x7
 11151 3428 04       		.byte	0x4
 11152 3429 13010000 		.4byte	0x113
 11153 342d 49       		.uleb128 0x49
 11154 342e 70170000 		.4byte	.LASF727
 11155 3432 0C       		.byte	0xc
 11156 3433 B101     		.2byte	0x1b1
 11157 3435 4C       		.uleb128 0x4c
 11158 3436 753A0000 		.4byte	.LASF728
 11159 343a 0D       		.byte	0xd
 11160 343b 6808     		.2byte	0x868
 11161 343d AF030000 		.4byte	0x3af
 11162 3441 4B340000 		.4byte	0x344b
 11163 3445 16       		.uleb128 0x16
 11164 3446 4B340000 		.4byte	0x344b
 11165 344a 00       		.byte	0
 11166 344b 07       		.uleb128 0x7
 11167 344c 04       		.byte	0x4
 11168 344d 51340000 		.4byte	0x3451
 11169 3451 0A       		.uleb128 0xa
 11170 3452 13010000 		.4byte	0x113
 11171 3456 4C       		.uleb128 0x4c
 11172 3457 76210000 		.4byte	.LASF729
 11173 345b 08       		.byte	0x8
 11174 345c A107     		.2byte	0x7a1
 11175 345e AF030000 		.4byte	0x3af
 11176 3462 71340000 		.4byte	0x3471
 11177 3466 16       		.uleb128 0x16
 11178 3467 CE070000 		.4byte	0x7ce
 11179 346b 16       		.uleb128 0x16
 11180 346c D4070000 		.4byte	0x7d4
 11181 3470 00       		.byte	0
 11182 3471 45       		.uleb128 0x45
 11183 3472 9B250000 		.4byte	.LASF730
 11184 3476 20       		.byte	0x20
 11185 3477 32       		.byte	0x32
 11186 3478 F6000000 		.4byte	0xf6
 11187 347c 8B340000 		.4byte	0x348b
 11188 3480 16       		.uleb128 0x16
 11189 3481 E0000000 		.4byte	0xe0
 11190 3485 16       		.uleb128 0x16
 11191 3486 8B340000 		.4byte	0x348b
 11192 348a 00       		.byte	0
 11193 348b 07       		.uleb128 0x7
 11194 348c 04       		.byte	0x4
 11195 348d F6000000 		.4byte	0xf6
 11196 3491 4C       		.uleb128 0x4c
 11197 3492 AC120000 		.4byte	.LASF731
 11198 3496 0C       		.byte	0xc
 11199 3497 B001     		.2byte	0x1b0
 11200 3499 AF030000 		.4byte	0x3af
ARM GAS  C:\Users\Helon\AppData\Local\Temp\ccTLkFeM.s 			page 257


 11201 349d A7340000 		.4byte	0x34a7
 11202 34a1 16       		.uleb128 0x16
 11203 34a2 E0000000 		.4byte	0xe0
 11204 34a6 00       		.byte	0
 11205 34a7 4C       		.uleb128 0x4c
 11206 34a8 D00F0000 		.4byte	.LASF732
 11207 34ac 0C       		.byte	0xc
 11208 34ad BD01     		.2byte	0x1bd
 11209 34af AF030000 		.4byte	0x3af
 11210 34b3 BD340000 		.4byte	0x34bd
 11211 34b7 16       		.uleb128 0x16
 11212 34b8 E0000000 		.4byte	0xe0
 11213 34bc 00       		.byte	0
 11214 34bd 4C       		.uleb128 0x4c
 11215 34be D30C0000 		.4byte	.LASF733
 11216 34c2 0B       		.byte	0xb
 11217 34c3 8002     		.2byte	0x280
 11218 34c5 AF030000 		.4byte	0x3af
 11219 34c9 D8340000 		.4byte	0x34d8
 11220 34cd 16       		.uleb128 0x16
 11221 34ce 14090000 		.4byte	0x914
 11222 34d2 16       		.uleb128 0x16
 11223 34d3 D8340000 		.4byte	0x34d8
 11224 34d7 00       		.byte	0
 11225 34d8 07       		.uleb128 0x7
 11226 34d9 04       		.byte	0x4
 11227 34da 240A0000 		.4byte	0xa24
 11228 34de 4E       		.uleb128 0x4e
 11229 34df 0A340000 		.4byte	.LASF734
 11230 34e3 10       		.byte	0x10
 11231 34e4 21       		.byte	0x21
 11232 34e5 4C       		.uleb128 0x4c
 11233 34e6 2D200000 		.4byte	.LASF735
 11234 34ea 08       		.byte	0x8
 11235 34eb DA04     		.2byte	0x4da
 11236 34ed AF030000 		.4byte	0x3af
 11237 34f1 FB340000 		.4byte	0x34fb
 11238 34f5 16       		.uleb128 0x16
 11239 34f6 E0000000 		.4byte	0xe0
 11240 34fa 00       		.byte	0
 11241 34fb 47       		.uleb128 0x47
 11242 34fc 63280000 		.4byte	.LASF736
 11243 3500 06       		.byte	0x6
 11244 3501 FA04     		.2byte	0x4fa
 11245 3503 01010000 		.4byte	0x101
 11246 3507 4C       		.uleb128 0x4c
 11247 3508 6B030000 		.4byte	.LASF737
 11248 350c 08       		.byte	0x8
 11249 350d 1A03     		.2byte	0x31a
 11250 350f AF030000 		.4byte	0x3af
 11251 3513 1D350000 		.4byte	0x351d
 11252 3517 16       		.uleb128 0x16
 11253 3518 C7050000 		.4byte	0x5c7
 11254 351c 00       		.byte	0
 11255 351d 4C       		.uleb128 0x4c
 11256 351e 562C0000 		.4byte	.LASF738
 11257 3522 08       		.byte	0x8
ARM GAS  C:\Users\Helon\AppData\Local\Temp\ccTLkFeM.s 			page 258


 11258 3523 EE05     		.2byte	0x5ee
 11259 3525 AF030000 		.4byte	0x3af
 11260 3529 38350000 		.4byte	0x3538
 11261 352d 16       		.uleb128 0x16
 11262 352e E0000000 		.4byte	0xe0
 11263 3532 16       		.uleb128 0x16
 11264 3533 80310000 		.4byte	0x3180
 11265 3537 00       		.byte	0
 11266 3538 47       		.uleb128 0x47
 11267 3539 073B0000 		.4byte	.LASF739
 11268 353d 0E       		.byte	0xe
 11269 353e 8601     		.2byte	0x186
 11270 3540 F6000000 		.4byte	0xf6
 11271 3544 47       		.uleb128 0x47
 11272 3545 B72F0000 		.4byte	.LASF740
 11273 3549 0E       		.byte	0xe
 11274 354a 6B01     		.2byte	0x16b
 11275 354c F6000000 		.4byte	0xf6
 11276 3550 45       		.uleb128 0x45
 11277 3551 AB160000 		.4byte	.LASF741
 11278 3555 1E       		.byte	0x1e
 11279 3556 16       		.byte	0x16
 11280 3557 2C000000 		.4byte	0x2c
 11281 355b 6F350000 		.4byte	0x356f
 11282 355f 16       		.uleb128 0x16
 11283 3560 DA300000 		.4byte	0x30da
 11284 3564 16       		.uleb128 0x16
 11285 3565 DA300000 		.4byte	0x30da
 11286 3569 16       		.uleb128 0x16
 11287 356a 4E010000 		.4byte	0x14e
 11288 356e 00       		.byte	0
 11289 356f 4C       		.uleb128 0x4c
 11290 3570 6A0A0000 		.4byte	.LASF742
 11291 3574 0B       		.byte	0xb
 11292 3575 BD03     		.2byte	0x3bd
 11293 3577 AF030000 		.4byte	0x3af
 11294 357b 8A350000 		.4byte	0x358a
 11295 357f 16       		.uleb128 0x16
 11296 3580 14090000 		.4byte	0x914
 11297 3584 16       		.uleb128 0x16
 11298 3585 8A350000 		.4byte	0x358a
 11299 3589 00       		.byte	0
 11300 358a 07       		.uleb128 0x7
 11301 358b 04       		.byte	0x4
 11302 358c 450A0000 		.4byte	0xa45
 11303 3590 49       		.uleb128 0x49
 11304 3591 5A370000 		.4byte	.LASF743
 11305 3595 06       		.byte	0x6
 11306 3596 A304     		.2byte	0x4a3
 11307 3598 47       		.uleb128 0x47
 11308 3599 F7090000 		.4byte	.LASF744
 11309 359d 0E       		.byte	0xe
 11310 359e 6A01     		.2byte	0x16a
 11311 35a0 F6000000 		.4byte	0xf6
 11312 35a4 50       		.uleb128 0x50
 11313 35a5 89430000 		.4byte	.LASF745
 11314 35a9 08       		.byte	0x8
ARM GAS  C:\Users\Helon\AppData\Local\Temp\ccTLkFeM.s 			page 259


 11315 35aa 6B06     		.2byte	0x66b
 11316 35ac AF030000 		.4byte	0x3af
 11317 35b0 16       		.uleb128 0x16
 11318 35b1 E0000000 		.4byte	0xe0
 11319 35b5 16       		.uleb128 0x16
 11320 35b6 F6000000 		.4byte	0xf6
 11321 35ba 16       		.uleb128 0x16
 11322 35bb E0000000 		.4byte	0xe0
 11323 35bf 00       		.byte	0
 11324 35c0 00       		.byte	0
 11325              		.section	.debug_abbrev,"",%progbits
 11326              	.Ldebug_abbrev0:
 11327 0000 01       		.uleb128 0x1
 11328 0001 11       		.uleb128 0x11
 11329 0002 01       		.byte	0x1
 11330 0003 25       		.uleb128 0x25
 11331 0004 0E       		.uleb128 0xe
 11332 0005 13       		.uleb128 0x13
 11333 0006 0B       		.uleb128 0xb
 11334 0007 03       		.uleb128 0x3
 11335 0008 0E       		.uleb128 0xe
 11336 0009 1B       		.uleb128 0x1b
 11337 000a 0E       		.uleb128 0xe
 11338 000b 55       		.uleb128 0x55
 11339 000c 17       		.uleb128 0x17
 11340 000d 11       		.uleb128 0x11
 11341 000e 01       		.uleb128 0x1
 11342 000f 10       		.uleb128 0x10
 11343 0010 17       		.uleb128 0x17
 11344 0011 00       		.byte	0
 11345 0012 00       		.byte	0
 11346 0013 02       		.uleb128 0x2
 11347 0014 24       		.uleb128 0x24
 11348 0015 00       		.byte	0
 11349 0016 0B       		.uleb128 0xb
 11350 0017 0B       		.uleb128 0xb
 11351 0018 3E       		.uleb128 0x3e
 11352 0019 0B       		.uleb128 0xb
 11353 001a 03       		.uleb128 0x3
 11354 001b 0E       		.uleb128 0xe
 11355 001c 00       		.byte	0
 11356 001d 00       		.byte	0
 11357 001e 03       		.uleb128 0x3
 11358 001f 24       		.uleb128 0x24
 11359 0020 00       		.byte	0
 11360 0021 0B       		.uleb128 0xb
 11361 0022 0B       		.uleb128 0xb
 11362 0023 3E       		.uleb128 0x3e
 11363 0024 0B       		.uleb128 0xb
 11364 0025 03       		.uleb128 0x3
 11365 0026 08       		.uleb128 0x8
 11366 0027 00       		.byte	0
 11367 0028 00       		.byte	0
 11368 0029 04       		.uleb128 0x4
 11369 002a 16       		.uleb128 0x16
 11370 002b 00       		.byte	0
 11371 002c 03       		.uleb128 0x3
ARM GAS  C:\Users\Helon\AppData\Local\Temp\ccTLkFeM.s 			page 260


 11372 002d 0E       		.uleb128 0xe
 11373 002e 3A       		.uleb128 0x3a
 11374 002f 0B       		.uleb128 0xb
 11375 0030 3B       		.uleb128 0x3b
 11376 0031 0B       		.uleb128 0xb
 11377 0032 49       		.uleb128 0x49
 11378 0033 13       		.uleb128 0x13
 11379 0034 00       		.byte	0
 11380 0035 00       		.byte	0
 11381 0036 05       		.uleb128 0x5
 11382 0037 35       		.uleb128 0x35
 11383 0038 00       		.byte	0
 11384 0039 49       		.uleb128 0x49
 11385 003a 13       		.uleb128 0x13
 11386 003b 00       		.byte	0
 11387 003c 00       		.byte	0
 11388 003d 06       		.uleb128 0x6
 11389 003e 16       		.uleb128 0x16
 11390 003f 00       		.byte	0
 11391 0040 03       		.uleb128 0x3
 11392 0041 0E       		.uleb128 0xe
 11393 0042 3A       		.uleb128 0x3a
 11394 0043 0B       		.uleb128 0xb
 11395 0044 3B       		.uleb128 0x3b
 11396 0045 05       		.uleb128 0x5
 11397 0046 49       		.uleb128 0x49
 11398 0047 13       		.uleb128 0x13
 11399 0048 00       		.byte	0
 11400 0049 00       		.byte	0
 11401 004a 07       		.uleb128 0x7
 11402 004b 0F       		.uleb128 0xf
 11403 004c 00       		.byte	0
 11404 004d 0B       		.uleb128 0xb
 11405 004e 0B       		.uleb128 0xb
 11406 004f 49       		.uleb128 0x49
 11407 0050 13       		.uleb128 0x13
 11408 0051 00       		.byte	0
 11409 0052 00       		.byte	0
 11410 0053 08       		.uleb128 0x8
 11411 0054 15       		.uleb128 0x15
 11412 0055 00       		.byte	0
 11413 0056 27       		.uleb128 0x27
 11414 0057 19       		.uleb128 0x19
 11415 0058 00       		.byte	0
 11416 0059 00       		.byte	0
 11417 005a 09       		.uleb128 0x9
 11418 005b 0F       		.uleb128 0xf
 11419 005c 00       		.byte	0
 11420 005d 0B       		.uleb128 0xb
 11421 005e 0B       		.uleb128 0xb
 11422 005f 00       		.byte	0
 11423 0060 00       		.byte	0
 11424 0061 0A       		.uleb128 0xa
 11425 0062 26       		.uleb128 0x26
 11426 0063 00       		.byte	0
 11427 0064 49       		.uleb128 0x49
 11428 0065 13       		.uleb128 0x13
ARM GAS  C:\Users\Helon\AppData\Local\Temp\ccTLkFeM.s 			page 261


 11429 0066 00       		.byte	0
 11430 0067 00       		.byte	0
 11431 0068 0B       		.uleb128 0xb
 11432 0069 04       		.uleb128 0x4
 11433 006a 01       		.byte	0x1
 11434 006b 0B       		.uleb128 0xb
 11435 006c 0B       		.uleb128 0xb
 11436 006d 3A       		.uleb128 0x3a
 11437 006e 0B       		.uleb128 0xb
 11438 006f 3B       		.uleb128 0x3b
 11439 0070 0B       		.uleb128 0xb
 11440 0071 01       		.uleb128 0x1
 11441 0072 13       		.uleb128 0x13
 11442 0073 00       		.byte	0
 11443 0074 00       		.byte	0
 11444 0075 0C       		.uleb128 0xc
 11445 0076 28       		.uleb128 0x28
 11446 0077 00       		.byte	0
 11447 0078 03       		.uleb128 0x3
 11448 0079 0E       		.uleb128 0xe
 11449 007a 1C       		.uleb128 0x1c
 11450 007b 0D       		.uleb128 0xd
 11451 007c 00       		.byte	0
 11452 007d 00       		.byte	0
 11453 007e 0D       		.uleb128 0xd
 11454 007f 04       		.uleb128 0x4
 11455 0080 01       		.byte	0x1
 11456 0081 0B       		.uleb128 0xb
 11457 0082 0B       		.uleb128 0xb
 11458 0083 3A       		.uleb128 0x3a
 11459 0084 0B       		.uleb128 0xb
 11460 0085 3B       		.uleb128 0x3b
 11461 0086 05       		.uleb128 0x5
 11462 0087 01       		.uleb128 0x1
 11463 0088 13       		.uleb128 0x13
 11464 0089 00       		.byte	0
 11465 008a 00       		.byte	0
 11466 008b 0E       		.uleb128 0xe
 11467 008c 13       		.uleb128 0x13
 11468 008d 01       		.byte	0x1
 11469 008e 0B       		.uleb128 0xb
 11470 008f 0B       		.uleb128 0xb
 11471 0090 3A       		.uleb128 0x3a
 11472 0091 0B       		.uleb128 0xb
 11473 0092 3B       		.uleb128 0x3b
 11474 0093 05       		.uleb128 0x5
 11475 0094 01       		.uleb128 0x1
 11476 0095 13       		.uleb128 0x13
 11477 0096 00       		.byte	0
 11478 0097 00       		.byte	0
 11479 0098 0F       		.uleb128 0xf
 11480 0099 0D       		.uleb128 0xd
 11481 009a 00       		.byte	0
 11482 009b 03       		.uleb128 0x3
 11483 009c 0E       		.uleb128 0xe
 11484 009d 3A       		.uleb128 0x3a
 11485 009e 0B       		.uleb128 0xb
ARM GAS  C:\Users\Helon\AppData\Local\Temp\ccTLkFeM.s 			page 262


 11486 009f 3B       		.uleb128 0x3b
 11487 00a0 05       		.uleb128 0x5
 11488 00a1 49       		.uleb128 0x49
 11489 00a2 13       		.uleb128 0x13
 11490 00a3 38       		.uleb128 0x38
 11491 00a4 0B       		.uleb128 0xb
 11492 00a5 00       		.byte	0
 11493 00a6 00       		.byte	0
 11494 00a7 10       		.uleb128 0x10
 11495 00a8 01       		.uleb128 0x1
 11496 00a9 01       		.byte	0x1
 11497 00aa 49       		.uleb128 0x49
 11498 00ab 13       		.uleb128 0x13
 11499 00ac 01       		.uleb128 0x1
 11500 00ad 13       		.uleb128 0x13
 11501 00ae 00       		.byte	0
 11502 00af 00       		.byte	0
 11503 00b0 11       		.uleb128 0x11
 11504 00b1 21       		.uleb128 0x21
 11505 00b2 00       		.byte	0
 11506 00b3 49       		.uleb128 0x49
 11507 00b4 13       		.uleb128 0x13
 11508 00b5 2F       		.uleb128 0x2f
 11509 00b6 0B       		.uleb128 0xb
 11510 00b7 00       		.byte	0
 11511 00b8 00       		.byte	0
 11512 00b9 12       		.uleb128 0x12
 11513 00ba 0D       		.uleb128 0xd
 11514 00bb 00       		.byte	0
 11515 00bc 03       		.uleb128 0x3
 11516 00bd 08       		.uleb128 0x8
 11517 00be 3A       		.uleb128 0x3a
 11518 00bf 0B       		.uleb128 0xb
 11519 00c0 3B       		.uleb128 0x3b
 11520 00c1 05       		.uleb128 0x5
 11521 00c2 49       		.uleb128 0x49
 11522 00c3 13       		.uleb128 0x13
 11523 00c4 38       		.uleb128 0x38
 11524 00c5 0B       		.uleb128 0xb
 11525 00c6 00       		.byte	0
 11526 00c7 00       		.byte	0
 11527 00c8 13       		.uleb128 0x13
 11528 00c9 13       		.uleb128 0x13
 11529 00ca 01       		.byte	0x1
 11530 00cb 0B       		.uleb128 0xb
 11531 00cc 0B       		.uleb128 0xb
 11532 00cd 3A       		.uleb128 0x3a
 11533 00ce 0B       		.uleb128 0xb
 11534 00cf 3B       		.uleb128 0x3b
 11535 00d0 0B       		.uleb128 0xb
 11536 00d1 01       		.uleb128 0x1
 11537 00d2 13       		.uleb128 0x13
 11538 00d3 00       		.byte	0
 11539 00d4 00       		.byte	0
 11540 00d5 14       		.uleb128 0x14
 11541 00d6 0D       		.uleb128 0xd
 11542 00d7 00       		.byte	0
ARM GAS  C:\Users\Helon\AppData\Local\Temp\ccTLkFeM.s 			page 263


 11543 00d8 03       		.uleb128 0x3
 11544 00d9 0E       		.uleb128 0xe
 11545 00da 3A       		.uleb128 0x3a
 11546 00db 0B       		.uleb128 0xb
 11547 00dc 3B       		.uleb128 0x3b
 11548 00dd 0B       		.uleb128 0xb
 11549 00de 49       		.uleb128 0x49
 11550 00df 13       		.uleb128 0x13
 11551 00e0 38       		.uleb128 0x38
 11552 00e1 0B       		.uleb128 0xb
 11553 00e2 00       		.byte	0
 11554 00e3 00       		.byte	0
 11555 00e4 15       		.uleb128 0x15
 11556 00e5 15       		.uleb128 0x15
 11557 00e6 01       		.byte	0x1
 11558 00e7 27       		.uleb128 0x27
 11559 00e8 19       		.uleb128 0x19
 11560 00e9 01       		.uleb128 0x1
 11561 00ea 13       		.uleb128 0x13
 11562 00eb 00       		.byte	0
 11563 00ec 00       		.byte	0
 11564 00ed 16       		.uleb128 0x16
 11565 00ee 05       		.uleb128 0x5
 11566 00ef 00       		.byte	0
 11567 00f0 49       		.uleb128 0x49
 11568 00f1 13       		.uleb128 0x13
 11569 00f2 00       		.byte	0
 11570 00f3 00       		.byte	0
 11571 00f4 17       		.uleb128 0x17
 11572 00f5 28       		.uleb128 0x28
 11573 00f6 00       		.byte	0
 11574 00f7 03       		.uleb128 0x3
 11575 00f8 08       		.uleb128 0x8
 11576 00f9 1C       		.uleb128 0x1c
 11577 00fa 0D       		.uleb128 0xd
 11578 00fb 00       		.byte	0
 11579 00fc 00       		.byte	0
 11580 00fd 18       		.uleb128 0x18
 11581 00fe 0D       		.uleb128 0xd
 11582 00ff 00       		.byte	0
 11583 0100 03       		.uleb128 0x3
 11584 0101 08       		.uleb128 0x8
 11585 0102 3A       		.uleb128 0x3a
 11586 0103 0B       		.uleb128 0xb
 11587 0104 3B       		.uleb128 0x3b
 11588 0105 0B       		.uleb128 0xb
 11589 0106 49       		.uleb128 0x49
 11590 0107 13       		.uleb128 0x13
 11591 0108 38       		.uleb128 0x38
 11592 0109 0B       		.uleb128 0xb
 11593 010a 00       		.byte	0
 11594 010b 00       		.byte	0
 11595 010c 19       		.uleb128 0x19
 11596 010d 2E       		.uleb128 0x2e
 11597 010e 01       		.byte	0x1
 11598 010f 3F       		.uleb128 0x3f
 11599 0110 19       		.uleb128 0x19
ARM GAS  C:\Users\Helon\AppData\Local\Temp\ccTLkFeM.s 			page 264


 11600 0111 03       		.uleb128 0x3
 11601 0112 0E       		.uleb128 0xe
 11602 0113 3A       		.uleb128 0x3a
 11603 0114 0B       		.uleb128 0xb
 11604 0115 3B       		.uleb128 0x3b
 11605 0116 05       		.uleb128 0x5
 11606 0117 27       		.uleb128 0x27
 11607 0118 19       		.uleb128 0x19
 11608 0119 20       		.uleb128 0x20
 11609 011a 0B       		.uleb128 0xb
 11610 011b 01       		.uleb128 0x1
 11611 011c 13       		.uleb128 0x13
 11612 011d 00       		.byte	0
 11613 011e 00       		.byte	0
 11614 011f 1A       		.uleb128 0x1a
 11615 0120 34       		.uleb128 0x34
 11616 0121 00       		.byte	0
 11617 0122 03       		.uleb128 0x3
 11618 0123 0E       		.uleb128 0xe
 11619 0124 3A       		.uleb128 0x3a
 11620 0125 0B       		.uleb128 0xb
 11621 0126 3B       		.uleb128 0x3b
 11622 0127 05       		.uleb128 0x5
 11623 0128 49       		.uleb128 0x49
 11624 0129 13       		.uleb128 0x13
 11625 012a 00       		.byte	0
 11626 012b 00       		.byte	0
 11627 012c 1B       		.uleb128 0x1b
 11628 012d 2E       		.uleb128 0x2e
 11629 012e 01       		.byte	0x1
 11630 012f 3F       		.uleb128 0x3f
 11631 0130 19       		.uleb128 0x19
 11632 0131 03       		.uleb128 0x3
 11633 0132 0E       		.uleb128 0xe
 11634 0133 3A       		.uleb128 0x3a
 11635 0134 0B       		.uleb128 0xb
 11636 0135 3B       		.uleb128 0x3b
 11637 0136 05       		.uleb128 0x5
 11638 0137 27       		.uleb128 0x27
 11639 0138 19       		.uleb128 0x19
 11640 0139 49       		.uleb128 0x49
 11641 013a 13       		.uleb128 0x13
 11642 013b 20       		.uleb128 0x20
 11643 013c 0B       		.uleb128 0xb
 11644 013d 01       		.uleb128 0x1
 11645 013e 13       		.uleb128 0x13
 11646 013f 00       		.byte	0
 11647 0140 00       		.byte	0
 11648 0141 1C       		.uleb128 0x1c
 11649 0142 05       		.uleb128 0x5
 11650 0143 00       		.byte	0
 11651 0144 03       		.uleb128 0x3
 11652 0145 0E       		.uleb128 0xe
 11653 0146 3A       		.uleb128 0x3a
 11654 0147 0B       		.uleb128 0xb
 11655 0148 3B       		.uleb128 0x3b
 11656 0149 05       		.uleb128 0x5
ARM GAS  C:\Users\Helon\AppData\Local\Temp\ccTLkFeM.s 			page 265


 11657 014a 49       		.uleb128 0x49
 11658 014b 13       		.uleb128 0x13
 11659 014c 00       		.byte	0
 11660 014d 00       		.byte	0
 11661 014e 1D       		.uleb128 0x1d
 11662 014f 34       		.uleb128 0x34
 11663 0150 00       		.byte	0
 11664 0151 03       		.uleb128 0x3
 11665 0152 08       		.uleb128 0x8
 11666 0153 3A       		.uleb128 0x3a
 11667 0154 0B       		.uleb128 0xb
 11668 0155 3B       		.uleb128 0x3b
 11669 0156 05       		.uleb128 0x5
 11670 0157 49       		.uleb128 0x49
 11671 0158 13       		.uleb128 0x13
 11672 0159 00       		.byte	0
 11673 015a 00       		.byte	0
 11674 015b 1E       		.uleb128 0x1e
 11675 015c 05       		.uleb128 0x5
 11676 015d 00       		.byte	0
 11677 015e 03       		.uleb128 0x3
 11678 015f 08       		.uleb128 0x8
 11679 0160 3A       		.uleb128 0x3a
 11680 0161 0B       		.uleb128 0xb
 11681 0162 3B       		.uleb128 0x3b
 11682 0163 05       		.uleb128 0x5
 11683 0164 49       		.uleb128 0x49
 11684 0165 13       		.uleb128 0x13
 11685 0166 00       		.byte	0
 11686 0167 00       		.byte	0
 11687 0168 1F       		.uleb128 0x1f
 11688 0169 2E       		.uleb128 0x2e
 11689 016a 01       		.byte	0x1
 11690 016b 3F       		.uleb128 0x3f
 11691 016c 19       		.uleb128 0x19
 11692 016d 03       		.uleb128 0x3
 11693 016e 0E       		.uleb128 0xe
 11694 016f 3A       		.uleb128 0x3a
 11695 0170 0B       		.uleb128 0xb
 11696 0171 3B       		.uleb128 0x3b
 11697 0172 0B       		.uleb128 0xb
 11698 0173 27       		.uleb128 0x27
 11699 0174 19       		.uleb128 0x19
 11700 0175 11       		.uleb128 0x11
 11701 0176 01       		.uleb128 0x1
 11702 0177 12       		.uleb128 0x12
 11703 0178 06       		.uleb128 0x6
 11704 0179 40       		.uleb128 0x40
 11705 017a 18       		.uleb128 0x18
 11706 017b 9742     		.uleb128 0x2117
 11707 017d 19       		.uleb128 0x19
 11708 017e 01       		.uleb128 0x1
 11709 017f 13       		.uleb128 0x13
 11710 0180 00       		.byte	0
 11711 0181 00       		.byte	0
 11712 0182 20       		.uleb128 0x20
 11713 0183 05       		.uleb128 0x5
ARM GAS  C:\Users\Helon\AppData\Local\Temp\ccTLkFeM.s 			page 266


 11714 0184 00       		.byte	0
 11715 0185 03       		.uleb128 0x3
 11716 0186 0E       		.uleb128 0xe
 11717 0187 3A       		.uleb128 0x3a
 11718 0188 0B       		.uleb128 0xb
 11719 0189 3B       		.uleb128 0x3b
 11720 018a 0B       		.uleb128 0xb
 11721 018b 49       		.uleb128 0x49
 11722 018c 13       		.uleb128 0x13
 11723 018d 02       		.uleb128 0x2
 11724 018e 17       		.uleb128 0x17
 11725 018f 00       		.byte	0
 11726 0190 00       		.byte	0
 11727 0191 21       		.uleb128 0x21
 11728 0192 34       		.uleb128 0x34
 11729 0193 00       		.byte	0
 11730 0194 03       		.uleb128 0x3
 11731 0195 0E       		.uleb128 0xe
 11732 0196 3A       		.uleb128 0x3a
 11733 0197 0B       		.uleb128 0xb
 11734 0198 3B       		.uleb128 0x3b
 11735 0199 0B       		.uleb128 0xb
 11736 019a 49       		.uleb128 0x49
 11737 019b 13       		.uleb128 0x13
 11738 019c 02       		.uleb128 0x2
 11739 019d 18       		.uleb128 0x18
 11740 019e 00       		.byte	0
 11741 019f 00       		.byte	0
 11742 01a0 22       		.uleb128 0x22
 11743 01a1 34       		.uleb128 0x34
 11744 01a2 00       		.byte	0
 11745 01a3 03       		.uleb128 0x3
 11746 01a4 0E       		.uleb128 0xe
 11747 01a5 3A       		.uleb128 0x3a
 11748 01a6 0B       		.uleb128 0xb
 11749 01a7 3B       		.uleb128 0x3b
 11750 01a8 0B       		.uleb128 0xb
 11751 01a9 49       		.uleb128 0x49
 11752 01aa 13       		.uleb128 0x13
 11753 01ab 02       		.uleb128 0x2
 11754 01ac 17       		.uleb128 0x17
 11755 01ad 00       		.byte	0
 11756 01ae 00       		.byte	0
 11757 01af 23       		.uleb128 0x23
 11758 01b0 34       		.uleb128 0x34
 11759 01b1 00       		.byte	0
 11760 01b2 03       		.uleb128 0x3
 11761 01b3 08       		.uleb128 0x8
 11762 01b4 3A       		.uleb128 0x3a
 11763 01b5 0B       		.uleb128 0xb
 11764 01b6 3B       		.uleb128 0x3b
 11765 01b7 0B       		.uleb128 0xb
 11766 01b8 49       		.uleb128 0x49
 11767 01b9 13       		.uleb128 0x13
 11768 01ba 02       		.uleb128 0x2
 11769 01bb 17       		.uleb128 0x17
 11770 01bc 00       		.byte	0
ARM GAS  C:\Users\Helon\AppData\Local\Temp\ccTLkFeM.s 			page 267


 11771 01bd 00       		.byte	0
 11772 01be 24       		.uleb128 0x24
 11773 01bf 898201   		.uleb128 0x4109
 11774 01c2 01       		.byte	0x1
 11775 01c3 11       		.uleb128 0x11
 11776 01c4 01       		.uleb128 0x1
 11777 01c5 31       		.uleb128 0x31
 11778 01c6 13       		.uleb128 0x13
 11779 01c7 01       		.uleb128 0x1
 11780 01c8 13       		.uleb128 0x13
 11781 01c9 00       		.byte	0
 11782 01ca 00       		.byte	0
 11783 01cb 25       		.uleb128 0x25
 11784 01cc 8A8201   		.uleb128 0x410a
 11785 01cf 00       		.byte	0
 11786 01d0 02       		.uleb128 0x2
 11787 01d1 18       		.uleb128 0x18
 11788 01d2 9142     		.uleb128 0x2111
 11789 01d4 18       		.uleb128 0x18
 11790 01d5 00       		.byte	0
 11791 01d6 00       		.byte	0
 11792 01d7 26       		.uleb128 0x26
 11793 01d8 898201   		.uleb128 0x4109
 11794 01db 00       		.byte	0
 11795 01dc 11       		.uleb128 0x11
 11796 01dd 01       		.uleb128 0x1
 11797 01de 31       		.uleb128 0x31
 11798 01df 13       		.uleb128 0x13
 11799 01e0 00       		.byte	0
 11800 01e1 00       		.byte	0
 11801 01e2 27       		.uleb128 0x27
 11802 01e3 898201   		.uleb128 0x4109
 11803 01e6 01       		.byte	0x1
 11804 01e7 11       		.uleb128 0x11
 11805 01e8 01       		.uleb128 0x1
 11806 01e9 31       		.uleb128 0x31
 11807 01ea 13       		.uleb128 0x13
 11808 01eb 00       		.byte	0
 11809 01ec 00       		.byte	0
 11810 01ed 28       		.uleb128 0x28
 11811 01ee 2E       		.uleb128 0x2e
 11812 01ef 01       		.byte	0x1
 11813 01f0 31       		.uleb128 0x31
 11814 01f1 13       		.uleb128 0x13
 11815 01f2 11       		.uleb128 0x11
 11816 01f3 01       		.uleb128 0x1
 11817 01f4 12       		.uleb128 0x12
 11818 01f5 06       		.uleb128 0x6
 11819 01f6 40       		.uleb128 0x40
 11820 01f7 18       		.uleb128 0x18
 11821 01f8 9742     		.uleb128 0x2117
 11822 01fa 19       		.uleb128 0x19
 11823 01fb 01       		.uleb128 0x1
 11824 01fc 13       		.uleb128 0x13
 11825 01fd 00       		.byte	0
 11826 01fe 00       		.byte	0
 11827 01ff 29       		.uleb128 0x29
ARM GAS  C:\Users\Helon\AppData\Local\Temp\ccTLkFeM.s 			page 268


 11828 0200 34       		.uleb128 0x34
 11829 0201 00       		.byte	0
 11830 0202 31       		.uleb128 0x31
 11831 0203 13       		.uleb128 0x13
 11832 0204 02       		.uleb128 0x2
 11833 0205 18       		.uleb128 0x18
 11834 0206 00       		.byte	0
 11835 0207 00       		.byte	0
 11836 0208 2A       		.uleb128 0x2a
 11837 0209 0B       		.uleb128 0xb
 11838 020a 01       		.byte	0x1
 11839 020b 11       		.uleb128 0x11
 11840 020c 01       		.uleb128 0x1
 11841 020d 12       		.uleb128 0x12
 11842 020e 06       		.uleb128 0x6
 11843 020f 01       		.uleb128 0x1
 11844 0210 13       		.uleb128 0x13
 11845 0211 00       		.byte	0
 11846 0212 00       		.byte	0
 11847 0213 2B       		.uleb128 0x2b
 11848 0214 2E       		.uleb128 0x2e
 11849 0215 01       		.byte	0x1
 11850 0216 3F       		.uleb128 0x3f
 11851 0217 19       		.uleb128 0x19
 11852 0218 03       		.uleb128 0x3
 11853 0219 0E       		.uleb128 0xe
 11854 021a 3A       		.uleb128 0x3a
 11855 021b 0B       		.uleb128 0xb
 11856 021c 3B       		.uleb128 0x3b
 11857 021d 05       		.uleb128 0x5
 11858 021e 27       		.uleb128 0x27
 11859 021f 19       		.uleb128 0x19
 11860 0220 11       		.uleb128 0x11
 11861 0221 01       		.uleb128 0x1
 11862 0222 12       		.uleb128 0x12
 11863 0223 06       		.uleb128 0x6
 11864 0224 40       		.uleb128 0x40
 11865 0225 18       		.uleb128 0x18
 11866 0226 9742     		.uleb128 0x2117
 11867 0228 19       		.uleb128 0x19
 11868 0229 01       		.uleb128 0x1
 11869 022a 13       		.uleb128 0x13
 11870 022b 00       		.byte	0
 11871 022c 00       		.byte	0
 11872 022d 2C       		.uleb128 0x2c
 11873 022e 34       		.uleb128 0x34
 11874 022f 00       		.byte	0
 11875 0230 03       		.uleb128 0x3
 11876 0231 0E       		.uleb128 0xe
 11877 0232 3A       		.uleb128 0x3a
 11878 0233 0B       		.uleb128 0xb
 11879 0234 3B       		.uleb128 0x3b
 11880 0235 05       		.uleb128 0x5
 11881 0236 49       		.uleb128 0x49
 11882 0237 13       		.uleb128 0x13
 11883 0238 02       		.uleb128 0x2
 11884 0239 17       		.uleb128 0x17
ARM GAS  C:\Users\Helon\AppData\Local\Temp\ccTLkFeM.s 			page 269


 11885 023a 00       		.byte	0
 11886 023b 00       		.byte	0
 11887 023c 2D       		.uleb128 0x2d
 11888 023d 2E       		.uleb128 0x2e
 11889 023e 00       		.byte	0
 11890 023f 3F       		.uleb128 0x3f
 11891 0240 19       		.uleb128 0x19
 11892 0241 03       		.uleb128 0x3
 11893 0242 0E       		.uleb128 0xe
 11894 0243 3A       		.uleb128 0x3a
 11895 0244 0B       		.uleb128 0xb
 11896 0245 3B       		.uleb128 0x3b
 11897 0246 05       		.uleb128 0x5
 11898 0247 27       		.uleb128 0x27
 11899 0248 19       		.uleb128 0x19
 11900 0249 11       		.uleb128 0x11
 11901 024a 01       		.uleb128 0x1
 11902 024b 12       		.uleb128 0x12
 11903 024c 06       		.uleb128 0x6
 11904 024d 40       		.uleb128 0x40
 11905 024e 18       		.uleb128 0x18
 11906 024f 9742     		.uleb128 0x2117
 11907 0251 19       		.uleb128 0x19
 11908 0252 00       		.byte	0
 11909 0253 00       		.byte	0
 11910 0254 2E       		.uleb128 0x2e
 11911 0255 05       		.uleb128 0x5
 11912 0256 00       		.byte	0
 11913 0257 31       		.uleb128 0x31
 11914 0258 13       		.uleb128 0x13
 11915 0259 02       		.uleb128 0x2
 11916 025a 18       		.uleb128 0x18
 11917 025b 00       		.byte	0
 11918 025c 00       		.byte	0
 11919 025d 2F       		.uleb128 0x2f
 11920 025e 05       		.uleb128 0x5
 11921 025f 00       		.byte	0
 11922 0260 31       		.uleb128 0x31
 11923 0261 13       		.uleb128 0x13
 11924 0262 02       		.uleb128 0x2
 11925 0263 17       		.uleb128 0x17
 11926 0264 00       		.byte	0
 11927 0265 00       		.byte	0
 11928 0266 30       		.uleb128 0x30
 11929 0267 34       		.uleb128 0x34
 11930 0268 00       		.byte	0
 11931 0269 31       		.uleb128 0x31
 11932 026a 13       		.uleb128 0x13
 11933 026b 02       		.uleb128 0x2
 11934 026c 17       		.uleb128 0x17
 11935 026d 00       		.byte	0
 11936 026e 00       		.byte	0
 11937 026f 31       		.uleb128 0x31
 11938 0270 34       		.uleb128 0x34
 11939 0271 00       		.byte	0
 11940 0272 31       		.uleb128 0x31
 11941 0273 13       		.uleb128 0x13
ARM GAS  C:\Users\Helon\AppData\Local\Temp\ccTLkFeM.s 			page 270


 11942 0274 00       		.byte	0
 11943 0275 00       		.byte	0
 11944 0276 32       		.uleb128 0x32
 11945 0277 0B       		.uleb128 0xb
 11946 0278 01       		.byte	0x1
 11947 0279 11       		.uleb128 0x11
 11948 027a 01       		.uleb128 0x1
 11949 027b 12       		.uleb128 0x12
 11950 027c 06       		.uleb128 0x6
 11951 027d 00       		.byte	0
 11952 027e 00       		.byte	0
 11953 027f 33       		.uleb128 0x33
 11954 0280 05       		.uleb128 0x5
 11955 0281 00       		.byte	0
 11956 0282 03       		.uleb128 0x3
 11957 0283 08       		.uleb128 0x8
 11958 0284 3A       		.uleb128 0x3a
 11959 0285 0B       		.uleb128 0xb
 11960 0286 3B       		.uleb128 0x3b
 11961 0287 05       		.uleb128 0x5
 11962 0288 49       		.uleb128 0x49
 11963 0289 13       		.uleb128 0x13
 11964 028a 02       		.uleb128 0x2
 11965 028b 17       		.uleb128 0x17
 11966 028c 00       		.byte	0
 11967 028d 00       		.byte	0
 11968 028e 34       		.uleb128 0x34
 11969 028f 34       		.uleb128 0x34
 11970 0290 00       		.byte	0
 11971 0291 03       		.uleb128 0x3
 11972 0292 0E       		.uleb128 0xe
 11973 0293 3A       		.uleb128 0x3a
 11974 0294 0B       		.uleb128 0xb
 11975 0295 3B       		.uleb128 0x3b
 11976 0296 05       		.uleb128 0x5
 11977 0297 49       		.uleb128 0x49
 11978 0298 13       		.uleb128 0x13
 11979 0299 1C       		.uleb128 0x1c
 11980 029a 0B       		.uleb128 0xb
 11981 029b 00       		.byte	0
 11982 029c 00       		.byte	0
 11983 029d 35       		.uleb128 0x35
 11984 029e 34       		.uleb128 0x34
 11985 029f 00       		.byte	0
 11986 02a0 03       		.uleb128 0x3
 11987 02a1 0E       		.uleb128 0xe
 11988 02a2 3A       		.uleb128 0x3a
 11989 02a3 0B       		.uleb128 0xb
 11990 02a4 3B       		.uleb128 0x3b
 11991 02a5 05       		.uleb128 0x5
 11992 02a6 49       		.uleb128 0x49
 11993 02a7 13       		.uleb128 0x13
 11994 02a8 02       		.uleb128 0x2
 11995 02a9 18       		.uleb128 0x18
 11996 02aa 00       		.byte	0
 11997 02ab 00       		.byte	0
 11998 02ac 36       		.uleb128 0x36
ARM GAS  C:\Users\Helon\AppData\Local\Temp\ccTLkFeM.s 			page 271


 11999 02ad 34       		.uleb128 0x34
 12000 02ae 00       		.byte	0
 12001 02af 31       		.uleb128 0x31
 12002 02b0 13       		.uleb128 0x13
 12003 02b1 1C       		.uleb128 0x1c
 12004 02b2 0B       		.uleb128 0xb
 12005 02b3 00       		.byte	0
 12006 02b4 00       		.byte	0
 12007 02b5 37       		.uleb128 0x37
 12008 02b6 05       		.uleb128 0x5
 12009 02b7 00       		.byte	0
 12010 02b8 03       		.uleb128 0x3
 12011 02b9 0E       		.uleb128 0xe
 12012 02ba 3A       		.uleb128 0x3a
 12013 02bb 0B       		.uleb128 0xb
 12014 02bc 3B       		.uleb128 0x3b
 12015 02bd 05       		.uleb128 0x5
 12016 02be 49       		.uleb128 0x49
 12017 02bf 13       		.uleb128 0x13
 12018 02c0 02       		.uleb128 0x2
 12019 02c1 18       		.uleb128 0x18
 12020 02c2 00       		.byte	0
 12021 02c3 00       		.byte	0
 12022 02c4 38       		.uleb128 0x38
 12023 02c5 05       		.uleb128 0x5
 12024 02c6 00       		.byte	0
 12025 02c7 03       		.uleb128 0x3
 12026 02c8 0E       		.uleb128 0xe
 12027 02c9 3A       		.uleb128 0x3a
 12028 02ca 0B       		.uleb128 0xb
 12029 02cb 3B       		.uleb128 0x3b
 12030 02cc 05       		.uleb128 0x5
 12031 02cd 49       		.uleb128 0x49
 12032 02ce 13       		.uleb128 0x13
 12033 02cf 02       		.uleb128 0x2
 12034 02d0 17       		.uleb128 0x17
 12035 02d1 00       		.byte	0
 12036 02d2 00       		.byte	0
 12037 02d3 39       		.uleb128 0x39
 12038 02d4 34       		.uleb128 0x34
 12039 02d5 00       		.byte	0
 12040 02d6 03       		.uleb128 0x3
 12041 02d7 08       		.uleb128 0x8
 12042 02d8 3A       		.uleb128 0x3a
 12043 02d9 0B       		.uleb128 0xb
 12044 02da 3B       		.uleb128 0x3b
 12045 02db 05       		.uleb128 0x5
 12046 02dc 49       		.uleb128 0x49
 12047 02dd 13       		.uleb128 0x13
 12048 02de 02       		.uleb128 0x2
 12049 02df 17       		.uleb128 0x17
 12050 02e0 00       		.byte	0
 12051 02e1 00       		.byte	0
 12052 02e2 3A       		.uleb128 0x3a
 12053 02e3 0B       		.uleb128 0xb
 12054 02e4 01       		.byte	0x1
 12055 02e5 55       		.uleb128 0x55
ARM GAS  C:\Users\Helon\AppData\Local\Temp\ccTLkFeM.s 			page 272


 12056 02e6 17       		.uleb128 0x17
 12057 02e7 01       		.uleb128 0x1
 12058 02e8 13       		.uleb128 0x13
 12059 02e9 00       		.byte	0
 12060 02ea 00       		.byte	0
 12061 02eb 3B       		.uleb128 0x3b
 12062 02ec 2E       		.uleb128 0x2e
 12063 02ed 01       		.byte	0x1
 12064 02ee 31       		.uleb128 0x31
 12065 02ef 13       		.uleb128 0x13
 12066 02f0 11       		.uleb128 0x11
 12067 02f1 01       		.uleb128 0x1
 12068 02f2 12       		.uleb128 0x12
 12069 02f3 06       		.uleb128 0x6
 12070 02f4 40       		.uleb128 0x40
 12071 02f5 18       		.uleb128 0x18
 12072 02f6 9642     		.uleb128 0x2116
 12073 02f8 19       		.uleb128 0x19
 12074 02f9 01       		.uleb128 0x1
 12075 02fa 13       		.uleb128 0x13
 12076 02fb 00       		.byte	0
 12077 02fc 00       		.byte	0
 12078 02fd 3C       		.uleb128 0x3c
 12079 02fe 2E       		.uleb128 0x2e
 12080 02ff 01       		.byte	0x1
 12081 0300 3F       		.uleb128 0x3f
 12082 0301 19       		.uleb128 0x19
 12083 0302 03       		.uleb128 0x3
 12084 0303 0E       		.uleb128 0xe
 12085 0304 3A       		.uleb128 0x3a
 12086 0305 0B       		.uleb128 0xb
 12087 0306 3B       		.uleb128 0x3b
 12088 0307 05       		.uleb128 0x5
 12089 0308 27       		.uleb128 0x27
 12090 0309 19       		.uleb128 0x19
 12091 030a 11       		.uleb128 0x11
 12092 030b 01       		.uleb128 0x1
 12093 030c 12       		.uleb128 0x12
 12094 030d 06       		.uleb128 0x6
 12095 030e 40       		.uleb128 0x40
 12096 030f 18       		.uleb128 0x18
 12097 0310 9642     		.uleb128 0x2116
 12098 0312 19       		.uleb128 0x19
 12099 0313 01       		.uleb128 0x1
 12100 0314 13       		.uleb128 0x13
 12101 0315 00       		.byte	0
 12102 0316 00       		.byte	0
 12103 0317 3D       		.uleb128 0x3d
 12104 0318 34       		.uleb128 0x34
 12105 0319 00       		.byte	0
 12106 031a 34       		.uleb128 0x34
 12107 031b 19       		.uleb128 0x19
 12108 031c 49       		.uleb128 0x49
 12109 031d 13       		.uleb128 0x13
 12110 031e 02       		.uleb128 0x2
 12111 031f 17       		.uleb128 0x17
 12112 0320 00       		.byte	0
ARM GAS  C:\Users\Helon\AppData\Local\Temp\ccTLkFeM.s 			page 273


 12113 0321 00       		.byte	0
 12114 0322 3E       		.uleb128 0x3e
 12115 0323 1D       		.uleb128 0x1d
 12116 0324 01       		.byte	0x1
 12117 0325 31       		.uleb128 0x31
 12118 0326 13       		.uleb128 0x13
 12119 0327 11       		.uleb128 0x11
 12120 0328 01       		.uleb128 0x1
 12121 0329 12       		.uleb128 0x12
 12122 032a 06       		.uleb128 0x6
 12123 032b 58       		.uleb128 0x58
 12124 032c 0B       		.uleb128 0xb
 12125 032d 59       		.uleb128 0x59
 12126 032e 05       		.uleb128 0x5
 12127 032f 01       		.uleb128 0x1
 12128 0330 13       		.uleb128 0x13
 12129 0331 00       		.byte	0
 12130 0332 00       		.byte	0
 12131 0333 3F       		.uleb128 0x3f
 12132 0334 21       		.uleb128 0x21
 12133 0335 00       		.byte	0
 12134 0336 49       		.uleb128 0x49
 12135 0337 13       		.uleb128 0x13
 12136 0338 2F       		.uleb128 0x2f
 12137 0339 13       		.uleb128 0x13
 12138 033a 00       		.byte	0
 12139 033b 00       		.byte	0
 12140 033c 40       		.uleb128 0x40
 12141 033d 2E       		.uleb128 0x2e
 12142 033e 01       		.byte	0x1
 12143 033f 3F       		.uleb128 0x3f
 12144 0340 19       		.uleb128 0x19
 12145 0341 03       		.uleb128 0x3
 12146 0342 0E       		.uleb128 0xe
 12147 0343 3A       		.uleb128 0x3a
 12148 0344 0B       		.uleb128 0xb
 12149 0345 3B       		.uleb128 0x3b
 12150 0346 05       		.uleb128 0x5
 12151 0347 27       		.uleb128 0x27
 12152 0348 19       		.uleb128 0x19
 12153 0349 49       		.uleb128 0x49
 12154 034a 13       		.uleb128 0x13
 12155 034b 11       		.uleb128 0x11
 12156 034c 01       		.uleb128 0x1
 12157 034d 12       		.uleb128 0x12
 12158 034e 06       		.uleb128 0x6
 12159 034f 40       		.uleb128 0x40
 12160 0350 18       		.uleb128 0x18
 12161 0351 9742     		.uleb128 0x2117
 12162 0353 19       		.uleb128 0x19
 12163 0354 01       		.uleb128 0x1
 12164 0355 13       		.uleb128 0x13
 12165 0356 00       		.byte	0
 12166 0357 00       		.byte	0
 12167 0358 41       		.uleb128 0x41
 12168 0359 34       		.uleb128 0x34
 12169 035a 00       		.byte	0
ARM GAS  C:\Users\Helon\AppData\Local\Temp\ccTLkFeM.s 			page 274


 12170 035b 03       		.uleb128 0x3
 12171 035c 0E       		.uleb128 0xe
 12172 035d 3A       		.uleb128 0x3a
 12173 035e 0B       		.uleb128 0xb
 12174 035f 3B       		.uleb128 0x3b
 12175 0360 0B       		.uleb128 0xb
 12176 0361 49       		.uleb128 0x49
 12177 0362 13       		.uleb128 0x13
 12178 0363 3F       		.uleb128 0x3f
 12179 0364 19       		.uleb128 0x19
 12180 0365 3C       		.uleb128 0x3c
 12181 0366 19       		.uleb128 0x19
 12182 0367 00       		.byte	0
 12183 0368 00       		.byte	0
 12184 0369 42       		.uleb128 0x42
 12185 036a 34       		.uleb128 0x34
 12186 036b 00       		.byte	0
 12187 036c 03       		.uleb128 0x3
 12188 036d 0E       		.uleb128 0xe
 12189 036e 3A       		.uleb128 0x3a
 12190 036f 0B       		.uleb128 0xb
 12191 0370 3B       		.uleb128 0x3b
 12192 0371 05       		.uleb128 0x5
 12193 0372 49       		.uleb128 0x49
 12194 0373 13       		.uleb128 0x13
 12195 0374 3F       		.uleb128 0x3f
 12196 0375 19       		.uleb128 0x19
 12197 0376 3C       		.uleb128 0x3c
 12198 0377 19       		.uleb128 0x19
 12199 0378 00       		.byte	0
 12200 0379 00       		.byte	0
 12201 037a 43       		.uleb128 0x43
 12202 037b 34       		.uleb128 0x34
 12203 037c 00       		.byte	0
 12204 037d 03       		.uleb128 0x3
 12205 037e 0E       		.uleb128 0xe
 12206 037f 3A       		.uleb128 0x3a
 12207 0380 0B       		.uleb128 0xb
 12208 0381 3B       		.uleb128 0x3b
 12209 0382 0B       		.uleb128 0xb
 12210 0383 49       		.uleb128 0x49
 12211 0384 13       		.uleb128 0x13
 12212 0385 3F       		.uleb128 0x3f
 12213 0386 19       		.uleb128 0x19
 12214 0387 02       		.uleb128 0x2
 12215 0388 18       		.uleb128 0x18
 12216 0389 00       		.byte	0
 12217 038a 00       		.byte	0
 12218 038b 44       		.uleb128 0x44
 12219 038c 2E       		.uleb128 0x2e
 12220 038d 01       		.byte	0x1
 12221 038e 3F       		.uleb128 0x3f
 12222 038f 19       		.uleb128 0x19
 12223 0390 03       		.uleb128 0x3
 12224 0391 0E       		.uleb128 0xe
 12225 0392 3A       		.uleb128 0x3a
 12226 0393 0B       		.uleb128 0xb
ARM GAS  C:\Users\Helon\AppData\Local\Temp\ccTLkFeM.s 			page 275


 12227 0394 3B       		.uleb128 0x3b
 12228 0395 0B       		.uleb128 0xb
 12229 0396 6E       		.uleb128 0x6e
 12230 0397 0E       		.uleb128 0xe
 12231 0398 27       		.uleb128 0x27
 12232 0399 19       		.uleb128 0x19
 12233 039a 49       		.uleb128 0x49
 12234 039b 13       		.uleb128 0x13
 12235 039c 3C       		.uleb128 0x3c
 12236 039d 19       		.uleb128 0x19
 12237 039e 01       		.uleb128 0x1
 12238 039f 13       		.uleb128 0x13
 12239 03a0 00       		.byte	0
 12240 03a1 00       		.byte	0
 12241 03a2 45       		.uleb128 0x45
 12242 03a3 2E       		.uleb128 0x2e
 12243 03a4 01       		.byte	0x1
 12244 03a5 3F       		.uleb128 0x3f
 12245 03a6 19       		.uleb128 0x19
 12246 03a7 03       		.uleb128 0x3
 12247 03a8 0E       		.uleb128 0xe
 12248 03a9 3A       		.uleb128 0x3a
 12249 03aa 0B       		.uleb128 0xb
 12250 03ab 3B       		.uleb128 0x3b
 12251 03ac 0B       		.uleb128 0xb
 12252 03ad 27       		.uleb128 0x27
 12253 03ae 19       		.uleb128 0x19
 12254 03af 49       		.uleb128 0x49
 12255 03b0 13       		.uleb128 0x13
 12256 03b1 3C       		.uleb128 0x3c
 12257 03b2 19       		.uleb128 0x19
 12258 03b3 01       		.uleb128 0x1
 12259 03b4 13       		.uleb128 0x13
 12260 03b5 00       		.byte	0
 12261 03b6 00       		.byte	0
 12262 03b7 46       		.uleb128 0x46
 12263 03b8 18       		.uleb128 0x18
 12264 03b9 00       		.byte	0
 12265 03ba 00       		.byte	0
 12266 03bb 00       		.byte	0
 12267 03bc 47       		.uleb128 0x47
 12268 03bd 2E       		.uleb128 0x2e
 12269 03be 00       		.byte	0
 12270 03bf 3F       		.uleb128 0x3f
 12271 03c0 19       		.uleb128 0x19
 12272 03c1 03       		.uleb128 0x3
 12273 03c2 0E       		.uleb128 0xe
 12274 03c3 3A       		.uleb128 0x3a
 12275 03c4 0B       		.uleb128 0xb
 12276 03c5 3B       		.uleb128 0x3b
 12277 03c6 05       		.uleb128 0x5
 12278 03c7 27       		.uleb128 0x27
 12279 03c8 19       		.uleb128 0x19
 12280 03c9 49       		.uleb128 0x49
 12281 03ca 13       		.uleb128 0x13
 12282 03cb 3C       		.uleb128 0x3c
 12283 03cc 19       		.uleb128 0x19
ARM GAS  C:\Users\Helon\AppData\Local\Temp\ccTLkFeM.s 			page 276


 12284 03cd 00       		.byte	0
 12285 03ce 00       		.byte	0
 12286 03cf 48       		.uleb128 0x48
 12287 03d0 2E       		.uleb128 0x2e
 12288 03d1 01       		.byte	0x1
 12289 03d2 3F       		.uleb128 0x3f
 12290 03d3 19       		.uleb128 0x19
 12291 03d4 03       		.uleb128 0x3
 12292 03d5 0E       		.uleb128 0xe
 12293 03d6 3A       		.uleb128 0x3a
 12294 03d7 0B       		.uleb128 0xb
 12295 03d8 3B       		.uleb128 0x3b
 12296 03d9 0B       		.uleb128 0xb
 12297 03da 27       		.uleb128 0x27
 12298 03db 19       		.uleb128 0x19
 12299 03dc 3C       		.uleb128 0x3c
 12300 03dd 19       		.uleb128 0x19
 12301 03de 01       		.uleb128 0x1
 12302 03df 13       		.uleb128 0x13
 12303 03e0 00       		.byte	0
 12304 03e1 00       		.byte	0
 12305 03e2 49       		.uleb128 0x49
 12306 03e3 2E       		.uleb128 0x2e
 12307 03e4 00       		.byte	0
 12308 03e5 3F       		.uleb128 0x3f
 12309 03e6 19       		.uleb128 0x19
 12310 03e7 03       		.uleb128 0x3
 12311 03e8 0E       		.uleb128 0xe
 12312 03e9 3A       		.uleb128 0x3a
 12313 03ea 0B       		.uleb128 0xb
 12314 03eb 3B       		.uleb128 0x3b
 12315 03ec 05       		.uleb128 0x5
 12316 03ed 27       		.uleb128 0x27
 12317 03ee 19       		.uleb128 0x19
 12318 03ef 3C       		.uleb128 0x3c
 12319 03f0 19       		.uleb128 0x19
 12320 03f1 00       		.byte	0
 12321 03f2 00       		.byte	0
 12322 03f3 4A       		.uleb128 0x4a
 12323 03f4 2E       		.uleb128 0x2e
 12324 03f5 01       		.byte	0x1
 12325 03f6 3F       		.uleb128 0x3f
 12326 03f7 19       		.uleb128 0x19
 12327 03f8 03       		.uleb128 0x3
 12328 03f9 0E       		.uleb128 0xe
 12329 03fa 27       		.uleb128 0x27
 12330 03fb 19       		.uleb128 0x19
 12331 03fc 49       		.uleb128 0x49
 12332 03fd 13       		.uleb128 0x13
 12333 03fe 34       		.uleb128 0x34
 12334 03ff 19       		.uleb128 0x19
 12335 0400 3C       		.uleb128 0x3c
 12336 0401 19       		.uleb128 0x19
 12337 0402 01       		.uleb128 0x1
 12338 0403 13       		.uleb128 0x13
 12339 0404 00       		.byte	0
 12340 0405 00       		.byte	0
ARM GAS  C:\Users\Helon\AppData\Local\Temp\ccTLkFeM.s 			page 277


 12341 0406 4B       		.uleb128 0x4b
 12342 0407 26       		.uleb128 0x26
 12343 0408 00       		.byte	0
 12344 0409 00       		.byte	0
 12345 040a 00       		.byte	0
 12346 040b 4C       		.uleb128 0x4c
 12347 040c 2E       		.uleb128 0x2e
 12348 040d 01       		.byte	0x1
 12349 040e 3F       		.uleb128 0x3f
 12350 040f 19       		.uleb128 0x19
 12351 0410 03       		.uleb128 0x3
 12352 0411 0E       		.uleb128 0xe
 12353 0412 3A       		.uleb128 0x3a
 12354 0413 0B       		.uleb128 0xb
 12355 0414 3B       		.uleb128 0x3b
 12356 0415 05       		.uleb128 0x5
 12357 0416 27       		.uleb128 0x27
 12358 0417 19       		.uleb128 0x19
 12359 0418 49       		.uleb128 0x49
 12360 0419 13       		.uleb128 0x13
 12361 041a 3C       		.uleb128 0x3c
 12362 041b 19       		.uleb128 0x19
 12363 041c 01       		.uleb128 0x1
 12364 041d 13       		.uleb128 0x13
 12365 041e 00       		.byte	0
 12366 041f 00       		.byte	0
 12367 0420 4D       		.uleb128 0x4d
 12368 0421 2E       		.uleb128 0x2e
 12369 0422 01       		.byte	0x1
 12370 0423 3F       		.uleb128 0x3f
 12371 0424 19       		.uleb128 0x19
 12372 0425 03       		.uleb128 0x3
 12373 0426 0E       		.uleb128 0xe
 12374 0427 3A       		.uleb128 0x3a
 12375 0428 0B       		.uleb128 0xb
 12376 0429 3B       		.uleb128 0x3b
 12377 042a 05       		.uleb128 0x5
 12378 042b 27       		.uleb128 0x27
 12379 042c 19       		.uleb128 0x19
 12380 042d 3C       		.uleb128 0x3c
 12381 042e 19       		.uleb128 0x19
 12382 042f 01       		.uleb128 0x1
 12383 0430 13       		.uleb128 0x13
 12384 0431 00       		.byte	0
 12385 0432 00       		.byte	0
 12386 0433 4E       		.uleb128 0x4e
 12387 0434 2E       		.uleb128 0x2e
 12388 0435 00       		.byte	0
 12389 0436 3F       		.uleb128 0x3f
 12390 0437 19       		.uleb128 0x19
 12391 0438 03       		.uleb128 0x3
 12392 0439 0E       		.uleb128 0xe
 12393 043a 3A       		.uleb128 0x3a
 12394 043b 0B       		.uleb128 0xb
 12395 043c 3B       		.uleb128 0x3b
 12396 043d 0B       		.uleb128 0xb
 12397 043e 27       		.uleb128 0x27
ARM GAS  C:\Users\Helon\AppData\Local\Temp\ccTLkFeM.s 			page 278


 12398 043f 19       		.uleb128 0x19
 12399 0440 3C       		.uleb128 0x3c
 12400 0441 19       		.uleb128 0x19
 12401 0442 00       		.byte	0
 12402 0443 00       		.byte	0
 12403 0444 4F       		.uleb128 0x4f
 12404 0445 2E       		.uleb128 0x2e
 12405 0446 00       		.byte	0
 12406 0447 3F       		.uleb128 0x3f
 12407 0448 19       		.uleb128 0x19
 12408 0449 03       		.uleb128 0x3
 12409 044a 0E       		.uleb128 0xe
 12410 044b 3A       		.uleb128 0x3a
 12411 044c 0B       		.uleb128 0xb
 12412 044d 3B       		.uleb128 0x3b
 12413 044e 0B       		.uleb128 0xb
 12414 044f 27       		.uleb128 0x27
 12415 0450 19       		.uleb128 0x19
 12416 0451 49       		.uleb128 0x49
 12417 0452 13       		.uleb128 0x13
 12418 0453 3C       		.uleb128 0x3c
 12419 0454 19       		.uleb128 0x19
 12420 0455 00       		.byte	0
 12421 0456 00       		.byte	0
 12422 0457 50       		.uleb128 0x50
 12423 0458 2E       		.uleb128 0x2e
 12424 0459 01       		.byte	0x1
 12425 045a 3F       		.uleb128 0x3f
 12426 045b 19       		.uleb128 0x19
 12427 045c 03       		.uleb128 0x3
 12428 045d 0E       		.uleb128 0xe
 12429 045e 3A       		.uleb128 0x3a
 12430 045f 0B       		.uleb128 0xb
 12431 0460 3B       		.uleb128 0x3b
 12432 0461 05       		.uleb128 0x5
 12433 0462 27       		.uleb128 0x27
 12434 0463 19       		.uleb128 0x19
 12435 0464 49       		.uleb128 0x49
 12436 0465 13       		.uleb128 0x13
 12437 0466 3C       		.uleb128 0x3c
 12438 0467 19       		.uleb128 0x19
 12439 0468 00       		.byte	0
 12440 0469 00       		.byte	0
 12441 046a 00       		.byte	0
 12442              		.section	.debug_loc,"",%progbits
 12443              	.Ldebug_loc0:
 12444              	.LLST0:
 12445 0000 00000000 		.4byte	.LVL0
 12446 0004 24000000 		.4byte	.LVL1
 12447 0008 0100     		.2byte	0x1
 12448 000a 50       		.byte	0x50
 12449 000b 24000000 		.4byte	.LVL1
 12450 000f 2A000000 		.4byte	.LVL3
 12451 0013 0400     		.2byte	0x4
 12452 0015 F3       		.byte	0xf3
 12453 0016 01       		.uleb128 0x1
 12454 0017 50       		.byte	0x50
ARM GAS  C:\Users\Helon\AppData\Local\Temp\ccTLkFeM.s 			page 279


 12455 0018 9F       		.byte	0x9f
 12456 0019 2A000000 		.4byte	.LVL3
 12457 001d 44000000 		.4byte	.LVL5
 12458 0021 0100     		.2byte	0x1
 12459 0023 50       		.byte	0x50
 12460 0024 44000000 		.4byte	.LVL5
 12461 0028 4C000000 		.4byte	.LVL7
 12462 002c 0400     		.2byte	0x4
 12463 002e F3       		.byte	0xf3
 12464 002f 01       		.uleb128 0x1
 12465 0030 50       		.byte	0x50
 12466 0031 9F       		.byte	0x9f
 12467 0032 4C000000 		.4byte	.LVL7
 12468 0036 86000000 		.4byte	.LVL10
 12469 003a 0100     		.2byte	0x1
 12470 003c 50       		.byte	0x50
 12471 003d 86000000 		.4byte	.LVL10
 12472 0041 98000000 		.4byte	.LVL12
 12473 0045 0400     		.2byte	0x4
 12474 0047 F3       		.byte	0xf3
 12475 0048 01       		.uleb128 0x1
 12476 0049 50       		.byte	0x50
 12477 004a 9F       		.byte	0x9f
 12478 004b 98000000 		.4byte	.LVL12
 12479 004f 9A000000 		.4byte	.LVL13
 12480 0053 0100     		.2byte	0x1
 12481 0055 50       		.byte	0x50
 12482 0056 9A000000 		.4byte	.LVL13
 12483 005a AA000000 		.4byte	.LVL17
 12484 005e 0400     		.2byte	0x4
 12485 0060 F3       		.byte	0xf3
 12486 0061 01       		.uleb128 0x1
 12487 0062 50       		.byte	0x50
 12488 0063 9F       		.byte	0x9f
 12489 0064 AA000000 		.4byte	.LVL17
 12490 0068 B8000000 		.4byte	.LVL18
 12491 006c 0100     		.2byte	0x1
 12492 006e 50       		.byte	0x50
 12493 006f B8000000 		.4byte	.LVL18
 12494 0073 BC000000 		.4byte	.LVL19
 12495 0077 0400     		.2byte	0x4
 12496 0079 F3       		.byte	0xf3
 12497 007a 01       		.uleb128 0x1
 12498 007b 50       		.byte	0x50
 12499 007c 9F       		.byte	0x9f
 12500 007d BC000000 		.4byte	.LVL19
 12501 0081 C7000000 		.4byte	.LVL20-1
 12502 0085 0100     		.2byte	0x1
 12503 0087 50       		.byte	0x50
 12504 0088 C7000000 		.4byte	.LVL20-1
 12505 008c CC000000 		.4byte	.LVL21
 12506 0090 0400     		.2byte	0x4
 12507 0092 F3       		.byte	0xf3
 12508 0093 01       		.uleb128 0x1
 12509 0094 50       		.byte	0x50
 12510 0095 9F       		.byte	0x9f
 12511 0096 CC000000 		.4byte	.LVL21
ARM GAS  C:\Users\Helon\AppData\Local\Temp\ccTLkFeM.s 			page 280


 12512 009a D0000000 		.4byte	.LVL22
 12513 009e 0100     		.2byte	0x1
 12514 00a0 50       		.byte	0x50
 12515 00a1 D0000000 		.4byte	.LVL22
 12516 00a5 10010000 		.4byte	.LVL30
 12517 00a9 0400     		.2byte	0x4
 12518 00ab F3       		.byte	0xf3
 12519 00ac 01       		.uleb128 0x1
 12520 00ad 50       		.byte	0x50
 12521 00ae 9F       		.byte	0x9f
 12522 00af 10010000 		.4byte	.LVL30
 12523 00b3 12010000 		.4byte	.LVL31
 12524 00b7 0100     		.2byte	0x1
 12525 00b9 50       		.byte	0x50
 12526 00ba 12010000 		.4byte	.LVL31
 12527 00be 1C010000 		.4byte	.LVL33
 12528 00c2 0400     		.2byte	0x4
 12529 00c4 F3       		.byte	0xf3
 12530 00c5 01       		.uleb128 0x1
 12531 00c6 50       		.byte	0x50
 12532 00c7 9F       		.byte	0x9f
 12533 00c8 1C010000 		.4byte	.LVL33
 12534 00cc 22010000 		.4byte	.LVL35
 12535 00d0 0100     		.2byte	0x1
 12536 00d2 50       		.byte	0x50
 12537 00d3 22010000 		.4byte	.LVL35
 12538 00d7 44010000 		.4byte	.LVL37
 12539 00db 0400     		.2byte	0x4
 12540 00dd F3       		.byte	0xf3
 12541 00de 01       		.uleb128 0x1
 12542 00df 50       		.byte	0x50
 12543 00e0 9F       		.byte	0x9f
 12544 00e1 44010000 		.4byte	.LVL37
 12545 00e5 60010000 		.4byte	.LVL39
 12546 00e9 0100     		.2byte	0x1
 12547 00eb 50       		.byte	0x50
 12548 00ec 60010000 		.4byte	.LVL39
 12549 00f0 66010000 		.4byte	.LVL41
 12550 00f4 0400     		.2byte	0x4
 12551 00f6 F3       		.byte	0xf3
 12552 00f7 01       		.uleb128 0x1
 12553 00f8 50       		.byte	0x50
 12554 00f9 9F       		.byte	0x9f
 12555 00fa 66010000 		.4byte	.LVL41
 12556 00fe 6A010000 		.4byte	.LVL43
 12557 0102 0100     		.2byte	0x1
 12558 0104 50       		.byte	0x50
 12559 0105 6A010000 		.4byte	.LVL43
 12560 0109 8A010000 		.4byte	.LVL46
 12561 010d 0400     		.2byte	0x4
 12562 010f F3       		.byte	0xf3
 12563 0110 01       		.uleb128 0x1
 12564 0111 50       		.byte	0x50
 12565 0112 9F       		.byte	0x9f
 12566 0113 8A010000 		.4byte	.LVL46
 12567 0117 9E010000 		.4byte	.LVL50
 12568 011b 0100     		.2byte	0x1
ARM GAS  C:\Users\Helon\AppData\Local\Temp\ccTLkFeM.s 			page 281


 12569 011d 50       		.byte	0x50
 12570 011e 9E010000 		.4byte	.LVL50
 12571 0122 AE010000 		.4byte	.LVL54
 12572 0126 0400     		.2byte	0x4
 12573 0128 F3       		.byte	0xf3
 12574 0129 01       		.uleb128 0x1
 12575 012a 50       		.byte	0x50
 12576 012b 9F       		.byte	0x9f
 12577 012c AE010000 		.4byte	.LVL54
 12578 0130 C0010000 		.4byte	.LVL56
 12579 0134 0100     		.2byte	0x1
 12580 0136 50       		.byte	0x50
 12581 0137 C0010000 		.4byte	.LVL56
 12582 013b C4010000 		.4byte	.LVL57
 12583 013f 0400     		.2byte	0x4
 12584 0141 F3       		.byte	0xf3
 12585 0142 01       		.uleb128 0x1
 12586 0143 50       		.byte	0x50
 12587 0144 9F       		.byte	0x9f
 12588 0145 C4010000 		.4byte	.LVL57
 12589 0149 C8010000 		.4byte	.LVL58
 12590 014d 0100     		.2byte	0x1
 12591 014f 50       		.byte	0x50
 12592 0150 C8010000 		.4byte	.LVL58
 12593 0154 CC010000 		.4byte	.LVL59
 12594 0158 0400     		.2byte	0x4
 12595 015a F3       		.byte	0xf3
 12596 015b 01       		.uleb128 0x1
 12597 015c 50       		.byte	0x50
 12598 015d 9F       		.byte	0x9f
 12599 015e CC010000 		.4byte	.LVL59
 12600 0162 F6010000 		.4byte	.LVL64
 12601 0166 0100     		.2byte	0x1
 12602 0168 50       		.byte	0x50
 12603 0169 F6010000 		.4byte	.LVL64
 12604 016d 0A020000 		.4byte	.LVL68
 12605 0171 0400     		.2byte	0x4
 12606 0173 F3       		.byte	0xf3
 12607 0174 01       		.uleb128 0x1
 12608 0175 50       		.byte	0x50
 12609 0176 9F       		.byte	0x9f
 12610 0177 0A020000 		.4byte	.LVL68
 12611 017b 10020000 		.4byte	.LVL70
 12612 017f 0100     		.2byte	0x1
 12613 0181 50       		.byte	0x50
 12614 0182 10020000 		.4byte	.LVL70
 12615 0186 2C020000 		.4byte	.LVL74
 12616 018a 0400     		.2byte	0x4
 12617 018c F3       		.byte	0xf3
 12618 018d 01       		.uleb128 0x1
 12619 018e 50       		.byte	0x50
 12620 018f 9F       		.byte	0x9f
 12621 0190 2C020000 		.4byte	.LVL74
 12622 0194 3A020000 		.4byte	.LVL76
 12623 0198 0100     		.2byte	0x1
 12624 019a 50       		.byte	0x50
 12625 019b 3A020000 		.4byte	.LVL76
ARM GAS  C:\Users\Helon\AppData\Local\Temp\ccTLkFeM.s 			page 282


 12626 019f 40020000 		.4byte	.LVL78
 12627 01a3 0400     		.2byte	0x4
 12628 01a5 F3       		.byte	0xf3
 12629 01a6 01       		.uleb128 0x1
 12630 01a7 50       		.byte	0x50
 12631 01a8 9F       		.byte	0x9f
 12632 01a9 40020000 		.4byte	.LVL78
 12633 01ad 42020000 		.4byte	.LVL79
 12634 01b1 0100     		.2byte	0x1
 12635 01b3 50       		.byte	0x50
 12636 01b4 42020000 		.4byte	.LVL79
 12637 01b8 4A020000 		.4byte	.LVL82
 12638 01bc 0400     		.2byte	0x4
 12639 01be F3       		.byte	0xf3
 12640 01bf 01       		.uleb128 0x1
 12641 01c0 50       		.byte	0x50
 12642 01c1 9F       		.byte	0x9f
 12643 01c2 4A020000 		.4byte	.LVL82
 12644 01c6 50020000 		.4byte	.LVL83
 12645 01ca 0100     		.2byte	0x1
 12646 01cc 50       		.byte	0x50
 12647 01cd 50020000 		.4byte	.LVL83
 12648 01d1 58020000 		.4byte	.LVL86
 12649 01d5 0400     		.2byte	0x4
 12650 01d7 F3       		.byte	0xf3
 12651 01d8 01       		.uleb128 0x1
 12652 01d9 50       		.byte	0x50
 12653 01da 9F       		.byte	0x9f
 12654 01db 58020000 		.4byte	.LVL86
 12655 01df 5A020000 		.4byte	.LVL87
 12656 01e3 0100     		.2byte	0x1
 12657 01e5 50       		.byte	0x50
 12658 01e6 5A020000 		.4byte	.LVL87
 12659 01ea C4020000 		.4byte	.LFE35
 12660 01ee 0400     		.2byte	0x4
 12661 01f0 F3       		.byte	0xf3
 12662 01f1 01       		.uleb128 0x1
 12663 01f2 50       		.byte	0x50
 12664 01f3 9F       		.byte	0x9f
 12665 01f4 00000000 		.4byte	0
 12666 01f8 00000000 		.4byte	0
 12667              	.LLST1:
 12668 01fc 00000000 		.4byte	.LVL0
 12669 0200 27000000 		.4byte	.LVL2-1
 12670 0204 0100     		.2byte	0x1
 12671 0206 51       		.byte	0x51
 12672 0207 27000000 		.4byte	.LVL2-1
 12673 020b 2A000000 		.4byte	.LVL3
 12674 020f 0100     		.2byte	0x1
 12675 0211 54       		.byte	0x54
 12676 0212 2A000000 		.4byte	.LVL3
 12677 0216 42000000 		.4byte	.LVL4
 12678 021a 0100     		.2byte	0x1
 12679 021c 51       		.byte	0x51
 12680 021d 42000000 		.4byte	.LVL4
 12681 0221 4C000000 		.4byte	.LVL7
 12682 0225 0100     		.2byte	0x1
ARM GAS  C:\Users\Helon\AppData\Local\Temp\ccTLkFeM.s 			page 283


 12683 0227 54       		.byte	0x54
 12684 0228 4C000000 		.4byte	.LVL7
 12685 022c 72000000 		.4byte	.LVL8
 12686 0230 0100     		.2byte	0x1
 12687 0232 51       		.byte	0x51
 12688 0233 72000000 		.4byte	.LVL8
 12689 0237 78000000 		.4byte	.LVL9
 12690 023b 0100     		.2byte	0x1
 12691 023d 54       		.byte	0x54
 12692 023e 78000000 		.4byte	.LVL9
 12693 0242 86000000 		.4byte	.LVL10
 12694 0246 0100     		.2byte	0x1
 12695 0248 51       		.byte	0x51
 12696 0249 86000000 		.4byte	.LVL10
 12697 024d 98000000 		.4byte	.LVL12
 12698 0251 0100     		.2byte	0x1
 12699 0253 54       		.byte	0x54
 12700 0254 98000000 		.4byte	.LVL12
 12701 0258 A0000000 		.4byte	.LVL14
 12702 025c 0100     		.2byte	0x1
 12703 025e 51       		.byte	0x51
 12704 025f A0000000 		.4byte	.LVL14
 12705 0263 A4000000 		.4byte	.LVL15
 12706 0267 0300     		.2byte	0x3
 12707 0269 74       		.byte	0x74
 12708 026a 74       		.sleb128 -12
 12709 026b 9F       		.byte	0x9f
 12710 026c A4000000 		.4byte	.LVL15
 12711 0270 AA000000 		.4byte	.LVL17
 12712 0274 0300     		.2byte	0x3
 12713 0276 74       		.byte	0x74
 12714 0277 6C       		.sleb128 -20
 12715 0278 9F       		.byte	0x9f
 12716 0279 AA000000 		.4byte	.LVL17
 12717 027d C7000000 		.4byte	.LVL20-1
 12718 0281 0100     		.2byte	0x1
 12719 0283 51       		.byte	0x51
 12720 0284 C7000000 		.4byte	.LVL20-1
 12721 0288 CC000000 		.4byte	.LVL21
 12722 028c 0100     		.2byte	0x1
 12723 028e 54       		.byte	0x54
 12724 028f CC000000 		.4byte	.LVL21
 12725 0293 D3000000 		.4byte	.LVL23-1
 12726 0297 0100     		.2byte	0x1
 12727 0299 51       		.byte	0x51
 12728 029a D3000000 		.4byte	.LVL23-1
 12729 029e D8000000 		.4byte	.LVL24
 12730 02a2 0100     		.2byte	0x1
 12731 02a4 54       		.byte	0x54
 12732 02a5 D8000000 		.4byte	.LVL24
 12733 02a9 10010000 		.4byte	.LVL30
 12734 02ad 0400     		.2byte	0x4
 12735 02af F3       		.byte	0xf3
 12736 02b0 01       		.uleb128 0x1
 12737 02b1 51       		.byte	0x51
 12738 02b2 9F       		.byte	0x9f
 12739 02b3 10010000 		.4byte	.LVL30
ARM GAS  C:\Users\Helon\AppData\Local\Temp\ccTLkFeM.s 			page 284


 12740 02b7 17010000 		.4byte	.LVL32-1
 12741 02bb 0100     		.2byte	0x1
 12742 02bd 51       		.byte	0x51
 12743 02be 17010000 		.4byte	.LVL32-1
 12744 02c2 1C010000 		.4byte	.LVL33
 12745 02c6 0100     		.2byte	0x1
 12746 02c8 54       		.byte	0x54
 12747 02c9 1C010000 		.4byte	.LVL33
 12748 02cd 20010000 		.4byte	.LVL34
 12749 02d1 0100     		.2byte	0x1
 12750 02d3 51       		.byte	0x51
 12751 02d4 20010000 		.4byte	.LVL34
 12752 02d8 44010000 		.4byte	.LVL37
 12753 02dc 0100     		.2byte	0x1
 12754 02de 54       		.byte	0x54
 12755 02df 44010000 		.4byte	.LVL37
 12756 02e3 5E010000 		.4byte	.LVL38
 12757 02e7 0100     		.2byte	0x1
 12758 02e9 51       		.byte	0x51
 12759 02ea 5E010000 		.4byte	.LVL38
 12760 02ee 66010000 		.4byte	.LVL41
 12761 02f2 0100     		.2byte	0x1
 12762 02f4 54       		.byte	0x54
 12763 02f5 66010000 		.4byte	.LVL41
 12764 02f9 68010000 		.4byte	.LVL42
 12765 02fd 0100     		.2byte	0x1
 12766 02ff 51       		.byte	0x51
 12767 0300 68010000 		.4byte	.LVL42
 12768 0304 8A010000 		.4byte	.LVL46
 12769 0308 0100     		.2byte	0x1
 12770 030a 54       		.byte	0x54
 12771 030b 8A010000 		.4byte	.LVL46
 12772 030f 9E010000 		.4byte	.LVL50
 12773 0313 0100     		.2byte	0x1
 12774 0315 51       		.byte	0x51
 12775 0316 9E010000 		.4byte	.LVL50
 12776 031a AE010000 		.4byte	.LVL54
 12777 031e 0400     		.2byte	0x4
 12778 0320 F3       		.byte	0xf3
 12779 0321 01       		.uleb128 0x1
 12780 0322 51       		.byte	0x51
 12781 0323 9F       		.byte	0x9f
 12782 0324 AE010000 		.4byte	.LVL54
 12783 0328 D0010000 		.4byte	.LVL60
 12784 032c 0100     		.2byte	0x1
 12785 032e 51       		.byte	0x51
 12786 032f D0010000 		.4byte	.LVL60
 12787 0333 0A020000 		.4byte	.LVL68
 12788 0337 0100     		.2byte	0x1
 12789 0339 54       		.byte	0x54
 12790 033a 0A020000 		.4byte	.LVL68
 12791 033e 10020000 		.4byte	.LVL70
 12792 0342 0100     		.2byte	0x1
 12793 0344 51       		.byte	0x51
 12794 0345 10020000 		.4byte	.LVL70
 12795 0349 2C020000 		.4byte	.LVL74
 12796 034d 0400     		.2byte	0x4
ARM GAS  C:\Users\Helon\AppData\Local\Temp\ccTLkFeM.s 			page 285


 12797 034f F3       		.byte	0xf3
 12798 0350 01       		.uleb128 0x1
 12799 0351 51       		.byte	0x51
 12800 0352 9F       		.byte	0x9f
 12801 0353 2C020000 		.4byte	.LVL74
 12802 0357 38020000 		.4byte	.LVL75
 12803 035b 0100     		.2byte	0x1
 12804 035d 51       		.byte	0x51
 12805 035e 38020000 		.4byte	.LVL75
 12806 0362 40020000 		.4byte	.LVL78
 12807 0366 0100     		.2byte	0x1
 12808 0368 54       		.byte	0x54
 12809 0369 40020000 		.4byte	.LVL78
 12810 036d 44020000 		.4byte	.LVL80
 12811 0371 0100     		.2byte	0x1
 12812 0373 51       		.byte	0x51
 12813 0374 44020000 		.4byte	.LVL80
 12814 0378 4A020000 		.4byte	.LVL82
 12815 037c 0100     		.2byte	0x1
 12816 037e 54       		.byte	0x54
 12817 037f 4A020000 		.4byte	.LVL82
 12818 0383 52020000 		.4byte	.LVL84
 12819 0387 0100     		.2byte	0x1
 12820 0389 51       		.byte	0x51
 12821 038a 52020000 		.4byte	.LVL84
 12822 038e 58020000 		.4byte	.LVL86
 12823 0392 0100     		.2byte	0x1
 12824 0394 54       		.byte	0x54
 12825 0395 58020000 		.4byte	.LVL86
 12826 0399 5D020000 		.4byte	.LVL88-1
 12827 039d 0100     		.2byte	0x1
 12828 039f 51       		.byte	0x51
 12829 03a0 5D020000 		.4byte	.LVL88-1
 12830 03a4 64020000 		.4byte	.LVL89
 12831 03a8 0100     		.2byte	0x1
 12832 03aa 54       		.byte	0x54
 12833 03ab 64020000 		.4byte	.LVL89
 12834 03af C4020000 		.4byte	.LFE35
 12835 03b3 0400     		.2byte	0x4
 12836 03b5 F3       		.byte	0xf3
 12837 03b6 01       		.uleb128 0x1
 12838 03b7 51       		.byte	0x51
 12839 03b8 9F       		.byte	0x9f
 12840 03b9 00000000 		.4byte	0
 12841 03bd 00000000 		.4byte	0
 12842              	.LLST2:
 12843 03c1 0E020000 		.4byte	.LVL69
 12844 03c5 10020000 		.4byte	.LVL70
 12845 03c9 0700     		.2byte	0x7
 12846 03cb 93       		.byte	0x93
 12847 03cc 04       		.uleb128 0x4
 12848 03cd 55       		.byte	0x55
 12849 03ce 93       		.byte	0x93
 12850 03cf 04       		.uleb128 0x4
 12851 03d0 93       		.byte	0x93
 12852 03d1 08       		.uleb128 0x8
 12853 03d2 10020000 		.4byte	.LVL70
ARM GAS  C:\Users\Helon\AppData\Local\Temp\ccTLkFeM.s 			page 286


 12854 03d6 2C020000 		.4byte	.LVL74
 12855 03da 0A00     		.2byte	0xa
 12856 03dc 93       		.byte	0x93
 12857 03dd 04       		.uleb128 0x4
 12858 03de 55       		.byte	0x55
 12859 03df 93       		.byte	0x93
 12860 03e0 04       		.uleb128 0x4
 12861 03e1 56       		.byte	0x56
 12862 03e2 93       		.byte	0x93
 12863 03e3 02       		.uleb128 0x2
 12864 03e4 93       		.byte	0x93
 12865 03e5 06       		.uleb128 0x6
 12866 03e6 00000000 		.4byte	0
 12867 03ea 00000000 		.4byte	0
 12868              	.LLST3:
 12869 03ee 00000000 		.4byte	.LVL0
 12870 03f2 9E010000 		.4byte	.LVL50
 12871 03f6 0200     		.2byte	0x2
 12872 03f8 30       		.byte	0x30
 12873 03f9 9F       		.byte	0x9f
 12874 03fa 9E010000 		.4byte	.LVL50
 12875 03fe A6010000 		.4byte	.LVL51
 12876 0402 0100     		.2byte	0x1
 12877 0404 54       		.byte	0x54
 12878 0405 AC010000 		.4byte	.LVL53
 12879 0409 AE010000 		.4byte	.LVL54
 12880 040d 0100     		.2byte	0x1
 12881 040f 54       		.byte	0x54
 12882 0410 AE010000 		.4byte	.LVL54
 12883 0414 F6010000 		.4byte	.LVL64
 12884 0418 0200     		.2byte	0x2
 12885 041a 30       		.byte	0x30
 12886 041b 9F       		.byte	0x9f
 12887 041c F6010000 		.4byte	.LVL64
 12888 0420 02020000 		.4byte	.LVL65
 12889 0424 0100     		.2byte	0x1
 12890 0426 55       		.byte	0x55
 12891 0427 08020000 		.4byte	.LVL67
 12892 042b 0A020000 		.4byte	.LVL68
 12893 042f 0100     		.2byte	0x1
 12894 0431 55       		.byte	0x55
 12895 0432 0A020000 		.4byte	.LVL68
 12896 0436 10020000 		.4byte	.LVL70
 12897 043a 0200     		.2byte	0x2
 12898 043c 30       		.byte	0x30
 12899 043d 9F       		.byte	0x9f
 12900 043e 10020000 		.4byte	.LVL70
 12901 0442 22020000 		.4byte	.LVL71
 12902 0446 0100     		.2byte	0x1
 12903 0448 54       		.byte	0x54
 12904 0449 2A020000 		.4byte	.LVL73
 12905 044d 2C020000 		.4byte	.LVL74
 12906 0451 0100     		.2byte	0x1
 12907 0453 54       		.byte	0x54
 12908 0454 2C020000 		.4byte	.LVL74
 12909 0458 64020000 		.4byte	.LVL89
 12910 045c 0200     		.2byte	0x2
ARM GAS  C:\Users\Helon\AppData\Local\Temp\ccTLkFeM.s 			page 287


 12911 045e 30       		.byte	0x30
 12912 045f 9F       		.byte	0x9f
 12913 0460 00000000 		.4byte	0
 12914 0464 00000000 		.4byte	0
 12915              	.LLST4:
 12916 0468 DA010000 		.4byte	.LVL61
 12917 046c EA010000 		.4byte	.LVL62
 12918 0470 0100     		.2byte	0x1
 12919 0472 54       		.byte	0x54
 12920 0473 EE010000 		.4byte	.LVL63
 12921 0477 0A020000 		.4byte	.LVL68
 12922 047b 0100     		.2byte	0x1
 12923 047d 54       		.byte	0x54
 12924 047e 00000000 		.4byte	0
 12925 0482 00000000 		.4byte	0
 12926              	.LLST5:
 12927 0486 8E010000 		.4byte	.LVL47
 12928 048a 90010000 		.4byte	.LVL48
 12929 048e 0700     		.2byte	0x7
 12930 0490 93       		.byte	0x93
 12931 0491 04       		.uleb128 0x4
 12932 0492 55       		.byte	0x55
 12933 0493 93       		.byte	0x93
 12934 0494 04       		.uleb128 0x4
 12935 0495 93       		.byte	0x93
 12936 0496 08       		.uleb128 0x8
 12937 0497 90010000 		.4byte	.LVL48
 12938 049b 9A010000 		.4byte	.LVL49
 12939 049f 0F00     		.2byte	0xf
 12940 04a1 93       		.byte	0x93
 12941 04a2 04       		.uleb128 0x4
 12942 04a3 55       		.byte	0x55
 12943 04a4 93       		.byte	0x93
 12944 04a5 04       		.uleb128 0x4
 12945 04a6 56       		.byte	0x56
 12946 04a7 93       		.byte	0x93
 12947 04a8 02       		.uleb128 0x2
 12948 04a9 93       		.byte	0x93
 12949 04aa 02       		.uleb128 0x2
 12950 04ab 53       		.byte	0x53
 12951 04ac 93       		.byte	0x93
 12952 04ad 02       		.uleb128 0x2
 12953 04ae 93       		.byte	0x93
 12954 04af 02       		.uleb128 0x2
 12955 04b0 9A010000 		.4byte	.LVL49
 12956 04b4 9E010000 		.4byte	.LVL50
 12957 04b8 1000     		.2byte	0x10
 12958 04ba 93       		.byte	0x93
 12959 04bb 04       		.uleb128 0x4
 12960 04bc 55       		.byte	0x55
 12961 04bd 93       		.byte	0x93
 12962 04be 04       		.uleb128 0x4
 12963 04bf 56       		.byte	0x56
 12964 04c0 93       		.byte	0x93
 12965 04c1 02       		.uleb128 0x2
 12966 04c2 93       		.byte	0x93
 12967 04c3 02       		.uleb128 0x2
ARM GAS  C:\Users\Helon\AppData\Local\Temp\ccTLkFeM.s 			page 288


 12968 04c4 71       		.byte	0x71
 12969 04c5 0C       		.sleb128 12
 12970 04c6 93       		.byte	0x93
 12971 04c7 02       		.uleb128 0x2
 12972 04c8 93       		.byte	0x93
 12973 04c9 02       		.uleb128 0x2
 12974 04ca 9E010000 		.4byte	.LVL50
 12975 04ce AE010000 		.4byte	.LVL54
 12976 04d2 0A00     		.2byte	0xa
 12977 04d4 93       		.byte	0x93
 12978 04d5 04       		.uleb128 0x4
 12979 04d6 55       		.byte	0x55
 12980 04d7 93       		.byte	0x93
 12981 04d8 04       		.uleb128 0x4
 12982 04d9 56       		.byte	0x56
 12983 04da 93       		.byte	0x93
 12984 04db 02       		.uleb128 0x2
 12985 04dc 93       		.byte	0x93
 12986 04dd 06       		.uleb128 0x6
 12987 04de AE010000 		.4byte	.LVL54
 12988 04e2 B6010000 		.4byte	.LVL55
 12989 04e6 0F00     		.2byte	0xf
 12990 04e8 93       		.byte	0x93
 12991 04e9 04       		.uleb128 0x4
 12992 04ea 55       		.byte	0x55
 12993 04eb 93       		.byte	0x93
 12994 04ec 04       		.uleb128 0x4
 12995 04ed 56       		.byte	0x56
 12996 04ee 93       		.byte	0x93
 12997 04ef 02       		.uleb128 0x2
 12998 04f0 93       		.byte	0x93
 12999 04f1 02       		.uleb128 0x2
 13000 04f2 53       		.byte	0x53
 13001 04f3 93       		.byte	0x93
 13002 04f4 02       		.uleb128 0x2
 13003 04f5 93       		.byte	0x93
 13004 04f6 02       		.uleb128 0x2
 13005 04f7 B6010000 		.4byte	.LVL55
 13006 04fb CC010000 		.4byte	.LVL59
 13007 04ff 1000     		.2byte	0x10
 13008 0501 93       		.byte	0x93
 13009 0502 04       		.uleb128 0x4
 13010 0503 55       		.byte	0x55
 13011 0504 93       		.byte	0x93
 13012 0505 04       		.uleb128 0x4
 13013 0506 56       		.byte	0x56
 13014 0507 93       		.byte	0x93
 13015 0508 02       		.uleb128 0x2
 13016 0509 93       		.byte	0x93
 13017 050a 02       		.uleb128 0x2
 13018 050b 71       		.byte	0x71
 13019 050c 0C       		.sleb128 12
 13020 050d 93       		.byte	0x93
 13021 050e 02       		.uleb128 0x2
 13022 050f 93       		.byte	0x93
 13023 0510 02       		.uleb128 0x2
 13024 0511 00000000 		.4byte	0
ARM GAS  C:\Users\Helon\AppData\Local\Temp\ccTLkFeM.s 			page 289


 13025 0515 00000000 		.4byte	0
 13026              	.LLST6:
 13027 0519 0A000000 		.4byte	.LVL94
 13028 051d 22000000 		.4byte	.LVL97
 13029 0521 0100     		.2byte	0x1
 13030 0523 54       		.byte	0x54
 13031 0524 60000000 		.4byte	.LVL107
 13032 0528 6C000000 		.4byte	.LVL108
 13033 052c 0100     		.2byte	0x1
 13034 052e 54       		.byte	0x54
 13035 052f 00000000 		.4byte	0
 13036 0533 00000000 		.4byte	0
 13037              	.LLST7:
 13038 0537 10000000 		.4byte	.LVL95
 13039 053b 18000000 		.4byte	.LVL96
 13040 053f 0100     		.2byte	0x1
 13041 0541 50       		.byte	0x50
 13042 0542 60000000 		.4byte	.LVL107
 13043 0546 6B000000 		.4byte	.LVL108-1
 13044 054a 0100     		.2byte	0x1
 13045 054c 50       		.byte	0x50
 13046 054d 00000000 		.4byte	0
 13047 0551 00000000 		.4byte	0
 13048              	.LLST8:
 13049 0555 00000000 		.4byte	.LVL121
 13050 0559 0D000000 		.4byte	.LVL123-1
 13051 055d 0100     		.2byte	0x1
 13052 055f 50       		.byte	0x50
 13053 0560 0D000000 		.4byte	.LVL123-1
 13054 0564 32000000 		.4byte	.LVL129
 13055 0568 0100     		.2byte	0x1
 13056 056a 54       		.byte	0x54
 13057 056b 32000000 		.4byte	.LVL129
 13058 056f 64000000 		.4byte	.LFE44
 13059 0573 0400     		.2byte	0x4
 13060 0575 F3       		.byte	0xf3
 13061 0576 01       		.uleb128 0x1
 13062 0577 50       		.byte	0x50
 13063 0578 9F       		.byte	0x9f
 13064 0579 00000000 		.4byte	0
 13065 057d 00000000 		.4byte	0
 13066              	.LLST9:
 13067 0581 0A000000 		.4byte	.LVL122
 13068 0585 58000000 		.4byte	.LVL136
 13069 0589 0200     		.2byte	0x2
 13070 058b 30       		.byte	0x30
 13071 058c 9F       		.byte	0x9f
 13072 058d 00000000 		.4byte	0
 13073 0591 00000000 		.4byte	0
 13074              	.LLST11:
 13075 0595 14000000 		.4byte	.LVL124
 13076 0599 32000000 		.4byte	.LVL129
 13077 059d 0100     		.2byte	0x1
 13078 059f 54       		.byte	0x54
 13079 05a0 32000000 		.4byte	.LVL129
 13080 05a4 58000000 		.4byte	.LVL136
 13081 05a8 0400     		.2byte	0x4
ARM GAS  C:\Users\Helon\AppData\Local\Temp\ccTLkFeM.s 			page 290


 13082 05aa F3       		.byte	0xf3
 13083 05ab 01       		.uleb128 0x1
 13084 05ac 50       		.byte	0x50
 13085 05ad 9F       		.byte	0x9f
 13086 05ae 00000000 		.4byte	0
 13087 05b2 00000000 		.4byte	0
 13088              	.LLST12:
 13089 05b6 32000000 		.4byte	.LVL129
 13090 05ba 58000000 		.4byte	.LVL136
 13091 05be 0200     		.2byte	0x2
 13092 05c0 4A       		.byte	0x4a
 13093 05c1 9F       		.byte	0x9f
 13094 05c2 00000000 		.4byte	0
 13095 05c6 00000000 		.4byte	0
 13096              	.LLST13:
 13097 05ca 40000000 		.4byte	.LVL130
 13098 05ce 48000000 		.4byte	.LVL132
 13099 05d2 0100     		.2byte	0x1
 13100 05d4 54       		.byte	0x54
 13101 05d5 48000000 		.4byte	.LVL132
 13102 05d9 4A000000 		.4byte	.LVL133
 13103 05dd 0300     		.2byte	0x3
 13104 05df 77       		.byte	0x77
 13105 05e0 01       		.sleb128 1
 13106 05e1 9F       		.byte	0x9f
 13107 05e2 4A000000 		.4byte	.LVL133
 13108 05e6 50000000 		.4byte	.LVL134
 13109 05ea 0300     		.2byte	0x3
 13110 05ec 74       		.byte	0x74
 13111 05ed 01       		.sleb128 1
 13112 05ee 9F       		.byte	0x9f
 13113 05ef 00000000 		.4byte	0
 13114 05f3 00000000 		.4byte	0
 13115              	.LLST14:
 13116 05f7 1C000000 		.4byte	.LVL125
 13117 05fb 22000000 		.4byte	.LVL126
 13118 05ff 0600     		.2byte	0x6
 13119 0601 70       		.byte	0x70
 13120 0602 00       		.sleb128 0
 13121 0603 74       		.byte	0x74
 13122 0604 00       		.sleb128 0
 13123 0605 1C       		.byte	0x1c
 13124 0606 9F       		.byte	0x9f
 13125 0607 00000000 		.4byte	0
 13126 060b 00000000 		.4byte	0
 13127              	.LLST15:
 13128 060f 2C000000 		.4byte	.LVL128
 13129 0613 31000000 		.4byte	.LVL129-1
 13130 0617 0100     		.2byte	0x1
 13131 0619 50       		.byte	0x50
 13132 061a 31000000 		.4byte	.LVL129-1
 13133 061e 58000000 		.4byte	.LVL136
 13134 0622 0100     		.2byte	0x1
 13135 0624 56       		.byte	0x56
 13136 0625 00000000 		.4byte	0
 13137 0629 00000000 		.4byte	0
 13138              	.LLST16:
ARM GAS  C:\Users\Helon\AppData\Local\Temp\ccTLkFeM.s 			page 291


 13139 062d 00000000 		.4byte	.LVL137
 13140 0631 10000000 		.4byte	.LVL139
 13141 0635 0100     		.2byte	0x1
 13142 0637 50       		.byte	0x50
 13143 0638 10000000 		.4byte	.LVL139
 13144 063c 1D000000 		.4byte	.LVL140-1
 13145 0640 0200     		.2byte	0x2
 13146 0642 73       		.byte	0x73
 13147 0643 00       		.sleb128 0
 13148 0644 1D000000 		.4byte	.LVL140-1
 13149 0648 34000000 		.4byte	.LFE46
 13150 064c 0400     		.2byte	0x4
 13151 064e F3       		.byte	0xf3
 13152 064f 01       		.uleb128 0x1
 13153 0650 50       		.byte	0x50
 13154 0651 9F       		.byte	0x9f
 13155 0652 00000000 		.4byte	0
 13156 0656 00000000 		.4byte	0
 13157              	.LLST17:
 13158 065a 00000000 		.4byte	.LVL137
 13159 065e 08000000 		.4byte	.LVL138
 13160 0662 0100     		.2byte	0x1
 13161 0664 51       		.byte	0x51
 13162 0665 08000000 		.4byte	.LVL138
 13163 0669 34000000 		.4byte	.LFE46
 13164 066d 0400     		.2byte	0x4
 13165 066f F3       		.byte	0xf3
 13166 0670 01       		.uleb128 0x1
 13167 0671 51       		.byte	0x51
 13168 0672 9F       		.byte	0x9f
 13169 0673 00000000 		.4byte	0
 13170 0677 00000000 		.4byte	0
 13171              	.LLST18:
 13172 067b 00000000 		.4byte	.LVL142
 13173 067f 10000000 		.4byte	.LVL143
 13174 0683 0100     		.2byte	0x1
 13175 0685 50       		.byte	0x50
 13176 0686 10000000 		.4byte	.LVL143
 13177 068a 38000000 		.4byte	.LFE47
 13178 068e 0400     		.2byte	0x4
 13179 0690 F3       		.byte	0xf3
 13180 0691 01       		.uleb128 0x1
 13181 0692 50       		.byte	0x50
 13182 0693 9F       		.byte	0x9f
 13183 0694 00000000 		.4byte	0
 13184 0698 00000000 		.4byte	0
 13185              	.LLST19:
 13186 069c 00000000 		.4byte	.LVL142
 13187 06a0 10000000 		.4byte	.LVL143
 13188 06a4 0100     		.2byte	0x1
 13189 06a6 51       		.byte	0x51
 13190 06a7 10000000 		.4byte	.LVL143
 13191 06ab 38000000 		.4byte	.LFE47
 13192 06af 0400     		.2byte	0x4
 13193 06b1 F3       		.byte	0xf3
 13194 06b2 01       		.uleb128 0x1
 13195 06b3 51       		.byte	0x51
ARM GAS  C:\Users\Helon\AppData\Local\Temp\ccTLkFeM.s 			page 292


 13196 06b4 9F       		.byte	0x9f
 13197 06b5 00000000 		.4byte	0
 13198 06b9 00000000 		.4byte	0
 13199              	.LLST20:
 13200 06bd 00000000 		.4byte	.LVL142
 13201 06c1 10000000 		.4byte	.LVL143
 13202 06c5 0200     		.2byte	0x2
 13203 06c7 30       		.byte	0x30
 13204 06c8 9F       		.byte	0x9f
 13205 06c9 20000000 		.4byte	.LVL144
 13206 06cd 38000000 		.4byte	.LFE47
 13207 06d1 0100     		.2byte	0x1
 13208 06d3 50       		.byte	0x50
 13209 06d4 00000000 		.4byte	0
 13210 06d8 00000000 		.4byte	0
 13211              	.LLST21:
 13212 06dc 00000000 		.4byte	.LVL142
 13213 06e0 10000000 		.4byte	.LVL143
 13214 06e4 0A00     		.2byte	0xa
 13215 06e6 50       		.byte	0x50
 13216 06e7 93       		.byte	0x93
 13217 06e8 04       		.uleb128 0x4
 13218 06e9 51       		.byte	0x51
 13219 06ea 93       		.byte	0x93
 13220 06eb 02       		.uleb128 0x2
 13221 06ec 30       		.byte	0x30
 13222 06ed 9F       		.byte	0x9f
 13223 06ee 93       		.byte	0x93
 13224 06ef 02       		.uleb128 0x2
 13225 06f0 10000000 		.4byte	.LVL143
 13226 06f4 38000000 		.4byte	.LFE47
 13227 06f8 1000     		.2byte	0x10
 13228 06fa F3       		.byte	0xf3
 13229 06fb 01       		.uleb128 0x1
 13230 06fc 50       		.byte	0x50
 13231 06fd 9F       		.byte	0x9f
 13232 06fe 93       		.byte	0x93
 13233 06ff 04       		.uleb128 0x4
 13234 0700 F3       		.byte	0xf3
 13235 0701 01       		.uleb128 0x1
 13236 0702 51       		.byte	0x51
 13237 0703 9F       		.byte	0x9f
 13238 0704 93       		.byte	0x93
 13239 0705 02       		.uleb128 0x2
 13240 0706 30       		.byte	0x30
 13241 0707 9F       		.byte	0x9f
 13242 0708 93       		.byte	0x93
 13243 0709 02       		.uleb128 0x2
 13244 070a 00000000 		.4byte	0
 13245 070e 00000000 		.4byte	0
 13246              	.LLST22:
 13247 0712 00000000 		.4byte	.LVL145
 13248 0716 10000000 		.4byte	.LVL147
 13249 071a 0100     		.2byte	0x1
 13250 071c 50       		.byte	0x50
 13251 071d 10000000 		.4byte	.LVL147
 13252 0721 0A010000 		.4byte	.LVL174
ARM GAS  C:\Users\Helon\AppData\Local\Temp\ccTLkFeM.s 			page 293


 13253 0725 0400     		.2byte	0x4
 13254 0727 F3       		.byte	0xf3
 13255 0728 01       		.uleb128 0x1
 13256 0729 50       		.byte	0x50
 13257 072a 9F       		.byte	0x9f
 13258 072b 0A010000 		.4byte	.LVL174
 13259 072f 0C010000 		.4byte	.LVL175
 13260 0733 0100     		.2byte	0x1
 13261 0735 50       		.byte	0x50
 13262 0736 0C010000 		.4byte	.LVL175
 13263 073a 44010000 		.4byte	.LFE49
 13264 073e 0400     		.2byte	0x4
 13265 0740 F3       		.byte	0xf3
 13266 0741 01       		.uleb128 0x1
 13267 0742 50       		.byte	0x50
 13268 0743 9F       		.byte	0x9f
 13269 0744 00000000 		.4byte	0
 13270 0748 00000000 		.4byte	0
 13271              	.LLST23:
 13272 074c 0E000000 		.4byte	.LVL146
 13273 0750 10000000 		.4byte	.LVL147
 13274 0754 0100     		.2byte	0x1
 13275 0756 50       		.byte	0x50
 13276 0757 10000000 		.4byte	.LVL147
 13277 075b 0A010000 		.4byte	.LVL174
 13278 075f 0400     		.2byte	0x4
 13279 0761 F3       		.byte	0xf3
 13280 0762 01       		.uleb128 0x1
 13281 0763 50       		.byte	0x50
 13282 0764 9F       		.byte	0x9f
 13283 0765 00000000 		.4byte	0
 13284 0769 00000000 		.4byte	0
 13285              	.LLST24:
 13286 076d 34000000 		.4byte	.LVL149
 13287 0771 38000000 		.4byte	.LVL150
 13288 0775 0100     		.2byte	0x1
 13289 0777 50       		.byte	0x50
 13290 0778 3C000000 		.4byte	.LVL151
 13291 077c 4C000000 		.4byte	.LVL152
 13292 0780 0100     		.2byte	0x1
 13293 0782 50       		.byte	0x50
 13294 0783 56000000 		.4byte	.LVL154
 13295 0787 5C000000 		.4byte	.LVL155
 13296 078b 0100     		.2byte	0x1
 13297 078d 50       		.byte	0x50
 13298 078e 62000000 		.4byte	.LVL157
 13299 0792 72000000 		.4byte	.LVL158
 13300 0796 0100     		.2byte	0x1
 13301 0798 50       		.byte	0x50
 13302 0799 7C000000 		.4byte	.LVL160
 13303 079d 80000000 		.4byte	.LVL161
 13304 07a1 0100     		.2byte	0x1
 13305 07a3 50       		.byte	0x50
 13306 07a4 84000000 		.4byte	.LVL162
 13307 07a8 94000000 		.4byte	.LVL163
 13308 07ac 0100     		.2byte	0x1
 13309 07ae 50       		.byte	0x50
ARM GAS  C:\Users\Helon\AppData\Local\Temp\ccTLkFeM.s 			page 294


 13310 07af 9E000000 		.4byte	.LVL165
 13311 07b3 A2000000 		.4byte	.LVL166
 13312 07b7 0100     		.2byte	0x1
 13313 07b9 50       		.byte	0x50
 13314 07ba A6000000 		.4byte	.LVL167
 13315 07be B6000000 		.4byte	.LVL168
 13316 07c2 0100     		.2byte	0x1
 13317 07c4 50       		.byte	0x50
 13318 07c5 00000000 		.4byte	0
 13319 07c9 00000000 		.4byte	0
 13320              	.LLST25:
 13321 07cd D6000000 		.4byte	.LVL170
 13322 07d1 F2000000 		.4byte	.LVL171
 13323 07d5 0100     		.2byte	0x1
 13324 07d7 54       		.byte	0x54
 13325 07d8 04010000 		.4byte	.LVL172
 13326 07dc 06010000 		.4byte	.LVL173
 13327 07e0 0100     		.2byte	0x1
 13328 07e2 54       		.byte	0x54
 13329 07e3 00000000 		.4byte	0
 13330 07e7 00000000 		.4byte	0
 13331              	.LLST26:
 13332 07eb 00000000 		.4byte	.LVL177
 13333 07ef 20000000 		.4byte	.LVL178
 13334 07f3 0100     		.2byte	0x1
 13335 07f5 50       		.byte	0x50
 13336 07f6 20000000 		.4byte	.LVL178
 13337 07fa 2C000000 		.4byte	.LVL181
 13338 07fe 0400     		.2byte	0x4
 13339 0800 F3       		.byte	0xf3
 13340 0801 01       		.uleb128 0x1
 13341 0802 50       		.byte	0x50
 13342 0803 9F       		.byte	0x9f
 13343 0804 2C000000 		.4byte	.LVL181
 13344 0808 38000000 		.4byte	.LVL182
 13345 080c 0100     		.2byte	0x1
 13346 080e 50       		.byte	0x50
 13347 080f 38000000 		.4byte	.LVL182
 13348 0813 44000000 		.4byte	.LVL185
 13349 0817 0400     		.2byte	0x4
 13350 0819 F3       		.byte	0xf3
 13351 081a 01       		.uleb128 0x1
 13352 081b 50       		.byte	0x50
 13353 081c 9F       		.byte	0x9f
 13354 081d 44000000 		.4byte	.LVL185
 13355 0821 58000000 		.4byte	.LVL186
 13356 0825 0100     		.2byte	0x1
 13357 0827 50       		.byte	0x50
 13358 0828 58000000 		.4byte	.LVL186
 13359 082c 64000000 		.4byte	.LVL189
 13360 0830 0400     		.2byte	0x4
 13361 0832 F3       		.byte	0xf3
 13362 0833 01       		.uleb128 0x1
 13363 0834 50       		.byte	0x50
 13364 0835 9F       		.byte	0x9f
 13365 0836 64000000 		.4byte	.LVL189
 13366 083a 7A000000 		.4byte	.LVL190
ARM GAS  C:\Users\Helon\AppData\Local\Temp\ccTLkFeM.s 			page 295


 13367 083e 0100     		.2byte	0x1
 13368 0840 50       		.byte	0x50
 13369 0841 7A000000 		.4byte	.LVL190
 13370 0845 B2000000 		.4byte	.LVL199
 13371 0849 0400     		.2byte	0x4
 13372 084b F3       		.byte	0xf3
 13373 084c 01       		.uleb128 0x1
 13374 084d 50       		.byte	0x50
 13375 084e 9F       		.byte	0x9f
 13376 084f B2000000 		.4byte	.LVL199
 13377 0853 B4000000 		.4byte	.LVL200
 13378 0857 0100     		.2byte	0x1
 13379 0859 50       		.byte	0x50
 13380 085a B4000000 		.4byte	.LVL200
 13381 085e E4000000 		.4byte	.LVL208
 13382 0862 0400     		.2byte	0x4
 13383 0864 F3       		.byte	0xf3
 13384 0865 01       		.uleb128 0x1
 13385 0866 50       		.byte	0x50
 13386 0867 9F       		.byte	0x9f
 13387 0868 E4000000 		.4byte	.LVL208
 13388 086c E6000000 		.4byte	.LVL209
 13389 0870 0100     		.2byte	0x1
 13390 0872 50       		.byte	0x50
 13391 0873 E6000000 		.4byte	.LVL209
 13392 0877 02010000 		.4byte	.LVL214
 13393 087b 0400     		.2byte	0x4
 13394 087d F3       		.byte	0xf3
 13395 087e 01       		.uleb128 0x1
 13396 087f 50       		.byte	0x50
 13397 0880 9F       		.byte	0x9f
 13398 0881 02010000 		.4byte	.LVL214
 13399 0885 04010000 		.4byte	.LVL215
 13400 0889 0100     		.2byte	0x1
 13401 088b 50       		.byte	0x50
 13402 088c 04010000 		.4byte	.LVL215
 13403 0890 20010000 		.4byte	.LVL220
 13404 0894 0400     		.2byte	0x4
 13405 0896 F3       		.byte	0xf3
 13406 0897 01       		.uleb128 0x1
 13407 0898 50       		.byte	0x50
 13408 0899 9F       		.byte	0x9f
 13409 089a 20010000 		.4byte	.LVL220
 13410 089e 22010000 		.4byte	.LVL221
 13411 08a2 0100     		.2byte	0x1
 13412 08a4 50       		.byte	0x50
 13413 08a5 22010000 		.4byte	.LVL221
 13414 08a9 40010000 		.4byte	.LVL226
 13415 08ad 0400     		.2byte	0x4
 13416 08af F3       		.byte	0xf3
 13417 08b0 01       		.uleb128 0x1
 13418 08b1 50       		.byte	0x50
 13419 08b2 9F       		.byte	0x9f
 13420 08b3 40010000 		.4byte	.LVL226
 13421 08b7 42010000 		.4byte	.LVL227
 13422 08bb 0100     		.2byte	0x1
 13423 08bd 50       		.byte	0x50
ARM GAS  C:\Users\Helon\AppData\Local\Temp\ccTLkFeM.s 			page 296


 13424 08be 42010000 		.4byte	.LVL227
 13425 08c2 74010000 		.4byte	.LVL235
 13426 08c6 0400     		.2byte	0x4
 13427 08c8 F3       		.byte	0xf3
 13428 08c9 01       		.uleb128 0x1
 13429 08ca 50       		.byte	0x50
 13430 08cb 9F       		.byte	0x9f
 13431 08cc 74010000 		.4byte	.LVL235
 13432 08d0 76010000 		.4byte	.LVL236
 13433 08d4 0100     		.2byte	0x1
 13434 08d6 50       		.byte	0x50
 13435 08d7 76010000 		.4byte	.LVL236
 13436 08db 94010000 		.4byte	.LVL241
 13437 08df 0400     		.2byte	0x4
 13438 08e1 F3       		.byte	0xf3
 13439 08e2 01       		.uleb128 0x1
 13440 08e3 50       		.byte	0x50
 13441 08e4 9F       		.byte	0x9f
 13442 08e5 94010000 		.4byte	.LVL241
 13443 08e9 96010000 		.4byte	.LVL242
 13444 08ed 0100     		.2byte	0x1
 13445 08ef 50       		.byte	0x50
 13446 08f0 96010000 		.4byte	.LVL242
 13447 08f4 B8010000 		.4byte	.LVL247
 13448 08f8 0400     		.2byte	0x4
 13449 08fa F3       		.byte	0xf3
 13450 08fb 01       		.uleb128 0x1
 13451 08fc 50       		.byte	0x50
 13452 08fd 9F       		.byte	0x9f
 13453 08fe B8010000 		.4byte	.LVL247
 13454 0902 D6010000 		.4byte	.LVL248
 13455 0906 0100     		.2byte	0x1
 13456 0908 50       		.byte	0x50
 13457 0909 D6010000 		.4byte	.LVL248
 13458 090d DC010000 		.4byte	.LVL250
 13459 0911 0400     		.2byte	0x4
 13460 0913 F3       		.byte	0xf3
 13461 0914 01       		.uleb128 0x1
 13462 0915 50       		.byte	0x50
 13463 0916 9F       		.byte	0x9f
 13464 0917 DC010000 		.4byte	.LVL250
 13465 091b E8010000 		.4byte	.LVL251
 13466 091f 0100     		.2byte	0x1
 13467 0921 50       		.byte	0x50
 13468 0922 E8010000 		.4byte	.LVL251
 13469 0926 EE010000 		.4byte	.LVL253
 13470 092a 0400     		.2byte	0x4
 13471 092c F3       		.byte	0xf3
 13472 092d 01       		.uleb128 0x1
 13473 092e 50       		.byte	0x50
 13474 092f 9F       		.byte	0x9f
 13475 0930 EE010000 		.4byte	.LVL253
 13476 0934 00020000 		.4byte	.LVL254
 13477 0938 0100     		.2byte	0x1
 13478 093a 50       		.byte	0x50
 13479 093b 00020000 		.4byte	.LVL254
 13480 093f 06020000 		.4byte	.LVL256
ARM GAS  C:\Users\Helon\AppData\Local\Temp\ccTLkFeM.s 			page 297


 13481 0943 0400     		.2byte	0x4
 13482 0945 F3       		.byte	0xf3
 13483 0946 01       		.uleb128 0x1
 13484 0947 50       		.byte	0x50
 13485 0948 9F       		.byte	0x9f
 13486 0949 06020000 		.4byte	.LVL256
 13487 094d 1A020000 		.4byte	.LVL257
 13488 0951 0100     		.2byte	0x1
 13489 0953 50       		.byte	0x50
 13490 0954 1A020000 		.4byte	.LVL257
 13491 0958 20020000 		.4byte	.LVL259
 13492 095c 0400     		.2byte	0x4
 13493 095e F3       		.byte	0xf3
 13494 095f 01       		.uleb128 0x1
 13495 0960 50       		.byte	0x50
 13496 0961 9F       		.byte	0x9f
 13497 0962 20020000 		.4byte	.LVL259
 13498 0966 22020000 		.4byte	.LVL260
 13499 096a 0100     		.2byte	0x1
 13500 096c 50       		.byte	0x50
 13501 096d 22020000 		.4byte	.LVL260
 13502 0971 4A020000 		.4byte	.LVL264
 13503 0975 0400     		.2byte	0x4
 13504 0977 F3       		.byte	0xf3
 13505 0978 01       		.uleb128 0x1
 13506 0979 50       		.byte	0x50
 13507 097a 9F       		.byte	0x9f
 13508 097b 4A020000 		.4byte	.LVL264
 13509 097f 4C020000 		.4byte	.LVL265
 13510 0983 0100     		.2byte	0x1
 13511 0985 50       		.byte	0x50
 13512 0986 4C020000 		.4byte	.LVL265
 13513 098a 62020000 		.4byte	.LVL268
 13514 098e 0400     		.2byte	0x4
 13515 0990 F3       		.byte	0xf3
 13516 0991 01       		.uleb128 0x1
 13517 0992 50       		.byte	0x50
 13518 0993 9F       		.byte	0x9f
 13519 0994 62020000 		.4byte	.LVL268
 13520 0998 64020000 		.4byte	.LVL269
 13521 099c 0100     		.2byte	0x1
 13522 099e 50       		.byte	0x50
 13523 099f 64020000 		.4byte	.LVL269
 13524 09a3 8C020000 		.4byte	.LVL273
 13525 09a7 0400     		.2byte	0x4
 13526 09a9 F3       		.byte	0xf3
 13527 09aa 01       		.uleb128 0x1
 13528 09ab 50       		.byte	0x50
 13529 09ac 9F       		.byte	0x9f
 13530 09ad 8C020000 		.4byte	.LVL273
 13531 09b1 8E020000 		.4byte	.LVL274
 13532 09b5 0100     		.2byte	0x1
 13533 09b7 50       		.byte	0x50
 13534 09b8 8E020000 		.4byte	.LVL274
 13535 09bc A4020000 		.4byte	.LVL277
 13536 09c0 0400     		.2byte	0x4
 13537 09c2 F3       		.byte	0xf3
ARM GAS  C:\Users\Helon\AppData\Local\Temp\ccTLkFeM.s 			page 298


 13538 09c3 01       		.uleb128 0x1
 13539 09c4 50       		.byte	0x50
 13540 09c5 9F       		.byte	0x9f
 13541 09c6 A4020000 		.4byte	.LVL277
 13542 09ca A6020000 		.4byte	.LVL278
 13543 09ce 0100     		.2byte	0x1
 13544 09d0 50       		.byte	0x50
 13545 09d1 A6020000 		.4byte	.LVL278
 13546 09d5 CE020000 		.4byte	.LVL282
 13547 09d9 0400     		.2byte	0x4
 13548 09db F3       		.byte	0xf3
 13549 09dc 01       		.uleb128 0x1
 13550 09dd 50       		.byte	0x50
 13551 09de 9F       		.byte	0x9f
 13552 09df CE020000 		.4byte	.LVL282
 13553 09e3 D0020000 		.4byte	.LVL283
 13554 09e7 0100     		.2byte	0x1
 13555 09e9 50       		.byte	0x50
 13556 09ea D0020000 		.4byte	.LVL283
 13557 09ee 58030000 		.4byte	.LVL287
 13558 09f2 0400     		.2byte	0x4
 13559 09f4 F3       		.byte	0xf3
 13560 09f5 01       		.uleb128 0x1
 13561 09f6 50       		.byte	0x50
 13562 09f7 9F       		.byte	0x9f
 13563 09f8 58030000 		.4byte	.LVL287
 13564 09fc 5A030000 		.4byte	.LVL288
 13565 0a00 0100     		.2byte	0x1
 13566 0a02 50       		.byte	0x50
 13567 0a03 5A030000 		.4byte	.LVL288
 13568 0a07 78030000 		.4byte	.LFE50
 13569 0a0b 0400     		.2byte	0x4
 13570 0a0d F3       		.byte	0xf3
 13571 0a0e 01       		.uleb128 0x1
 13572 0a0f 50       		.byte	0x50
 13573 0a10 9F       		.byte	0x9f
 13574 0a11 00000000 		.4byte	0
 13575 0a15 00000000 		.4byte	0
 13576              	.LLST27:
 13577 0a19 00000000 		.4byte	.LVL291
 13578 0a1d 16000000 		.4byte	.LVL292
 13579 0a21 0100     		.2byte	0x1
 13580 0a23 50       		.byte	0x50
 13581 0a24 16000000 		.4byte	.LVL292
 13582 0a28 38000000 		.4byte	.LVL293
 13583 0a2c 0400     		.2byte	0x4
 13584 0a2e F3       		.byte	0xf3
 13585 0a2f 01       		.uleb128 0x1
 13586 0a30 50       		.byte	0x50
 13587 0a31 9F       		.byte	0x9f
 13588 0a32 38000000 		.4byte	.LVL293
 13589 0a36 6C000000 		.4byte	.LVL294
 13590 0a3a 0200     		.2byte	0x2
 13591 0a3c 74       		.byte	0x74
 13592 0a3d 00       		.sleb128 0
 13593 0a3e 6C000000 		.4byte	.LVL294
 13594 0a42 7C000000 		.4byte	.LVL296
ARM GAS  C:\Users\Helon\AppData\Local\Temp\ccTLkFeM.s 			page 299


 13595 0a46 0400     		.2byte	0x4
 13596 0a48 F3       		.byte	0xf3
 13597 0a49 01       		.uleb128 0x1
 13598 0a4a 50       		.byte	0x50
 13599 0a4b 9F       		.byte	0x9f
 13600 0a4c 82000000 		.4byte	.LVL298
 13601 0a50 AC000000 		.4byte	.LVL299
 13602 0a54 0400     		.2byte	0x4
 13603 0a56 F3       		.byte	0xf3
 13604 0a57 01       		.uleb128 0x1
 13605 0a58 50       		.byte	0x50
 13606 0a59 9F       		.byte	0x9f
 13607 0a5a 00000000 		.4byte	0
 13608 0a5e 00000000 		.4byte	0
 13609              	.LLST28:
 13610 0a62 00000000 		.4byte	.LVL291
 13611 0a66 76000000 		.4byte	.LVL295
 13612 0a6a 0200     		.2byte	0x2
 13613 0a6c 30       		.byte	0x30
 13614 0a6d 9F       		.byte	0x9f
 13615 0a6e 76000000 		.4byte	.LVL295
 13616 0a72 7C000000 		.4byte	.LVL296
 13617 0a76 0100     		.2byte	0x1
 13618 0a78 50       		.byte	0x50
 13619 0a79 82000000 		.4byte	.LVL298
 13620 0a7d AC000000 		.4byte	.LVL299
 13621 0a81 0200     		.2byte	0x2
 13622 0a83 30       		.byte	0x30
 13623 0a84 9F       		.byte	0x9f
 13624 0a85 00000000 		.4byte	0
 13625 0a89 00000000 		.4byte	0
 13626              	.LLST29:
 13627 0a8d 00000000 		.4byte	.LVL300
 13628 0a91 06000000 		.4byte	.LVL301
 13629 0a95 0100     		.2byte	0x1
 13630 0a97 51       		.byte	0x51
 13631 0a98 06000000 		.4byte	.LVL301
 13632 0a9c 68000000 		.4byte	.LFE52
 13633 0aa0 0400     		.2byte	0x4
 13634 0aa2 F3       		.byte	0xf3
 13635 0aa3 01       		.uleb128 0x1
 13636 0aa4 51       		.byte	0x51
 13637 0aa5 9F       		.byte	0x9f
 13638 0aa6 00000000 		.4byte	0
 13639 0aaa 00000000 		.4byte	0
 13640              	.LLST30:
 13641 0aae 00000000 		.4byte	.LVL300
 13642 0ab2 06000000 		.4byte	.LVL301
 13643 0ab6 0100     		.2byte	0x1
 13644 0ab8 52       		.byte	0x52
 13645 0ab9 06000000 		.4byte	.LVL301
 13646 0abd 68000000 		.4byte	.LFE52
 13647 0ac1 0200     		.2byte	0x2
 13648 0ac3 91       		.byte	0x91
 13649 0ac4 64       		.sleb128 -28
 13650 0ac5 00000000 		.4byte	0
 13651 0ac9 00000000 		.4byte	0
ARM GAS  C:\Users\Helon\AppData\Local\Temp\ccTLkFeM.s 			page 300


 13652              	.LLST31:
 13653 0acd 12000000 		.4byte	.LVL302
 13654 0ad1 28000000 		.4byte	.LVL304
 13655 0ad5 0100     		.2byte	0x1
 13656 0ad7 54       		.byte	0x54
 13657 0ad8 28000000 		.4byte	.LVL304
 13658 0adc 5C000000 		.4byte	.LVL311
 13659 0ae0 0200     		.2byte	0x2
 13660 0ae2 71       		.byte	0x71
 13661 0ae3 00       		.sleb128 0
 13662 0ae4 00000000 		.4byte	0
 13663 0ae8 00000000 		.4byte	0
 13664              	.LLST32:
 13665 0aec 16000000 		.4byte	.LVL303
 13666 0af0 46000000 		.4byte	.LVL307
 13667 0af4 0100     		.2byte	0x1
 13668 0af6 53       		.byte	0x53
 13669 0af7 46000000 		.4byte	.LVL307
 13670 0afb 5C000000 		.4byte	.LVL311
 13671 0aff 0200     		.2byte	0x2
 13672 0b01 71       		.byte	0x71
 13673 0b02 01       		.sleb128 1
 13674 0b03 00000000 		.4byte	0
 13675 0b07 00000000 		.4byte	0
 13676              	.LLST33:
 13677 0b0b 30000000 		.4byte	.LVL305
 13678 0b0f 58000000 		.4byte	.LVL310
 13679 0b13 0100     		.2byte	0x1
 13680 0b15 56       		.byte	0x56
 13681 0b16 00000000 		.4byte	0
 13682 0b1a 00000000 		.4byte	0
 13683              	.LLST34:
 13684 0b1e 4E000000 		.4byte	.LVL308
 13685 0b22 62000000 		.4byte	.LVL313
 13686 0b26 0100     		.2byte	0x1
 13687 0b28 54       		.byte	0x54
 13688 0b29 00000000 		.4byte	0
 13689 0b2d 00000000 		.4byte	0
 13690              	.LLST35:
 13691 0b31 00000000 		.4byte	.LVL300
 13692 0b35 06000000 		.4byte	.LVL301
 13693 0b39 0200     		.2byte	0x2
 13694 0b3b 30       		.byte	0x30
 13695 0b3c 9F       		.byte	0x9f
 13696 0b3d 06000000 		.4byte	.LVL301
 13697 0b41 5C000000 		.4byte	.LVL311
 13698 0b45 0600     		.2byte	0x6
 13699 0b47 75       		.byte	0x75
 13700 0b48 00       		.sleb128 0
 13701 0b49 70       		.byte	0x70
 13702 0b4a 00       		.sleb128 0
 13703 0b4b 1C       		.byte	0x1c
 13704 0b4c 9F       		.byte	0x9f
 13705 0b4d 5C000000 		.4byte	.LVL311
 13706 0b51 60000000 		.4byte	.LVL312
 13707 0b55 0800     		.2byte	0x8
 13708 0b57 75       		.byte	0x75
ARM GAS  C:\Users\Helon\AppData\Local\Temp\ccTLkFeM.s 			page 301


 13709 0b58 00       		.sleb128 0
 13710 0b59 70       		.byte	0x70
 13711 0b5a 00       		.sleb128 0
 13712 0b5b 1C       		.byte	0x1c
 13713 0b5c 23       		.byte	0x23
 13714 0b5d 01       		.uleb128 0x1
 13715 0b5e 9F       		.byte	0x9f
 13716 0b5f 60000000 		.4byte	.LVL312
 13717 0b63 62000000 		.4byte	.LVL314
 13718 0b67 0600     		.2byte	0x6
 13719 0b69 75       		.byte	0x75
 13720 0b6a 00       		.sleb128 0
 13721 0b6b 70       		.byte	0x70
 13722 0b6c 00       		.sleb128 0
 13723 0b6d 1C       		.byte	0x1c
 13724 0b6e 9F       		.byte	0x9f
 13725 0b6f 00000000 		.4byte	0
 13726 0b73 00000000 		.4byte	0
 13727              	.LLST36:
 13728 0b77 16000000 		.4byte	.LVL303
 13729 0b7b 28000000 		.4byte	.LVL304
 13730 0b7f 0100     		.2byte	0x1
 13731 0b81 54       		.byte	0x54
 13732 0b82 28000000 		.4byte	.LVL304
 13733 0b86 5C000000 		.4byte	.LVL311
 13734 0b8a 0200     		.2byte	0x2
 13735 0b8c 71       		.byte	0x71
 13736 0b8d 00       		.sleb128 0
 13737 0b8e 00000000 		.4byte	0
 13738 0b92 00000000 		.4byte	0
 13739              	.LLST37:
 13740 0b96 38000000 		.4byte	.LVL306
 13741 0b9a 46000000 		.4byte	.LVL307
 13742 0b9e 0100     		.2byte	0x1
 13743 0ba0 53       		.byte	0x53
 13744 0ba1 46000000 		.4byte	.LVL307
 13745 0ba5 5C000000 		.4byte	.LVL311
 13746 0ba9 0200     		.2byte	0x2
 13747 0bab 71       		.byte	0x71
 13748 0bac 01       		.sleb128 1
 13749 0bad 00000000 		.4byte	0
 13750 0bb1 00000000 		.4byte	0
 13751              	.LLST38:
 13752 0bb5 00000000 		.4byte	.LVL315
 13753 0bb9 0C000000 		.4byte	.LVL316
 13754 0bbd 0100     		.2byte	0x1
 13755 0bbf 50       		.byte	0x50
 13756 0bc0 0C000000 		.4byte	.LVL316
 13757 0bc4 A4000000 		.4byte	.LVL329
 13758 0bc8 0100     		.2byte	0x1
 13759 0bca 54       		.byte	0x54
 13760 0bcb A4000000 		.4byte	.LVL329
 13761 0bcf C8000000 		.4byte	.LVL333
 13762 0bd3 0400     		.2byte	0x4
 13763 0bd5 F3       		.byte	0xf3
 13764 0bd6 01       		.uleb128 0x1
 13765 0bd7 50       		.byte	0x50
ARM GAS  C:\Users\Helon\AppData\Local\Temp\ccTLkFeM.s 			page 302


 13766 0bd8 9F       		.byte	0x9f
 13767 0bd9 C8000000 		.4byte	.LVL333
 13768 0bdd CC000000 		.4byte	.LVL335
 13769 0be1 0100     		.2byte	0x1
 13770 0be3 54       		.byte	0x54
 13771 0be4 CC000000 		.4byte	.LVL335
 13772 0be8 1C010000 		.4byte	.LVL345
 13773 0bec 0400     		.2byte	0x4
 13774 0bee F3       		.byte	0xf3
 13775 0bef 01       		.uleb128 0x1
 13776 0bf0 50       		.byte	0x50
 13777 0bf1 9F       		.byte	0x9f
 13778 0bf2 1C010000 		.4byte	.LVL345
 13779 0bf6 2E010000 		.4byte	.LVL347
 13780 0bfa 0100     		.2byte	0x1
 13781 0bfc 54       		.byte	0x54
 13782 0bfd 2E010000 		.4byte	.LVL347
 13783 0c01 32010000 		.4byte	.LVL348
 13784 0c05 0400     		.2byte	0x4
 13785 0c07 F3       		.byte	0xf3
 13786 0c08 01       		.uleb128 0x1
 13787 0c09 50       		.byte	0x50
 13788 0c0a 9F       		.byte	0x9f
 13789 0c0b 32010000 		.4byte	.LVL348
 13790 0c0f 3A010000 		.4byte	.LVL349
 13791 0c13 0100     		.2byte	0x1
 13792 0c15 54       		.byte	0x54
 13793 0c16 3A010000 		.4byte	.LVL349
 13794 0c1a 3E010000 		.4byte	.LVL350
 13795 0c1e 0400     		.2byte	0x4
 13796 0c20 F3       		.byte	0xf3
 13797 0c21 01       		.uleb128 0x1
 13798 0c22 50       		.byte	0x50
 13799 0c23 9F       		.byte	0x9f
 13800 0c24 3E010000 		.4byte	.LVL350
 13801 0c28 0E020000 		.4byte	.LVL378
 13802 0c2c 0100     		.2byte	0x1
 13803 0c2e 54       		.byte	0x54
 13804 0c2f 0E020000 		.4byte	.LVL378
 13805 0c33 3E020000 		.4byte	.LVL385
 13806 0c37 0400     		.2byte	0x4
 13807 0c39 F3       		.byte	0xf3
 13808 0c3a 01       		.uleb128 0x1
 13809 0c3b 50       		.byte	0x50
 13810 0c3c 9F       		.byte	0x9f
 13811 0c3d 3E020000 		.4byte	.LVL385
 13812 0c41 28030000 		.4byte	.LVL402
 13813 0c45 0100     		.2byte	0x1
 13814 0c47 54       		.byte	0x54
 13815 0c48 28030000 		.4byte	.LVL402
 13816 0c4c 48030000 		.4byte	.LVL407
 13817 0c50 0400     		.2byte	0x4
 13818 0c52 F3       		.byte	0xf3
 13819 0c53 01       		.uleb128 0x1
 13820 0c54 50       		.byte	0x50
 13821 0c55 9F       		.byte	0x9f
 13822 0c56 48030000 		.4byte	.LVL407
ARM GAS  C:\Users\Helon\AppData\Local\Temp\ccTLkFeM.s 			page 303


 13823 0c5a 54030000 		.4byte	.LVL408
 13824 0c5e 0100     		.2byte	0x1
 13825 0c60 54       		.byte	0x54
 13826 0c61 54030000 		.4byte	.LVL408
 13827 0c65 78030000 		.4byte	.LVL413
 13828 0c69 0400     		.2byte	0x4
 13829 0c6b F3       		.byte	0xf3
 13830 0c6c 01       		.uleb128 0x1
 13831 0c6d 50       		.byte	0x50
 13832 0c6e 9F       		.byte	0x9f
 13833 0c6f 78030000 		.4byte	.LVL413
 13834 0c73 3E040000 		.4byte	.LVL423
 13835 0c77 0100     		.2byte	0x1
 13836 0c79 54       		.byte	0x54
 13837 0c7a 3E040000 		.4byte	.LVL423
 13838 0c7e 72040000 		.4byte	.LVL426
 13839 0c82 0400     		.2byte	0x4
 13840 0c84 F3       		.byte	0xf3
 13841 0c85 01       		.uleb128 0x1
 13842 0c86 50       		.byte	0x50
 13843 0c87 9F       		.byte	0x9f
 13844 0c88 72040000 		.4byte	.LVL426
 13845 0c8c B2040000 		.4byte	.LVL437
 13846 0c90 0100     		.2byte	0x1
 13847 0c92 54       		.byte	0x54
 13848 0c93 B2040000 		.4byte	.LVL437
 13849 0c97 E4040000 		.4byte	.LVL442
 13850 0c9b 0400     		.2byte	0x4
 13851 0c9d F3       		.byte	0xf3
 13852 0c9e 01       		.uleb128 0x1
 13853 0c9f 50       		.byte	0x50
 13854 0ca0 9F       		.byte	0x9f
 13855 0ca1 E4040000 		.4byte	.LVL442
 13856 0ca5 FE040000 		.4byte	.LVL445
 13857 0ca9 0100     		.2byte	0x1
 13858 0cab 54       		.byte	0x54
 13859 0cac FE040000 		.4byte	.LVL445
 13860 0cb0 04050000 		.4byte	.LVL447
 13861 0cb4 0400     		.2byte	0x4
 13862 0cb6 F3       		.byte	0xf3
 13863 0cb7 01       		.uleb128 0x1
 13864 0cb8 50       		.byte	0x50
 13865 0cb9 9F       		.byte	0x9f
 13866 0cba 04050000 		.4byte	.LVL447
 13867 0cbe 0E050000 		.4byte	.LVL448
 13868 0cc2 0100     		.2byte	0x1
 13869 0cc4 54       		.byte	0x54
 13870 0cc5 0E050000 		.4byte	.LVL448
 13871 0cc9 1C050000 		.4byte	.LVL451
 13872 0ccd 0400     		.2byte	0x4
 13873 0ccf F3       		.byte	0xf3
 13874 0cd0 01       		.uleb128 0x1
 13875 0cd1 50       		.byte	0x50
 13876 0cd2 9F       		.byte	0x9f
 13877 0cd3 1C050000 		.4byte	.LVL451
 13878 0cd7 2C050000 		.4byte	.LVL453
 13879 0cdb 0100     		.2byte	0x1
ARM GAS  C:\Users\Helon\AppData\Local\Temp\ccTLkFeM.s 			page 304


 13880 0cdd 54       		.byte	0x54
 13881 0cde 2C050000 		.4byte	.LVL453
 13882 0ce2 72050000 		.4byte	.LVL463
 13883 0ce6 0400     		.2byte	0x4
 13884 0ce8 F3       		.byte	0xf3
 13885 0ce9 01       		.uleb128 0x1
 13886 0cea 50       		.byte	0x50
 13887 0ceb 9F       		.byte	0x9f
 13888 0cec 72050000 		.4byte	.LVL463
 13889 0cf0 DA050000 		.4byte	.LVL472
 13890 0cf4 0100     		.2byte	0x1
 13891 0cf6 54       		.byte	0x54
 13892 0cf7 DA050000 		.4byte	.LVL472
 13893 0cfb DE050000 		.4byte	.LVL473
 13894 0cff 0400     		.2byte	0x4
 13895 0d01 F3       		.byte	0xf3
 13896 0d02 01       		.uleb128 0x1
 13897 0d03 50       		.byte	0x50
 13898 0d04 9F       		.byte	0x9f
 13899 0d05 DE050000 		.4byte	.LVL473
 13900 0d09 0C060000 		.4byte	.LVL478
 13901 0d0d 0100     		.2byte	0x1
 13902 0d0f 54       		.byte	0x54
 13903 0d10 0C060000 		.4byte	.LVL478
 13904 0d14 1E060000 		.4byte	.LVL481
 13905 0d18 0400     		.2byte	0x4
 13906 0d1a F3       		.byte	0xf3
 13907 0d1b 01       		.uleb128 0x1
 13908 0d1c 50       		.byte	0x50
 13909 0d1d 9F       		.byte	0x9f
 13910 0d1e 1E060000 		.4byte	.LVL481
 13911 0d22 B6060000 		.4byte	.LVL507
 13912 0d26 0100     		.2byte	0x1
 13913 0d28 54       		.byte	0x54
 13914 0d29 B6060000 		.4byte	.LVL507
 13915 0d2d BC060000 		.4byte	.LVL509
 13916 0d31 0400     		.2byte	0x4
 13917 0d33 F3       		.byte	0xf3
 13918 0d34 01       		.uleb128 0x1
 13919 0d35 50       		.byte	0x50
 13920 0d36 9F       		.byte	0x9f
 13921 0d37 BC060000 		.4byte	.LVL509
 13922 0d3b D6060000 		.4byte	.LVL513
 13923 0d3f 0100     		.2byte	0x1
 13924 0d41 54       		.byte	0x54
 13925 0d42 D6060000 		.4byte	.LVL513
 13926 0d46 50070000 		.4byte	.LFE57
 13927 0d4a 0400     		.2byte	0x4
 13928 0d4c F3       		.byte	0xf3
 13929 0d4d 01       		.uleb128 0x1
 13930 0d4e 50       		.byte	0x50
 13931 0d4f 9F       		.byte	0x9f
 13932 0d50 00000000 		.4byte	0
 13933 0d54 00000000 		.4byte	0
 13934              	.LLST39:
 13935 0d58 00000000 		.4byte	.LVL315
 13936 0d5c 42000000 		.4byte	.LVL321
ARM GAS  C:\Users\Helon\AppData\Local\Temp\ccTLkFeM.s 			page 305


 13937 0d60 0200     		.2byte	0x2
 13938 0d62 30       		.byte	0x30
 13939 0d63 9F       		.byte	0x9f
 13940 0d64 42000000 		.4byte	.LVL321
 13941 0d68 82000000 		.4byte	.LVL322
 13942 0d6c 0100     		.2byte	0x1
 13943 0d6e 50       		.byte	0x50
 13944 0d6f 9C000000 		.4byte	.LVL326
 13945 0d73 9E000000 		.4byte	.LVL327
 13946 0d77 0100     		.2byte	0x1
 13947 0d79 50       		.byte	0x50
 13948 0d7a A0000000 		.4byte	.LVL328
 13949 0d7e AA000000 		.4byte	.LVL330
 13950 0d82 0100     		.2byte	0x1
 13951 0d84 50       		.byte	0x50
 13952 0d85 C8000000 		.4byte	.LVL333
 13953 0d89 DE000000 		.4byte	.LVL336
 13954 0d8d 0100     		.2byte	0x1
 13955 0d8f 50       		.byte	0x50
 13956 0d90 E8000000 		.4byte	.LVL338
 13957 0d94 F3000000 		.4byte	.LVL340-1
 13958 0d98 0100     		.2byte	0x1
 13959 0d9a 50       		.byte	0x50
 13960 0d9b 1C010000 		.4byte	.LVL345
 13961 0d9f 2E010000 		.4byte	.LVL347
 13962 0da3 0100     		.2byte	0x1
 13963 0da5 50       		.byte	0x50
 13964 0da6 32010000 		.4byte	.LVL348
 13965 0daa 3A010000 		.4byte	.LVL349
 13966 0dae 0100     		.2byte	0x1
 13967 0db0 50       		.byte	0x50
 13968 0db1 3E010000 		.4byte	.LVL350
 13969 0db5 42010000 		.4byte	.LVL351
 13970 0db9 0100     		.2byte	0x1
 13971 0dbb 50       		.byte	0x50
 13972 0dbc 4E010000 		.4byte	.LVL353
 13973 0dc0 5A010000 		.4byte	.LVL354
 13974 0dc4 0100     		.2byte	0x1
 13975 0dc6 50       		.byte	0x50
 13976 0dc7 60010000 		.4byte	.LVL356
 13977 0dcb 68010000 		.4byte	.LVL357
 13978 0dcf 0100     		.2byte	0x1
 13979 0dd1 50       		.byte	0x50
 13980 0dd2 E2010000 		.4byte	.LVL371
 13981 0dd6 FC010000 		.4byte	.LVL374
 13982 0dda 0100     		.2byte	0x1
 13983 0ddc 50       		.byte	0x50
 13984 0ddd 3E020000 		.4byte	.LVL385
 13985 0de1 48020000 		.4byte	.LVL386
 13986 0de5 0100     		.2byte	0x1
 13987 0de7 50       		.byte	0x50
 13988 0de8 8E020000 		.4byte	.LVL391
 13989 0dec A8020000 		.4byte	.LVL392
 13990 0df0 0100     		.2byte	0x1
 13991 0df2 50       		.byte	0x50
 13992 0df3 B4020000 		.4byte	.LVL394
 13993 0df7 C2020000 		.4byte	.LVL395
ARM GAS  C:\Users\Helon\AppData\Local\Temp\ccTLkFeM.s 			page 306


 13994 0dfb 0100     		.2byte	0x1
 13995 0dfd 50       		.byte	0x50
 13996 0dfe FA020000 		.4byte	.LVL399
 13997 0e02 10030000 		.4byte	.LVL400
 13998 0e06 0100     		.2byte	0x1
 13999 0e08 50       		.byte	0x50
 14000 0e09 1C030000 		.4byte	.LVL401
 14001 0e0d 2C030000 		.4byte	.LVL403
 14002 0e11 0100     		.2byte	0x1
 14003 0e13 50       		.byte	0x50
 14004 0e14 48030000 		.4byte	.LVL407
 14005 0e18 56030000 		.4byte	.LVL409
 14006 0e1c 0100     		.2byte	0x1
 14007 0e1e 50       		.byte	0x50
 14008 0e1f 78030000 		.4byte	.LVL413
 14009 0e23 8A030000 		.4byte	.LVL414
 14010 0e27 0100     		.2byte	0x1
 14011 0e29 50       		.byte	0x50
 14012 0e2a 9A030000 		.4byte	.LVL416
 14013 0e2e B7030000 		.4byte	.LVL417-1
 14014 0e32 0100     		.2byte	0x1
 14015 0e34 50       		.byte	0x50
 14016 0e35 1C040000 		.4byte	.LVL419
 14017 0e39 2D040000 		.4byte	.LVL420-1
 14018 0e3d 0100     		.2byte	0x1
 14019 0e3f 50       		.byte	0x50
 14020 0e40 36040000 		.4byte	.LVL422
 14021 0e44 3E040000 		.4byte	.LVL423
 14022 0e48 0100     		.2byte	0x1
 14023 0e4a 50       		.byte	0x50
 14024 0e4b 72040000 		.4byte	.LVL426
 14025 0e4f 7E040000 		.4byte	.LVL428
 14026 0e53 0100     		.2byte	0x1
 14027 0e55 50       		.byte	0x50
 14028 0e56 84040000 		.4byte	.LVL430
 14029 0e5a 9A040000 		.4byte	.LVL432
 14030 0e5e 0100     		.2byte	0x1
 14031 0e60 50       		.byte	0x50
 14032 0e61 E4040000 		.4byte	.LVL442
 14033 0e65 F9040000 		.4byte	.LVL444-1
 14034 0e69 0100     		.2byte	0x1
 14035 0e6b 50       		.byte	0x50
 14036 0e6c 04050000 		.4byte	.LVL447
 14037 0e70 10050000 		.4byte	.LVL449
 14038 0e74 0100     		.2byte	0x1
 14039 0e76 50       		.byte	0x50
 14040 0e77 1C050000 		.4byte	.LVL451
 14041 0e7b 40050000 		.4byte	.LVL456
 14042 0e7f 0100     		.2byte	0x1
 14043 0e81 50       		.byte	0x50
 14044 0e82 56050000 		.4byte	.LVL458
 14045 0e86 68050000 		.4byte	.LVL459
 14046 0e8a 0100     		.2byte	0x1
 14047 0e8c 50       		.byte	0x50
 14048 0e8d 6A050000 		.4byte	.LVL460
 14049 0e91 6E050000 		.4byte	.LVL462
 14050 0e95 0100     		.2byte	0x1
ARM GAS  C:\Users\Helon\AppData\Local\Temp\ccTLkFeM.s 			page 307


 14051 0e97 50       		.byte	0x50
 14052 0e98 72050000 		.4byte	.LVL463
 14053 0e9c 7E050000 		.4byte	.LVL466
 14054 0ea0 0100     		.2byte	0x1
 14055 0ea2 50       		.byte	0x50
 14056 0ea3 AC050000 		.4byte	.LVL467
 14057 0ea7 C4050000 		.4byte	.LVL469
 14058 0eab 0100     		.2byte	0x1
 14059 0ead 50       		.byte	0x50
 14060 0eae CA050000 		.4byte	.LVL471
 14061 0eb2 D9050000 		.4byte	.LVL472-1
 14062 0eb6 0100     		.2byte	0x1
 14063 0eb8 50       		.byte	0x50
 14064 0eb9 DE050000 		.4byte	.LVL473
 14065 0ebd E2050000 		.4byte	.LVL474
 14066 0ec1 0100     		.2byte	0x1
 14067 0ec3 50       		.byte	0x50
 14068 0ec4 A4060000 		.4byte	.LVL503
 14069 0ec8 AE060000 		.4byte	.LVL506
 14070 0ecc 0100     		.2byte	0x1
 14071 0ece 50       		.byte	0x50
 14072 0ecf BC060000 		.4byte	.LVL509
 14073 0ed3 D0060000 		.4byte	.LVL511
 14074 0ed7 0100     		.2byte	0x1
 14075 0ed9 50       		.byte	0x50
 14076 0eda 00000000 		.4byte	0
 14077 0ede 00000000 		.4byte	0
 14078              	.LLST40:
 14079 0ee2 00000000 		.4byte	.LVL315
 14080 0ee6 C6010000 		.4byte	.LVL367
 14081 0eea 0200     		.2byte	0x2
 14082 0eec 30       		.byte	0x30
 14083 0eed 9F       		.byte	0x9f
 14084 0eee C6010000 		.4byte	.LVL367
 14085 0ef2 D6010000 		.4byte	.LVL368
 14086 0ef6 0100     		.2byte	0x1
 14087 0ef8 55       		.byte	0x55
 14088 0ef9 DC010000 		.4byte	.LVL370
 14089 0efd E2010000 		.4byte	.LVL371
 14090 0f01 0100     		.2byte	0x1
 14091 0f03 55       		.byte	0x55
 14092 0f04 E2010000 		.4byte	.LVL371
 14093 0f08 3E040000 		.4byte	.LVL423
 14094 0f0c 0200     		.2byte	0x2
 14095 0f0e 30       		.byte	0x30
 14096 0f0f 9F       		.byte	0x9f
 14097 0f10 3E040000 		.4byte	.LVL423
 14098 0f14 50040000 		.4byte	.LVL424
 14099 0f18 0100     		.2byte	0x1
 14100 0f1a 54       		.byte	0x54
 14101 0f1b 70040000 		.4byte	.LVL425
 14102 0f1f 72040000 		.4byte	.LVL426
 14103 0f23 0100     		.2byte	0x1
 14104 0f25 54       		.byte	0x54
 14105 0f26 72040000 		.4byte	.LVL426
 14106 0f2a B2040000 		.4byte	.LVL437
 14107 0f2e 0200     		.2byte	0x2
ARM GAS  C:\Users\Helon\AppData\Local\Temp\ccTLkFeM.s 			page 308


 14108 0f30 30       		.byte	0x30
 14109 0f31 9F       		.byte	0x9f
 14110 0f32 B4040000 		.4byte	.LVL438
 14111 0f36 C0040000 		.4byte	.LVL439
 14112 0f3a 0100     		.2byte	0x1
 14113 0f3c 52       		.byte	0x52
 14114 0f3d E4040000 		.4byte	.LVL442
 14115 0f41 DA050000 		.4byte	.LVL472
 14116 0f45 0200     		.2byte	0x2
 14117 0f47 30       		.byte	0x30
 14118 0f48 9F       		.byte	0x9f
 14119 0f49 DE050000 		.4byte	.LVL473
 14120 0f4d B6060000 		.4byte	.LVL507
 14121 0f51 0200     		.2byte	0x2
 14122 0f53 30       		.byte	0x30
 14123 0f54 9F       		.byte	0x9f
 14124 0f55 BC060000 		.4byte	.LVL509
 14125 0f59 D6060000 		.4byte	.LVL513
 14126 0f5d 0200     		.2byte	0x2
 14127 0f5f 30       		.byte	0x30
 14128 0f60 9F       		.byte	0x9f
 14129 0f61 00000000 		.4byte	0
 14130 0f65 00000000 		.4byte	0
 14131              	.LLST41:
 14132 0f69 00000000 		.4byte	.LVL315
 14133 0f6d A0000000 		.4byte	.LVL328
 14134 0f71 0200     		.2byte	0x2
 14135 0f73 30       		.byte	0x30
 14136 0f74 9F       		.byte	0x9f
 14137 0f75 A0000000 		.4byte	.LVL328
 14138 0f79 A4000000 		.4byte	.LVL329
 14139 0f7d 0200     		.2byte	0x2
 14140 0f7f 74       		.byte	0x74
 14141 0f80 09       		.sleb128 9
 14142 0f81 A4000000 		.4byte	.LVL329
 14143 0f85 AD000000 		.4byte	.LVL331-1
 14144 0f89 0100     		.2byte	0x1
 14145 0f8b 53       		.byte	0x53
 14146 0f8c C8000000 		.4byte	.LVL333
 14147 0f90 CA000000 		.4byte	.LVL334
 14148 0f94 0200     		.2byte	0x2
 14149 0f96 30       		.byte	0x30
 14150 0f97 9F       		.byte	0x9f
 14151 0f98 CA000000 		.4byte	.LVL334
 14152 0f9c E1000000 		.4byte	.LVL337-1
 14153 0fa0 0100     		.2byte	0x1
 14154 0fa2 53       		.byte	0x53
 14155 0fa3 E8000000 		.4byte	.LVL338
 14156 0fa7 EA000000 		.4byte	.LVL339
 14157 0fab 0100     		.2byte	0x1
 14158 0fad 53       		.byte	0x53
 14159 0fae EA000000 		.4byte	.LVL339
 14160 0fb2 F3000000 		.4byte	.LVL340-1
 14161 0fb6 0500     		.2byte	0x5
 14162 0fb8 F3       		.byte	0xf3
 14163 0fb9 01       		.uleb128 0x1
 14164 0fba 50       		.byte	0x50
ARM GAS  C:\Users\Helon\AppData\Local\Temp\ccTLkFeM.s 			page 309


 14165 0fbb 23       		.byte	0x23
 14166 0fbc 08       		.uleb128 0x8
 14167 0fbd 1C010000 		.4byte	.LVL345
 14168 0fc1 20010000 		.4byte	.LVL346
 14169 0fc5 0200     		.2byte	0x2
 14170 0fc7 30       		.byte	0x30
 14171 0fc8 9F       		.byte	0x9f
 14172 0fc9 20010000 		.4byte	.LVL346
 14173 0fcd 2E010000 		.4byte	.LVL347
 14174 0fd1 0100     		.2byte	0x1
 14175 0fd3 53       		.byte	0x53
 14176 0fd4 32010000 		.4byte	.LVL348
 14177 0fd8 3A010000 		.4byte	.LVL349
 14178 0fdc 0200     		.2byte	0x2
 14179 0fde 30       		.byte	0x30
 14180 0fdf 9F       		.byte	0x9f
 14181 0fe0 3E010000 		.4byte	.LVL350
 14182 0fe4 42010000 		.4byte	.LVL351
 14183 0fe8 0200     		.2byte	0x2
 14184 0fea 30       		.byte	0x30
 14185 0feb 9F       		.byte	0x9f
 14186 0fec 42010000 		.4byte	.LVL351
 14187 0ff0 4B010000 		.4byte	.LVL352-1
 14188 0ff4 0100     		.2byte	0x1
 14189 0ff6 50       		.byte	0x50
 14190 0ff7 4E010000 		.4byte	.LVL353
 14191 0ffb 5D010000 		.4byte	.LVL355-1
 14192 0fff 0100     		.2byte	0x1
 14193 1001 53       		.byte	0x53
 14194 1002 60010000 		.4byte	.LVL356
 14195 1006 6B010000 		.4byte	.LVL358-1
 14196 100a 0100     		.2byte	0x1
 14197 100c 53       		.byte	0x53
 14198 100d E2010000 		.4byte	.LVL371
 14199 1011 E6010000 		.4byte	.LVL372
 14200 1015 0200     		.2byte	0x2
 14201 1017 30       		.byte	0x30
 14202 1018 9F       		.byte	0x9f
 14203 1019 E6010000 		.4byte	.LVL372
 14204 101d FF010000 		.4byte	.LVL375-1
 14205 1021 0100     		.2byte	0x1
 14206 1023 52       		.byte	0x52
 14207 1024 3E020000 		.4byte	.LVL385
 14208 1028 50020000 		.4byte	.LVL387
 14209 102c 0100     		.2byte	0x1
 14210 102e 52       		.byte	0x52
 14211 102f 50020000 		.4byte	.LVL387
 14212 1033 55020000 		.4byte	.LVL388-1
 14213 1037 0200     		.2byte	0x2
 14214 1039 74       		.byte	0x74
 14215 103a 08       		.sleb128 8
 14216 103b 8E020000 		.4byte	.LVL391
 14217 103f B1020000 		.4byte	.LVL393-1
 14218 1043 0200     		.2byte	0x2
 14219 1045 74       		.byte	0x74
 14220 1046 09       		.sleb128 9
 14221 1047 B4020000 		.4byte	.LVL394
ARM GAS  C:\Users\Helon\AppData\Local\Temp\ccTLkFeM.s 			page 310


 14222 104b CF020000 		.4byte	.LVL396-1
 14223 104f 0200     		.2byte	0x2
 14224 1051 74       		.byte	0x74
 14225 1052 09       		.sleb128 9
 14226 1053 FA020000 		.4byte	.LVL399
 14227 1057 28030000 		.4byte	.LVL402
 14228 105b 0200     		.2byte	0x2
 14229 105d 74       		.byte	0x74
 14230 105e 08       		.sleb128 8
 14231 105f 28030000 		.4byte	.LVL402
 14232 1063 31030000 		.4byte	.LVL404-1
 14233 1067 0500     		.2byte	0x5
 14234 1069 F3       		.byte	0xf3
 14235 106a 01       		.uleb128 0x1
 14236 106b 50       		.byte	0x50
 14237 106c 23       		.byte	0x23
 14238 106d 08       		.uleb128 0x8
 14239 106e 48030000 		.4byte	.LVL407
 14240 1072 54030000 		.4byte	.LVL408
 14241 1076 0200     		.2byte	0x2
 14242 1078 74       		.byte	0x74
 14243 1079 08       		.sleb128 8
 14244 107a 54030000 		.4byte	.LVL408
 14245 107e 5D030000 		.4byte	.LVL410-1
 14246 1082 0500     		.2byte	0x5
 14247 1084 F3       		.byte	0xf3
 14248 1085 01       		.uleb128 0x1
 14249 1086 50       		.byte	0x50
 14250 1087 23       		.byte	0x23
 14251 1088 08       		.uleb128 0x8
 14252 1089 78030000 		.4byte	.LVL413
 14253 108d 7C040000 		.4byte	.LVL427
 14254 1091 0200     		.2byte	0x2
 14255 1093 30       		.byte	0x30
 14256 1094 9F       		.byte	0x9f
 14257 1095 7C040000 		.4byte	.LVL427
 14258 1099 81040000 		.4byte	.LVL429-1
 14259 109d 0200     		.2byte	0x2
 14260 109f 74       		.byte	0x74
 14261 10a0 09       		.sleb128 9
 14262 10a1 84040000 		.4byte	.LVL430
 14263 10a5 8E040000 		.4byte	.LVL431
 14264 10a9 0200     		.2byte	0x2
 14265 10ab 30       		.byte	0x30
 14266 10ac 9F       		.byte	0x9f
 14267 10ad 8E040000 		.4byte	.LVL431
 14268 10b1 9D040000 		.4byte	.LVL433-1
 14269 10b5 0200     		.2byte	0x2
 14270 10b7 74       		.byte	0x74
 14271 10b8 0B       		.sleb128 11
 14272 10b9 E4040000 		.4byte	.LVL442
 14273 10bd EE040000 		.4byte	.LVL443
 14274 10c1 0200     		.2byte	0x2
 14275 10c3 30       		.byte	0x30
 14276 10c4 9F       		.byte	0x9f
 14277 10c5 EE040000 		.4byte	.LVL443
 14278 10c9 F9040000 		.4byte	.LVL444-1
ARM GAS  C:\Users\Helon\AppData\Local\Temp\ccTLkFeM.s 			page 311


 14279 10cd 0200     		.2byte	0x2
 14280 10cf 74       		.byte	0x74
 14281 10d0 08       		.sleb128 8
 14282 10d1 04050000 		.4byte	.LVL447
 14283 10d5 0E050000 		.4byte	.LVL448
 14284 10d9 0200     		.2byte	0x2
 14285 10db 74       		.byte	0x74
 14286 10dc 09       		.sleb128 9
 14287 10dd 0E050000 		.4byte	.LVL448
 14288 10e1 15050000 		.4byte	.LVL450-1
 14289 10e5 0100     		.2byte	0x1
 14290 10e7 53       		.byte	0x53
 14291 10e8 1C050000 		.4byte	.LVL451
 14292 10ec 20050000 		.4byte	.LVL452
 14293 10f0 0200     		.2byte	0x2
 14294 10f2 30       		.byte	0x30
 14295 10f3 9F       		.byte	0x9f
 14296 10f4 20050000 		.4byte	.LVL452
 14297 10f8 3A050000 		.4byte	.LVL454
 14298 10fc 0100     		.2byte	0x1
 14299 10fe 53       		.byte	0x53
 14300 10ff 3A050000 		.4byte	.LVL454
 14301 1103 3C050000 		.4byte	.LVL455
 14302 1107 0500     		.2byte	0x5
 14303 1109 F3       		.byte	0xf3
 14304 110a 01       		.uleb128 0x1
 14305 110b 50       		.byte	0x50
 14306 110c 23       		.byte	0x23
 14307 110d 0A       		.uleb128 0xa
 14308 110e 56050000 		.4byte	.LVL458
 14309 1112 6C050000 		.4byte	.LVL461
 14310 1116 0100     		.2byte	0x1
 14311 1118 53       		.byte	0x53
 14312 1119 6C050000 		.4byte	.LVL461
 14313 111d 6E050000 		.4byte	.LVL462
 14314 1121 0500     		.2byte	0x5
 14315 1123 F3       		.byte	0xf3
 14316 1124 01       		.uleb128 0x1
 14317 1125 50       		.byte	0x50
 14318 1126 23       		.byte	0x23
 14319 1127 0A       		.uleb128 0xa
 14320 1128 72050000 		.4byte	.LVL463
 14321 112c AC050000 		.4byte	.LVL467
 14322 1130 0200     		.2byte	0x2
 14323 1132 74       		.byte	0x74
 14324 1133 09       		.sleb128 9
 14325 1134 AC050000 		.4byte	.LVL467
 14326 1138 B0050000 		.4byte	.LVL468
 14327 113c 0200     		.2byte	0x2
 14328 113e 30       		.byte	0x30
 14329 113f 9F       		.byte	0x9f
 14330 1140 B0050000 		.4byte	.LVL468
 14331 1144 C7050000 		.4byte	.LVL470-1
 14332 1148 0100     		.2byte	0x1
 14333 114a 52       		.byte	0x52
 14334 114b CA050000 		.4byte	.LVL471
 14335 114f D9050000 		.4byte	.LVL472-1
ARM GAS  C:\Users\Helon\AppData\Local\Temp\ccTLkFeM.s 			page 312


 14336 1153 0100     		.2byte	0x1
 14337 1155 52       		.byte	0x52
 14338 1156 DE050000 		.4byte	.LVL473
 14339 115a E2050000 		.4byte	.LVL474
 14340 115e 0200     		.2byte	0x2
 14341 1160 30       		.byte	0x30
 14342 1161 9F       		.byte	0x9f
 14343 1162 E2050000 		.4byte	.LVL474
 14344 1166 EC050000 		.4byte	.LVL475
 14345 116a 0100     		.2byte	0x1
 14346 116c 50       		.byte	0x50
 14347 116d EC050000 		.4byte	.LVL475
 14348 1171 06060000 		.4byte	.LVL476
 14349 1175 0300     		.2byte	0x3
 14350 1177 70       		.byte	0x70
 14351 1178 30       		.sleb128 48
 14352 1179 9F       		.byte	0x9f
 14353 117a 06060000 		.4byte	.LVL476
 14354 117e 09060000 		.4byte	.LVL477-1
 14355 1182 0200     		.2byte	0x2
 14356 1184 74       		.byte	0x74
 14357 1185 09       		.sleb128 9
 14358 1186 1E060000 		.4byte	.LVL481
 14359 118a 20060000 		.4byte	.LVL482
 14360 118e 0300     		.2byte	0x3
 14361 1190 70       		.byte	0x70
 14362 1191 30       		.sleb128 48
 14363 1192 9F       		.byte	0x9f
 14364 1193 20060000 		.4byte	.LVL482
 14365 1197 23060000 		.4byte	.LVL483-1
 14366 119b 0200     		.2byte	0x2
 14367 119d 74       		.byte	0x74
 14368 119e 09       		.sleb128 9
 14369 119f 34060000 		.4byte	.LVL486
 14370 11a3 36060000 		.4byte	.LVL487
 14371 11a7 0300     		.2byte	0x3
 14372 11a9 70       		.byte	0x70
 14373 11aa 30       		.sleb128 48
 14374 11ab 9F       		.byte	0x9f
 14375 11ac 36060000 		.4byte	.LVL487
 14376 11b0 39060000 		.4byte	.LVL488-1
 14377 11b4 0200     		.2byte	0x2
 14378 11b6 74       		.byte	0x74
 14379 11b7 09       		.sleb128 9
 14380 11b8 4A060000 		.4byte	.LVL491
 14381 11bc 4C060000 		.4byte	.LVL492
 14382 11c0 0300     		.2byte	0x3
 14383 11c2 70       		.byte	0x70
 14384 11c3 30       		.sleb128 48
 14385 11c4 9F       		.byte	0x9f
 14386 11c5 4C060000 		.4byte	.LVL492
 14387 11c9 4F060000 		.4byte	.LVL493-1
 14388 11cd 0200     		.2byte	0x2
 14389 11cf 74       		.byte	0x74
 14390 11d0 09       		.sleb128 9
 14391 11d1 60060000 		.4byte	.LVL496
 14392 11d5 62060000 		.4byte	.LVL497
ARM GAS  C:\Users\Helon\AppData\Local\Temp\ccTLkFeM.s 			page 313


 14393 11d9 0300     		.2byte	0x3
 14394 11db 70       		.byte	0x70
 14395 11dc 30       		.sleb128 48
 14396 11dd 9F       		.byte	0x9f
 14397 11de 62060000 		.4byte	.LVL497
 14398 11e2 65060000 		.4byte	.LVL498-1
 14399 11e6 0200     		.2byte	0x2
 14400 11e8 74       		.byte	0x74
 14401 11e9 09       		.sleb128 9
 14402 11ea 7C060000 		.4byte	.LVL501
 14403 11ee 82060000 		.4byte	.LVL502
 14404 11f2 0300     		.2byte	0x3
 14405 11f4 70       		.byte	0x70
 14406 11f5 30       		.sleb128 48
 14407 11f6 9F       		.byte	0x9f
 14408 11f7 82060000 		.4byte	.LVL502
 14409 11fb A4060000 		.4byte	.LVL503
 14410 11ff 0200     		.2byte	0x2
 14411 1201 74       		.byte	0x74
 14412 1202 09       		.sleb128 9
 14413 1203 A4060000 		.4byte	.LVL503
 14414 1207 A6060000 		.4byte	.LVL504
 14415 120b 0200     		.2byte	0x2
 14416 120d 30       		.byte	0x30
 14417 120e 9F       		.byte	0x9f
 14418 120f A6060000 		.4byte	.LVL504
 14419 1213 AC060000 		.4byte	.LVL505
 14420 1217 0100     		.2byte	0x1
 14421 1219 53       		.byte	0x53
 14422 121a AC060000 		.4byte	.LVL505
 14423 121e B6060000 		.4byte	.LVL507
 14424 1222 0200     		.2byte	0x2
 14425 1224 74       		.byte	0x74
 14426 1225 08       		.sleb128 8
 14427 1226 BC060000 		.4byte	.LVL509
 14428 122a C2060000 		.4byte	.LVL510
 14429 122e 0100     		.2byte	0x1
 14430 1230 53       		.byte	0x53
 14431 1231 C2060000 		.4byte	.LVL510
 14432 1235 D3060000 		.4byte	.LVL512-1
 14433 1239 0200     		.2byte	0x2
 14434 123b 74       		.byte	0x74
 14435 123c 08       		.sleb128 8
 14436 123d 00000000 		.4byte	0
 14437 1241 00000000 		.4byte	0
 14438              	.LLST42:
 14439 1245 FA010000 		.4byte	.LVL373
 14440 1249 FF010000 		.4byte	.LVL375-1
 14441 124d 1D00     		.2byte	0x1d
 14442 124f 76       		.byte	0x76
 14443 1250 00       		.sleb128 0
 14444 1251 94       		.byte	0x94
 14445 1252 02       		.byte	0x2
 14446 1253 0A       		.byte	0xa
 14447 1254 FFFF     		.2byte	0xffff
 14448 1256 1A       		.byte	0x1a
 14449 1257 F7       		.byte	0xf7
ARM GAS  C:\Users\Helon\AppData\Local\Temp\ccTLkFeM.s 			page 314


 14450 1258 2C       		.uleb128 0x2c
 14451 1259 F7       		.byte	0xf7
 14452 125a 25       		.uleb128 0x25
 14453 125b F4       		.byte	0xf4
 14454 125c 25       		.uleb128 0x25
 14455 125d 08       		.byte	0x8
 14456 125e 00000000 		.4byte	0
 14457 1262 0000E43F 		.4byte	0x3fe40000
 14458 1266 1E       		.byte	0x1e
 14459 1267 F7       		.byte	0xf7
 14460 1268 33       		.uleb128 0x33
 14461 1269 F7       		.byte	0xf7
 14462 126a 00       		.uleb128 0
 14463 126b 9F       		.byte	0x9f
 14464 126c 00000000 		.4byte	0
 14465 1270 00000000 		.4byte	0
 14466              	.LLST43:
 14467 1274 FA010000 		.4byte	.LVL373
 14468 1278 FF010000 		.4byte	.LVL375-1
 14469 127c 1D00     		.2byte	0x1d
 14470 127e 76       		.byte	0x76
 14471 127f 02       		.sleb128 2
 14472 1280 94       		.byte	0x94
 14473 1281 02       		.byte	0x2
 14474 1282 0A       		.byte	0xa
 14475 1283 FFFF     		.2byte	0xffff
 14476 1285 1A       		.byte	0x1a
 14477 1286 F7       		.byte	0xf7
 14478 1287 2C       		.uleb128 0x2c
 14479 1288 F7       		.byte	0xf7
 14480 1289 25       		.uleb128 0x25
 14481 128a F4       		.byte	0xf4
 14482 128b 25       		.uleb128 0x25
 14483 128c 08       		.byte	0x8
 14484 128d 00000000 		.4byte	0
 14485 1291 0000E43F 		.4byte	0x3fe40000
 14486 1295 1E       		.byte	0x1e
 14487 1296 F7       		.byte	0xf7
 14488 1297 33       		.uleb128 0x33
 14489 1298 F7       		.byte	0xf7
 14490 1299 00       		.uleb128 0
 14491 129a 9F       		.byte	0x9f
 14492 129b 10020000 		.4byte	.LVL379
 14493 129f 13020000 		.4byte	.LVL380-1
 14494 12a3 1B00     		.2byte	0x1b
 14495 12a5 70       		.byte	0x70
 14496 12a6 00       		.sleb128 0
 14497 12a7 0A       		.byte	0xa
 14498 12a8 FFFF     		.2byte	0xffff
 14499 12aa 1A       		.byte	0x1a
 14500 12ab F7       		.byte	0xf7
 14501 12ac 2C       		.uleb128 0x2c
 14502 12ad F7       		.byte	0xf7
 14503 12ae 25       		.uleb128 0x25
 14504 12af F4       		.byte	0xf4
 14505 12b0 25       		.uleb128 0x25
 14506 12b1 08       		.byte	0x8
ARM GAS  C:\Users\Helon\AppData\Local\Temp\ccTLkFeM.s 			page 315


 14507 12b2 00000000 		.4byte	0
 14508 12b6 0000E43F 		.4byte	0x3fe40000
 14509 12ba 1E       		.byte	0x1e
 14510 12bb F7       		.byte	0xf7
 14511 12bc 33       		.uleb128 0x33
 14512 12bd F7       		.byte	0xf7
 14513 12be 00       		.uleb128 0
 14514 12bf 9F       		.byte	0x9f
 14515 12c0 00000000 		.4byte	0
 14516 12c4 00000000 		.4byte	0
 14517              	.LLST44:
 14518 12c8 3E000000 		.4byte	.LVL320
 14519 12cc 12010000 		.4byte	.LVL343
 14520 12d0 0200     		.2byte	0x2
 14521 12d2 30       		.byte	0x30
 14522 12d3 9F       		.byte	0x9f
 14523 12d4 12010000 		.4byte	.LVL343
 14524 12d8 1A010000 		.4byte	.LVL344
 14525 12dc 0100     		.2byte	0x1
 14526 12de 50       		.byte	0x50
 14527 12df 1C010000 		.4byte	.LVL345
 14528 12e3 B2010000 		.4byte	.LVL364
 14529 12e7 0200     		.2byte	0x2
 14530 12e9 30       		.byte	0x30
 14531 12ea 9F       		.byte	0x9f
 14532 12eb B2010000 		.4byte	.LVL364
 14533 12ef BC010000 		.4byte	.LVL365
 14534 12f3 0100     		.2byte	0x1
 14535 12f5 50       		.byte	0x50
 14536 12f6 C6010000 		.4byte	.LVL367
 14537 12fa F8020000 		.4byte	.LVL398
 14538 12fe 0200     		.2byte	0x2
 14539 1300 30       		.byte	0x30
 14540 1301 9F       		.byte	0x9f
 14541 1302 F8020000 		.4byte	.LVL398
 14542 1306 FA020000 		.4byte	.LVL399
 14543 130a 0100     		.2byte	0x1
 14544 130c 50       		.byte	0x50
 14545 130d FA020000 		.4byte	.LVL399
 14546 1311 98030000 		.4byte	.LVL415
 14547 1315 0200     		.2byte	0x2
 14548 1317 30       		.byte	0x30
 14549 1318 9F       		.byte	0x9f
 14550 1319 9A030000 		.4byte	.LVL416
 14551 131d A0040000 		.4byte	.LVL434
 14552 1321 0200     		.2byte	0x2
 14553 1323 30       		.byte	0x30
 14554 1324 9F       		.byte	0x9f
 14555 1325 A0040000 		.4byte	.LVL434
 14556 1329 AC040000 		.4byte	.LVL435
 14557 132d 0100     		.2byte	0x1
 14558 132f 50       		.byte	0x50
 14559 1330 B2040000 		.4byte	.LVL437
 14560 1334 C6040000 		.4byte	.LVL440
 14561 1338 0100     		.2byte	0x1
 14562 133a 50       		.byte	0x50
 14563 133b E4040000 		.4byte	.LVL442
ARM GAS  C:\Users\Helon\AppData\Local\Temp\ccTLkFeM.s 			page 316


 14564 133f 4C050000 		.4byte	.LVL457
 14565 1343 0200     		.2byte	0x2
 14566 1345 30       		.byte	0x30
 14567 1346 9F       		.byte	0x9f
 14568 1347 4C050000 		.4byte	.LVL457
 14569 134b 56050000 		.4byte	.LVL458
 14570 134f 0100     		.2byte	0x1
 14571 1351 50       		.byte	0x50
 14572 1352 56050000 		.4byte	.LVL458
 14573 1356 6E050000 		.4byte	.LVL462
 14574 135a 0200     		.2byte	0x2
 14575 135c 30       		.byte	0x30
 14576 135d 9F       		.byte	0x9f
 14577 135e 72050000 		.4byte	.LVL463
 14578 1362 C8050000 		.4byte	.LVL470
 14579 1366 0200     		.2byte	0x2
 14580 1368 30       		.byte	0x30
 14581 1369 9F       		.byte	0x9f
 14582 136a C8050000 		.4byte	.LVL470
 14583 136e CA050000 		.4byte	.LVL471
 14584 1372 0100     		.2byte	0x1
 14585 1374 50       		.byte	0x50
 14586 1375 CA050000 		.4byte	.LVL471
 14587 1379 DA050000 		.4byte	.LVL472
 14588 137d 0200     		.2byte	0x2
 14589 137f 30       		.byte	0x30
 14590 1380 9F       		.byte	0x9f
 14591 1381 DE050000 		.4byte	.LVL473
 14592 1385 0C060000 		.4byte	.LVL478
 14593 1389 0200     		.2byte	0x2
 14594 138b 30       		.byte	0x30
 14595 138c 9F       		.byte	0x9f
 14596 138d 0C060000 		.4byte	.LVL478
 14597 1391 12060000 		.4byte	.LVL479
 14598 1395 0100     		.2byte	0x1
 14599 1397 50       		.byte	0x50
 14600 1398 1E060000 		.4byte	.LVL481
 14601 139c 24060000 		.4byte	.LVL483
 14602 13a0 0200     		.2byte	0x2
 14603 13a2 30       		.byte	0x30
 14604 13a3 9F       		.byte	0x9f
 14605 13a4 24060000 		.4byte	.LVL483
 14606 13a8 2C060000 		.4byte	.LVL484
 14607 13ac 0100     		.2byte	0x1
 14608 13ae 50       		.byte	0x50
 14609 13af 34060000 		.4byte	.LVL486
 14610 13b3 3A060000 		.4byte	.LVL488
 14611 13b7 0200     		.2byte	0x2
 14612 13b9 30       		.byte	0x30
 14613 13ba 9F       		.byte	0x9f
 14614 13bb 3A060000 		.4byte	.LVL488
 14615 13bf 42060000 		.4byte	.LVL489
 14616 13c3 0100     		.2byte	0x1
 14617 13c5 50       		.byte	0x50
 14618 13c6 4A060000 		.4byte	.LVL491
 14619 13ca 50060000 		.4byte	.LVL493
 14620 13ce 0200     		.2byte	0x2
ARM GAS  C:\Users\Helon\AppData\Local\Temp\ccTLkFeM.s 			page 317


 14621 13d0 30       		.byte	0x30
 14622 13d1 9F       		.byte	0x9f
 14623 13d2 50060000 		.4byte	.LVL493
 14624 13d6 58060000 		.4byte	.LVL494
 14625 13da 0100     		.2byte	0x1
 14626 13dc 50       		.byte	0x50
 14627 13dd 60060000 		.4byte	.LVL496
 14628 13e1 66060000 		.4byte	.LVL498
 14629 13e5 0200     		.2byte	0x2
 14630 13e7 30       		.byte	0x30
 14631 13e8 9F       		.byte	0x9f
 14632 13e9 66060000 		.4byte	.LVL498
 14633 13ed 6E060000 		.4byte	.LVL499
 14634 13f1 0100     		.2byte	0x1
 14635 13f3 50       		.byte	0x50
 14636 13f4 7C060000 		.4byte	.LVL501
 14637 13f8 B6060000 		.4byte	.LVL507
 14638 13fc 0200     		.2byte	0x2
 14639 13fe 30       		.byte	0x30
 14640 13ff 9F       		.byte	0x9f
 14641 1400 BC060000 		.4byte	.LVL509
 14642 1404 D4060000 		.4byte	.LVL512
 14643 1408 0200     		.2byte	0x2
 14644 140a 30       		.byte	0x30
 14645 140b 9F       		.byte	0x9f
 14646 140c D4060000 		.4byte	.LVL512
 14647 1410 D6060000 		.4byte	.LVL513
 14648 1414 0100     		.2byte	0x1
 14649 1416 50       		.byte	0x50
 14650 1417 00000000 		.4byte	0
 14651 141b 00000000 		.4byte	0
 14652              	.LLST45:
 14653 141f 3E000000 		.4byte	.LVL320
 14654 1423 7A050000 		.4byte	.LVL464
 14655 1427 0200     		.2byte	0x2
 14656 1429 30       		.byte	0x30
 14657 142a 9F       		.byte	0x9f
 14658 142b 7C050000 		.4byte	.LVL465
 14659 142f AC050000 		.4byte	.LVL467
 14660 1433 0200     		.2byte	0x2
 14661 1435 73       		.byte	0x73
 14662 1436 00       		.sleb128 0
 14663 1437 AC050000 		.4byte	.LVL467
 14664 143b B6060000 		.4byte	.LVL507
 14665 143f 0200     		.2byte	0x2
 14666 1441 30       		.byte	0x30
 14667 1442 9F       		.byte	0x9f
 14668 1443 BC060000 		.4byte	.LVL509
 14669 1447 D6060000 		.4byte	.LVL513
 14670 144b 0200     		.2byte	0x2
 14671 144d 30       		.byte	0x30
 14672 144e 9F       		.byte	0x9f
 14673 144f 00000000 		.4byte	0
 14674 1453 00000000 		.4byte	0
 14675              	.LLST46:
 14676 1457 00000000 		.4byte	.LVL514
 14677 145b 09000000 		.4byte	.LVL515-1
ARM GAS  C:\Users\Helon\AppData\Local\Temp\ccTLkFeM.s 			page 318


 14678 145f 0100     		.2byte	0x1
 14679 1461 50       		.byte	0x50
 14680 1462 09000000 		.4byte	.LVL515-1
 14681 1466 0C000000 		.4byte	.LFE43
 14682 146a 0400     		.2byte	0x4
 14683 146c F3       		.byte	0xf3
 14684 146d 01       		.uleb128 0x1
 14685 146e 50       		.byte	0x50
 14686 146f 9F       		.byte	0x9f
 14687 1470 00000000 		.4byte	0
 14688 1474 00000000 		.4byte	0
 14689              	.LLST47:
 14690 1478 00000000 		.4byte	.LVL516
 14691 147c 21000000 		.4byte	.LVL519-1
 14692 1480 0100     		.2byte	0x1
 14693 1482 50       		.byte	0x50
 14694 1483 21000000 		.4byte	.LVL519-1
 14695 1487 54020000 		.4byte	.LFE48
 14696 148b 0400     		.2byte	0x4
 14697 148d F3       		.byte	0xf3
 14698 148e 01       		.uleb128 0x1
 14699 148f 50       		.byte	0x50
 14700 1490 9F       		.byte	0x9f
 14701 1491 00000000 		.4byte	0
 14702 1495 00000000 		.4byte	0
 14703              	.LLST48:
 14704 1499 0E000000 		.4byte	.LVL517
 14705 149d 0A010000 		.4byte	.LVL536
 14706 14a1 0200     		.2byte	0x2
 14707 14a3 30       		.byte	0x30
 14708 14a4 9F       		.byte	0x9f
 14709 14a5 10010000 		.4byte	.LVL538
 14710 14a9 76010000 		.4byte	.LVL548
 14711 14ad 0200     		.2byte	0x2
 14712 14af 30       		.byte	0x30
 14713 14b0 9F       		.byte	0x9f
 14714 14b1 7C010000 		.4byte	.LVL550
 14715 14b5 82010000 		.4byte	.LVL551
 14716 14b9 0100     		.2byte	0x1
 14717 14bb 53       		.byte	0x53
 14718 14bc 82010000 		.4byte	.LVL551
 14719 14c0 93010000 		.4byte	.LVL553-1
 14720 14c4 0300     		.2byte	0x3
 14721 14c6 73       		.byte	0x73
 14722 14c7 30       		.sleb128 48
 14723 14c8 9F       		.byte	0x9f
 14724 14c9 A0010000 		.4byte	.LVL555
 14725 14cd A5010000 		.4byte	.LVL556-1
 14726 14d1 0300     		.2byte	0x3
 14727 14d3 73       		.byte	0x73
 14728 14d4 30       		.sleb128 48
 14729 14d5 9F       		.byte	0x9f
 14730 14d6 D2010000 		.4byte	.LVL565
 14731 14da DC010000 		.4byte	.LVL568
 14732 14de 0200     		.2byte	0x2
 14733 14e0 30       		.byte	0x30
 14734 14e1 9F       		.byte	0x9f
ARM GAS  C:\Users\Helon\AppData\Local\Temp\ccTLkFeM.s 			page 319


 14735 14e2 DC010000 		.4byte	.LVL568
 14736 14e6 EC010000 		.4byte	.LVL570
 14737 14ea 0100     		.2byte	0x1
 14738 14ec 50       		.byte	0x50
 14739 14ed EC010000 		.4byte	.LVL570
 14740 14f1 EF010000 		.4byte	.LVL571-1
 14741 14f5 0500     		.2byte	0x5
 14742 14f7 75       		.byte	0x75
 14743 14f8 00       		.sleb128 0
 14744 14f9 73       		.byte	0x73
 14745 14fa 00       		.sleb128 0
 14746 14fb 22       		.byte	0x22
 14747 14fc 00000000 		.4byte	0
 14748 1500 00000000 		.4byte	0
 14749              	.LLST49:
 14750 1504 0E000000 		.4byte	.LVL517
 14751 1508 0A010000 		.4byte	.LVL536
 14752 150c 0200     		.2byte	0x2
 14753 150e 30       		.byte	0x30
 14754 150f 9F       		.byte	0x9f
 14755 1510 10010000 		.4byte	.LVL538
 14756 1514 76010000 		.4byte	.LVL548
 14757 1518 0200     		.2byte	0x2
 14758 151a 30       		.byte	0x30
 14759 151b 9F       		.byte	0x9f
 14760 151c 8E010000 		.4byte	.LVL552
 14761 1520 A0010000 		.4byte	.LVL555
 14762 1524 0100     		.2byte	0x1
 14763 1526 54       		.byte	0x54
 14764 1527 D2010000 		.4byte	.LVL565
 14765 152b FC010000 		.4byte	.LVL572
 14766 152f 0200     		.2byte	0x2
 14767 1531 30       		.byte	0x30
 14768 1532 9F       		.byte	0x9f
 14769 1533 00000000 		.4byte	0
 14770 1537 00000000 		.4byte	0
 14771              	.LLST50:
 14772 153b 72010000 		.4byte	.LVL547
 14773 153f 76010000 		.4byte	.LVL548
 14774 1543 0600     		.2byte	0x6
 14775 1545 0C       		.byte	0xc
 14776 1546 A0860100 		.4byte	0x186a0
 14777 154a 9F       		.byte	0x9f
 14778 154b 9A010000 		.4byte	.LVL554
 14779 154f A0010000 		.4byte	.LVL555
 14780 1553 0100     		.2byte	0x1
 14781 1555 50       		.byte	0x50
 14782 1556 00000000 		.4byte	0
 14783 155a 00000000 		.4byte	0
 14784              	.LLST51:
 14785 155e 90000000 		.4byte	.LVL524
 14786 1562 92000000 		.4byte	.LVL525
 14787 1566 0200     		.2byte	0x2
 14788 1568 30       		.byte	0x30
 14789 1569 9F       		.byte	0x9f
 14790 156a 92000000 		.4byte	.LVL525
 14791 156e A0000000 		.4byte	.LVL527
ARM GAS  C:\Users\Helon\AppData\Local\Temp\ccTLkFeM.s 			page 320


 14792 1572 0100     		.2byte	0x1
 14793 1574 54       		.byte	0x54
 14794 1575 A2000000 		.4byte	.LVL528
 14795 1579 0A010000 		.4byte	.LVL536
 14796 157d 0100     		.2byte	0x1
 14797 157f 54       		.byte	0x54
 14798 1580 10010000 		.4byte	.LVL538
 14799 1584 28010000 		.4byte	.LVL539
 14800 1588 0100     		.2byte	0x1
 14801 158a 54       		.byte	0x54
 14802 158b 4E010000 		.4byte	.LVL543
 14803 158f 66010000 		.4byte	.LVL545
 14804 1593 0100     		.2byte	0x1
 14805 1595 54       		.byte	0x54
 14806 1596 72010000 		.4byte	.LVL547
 14807 159a 76010000 		.4byte	.LVL548
 14808 159e 0200     		.2byte	0x2
 14809 15a0 30       		.byte	0x30
 14810 15a1 9F       		.byte	0x9f
 14811 15a2 00000000 		.4byte	0
 14812 15a6 00000000 		.4byte	0
 14813              	.LLST52:
 14814 15aa 0E000000 		.4byte	.LVL517
 14815 15ae 21000000 		.4byte	.LVL519-1
 14816 15b2 0E00     		.2byte	0xe
 14817 15b4 03       		.byte	0x3
 14818 15b5 00000000 		.4byte	negotiatedMtu
 14819 15b9 94       		.byte	0x94
 14820 15ba 02       		.byte	0x2
 14821 15bb 0A       		.byte	0xa
 14822 15bc FFFF     		.2byte	0xffff
 14823 15be 1A       		.byte	0x1a
 14824 15bf 34       		.byte	0x34
 14825 15c0 1C       		.byte	0x1c
 14826 15c1 9F       		.byte	0x9f
 14827 15c2 00000000 		.4byte	0
 14828 15c6 00000000 		.4byte	0
 14829              	.LLST53:
 14830 15ca 1E000000 		.4byte	.LVL518
 14831 15ce 21000000 		.4byte	.LVL519-1
 14832 15d2 0200     		.2byte	0x2
 14833 15d4 73       		.byte	0x73
 14834 15d5 00       		.sleb128 0
 14835 15d6 21000000 		.4byte	.LVL519-1
 14836 15da 00020000 		.4byte	.LVL573
 14837 15de 0200     		.2byte	0x2
 14838 15e0 7D       		.byte	0x7d
 14839 15e1 00       		.sleb128 0
 14840 15e2 00020000 		.4byte	.LVL573
 14841 15e6 04020000 		.4byte	.LVL574
 14842 15ea 0300     		.2byte	0x3
 14843 15ec 77       		.byte	0x77
 14844 15ed 3C       		.sleb128 60
 14845 15ee 06       		.byte	0x6
 14846 15ef 04020000 		.4byte	.LVL574
 14847 15f3 54020000 		.4byte	.LFE48
 14848 15f7 0300     		.2byte	0x3
ARM GAS  C:\Users\Helon\AppData\Local\Temp\ccTLkFeM.s 			page 321


 14849 15f9 91       		.byte	0x91
 14850 15fa 7C       		.sleb128 -4
 14851 15fb 06       		.byte	0x6
 14852 15fc 00000000 		.4byte	0
 14853 1600 00000000 		.4byte	0
 14854              	.LLST54:
 14855 1604 1E000000 		.4byte	.LVL518
 14856 1608 D0000000 		.4byte	.LVL530
 14857 160c 0200     		.2byte	0x2
 14858 160e 30       		.byte	0x30
 14859 160f 9F       		.byte	0x9f
 14860 1610 D0000000 		.4byte	.LVL530
 14861 1614 D6000000 		.4byte	.LVL531
 14862 1618 0100     		.2byte	0x1
 14863 161a 50       		.byte	0x50
 14864 161b EC000000 		.4byte	.LVL533
 14865 161f 0A010000 		.4byte	.LVL536
 14866 1623 0200     		.2byte	0x2
 14867 1625 30       		.byte	0x30
 14868 1626 9F       		.byte	0x9f
 14869 1627 10010000 		.4byte	.LVL538
 14870 162b 28010000 		.4byte	.LVL539
 14871 162f 0200     		.2byte	0x2
 14872 1631 30       		.byte	0x30
 14873 1632 9F       		.byte	0x9f
 14874 1633 3C010000 		.4byte	.LVL541
 14875 1637 4E010000 		.4byte	.LVL543
 14876 163b 0100     		.2byte	0x1
 14877 163d 54       		.byte	0x54
 14878 163e 4E010000 		.4byte	.LVL543
 14879 1642 B2010000 		.4byte	.LVL557
 14880 1646 0200     		.2byte	0x2
 14881 1648 30       		.byte	0x30
 14882 1649 9F       		.byte	0x9f
 14883 164a B2010000 		.4byte	.LVL557
 14884 164e B8010000 		.4byte	.LVL558
 14885 1652 0100     		.2byte	0x1
 14886 1654 50       		.byte	0x50
 14887 1655 BA010000 		.4byte	.LVL559
 14888 1659 C0010000 		.4byte	.LVL560
 14889 165d 0100     		.2byte	0x1
 14890 165f 50       		.byte	0x50
 14891 1660 C2010000 		.4byte	.LVL561
 14892 1664 C8010000 		.4byte	.LVL562
 14893 1668 0100     		.2byte	0x1
 14894 166a 50       		.byte	0x50
 14895 166b CA010000 		.4byte	.LVL563
 14896 166f D0010000 		.4byte	.LVL564
 14897 1673 0100     		.2byte	0x1
 14898 1675 50       		.byte	0x50
 14899 1676 D2010000 		.4byte	.LVL565
 14900 167a FC010000 		.4byte	.LVL572
 14901 167e 0200     		.2byte	0x2
 14902 1680 30       		.byte	0x30
 14903 1681 9F       		.byte	0x9f
 14904 1682 00000000 		.4byte	0
 14905 1686 00000000 		.4byte	0
ARM GAS  C:\Users\Helon\AppData\Local\Temp\ccTLkFeM.s 			page 322


 14906              	.LLST55:
 14907 168a 26000000 		.4byte	.LVL520
 14908 168e 0A010000 		.4byte	.LVL536
 14909 1692 0100     		.2byte	0x1
 14910 1694 55       		.byte	0x55
 14911 1695 10010000 		.4byte	.LVL538
 14912 1699 70010000 		.4byte	.LVL546
 14913 169d 0100     		.2byte	0x1
 14914 169f 55       		.byte	0x55
 14915 16a0 70010000 		.4byte	.LVL546
 14916 16a4 D2010000 		.4byte	.LVL565
 14917 16a8 0200     		.2byte	0x2
 14918 16aa 77       		.byte	0x77
 14919 16ab 30       		.sleb128 48
 14920 16ac D2010000 		.4byte	.LVL565
 14921 16b0 D8010000 		.4byte	.LVL567
 14922 16b4 0100     		.2byte	0x1
 14923 16b6 55       		.byte	0x55
 14924 16b7 D8010000 		.4byte	.LVL567
 14925 16bb FC010000 		.4byte	.LVL572
 14926 16bf 0200     		.2byte	0x2
 14927 16c1 77       		.byte	0x77
 14928 16c2 30       		.sleb128 48
 14929 16c3 00000000 		.4byte	0
 14930 16c7 00000000 		.4byte	0
 14931              	.LLST56:
 14932 16cb EA010000 		.4byte	.LVL569
 14933 16cf FC010000 		.4byte	.LVL572
 14934 16d3 0600     		.2byte	0x6
 14935 16d5 03       		.byte	0x3
 14936 16d6 00000000 		.4byte	RX_BUFFER
 14937 16da 9F       		.byte	0x9f
 14938 16db 00000000 		.4byte	0
 14939 16df 00000000 		.4byte	0
 14940              	.LLST57:
 14941 16e3 00000000 		.4byte	.LVL575
 14942 16e7 08000000 		.4byte	.LVL576
 14943 16eb 0100     		.2byte	0x1
 14944 16ed 50       		.byte	0x50
 14945 16ee 08000000 		.4byte	.LVL576
 14946 16f2 1C000000 		.4byte	.LFE53
 14947 16f6 0400     		.2byte	0x4
 14948 16f8 F3       		.byte	0xf3
 14949 16f9 01       		.uleb128 0x1
 14950 16fa 50       		.byte	0x50
 14951 16fb 9F       		.byte	0x9f
 14952 16fc 00000000 		.4byte	0
 14953 1700 00000000 		.4byte	0
 14954              	.LLST58:
 14955 1704 00000000 		.4byte	.LVL575
 14956 1708 08000000 		.4byte	.LVL576
 14957 170c 0100     		.2byte	0x1
 14958 170e 51       		.byte	0x51
 14959 170f 08000000 		.4byte	.LVL576
 14960 1713 0E000000 		.4byte	.LVL577
 14961 1717 0100     		.2byte	0x1
 14962 1719 54       		.byte	0x54
ARM GAS  C:\Users\Helon\AppData\Local\Temp\ccTLkFeM.s 			page 323


 14963 171a 0E000000 		.4byte	.LVL577
 14964 171e 16000000 		.4byte	.LVL579
 14965 1722 0300     		.2byte	0x3
 14966 1724 74       		.byte	0x74
 14967 1725 01       		.sleb128 1
 14968 1726 9F       		.byte	0x9f
 14969 1727 16000000 		.4byte	.LVL579
 14970 172b 1A000000 		.4byte	.LVL580
 14971 172f 0100     		.2byte	0x1
 14972 1731 54       		.byte	0x54
 14973 1732 00000000 		.4byte	0
 14974 1736 00000000 		.4byte	0
 14975              	.LLST59:
 14976 173a 00000000 		.4byte	.LVL575
 14977 173e 08000000 		.4byte	.LVL576
 14978 1742 0100     		.2byte	0x1
 14979 1744 52       		.byte	0x52
 14980 1745 08000000 		.4byte	.LVL576
 14981 1749 1A000000 		.4byte	.LVL581
 14982 174d 0100     		.2byte	0x1
 14983 174f 55       		.byte	0x55
 14984 1750 1A000000 		.4byte	.LVL581
 14985 1754 1C000000 		.4byte	.LFE53
 14986 1758 0100     		.2byte	0x1
 14987 175a 50       		.byte	0x50
 14988 175b 00000000 		.4byte	0
 14989 175f 00000000 		.4byte	0
 14990              	.LLST60:
 14991 1763 00000000 		.4byte	.LVL575
 14992 1767 08000000 		.4byte	.LVL576
 14993 176b 0200     		.2byte	0x2
 14994 176d 30       		.byte	0x30
 14995 176e 9F       		.byte	0x9f
 14996 176f 08000000 		.4byte	.LVL576
 14997 1773 14000000 		.4byte	.LVL578
 14998 1777 0600     		.2byte	0x6
 14999 1779 74       		.byte	0x74
 15000 177a 00       		.sleb128 0
 15001 177b 76       		.byte	0x76
 15002 177c 00       		.sleb128 0
 15003 177d 1C       		.byte	0x1c
 15004 177e 9F       		.byte	0x9f
 15005 177f 14000000 		.4byte	.LVL578
 15006 1783 16000000 		.4byte	.LVL579
 15007 1787 0800     		.2byte	0x8
 15008 1789 74       		.byte	0x74
 15009 178a 00       		.sleb128 0
 15010 178b 76       		.byte	0x76
 15011 178c 00       		.sleb128 0
 15012 178d 1C       		.byte	0x1c
 15013 178e 23       		.byte	0x23
 15014 178f 01       		.uleb128 0x1
 15015 1790 9F       		.byte	0x9f
 15016 1791 16000000 		.4byte	.LVL579
 15017 1795 1A000000 		.4byte	.LVL580
 15018 1799 0600     		.2byte	0x6
 15019 179b 74       		.byte	0x74
ARM GAS  C:\Users\Helon\AppData\Local\Temp\ccTLkFeM.s 			page 324


 15020 179c 00       		.sleb128 0
 15021 179d 76       		.byte	0x76
 15022 179e 00       		.sleb128 0
 15023 179f 1C       		.byte	0x1c
 15024 17a0 9F       		.byte	0x9f
 15025 17a1 00000000 		.4byte	0
 15026 17a5 00000000 		.4byte	0
 15027              		.section	.debug_aranges,"",%progbits
 15028 0000 B4000000 		.4byte	0xb4
 15029 0004 0200     		.2byte	0x2
 15030 0006 00000000 		.4byte	.Ldebug_info0
 15031 000a 04       		.byte	0x4
 15032 000b 00       		.byte	0
 15033 000c 0000     		.2byte	0
 15034 000e 0000     		.2byte	0
 15035 0010 00000000 		.4byte	.LFB35
 15036 0014 C4020000 		.4byte	.LFE35-.LFB35
 15037 0018 00000000 		.4byte	.LFB45
 15038 001c 38000000 		.4byte	.LFE45-.LFB45
 15039 0020 00000000 		.4byte	.LFB36
 15040 0024 78000000 		.4byte	.LFE36-.LFB36
 15041 0028 00000000 		.4byte	.LFB37
 15042 002c 02000000 		.4byte	.LFE37-.LFB37
 15043 0030 00000000 		.4byte	.LFB38
 15044 0034 24000000 		.4byte	.LFE38-.LFB38
 15045 0038 00000000 		.4byte	.LFB40
 15046 003c 02000000 		.4byte	.LFE40-.LFB40
 15047 0040 00000000 		.4byte	.LFB41
 15048 0044 02000000 		.4byte	.LFE41-.LFB41
 15049 0048 00000000 		.4byte	.LFB42
 15050 004c 1C000000 		.4byte	.LFE42-.LFB42
 15051 0050 00000000 		.4byte	.LFB39
 15052 0054 48000000 		.4byte	.LFE39-.LFB39
 15053 0058 00000000 		.4byte	.LFB44
 15054 005c 64000000 		.4byte	.LFE44-.LFB44
 15055 0060 00000000 		.4byte	.LFB46
 15056 0064 34000000 		.4byte	.LFE46-.LFB46
 15057 0068 00000000 		.4byte	.LFB47
 15058 006c 38000000 		.4byte	.LFE47-.LFB47
 15059 0070 00000000 		.4byte	.LFB49
 15060 0074 44010000 		.4byte	.LFE49-.LFB49
 15061 0078 00000000 		.4byte	.LFB50
 15062 007c 78030000 		.4byte	.LFE50-.LFB50
 15063 0080 00000000 		.4byte	.LFB51
 15064 0084 D8000000 		.4byte	.LFE51-.LFB51
 15065 0088 00000000 		.4byte	.LFB52
 15066 008c 68000000 		.4byte	.LFE52-.LFB52
 15067 0090 00000000 		.4byte	.LFB57
 15068 0094 50070000 		.4byte	.LFE57-.LFB57
 15069 0098 00000000 		.4byte	.LFB43
 15070 009c 0C000000 		.4byte	.LFE43-.LFB43
 15071 00a0 00000000 		.4byte	.LFB48
 15072 00a4 54020000 		.4byte	.LFE48-.LFB48
 15073 00a8 00000000 		.4byte	.LFB53
 15074 00ac 1C000000 		.4byte	.LFE53-.LFB53
 15075 00b0 00000000 		.4byte	0
 15076 00b4 00000000 		.4byte	0
ARM GAS  C:\Users\Helon\AppData\Local\Temp\ccTLkFeM.s 			page 325


 15077              		.section	.debug_ranges,"",%progbits
 15078              	.Ldebug_ranges0:
 15079 0000 0E000000 		.4byte	.LBB36
 15080 0004 10000000 		.4byte	.LBE36
 15081 0008 12000000 		.4byte	.LBB37
 15082 000c 14000000 		.4byte	.LBE37
 15083 0010 16000000 		.4byte	.LBB38
 15084 0014 28000000 		.4byte	.LBE38
 15085 0018 00000000 		.4byte	0
 15086 001c 00000000 		.4byte	0
 15087 0020 00000000 		.4byte	.LFB35
 15088 0024 C4020000 		.4byte	.LFE35
 15089 0028 00000000 		.4byte	.LFB45
 15090 002c 38000000 		.4byte	.LFE45
 15091 0030 00000000 		.4byte	.LFB36
 15092 0034 78000000 		.4byte	.LFE36
 15093 0038 00000000 		.4byte	.LFB37
 15094 003c 02000000 		.4byte	.LFE37
 15095 0040 00000000 		.4byte	.LFB38
 15096 0044 24000000 		.4byte	.LFE38
 15097 0048 00000000 		.4byte	.LFB40
 15098 004c 02000000 		.4byte	.LFE40
 15099 0050 00000000 		.4byte	.LFB41
 15100 0054 02000000 		.4byte	.LFE41
 15101 0058 00000000 		.4byte	.LFB42
 15102 005c 1C000000 		.4byte	.LFE42
 15103 0060 00000000 		.4byte	.LFB39
 15104 0064 48000000 		.4byte	.LFE39
 15105 0068 00000000 		.4byte	.LFB44
 15106 006c 64000000 		.4byte	.LFE44
 15107 0070 00000000 		.4byte	.LFB46
 15108 0074 34000000 		.4byte	.LFE46
 15109 0078 00000000 		.4byte	.LFB47
 15110 007c 38000000 		.4byte	.LFE47
 15111 0080 00000000 		.4byte	.LFB49
 15112 0084 44010000 		.4byte	.LFE49
 15113 0088 00000000 		.4byte	.LFB50
 15114 008c 78030000 		.4byte	.LFE50
 15115 0090 00000000 		.4byte	.LFB51
 15116 0094 D8000000 		.4byte	.LFE51
 15117 0098 00000000 		.4byte	.LFB52
 15118 009c 68000000 		.4byte	.LFE52
 15119 00a0 00000000 		.4byte	.LFB57
 15120 00a4 50070000 		.4byte	.LFE57
 15121 00a8 00000000 		.4byte	.LFB43
 15122 00ac 0C000000 		.4byte	.LFE43
 15123 00b0 00000000 		.4byte	.LFB48
 15124 00b4 54020000 		.4byte	.LFE48
 15125 00b8 00000000 		.4byte	.LFB53
 15126 00bc 1C000000 		.4byte	.LFE53
 15127 00c0 00000000 		.4byte	0
 15128 00c4 00000000 		.4byte	0
 15129              		.section	.debug_line,"",%progbits
 15130              	.Ldebug_line0:
 15131 0000 A0090000 		.section	.debug_str,"MS",%progbits,1
 15131      02009803 
 15131      00000201 
ARM GAS  C:\Users\Helon\AppData\Local\Temp\ccTLkFeM.s 			page 326


 15131      FB0E0D00 
 15131      01010101 
 15132              	.LASF533:
 15133 0000 74784275 		.ascii	"txBuffer\000"
 15133      66666572 
 15133      00
 15134              	.LASF556:
 15135 0009 41445644 		.ascii	"ADVD\000"
 15135      00
 15136              	.LASF720:
 15137 000e 4379426C 		.ascii	"CyBle_GapcConnectDevice\000"
 15137      655F4761 
 15137      7063436F 
 15137      6E6E6563 
 15137      74446576 
 15138              	.LASF15:
 15139 0026 696E7438 		.ascii	"int8_t\000"
 15139      5F7400
 15140              	.LASF543:
 15141 002d 656E6162 		.ascii	"enableByteMode\000"
 15141      6C654279 
 15141      74654D6F 
 15141      646500
 15142              	.LASF413:
 15143 003c 4359424C 		.ascii	"CYBLE_EVT_HTSS_NOTIFICATION_DISABLED\000"
 15143      455F4556 
 15143      545F4854 
 15143      53535F4E 
 15143      4F544946 
 15144              	.LASF166:
 15145 0061 4359424C 		.ascii	"CYBLE_GAPC_SCAN_RSP\000"
 15145      455F4741 
 15145      50435F53 
 15145      43414E5F 
 15145      52535000 
 15146              	.LASF205:
 15147 0075 7363616E 		.ascii	"scanRspData\000"
 15147      52737044 
 15147      61746100 
 15148              	.LASF29:
 15149 0081 73697A65 		.ascii	"size_t\000"
 15149      5F7400
 15150              	.LASF30:
 15151 0088 73697A65 		.ascii	"sizetype\000"
 15151      74797065 
 15151      00
 15152              	.LASF301:
 15153 0091 4359424C 		.ascii	"CYBLE_EVT_BCSC_READ_CHAR_RESPONSE\000"
 15153      455F4556 
 15153      545F4243 
 15153      53435F52 
 15153      4541445F 
 15154              	.LASF241:
 15155 00b3 4359424C 		.ascii	"CYBLE_GATTS_HANDLE_VALUE_NTF_T\000"
 15155      455F4741 
 15155      5454535F 
 15155      48414E44 
ARM GAS  C:\Users\Helon\AppData\Local\Temp\ccTLkFeM.s 			page 327


 15155      4C455F56 
 15156              	.LASF569:
 15157 00d2 41445653 		.ascii	"ADVS\000"
 15157      00
 15158              	.LASF324:
 15159 00d7 4359424C 		.ascii	"CYBLE_EVT_CGMSC_INDICATION\000"
 15159      455F4556 
 15159      545F4347 
 15159      4D53435F 
 15159      494E4449 
 15160              	.LASF342:
 15161 00f2 4359424C 		.ascii	"CYBLE_EVT_CPSC_READ_DESCR_RESPONSE\000"
 15161      455F4556 
 15161      545F4350 
 15161      53435F52 
 15161      4541445F 
 15162              	.LASF190:
 15163 0115 656B6579 		.ascii	"ekeySize\000"
 15163      53697A65 
 15163      00
 15164              	.LASF461:
 15165 011e 4359424C 		.ascii	"CYBLE_EVT_RTUSS_WRITE_CHAR_CMD\000"
 15165      455F4556 
 15165      545F5254 
 15165      5553535F 
 15165      57524954 
 15166              	.LASF709:
 15167 013d 54696D65 		.ascii	"TimerInterrupt_StartEx\000"
 15167      72496E74 
 15167      65727275 
 15167      70745F53 
 15167      74617274 
 15168              	.LASF495:
 15169 0154 4359424C 		.ascii	"CYBLE_EVT_WPTSC_NOTIFICATION\000"
 15169      455F4556 
 15169      545F5750 
 15169      5453435F 
 15169      4E4F5449 
 15170              	.LASF604:
 15171 0171 72616E67 		.ascii	"range\000"
 15171      6500
 15172              	.LASF501:
 15173 0177 4359424C 		.ascii	"CYBLE_EVT_WSSS_INDICATION_ENABLED\000"
 15173      455F4556 
 15173      545F5753 
 15173      53535F49 
 15173      4E444943 
 15174              	.LASF340:
 15175 0199 4359424C 		.ascii	"CYBLE_EVT_CPSC_READ_CHAR_RESPONSE\000"
 15175      455F4556 
 15175      545F4350 
 15175      53435F52 
 15175      4541445F 
 15176              	.LASF306:
 15177 01bb 4359424C 		.ascii	"CYBLE_EVT_BLSS_INDICATION_CONFIRMED\000"
 15177      455F4556 
 15177      545F424C 
ARM GAS  C:\Users\Helon\AppData\Local\Temp\ccTLkFeM.s 			page 328


 15177      53535F49 
 15177      4E444943 
 15178              	.LASF594:
 15179 01df 4164764D 		.ascii	"AdvMax\000"
 15179      617800
 15180              	.LASF749:
 15181 01e6 5F777269 		.ascii	"_write\000"
 15181      746500
 15182              	.LASF353:
 15183 01ed 4359424C 		.ascii	"CYBLE_EVT_CSCSC_READ_CHAR_RESPONSE\000"
 15183      455F4556 
 15183      545F4353 
 15183      4353435F 
 15183      52454144 
 15184              	.LASF613:
 15185 0210 4C6F7750 		.ascii	"LowPowerManagement\000"
 15185      6F776572 
 15185      4D616E61 
 15185      67656D65 
 15185      6E7400
 15186              	.LASF644:
 15187 0223 6379426C 		.ascii	"cyBle_authInfo\000"
 15187      655F6175 
 15187      7468496E 
 15187      666F00
 15188              	.LASF329:
 15189 0232 4359424C 		.ascii	"CYBLE_EVT_CGMSC_WRITE_DESCR_RESPONSE\000"
 15189      455F4556 
 15189      545F4347 
 15189      4D53435F 
 15189      57524954 
 15190              	.LASF384:
 15191 0257 4359424C 		.ascii	"CYBLE_EVT_GLSS_NOTIFICATION_DISABLED\000"
 15191      455F4556 
 15191      545F474C 
 15191      53535F4E 
 15191      4F544946 
 15192              	.LASF607:
 15193 027c 6576656E 		.ascii	"eventParam\000"
 15193      74506172 
 15193      616D00
 15194              	.LASF311:
 15195 0287 4359424C 		.ascii	"CYBLE_EVT_BLSC_READ_CHAR_RESPONSE\000"
 15195      455F4556 
 15195      545F424C 
 15195      53435F52 
 15195      4541445F 
 15196              	.LASF44:
 15197 02a9 4359424C 		.ascii	"CYBLE_EVT_GAP_DEVICE_CONNECTED\000"
 15197      455F4556 
 15197      545F4741 
 15197      505F4445 
 15197      56494345 
 15198              	.LASF171:
 15199 02c8 4359424C 		.ascii	"CYBLE_GAP_IOCAP_NOINPUT_NOOUTPUT\000"
 15199      455F4741 
 15199      505F494F 
ARM GAS  C:\Users\Helon\AppData\Local\Temp\ccTLkFeM.s 			page 329


 15199      4341505F 
 15199      4E4F494E 
 15200              	.LASF724:
 15201 02e9 4379536F 		.ascii	"CySoftwareReset\000"
 15201      66747761 
 15201      72655265 
 15201      73657400 
 15202              	.LASF51:
 15203 02f9 4359424C 		.ascii	"CYBLE_EVT_GATT_CONNECT_IND\000"
 15203      455F4556 
 15203      545F4741 
 15203      54545F43 
 15203      4F4E4E45 
 15204              	.LASF389:
 15205 0314 4359424C 		.ascii	"CYBLE_EVT_GLSC_WRITE_CHAR_RESPONSE\000"
 15205      455F4556 
 15205      545F474C 
 15205      53435F57 
 15205      52495445 
 15206              	.LASF126:
 15207 0337 4359424C 		.ascii	"CYBLE_BLESS_STATE_ECO_ON\000"
 15207      455F424C 
 15207      4553535F 
 15207      53544154 
 15207      455F4543 
 15208              	.LASF22:
 15209 0350 75696E74 		.ascii	"uint32\000"
 15209      333200
 15210              	.LASF693:
 15211 0357 4379426C 		.ascii	"CyBle_GetBleSsState\000"
 15211      655F4765 
 15211      74426C65 
 15211      53735374 
 15211      61746500 
 15212              	.LASF737:
 15213 036b 4379426C 		.ascii	"CyBle_GapSetIoCap\000"
 15213      655F4761 
 15213      70536574 
 15213      496F4361 
 15213      7000
 15214              	.LASF597:
 15215 037d 53747241 		.ascii	"StrAdvData\000"
 15215      64764461 
 15215      746100
 15216              	.LASF173:
 15217 0388 4359424C 		.ascii	"CYBLE_GAP_IOCAP_T\000"
 15217      455F4741 
 15217      505F494F 
 15217      4341505F 
 15217      5400
 15218              	.LASF129:
 15219 039a 4359424C 		.ascii	"CYBLE_BLESS_STATE_HIBERNATE\000"
 15219      455F424C 
 15219      4553535F 
 15219      53544154 
 15219      455F4849 
 15220              	.LASF701:
ARM GAS  C:\Users\Helon\AppData\Local\Temp\ccTLkFeM.s 			page 330


 15221 03b6 55415254 		.ascii	"UART_rx_wake_ClearInterrupt\000"
 15221      5F72785F 
 15221      77616B65 
 15221      5F436C65 
 15221      6172496E 
 15222              	.LASF460:
 15223 03d2 4359424C 		.ascii	"CYBLE_EVT_RSCSC_WRITE_DESCR_RESPONSE\000"
 15223      455F4556 
 15223      545F5253 
 15223      4353435F 
 15223      57524954 
 15224              	.LASF299:
 15225 03f7 4359424C 		.ascii	"CYBLE_EVT_BCSS_INDICATION_CONFIRMED\000"
 15225      455F4556 
 15225      545F4243 
 15225      53535F49 
 15225      4E444943 
 15226              	.LASF300:
 15227 041b 4359424C 		.ascii	"CYBLE_EVT_BCSC_INDICATION\000"
 15227      455F4556 
 15227      545F4243 
 15227      53435F49 
 15227      4E444943 
 15228              	.LASF146:
 15229 0435 626C6550 		.ascii	"blePwrLevelInDbm\000"
 15229      77724C65 
 15229      76656C49 
 15229      6E44626D 
 15229      00
 15230              	.LASF429:
 15231 0446 4359424C 		.ascii	"CYBLE_EVT_LNSS_INDICATION_DISABLED\000"
 15231      455F4556 
 15231      545F4C4E 
 15231      53535F49 
 15231      4E444943 
 15232              	.LASF361:
 15233 0469 4359424C 		.ascii	"CYBLE_EVT_CTSC_READ_CHAR_RESPONSE\000"
 15233      455F4556 
 15233      545F4354 
 15233      53435F52 
 15233      4541445F 
 15234              	.LASF270:
 15235 048b 4359424C 		.ascii	"CYBLE_EVT_GATTC_SRVC_DISCOVERY_COMPLETE\000"
 15235      455F4556 
 15235      545F4741 
 15235      5454435F 
 15235      53525643 
 15236              	.LASF266:
 15237 04b3 4359424C 		.ascii	"CYBLE_EVT_GATTC_DESCR_DISCOVERY_FAILED\000"
 15237      455F4556 
 15237      545F4741 
 15237      5454435F 
 15237      44455343 
 15238              	.LASF454:
 15239 04da 4359424C 		.ascii	"CYBLE_EVT_RSCSS_CHAR_WRITE\000"
 15239      455F4556 
 15239      545F5253 
ARM GAS  C:\Users\Helon\AppData\Local\Temp\ccTLkFeM.s 			page 331


 15239      4353535F 
 15239      43484152 
 15240              	.LASF487:
 15241 04f5 4359424C 		.ascii	"CYBLE_EVT_UDSC_WRITE_DESCR_RESPONSE\000"
 15241      455F4556 
 15241      545F5544 
 15241      53435F57 
 15241      52495445 
 15242              	.LASF208:
 15243 0519 64697363 		.ascii	"discMode\000"
 15243      4D6F6465 
 15243      00
 15244              	.LASF469:
 15245 0522 4359424C 		.ascii	"CYBLE_EVT_TPSS_NOTIFICATION_ENABLED\000"
 15245      455F4556 
 15245      545F5450 
 15245      53535F4E 
 15245      4F544946 
 15246              	.LASF289:
 15247 0546 4359424C 		.ascii	"CYBLE_EVT_ANSC_READ_DESCR_RESPONSE\000"
 15247      455F4556 
 15247      545F414E 
 15247      53435F52 
 15247      4541445F 
 15248              	.LASF668:
 15249 0569 4B455942 		.ascii	"KEYBOARD\000"
 15249      4F415244 
 15249      00
 15250              	.LASF568:
 15251 0572 53544155 		.ascii	"STAUS\000"
 15251      5300
 15252              	.LASF297:
 15253 0578 4359424C 		.ascii	"CYBLE_EVT_BCSS_INDICATION_ENABLED\000"
 15253      455F4556 
 15253      545F4243 
 15253      53535F49 
 15253      4E444943 
 15254              	.LASF104:
 15255 059a 4359424C 		.ascii	"CYBLE_ERROR_L2CAP_CONNECTION_ENTITY_NOT_FOUND\000"
 15255      455F4552 
 15255      524F525F 
 15255      4C324341 
 15255      505F434F 
 15256              	.LASF110:
 15257 05c8 4359424C 		.ascii	"CYBLE_ERROR_MIC_AUTH_FAILED\000"
 15257      455F4552 
 15257      524F525F 
 15257      4D49435F 
 15257      41555448 
 15258              	.LASF513:
 15259 05e4 4359424C 		.ascii	"CYBLE_STATE_SCANNING\000"
 15259      455F5354 
 15259      4154455F 
 15259      5343414E 
 15259      4E494E47 
 15260              	.LASF265:
 15261 05f9 4359424C 		.ascii	"CYBLE_EVT_GATTC_CHAR_DISCOVERY_FAILED\000"
ARM GAS  C:\Users\Helon\AppData\Local\Temp\ccTLkFeM.s 			page 332


 15261      455F4556 
 15261      545F4741 
 15261      5454435F 
 15261      43484152 
 15262              	.LASF587:
 15263 061f 53657269 		.ascii	"SerialData\000"
 15263      616C4461 
 15263      746100
 15264              	.LASF579:
 15265 062a 5363616E 		.ascii	"ScanName\000"
 15265      4E616D65 
 15265      00
 15266              	.LASF530:
 15267 0633 72784275 		.ascii	"rxBufferSize\000"
 15267      66666572 
 15267      53697A65 
 15267      00
 15268              	.LASF751:
 15269 0640 70757473 		.ascii	"puts\000"
 15269      00
 15270              	.LASF25:
 15271 0645 63686172 		.ascii	"char8\000"
 15271      3800
 15272              	.LASF82:
 15273 064b 4359424C 		.ascii	"CYBLE_EVT_L2CAP_CBFC_RX_CREDIT_IND\000"
 15273      455F4556 
 15273      545F4C32 
 15273      4341505F 
 15273      43424643 
 15274              	.LASF518:
 15275 066e 64697265 		.ascii	"direction\000"
 15275      6374696F 
 15275      6E00
 15276              	.LASF232:
 15277 0678 4359424C 		.ascii	"CYBLE_GATT_VALUE_T\000"
 15277      455F4741 
 15277      54545F56 
 15277      414C5545 
 15277      5F5400
 15278              	.LASF347:
 15279 068b 4359424C 		.ascii	"CYBLE_EVT_CSCSS_INDICATION_ENABLED\000"
 15279      455F4556 
 15279      545F4353 
 15279      4353535F 
 15279      494E4449 
 15280              	.LASF434:
 15281 06ae 4359424C 		.ascii	"CYBLE_EVT_LNSC_INDICATION\000"
 15281      455F4556 
 15281      545F4C4E 
 15281      53435F49 
 15281      4E444943 
 15282              	.LASF150:
 15283 06c8 74797065 		.ascii	"type\000"
 15283      00
 15284              	.LASF719:
 15285 06cd 4379426C 		.ascii	"CyBle_GattcWriteWithoutResponse\000"
 15285      655F4761 
ARM GAS  C:\Users\Helon\AppData\Local\Temp\ccTLkFeM.s 			page 333


 15285      74746357 
 15285      72697465 
 15285      57697468 
 15286              	.LASF445:
 15287 06ed 4359424C 		.ascii	"CYBLE_EVT_PASSC_READ_CHAR_RESPONSE\000"
 15287      455F4556 
 15287      545F5041 
 15287      5353435F 
 15287      52454144 
 15288              	.LASF185:
 15289 0710 4359424C 		.ascii	"CYBLE_GAP_AUTH_ERROR_AUTHENTICATION_TIMEOUT\000"
 15289      455F4741 
 15289      505F4155 
 15289      54485F45 
 15289      52524F52 
 15290              	.LASF304:
 15291 073c 4359424C 		.ascii	"CYBLE_EVT_BLSS_INDICATION_ENABLED\000"
 15291      455F4556 
 15291      545F424C 
 15291      53535F49 
 15291      4E444943 
 15292              	.LASF182:
 15293 075e 4359424C 		.ascii	"CYBLE_GAP_AUTH_ERROR_UNSPECIFIED_REASON\000"
 15293      455F4741 
 15293      505F4155 
 15293      54485F45 
 15293      52524F52 
 15294              	.LASF310:
 15295 0786 4359424C 		.ascii	"CYBLE_EVT_BLSC_NOTIFICATION\000"
 15295      455F4556 
 15295      545F424C 
 15295      53435F4E 
 15295      4F544946 
 15296              	.LASF255:
 15297 07a2 4359424C 		.ascii	"CYBLE_CALLBACK_T\000"
 15297      455F4341 
 15297      4C4C4241 
 15297      434B5F54 
 15297      00
 15298              	.LASF352:
 15299 07b3 4359424C 		.ascii	"CYBLE_EVT_CSCSC_INDICATION\000"
 15299      455F4556 
 15299      545F4353 
 15299      4353435F 
 15299      494E4449 
 15300              	.LASF633:
 15301 07ce 4D617374 		.ascii	"Master_Slave_UartHandler\000"
 15301      65725F53 
 15301      6C617665 
 15301      5F556172 
 15301      7448616E 
 15302              	.LASF539:
 15303 07e7 7278496E 		.ascii	"rxInterruptMask\000"
 15303      74657272 
 15303      7570744D 
 15303      61736B00 
 15304              	.LASF68:
ARM GAS  C:\Users\Helon\AppData\Local\Temp\ccTLkFeM.s 			page 334


 15305 07f7 4359424C 		.ascii	"CYBLE_EVT_GATTC_HANDLE_VALUE_NTF\000"
 15305      455F4556 
 15305      545F4741 
 15305      5454435F 
 15305      48414E44 
 15306              	.LASF38:
 15307 0818 4359424C 		.ascii	"CYBLE_EVT_GAP_AUTH_REQ\000"
 15307      455F4556 
 15307      545F4741 
 15307      505F4155 
 15307      54485F52 
 15308              	.LASF23:
 15309 082f 696E7438 		.ascii	"int8\000"
 15309      00
 15310              	.LASF272:
 15311 0834 4359424C 		.ascii	"CYBLE_EVT_GATTC_CHAR_DISCOVERY_COMPLETE\000"
 15311      455F4556 
 15311      545F4741 
 15311      5454435F 
 15311      43484152 
 15312              	.LASF230:
 15313 085c 4359424C 		.ascii	"CYBLE_CONN_HANDLE_T\000"
 15313      455F434F 
 15313      4E4E5F48 
 15313      414E444C 
 15313      455F5400 
 15314              	.LASF339:
 15315 0870 4359424C 		.ascii	"CYBLE_EVT_CPSC_INDICATION\000"
 15315      455F4556 
 15315      545F4350 
 15315      53435F49 
 15315      4E444943 
 15316              	.LASF99:
 15317 088a 4359424C 		.ascii	"CYBLE_ERROR_BT_ON_NOT_COMPLETED\000"
 15317      455F4552 
 15317      524F525F 
 15317      42545F4F 
 15317      4E5F4E4F 
 15318              	.LASF351:
 15319 08aa 4359424C 		.ascii	"CYBLE_EVT_CSCSC_NOTIFICATION\000"
 15319      455F4556 
 15319      545F4353 
 15319      4353435F 
 15319      4E4F5449 
 15320              	.LASF482:
 15321 08c7 4359424C 		.ascii	"CYBLE_EVT_UDSC_INDICATION\000"
 15321      455F4556 
 15321      545F5544 
 15321      53435F49 
 15321      4E444943 
 15322              	.LASF168:
 15323 08e1 4359424C 		.ascii	"CYBLE_GAP_IOCAP_DISPLAY_ONLY\000"
 15323      455F4741 
 15323      505F494F 
 15323      4341505F 
 15323      44495350 
 15324              	.LASF717:
ARM GAS  C:\Users\Helon\AppData\Local\Temp\ccTLkFeM.s 			page 335


 15325 08fe 73747263 		.ascii	"strcmp\000"
 15325      6D7000
 15326              	.LASF557:
 15327 0905 41445649 		.ascii	"ADVI\000"
 15327      00
 15328              	.LASF315:
 15329 090a 4359424C 		.ascii	"CYBLE_EVT_BMSC_READ_CHAR_RESPONSE\000"
 15329      455F4556 
 15329      545F424D 
 15329      53435F52 
 15329      4541445F 
 15330              	.LASF524:
 15331 092c 656E6162 		.ascii	"enableMedianFilter\000"
 15331      6C654D65 
 15331      6469616E 
 15331      46696C74 
 15331      657200
 15332              	.LASF135:
 15333 093f 4359424C 		.ascii	"CYBLE_LL_PWR_LVL_NEG_3_DBM\000"
 15333      455F4C4C 
 15333      5F505752 
 15333      5F4C564C 
 15333      5F4E4547 
 15334              	.LASF578:
 15335 095a 44657669 		.ascii	"DeviceName\000"
 15335      63654E61 
 15335      6D6500
 15336              	.LASF512:
 15337 0965 4359424C 		.ascii	"CYBLE_STATE_ADVERTISING\000"
 15337      455F5354 
 15337      4154455F 
 15337      41445645 
 15337      52544953 
 15338              	.LASF228:
 15339 097d 62644861 		.ascii	"bdHandle\000"
 15339      6E646C65 
 15339      00
 15340              	.LASF554:
 15341 0986 4E414D45 		.ascii	"NAME\000"
 15341      00
 15342              	.LASF320:
 15343 098b 4359424C 		.ascii	"CYBLE_EVT_CGMSS_INDICATION_CONFIRMED\000"
 15343      455F4556 
 15343      545F4347 
 15343      4D53535F 
 15343      494E4449 
 15344              	.LASF4:
 15345 09b0 5F5F7569 		.ascii	"__uint8_t\000"
 15345      6E74385F 
 15345      7400
 15346              	.LASF688:
 15347 09ba 4379426C 		.ascii	"CyBle_GapcStopScan\000"
 15347      655F4761 
 15347      70635374 
 15347      6F705363 
 15347      616E00
 15348              	.LASF175:
ARM GAS  C:\Users\Helon\AppData\Local\Temp\ccTLkFeM.s 			page 336


 15349 09cd 4359424C 		.ascii	"CYBLE_GAP_AUTH_ERROR_PASSKEY_ENTRY_FAILED\000"
 15349      455F4741 
 15349      505F4155 
 15349      54485F45 
 15349      52524F52 
 15350              	.LASF744:
 15351 09f7 55415254 		.ascii	"UART_UartGetChar\000"
 15351      5F556172 
 15351      74476574 
 15351      43686172 
 15351      00
 15352              	.LASF165:
 15353 0a08 4359424C 		.ascii	"CYBLE_GAPC_NON_CONN_UNDIRECTED_ADV\000"
 15353      455F4741 
 15353      50435F4E 
 15353      4F4E5F43 
 15353      4F4E4E5F 
 15354              	.LASF312:
 15355 0a2b 4359424C 		.ascii	"CYBLE_EVT_BLSC_READ_DESCR_RESPONSE\000"
 15355      455F4556 
 15355      545F424C 
 15355      53435F52 
 15355      4541445F 
 15356              	.LASF133:
 15357 0a4e 4359424C 		.ascii	"CYBLE_LL_PWR_LVL_NEG_12_DBM\000"
 15357      455F4C4C 
 15357      5F505752 
 15357      5F4C564C 
 15357      5F4E4547 
 15358              	.LASF742:
 15359 0a6a 4379426C 		.ascii	"CyBle_GattcWriteCharacteristicValue\000"
 15359      655F4761 
 15359      74746357 
 15359      72697465 
 15359      43686172 
 15360              	.LASF333:
 15361 0a8e 4359424C 		.ascii	"CYBLE_EVT_CPSS_INDICATION_DISABLED\000"
 15361      455F4556 
 15361      545F4350 
 15361      53535F49 
 15361      4E444943 
 15362              	.LASF332:
 15363 0ab1 4359424C 		.ascii	"CYBLE_EVT_CPSS_INDICATION_ENABLED\000"
 15363      455F4556 
 15363      545F4350 
 15363      53535F49 
 15363      4E444943 
 15364              	.LASF431:
 15365 0ad3 4359424C 		.ascii	"CYBLE_EVT_LNSS_NOTIFICATION_ENABLED\000"
 15365      455F4556 
 15365      545F4C4E 
 15365      53535F4E 
 15365      4F544946 
 15366              	.LASF680:
 15367 0af7 48616E64 		.ascii	"HandleScanDevices\000"
 15367      6C655363 
 15367      616E4465 
ARM GAS  C:\Users\Helon\AppData\Local\Temp\ccTLkFeM.s 			page 337


 15367      76696365 
 15367      7300
 15368              	.LASF245:
 15369 0b09 4359424C 		.ascii	"CYBLE_GATTC_READ_REQ_T\000"
 15369      455F4741 
 15369      5454435F 
 15369      52454144 
 15369      5F524551 
 15370              	.LASF64:
 15371 0b20 4359424C 		.ascii	"CYBLE_EVT_GATTS_WRITE_CMD_REQ\000"
 15371      455F4556 
 15371      545F4741 
 15371      5454535F 
 15371      57524954 
 15372              	.LASF343:
 15373 0b3e 4359424C 		.ascii	"CYBLE_EVT_CPSC_WRITE_DESCR_RESPONSE\000"
 15373      455F4556 
 15373      545F4350 
 15373      53435F57 
 15373      52495445 
 15374              	.LASF162:
 15375 0b62 4359424C 		.ascii	"CYBLE_GAPC_CONN_UNDIRECTED_ADV\000"
 15375      455F4741 
 15375      50435F43 
 15375      4F4E4E5F 
 15375      554E4449 
 15376              	.LASF9:
 15377 0b81 6C6F6E67 		.ascii	"long int\000"
 15377      20696E74 
 15377      00
 15378              	.LASF278:
 15379 0b8a 4359424C 		.ascii	"CYBLE_EVT_ANCSC_READ_CHAR_RESPONSE\000"
 15379      455F4556 
 15379      545F414E 
 15379      4353435F 
 15379      52454144 
 15380              	.LASF446:
 15381 0bad 4359424C 		.ascii	"CYBLE_EVT_PASSC_WRITE_CHAR_RESPONSE\000"
 15381      455F4556 
 15381      545F5041 
 15381      5353435F 
 15381      57524954 
 15382              	.LASF215:
 15383 0bd1 64617461 		.ascii	"dataLen\000"
 15383      4C656E00 
 15384              	.LASF748:
 15385 0bd9 473A5C43 		.ascii	"G:\\Company\\Jetronic\\CYPRESS\\CYPRESS_BLE_Study\\"
 15385      6F6D7061 
 15385      6E795C4A 
 15385      6574726F 
 15385      6E69635C 
 15386 0c07 54726F75 		.ascii	"Troughput\\Troughpur_Central_Peripheral_V2.7\\Troug"
 15386      67687075 
 15386      745C5472 
 15386      6F756768 
 15386      7075725F 
 15387 0c38 68707574 		.ascii	"hput_Central_Peripheral.cydsn\000"
ARM GAS  C:\Users\Helon\AppData\Local\Temp\ccTLkFeM.s 			page 338


 15387      5F43656E 
 15387      7472616C 
 15387      5F506572 
 15387      69706865 
 15388              	.LASF258:
 15389 0c56 4359424C 		.ascii	"CYBLE_LONG_TERM_KEY_REQUEST_REPLY\000"
 15389      455F4C4F 
 15389      4E475F54 
 15389      45524D5F 
 15389      4B45595F 
 15390              	.LASF663:
 15391 0c78 6E65676F 		.ascii	"negotiatedMtu\000"
 15391      74696174 
 15391      65644D74 
 15391      7500
 15392              	.LASF672:
 15393 0c86 63636364 		.ascii	"cccdNotifFlagSetStruct\000"
 15393      4E6F7469 
 15393      66466C61 
 15393      67536574 
 15393      53747275 
 15394              	.LASF32:
 15395 0c9d 4359424C 		.ascii	"CYBLE_EVT_STACK_ON\000"
 15395      455F4556 
 15395      545F5354 
 15395      41434B5F 
 15395      4F4E00
 15396              	.LASF106:
 15397 0cb0 4359424C 		.ascii	"CYBLE_ERROR_L2CAP_PSM_NOT_IN_RANGE\000"
 15397      455F4552 
 15397      524F525F 
 15397      4C324341 
 15397      505F5053 
 15398              	.LASF733:
 15399 0cd3 4379426C 		.ascii	"CyBle_GattcDiscoverAllCharacteristicDescriptors\000"
 15399      655F4761 
 15399      74746344 
 15399      6973636F 
 15399      76657241 
 15400              	.LASF125:
 15401 0d03 4359424C 		.ascii	"CYBLE_BLESS_STATE_SLEEP\000"
 15401      455F424C 
 15401      4553535F 
 15401      53544154 
 15401      455F534C 
 15402              	.LASF379:
 15403 0d1b 4359424C 		.ascii	"CYBLE_EVT_ESSC_WRITE_DESCR_RESPONSE\000"
 15403      455F4556 
 15403      545F4553 
 15403      53435F57 
 15403      52495445 
 15404              	.LASF702:
 15405 0d3f 43795379 		.ascii	"CySysPmSleep\000"
 15405      73506D53 
 15405      6C656570 
 15405      00
 15406              	.LASF655:
ARM GAS  C:\Users\Helon\AppData\Local\Temp\ccTLkFeM.s 			page 339


 15407 0d4c 72785F69 		.ascii	"rx_isover\000"
 15407      736F7665 
 15407      7200
 15408              	.LASF412:
 15409 0d56 4359424C 		.ascii	"CYBLE_EVT_HTSS_NOTIFICATION_ENABLED\000"
 15409      455F4556 
 15409      545F4854 
 15409      53535F4E 
 15409      4F544946 
 15410              	.LASF178:
 15411 0d7a 4359424C 		.ascii	"CYBLE_GAP_AUTH_ERROR_CONFIRM_VALUE_NOT_MATCH\000"
 15411      455F4741 
 15411      505F4155 
 15411      54485F45 
 15411      52524F52 
 15412              	.LASF114:
 15413 0da7 4359424C 		.ascii	"CYBLE_ERROR_CHAR_IS_NOT_DISCOVERED\000"
 15413      455F4552 
 15413      524F525F 
 15413      43484152 
 15413      5F49535F 
 15414              	.LASF670:
 15415 0dca 5F313073 		.ascii	"_10sIsOver\000"
 15415      49734F76 
 15415      657200
 15416              	.LASF219:
 15417 0dd5 636F6E6E 		.ascii	"connIntvMin\000"
 15417      496E7476 
 15417      4D696E00 
 15418              	.LASF124:
 15419 0de1 4359424C 		.ascii	"CYBLE_BLESS_STATE_EVENT_CLOSE\000"
 15419      455F424C 
 15419      4553535F 
 15419      53544154 
 15419      455F4556 
 15420              	.LASF235:
 15421 0dff 4359424C 		.ascii	"CYBLE_GATT_HANDLE_VALUE_PAIR_T\000"
 15421      455F4741 
 15421      54545F48 
 15421      414E444C 
 15421      455F5641 
 15422              	.LASF296:
 15423 0e1e 4359424C 		.ascii	"CYBLE_EVT_BASC_WRITE_DESCR_RESPONSE\000"
 15423      455F4556 
 15423      545F4241 
 15423      53435F57 
 15423      52495445 
 15424              	.LASF147:
 15425 0e42 626C6553 		.ascii	"bleSsChId\000"
 15425      73436849 
 15425      6400
 15426              	.LASF692:
 15427 0e4c 55415254 		.ascii	"UART_SpiUartGetTxBufferSize\000"
 15427      5F537069 
 15427      55617274 
 15427      47657454 
 15427      78427566 
ARM GAS  C:\Users\Helon\AppData\Local\Temp\ccTLkFeM.s 			page 340


 15428              	.LASF376:
 15429 0e68 4359424C 		.ascii	"CYBLE_EVT_ESSC_READ_CHAR_RESPONSE\000"
 15429      455F4556 
 15429      545F4553 
 15429      53435F52 
 15429      4541445F 
 15430              	.LASF399:
 15431 0e8a 4359424C 		.ascii	"CYBLE_EVT_HIDSC_NOTIFICATION\000"
 15431      455F4556 
 15431      545F4849 
 15431      4453435F 
 15431      4E4F5449 
 15432              	.LASF159:
 15433 0ea7 4359424C 		.ascii	"CYBLE_GAPP_NON_CONNECTABLE_UNDIRECTED_ADV\000"
 15433      455F4741 
 15433      50505F4E 
 15433      4F4E5F43 
 15433      4F4E4E45 
 15434              	.LASF695:
 15435 0ed1 55415254 		.ascii	"UART_Sleep\000"
 15435      5F536C65 
 15435      657000
 15436              	.LASF76:
 15437 0edc 4359424C 		.ascii	"CYBLE_EVT_L2CAP_COMMAND_REJ\000"
 15437      455F4556 
 15437      545F4C32 
 15437      4341505F 
 15437      434F4D4D 
 15438              	.LASF247:
 15439 0ef8 4359424C 		.ascii	"CYBLE_GATTC_WRITE_REQ_T\000"
 15439      455F4741 
 15439      5454435F 
 15439      57524954 
 15439      455F5245 
 15440              	.LASF263:
 15441 0f10 4359424C 		.ascii	"CYBLE_EVT_GATTC_SRVC_DISCOVERY_FAILED\000"
 15441      455F4556 
 15441      545F4741 
 15441      5454435F 
 15441      53525643 
 15442              	.LASF396:
 15443 0f36 4359424C 		.ascii	"CYBLE_EVT_HIDSS_SUSPEND\000"
 15443      455F4556 
 15443      545F4849 
 15443      4453535F 
 15443      53555350 
 15444              	.LASF107:
 15445 0f4e 4359424C 		.ascii	"CYBLE_ERROR_GATT_DB_INVALID_ATTR_HANDLE\000"
 15445      455F4552 
 15445      524F525F 
 15445      47415454 
 15445      5F44425F 
 15446              	.LASF2:
 15447 0f76 7369676E 		.ascii	"signed char\000"
 15447      65642063 
 15447      68617200 
 15448              	.LASF132:
ARM GAS  C:\Users\Helon\AppData\Local\Temp\ccTLkFeM.s 			page 341


 15449 0f82 4359424C 		.ascii	"CYBLE_LL_PWR_LVL_NEG_18_DBM\000"
 15449      455F4C4C 
 15449      5F505752 
 15449      5F4C564C 
 15449      5F4E4547 
 15450              	.LASF682:
 15451 0f9e 4379426C 		.ascii	"CyBle_L2capLeConnectionParamUpdateRequest\000"
 15451      655F4C32 
 15451      6361704C 
 15451      65436F6E 
 15451      6E656374 
 15452              	.LASF16:
 15453 0fc8 75696E74 		.ascii	"uint8_t\000"
 15453      385F7400 
 15454              	.LASF732:
 15455 0fd0 4379426C 		.ascii	"CyBle_GapcStartScan\000"
 15455      655F4761 
 15455      70635374 
 15455      61727453 
 15455      63616E00 
 15456              	.LASF673:
 15457 0fe4 636F6E6E 		.ascii	"connParam\000"
 15457      50617261 
 15457      6D00
 15458              	.LASF507:
 15459 0fee 4359424C 		.ascii	"CYBLE_EVT_WSSC_WRITE_DESCR_RESPONSE\000"
 15459      455F4556 
 15459      545F5753 
 15459      53435F57 
 15459      52495445 
 15460              	.LASF295:
 15461 1012 4359424C 		.ascii	"CYBLE_EVT_BASC_READ_DESCR_RESPONSE\000"
 15461      455F4556 
 15461      545F4241 
 15461      53435F52 
 15461      4541445F 
 15462              	.LASF678:
 15463 1035 436F6D6D 		.ascii	"Command_Identify\000"
 15463      616E645F 
 15463      4964656E 
 15463      74696679 
 15463      00
 15464              	.LASF629:
 15465 1046 53747254 		.ascii	"StrToHex\000"
 15465      6F486578 
 15465      00
 15466              	.LASF708:
 15467 104f 54696D65 		.ascii	"Timer_Init\000"
 15467      725F496E 
 15467      697400
 15468              	.LASF34:
 15469 105a 4359424C 		.ascii	"CYBLE_EVT_HARDWARE_ERROR\000"
 15469      455F4556 
 15469      545F4841 
 15469      52445741 
 15469      52455F45 
 15470              	.LASF699:
ARM GAS  C:\Users\Helon\AppData\Local\Temp\ccTLkFeM.s 			page 342


 15471 1073 55415254 		.ascii	"UART_SpiUartClearRxBuffer\000"
 15471      5F537069 
 15471      55617274 
 15471      436C6561 
 15471      72527842 
 15472              	.LASF88:
 15473 108d 4359424C 		.ascii	"CYBLE_ERROR_OK\000"
 15473      455F4552 
 15473      524F525F 
 15473      4F4B00
 15474              	.LASF145:
 15475 109c 4359424C 		.ascii	"CYBLE_BLESS_PHY_CH_GRP_ID_T\000"
 15475      455F424C 
 15475      4553535F 
 15475      5048595F 
 15475      43485F47 
 15476              	.LASF542:
 15477 10b8 74785472 		.ascii	"txTriggerLevel\000"
 15477      69676765 
 15477      724C6576 
 15477      656C00
 15478              	.LASF214:
 15479 10c7 70656572 		.ascii	"peerBdAddr\000"
 15479      42644164 
 15479      647200
 15480              	.LASF55:
 15481 10d2 4359424C 		.ascii	"CYBLE_EVT_GATTC_READ_BY_GROUP_TYPE_RSP\000"
 15481      455F4556 
 15481      545F4741 
 15481      5454435F 
 15481      52454144 
 15482              	.LASF509:
 15483 10f9 4359424C 		.ascii	"CYBLE_STATE_STOPPED\000"
 15483      455F5354 
 15483      4154455F 
 15483      53544F50 
 15483      50454400 
 15484              	.LASF451:
 15485 110d 4359424C 		.ascii	"CYBLE_EVT_RSCSS_INDICATION_ENABLED\000"
 15485      455F4556 
 15485      545F5253 
 15485      4353535F 
 15485      494E4449 
 15486              	.LASF5:
 15487 1130 756E7369 		.ascii	"unsigned char\000"
 15487      676E6564 
 15487      20636861 
 15487      7200
 15488              	.LASF54:
 15489 113e 4359424C 		.ascii	"CYBLE_EVT_GATTC_XCHNG_MTU_RSP\000"
 15489      455F4556 
 15489      545F4741 
 15489      5454435F 
 15489      5843484E 
 15490              	.LASF334:
 15491 115c 4359424C 		.ascii	"CYBLE_EVT_CPSS_INDICATION_CONFIRMED\000"
 15491      455F4556 
ARM GAS  C:\Users\Helon\AppData\Local\Temp\ccTLkFeM.s 			page 343


 15491      545F4350 
 15491      53535F49 
 15491      4E444943 
 15492              	.LASF240:
 15493 1180 4359424C 		.ascii	"CYBLE_GATT_XCHG_MTU_PARAM_T\000"
 15493      455F4741 
 15493      54545F58 
 15493      4348475F 
 15493      4D54555F 
 15494              	.LASF331:
 15495 119c 4359424C 		.ascii	"CYBLE_EVT_CPSS_NOTIFICATION_DISABLED\000"
 15495      455F4556 
 15495      545F4350 
 15495      53535F4E 
 15495      4F544946 
 15496              	.LASF602:
 15497 11c1 57726974 		.ascii	"WriteDataToFlash\000"
 15497      65446174 
 15497      61546F46 
 15497      6C617368 
 15497      00
 15498              	.LASF456:
 15499 11d2 4359424C 		.ascii	"CYBLE_EVT_RSCSC_INDICATION\000"
 15499      455F4556 
 15499      545F5253 
 15499      4353435F 
 15499      494E4449 
 15500              	.LASF251:
 15501 11ed 4359424C 		.ascii	"CYBLE_GATTC_HANDLE_UUID_LIST_PARAM_T\000"
 15501      455F4741 
 15501      5454435F 
 15501      48414E44 
 15501      4C455F55 
 15502              	.LASF506:
 15503 1212 4359424C 		.ascii	"CYBLE_EVT_WSSC_READ_DESCR_RESPONSE\000"
 15503      455F4556 
 15503      545F5753 
 15503      53435F52 
 15503      4541445F 
 15504              	.LASF710:
 15505 1235 55415254 		.ascii	"UART_Start\000"
 15505      5F537461 
 15505      727400
 15506              	.LASF547:
 15507 1240 72747350 		.ascii	"rtsPolarity\000"
 15507      6F6C6172 
 15507      69747900 
 15508              	.LASF118:
 15509 124c 4359424C 		.ascii	"CYBLE_BLESS_SLEEP\000"
 15509      455F424C 
 15509      4553535F 
 15509      534C4545 
 15509      5000
 15510              	.LASF700:
 15511 125e 55415254 		.ascii	"UART_RX_WAKEUP_IRQ_ClearPending\000"
 15511      5F52585F 
 15511      57414B45 
ARM GAS  C:\Users\Helon\AppData\Local\Temp\ccTLkFeM.s 			page 344


 15511      55505F49 
 15511      52515F43 
 15512              	.LASF83:
 15513 127e 4359424C 		.ascii	"CYBLE_EVT_L2CAP_CBFC_TX_CREDIT_IND\000"
 15513      455F4556 
 15513      545F4C32 
 15513      4341505F 
 15513      43424643 
 15514              	.LASF193:
 15515 12a1 61647649 		.ascii	"advIntvMin\000"
 15515      6E74764D 
 15515      696E00
 15516              	.LASF731:
 15517 12ac 4379426C 		.ascii	"CyBle_GappStartAdvertisement\000"
 15517      655F4761 
 15517      70705374 
 15517      61727441 
 15517      64766572 
 15518              	.LASF262:
 15519 12c9 4359424C 		.ascii	"CYBLE_EVT_GATTC_INDICATION\000"
 15519      455F4556 
 15519      545F4741 
 15519      5454435F 
 15519      494E4449 
 15520              	.LASF184:
 15521 12e4 4359424C 		.ascii	"CYBLE_GAP_AUTH_ERROR_INVALID_PARAMETERS\000"
 15521      455F4741 
 15521      505F4155 
 15521      54485F45 
 15521      52524F52 
 15522              	.LASF625:
 15523 130c 77726974 		.ascii	"writeRequestData\000"
 15523      65526571 
 15523      75657374 
 15523      44617461 
 15523      00
 15524              	.LASF123:
 15525 131d 4359424C 		.ascii	"CYBLE_BLESS_STATE_ACTIVE\000"
 15525      455F424C 
 15525      4553535F 
 15525      53544154 
 15525      455F4143 
 15526              	.LASF204:
 15527 1336 4359424C 		.ascii	"CYBLE_GAPP_DISC_DATA_T\000"
 15527      455F4741 
 15527      50505F44 
 15527      4953435F 
 15527      44415441 
 15528              	.LASF671:
 15529 134d 63636364 		.ascii	"cccdNotifEnabledValue\000"
 15529      4E6F7469 
 15529      66456E61 
 15529      626C6564 
 15529      56616C75 
 15530              	.LASF463:
 15531 1363 4359424C 		.ascii	"CYBLE_EVT_SCPSS_NOTIFICATION_ENABLED\000"
 15531      455F4556 
ARM GAS  C:\Users\Helon\AppData\Local\Temp\ccTLkFeM.s 			page 345


 15531      545F5343 
 15531      5053535F 
 15531      4E4F5449 
 15532              	.LASF626:
 15533 1388 55617274 		.ascii	"UartBuadRate_Handler\000"
 15533      42756164 
 15533      52617465 
 15533      5F48616E 
 15533      646C6572 
 15534              	.LASF80:
 15535 139d 4359424C 		.ascii	"CYBLE_EVT_L2CAP_CBFC_DISCONN_CNF\000"
 15535      455F4556 
 15535      545F4C32 
 15535      4341505F 
 15535      43424643 
 15536              	.LASF58:
 15537 13be 4359424C 		.ascii	"CYBLE_EVT_GATTC_FIND_BY_TYPE_VALUE_RSP\000"
 15537      455F4556 
 15537      545F4741 
 15537      5454435F 
 15537      46494E44 
 15538              	.LASF274:
 15539 13e5 4359424C 		.ascii	"CYBLE_EVT_ANCSS_NOTIFICATION_ENABLED\000"
 15539      455F4556 
 15539      545F414E 
 15539      4353535F 
 15539      4E4F5449 
 15540              	.LASF525:
 15541 140a 656E6162 		.ascii	"enableRetryNack\000"
 15541      6C655265 
 15541      7472794E 
 15541      61636B00 
 15542              	.LASF122:
 15543 141a 4359424C 		.ascii	"CYBLE_LP_MODE_T\000"
 15543      455F4C50 
 15543      5F4D4F44 
 15543      455F5400 
 15544              	.LASF468:
 15545 142a 4359424C 		.ascii	"CYBLE_EVT_SCPSC_WRITE_DESCR_RESPONSE\000"
 15545      455F4556 
 15545      545F5343 
 15545      5053435F 
 15545      57524954 
 15546              	.LASF26:
 15547 144f 63686172 		.ascii	"char\000"
 15547      00
 15548              	.LASF136:
 15549 1454 4359424C 		.ascii	"CYBLE_LL_PWR_LVL_NEG_2_DBM\000"
 15549      455F4C4C 
 15549      5F505752 
 15549      5F4C564C 
 15549      5F4E4547 
 15550              	.LASF471:
 15551 146f 4359424C 		.ascii	"CYBLE_EVT_TPSC_NOTIFICATION\000"
 15551      455F4556 
 15551      545F5450 
 15551      53435F4E 
ARM GAS  C:\Users\Helon\AppData\Local\Temp\ccTLkFeM.s 			page 346


 15551      4F544946 
 15552              	.LASF61:
 15553 148b 4359424C 		.ascii	"CYBLE_EVT_GATTC_READ_MULTI_RSP\000"
 15553      455F4556 
 15553      545F4741 
 15553      5454435F 
 15553      52454144 
 15554              	.LASF192:
 15555 14aa 4359424C 		.ascii	"CYBLE_GAP_AUTH_INFO_T\000"
 15555      455F4741 
 15555      505F4155 
 15555      54485F49 
 15555      4E464F5F 
 15556              	.LASF170:
 15557 14c0 4359424C 		.ascii	"CYBLE_GAP_IOCAP_KEYBOARD_ONLY\000"
 15557      455F4741 
 15557      505F494F 
 15557      4341505F 
 15557      4B455942 
 15558              	.LASF514:
 15559 14de 4359424C 		.ascii	"CYBLE_STATE_CONNECTING\000"
 15559      455F5354 
 15559      4154455F 
 15559      434F4E4E 
 15559      45435449 
 15560              	.LASF31:
 15561 14f5 4359424C 		.ascii	"CYBLE_EVT_HOST_INVALID\000"
 15561      455F4556 
 15561      545F484F 
 15561      53545F49 
 15561      4E56414C 
 15562              	.LASF726:
 15563 150c 4379426C 		.ascii	"CyBle_GapGetLocalName\000"
 15563      655F4761 
 15563      70476574 
 15563      4C6F6361 
 15563      6C4E616D 
 15564              	.LASF390:
 15565 1522 4359424C 		.ascii	"CYBLE_EVT_GLSC_READ_DESCR_RESPONSE\000"
 15565      455F4556 
 15565      545F474C 
 15565      53435F52 
 15565      4541445F 
 15566              	.LASF7:
 15567 1545 5F5F7569 		.ascii	"__uint16_t\000"
 15567      6E743136 
 15567      5F7400
 15568              	.LASF95:
 15569 1550 4359424C 		.ascii	"CYBLE_ERROR_NO_DEVICE_ENTITY\000"
 15569      455F4552 
 15569      524F525F 
 15569      4E4F5F44 
 15569      45564943 
 15570              	.LASF536:
 15571 156d 6D756C74 		.ascii	"multiprocAddr\000"
 15571      6970726F 
 15571      63416464 
ARM GAS  C:\Users\Helon\AppData\Local\Temp\ccTLkFeM.s 			page 347


 15571      7200
 15572              	.LASF60:
 15573 157b 4359424C 		.ascii	"CYBLE_EVT_GATTC_READ_BLOB_RSP\000"
 15573      455F4556 
 15573      545F4741 
 15573      5454435F 
 15573      52454144 
 15574              	.LASF415:
 15575 1599 4359424C 		.ascii	"CYBLE_EVT_HTSS_INDICATION_DISABLED\000"
 15575      455F4556 
 15575      545F4854 
 15575      53535F49 
 15575      4E444943 
 15576              	.LASF462:
 15577 15bc 4359424C 		.ascii	"CYBLE_EVT_RTUSC_READ_CHAR_RESPONSE\000"
 15577      455F4556 
 15577      545F5254 
 15577      5553435F 
 15577      52454144 
 15578              	.LASF67:
 15579 15df 4359424C 		.ascii	"CYBLE_EVT_GATTC_EXEC_WRITE_RSP\000"
 15579      455F4556 
 15579      545F4741 
 15579      5454435F 
 15579      45584543 
 15580              	.LASF503:
 15581 15fe 4359424C 		.ascii	"CYBLE_EVT_WSSS_INDICATION_CONFIRMED\000"
 15581      455F4556 
 15581      545F5753 
 15581      53535F49 
 15581      4E444943 
 15582              	.LASF248:
 15583 1622 4359424C 		.ascii	"CYBLE_GATTC_HANDLE_VALUE_NTF_PARAM_T\000"
 15583      455F4741 
 15583      5454435F 
 15583      48414E44 
 15583      4C455F56 
 15584              	.LASF721:
 15585 1647 4379426C 		.ascii	"CyBle_GetTxPowerLevel\000"
 15585      655F4765 
 15585      74547850 
 15585      6F776572 
 15585      4C657665 
 15586              	.LASF630:
 15587 165d 70624465 		.ascii	"pbDest\000"
 15587      737400
 15588              	.LASF476:
 15589 1664 4359424C 		.ascii	"CYBLE_EVT_UDSS_INDICATION_DISABLED\000"
 15589      455F4556 
 15589      545F5544 
 15589      53535F49 
 15589      4E444943 
 15590              	.LASF447:
 15591 1687 4359424C 		.ascii	"CYBLE_EVT_PASSC_READ_DESCR_RESPONSE\000"
 15591      455F4556 
 15591      545F5041 
 15591      5353435F 
ARM GAS  C:\Users\Helon\AppData\Local\Temp\ccTLkFeM.s 			page 348


 15591      52454144 
 15592              	.LASF741:
 15593 16ab 6D656D63 		.ascii	"memcmp\000"
 15593      6D7000
 15594              	.LASF632:
 15595 16b2 6E4C656E 		.ascii	"nLen\000"
 15595      00
 15596              	.LASF72:
 15597 16b7 4359424C 		.ascii	"CYBLE_EVT_GATTC_STOP_CMD_COMPLETE\000"
 15597      455F4556 
 15597      545F4741 
 15597      5454435F 
 15597      53544F50 
 15598              	.LASF337:
 15599 16d9 4359424C 		.ascii	"CYBLE_EVT_CPSS_CHAR_WRITE\000"
 15599      455F4556 
 15599      545F4350 
 15599      53535F43 
 15599      4841525F 
 15600              	.LASF658:
 15601 16f3 4D54555F 		.ascii	"MTU_REQ_FLAG\000"
 15601      5245515F 
 15601      464C4147 
 15601      00
 15602              	.LASF404:
 15603 1700 4359424C 		.ascii	"CYBLE_EVT_HRSS_ENERGY_EXPENDED_RESET\000"
 15603      455F4556 
 15603      545F4852 
 15603      53535F45 
 15603      4E455247 
 15604              	.LASF367:
 15605 1725 4359424C 		.ascii	"CYBLE_EVT_ESSS_NOTIFICATION_DISABLED\000"
 15605      455F4556 
 15605      545F4553 
 15605      53535F4E 
 15605      4F544946 
 15606              	.LASF490:
 15607 174a 4359424C 		.ascii	"CYBLE_EVT_WPTSS_NOTIFICATION_DISABLED\000"
 15607      455F4556 
 15607      545F5750 
 15607      5453535F 
 15607      4E4F5449 
 15608              	.LASF727:
 15609 1770 4379426C 		.ascii	"CyBle_GappStopAdvertisement\000"
 15609      655F4761 
 15609      70705374 
 15609      6F704164 
 15609      76657274 
 15610              	.LASF552:
 15611 178c 42415544 		.ascii	"BAUD\000"
 15611      00
 15612              	.LASF541:
 15613 1791 7478496E 		.ascii	"txInterruptMask\000"
 15613      74657272 
 15613      7570744D 
 15613      61736B00 
 15614              	.LASF566:
ARM GAS  C:\Users\Helon\AppData\Local\Temp\ccTLkFeM.s 			page 349


 15615 17a1 53504545 		.ascii	"SPEED\000"
 15615      4400
 15616              	.LASF307:
 15617 17a7 4359424C 		.ascii	"CYBLE_EVT_BLSS_NOTIFICATION_ENABLED\000"
 15617      455F4556 
 15617      545F424C 
 15617      53535F4E 
 15617      4F544946 
 15618              	.LASF504:
 15619 17cb 4359424C 		.ascii	"CYBLE_EVT_WSSC_INDICATION\000"
 15619      455F4556 
 15619      545F5753 
 15619      53435F49 
 15619      4E444943 
 15620              	.LASF89:
 15621 17e5 4359424C 		.ascii	"CYBLE_ERROR_INVALID_PARAMETER\000"
 15621      455F4552 
 15621      524F525F 
 15621      494E5641 
 15621      4C49445F 
 15622              	.LASF615:
 15623 1803 626C6573 		.ascii	"blessState\000"
 15623      73537461 
 15623      746500
 15624              	.LASF375:
 15625 180e 4359424C 		.ascii	"CYBLE_EVT_ESSC_INDICATION\000"
 15625      455F4556 
 15625      545F4553 
 15625      53435F49 
 15625      4E444943 
 15626              	.LASF281:
 15627 1828 4359424C 		.ascii	"CYBLE_EVT_ANCSC_WRITE_DESCR_RESPONSE\000"
 15627      455F4556 
 15627      545F414E 
 15627      4353435F 
 15627      57524954 
 15628              	.LASF555:
 15629 184d 4350494E 		.ascii	"CPIN\000"
 15629      00
 15630              	.LASF573:
 15631 1852 44697363 		.ascii	"Disconn_Idx\000"
 15631      6F6E6E5F 
 15631      49647800 
 15632              	.LASF458:
 15633 185e 4359424C 		.ascii	"CYBLE_EVT_RSCSC_WRITE_CHAR_RESPONSE\000"
 15633      455F4556 
 15633      545F5253 
 15633      4353435F 
 15633      57524954 
 15634              	.LASF576:
 15635 1882 4359424C 		.ascii	"CYBLE_CONN_OR_DISCONN_INFO\000"
 15635      455F434F 
 15635      4E4E5F4F 
 15635      525F4449 
 15635      53434F4E 
 15636              	.LASF405:
 15637 189d 4359424C 		.ascii	"CYBLE_EVT_HRSS_NOTIFICATION_ENABLED\000"
ARM GAS  C:\Users\Helon\AppData\Local\Temp\ccTLkFeM.s 			page 350


 15637      455F4556 
 15637      545F4852 
 15637      53535F4E 
 15637      4F544946 
 15638              	.LASF654:
 15639 18c1 42756666 		.ascii	"Buffer_Length\000"
 15639      65725F4C 
 15639      656E6774 
 15639      6800
 15640              	.LASF474:
 15641 18cf 4359424C 		.ascii	"CYBLE_EVT_TPSC_WRITE_DESCR_RESPONSE\000"
 15641      455F4556 
 15641      545F5450 
 15641      53435F57 
 15641      52495445 
 15642              	.LASF642:
 15643 18f3 66696C65 		.ascii	"file\000"
 15643      00
 15644              	.LASF346:
 15645 18f8 4359424C 		.ascii	"CYBLE_EVT_CSCSS_NOTIFICATION_DISABLED\000"
 15645      455F4556 
 15645      545F4353 
 15645      4353535F 
 15645      4E4F5449 
 15646              	.LASF357:
 15647 191e 4359424C 		.ascii	"CYBLE_EVT_CTSS_NOTIFICATION_ENABLED\000"
 15647      455F4556 
 15647      545F4354 
 15647      53535F4E 
 15647      4F544946 
 15648              	.LASF452:
 15649 1942 4359424C 		.ascii	"CYBLE_EVT_RSCSS_INDICATION_DISABLED\000"
 15649      455F4556 
 15649      545F5253 
 15649      4353535F 
 15649      494E4449 
 15650              	.LASF562:
 15651 1966 44495343 		.ascii	"DISCONN\000"
 15651      4F4E4E00 
 15652              	.LASF725:
 15653 196e 4379426C 		.ascii	"CyBle_GetDeviceAddress\000"
 15653      655F4765 
 15653      74446576 
 15653      69636541 
 15653      64647265 
 15654              	.LASF160:
 15655 1985 4359424C 		.ascii	"CYBLE_GAPP_CONNECTABLE_LOW_DC_DIRECTED_ADV\000"
 15655      455F4741 
 15655      50505F43 
 15655      4F4E4E45 
 15655      43544142 
 15656              	.LASF494:
 15657 19b0 4359424C 		.ascii	"CYBLE_EVT_WPTSS_WRITE_CHAR\000"
 15657      455F4556 
 15657      545F5750 
 15657      5453535F 
 15657      57524954 
ARM GAS  C:\Users\Helon\AppData\Local\Temp\ccTLkFeM.s 			page 351


 15658              	.LASF425:
 15659 19cb 4359424C 		.ascii	"CYBLE_EVT_LLSS_WRITE_CHAR_REQ\000"
 15659      455F4556 
 15659      545F4C4C 
 15659      53535F57 
 15659      52495445 
 15660              	.LASF91:
 15661 19e9 4359424C 		.ascii	"CYBLE_ERROR_MEMORY_ALLOCATION_FAILED\000"
 15661      455F4552 
 15661      524F525F 
 15661      4D454D4F 
 15661      52595F41 
 15662              	.LASF410:
 15663 1a0e 4359424C 		.ascii	"CYBLE_EVT_HRSC_READ_DESCR_RESPONSE\000"
 15663      455F4556 
 15663      545F4852 
 15663      53435F52 
 15663      4541445F 
 15664              	.LASF609:
 15665 1a31 44697341 		.ascii	"DisAllCharResult\000"
 15665      6C6C4368 
 15665      61725265 
 15665      73756C74 
 15665      00
 15666              	.LASF345:
 15667 1a42 4359424C 		.ascii	"CYBLE_EVT_CSCSS_NOTIFICATION_ENABLED\000"
 15667      455F4556 
 15667      545F4353 
 15667      4353535F 
 15667      4E4F5449 
 15668              	.LASF679:
 15669 1a67 7072696E 		.ascii	"printf\000"
 15669      746600
 15670              	.LASF519:
 15671 1a6e 64617461 		.ascii	"dataBits\000"
 15671      42697473 
 15671      00
 15672              	.LASF661:
 15673 1a77 746F7461 		.ascii	"totalByteCounter\000"
 15673      6C427974 
 15673      65436F75 
 15673      6E746572 
 15673      00
 15674              	.LASF595:
 15675 1a88 4E616D65 		.ascii	"Name\000"
 15675      00
 15676              	.LASF309:
 15677 1a8d 4359424C 		.ascii	"CYBLE_EVT_BLSC_INDICATION\000"
 15677      455F4556 
 15677      545F424C 
 15677      53435F49 
 15677      4E444943 
 15678              	.LASF662:
 15679 1aa7 62756666 		.ascii	"buffer\000"
 15679      657200
 15680              	.LASF585:
 15681 1aae 4D795469 		.ascii	"MyTimerIsr\000"
ARM GAS  C:\Users\Helon\AppData\Local\Temp\ccTLkFeM.s 			page 352


 15681      6D657249 
 15681      737200
 15682              	.LASF398:
 15683 1ab9 4359424C 		.ascii	"CYBLE_EVT_HIDSS_REPORT_CHAR_WRITE\000"
 15683      455F4556 
 15683      545F4849 
 15683      4453535F 
 15683      5245504F 
 15684              	.LASF677:
 15685 1adb 42617564 		.ascii	"Baud_rate_idx\000"
 15685      5F726174 
 15685      655F6964 
 15685      7800
 15686              	.LASF612:
 15687 1ae9 53746163 		.ascii	"StackEventHandler\000"
 15687      6B457665 
 15687      6E744861 
 15687      6E646C65 
 15687      7200
 15688              	.LASF498:
 15689 1afb 4359424C 		.ascii	"CYBLE_EVT_WPTSC_READ_CHAR_RESPONSE\000"
 15689      455F4556 
 15689      545F5750 
 15689      5453435F 
 15689      52454144 
 15690              	.LASF111:
 15691 1b1e 4359424C 		.ascii	"CYBLE_ERROR_MAX\000"
 15691      455F4552 
 15691      524F525F 
 15691      4D415800 
 15692              	.LASF437:
 15693 1b2e 4359424C 		.ascii	"CYBLE_EVT_LNSC_WRITE_CHAR_RESPONSE\000"
 15693      455F4556 
 15693      545F4C4E 
 15693      53435F57 
 15693      52495445 
 15694              	.LASF75:
 15695 1b51 4359424C 		.ascii	"CYBLE_EVT_L2CAP_CONN_PARAM_UPDATE_RSP\000"
 15695      455F4556 
 15695      545F4C32 
 15695      4341505F 
 15695      434F4E4E 
 15696              	.LASF186:
 15697 1b77 4359424C 		.ascii	"CYBLE_GAP_AUTH_ERROR_LINK_DISCONNECTED\000"
 15697      455F4741 
 15697      505F4155 
 15697      54485F45 
 15697      52524F52 
 15698              	.LASF560:
 15699 1b9e 5343414E 		.ascii	"SCAN\000"
 15699      00
 15700              	.LASF288:
 15701 1ba3 4359424C 		.ascii	"CYBLE_EVT_ANSC_WRITE_CHAR_RESPONSE\000"
 15701      455F4556 
 15701      545F414E 
 15701      53435F57 
 15701      52495445 
ARM GAS  C:\Users\Helon\AppData\Local\Temp\ccTLkFeM.s 			page 353


 15702              	.LASF479:
 15703 1bc6 4359424C 		.ascii	"CYBLE_EVT_UDSS_NOTIFICATION_DISABLED\000"
 15703      455F4556 
 15703      545F5544 
 15703      53535F4E 
 15703      4F544946 
 15704              	.LASF548:
 15705 1beb 55415254 		.ascii	"UART_UART_INIT_STRUCT\000"
 15705      5F554152 
 15705      545F494E 
 15705      49545F53 
 15705      54525543 
 15706              	.LASF356:
 15707 1c01 4359424C 		.ascii	"CYBLE_EVT_CSCSC_WRITE_DESCR_RESPONSE\000"
 15707      455F4556 
 15707      545F4353 
 15707      4353435F 
 15707      57524954 
 15708              	.LASF574:
 15709 1c26 436F6E6E 		.ascii	"Connected_Count\000"
 15709      65637465 
 15709      645F436F 
 15709      756E7400 
 15710              	.LASF372:
 15711 1c36 4359424C 		.ascii	"CYBLE_EVT_ESSS_EXEC_WRITE_REQ\000"
 15711      455F4556 
 15711      545F4553 
 15711      53535F45 
 15711      5845435F 
 15712              	.LASF480:
 15713 1c54 4359424C 		.ascii	"CYBLE_EVT_UDSS_READ_CHAR\000"
 15713      455F4556 
 15713      545F5544 
 15713      53535F52 
 15713      4541445F 
 15714              	.LASF581:
 15715 1c6d 74696D65 		.ascii	"timercount\000"
 15715      72636F75 
 15715      6E7400
 15716              	.LASF121:
 15717 1c78 4359424C 		.ascii	"CYBLE_BLESS_INVALID\000"
 15717      455F424C 
 15717      4553535F 
 15717      494E5641 
 15717      4C494400 
 15718              	.LASF201:
 15719 1c8c 4359424C 		.ascii	"CYBLE_GAPP_DISC_PARAM_T\000"
 15719      455F4741 
 15719      50505F44 
 15719      4953435F 
 15719      50415241 
 15720              	.LASF236:
 15721 1ca4 73746172 		.ascii	"startHandle\000"
 15721      7448616E 
 15721      646C6500 
 15722              	.LASF250:
 15723 1cb0 62797465 		.ascii	"byteCount\000"
ARM GAS  C:\Users\Helon\AppData\Local\Temp\ccTLkFeM.s 			page 354


 15723      436F756E 
 15723      7400
 15724              	.LASF637:
 15725 1cba 696E6465 		.ascii	"index\000"
 15725      7800
 15726              	.LASF41:
 15727 1cc0 4359424C 		.ascii	"CYBLE_EVT_GAP_AUTH_COMPLETE\000"
 15727      455F4556 
 15727      545F4741 
 15727      505F4155 
 15727      54485F43 
 15728              	.LASF200:
 15729 1cdc 61647646 		.ascii	"advFilterPolicy\000"
 15729      696C7465 
 15729      72506F6C 
 15729      69637900 
 15730              	.LASF378:
 15731 1cec 4359424C 		.ascii	"CYBLE_EVT_ESSC_READ_DESCR_RESPONSE\000"
 15731      455F4556 
 15731      545F4553 
 15731      53435F52 
 15731      4541445F 
 15732              	.LASF42:
 15733 1d0f 4359424C 		.ascii	"CYBLE_EVT_GAP_AUTH_FAILED\000"
 15733      455F4556 
 15733      545F4741 
 15733      505F4155 
 15733      54485F46 
 15734              	.LASF397:
 15735 1d29 4359424C 		.ascii	"CYBLE_EVT_HIDSS_EXIT_SUSPEND\000"
 15735      455F4556 
 15735      545F4849 
 15735      4453535F 
 15735      45584954 
 15736              	.LASF131:
 15737 1d46 4359424C 		.ascii	"CYBLE_BLESS_STATE_T\000"
 15737      455F424C 
 15737      4553535F 
 15737      53544154 
 15737      455F5400 
 15738              	.LASF223:
 15739 1d5a 4359424C 		.ascii	"CYBLE_GAP_CONN_UPDATE_PARAM_T\000"
 15739      455F4741 
 15739      505F434F 
 15739      4E4E5F55 
 15739      50444154 
 15740              	.LASF531:
 15741 1d78 72784275 		.ascii	"rxBuffer\000"
 15741      66666572 
 15741      00
 15742              	.LASF195:
 15743 1d81 61647654 		.ascii	"advType\000"
 15743      79706500 
 15744              	.LASF363:
 15745 1d89 4359424C 		.ascii	"CYBLE_EVT_CTSC_WRITE_DESCR_RESPONSE\000"
 15745      455F4556 
 15745      545F4354 
ARM GAS  C:\Users\Helon\AppData\Local\Temp\ccTLkFeM.s 			page 355


 15745      53435F57 
 15745      52495445 
 15746              	.LASF603:
 15747 1dad 53544155 		.ascii	"STAUS_T\000"
 15747      535F5400 
 15748              	.LASF520:
 15749 1db5 70617269 		.ascii	"parity\000"
 15749      747900
 15750              	.LASF92:
 15751 1dbc 4359424C 		.ascii	"CYBLE_ERROR_INSUFFICIENT_RESOURCES\000"
 15751      455F4552 
 15751      524F525F 
 15751      494E5355 
 15751      46464943 
 15752              	.LASF450:
 15753 1ddf 4359424C 		.ascii	"CYBLE_EVT_RSCSS_NOTIFICATION_DISABLED\000"
 15753      455F4556 
 15753      545F5253 
 15753      4353535F 
 15753      4E4F5449 
 15754              	.LASF635:
 15755 1e05 55617274 		.ascii	"Uart_Char\000"
 15755      5F436861 
 15755      7200
 15756              	.LASF401:
 15757 1e0f 4359424C 		.ascii	"CYBLE_EVT_HIDSC_WRITE_CHAR_RESPONSE\000"
 15757      455F4556 
 15757      545F4849 
 15757      4453435F 
 15757      57524954 
 15758              	.LASF139:
 15759 1e33 4359424C 		.ascii	"CYBLE_LL_PWR_LVL_3_DBM\000"
 15759      455F4C4C 
 15759      5F505752 
 15759      5F4C564C 
 15759      5F335F44 
 15760              	.LASF11:
 15761 1e4a 6C6F6E67 		.ascii	"long unsigned int\000"
 15761      20756E73 
 15761      69676E65 
 15761      6420696E 
 15761      7400
 15762              	.LASF424:
 15763 1e5c 4359424C 		.ascii	"CYBLE_EVT_IASS_WRITE_CHAR_CMD\000"
 15763      455F4556 
 15763      545F4941 
 15763      53535F57 
 15763      52495445 
 15764              	.LASF600:
 15765 1e7a 41647650 		.ascii	"AdvParamArray\000"
 15765      6172616D 
 15765      41727261 
 15765      7900
 15766              	.LASF224:
 15767 1e88 73746174 		.ascii	"status\000"
 15767      757300
 15768              	.LASF137:
ARM GAS  C:\Users\Helon\AppData\Local\Temp\ccTLkFeM.s 			page 356


 15769 1e8f 4359424C 		.ascii	"CYBLE_LL_PWR_LVL_NEG_1_DBM\000"
 15769      455F4C4C 
 15769      5F505752 
 15769      5F4C564C 
 15769      5F4E4547 
 15770              	.LASF599:
 15771 1eaa 41647644 		.ascii	"AdvDataLength\000"
 15771      6174614C 
 15771      656E6774 
 15771      6800
 15772              	.LASF491:
 15773 1eb8 4359424C 		.ascii	"CYBLE_EVT_WPTSS_INDICATION_ENABLED\000"
 15773      455F4556 
 15773      545F5750 
 15773      5453535F 
 15773      494E4449 
 15774              	.LASF181:
 15775 1edb 4359424C 		.ascii	"CYBLE_GAP_AUTH_ERROR_COMMAND_NOT_SUPPORTED\000"
 15775      455F4741 
 15775      505F4155 
 15775      54485F45 
 15775      52524F52 
 15776              	.LASF177:
 15777 1f06 4359424C 		.ascii	"CYBLE_GAP_AUTH_ERROR_AUTHENTICATION_REQ_NOT_MET\000"
 15777      455F4741 
 15777      505F4155 
 15777      54485F45 
 15777      52524F52 
 15778              	.LASF544:
 15779 1f36 656E6162 		.ascii	"enableCts\000"
 15779      6C654374 
 15779      7300
 15780              	.LASF616:
 15781 1f40 4D595F49 		.ascii	"MY_ISR_USERBUTTON\000"
 15781      53525F55 
 15781      53455242 
 15781      5554544F 
 15781      4E00
 15782              	.LASF287:
 15783 1f52 4359424C 		.ascii	"CYBLE_EVT_ANSC_READ_CHAR_RESPONSE\000"
 15783      455F4556 
 15783      545F414E 
 15783      53435F52 
 15783      4541445F 
 15784              	.LASF438:
 15785 1f74 4359424C 		.ascii	"CYBLE_EVT_LNSC_READ_DESCR_RESPONSE\000"
 15785      455F4556 
 15785      545F4C4E 
 15785      53435F52 
 15785      4541445F 
 15786              	.LASF102:
 15787 1f97 4359424C 		.ascii	"CYBLE_ERROR_L2CAP_PSM_ALREADY_REGISTERED\000"
 15787      455F4552 
 15787      524F525F 
 15787      4C324341 
 15787      505F5053 
 15788              	.LASF563:
ARM GAS  C:\Users\Helon\AppData\Local\Temp\ccTLkFeM.s 			page 357


 15789 1fc0 4C4F4749 		.ascii	"LOGIN\000"
 15789      4E00
 15790              	.LASF417:
 15791 1fc6 4359424C 		.ascii	"CYBLE_EVT_HTSS_CHAR_WRITE\000"
 15791      455F4556 
 15791      545F4854 
 15791      53535F43 
 15791      4841525F 
 15792              	.LASF619:
 15793 1fe0 4C656449 		.ascii	"LedInit\000"
 15793      6E697400 
 15794              	.LASF634:
 15795 1fe8 526F6C65 		.ascii	"Role\000"
 15795      00
 15796              	.LASF36:
 15797 1fed 4359424C 		.ascii	"CYBLE_EVT_STACK_BUSY_STATUS\000"
 15797      455F4556 
 15797      545F5354 
 15797      41434B5F 
 15797      42555359 
 15798              	.LASF291:
 15799 2009 4359424C 		.ascii	"CYBLE_EVT_BASS_NOTIFICATION_ENABLED\000"
 15799      455F4556 
 15799      545F4241 
 15799      53535F4E 
 15799      4F544946 
 15800              	.LASF735:
 15801 202d 4379426C 		.ascii	"CyBle_GapDisconnect\000"
 15801      655F4761 
 15801      70446973 
 15801      636F6E6E 
 15801      65637400 
 15802              	.LASF364:
 15803 2041 4359424C 		.ascii	"CYBLE_EVT_CTSC_WRITE_CHAR_RESPONSE\000"
 15803      455F4556 
 15803      545F4354 
 15803      53435F57 
 15803      52495445 
 15804              	.LASF443:
 15805 2064 4359424C 		.ascii	"CYBLE_EVT_PASSS_WRITE_CHAR\000"
 15805      455F4556 
 15805      545F5041 
 15805      5353535F 
 15805      57524954 
 15806              	.LASF341:
 15807 207f 4359424C 		.ascii	"CYBLE_EVT_CPSC_WRITE_CHAR_RESPONSE\000"
 15807      455F4556 
 15807      545F4350 
 15807      53435F57 
 15807      52495445 
 15808              	.LASF711:
 15809 20a2 4379426C 		.ascii	"CyBle_Start\000"
 15809      655F5374 
 15809      61727400 
 15810              	.LASF47:
 15811 20ae 4359424C 		.ascii	"CYBLE_EVT_GAP_CONNECTION_UPDATE_COMPLETE\000"
 15811      455F4556 
ARM GAS  C:\Users\Helon\AppData\Local\Temp\ccTLkFeM.s 			page 358


 15811      545F4741 
 15811      505F434F 
 15811      4E4E4543 
 15812              	.LASF326:
 15813 20d7 4359424C 		.ascii	"CYBLE_EVT_CGMSC_READ_CHAR_RESPONSE\000"
 15813      455F4556 
 15813      545F4347 
 15813      4D53435F 
 15813      52454144 
 15814              	.LASF510:
 15815 20fa 4359424C 		.ascii	"CYBLE_STATE_INITIALIZING\000"
 15815      455F5354 
 15815      4154455F 
 15815      494E4954 
 15815      49414C49 
 15816              	.LASF694:
 15817 2113 53746174 		.ascii	"Status_LED_Write\000"
 15817      75735F4C 
 15817      45445F57 
 15817      72697465 
 15817      00
 15818              	.LASF614:
 15819 2124 736C6565 		.ascii	"sleepMode\000"
 15819      704D6F64 
 15819      6500
 15820              	.LASF183:
 15821 212e 4359424C 		.ascii	"CYBLE_GAP_AUTH_ERROR_REPEATED_ATTEMPTS\000"
 15821      455F4741 
 15821      505F4155 
 15821      54485F45 
 15821      52524F52 
 15822              	.LASF79:
 15823 2155 4359424C 		.ascii	"CYBLE_EVT_L2CAP_CBFC_DISCONN_IND\000"
 15823      455F4556 
 15823      545F4C32 
 15823      4341505F 
 15823      43424643 
 15824              	.LASF729:
 15825 2176 4379426C 		.ascii	"CyBle_GapUpdateAdvData\000"
 15825      655F4761 
 15825      70557064 
 15825      61746541 
 15825      64764461 
 15826              	.LASF350:
 15827 218d 4359424C 		.ascii	"CYBLE_EVT_CSCSS_CHAR_WRITE\000"
 15827      455F4556 
 15827      545F4353 
 15827      4353535F 
 15827      43484152 
 15828              	.LASF580:
 15829 21a8 4359424C 		.ascii	"CYBLE_DEVICE_INFO\000"
 15829      455F4445 
 15829      56494345 
 15829      5F494E46 
 15829      4F00
 15830              	.LASF583:
 15831 21ba 6C6F6361 		.ascii	"location\000"
ARM GAS  C:\Users\Helon\AppData\Local\Temp\ccTLkFeM.s 			page 359


 15831      74696F6E 
 15831      00
 15832              	.LASF628:
 15833 21c3 626C6553 		.ascii	"bleSsPwrLvl\000"
 15833      73507772 
 15833      4C766C00 
 15834              	.LASF457:
 15835 21cf 4359424C 		.ascii	"CYBLE_EVT_RSCSC_READ_CHAR_RESPONSE\000"
 15835      455F4556 
 15835      545F5253 
 15835      4353435F 
 15835      52454144 
 15836              	.LASF39:
 15837 21f2 4359424C 		.ascii	"CYBLE_EVT_GAP_PASSKEY_ENTRY_REQUEST\000"
 15837      455F4556 
 15837      545F4741 
 15837      505F5041 
 15837      53534B45 
 15838              	.LASF665:
 15839 2216 74657374 		.ascii	"testCount\000"
 15839      436F756E 
 15839      7400
 15840              	.LASF141:
 15841 2220 4359424C 		.ascii	"CYBLE_BLESS_PWR_LVL_T\000"
 15841      455F424C 
 15841      4553535F 
 15841      5057525F 
 15841      4C564C5F 
 15842              	.LASF622:
 15843 2236 6E6F7469 		.ascii	"notificationPacket\000"
 15843      66696361 
 15843      74696F6E 
 15843      5061636B 
 15843      657400
 15844              	.LASF432:
 15845 2249 4359424C 		.ascii	"CYBLE_EVT_LNSS_NOTIFICATION_DISABLED\000"
 15845      455F4556 
 15845      545F4C4E 
 15845      53535F4E 
 15845      4F544946 
 15846              	.LASF335:
 15847 226e 4359424C 		.ascii	"CYBLE_EVT_CPSS_BROADCAST_ENABLED\000"
 15847      455F4556 
 15847      545F4350 
 15847      53535F42 
 15847      524F4144 
 15848              	.LASF684:
 15849 228f 4379426C 		.ascii	"CyBle_GattcExchangeMtuReq\000"
 15849      655F4761 
 15849      74746345 
 15849      78636861 
 15849      6E67654D 
 15850              	.LASF638:
 15851 22a9 75617274 		.ascii	"uartTxData\000"
 15851      54784461 
 15851      746100
 15852              	.LASF537:
ARM GAS  C:\Users\Helon\AppData\Local\Temp\ccTLkFeM.s 			page 360


 15853 22b4 6D756C74 		.ascii	"multiprocAddrMask\000"
 15853      6970726F 
 15853      63416464 
 15853      724D6173 
 15853      6B00
 15854              	.LASF10:
 15855 22c6 5F5F7569 		.ascii	"__uint32_t\000"
 15855      6E743332 
 15855      5F7400
 15856              	.LASF687:
 15857 22d1 4379426C 		.ascii	"CyBle_GappAuthReqReply\000"
 15857      655F4761 
 15857      70704175 
 15857      74685265 
 15857      71526570 
 15858              	.LASF180:
 15859 22e8 4359424C 		.ascii	"CYBLE_GAP_AUTH_ERROR_INSUFFICIENT_ENCRYPTION_KEY_SI"
 15859      455F4741 
 15859      505F4155 
 15859      54485F45 
 15859      52524F52 
 15860 231b 5A4500   		.ascii	"ZE\000"
 15861              	.LASF605:
 15862 231e 61647644 		.ascii	"advDiscData\000"
 15862      69736344 
 15862      61746100 
 15863              	.LASF418:
 15864 232a 4359424C 		.ascii	"CYBLE_EVT_HTSC_NOTIFICATION\000"
 15864      455F4556 
 15864      545F4854 
 15864      53435F4E 
 15864      4F544946 
 15865              	.LASF12:
 15866 2346 6C6F6E67 		.ascii	"long long int\000"
 15866      206C6F6E 
 15866      6720696E 
 15866      7400
 15867              	.LASF722:
 15868 2354 4379426C 		.ascii	"CyBle_SetTxPowerLevel\000"
 15868      655F5365 
 15868      74547850 
 15868      6F776572 
 15868      4C657665 
 15869              	.LASF529:
 15870 236a 656E6162 		.ascii	"enableWake\000"
 15870      6C655761 
 15870      6B6500
 15871              	.LASF119:
 15872 2375 4359424C 		.ascii	"CYBLE_BLESS_DEEPSLEEP\000"
 15872      455F424C 
 15872      4553535F 
 15872      44454550 
 15872      534C4545 
 15873              	.LASF472:
 15874 238b 4359424C 		.ascii	"CYBLE_EVT_TPSC_READ_CHAR_RESPONSE\000"
 15874      455F4556 
 15874      545F5450 
ARM GAS  C:\Users\Helon\AppData\Local\Temp\ccTLkFeM.s 			page 361


 15874      53435F52 
 15874      4541445F 
 15875              	.LASF268:
 15876 23ad 4359424C 		.ascii	"CYBLE_EVT_GATTC_CHAR_DUPLICATION\000"
 15876      455F4556 
 15876      545F4741 
 15876      5454435F 
 15876      43484152 
 15877              	.LASF383:
 15878 23ce 4359424C 		.ascii	"CYBLE_EVT_GLSS_NOTIFICATION_ENABLED\000"
 15878      455F4556 
 15878      545F474C 
 15878      53535F4E 
 15878      4F544946 
 15879              	.LASF689:
 15880 23f2 54696D65 		.ascii	"Timer_Stop\000"
 15880      725F5374 
 15880      6F7000
 15881              	.LASF209:
 15882 23fd 61647650 		.ascii	"advParam\000"
 15882      6172616D 
 15882      00
 15883              	.LASF103:
 15884 2406 4359424C 		.ascii	"CYBLE_ERROR_L2CAP_PSM_NOT_REGISTERED\000"
 15884      455F4552 
 15884      524F525F 
 15884      4C324341 
 15884      505F5053 
 15885              	.LASF93:
 15886 242b 4359424C 		.ascii	"CYBLE_ERROR_OOB_NOT_AVAILABLE\000"
 15886      455F4552 
 15886      524F525F 
 15886      4F4F425F 
 15886      4E4F545F 
 15887              	.LASF318:
 15888 2449 4359424C 		.ascii	"CYBLE_EVT_CGMSS_INDICATION_ENABLED\000"
 15888      455F4556 
 15888      545F4347 
 15888      4D53535F 
 15888      494E4449 
 15889              	.LASF290:
 15890 246c 4359424C 		.ascii	"CYBLE_EVT_ANSC_WRITE_DESCR_RESPONSE\000"
 15890      455F4556 
 15890      545F414E 
 15890      53435F57 
 15890      52495445 
 15891              	.LASF0:
 15892 2490 646F7562 		.ascii	"double\000"
 15892      6C6500
 15893              	.LASF108:
 15894 2497 4359424C 		.ascii	"CYBLE_ERROR_DEVICE_ALREADY_EXISTS\000"
 15894      455F4552 
 15894      524F525F 
 15894      44455649 
 15894      43455F41 
 15895              	.LASF369:
 15896 24b9 4359424C 		.ascii	"CYBLE_EVT_ESSS_INDICATION_DISABLED\000"
ARM GAS  C:\Users\Helon\AppData\Local\Temp\ccTLkFeM.s 			page 362


 15896      455F4556 
 15896      545F4553 
 15896      53535F49 
 15896      4E444943 
 15897              	.LASF85:
 15898 24dc 4359424C 		.ascii	"CYBLE_EVT_PENDING_FLASH_WRITE\000"
 15898      455F4556 
 15898      545F5045 
 15898      4E44494E 
 15898      475F464C 
 15899              	.LASF271:
 15900 24fa 4359424C 		.ascii	"CYBLE_EVT_GATTC_INCL_DISCOVERY_COMPLETE\000"
 15900      455F4556 
 15900      545F4741 
 15900      5454435F 
 15900      494E434C 
 15901              	.LASF140:
 15902 2522 4359424C 		.ascii	"CYBLE_LL_PWR_LVL_MAX\000"
 15902      455F4C4C 
 15902      5F505752 
 15902      5F4C564C 
 15902      5F4D4158 
 15903              	.LASF489:
 15904 2537 4359424C 		.ascii	"CYBLE_EVT_WPTSS_NOTIFICATION_ENABLED\000"
 15904      455F4556 
 15904      545F5750 
 15904      5453535F 
 15904      4E4F5449 
 15905              	.LASF564:
 15906 255c 52535349 		.ascii	"RSSI\000"
 15906      00
 15907              	.LASF593:
 15908 2561 4164764D 		.ascii	"AdvMin\000"
 15908      696E00
 15909              	.LASF439:
 15910 2568 4359424C 		.ascii	"CYBLE_EVT_LNSC_WRITE_DESCR_RESPONSE\000"
 15910      455F4556 
 15910      545F4C4E 
 15910      53435F57 
 15910      52495445 
 15911              	.LASF197:
 15912 258c 64697265 		.ascii	"directAddrType\000"
 15912      63744164 
 15912      64725479 
 15912      706500
 15913              	.LASF730:
 15914 259b 57726974 		.ascii	"WriteUserSFlashRow\000"
 15914      65557365 
 15914      7253466C 
 15914      61736852 
 15914      6F7700
 15915              	.LASF426:
 15916 25ae 4359424C 		.ascii	"CYBLE_EVT_LLSC_READ_CHAR_RESPONSE\000"
 15916      455F4556 
 15916      545F4C4C 
 15916      53435F52 
 15916      4541445F 
ARM GAS  C:\Users\Helon\AppData\Local\Temp\ccTLkFeM.s 			page 363


 15917              	.LASF349:
 15918 25d0 4359424C 		.ascii	"CYBLE_EVT_CSCSS_INDICATION_CONFIRMATION\000"
 15918      455F4556 
 15918      545F4353 
 15918      4353535F 
 15918      494E4449 
 15919              	.LASF105:
 15920 25f8 4359424C 		.ascii	"CYBLE_ERROR_L2CAP_CHANNEL_NOT_FOUND\000"
 15920      455F4552 
 15920      524F525F 
 15920      4C324341 
 15920      505F4348 
 15921              	.LASF623:
 15922 261c 53656E64 		.ascii	"SendData_toSlave\000"
 15922      44617461 
 15922      5F746F53 
 15922      6C617665 
 15922      00
 15923              	.LASF96:
 15924 262d 4359424C 		.ascii	"CYBLE_ERROR_REPEATED_ATTEMPTS\000"
 15924      455F4552 
 15924      524F525F 
 15924      52455045 
 15924      41544544 
 15925              	.LASF373:
 15926 264b 4359424C 		.ascii	"CYBLE_EVT_ESSS_DESCR_WRITE\000"
 15926      455F4556 
 15926      545F4553 
 15926      53535F44 
 15926      45534352 
 15927              	.LASF368:
 15928 2666 4359424C 		.ascii	"CYBLE_EVT_ESSS_INDICATION_ENABLED\000"
 15928      455F4556 
 15928      545F4553 
 15928      53535F49 
 15928      4E444943 
 15929              	.LASF354:
 15930 2688 4359424C 		.ascii	"CYBLE_EVT_CSCSC_WRITE_CHAR_RESPONSE\000"
 15930      455F4556 
 15930      545F4353 
 15930      4353435F 
 15930      57524954 
 15931              	.LASF24:
 15932 26ac 666C6F61 		.ascii	"float\000"
 15932      7400
 15933              	.LASF466:
 15934 26b2 4359424C 		.ascii	"CYBLE_EVT_SCPSC_NOTIFICATION\000"
 15934      455F4556 
 15934      545F5343 
 15934      5053435F 
 15934      4E4F5449 
 15935              	.LASF395:
 15936 26cf 4359424C 		.ascii	"CYBLE_EVT_HIDSS_REPORT_MODE_ENTER\000"
 15936      455F4556 
 15936      545F4849 
 15936      4453535F 
 15936      5245504F 
ARM GAS  C:\Users\Helon\AppData\Local\Temp\ccTLkFeM.s 			page 364


 15937              	.LASF374:
 15938 26f1 4359424C 		.ascii	"CYBLE_EVT_ESSC_NOTIFICATION\000"
 15938      455F4556 
 15938      545F4553 
 15938      53435F4E 
 15938      4F544946 
 15939              	.LASF109:
 15940 270d 4359424C 		.ascii	"CYBLE_ERROR_FLASH_WRITE_NOT_PERMITED\000"
 15940      455F4552 
 15940      524F525F 
 15940      464C4153 
 15940      485F5752 
 15941              	.LASF393:
 15942 2732 4359424C 		.ascii	"CYBLE_EVT_HIDSS_NOTIFICATION_DISABLED\000"
 15942      455F4556 
 15942      545F4849 
 15942      4453535F 
 15942      4E4F5449 
 15943              	.LASF73:
 15944 2758 4359424C 		.ascii	"CYBLE_EVT_GATTS_READ_CHAR_VAL_ACCESS_REQ\000"
 15944      455F4556 
 15944      545F4741 
 15944      5454535F 
 15944      52454144 
 15945              	.LASF280:
 15946 2781 4359424C 		.ascii	"CYBLE_EVT_ANCSC_READ_DESCR_RESPONSE\000"
 15946      455F4556 
 15946      545F414E 
 15946      4353435F 
 15946      52454144 
 15947              	.LASF620:
 15948 27a5 53797374 		.ascii	"SystemInitialization\000"
 15948      656D496E 
 15948      69746961 
 15948      6C697A61 
 15948      74696F6E 
 15949              	.LASF646:
 15950 27ba 6379426C 		.ascii	"cyBle_state\000"
 15950      655F7374 
 15950      61746500 
 15951              	.LASF234:
 15952 27c6 61747472 		.ascii	"attrHandle\000"
 15952      48616E64 
 15952      6C6500
 15953              	.LASF483:
 15954 27d1 4359424C 		.ascii	"CYBLE_EVT_UDSC_NOTIFICATION\000"
 15954      455F4556 
 15954      545F5544 
 15954      53435F4E 
 15954      4F544946 
 15955              	.LASF497:
 15956 27ed 4359424C 		.ascii	"CYBLE_EVT_WPTSC_WRITE_CHAR_RESPONSE\000"
 15956      455F4556 
 15956      545F5750 
 15956      5453435F 
 15956      57524954 
 15957              	.LASF189:
ARM GAS  C:\Users\Helon\AppData\Local\Temp\ccTLkFeM.s 			page 365


 15958 2811 626F6E64 		.ascii	"bonding\000"
 15958      696E6700 
 15959              	.LASF243:
 15960 2819 4359424C 		.ascii	"CYBLE_GATTS_WRITE_REQ_PARAM_T\000"
 15960      455F4741 
 15960      5454535F 
 15960      57524954 
 15960      455F5245 
 15961              	.LASF14:
 15962 2837 756E7369 		.ascii	"unsigned int\000"
 15962      676E6564 
 15962      20696E74 
 15962      00
 15963              	.LASF65:
 15964 2844 4359424C 		.ascii	"CYBLE_EVT_GATTS_PREP_WRITE_REQ\000"
 15964      455F4556 
 15964      545F4741 
 15964      5454535F 
 15964      50524550 
 15965              	.LASF736:
 15966 2863 4379426C 		.ascii	"CyBle_GetRssi\000"
 15966      655F4765 
 15966      74527373 
 15966      6900
 15967              	.LASF358:
 15968 2871 4359424C 		.ascii	"CYBLE_EVT_CTSS_NOTIFICATION_DISABLED\000"
 15968      455F4556 
 15968      545F4354 
 15968      53535F4E 
 15968      4F544946 
 15969              	.LASF484:
 15970 2896 4359424C 		.ascii	"CYBLE_EVT_UDSC_READ_CHAR_RESPONSE\000"
 15970      455F4556 
 15970      545F5544 
 15970      53435F52 
 15970      4541445F 
 15971              	.LASF305:
 15972 28b8 4359424C 		.ascii	"CYBLE_EVT_BLSS_INDICATION_DISABLED\000"
 15972      455F4556 
 15972      545F424C 
 15972      53535F49 
 15972      4E444943 
 15973              	.LASF611:
 15974 28db 77726974 		.ascii	"writeParam\000"
 15974      65506172 
 15974      616D00
 15975              	.LASF143:
 15976 28e6 4359424C 		.ascii	"CYBLE_LL_CONN_CH_TYPE\000"
 15976      455F4C4C 
 15976      5F434F4E 
 15976      4E5F4348 
 15976      5F545950 
 15977              	.LASF464:
 15978 28fc 4359424C 		.ascii	"CYBLE_EVT_SCPSS_NOTIFICATION_DISABLED\000"
 15978      455F4556 
 15978      545F5343 
 15978      5053535F 
ARM GAS  C:\Users\Helon\AppData\Local\Temp\ccTLkFeM.s 			page 366


 15978      4E4F5449 
 15979              	.LASF669:
 15980 2922 41555448 		.ascii	"AUTHFLAG\000"
 15980      464C4147 
 15980      00
 15981              	.LASF540:
 15982 292b 72785472 		.ascii	"rxTriggerLevel\000"
 15982      69676765 
 15982      724C6576 
 15982      656C00
 15983              	.LASF370:
 15984 293a 4359424C 		.ascii	"CYBLE_EVT_ESSS_INDICATION_CONFIRMATION\000"
 15984      455F4556 
 15984      545F4553 
 15984      53535F49 
 15984      4E444943 
 15985              	.LASF256:
 15986 2961 4359424C 		.ascii	"CYBLE_AUTHENTICATION_REQUEST_REPLY\000"
 15986      455F4155 
 15986      5448454E 
 15986      54494341 
 15986      54494F4E 
 15987              	.LASF690:
 15988 2984 54696D65 		.ascii	"Timer_ClearInterrupt\000"
 15988      725F436C 
 15988      65617249 
 15988      6E746572 
 15988      72757074 
 15989              	.LASF101:
 15990 2999 4359424C 		.ascii	"CYBLE_ERROR_L2CAP_PSM_WRONG_ENCODING\000"
 15990      455F4552 
 15990      524F525F 
 15990      4C324341 
 15990      505F5053 
 15991              	.LASF444:
 15992 29be 4359424C 		.ascii	"CYBLE_EVT_PASSC_NOTIFICATION\000"
 15992      455F4556 
 15992      545F5041 
 15992      5353435F 
 15992      4E4F5449 
 15993              	.LASF746:
 15994 29db 474E5520 		.ascii	"GNU C 4.9.3 20150303 (release) [ARM/embedded-4_9-br"
 15994      4320342E 
 15994      392E3320 
 15994      32303135 
 15994      30333033 
 15995 2a0e 616E6368 		.ascii	"anch revision 221220] -mcpu=cortex-m0 -mthumb -g -O"
 15995      20726576 
 15995      6973696F 
 15995      6E203232 
 15995      31323230 
 15996 2a41 73202D66 		.ascii	"s -ffunction-sections -ffat-lto-objects\000"
 15996      66756E63 
 15996      74696F6E 
 15996      2D736563 
 15996      74696F6E 
 15997              	.LASF308:
ARM GAS  C:\Users\Helon\AppData\Local\Temp\ccTLkFeM.s 			page 367


 15998 2a69 4359424C 		.ascii	"CYBLE_EVT_BLSS_NOTIFICATION_DISABLED\000"
 15998      455F4556 
 15998      545F424C 
 15998      53535F4E 
 15998      4F544946 
 15999              	.LASF553:
 16000 2a8e 4C414444 		.ascii	"LADDR\000"
 16000      5200
 16001              	.LASF421:
 16002 2a94 4359424C 		.ascii	"CYBLE_EVT_HTSC_WRITE_CHAR_RESPONSE\000"
 16002      455F4556 
 16002      545F4854 
 16002      53435F57 
 16002      52495445 
 16003              	.LASF249:
 16004 2ab7 6C697374 		.ascii	"list\000"
 16004      00
 16005              	.LASF87:
 16006 2abc 4359424C 		.ascii	"CYBLE_EVT_MAX\000"
 16006      455F4556 
 16006      545F4D41 
 16006      5800
 16007              	.LASF48:
 16008 2aca 4359424C 		.ascii	"CYBLE_EVT_GAPC_SCAN_START_STOP\000"
 16008      455F4556 
 16008      545F4741 
 16008      50435F53 
 16008      43414E5F 
 16009              	.LASF558:
 16010 2ae9 434F4E4E 		.ascii	"CONNI\000"
 16010      4900
 16011              	.LASF283:
 16012 2aef 4359424C 		.ascii	"CYBLE_EVT_ANSS_NOTIFICATION_ENABLED\000"
 16012      455F4556 
 16012      545F414E 
 16012      53535F4E 
 16012      4F544946 
 16013              	.LASF161:
 16014 2b13 4359424C 		.ascii	"CYBLE_GAPP_ADV_T\000"
 16014      455F4741 
 16014      50505F41 
 16014      44565F54 
 16014      00
 16015              	.LASF187:
 16016 2b24 4359424C 		.ascii	"CYBLE_GAP_AUTH_FAILED_REASON_T\000"
 16016      455F4741 
 16016      505F4155 
 16016      54485F46 
 16016      41494C45 
 16017              	.LASF62:
 16018 2b43 4359424C 		.ascii	"CYBLE_EVT_GATTS_WRITE_REQ\000"
 16018      455F4556 
 16018      545F4741 
 16018      5454535F 
 16018      57524954 
 16019              	.LASF667:
 16020 2b5d 436F6E6E 		.ascii	"ConnParam\000"
ARM GAS  C:\Users\Helon\AppData\Local\Temp\ccTLkFeM.s 			page 368


 16020      50617261 
 16020      6D00
 16021              	.LASF202:
 16022 2b67 61647644 		.ascii	"advData\000"
 16022      61746100 
 16023              	.LASF584:
 16024 2b6f 53747269 		.ascii	"String\000"
 16024      6E6700
 16025              	.LASF71:
 16026 2b76 4359424C 		.ascii	"CYBLE_EVT_GATTS_DATA_SIGNED_CMD_REQ\000"
 16026      455F4556 
 16026      545F4741 
 16026      5454535F 
 16026      44415441 
 16027              	.LASF532:
 16028 2b9a 74784275 		.ascii	"txBufferSize\000"
 16028      66666572 
 16028      53697A65 
 16028      00
 16029              	.LASF485:
 16030 2ba7 4359424C 		.ascii	"CYBLE_EVT_UDSC_WRITE_CHAR_RESPONSE\000"
 16030      455F4556 
 16030      545F5544 
 16030      53435F57 
 16030      52495445 
 16031              	.LASF640:
 16032 2bca 75617274 		.ascii	"uartIdleCount\000"
 16032      49646C65 
 16032      436F756E 
 16032      7400
 16033              	.LASF496:
 16034 2bd8 4359424C 		.ascii	"CYBLE_EVT_WPTSC_INDICATION\000"
 16034      455F4556 
 16034      545F5750 
 16034      5453435F 
 16034      494E4449 
 16035              	.LASF575:
 16036 2bf3 44657669 		.ascii	"DeviceAddr\000"
 16036      63654164 
 16036      647200
 16037              	.LASF40:
 16038 2bfe 4359424C 		.ascii	"CYBLE_EVT_GAP_PASSKEY_DISPLAY_REQUEST\000"
 16038      455F4556 
 16038      545F4741 
 16038      505F5041 
 16038      53534B45 
 16039              	.LASF113:
 16040 2c24 4359424C 		.ascii	"CYBLE_ERROR_IND_DISABLED\000"
 16040      455F4552 
 16040      524F525F 
 16040      494E445F 
 16040      44495341 
 16041              	.LASF112:
 16042 2c3d 4359424C 		.ascii	"CYBLE_ERROR_NTF_DISABLED\000"
 16042      455F4552 
 16042      524F525F 
 16042      4E54465F 
ARM GAS  C:\Users\Helon\AppData\Local\Temp\ccTLkFeM.s 			page 369


 16042      44495341 
 16043              	.LASF738:
 16044 2c56 4379426C 		.ascii	"CyBle_GapAuthReq\000"
 16044      655F4761 
 16044      70417574 
 16044      68526571 
 16044      00
 16045              	.LASF586:
 16046 2c67 436F6E6E 		.ascii	"Connect_Device\000"
 16046      6563745F 
 16046      44657669 
 16046      636500
 16047              	.LASF659:
 16048 2c76 54726F75 		.ascii	"TroughtTest_Flag\000"
 16048      67687454 
 16048      6573745F 
 16048      466C6167 
 16048      00
 16049              	.LASF59:
 16050 2c87 4359424C 		.ascii	"CYBLE_EVT_GATTC_READ_RSP\000"
 16050      455F4556 
 16050      545F4741 
 16050      5454435F 
 16050      52454144 
 16051              	.LASF157:
 16052 2ca0 4359424C 		.ascii	"CYBLE_GAPP_CONNECTABLE_HIGH_DC_DIRECTED_ADV\000"
 16052      455F4741 
 16052      50505F43 
 16052      4F4E4E45 
 16052      43544142 
 16053              	.LASF365:
 16054 2ccc 4359424C 		.ascii	"CYBLE_EVT_DISC_READ_CHAR_RESPONSE\000"
 16054      455F4556 
 16054      545F4449 
 16054      53435F52 
 16054      4541445F 
 16055              	.LASF78:
 16056 2cee 4359424C 		.ascii	"CYBLE_EVT_L2CAP_CBFC_CONN_CNF\000"
 16056      455F4556 
 16056      545F4C32 
 16056      4341505F 
 16056      43424643 
 16057              	.LASF316:
 16058 2d0c 4359424C 		.ascii	"CYBLE_EVT_BMSC_WRITE_CHAR_RESPONSE\000"
 16058      455F4556 
 16058      545F424D 
 16058      53435F57 
 16058      52495445 
 16059              	.LASF422:
 16060 2d2f 4359424C 		.ascii	"CYBLE_EVT_HTSC_READ_DESCR_RESPONSE\000"
 16060      455F4556 
 16060      545F4854 
 16060      53435F52 
 16060      4541445F 
 16061              	.LASF508:
 16062 2d52 4359424C 		.ascii	"CYBLE_DEBUG_EVT_BLESS_INT\000"
 16062      455F4445 
ARM GAS  C:\Users\Helon\AppData\Local\Temp\ccTLkFeM.s 			page 370


 16062      4255475F 
 16062      4556545F 
 16062      424C4553 
 16063              	.LASF385:
 16064 2d6c 4359424C 		.ascii	"CYBLE_EVT_GLSS_WRITE_CHAR\000"
 16064      455F4556 
 16064      545F474C 
 16064      53535F57 
 16064      52495445 
 16065              	.LASF492:
 16066 2d86 4359424C 		.ascii	"CYBLE_EVT_WPTSS_INDICATION_DISABLED\000"
 16066      455F4556 
 16066      545F5750 
 16066      5453535F 
 16066      494E4449 
 16067              	.LASF210:
 16068 2daa 61647654 		.ascii	"advTo\000"
 16068      6F00
 16069              	.LASF715:
 16070 2db0 7374726E 		.ascii	"strncmp\000"
 16070      636D7000 
 16071              	.LASF321:
 16072 2db8 4359424C 		.ascii	"CYBLE_EVT_CGMSS_NOTIFICATION_ENABLED\000"
 16072      455F4556 
 16072      545F4347 
 16072      4D53535F 
 16072      4E4F5449 
 16073              	.LASF134:
 16074 2ddd 4359424C 		.ascii	"CYBLE_LL_PWR_LVL_NEG_6_DBM\000"
 16074      455F4C4C 
 16074      5F505752 
 16074      5F4C564C 
 16074      5F4E4547 
 16075              	.LASF254:
 16076 2df8 4359424C 		.ascii	"CYBLE_GATTC_FIND_INFO_RSP_PARAM_T\000"
 16076      455F4741 
 16076      5454435F 
 16076      46494E44 
 16076      5F494E46 
 16077              	.LASF407:
 16078 2e1a 4359424C 		.ascii	"CYBLE_EVT_HRSC_NOTIFICATION\000"
 16078      455F4556 
 16078      545F4852 
 16078      53435F4E 
 16078      4F544946 
 16079              	.LASF453:
 16080 2e36 4359424C 		.ascii	"CYBLE_EVT_RSCSS_INDICATION_CONFIRMATION\000"
 16080      455F4556 
 16080      545F5253 
 16080      4353535F 
 16080      494E4449 
 16081              	.LASF601:
 16082 2e5e 41647650 		.ascii	"AdvParam\000"
 16082      6172616D 
 16082      00
 16083              	.LASF685:
 16084 2e67 4379426C 		.ascii	"CyBle_GattsExchangeMtuRsp\000"
ARM GAS  C:\Users\Helon\AppData\Local\Temp\ccTLkFeM.s 			page 371


 16084      655F4761 
 16084      74747345 
 16084      78636861 
 16084      6E67654D 
 16085              	.LASF402:
 16086 2e81 4359424C 		.ascii	"CYBLE_EVT_HIDSC_READ_DESCR_RESPONSE\000"
 16086      455F4556 
 16086      545F4849 
 16086      4453435F 
 16086      52454144 
 16087              	.LASF408:
 16088 2ea5 4359424C 		.ascii	"CYBLE_EVT_HRSC_READ_CHAR_RESPONSE\000"
 16088      455F4556 
 16088      545F4852 
 16088      53435F52 
 16088      4541445F 
 16089              	.LASF293:
 16090 2ec7 4359424C 		.ascii	"CYBLE_EVT_BASC_NOTIFICATION\000"
 16090      455F4556 
 16090      545F4241 
 16090      53435F4E 
 16090      4F544946 
 16091              	.LASF174:
 16092 2ee3 4359424C 		.ascii	"CYBLE_GAP_AUTH_ERROR_NONE\000"
 16092      455F4741 
 16092      505F4155 
 16092      54485F45 
 16092      52524F52 
 16093              	.LASF46:
 16094 2efd 4359424C 		.ascii	"CYBLE_EVT_GAP_ENCRYPT_CHANGE\000"
 16094      455F4556 
 16094      545F4741 
 16094      505F454E 
 16094      43525950 
 16095              	.LASF477:
 16096 2f1a 4359424C 		.ascii	"CYBLE_EVT_UDSS_INDICATION_CONFIRMED\000"
 16096      455F4556 
 16096      545F5544 
 16096      53535F49 
 16096      4E444943 
 16097              	.LASF641:
 16098 2f3e 75617274 		.ascii	"uartTxDataNtf\000"
 16098      54784461 
 16098      74614E74 
 16098      6600
 16099              	.LASF571:
 16100 2f4c 494F4341 		.ascii	"IOCAP\000"
 16100      5000
 16101              	.LASF440:
 16102 2f52 4359424C 		.ascii	"CYBLE_EVT_NDCSC_READ_CHAR_RESPONSE\000"
 16102      455F4556 
 16102      545F4E44 
 16102      4353435F 
 16102      52454144 
 16103              	.LASF706:
 16104 2f75 4354535F 		.ascii	"CTS_SetDriveMode\000"
 16104      53657444 
ARM GAS  C:\Users\Helon\AppData\Local\Temp\ccTLkFeM.s 			page 372


 16104      72697665 
 16104      4D6F6465 
 16104      00
 16105              	.LASF269:
 16106 2f86 4359424C 		.ascii	"CYBLE_EVT_GATTC_DESCR_DUPLICATION\000"
 16106      455F4556 
 16106      545F4741 
 16106      5454435F 
 16106      44455343 
 16107              	.LASF750:
 16108 2fa8 5F5F6275 		.ascii	"__builtin_puts\000"
 16108      696C7469 
 16108      6E5F7075 
 16108      747300
 16109              	.LASF740:
 16110 2fb7 55415254 		.ascii	"UART_UartGetByte\000"
 16110      5F556172 
 16110      74476574 
 16110      42797465 
 16110      00
 16111              	.LASF53:
 16112 2fc8 4359424C 		.ascii	"CYBLE_EVT_GATTS_XCNHG_MTU_REQ\000"
 16112      455F4556 
 16112      545F4741 
 16112      5454535F 
 16112      58434E48 
 16113              	.LASF478:
 16114 2fe6 4359424C 		.ascii	"CYBLE_EVT_UDSS_NOTIFICATION_ENABLED\000"
 16114      455F4556 
 16114      545F5544 
 16114      53535F4E 
 16114      4F544946 
 16115              	.LASF652:
 16116 300a 4C6F7750 		.ascii	"LowPower_EN\000"
 16116      6F776572 
 16116      5F454E00 
 16117              	.LASF176:
 16118 3016 4359424C 		.ascii	"CYBLE_GAP_AUTH_ERROR_OOB_DATA_NOT_AVAILABLE\000"
 16118      455F4741 
 16118      505F4155 
 16118      54485F45 
 16118      52524F52 
 16119              	.LASF535:
 16120 3042 6D756C74 		.ascii	"multiprocAcceptAddr\000"
 16120      6970726F 
 16120      63416363 
 16120      65707441 
 16120      64647200 
 16121              	.LASF28:
 16122 3056 63796973 		.ascii	"cyisraddress\000"
 16122      72616464 
 16122      72657373 
 16122      00
 16123              	.LASF430:
 16124 3063 4359424C 		.ascii	"CYBLE_EVT_LNSS_INDICATION_CONFIRMED\000"
 16124      455F4556 
 16124      545F4C4E 
ARM GAS  C:\Users\Helon\AppData\Local\Temp\ccTLkFeM.s 			page 373


 16124      53535F49 
 16124      4E444943 
 16125              	.LASF631:
 16126 3087 70625372 		.ascii	"pbSrc\000"
 16126      6300
 16127              	.LASF502:
 16128 308d 4359424C 		.ascii	"CYBLE_EVT_WSSS_INDICATION_DISABLED\000"
 16128      455F4556 
 16128      545F5753 
 16128      53535F49 
 16128      4E444943 
 16129              	.LASF246:
 16130 30b0 4359424C 		.ascii	"CYBLE_GATTC_WRITE_CMD_REQ_T\000"
 16130      455F4741 
 16130      5454435F 
 16130      57524954 
 16130      455F434D 
 16131              	.LASF436:
 16132 30cc 4359424C 		.ascii	"CYBLE_EVT_LNSC_READ_CHAR_RESPONSE\000"
 16132      455F4556 
 16132      545F4C4E 
 16132      53435F52 
 16132      4541445F 
 16133              	.LASF3:
 16134 30ee 5F5F696E 		.ascii	"__int8_t\000"
 16134      74385F74 
 16134      00
 16135              	.LASF117:
 16136 30f7 4359424C 		.ascii	"CYBLE_BLESS_ACTIVE\000"
 16136      455F424C 
 16136      4553535F 
 16136      41435449 
 16136      564500
 16137              	.LASF226:
 16138 310a 4359424C 		.ascii	"CYBLE_GAP_CONN_PARAM_UPDATED_IN_CONTROLLER_T\000"
 16138      455F4741 
 16138      505F434F 
 16138      4E4E5F50 
 16138      4152414D 
 16139              	.LASF516:
 16140 3137 4359424C 		.ascii	"CYBLE_STATE_T\000"
 16140      455F5354 
 16140      4154455F 
 16140      5400
 16141              	.LASF627:
 16142 3145 5478506F 		.ascii	"TxPower_Handler\000"
 16142      7765725F 
 16142      48616E64 
 16142      6C657200 
 16143              	.LASF649:
 16144 3155 44657669 		.ascii	"DeviceCount\000"
 16144      6365436F 
 16144      756E7400 
 16145              	.LASF260:
 16146 3161 4359424C 		.ascii	"CYBLE_EVT_GATTS_INDICATION_ENABLED\000"
 16146      455F4556 
 16146      545F4741 
ARM GAS  C:\Users\Helon\AppData\Local\Temp\ccTLkFeM.s 			page 374


 16146      5454535F 
 16146      494E4449 
 16147              	.LASF13:
 16148 3184 6C6F6E67 		.ascii	"long long unsigned int\000"
 16148      206C6F6E 
 16148      6720756E 
 16148      7369676E 
 16148      65642069 
 16149              	.LASF698:
 16150 319b 43794465 		.ascii	"CyDelay\000"
 16150      6C617900 
 16151              	.LASF33:
 16152 31a3 4359424C 		.ascii	"CYBLE_EVT_TIMEOUT\000"
 16152      455F4556 
 16152      545F5449 
 16152      4D454F55 
 16152      5400
 16153              	.LASF362:
 16154 31b5 4359424C 		.ascii	"CYBLE_EVT_CTSC_READ_DESCR_RESPONSE\000"
 16154      455F4556 
 16154      545F4354 
 16154      53435F52 
 16154      4541445F 
 16155              	.LASF676:
 16156 31d8 53544F50 		.ascii	"STOP_SCAN_FLAG\000"
 16156      5F534341 
 16156      4E5F464C 
 16156      414700
 16157              	.LASF18:
 16158 31e7 75696E74 		.ascii	"uint16_t\000"
 16158      31365F74 
 16158      00
 16159              	.LASF27:
 16160 31f0 72656733 		.ascii	"reg32\000"
 16160      3200
 16161              	.LASF567:
 16162 31f6 4E4F5449 		.ascii	"NOTIFY\000"
 16162      465900
 16163              	.LASF252:
 16164 31fd 68616E64 		.ascii	"handleValueList\000"
 16164      6C655661 
 16164      6C75654C 
 16164      69737400 
 16165              	.LASF527:
 16166 320d 64726F70 		.ascii	"dropOnParityErr\000"
 16166      4F6E5061 
 16166      72697479 
 16166      45727200 
 16167              	.LASF115:
 16168 321d 4359424C 		.ascii	"CYBLE_ERROR_INVALID_STATE\000"
 16168      455F4552 
 16168      524F525F 
 16168      494E5641 
 16168      4C49445F 
 16169              	.LASF227:
 16170 3237 4359424C 		.ascii	"CYBLE_GATT_DB_ATTR_HANDLE_T\000"
 16170      455F4741 
ARM GAS  C:\Users\Helon\AppData\Local\Temp\ccTLkFeM.s 			page 375


 16170      54545F44 
 16170      425F4154 
 16170      54525F48 
 16171              	.LASF523:
 16172 3253 656E6162 		.ascii	"enableIrdaLowPower\000"
 16172      6C654972 
 16172      64614C6F 
 16172      77506F77 
 16172      657200
 16173              	.LASF81:
 16174 3266 4359424C 		.ascii	"CYBLE_EVT_L2CAP_CBFC_DATA_READ\000"
 16174      455F4556 
 16174      545F4C32 
 16174      4341505F 
 16174      43424643 
 16175              	.LASF302:
 16176 3285 4359424C 		.ascii	"CYBLE_EVT_BCSC_READ_DESCR_RESPONSE\000"
 16176      455F4556 
 16176      545F4243 
 16176      53435F52 
 16176      4541445F 
 16177              	.LASF233:
 16178 32a8 76616C75 		.ascii	"value\000"
 16178      6500
 16179              	.LASF338:
 16180 32ae 4359424C 		.ascii	"CYBLE_EVT_CPSC_NOTIFICATION\000"
 16180      455F4556 
 16180      545F4350 
 16180      53435F4E 
 16180      4F544946 
 16181              	.LASF313:
 16182 32ca 4359424C 		.ascii	"CYBLE_EVT_BLSC_WRITE_DESCR_RESPONSE\000"
 16182      455F4556 
 16182      545F424C 
 16182      53435F57 
 16182      52495445 
 16183              	.LASF657:
 16184 32ee 436F6E6E 		.ascii	"Conn_or_Disconn_Idx\000"
 16184      5F6F725F 
 16184      44697363 
 16184      6F6E6E5F 
 16184      49647800 
 16185              	.LASF691:
 16186 3302 4379426C 		.ascii	"CyBle_EnterLPM\000"
 16186      655F456E 
 16186      7465724C 
 16186      504D00
 16187              	.LASF664:
 16188 3311 436F6D6D 		.ascii	"CommandMode\000"
 16188      616E644D 
 16188      6F646500 
 16189              	.LASF435:
 16190 331d 4359424C 		.ascii	"CYBLE_EVT_LNSC_NOTIFICATION\000"
 16190      455F4556 
 16190      545F4C4E 
 16190      53435F4E 
 16190      4F544946 
ARM GAS  C:\Users\Helon\AppData\Local\Temp\ccTLkFeM.s 			page 376


 16191              	.LASF639:
 16192 3339 75617274 		.ascii	"uartTxDataLength\000"
 16192      54784461 
 16192      74614C65 
 16192      6E677468 
 16192      00
 16193              	.LASF590:
 16194 334a 44495649 		.ascii	"DIVIDER_CLOCK\000"
 16194      4445525F 
 16194      434C4F43 
 16194      4B00
 16195              	.LASF360:
 16196 3358 4359424C 		.ascii	"CYBLE_EVT_CTSC_NOTIFICATION\000"
 16196      455F4556 
 16196      545F4354 
 16196      53435F4E 
 16196      4F544946 
 16197              	.LASF675:
 16198 3374 53747269 		.ascii	"StringArry\000"
 16198      6E674172 
 16198      727900
 16199              	.LASF686:
 16200 337f 55415254 		.ascii	"UART_SpiUartWriteTxData\000"
 16200      5F537069 
 16200      55617274 
 16200      57726974 
 16200      65547844 
 16201              	.LASF381:
 16202 3397 4359424C 		.ascii	"CYBLE_EVT_GLSS_INDICATION_DISABLED\000"
 16202      455F4556 
 16202      545F474C 
 16202      53535F49 
 16202      4E444943 
 16203              	.LASF153:
 16204 33ba 4359424C 		.ascii	"CYBLE_GAP_SCAN_TO\000"
 16204      455F4741 
 16204      505F5343 
 16204      414E5F54 
 16204      4F00
 16205              	.LASF163:
 16206 33cc 4359424C 		.ascii	"CYBLE_GAPC_CONN_DIRECTED_ADV\000"
 16206      455F4741 
 16206      50435F43 
 16206      4F4E4E5F 
 16206      44495245 
 16207              	.LASF267:
 16208 33e9 4359424C 		.ascii	"CYBLE_EVT_GATTC_SRVC_DUPLICATION\000"
 16208      455F4556 
 16208      545F4741 
 16208      5454435F 
 16208      53525643 
 16209              	.LASF734:
 16210 340a 5363616E 		.ascii	"ScanDeviceInfoInit\000"
 16210      44657669 
 16210      6365496E 
 16210      666F496E 
 16210      697400
ARM GAS  C:\Users\Helon\AppData\Local\Temp\ccTLkFeM.s 			page 377


 16211              	.LASF428:
 16212 341d 4359424C 		.ascii	"CYBLE_EVT_LNSS_INDICATION_ENABLED\000"
 16212      455F4556 
 16212      545F4C4E 
 16212      53535F49 
 16212      4E444943 
 16213              	.LASF151:
 16214 343f 4359424C 		.ascii	"CYBLE_GAP_BD_ADDR_T\000"
 16214      455F4741 
 16214      505F4244 
 16214      5F414444 
 16214      525F5400 
 16215              	.LASF409:
 16216 3453 4359424C 		.ascii	"CYBLE_EVT_HRSC_WRITE_CHAR_RESPONSE\000"
 16216      455F4556 
 16216      545F4852 
 16216      53435F57 
 16216      52495445 
 16217              	.LASF610:
 16218 3476 68616E64 		.ascii	"handleValueNotification\000"
 16218      6C655661 
 16218      6C75654E 
 16218      6F746966 
 16218      69636174 
 16219              	.LASF653:
 16220 348e 52585F42 		.ascii	"RX_BUFFER\000"
 16220      55464645 
 16220      5200
 16221              	.LASF683:
 16222 3498 4379426C 		.ascii	"CyBle_GapcConnectionParamUpdateRequest\000"
 16222      655F4761 
 16222      7063436F 
 16222      6E6E6563 
 16222      74696F6E 
 16223              	.LASF723:
 16224 34bf 6D656D73 		.ascii	"memset\000"
 16224      657400
 16225              	.LASF152:
 16226 34c6 4359424C 		.ascii	"CYBLE_GAP_ADV_MODE_TO\000"
 16226      455F4741 
 16226      505F4144 
 16226      565F4D4F 
 16226      44455F54 
 16227              	.LASF441:
 16228 34dc 4359424C 		.ascii	"CYBLE_EVT_PASSS_NOTIFICATION_ENABLED\000"
 16228      455F4556 
 16228      545F5041 
 16228      5353535F 
 16228      4E4F5449 
 16229              	.LASF242:
 16230 3501 68616E64 		.ascii	"handleValPair\000"
 16230      6C655661 
 16230      6C506169 
 16230      7200
 16231              	.LASF275:
 16232 350f 4359424C 		.ascii	"CYBLE_EVT_ANCSS_NOTIFICATION_DISABLED\000"
 16232      455F4556 
ARM GAS  C:\Users\Helon\AppData\Local\Temp\ccTLkFeM.s 			page 378


 16232      545F414E 
 16232      4353535F 
 16232      4E4F5449 
 16233              	.LASF608:
 16234 3535 5363616E 		.ascii	"Scan_Result\000"
 16234      5F526573 
 16234      756C7400 
 16235              	.LASF239:
 16236 3541 636F6E6E 		.ascii	"connHandle\000"
 16236      48616E64 
 16236      6C6500
 16237              	.LASF6:
 16238 354c 5F5F696E 		.ascii	"__int16_t\000"
 16238      7431365F 
 16238      7400
 16239              	.LASF549:
 16240 3556 52455345 		.ascii	"RESET\000"
 16240      5400
 16241              	.LASF292:
 16242 355c 4359424C 		.ascii	"CYBLE_EVT_BASS_NOTIFICATION_DISABLED\000"
 16242      455F4556 
 16242      545F4241 
 16242      53535F4E 
 16242      4F544946 
 16243              	.LASF203:
 16244 3581 61647644 		.ascii	"advDataLen\000"
 16244      6174614C 
 16244      656E00
 16245              	.LASF403:
 16246 358c 4359424C 		.ascii	"CYBLE_EVT_HIDSC_WRITE_DESCR_RESPONSE\000"
 16246      455F4556 
 16246      545F4849 
 16246      4453435F 
 16246      57524954 
 16247              	.LASF330:
 16248 35b1 4359424C 		.ascii	"CYBLE_EVT_CPSS_NOTIFICATION_ENABLED\000"
 16248      455F4556 
 16248      545F4350 
 16248      53535F4E 
 16248      4F544946 
 16249              	.LASF179:
 16250 35d5 4359424C 		.ascii	"CYBLE_GAP_AUTH_ERROR_PAIRING_NOT_SUPPORTED\000"
 16250      455F4741 
 16250      505F4155 
 16250      54485F45 
 16250      52524F52 
 16251              	.LASF538:
 16252 3600 656E6162 		.ascii	"enableInterrupt\000"
 16252      6C65496E 
 16252      74657272 
 16252      75707400 
 16253              	.LASF473:
 16254 3610 4359424C 		.ascii	"CYBLE_EVT_TPSC_READ_DESCR_RESPONSE\000"
 16254      455F4556 
 16254      545F5450 
 16254      53435F52 
 16254      4541445F 
ARM GAS  C:\Users\Helon\AppData\Local\Temp\ccTLkFeM.s 			page 379


 16255              	.LASF155:
 16256 3633 4359424C 		.ascii	"CYBLE_GENERIC_TO\000"
 16256      455F4745 
 16256      4E455249 
 16256      435F544F 
 16256      00
 16257              	.LASF211:
 16258 3644 4359424C 		.ascii	"CYBLE_GAPP_DISC_MODE_INFO_T\000"
 16258      455F4741 
 16258      50505F44 
 16258      4953435F 
 16258      4D4F4445 
 16259              	.LASF656:
 16260 3660 436F6E6E 		.ascii	"Conn_Or_Disconn_Info\000"
 16260      5F4F725F 
 16260      44697363 
 16260      6F6E6E5F 
 16260      496E666F 
 16261              	.LASF488:
 16262 3675 4359424C 		.ascii	"CYBLE_EVT_UDSC_ERROR_RESPONSE\000"
 16262      455F4556 
 16262      545F5544 
 16262      53435F45 
 16262      52524F52 
 16263              	.LASF57:
 16264 3693 4359424C 		.ascii	"CYBLE_EVT_GATTC_FIND_INFO_RSP\000"
 16264      455F4556 
 16264      545F4741 
 16264      5454435F 
 16264      46494E44 
 16265              	.LASF56:
 16266 36b1 4359424C 		.ascii	"CYBLE_EVT_GATTC_READ_BY_TYPE_RSP\000"
 16266      455F4556 
 16266      545F4741 
 16266      5454435F 
 16266      52454144 
 16267              	.LASF442:
 16268 36d2 4359424C 		.ascii	"CYBLE_EVT_PASSS_NOTIFICATION_DISABLED\000"
 16268      455F4556 
 16268      545F5041 
 16268      5353535F 
 16268      4E4F5449 
 16269              	.LASF328:
 16270 36f8 4359424C 		.ascii	"CYBLE_EVT_CGMSC_READ_DESCR_RESPONSE\000"
 16270      455F4556 
 16270      545F4347 
 16270      4D53435F 
 16270      52454144 
 16271              	.LASF713:
 16272 371c 6D616C6C 		.ascii	"malloc\000"
 16272      6F6300
 16273              	.LASF400:
 16274 3723 4359424C 		.ascii	"CYBLE_EVT_HIDSC_READ_CHAR_RESPONSE\000"
 16274      455F4556 
 16274      545F4849 
 16274      4453435F 
 16274      52454144 
ARM GAS  C:\Users\Helon\AppData\Local\Temp\ccTLkFeM.s 			page 380


 16275              	.LASF522:
 16276 3746 6F766572 		.ascii	"oversample\000"
 16276      73616D70 
 16276      6C6500
 16277              	.LASF521:
 16278 3751 73746F70 		.ascii	"stopBits\000"
 16278      42697473 
 16278      00
 16279              	.LASF743:
 16280 375a 4379426C 		.ascii	"CyBle_ProcessEvents\000"
 16280      655F5072 
 16280      6F636573 
 16280      73457665 
 16280      6E747300 
 16281              	.LASF596:
 16282 376e 41647644 		.ascii	"AdvData\000"
 16282      61746100 
 16283              	.LASF470:
 16284 3776 4359424C 		.ascii	"CYBLE_EVT_TPSS_NOTIFICATION_DISABLED\000"
 16284      455F4556 
 16284      545F5450 
 16284      53535F4E 
 16284      4F544946 
 16285              	.LASF467:
 16286 379b 4359424C 		.ascii	"CYBLE_EVT_SCPSC_READ_DESCR_RESPONSE\000"
 16286      455F4556 
 16286      545F5343 
 16286      5053435F 
 16286      52454144 
 16287              	.LASF411:
 16288 37bf 4359424C 		.ascii	"CYBLE_EVT_HRSC_WRITE_DESCR_RESPONSE\000"
 16288      455F4556 
 16288      545F4852 
 16288      53435F57 
 16288      52495445 
 16289              	.LASF433:
 16290 37e3 4359424C 		.ascii	"CYBLE_EVT_LNSS_WRITE_CHAR\000"
 16290      455F4556 
 16290      545F4C4E 
 16290      53535F57 
 16290      52495445 
 16291              	.LASF371:
 16292 37fd 4359424C 		.ascii	"CYBLE_EVT_ESSS_CHAR_WRITE\000"
 16292      455F4556 
 16292      545F4553 
 16292      53535F43 
 16292      4841525F 
 16293              	.LASF63:
 16294 3817 4359424C 		.ascii	"CYBLE_EVT_GATTC_WRITE_RSP\000"
 16294      455F4556 
 16294      545F4741 
 16294      5454435F 
 16294      57524954 
 16295              	.LASF366:
 16296 3831 4359424C 		.ascii	"CYBLE_EVT_ESSS_NOTIFICATION_ENABLED\000"
 16296      455F4556 
 16296      545F4553 
ARM GAS  C:\Users\Helon\AppData\Local\Temp\ccTLkFeM.s 			page 381


 16296      53535F4E 
 16296      4F544946 
 16297              	.LASF712:
 16298 3855 73747263 		.ascii	"strchr\000"
 16298      687200
 16299              	.LASF515:
 16300 385c 4359424C 		.ascii	"CYBLE_STATE_DISCONNECTED\000"
 16300      455F5354 
 16300      4154455F 
 16300      44495343 
 16300      4F4E4E45 
 16301              	.LASF388:
 16302 3875 4359424C 		.ascii	"CYBLE_EVT_GLSC_READ_CHAR_RESPONSE\000"
 16302      455F4556 
 16302      545F474C 
 16302      53435F52 
 16302      4541445F 
 16303              	.LASF565:
 16304 3897 44495341 		.ascii	"DISALLCHAR\000"
 16304      4C4C4348 
 16304      415200
 16305              	.LASF643:
 16306 38a2 5F5F6374 		.ascii	"__ctype_ptr__\000"
 16306      7970655F 
 16306      7074725F 
 16306      5F00
 16307              	.LASF621:
 16308 38b0 53656E64 		.ascii	"SendNotification\000"
 16308      4E6F7469 
 16308      66696361 
 16308      74696F6E 
 16308      00
 16309              	.LASF455:
 16310 38c1 4359424C 		.ascii	"CYBLE_EVT_RSCSC_NOTIFICATION\000"
 16310      455F4556 
 16310      545F5253 
 16310      4353435F 
 16310      4E4F5449 
 16311              	.LASF651:
 16312 38de 636F6E66 		.ascii	"configUart\000"
 16312      69675561 
 16312      727400
 16313              	.LASF696:
 16314 38e9 43795379 		.ascii	"CySysPmDeepSleep\000"
 16314      73506D44 
 16314      65657053 
 16314      6C656570 
 16314      00
 16315              	.LASF43:
 16316 38fa 4359424C 		.ascii	"CYBLE_EVT_GAPP_ADVERTISEMENT_START_STOP\000"
 16316      455F4556 
 16316      545F4741 
 16316      50505F41 
 16316      44564552 
 16317              	.LASF207:
 16318 3922 4359424C 		.ascii	"CYBLE_GAPP_SCAN_RSP_DATA_T\000"
 16318      455F4741 
ARM GAS  C:\Users\Helon\AppData\Local\Temp\ccTLkFeM.s 			page 382


 16318      50505F53 
 16318      43414E5F 
 16318      5253505F 
 16319              	.LASF499:
 16320 393d 4359424C 		.ascii	"CYBLE_EVT_WPTSC_READ_DESCR_RESPONSE\000"
 16320      455F4556 
 16320      545F5750 
 16320      5453435F 
 16320      52454144 
 16321              	.LASF277:
 16322 3961 4359424C 		.ascii	"CYBLE_EVT_ANCSC_NOTIFICATION\000"
 16322      455F4556 
 16322      545F414E 
 16322      4353435F 
 16322      4E4F5449 
 16323              	.LASF327:
 16324 397e 4359424C 		.ascii	"CYBLE_EVT_CGMSC_WRITE_CHAR_RESPONSE\000"
 16324      455F4556 
 16324      545F4347 
 16324      4D53435F 
 16324      57524954 
 16325              	.LASF382:
 16326 39a2 4359424C 		.ascii	"CYBLE_EVT_GLSS_INDICATION_CONFIRMED\000"
 16326      455F4556 
 16326      545F474C 
 16326      53535F49 
 16326      4E444943 
 16327              	.LASF20:
 16328 39c6 75696E74 		.ascii	"uint8\000"
 16328      3800
 16329              	.LASF420:
 16330 39cc 4359424C 		.ascii	"CYBLE_EVT_HTSC_READ_CHAR_RESPONSE\000"
 16330      455F4556 
 16330      545F4854 
 16330      53435F52 
 16330      4541445F 
 16331              	.LASF624:
 16332 39ee 53656E64 		.ascii	"SendDataStruct\000"
 16332      44617461 
 16332      53747275 
 16332      637400
 16333              	.LASF666:
 16334 39fd 696F6361 		.ascii	"iocapability\000"
 16334      70616269 
 16334      6C697479 
 16334      00
 16335              	.LASF589:
 16336 3a0a 53657455 		.ascii	"SetUartConfiguration\000"
 16336      61727443 
 16336      6F6E6669 
 16336      67757261 
 16336      74696F6E 
 16337              	.LASF188:
 16338 3a1f 73656375 		.ascii	"security\000"
 16338      72697479 
 16338      00
 16339              	.LASF448:
ARM GAS  C:\Users\Helon\AppData\Local\Temp\ccTLkFeM.s 			page 383


 16340 3a28 4359424C 		.ascii	"CYBLE_EVT_PASSC_WRITE_DESCR_RESPONSE\000"
 16340      455F4556 
 16340      545F5041 
 16340      5353435F 
 16340      57524954 
 16341              	.LASF647:
 16342 3a4d 6379426C 		.ascii	"cyBle_connHandle\000"
 16342      655F636F 
 16342      6E6E4861 
 16342      6E646C65 
 16342      00
 16343              	.LASF570:
 16344 3a5e 41555448 		.ascii	"AUTH\000"
 16344      00
 16345              	.LASF1:
 16346 3a63 73686F72 		.ascii	"short int\000"
 16346      7420696E 
 16346      7400
 16347              	.LASF191:
 16348 3a6d 61757468 		.ascii	"authErr\000"
 16348      45727200 
 16349              	.LASF728:
 16350 3a75 4379426C 		.ascii	"CyBle_GapSetLocalName\000"
 16350      655F4761 
 16350      70536574 
 16350      4C6F6361 
 16350      6C4E616D 
 16351              	.LASF314:
 16352 3a8b 4359424C 		.ascii	"CYBLE_EVT_BMSS_WRITE_CHAR\000"
 16352      455F4556 
 16352      545F424D 
 16352      53535F57 
 16352      52495445 
 16353              	.LASF517:
 16354 3aa5 6D6F6465 		.ascii	"mode\000"
 16354      00
 16355              	.LASF261:
 16356 3aaa 4359424C 		.ascii	"CYBLE_EVT_GATTS_INDICATION_DISABLED\000"
 16356      455F4556 
 16356      545F4741 
 16356      5454535F 
 16356      494E4449 
 16357              	.LASF164:
 16358 3ace 4359424C 		.ascii	"CYBLE_GAPC_SCAN_UNDIRECTED_ADV\000"
 16358      455F4741 
 16358      50435F53 
 16358      43414E5F 
 16358      554E4449 
 16359              	.LASF588:
 16360 3aed 4150495F 		.ascii	"API_RESULT\000"
 16360      52455355 
 16360      4C5400
 16361              	.LASF206:
 16362 3af8 7363616E 		.ascii	"scanRspDataLen\000"
 16362      52737044 
 16362      6174614C 
 16362      656E00
ARM GAS  C:\Users\Helon\AppData\Local\Temp\ccTLkFeM.s 			page 384


 16363              	.LASF739:
 16364 3b07 55415254 		.ascii	"UART_SpiUartGetRxBufferSize\000"
 16364      5F537069 
 16364      55617274 
 16364      47657452 
 16364      78427566 
 16365              	.LASF617:
 16366 3b23 4D795F49 		.ascii	"My_ISR_UART\000"
 16366      53525F55 
 16366      41525400 
 16367              	.LASF561:
 16368 3b2f 434F4E4E 		.ascii	"CONNT\000"
 16368      5400
 16369              	.LASF298:
 16370 3b35 4359424C 		.ascii	"CYBLE_EVT_BCSS_INDICATION_DISABLED\000"
 16370      455F4556 
 16370      545F4243 
 16370      53535F49 
 16370      4E444943 
 16371              	.LASF325:
 16372 3b58 4359424C 		.ascii	"CYBLE_EVT_CGMSC_NOTIFICATION\000"
 16372      455F4556 
 16372      545F4347 
 16372      4D53435F 
 16372      4E4F5449 
 16373              	.LASF17:
 16374 3b75 696E7431 		.ascii	"int16_t\000"
 16374      365F7400 
 16375              	.LASF50:
 16376 3b7d 4359424C 		.ascii	"CYBLE_EVT_GATTC_ERROR_RSP\000"
 16376      455F4556 
 16376      545F4741 
 16376      5454435F 
 16376      4552524F 
 16377              	.LASF172:
 16378 3b97 4359424C 		.ascii	"CYBLE_GAP_IOCAP_KEYBOARD_DISPLAY\000"
 16378      455F4741 
 16378      505F494F 
 16378      4341505F 
 16378      4B455942 
 16379              	.LASF238:
 16380 3bb8 4359424C 		.ascii	"CYBLE_GATT_ATTR_HANDLE_RANGE_T\000"
 16380      455F4741 
 16380      54545F41 
 16380      5454525F 
 16380      48414E44 
 16381              	.LASF377:
 16382 3bd7 4359424C 		.ascii	"CYBLE_EVT_ESSC_WRITE_CHAR_RESPONSE\000"
 16382      455F4556 
 16382      545F4553 
 16382      53435F57 
 16382      52495445 
 16383              	.LASF551:
 16384 3bfa 56455253 		.ascii	"VERSION\000"
 16384      494F4E00 
 16385              	.LASF282:
 16386 3c02 4359424C 		.ascii	"CYBLE_EVT_ANCSC_ERROR_RESPONSE\000"
ARM GAS  C:\Users\Helon\AppData\Local\Temp\ccTLkFeM.s 			page 385


 16386      455F4556 
 16386      545F414E 
 16386      4353435F 
 16386      4552524F 
 16387              	.LASF253:
 16388 3c21 75756964 		.ascii	"uuidFormat\000"
 16388      466F726D 
 16388      617400
 16389              	.LASF380:
 16390 3c2c 4359424C 		.ascii	"CYBLE_EVT_GLSS_INDICATION_ENABLED\000"
 16390      455F4556 
 16390      545F474C 
 16390      53535F49 
 16390      4E444943 
 16391              	.LASF285:
 16392 3c4e 4359424C 		.ascii	"CYBLE_EVT_ANSS_CHAR_WRITE\000"
 16392      455F4556 
 16392      545F414E 
 16392      53535F43 
 16392      4841525F 
 16393              	.LASF714:
 16394 3c68 7374726E 		.ascii	"strncpy\000"
 16394      63707900 
 16395              	.LASF158:
 16396 3c70 4359424C 		.ascii	"CYBLE_GAPP_SCANNABLE_UNDIRECTED_ADV\000"
 16396      455F4741 
 16396      50505F53 
 16396      43414E4E 
 16396      41424C45 
 16397              	.LASF77:
 16398 3c94 4359424C 		.ascii	"CYBLE_EVT_L2CAP_CBFC_CONN_IND\000"
 16398      455F4556 
 16398      545F4C32 
 16398      4341505F 
 16398      43424643 
 16399              	.LASF66:
 16400 3cb2 4359424C 		.ascii	"CYBLE_EVT_GATTS_EXEC_WRITE_REQ\000"
 16400      455F4556 
 16400      545F4741 
 16400      5454535F 
 16400      45584543 
 16401              	.LASF37:
 16402 3cd1 4359424C 		.ascii	"CYBLE_EVT_GAPC_SCAN_PROGRESS_RESULT\000"
 16402      455F4556 
 16402      545F4741 
 16402      50435F53 
 16402      43414E5F 
 16403              	.LASF359:
 16404 3cf5 4359424C 		.ascii	"CYBLE_EVT_CTSS_CHAR_WRITE\000"
 16404      455F4556 
 16404      545F4354 
 16404      53535F43 
 16404      4841525F 
 16405              	.LASF475:
 16406 3d0f 4359424C 		.ascii	"CYBLE_EVT_UDSS_INDICATION_ENABLED\000"
 16406      455F4556 
 16406      545F5544 
ARM GAS  C:\Users\Helon\AppData\Local\Temp\ccTLkFeM.s 			page 386


 16406      53535F49 
 16406      4E444943 
 16407              	.LASF645:
 16408 3d31 6379426C 		.ascii	"cyBle_discoveryModeInfo\000"
 16408      655F6469 
 16408      73636F76 
 16408      6572794D 
 16408      6F646549 
 16409              	.LASF213:
 16410 3d49 70656572 		.ascii	"peerAddrType\000"
 16410      41646472 
 16410      54797065 
 16410      00
 16411              	.LASF704:
 16412 3d56 436F6E6E 		.ascii	"Connected_LED_SetDriveMode\000"
 16412      65637465 
 16412      645F4C45 
 16412      445F5365 
 16412      74447269 
 16413              	.LASF97:
 16414 3d71 4359424C 		.ascii	"CYBLE_ERROR_GAP_ROLE\000"
 16414      455F4552 
 16414      524F525F 
 16414      4741505F 
 16414      524F4C45 
 16415              	.LASF414:
 16416 3d86 4359424C 		.ascii	"CYBLE_EVT_HTSS_INDICATION_ENABLED\000"
 16416      455F4556 
 16416      545F4854 
 16416      53535F49 
 16416      4E444943 
 16417              	.LASF674:
 16418 3da8 72656164 		.ascii	"readRequestData\000"
 16418      52657175 
 16418      65737444 
 16418      61746100 
 16419              	.LASF486:
 16420 3db8 4359424C 		.ascii	"CYBLE_EVT_UDSC_READ_DESCR_RESPONSE\000"
 16420      455F4556 
 16420      545F5544 
 16420      53435F52 
 16420      4541445F 
 16421              	.LASF237:
 16422 3ddb 656E6448 		.ascii	"endHandle\000"
 16422      616E646C 
 16422      6500
 16423              	.LASF294:
 16424 3de5 4359424C 		.ascii	"CYBLE_EVT_BASC_READ_CHAR_RESPONSE\000"
 16424      455F4556 
 16424      545F4241 
 16424      53435F52 
 16424      4541445F 
 16425              	.LASF387:
 16426 3e07 4359424C 		.ascii	"CYBLE_EVT_GLSC_NOTIFICATION\000"
 16426      455F4556 
 16426      545F474C 
 16426      53435F4E 
ARM GAS  C:\Users\Helon\AppData\Local\Temp\ccTLkFeM.s 			page 387


 16426      4F544946 
 16427              	.LASF149:
 16428 3e23 62644164 		.ascii	"bdAddr\000"
 16428      647200
 16429              	.LASF465:
 16430 3e2a 4359424C 		.ascii	"CYBLE_EVT_SCPSS_SCAN_INT_WIN_CHAR_WRITE\000"
 16430      455F4556 
 16430      545F5343 
 16430      5053535F 
 16430      5343414E 
 16431              	.LASF703:
 16432 3e52 53746174 		.ascii	"Status_LED_SetDriveMode\000"
 16432      75735F4C 
 16432      45445F53 
 16432      65744472 
 16432      6976654D 
 16433              	.LASF427:
 16434 3e6a 4359424C 		.ascii	"CYBLE_EVT_LLSC_WRITE_CHAR_RESPONSE\000"
 16434      455F4556 
 16434      545F4C4C 
 16434      53435F57 
 16434      52495445 
 16435              	.LASF127:
 16436 3e8d 4359424C 		.ascii	"CYBLE_BLESS_STATE_ECO_STABLE\000"
 16436      455F424C 
 16436      4553535F 
 16436      53544154 
 16436      455F4543 
 16437              	.LASF167:
 16438 3eaa 4359424C 		.ascii	"CYBLE_GAPC_ADV_EVENT_T\000"
 16438      455F4741 
 16438      50435F41 
 16438      44565F45 
 16438      56454E54 
 16439              	.LASF94:
 16440 3ec1 4359424C 		.ascii	"CYBLE_ERROR_NO_CONNECTION\000"
 16440      455F4552 
 16440      524F525F 
 16440      4E4F5F43 
 16440      4F4E4E45 
 16441              	.LASF138:
 16442 3edb 4359424C 		.ascii	"CYBLE_LL_PWR_LVL_0_DBM\000"
 16442      455F4C4C 
 16442      5F505752 
 16442      5F4C564C 
 16442      5F305F44 
 16443              	.LASF348:
 16444 3ef2 4359424C 		.ascii	"CYBLE_EVT_CSCSS_INDICATION_DISABLED\000"
 16444      455F4556 
 16444      545F4353 
 16444      4353535F 
 16444      494E4449 
 16445              	.LASF681:
 16446 3f16 6D656D63 		.ascii	"memcpy\000"
 16446      707900
 16447              	.LASF120:
 16448 3f1d 4359424C 		.ascii	"CYBLE_BLESS_HIBERNATE\000"
ARM GAS  C:\Users\Helon\AppData\Local\Temp\ccTLkFeM.s 			page 388


 16448      455F424C 
 16448      4553535F 
 16448      48494245 
 16448      524E4154 
 16449              	.LASF142:
 16450 3f33 4359424C 		.ascii	"CYBLE_LL_ADV_CH_TYPE\000"
 16450      455F4C4C 
 16450      5F414456 
 16450      5F43485F 
 16450      54595045 
 16451              	.LASF317:
 16452 3f48 4359424C 		.ascii	"CYBLE_EVT_BMSC_READ_DESCR_RESPONSE\000"
 16452      455F4556 
 16452      545F424D 
 16452      53435F52 
 16452      4541445F 
 16453              	.LASF86:
 16454 3f6b 4359424C 		.ascii	"CYBLE_EVT_LE_PING_AUTH_TIMEOUT\000"
 16454      455F4556 
 16454      545F4C45 
 16454      5F50494E 
 16454      475F4155 
 16455              	.LASF116:
 16456 3f8a 4359424C 		.ascii	"CYBLE_API_RESULT_T\000"
 16456      455F4150 
 16456      495F5245 
 16456      53554C54 
 16456      5F5400
 16457              	.LASF319:
 16458 3f9d 4359424C 		.ascii	"CYBLE_EVT_CGMSS_INDICATION_DISABLED\000"
 16458      455F4556 
 16458      545F4347 
 16458      4D53535F 
 16458      494E4449 
 16459              	.LASF648:
 16460 3fc1 6379426C 		.ascii	"cyBle_busyStatus\000"
 16460      655F6275 
 16460      73795374 
 16460      61747573 
 16460      00
 16461              	.LASF130:
 16462 3fd2 4359424C 		.ascii	"CYBLE_BLESS_STATE_INVALID\000"
 16462      455F424C 
 16462      4553535F 
 16462      53544154 
 16462      455F494E 
 16463              	.LASF284:
 16464 3fec 4359424C 		.ascii	"CYBLE_EVT_ANSS_NOTIFICATION_DISABLED\000"
 16464      455F4556 
 16464      545F414E 
 16464      53535F4E 
 16464      4F544946 
 16465              	.LASF747:
 16466 4011 2E5C424C 		.ascii	".\\BLEApplication.c\000"
 16466      45417070 
 16466      6C696361 
 16466      74696F6E 
ARM GAS  C:\Users\Helon\AppData\Local\Temp\ccTLkFeM.s 			page 389


 16466      2E6300
 16467              	.LASF273:
 16468 4024 4359424C 		.ascii	"CYBLE_EVT_GATTC_DISCOVERY_COMPLETE\000"
 16468      455F4556 
 16468      545F4741 
 16468      5454435F 
 16468      44495343 
 16469              	.LASF244:
 16470 4047 4359424C 		.ascii	"CYBLE_GATTC_FIND_INFO_REQ_T\000"
 16470      455F4741 
 16470      5454435F 
 16470      46494E44 
 16470      5F494E46 
 16471              	.LASF323:
 16472 4063 4359424C 		.ascii	"CYBLE_EVT_CGMSS_WRITE_CHAR\000"
 16472      455F4556 
 16472      545F4347 
 16472      4D53535F 
 16472      57524954 
 16473              	.LASF391:
 16474 407e 4359424C 		.ascii	"CYBLE_EVT_GLSC_WRITE_DESCR_RESPONSE\000"
 16474      455F4556 
 16474      545F474C 
 16474      53435F57 
 16474      52495445 
 16475              	.LASF212:
 16476 40a2 6576656E 		.ascii	"eventType\000"
 16476      74547970 
 16476      6500
 16477              	.LASF69:
 16478 40ac 4359424C 		.ascii	"CYBLE_EVT_GATTC_HANDLE_VALUE_IND\000"
 16478      455F4556 
 16478      545F4741 
 16478      5454435F 
 16478      48414E44 
 16479              	.LASF344:
 16480 40cd 4359424C 		.ascii	"CYBLE_EVT_CPSC_SCAN_PROGRESS_RESULT\000"
 16480      455F4556 
 16480      545F4350 
 16480      53435F53 
 16480      43414E5F 
 16481              	.LASF459:
 16482 40f1 4359424C 		.ascii	"CYBLE_EVT_RSCSC_READ_DESCR_RESPONSE\000"
 16482      455F4556 
 16482      545F5253 
 16482      4353435F 
 16482      52454144 
 16483              	.LASF705:
 16484 4115 436F6E6E 		.ascii	"Connected_LED_Write\000"
 16484      65637465 
 16484      645F4C45 
 16484      445F5772 
 16484      69746500 
 16485              	.LASF606:
 16486 4129 6576656E 		.ascii	"eventCode\000"
 16486      74436F64 
 16486      6500
ARM GAS  C:\Users\Helon\AppData\Local\Temp\ccTLkFeM.s 			page 390


 16487              	.LASF100:
 16488 4133 4359424C 		.ascii	"CYBLE_ERROR_SEC_FAILED\000"
 16488      455F4552 
 16488      524F525F 
 16488      5345435F 
 16488      4641494C 
 16489              	.LASF19:
 16490 414a 75696E74 		.ascii	"uint32_t\000"
 16490      33325F74 
 16490      00
 16491              	.LASF221:
 16492 4153 636F6E6E 		.ascii	"connLatency\000"
 16492      4C617465 
 16492      6E637900 
 16493              	.LASF169:
 16494 415f 4359424C 		.ascii	"CYBLE_GAP_IOCAP_DISPLAY_YESNO\000"
 16494      455F4741 
 16494      505F494F 
 16494      4341505F 
 16494      44495350 
 16495              	.LASF598:
 16496 417d 53747241 		.ascii	"StrAdvDataLength\000"
 16496      64764461 
 16496      74614C65 
 16496      6E677468 
 16496      00
 16497              	.LASF423:
 16498 418e 4359424C 		.ascii	"CYBLE_EVT_HTSC_WRITE_DESCR_RESPONSE\000"
 16498      455F4556 
 16498      545F4854 
 16498      53435F57 
 16498      52495445 
 16499              	.LASF49:
 16500 41b2 4359424C 		.ascii	"CYBLE_EVT_GAP_KEYINFO_EXCHNGE_CMPLT\000"
 16500      455F4556 
 16500      545F4741 
 16500      505F4B45 
 16500      59494E46 
 16501              	.LASF500:
 16502 41d6 4359424C 		.ascii	"CYBLE_EVT_WPTSC_WRITE_DESCR_RESPONSE\000"
 16502      455F4556 
 16502      545F5750 
 16502      5453435F 
 16502      57524954 
 16503              	.LASF148:
 16504 41fb 4359424C 		.ascii	"CYBLE_BLESS_PWR_IN_DB_T\000"
 16504      455F424C 
 16504      4553535F 
 16504      5057525F 
 16504      494E5F44 
 16505              	.LASF144:
 16506 4213 4359424C 		.ascii	"CYBLE_LL_MAX_CH_TYPE\000"
 16506      455F4C4C 
 16506      5F4D4158 
 16506      5F43485F 
 16506      54595045 
 16507              	.LASF707:
ARM GAS  C:\Users\Helon\AppData\Local\Temp\ccTLkFeM.s 			page 391


 16508 4228 4354535F 		.ascii	"CTS_Write\000"
 16508      57726974 
 16508      6500
 16509              	.LASF74:
 16510 4232 4359424C 		.ascii	"CYBLE_EVT_L2CAP_CONN_PARAM_UPDATE_REQ\000"
 16510      455F4556 
 16510      545F4C32 
 16510      4341505F 
 16510      434F4E4E 
 16511              	.LASF322:
 16512 4258 4359424C 		.ascii	"CYBLE_EVT_CGMSS_NOTIFICATION_DISABLED\000"
 16512      455F4556 
 16512      545F4347 
 16512      4D53535F 
 16512      4E4F5449 
 16513              	.LASF577:
 16514 427e 44657669 		.ascii	"DeviceList\000"
 16514      63654C69 
 16514      737400
 16515              	.LASF716:
 16516 4289 66726565 		.ascii	"free\000"
 16516      00
 16517              	.LASF220:
 16518 428e 636F6E6E 		.ascii	"connIntvMax\000"
 16518      496E7476 
 16518      4D617800 
 16519              	.LASF618:
 16520 429a 436F6E66 		.ascii	"ConfigUartInit\000"
 16520      69675561 
 16520      7274496E 
 16520      697400
 16521              	.LASF545:
 16522 42a9 63747350 		.ascii	"ctsPolarity\000"
 16522      6F6C6172 
 16522      69747900 
 16523              	.LASF264:
 16524 42b5 4359424C 		.ascii	"CYBLE_EVT_GATTC_INCL_DISCOVERY_FAILED\000"
 16524      455F4556 
 16524      545F4741 
 16524      5454435F 
 16524      494E434C 
 16525              	.LASF559:
 16526 42db 524F4C45 		.ascii	"ROLE\000"
 16526      00
 16527              	.LASF225:
 16528 42e0 636F6E6E 		.ascii	"connIntv\000"
 16528      496E7476 
 16528      00
 16529              	.LASF8:
 16530 42e9 73686F72 		.ascii	"short unsigned int\000"
 16530      7420756E 
 16530      7369676E 
 16530      65642069 
 16530      6E7400
 16531              	.LASF660:
 16532 42fc 63686172 		.ascii	"charNotificationEnabled\000"
 16532      4E6F7469 
ARM GAS  C:\Users\Helon\AppData\Local\Temp\ccTLkFeM.s 			page 392


 16532      66696361 
 16532      74696F6E 
 16532      456E6162 
 16533              	.LASF582:
 16534 4314 53657269 		.ascii	"SerialArryLength\000"
 16534      616C4172 
 16534      72794C65 
 16534      6E677468 
 16534      00
 16535              	.LASF591:
 16536 4325 50617273 		.ascii	"Parser_UartData\000"
 16536      65725F55 
 16536      61727444 
 16536      61746100 
 16537              	.LASF198:
 16538 4335 64697265 		.ascii	"directAddr\000"
 16538      63744164 
 16538      647200
 16539              	.LASF511:
 16540 4340 4359424C 		.ascii	"CYBLE_STATE_CONNECTED\000"
 16540      455F5354 
 16540      4154455F 
 16540      434F4E4E 
 16540      45435445 
 16541              	.LASF231:
 16542 4356 61637475 		.ascii	"actualLen\000"
 16542      616C4C65 
 16542      6E00
 16543              	.LASF199:
 16544 4360 61647643 		.ascii	"advChannelMap\000"
 16544      68616E6E 
 16544      656C4D61 
 16544      7000
 16545              	.LASF276:
 16546 436e 4359424C 		.ascii	"CYBLE_EVT_ANCSS_WRITE_CHAR\000"
 16546      455F4556 
 16546      545F414E 
 16546      4353535F 
 16546      57524954 
 16547              	.LASF745:
 16548 4389 4379426C 		.ascii	"CyBle_GapAuthPassKeyReply\000"
 16548      655F4761 
 16548      70417574 
 16548      68506173 
 16548      734B6579 
 16549              	.LASF386:
 16550 43a3 4359424C 		.ascii	"CYBLE_EVT_GLSC_INDICATION\000"
 16550      455F4556 
 16550      545F474C 
 16550      53435F49 
 16550      4E444943 
 16551              	.LASF156:
 16552 43bd 4359424C 		.ascii	"CYBLE_GAPP_CONNECTABLE_UNDIRECTED_ADV\000"
 16552      455F4741 
 16552      50505F43 
 16552      4F4E4E45 
 16552      43544142 
ARM GAS  C:\Users\Helon\AppData\Local\Temp\ccTLkFeM.s 			page 393


 16553              	.LASF336:
 16554 43e3 4359424C 		.ascii	"CYBLE_EVT_CPSS_BROADCAST_DISABLED\000"
 16554      455F4556 
 16554      545F4350 
 16554      53535F42 
 16554      524F4144 
 16555              	.LASF592:
 16556 4405 41745F43 		.ascii	"At_Command_Idex\000"
 16556      6F6D6D61 
 16556      6E645F49 
 16556      64657800 
 16557              	.LASF546:
 16558 4415 72747352 		.ascii	"rtsRxFifoLevel\000"
 16558      78466966 
 16558      6F4C6576 
 16558      656C00
 16559              	.LASF229:
 16560 4424 61747449 		.ascii	"attId\000"
 16560      6400
 16561              	.LASF90:
 16562 442a 4359424C 		.ascii	"CYBLE_ERROR_INVALID_OPERATION\000"
 16562      455F4552 
 16562      524F525F 
 16562      494E5641 
 16562      4C49445F 
 16563              	.LASF636:
 16564 4448 70617373 		.ascii	"passkey\000"
 16564      6B657900 
 16565              	.LASF35:
 16566 4450 4359424C 		.ascii	"CYBLE_EVT_HCI_STATUS\000"
 16566      455F4556 
 16566      545F4843 
 16566      495F5354 
 16566      41545553 
 16567              	.LASF718:
 16568 4465 4379426C 		.ascii	"CyBle_GattsNotification\000"
 16568      655F4761 
 16568      7474734E 
 16568      6F746966 
 16568      69636174 
 16569              	.LASF52:
 16570 447d 4359424C 		.ascii	"CYBLE_EVT_GATT_DISCONNECT_IND\000"
 16570      455F4556 
 16570      545F4741 
 16570      54545F44 
 16570      4953434F 
 16571              	.LASF222:
 16572 449b 73757065 		.ascii	"supervisionTO\000"
 16572      72766973 
 16572      696F6E54 
 16572      4F00
 16573              	.LASF154:
 16574 44a9 4359424C 		.ascii	"CYBLE_GATT_RSP_TO\000"
 16574      455F4741 
 16574      54545F52 
 16574      53505F54 
 16574      4F00
ARM GAS  C:\Users\Helon\AppData\Local\Temp\ccTLkFeM.s 			page 394


 16575              	.LASF259:
 16576 44bb 4359424C 		.ascii	"CYBLE_KEY_EXCHANGE_INFO_REQUEST_REPLY\000"
 16576      455F4B45 
 16576      595F4558 
 16576      4348414E 
 16576      47455F49 
 16577              	.LASF84:
 16578 44e1 4359424C 		.ascii	"CYBLE_EVT_L2CAP_CBFC_DATA_WRITE_IND\000"
 16578      455F4556 
 16578      545F4C32 
 16578      4341505F 
 16578      43424643 
 16579              	.LASF528:
 16580 4505 64726F70 		.ascii	"dropOnFrameErr\000"
 16580      4F6E4672 
 16580      616D6545 
 16580      727200
 16581              	.LASF257:
 16582 4514 4359424C 		.ascii	"CYBLE_PASSKEY_ENTRY_REQUEST_REPLY\000"
 16582      455F5041 
 16582      53534B45 
 16582      595F454E 
 16582      5452595F 
 16583              	.LASF534:
 16584 4536 656E6162 		.ascii	"enableMultiproc\000"
 16584      6C654D75 
 16584      6C746970 
 16584      726F6300 
 16585              	.LASF217:
 16586 4546 72737369 		.ascii	"rssi\000"
 16586      00
 16587              	.LASF303:
 16588 454b 4359424C 		.ascii	"CYBLE_EVT_BCSC_WRITE_DESCR_RESPONSE\000"
 16588      455F4556 
 16588      545F4243 
 16588      53435F57 
 16588      52495445 
 16589              	.LASF526:
 16590 456f 656E6162 		.ascii	"enableInvertedRx\000"
 16590      6C65496E 
 16590      76657274 
 16590      65645278 
 16590      00
 16591              	.LASF481:
 16592 4580 4359424C 		.ascii	"CYBLE_EVT_UDSS_WRITE_CHAR\000"
 16592      455F4556 
 16592      545F5544 
 16592      53535F57 
 16592      52495445 
 16593              	.LASF216:
 16594 459a 64617461 		.ascii	"data\000"
 16594      00
 16595              	.LASF286:
 16596 459f 4359424C 		.ascii	"CYBLE_EVT_ANSC_NOTIFICATION\000"
 16596      455F4556 
 16596      545F414E 
 16596      53435F4E 
ARM GAS  C:\Users\Helon\AppData\Local\Temp\ccTLkFeM.s 			page 395


 16596      4F544946 
 16597              	.LASF45:
 16598 45bb 4359424C 		.ascii	"CYBLE_EVT_GAP_DEVICE_DISCONNECTED\000"
 16598      455F4556 
 16598      545F4741 
 16598      505F4445 
 16598      56494345 
 16599              	.LASF394:
 16600 45dd 4359424C 		.ascii	"CYBLE_EVT_HIDSS_BOOT_MODE_ENTER\000"
 16600      455F4556 
 16600      545F4849 
 16600      4453535F 
 16600      424F4F54 
 16601              	.LASF70:
 16602 45fd 4359424C 		.ascii	"CYBLE_EVT_GATTS_HANDLE_VALUE_CNF\000"
 16602      455F4556 
 16602      545F4741 
 16602      5454535F 
 16602      48414E44 
 16603              	.LASF697:
 16604 461e 55415254 		.ascii	"UART_Wakeup\000"
 16604      5F57616B 
 16604      65757000 
 16605              	.LASF355:
 16606 462a 4359424C 		.ascii	"CYBLE_EVT_CSCSC_READ_DESCR_RESPONSE\000"
 16606      455F4556 
 16606      545F4353 
 16606      4353435F 
 16606      52454144 
 16607              	.LASF218:
 16608 464e 4359424C 		.ascii	"CYBLE_GAPC_ADV_REPORT_T\000"
 16608      455F4741 
 16608      50435F41 
 16608      44565F52 
 16608      45504F52 
 16609              	.LASF21:
 16610 4666 75696E74 		.ascii	"uint16\000"
 16610      313600
 16611              	.LASF650:
 16612 466d 44657669 		.ascii	"DeviceInfo\000"
 16612      6365496E 
 16612      666F00
 16613              	.LASF279:
 16614 4678 4359424C 		.ascii	"CYBLE_EVT_ANCSC_WRITE_CHAR_RESPONSE\000"
 16614      455F4556 
 16614      545F414E 
 16614      4353435F 
 16614      57524954 
 16615              	.LASF196:
 16616 469c 6F776E41 		.ascii	"ownAddrType\000"
 16616      64647254 
 16616      79706500 
 16617              	.LASF98:
 16618 46a8 4359424C 		.ascii	"CYBLE_ERROR_TX_POWER_READ\000"
 16618      455F4552 
 16618      524F525F 
 16618      54585F50 
ARM GAS  C:\Users\Helon\AppData\Local\Temp\ccTLkFeM.s 			page 396


 16618      4F574552 
 16619              	.LASF449:
 16620 46c2 4359424C 		.ascii	"CYBLE_EVT_RSCSS_NOTIFICATION_ENABLED\000"
 16620      455F4556 
 16620      545F5253 
 16620      4353535F 
 16620      4E4F5449 
 16621              	.LASF505:
 16622 46e7 4359424C 		.ascii	"CYBLE_EVT_WSSC_READ_CHAR_RESPONSE\000"
 16622      455F4556 
 16622      545F5753 
 16622      53435F52 
 16622      4541445F 
 16623              	.LASF550:
 16624 4709 52454641 		.ascii	"REFAC\000"
 16624      4300
 16625              	.LASF572:
 16626 470f 436F6E6E 		.ascii	"Connect_Idx\000"
 16626      6563745F 
 16626      49647800 
 16627              	.LASF128:
 16628 471b 4359424C 		.ascii	"CYBLE_BLESS_STATE_DEEPSLEEP\000"
 16628      455F424C 
 16628      4553535F 
 16628      53544154 
 16628      455F4445 
 16629              	.LASF419:
 16630 4737 4359424C 		.ascii	"CYBLE_EVT_HTSC_INDICATION\000"
 16630      455F4556 
 16630      545F4854 
 16630      53435F49 
 16630      4E444943 
 16631              	.LASF392:
 16632 4751 4359424C 		.ascii	"CYBLE_EVT_HIDSS_NOTIFICATION_ENABLED\000"
 16632      455F4556 
 16632      545F4849 
 16632      4453535F 
 16632      4E4F5449 
 16633              	.LASF416:
 16634 4776 4359424C 		.ascii	"CYBLE_EVT_HTSS_INDICATION_CONFIRMED\000"
 16634      455F4556 
 16634      545F4854 
 16634      53535F49 
 16634      4E444943 
 16635              	.LASF194:
 16636 479a 61647649 		.ascii	"advIntvMax\000"
 16636      6E74764D 
 16636      617800
 16637              	.LASF493:
 16638 47a5 4359424C 		.ascii	"CYBLE_EVT_WPTSS_INDICATION_CONFIRMED\000"
 16638      455F4556 
 16638      545F5750 
 16638      5453535F 
 16638      494E4449 
 16639              	.LASF406:
 16640 47ca 4359424C 		.ascii	"CYBLE_EVT_HRSS_NOTIFICATION_DISABLED\000"
 16640      455F4556 
ARM GAS  C:\Users\Helon\AppData\Local\Temp\ccTLkFeM.s 			page 397


 16640      545F4852 
 16640      53535F4E 
 16640      4F544946 
 16641              		.ident	"GCC: (GNU Tools for ARM Embedded Processors) 4.9.3 20150303 (release) [ARM/embedded-4_9-br
