ARM GAS  C:\Users\Helon\AppData\Local\Temp\ccKCxrf8.s 			page 1


   1              		.cpu cortex-m0
   2              		.fpu softvfp
   3              		.eabi_attribute 20, 1
   4              		.eabi_attribute 21, 1
   5              		.eabi_attribute 23, 3
   6              		.eabi_attribute 24, 1
   7              		.eabi_attribute 25, 1
   8              		.eabi_attribute 26, 1
   9              		.eabi_attribute 30, 4
  10              		.eabi_attribute 34, 0
  11              		.eabi_attribute 18, 4
  12              		.code	16
  13              		.file	"BLEApplication.c"
  14              		.text
  15              	.Ltext0:
  16              		.cfi_sections	.debug_frame
  17              		.section	.text.StackEventHandler,"ax",%progbits
  18              		.align	1
  19              		.global	StackEventHandler
  20              		.code	16
  21              		.thumb_func
  22              		.type	StackEventHandler, %function
  23              	StackEventHandler:
  24              	.LFB35:
  25              		.file 1 ".\\BLEApplication.c"
   1:.\BLEApplication.c **** /* ========================================
   2:.\BLEApplication.c ****  *
   3:.\BLEApplication.c ****  * Copyright YOUR COMPANY, THE YEAR
   4:.\BLEApplication.c ****  * All Rights Reserved
   5:.\BLEApplication.c ****  * UNPUBLISHED, LICENSED SOFTWARE.
   6:.\BLEApplication.c ****  *
   7:.\BLEApplication.c ****  * CONFIDENTIAL AND PROPRIETARY INFORMATION
   8:.\BLEApplication.c ****  * WHICH IS THE PROPERTY OF your company.
   9:.\BLEApplication.c ****  *
  10:.\BLEApplication.c ****  * ========================================
  11:.\BLEApplication.c **** */
  12:.\BLEApplication.c **** #include<project.h>
  13:.\BLEApplication.c **** #include "BLEApplication.h"
  14:.\BLEApplication.c **** #include<stdio.h>
  15:.\BLEApplication.c **** #include "BLEClient.h"
  16:.\BLEApplication.c **** #include <malloc.h>
  17:.\BLEApplication.c **** #include "WriteUserSFlash.h"
  18:.\BLEApplication.c **** /***************************************
  19:.\BLEApplication.c **** * Â§ñÈÉ®ÂÖ®Â±ÄÂèòÈáèÂ£∞Êòé
  20:.\BLEApplication.c **** ***************************************/
  21:.\BLEApplication.c **** extern uint8_t StartScan;
  22:.\BLEApplication.c **** extern uint8_t DeviceCount;
  23:.\BLEApplication.c **** extern CYBLE_DEVICE_INFO DeviceInfo[DeviceListCount];
  24:.\BLEApplication.c **** //extern uint8_t DeviceList[DeviceListCount];
  25:.\BLEApplication.c **** /***************************************
  26:.\BLEApplication.c **** * ÂÖ®Â±ÄÂèòÈáè
  27:.\BLEApplication.c **** ***************************************/
  28:.\BLEApplication.c **** UART_UART_INIT_STRUCT configUart;
  29:.\BLEApplication.c **** uint8_t LowPower_EN=TURE;
  30:.\BLEApplication.c **** uint8_t RX_BUFFER[BUFFER_LENGHTH]={0};
  31:.\BLEApplication.c **** uint8_t Buffer_Length=0;
  32:.\BLEApplication.c **** uint8_t rx_isover=FALSE;
ARM GAS  C:\Users\Helon\AppData\Local\Temp\ccKCxrf8.s 			page 2


  33:.\BLEApplication.c **** uint8_t RxFlag=OVER;
  34:.\BLEApplication.c **** //uint8_t SleepMode=TURE;
  35:.\BLEApplication.c **** CYBLE_CONN_OR_DISCONN_INFO Conn_Or_Disconn_Info;
  36:.\BLEApplication.c **** uint8_t Conn_or_Disconn_Idx=0;
  37:.\BLEApplication.c **** //uint8 bufferRx[UART_RX_BUFFER + 1u];     /* RX software buffer requires one extra entry for corre
  38:.\BLEApplication.c **** //uint8 bufferTx[UART_TX_BUFFER];           /* TX software buffer */ 
  39:.\BLEApplication.c **** uint8_t MTU_REQ_FLAG=TURE;
  40:.\BLEApplication.c **** uint8_t TroughtTest_Flag=FALSE;
  41:.\BLEApplication.c **** uint8_t charNotificationEnabled = FALSE;
  42:.\BLEApplication.c **** uint32 totalByteCounter = 0;
  43:.\BLEApplication.c **** uint8_t Role=Peripheral;//ÈªòËÆ§ÊòØPeripheral
  44:.\BLEApplication.c **** uint8 buffer[20];
  45:.\BLEApplication.c **** uint16 negotiatedMtu = DEFAULT_MTU_SIZE;
  46:.\BLEApplication.c **** uint8_t CommandMode=AT_COMMAND_MODE;
  47:.\BLEApplication.c **** uint32 testCount=0;
  48:.\BLEApplication.c **** uint8_t iocapability=CYBLE_GAP_IOCAP_DISPLAY_ONLY;
  49:.\BLEApplication.c **** CYBLE_GAP_CONN_PARAM_UPDATED_IN_CONTROLLER_T ConnParam;
  50:.\BLEApplication.c **** uint8_t KEYBOARD=FALSE;
  51:.\BLEApplication.c **** uint8_t AUTHFLAG=FALSE;
  52:.\BLEApplication.c **** uint8_t SleepMode=TURE;
  53:.\BLEApplication.c **** uint8_t Bond=FALSE;
  54:.\BLEApplication.c **** /* All zeros passed as  argument passed to CyBle_GapRemoveDeviceFromWhiteList for 
  55:.\BLEApplication.c **** removing all the bonding data stored */
  56:.\BLEApplication.c **** CYBLE_GAP_BD_ADDR_T clearAllDevices = {{0,0,0,0,0,0},0};
  57:.\BLEApplication.c **** //CYBLE_GAPP_DISC_MODE_INFO_T updateadvparam;
  58:.\BLEApplication.c **** //uint8_t ExitThrought[]={
  59:.\BLEApplication.c **** //    0x11,0x24,0xFB,0x1E,0x1F,0x24,0x19,0x16,0x29};
  60:.\BLEApplication.c **** //CYBLE_CONN_HANDLE_T	connHandle=
  61:.\BLEApplication.c **** //{
  62:.\BLEApplication.c **** //    CYBLE_TROUGHPUT_SERVICE_CUSTOM_CHARACTERISTIC_CLIENT_CHARACTERISTIC_CONFIGURATION_DESC_HANDLE
  63:.\BLEApplication.c **** //    0x00
  64:.\BLEApplication.c **** //};
  65:.\BLEApplication.c **** CYBLE_GAP_BD_ADDR_T DeviceAddr;//Â≠òÊîæÊú¨Êú∫ÁöÑMACÂú∞ÂùÄ,‰∏çËÉΩÂÅö‰∏∫Â±ÄÈÉ®ÂèòÈáèÂê¶ÂàôËé∑ÂèñÁöÑÂú
  66:.\BLEApplication.c **** uint8_t _10sIsOver=FALSE;
  67:.\BLEApplication.c **** uint8 cccdNotifEnabledValue[] = {0x01, 0x00};
  68:.\BLEApplication.c **** CYBLE_GATT_VALUE_T cccdNotifFlagSetStruct =
  69:.\BLEApplication.c **** {
  70:.\BLEApplication.c ****     cccdNotifEnabledValue,
  71:.\BLEApplication.c ****     2,
  72:.\BLEApplication.c ****     0
  73:.\BLEApplication.c **** };
  74:.\BLEApplication.c **** //    Êõ¥Êñ∞ËøûÊé•Èó¥ÈöîÂèÇÊï∞ÔºåÊèêÈ´òÈÄè‰º†ÈÄüÁéáÔºå‰ΩÜ‰ºöÂ¢ûÂä†ÂäüËÄó
  75:.\BLEApplication.c **** CYBLE_GAP_CONN_UPDATE_PARAM_T connParam={
  76:.\BLEApplication.c ****     0x10,
  77:.\BLEApplication.c ****     0x10,
  78:.\BLEApplication.c ****     0,
  79:.\BLEApplication.c ****     1000
  80:.\BLEApplication.c **** };
  81:.\BLEApplication.c **** CYBLE_GATTC_WRITE_REQ_T writeRequestData;
  82:.\BLEApplication.c **** CYBLE_GATTC_READ_REQ_T readRequestData=CYBLE_TROUGHPUT_SERVICE_CUSTOM_CHARACTERISTIC_CLIENT_CHARACT
  83:.\BLEApplication.c **** //ATÂëΩ‰ª§ÂàóË°®
  84:.\BLEApplication.c **** char * StringArry[]={
  85:.\BLEApplication.c ****                      AT_RESET,AT_REFAC,AT_VERSION,AT_BAUD,AT_LADDR,AT_NAME,
  86:.\BLEApplication.c ****                      AT_CPIN,AT_TXP,AT_ADVD,AT_ADVI,AT_CONNI,AT_ROLE,AT_SCAN,
  87:.\BLEApplication.c ****                      AT_CONNT,AT_DISCONN,AT_LOGIN,AT_TX,AT_RSSI,AT_DISALLCHAR,
  88:.\BLEApplication.c ****                      AT,AT_SPEED,AT_NOTIFY,AT_STAUS,AT_ADVS,AT_AUTH,AT_IOCAP,
  89:.\BLEApplication.c ****                     AT_SLEEP,AT_BOND
ARM GAS  C:\Users\Helon\AppData\Local\Temp\ccKCxrf8.s 			page 3


  90:.\BLEApplication.c ****                     };
  91:.\BLEApplication.c **** uint8_t STOP_SCAN_FLAG=FALSE;
  92:.\BLEApplication.c **** uint8_t Baud_rate_idx='7';//ÈªòËÆ§ÊòØ115200
  93:.\BLEApplication.c **** /******************************************************************************
  94:.\BLEApplication.c **** * Function Name: StackEventHandler
  95:.\BLEApplication.c **** ***************************************************************************//**
  96:.\BLEApplication.c **** * 
  97:.\BLEApplication.c **** *  Â§ÑÁêÜËìùÁâôÂçèËÆÆÊ†à‰∫ã‰ª∂
  98:.\BLEApplication.c **** * 
  99:.\BLEApplication.c **** * \return
 100:.\BLEApplication.c **** *  None
 101:.\BLEApplication.c **** * 
 102:.\BLEApplication.c **** ******************************************************************************/
 103:.\BLEApplication.c **** void StackEventHandler(uint32 eventCode, void *eventParam)
 104:.\BLEApplication.c **** {
  26              		.loc 1 104 0
  27              		.cfi_startproc
  28              	.LVL0:
  29 0000 70B5     		push	{r4, r5, r6, lr}
  30              		.cfi_def_cfa_offset 16
  31              		.cfi_offset 4, -16
  32              		.cfi_offset 5, -12
  33              		.cfi_offset 6, -8
  34              		.cfi_offset 14, -4
  35 0002 0C1C     		mov	r4, r1
  36 0004 88B0     		sub	sp, sp, #32
  37              		.cfi_def_cfa_offset 48
 105:.\BLEApplication.c ****     CYBLE_GAPC_ADV_REPORT_T	Scan_Result;
 106:.\BLEApplication.c **** //    CYBLE_API_RESULT_T API_RESULT=0;
 107:.\BLEApplication.c ****     CYBLE_GATTC_FIND_INFO_RSP_PARAM_T DisAllCharResult;  
 108:.\BLEApplication.c ****     uint8_t i=0;
 109:.\BLEApplication.c ****     CYBLE_GATTC_HANDLE_VALUE_NTF_PARAM_T * handleValueNotification;
 110:.\BLEApplication.c ****     CYBLE_GATTS_WRITE_REQ_PARAM_T writeParam;  
 111:.\BLEApplication.c **** //    CYBLE_GATT_HANDLE_VALUE_PAIR_T handleValuePair;
 112:.\BLEApplication.c **** //    uint32 PassKey=0;
 113:.\BLEApplication.c **** //    CYBLE_GATTC_READ_RSP_PARAM_T readParam;
 114:.\BLEApplication.c ****     switch(eventCode)
  38              		.loc 1 114 0
  39 0006 2528     		cmp	r0, #37
  40 0008 00D1     		bne	.LCB17
  41 000a 35E1     		b	.L3	@long jump
  42              	.LCB17:
  43 000c 19D8     		bhi	.L4
  44 000e 2128     		cmp	r0, #33
  45 0010 00D1     		bne	.LCB21
  46 0012 17E1     		b	.L5	@long jump
  47              	.LCB21:
  48 0014 0AD8     		bhi	.L6
  49 0016 0228     		cmp	r0, #2
  50 0018 45D0     		beq	.L7
  51 001a 2028     		cmp	r0, #32
  52 001c 31D0     		beq	.L8
  53 001e 0128     		cmp	r0, #1
  54 0020 00D0     		beq	.LCB29
  55 0022 30E1     		b	.L1	@long jump
  56              	.LCB29:
 115:.\BLEApplication.c ****     {
ARM GAS  C:\Users\Helon\AppData\Local\Temp\ccKCxrf8.s 			page 4


 116:.\BLEApplication.c ****         case CYBLE_EVT_STACK_ON:
 117:.\BLEApplication.c ****             printf("BLE is Ready\r\n");
  57              		.loc 1 117 0
  58 0024 9948     		ldr	r0, .L53
  59              	.LVL1:
  60 0026 FFF7FEFF 		bl	puts
  61              	.LVL2:
 118:.\BLEApplication.c ****             while((UART_SpiUartGetTxBufferSize() + UART_GET_TX_FIFO_SR_VALID) != 0);//Á≠âÂæÖ‰∏≤Âè£Á
  62              		.loc 1 118 0
  63 002a 21E0     		b	.L23
  64              	.LVL3:
  65              	.L6:
 114:.\BLEApplication.c ****     {
  66              		.loc 1 114 0
  67 002c 2328     		cmp	r0, #35
  68 002e 00D1     		bne	.LCB42
  69 0030 12E1     		b	.L10	@long jump
  70              	.LCB42:
  71 0032 0122     		mov	r2, #1
  72 0034 964B     		ldr	r3, .L53+4
  73 0036 2328     		cmp	r0, #35
  74 0038 00D9     		bls	.LCB46
  75 003a 23E1     		b	.L50	@long jump
  76              	.LCB46:
 119:.\BLEApplication.c **** //            StartScan=TRUE;     
 120:.\BLEApplication.c **** //            CyBle_GappStartAdvertisement(CYBLE_ADVERTISING_SLOW);
 121:.\BLEApplication.c ****         break;
 122:.\BLEApplication.c ****         case CYBLE_EVT_GAPC_SCAN_PROGRESS_RESULT:
 123:.\BLEApplication.c ****             Scan_Result=*(CYBLE_GAPC_ADV_REPORT_T *)eventParam;
 124:.\BLEApplication.c ****             HandleScanDevices(&Scan_Result);               
 125:.\BLEApplication.c **** //            CyBle_GapcStopScan();
 126:.\BLEApplication.c ****         break;
 127:.\BLEApplication.c ****         case CYBLE_EVT_GAPC_SCAN_START_STOP:
 128:.\BLEApplication.c ****             if(STOP_SCAN_FLAG)
 129:.\BLEApplication.c ****             {
 130:.\BLEApplication.c ****                 STOP_SCAN_FLAG=FALSE;             
 131:.\BLEApplication.c ****                 printf("+SCAN_STOP\r\n");
 132:.\BLEApplication.c ****             }
 133:.\BLEApplication.c ****             
 134:.\BLEApplication.c ****         break;
 135:.\BLEApplication.c ****         //ÂΩìClientÊâ´ÊèèÂà∞ServerÁöÑDB‰πãÂêéÊâç‰ºöËß¶ÂèëËØ•‰∫ã‰ª∂ÔºåÂâçÊèêÊòØclientÂíåserverËøûÊé•
 136:.\BLEApplication.c ****         case CYBLE_EVT_GATTC_DISCOVERY_COMPLETE:
 137:.\BLEApplication.c ****             
 138:.\BLEApplication.c ****         break;        
 139:.\BLEApplication.c ****         case CYBLE_EVT_TIMEOUT:                         
 140:.\BLEApplication.c ****             if(*(uint8_t*)eventParam==CYBLE_GAP_SCAN_TO)
 141:.\BLEApplication.c ****             {   
 142:.\BLEApplication.c ****                 CyBle_GapcStopScan();
 143:.\BLEApplication.c ****                 printf("+SCAN_CMP\r\n");                    
 144:.\BLEApplication.c ****             }
 145:.\BLEApplication.c ****             //ÂπøÊí≠Ë∂ÖÊó∂
 146:.\BLEApplication.c **** //            if(*(uint8_t*)eventParam==CYBLE_GAP_ADV_MODE_TO)
 147:.\BLEApplication.c **** //            {
 148:.\BLEApplication.c **** //               printf("+ADV_TO\r\n");  
 149:.\BLEApplication.c **** ////                CyBle_GappStartAdvertisement(CYBLE_ADVERTISING_SLOW);
 150:.\BLEApplication.c **** //            }
 151:.\BLEApplication.c ****         break;
ARM GAS  C:\Users\Helon\AppData\Local\Temp\ccKCxrf8.s 			page 5


 152:.\BLEApplication.c ****         case CYBLE_EVT_GAPP_ADVERTISEMENT_START_STOP:
 153:.\BLEApplication.c ****             if(CYBLE_STATE_ADVERTISING!=CyBle_GetState())
 154:.\BLEApplication.c ****             {
 155:.\BLEApplication.c ****                 CyBle_GappStartAdvertisement(CYBLE_ADVERTISING_SLOW);
 156:.\BLEApplication.c ****             }
 157:.\BLEApplication.c ****         break;
 158:.\BLEApplication.c ****         case CYBLE_EVT_GAP_DEVICE_CONNECTED:
 159:.\BLEApplication.c **** //            Ëé∑ÂèñËøûÊé•ÂèÇÊï∞‰ø°ÊÅØ
 160:.\BLEApplication.c ****             ConnParam=*(CYBLE_GAP_CONN_PARAM_UPDATED_IN_CONTROLLER_T *)eventParam;            
 161:.\BLEApplication.c ****             if(Role==Peripheral)
 162:.\BLEApplication.c ****             {
 163:.\BLEApplication.c ****                 printf("+CONN_EVT=OK\r\n");
 164:.\BLEApplication.c **** //                handleValuePair.value.val[0]=0x01;
 165:.\BLEApplication.c **** //                handleValuePair.value.val[1]=0x00;
 166:.\BLEApplication.c **** //                handleValuePair.value.len=2;
 167:.\BLEApplication.c **** //                handleValuePair.attrHandle=CYBLE_TROUGHPUT_SERVICE_CUSTOM_CHARACTERISTIC_CLIENT_C
 168:.\BLEApplication.c **** //                 printf("+WRITE=%d\r\n",CyBle_GattsWriteAttributeValue(&handleValuePair,0,&cyBle_
 169:.\BLEApplication.c **** //                CommandMode=THROUGHT_MODE;
 170:.\BLEApplication.c ****                 CyBle_L2capLeConnectionParamUpdateRequest(cyBle_connHandle.bdHandle,&connParam);
 171:.\BLEApplication.c ****                 #ifdef RELEASE
 172:.\BLEApplication.c ****                 CyBle_GapAuthReq(cyBle_connHandle.bdHandle,&cyBle_authInfo);
 173:.\BLEApplication.c ****                 #endif
 174:.\BLEApplication.c ****             }
 175:.\BLEApplication.c ****             else
 176:.\BLEApplication.c ****             {
 177:.\BLEApplication.c **** //                CommandMode=THROUGHT_MODE;
 178:.\BLEApplication.c ****                 printf("+CONN_EVT=%d,OK\r\n",Conn_or_Disconn_Idx);   
 179:.\BLEApplication.c **** //                ‰∏é‰ªéÊú∫ËøûÊé•ÊàêÂäüÂêéÔºå‰∏ªÊú∫ÂèëËµ∑ËøûÊé•Èó¥ÈöîÊõ¥Êñ∞ËØ∑Ê±Ç
 180:.\BLEApplication.c ****                 CyBle_GapcConnectionParamUpdateRequest(cyBle_connHandle.bdHandle,&connParam);
 181:.\BLEApplication.c ****                 /* Initiate an MTU exchange request CYBLE_GATT_MTU*/
 182:.\BLEApplication.c ****                 CyBle_GattcExchangeMtuReq(cyBle_connHandle,CYBLE_GATT_MTU);
 183:.\BLEApplication.c ****             }
 184:.\BLEApplication.c **** //            //‰∏ªÊú∫ÂèëÈÄÅÁöÑMTU exchange request
 185:.\BLEApplication.c **** //            if(MTU_REQ_FLAG)
 186:.\BLEApplication.c **** //            {
 187:.\BLEApplication.c **** //                MTU_REQ_FLAG=FALSE;
 188:.\BLEApplication.c **** //                /* Initiate an MTU exchange request */
 189:.\BLEApplication.c **** //                CyBle_GattcExchangeMtuReq(cyBle_connHandle, CYBLE_GATT_MTU);
 190:.\BLEApplication.c **** //            }
 191:.\BLEApplication.c ****         break;
 192:.\BLEApplication.c ****         case CYBLE_EVT_GAP_CONNECTION_UPDATE_COMPLETE: 
 193:.\BLEApplication.c **** //            Ëé∑ÂèñËøûÊé•ÂèÇÊï∞‰ø°ÊÅØ
 194:.\BLEApplication.c ****             ConnParam=*(CYBLE_GAP_CONN_PARAM_UPDATED_IN_CONTROLLER_T *)eventParam;
 195:.\BLEApplication.c **** //            printf("+UPDATECONN_EVT=OK\r\n");
 196:.\BLEApplication.c **** //            if(Role==Central)
 197:.\BLEApplication.c **** //                Timer_Enable();
 198:.\BLEApplication.c ****         break;
 199:.\BLEApplication.c **** //            ‰∏ªÊú∫Êé•Êî∂‰ªéÊú∫ÁöÑMTU‰∫§Êç¢ÂìçÂ∫î
 200:.\BLEApplication.c ****         case CYBLE_EVT_GATTC_XCHNG_MTU_RSP:            
 201:.\BLEApplication.c **** //            negotiatedMtu=((CYBLE_GATT_XCHG_MTU_PARAM_T *)eventParam)->mtu;
 202:.\BLEApplication.c **** //            printf("mtu is %d\r\n",negotiatedMtu);
 203:.\BLEApplication.c ****             /* Enable notifications on the characteristic to get data from the 
 204:.\BLEApplication.c ****              * Server.
 205:.\BLEApplication.c ****              */
 206:.\BLEApplication.c **** //            TroughtTest_Flag=TURE;  
 207:.\BLEApplication.c **** //            UART_UartPutString("Calculating throughput. Please wait...\n\r");
 208:.\BLEApplication.c **** //            Timer_Enable();
ARM GAS  C:\Users\Helon\AppData\Local\Temp\ccKCxrf8.s 			page 6


 209:.\BLEApplication.c **** //            printf("'MTU Exchange Response' received from server device\r\n");
 210:.\BLEApplication.c **** //            if(0x00==writeRequestData.value.val[0])
 211:.\BLEApplication.c **** //                writeRequestData.value.val[0]=0x01;
 212:.\BLEApplication.c **** //            writeRequestData.attrHandle=CYBLE_TROUGHPUT_SERVICE_SPEEDTEST_CHAR_HANDLE;
 213:.\BLEApplication.c **** //            CyBle_GattcWriteCharacteristicValue(cyBle_connHandle, &writeRequestData);   
 214:.\BLEApplication.c **** //            printf("Notify slave is %d",API_RESULT);
 215:.\BLEApplication.c **** //            while((UART_SpiUartGetTxBufferSize() + UART_GET_TX_FIFO_SR_VALID) != 0);//Á≠âÂæÖ‰∏≤Âè
 216:.\BLEApplication.c ****             break;
 217:.\BLEApplication.c ****         /* GATT MTU exchange request - Update the negotiated MTU value */
 218:.\BLEApplication.c **** //            ÂÅö‰∏∫‰ªéÊú∫Êó∂Êé•Êî∂‰∏ªÊú∫ÂèëÈÄÅËøáÊù•ÁöÑMTU‰∫§Êç¢ËØ∑Ê±Ç
 219:.\BLEApplication.c ****         case CYBLE_EVT_GATTS_XCNHG_MTU_REQ:            
 220:.\BLEApplication.c **** //            negotiatedMtu = (((CYBLE_GATT_XCHG_MTU_PARAM_T *)eventParam)->mtu < CYBLE_GATT_MTU) ?
 221:.\BLEApplication.c **** //                            ((CYBLE_GATT_XCHG_MTU_PARAM_T *)eventParam)->mtu : CYBLE_GATT_MTU;
 222:.\BLEApplication.c **** //            CyBle_GattsExchangeMtuRsp(cyBle_connHandle,negotiatedMtu);                           
 223:.\BLEApplication.c **** //                            printf("mtu is %d\r\n",negotiatedMtu);
 224:.\BLEApplication.c **** //            printf("'MTU Exchange Request' received from GATT client device\r\n");
 225:.\BLEApplication.c ****         break;
 226:.\BLEApplication.c ****         case CYBLE_EVT_GAP_DEVICE_DISCONNECTED:   
 227:.\BLEApplication.c ****             cyBle_discoveryModeInfo.advTo = CYBLE_FAST_ADV_TIMEOUT;
 228:.\BLEApplication.c ****             cyBle_discoveryModeInfo.advParam->advIntvMin = CYBLE_FAST_ADV_INT_MIN;
 229:.\BLEApplication.c ****             cyBle_discoveryModeInfo.advParam->advIntvMax = CYBLE_FAST_ADV_INT_MAX;                 
 230:.\BLEApplication.c ****             if(Role==Peripheral)
 231:.\BLEApplication.c ****             {
 232:.\BLEApplication.c ****                printf("+DISCONN_EVT=0x%02X\r\n",*(uint8_t*)eventParam);
 233:.\BLEApplication.c ****                if(!SleepMode)
 234:.\BLEApplication.c ****                {
 235:.\BLEApplication.c ****                    CyBle_GappStartAdvertisement(CYBLE_ADVERTISING_SLOW);
 236:.\BLEApplication.c ****                }
 237:.\BLEApplication.c ****                else
 238:.\BLEApplication.c ****                {
 239:.\BLEApplication.c ****                    LowPower_EN=TURE;
 240:.\BLEApplication.c ****                }
 241:.\BLEApplication.c ****             }
 242:.\BLEApplication.c ****             else
 243:.\BLEApplication.c ****             {
 244:.\BLEApplication.c ****                printf("+DISCONN_EVT=%d,0x%02X\r\n",Conn_or_Disconn_Idx,*(uint8_t*)eventParam);
 245:.\BLEApplication.c ****                if(!SleepMode)
 246:.\BLEApplication.c ****                {
 247:.\BLEApplication.c ****                    CyBle_GapcStartScan(CYBLE_SCANNING_SLOW);
 248:.\BLEApplication.c ****                }
 249:.\BLEApplication.c ****                else
 250:.\BLEApplication.c ****                {
 251:.\BLEApplication.c ****                    LowPower_EN=TURE;
 252:.\BLEApplication.c ****                }
 253:.\BLEApplication.c ****             }
 254:.\BLEApplication.c ****             while((UART_SpiUartGetTxBufferSize() + UART_GET_TX_FIFO_SR_VALID) != 0);//Á≠âÂæÖ‰∏≤Âè£Á
 255:.\BLEApplication.c **** //            LowPower_EN=TURE;
 256:.\BLEApplication.c ****             AUTHFLAG=FALSE;         
 257:.\BLEApplication.c ****             CommandMode=AT_COMMAND_MODE;
 258:.\BLEApplication.c ****             CTS_Write(CTS_OFF);
 259:.\BLEApplication.c ****             /* RESET Uart and flush all buffers */
 260:.\BLEApplication.c ****             UART_Stop();
 261:.\BLEApplication.c ****             UART_SpiUartClearTxBuffer();
 262:.\BLEApplication.c ****             UART_SpiUartClearRxBuffer();
 263:.\BLEApplication.c ****             UART_Start();
 264:.\BLEApplication.c ****         break;
 265:.\BLEApplication.c **** //            ‰ªéÊú∫Êé•Êî∂‰∏ªÊú∫ÁöÑÂÜôËØ∑Ê±ÇÔºåÂπ∂‰∏î‰ªéÊú∫‰∏çÈúÄË¶ÅÂÜôÂìçÂ∫î
ARM GAS  C:\Users\Helon\AppData\Local\Temp\ccKCxrf8.s 			page 7


 266:.\BLEApplication.c ****         case CYBLE_EVT_GATTS_WRITE_CMD_REQ:
 267:.\BLEApplication.c ****             writeParam = *(CYBLE_GATTS_WRITE_REQ_PARAM_T *)eventParam;
 268:.\BLEApplication.c ****             //Ëá™ÂÆö‰πâÊúçÂä°ÁöÑCUSTOM Characteristic
 269:.\BLEApplication.c ****             if(writeParam.handleValPair.attrHandle == 
 270:.\BLEApplication.c ****                CYBLE_TROUGHPUT_SERVICE_CUSTOM_CHARACTERISTIC_CHAR_HANDLE)
 271:.\BLEApplication.c ****             {
 272:.\BLEApplication.c ****                 if(CommandMode==THROUGHT_MODE)
 273:.\BLEApplication.c ****                 {
 274:.\BLEApplication.c ****                     testCount+=writeParam.handleValPair.value.len;    
 275:.\BLEApplication.c **** //                printf("0x");
 276:.\BLEApplication.c **** //                UART_UartPutString("0x");
 277:.\BLEApplication.c ****                     for(i=0;i<writeParam.handleValPair.value.len;i++)
 278:.\BLEApplication.c ****                     {                    
 279:.\BLEApplication.c ****     //                    printf("%02X",writeParam.handleValPair.value.val[i]);
 280:.\BLEApplication.c ****                         UART_UartPutChar(writeParam.handleValPair.value.val[i]);
 281:.\BLEApplication.c ****                     }  
 282:.\BLEApplication.c ****                 }
 283:.\BLEApplication.c **** //                UART_UartPutString("\r\n");
 284:.\BLEApplication.c **** //                printf("\r\n");
 285:.\BLEApplication.c **** //                UART_SpiUartWriteTxData(testCount);
 286:.\BLEApplication.c **** //                printf("%ld\r\n",testCount);
 287:.\BLEApplication.c **** //                printf("+RX=<0x");
 288:.\BLEApplication.c **** //                for(i=0;i<writeParam.handleValPair.value.len;i++)
 289:.\BLEApplication.c **** //                {
 290:.\BLEApplication.c **** //                    printf("%02X",writeParam.handleValPair.value.val[i]);
 291:.\BLEApplication.c **** //                }
 292:.\BLEApplication.c **** //                printf(">\r\n");
 293:.\BLEApplication.c ****             } 
 294:.\BLEApplication.c ****              //Ëá™ÂÆö‰πâÊúçÂä°ÁöÑClient Characteristic
 295:.\BLEApplication.c ****             if(writeParam.handleValPair.attrHandle == 
 296:.\BLEApplication.c ****                CYBLE_TROUGHPUT_SERVICE_CUSTOM_CHARACTERISTIC_CLIENT_CHARACTERISTIC_CONFIGURATION_DE
 297:.\BLEApplication.c ****             {
 298:.\BLEApplication.c ****                 charNotificationEnabled = writeParam.handleValPair.value.val[0];  
 299:.\BLEApplication.c ****                 if(charNotificationEnabled)
 300:.\BLEApplication.c ****                 {               
 301:.\BLEApplication.c ****                     CommandMode=THROUGHT_MODE;
 302:.\BLEApplication.c ****                     CTS_Write(CTS_ON);
 303:.\BLEApplication.c ****                     printf("+MODE=THROUGHT_MODE\r\n");
 304:.\BLEApplication.c ****                 }
 305:.\BLEApplication.c ****                 else
 306:.\BLEApplication.c ****                 {
 307:.\BLEApplication.c ****                     CommandMode=AT_COMMAND_MODE;
 308:.\BLEApplication.c ****                     CTS_Write(CTS_OFF);
 309:.\BLEApplication.c ****                     printf("+MODE=AT_COMMAND_MODE\r\n");
 310:.\BLEApplication.c ****                 }
 311:.\BLEApplication.c ****             }   
 312:.\BLEApplication.c ****         break;
 313:.\BLEApplication.c ****         /* Check if the Client Characteristic Configuration Descriptor is
 314:.\BLEApplication.c ****          * written to. Notification is enabled or disabled accordingly.
 315:.\BLEApplication.c ****         */
 316:.\BLEApplication.c **** //            ‰ªéÊú∫Êé•Êî∂‰∏ªÊú∫ÁöÑÂÜôËØ∑Ê±ÇÔºåÂπ∂‰∏î‰ªéÊú∫Ë¶ÅÊúâÂÜôÂìçÂ∫î
 317:.\BLEApplication.c ****         case CYBLE_EVT_GATTS_WRITE_REQ:
 318:.\BLEApplication.c **** //            writeParam = *(CYBLE_GATTS_WRITE_REQ_PARAM_T *)eventParam;
 319:.\BLEApplication.c **** //            //Ëá™ÂÆö‰πâÊúçÂä°ÁöÑCUSTOM Characteristic
 320:.\BLEApplication.c **** //            if(writeParam.handleValPair.attrHandle == 
 321:.\BLEApplication.c **** //               CYBLE_TROUGHPUT_SERVICE_CUSTOM_CHARACTERISTIC_CHAR_HANDLE)
 322:.\BLEApplication.c **** //            {
ARM GAS  C:\Users\Helon\AppData\Local\Temp\ccKCxrf8.s 			page 8


 323:.\BLEApplication.c **** //                testCount+=writeParam.handleValPair.value.len;
 324:.\BLEApplication.c **** ////                UART_SpiUartWriteTxData(testCount);
 325:.\BLEApplication.c **** ////                printf("%ld\r\n",testCount);
 326:.\BLEApplication.c **** ////                printf("+RX=<0x");
 327:.\BLEApplication.c **** ////                for(i=0;i<writeParam.handleValPair.value.len;i++)
 328:.\BLEApplication.c **** ////                {
 329:.\BLEApplication.c **** ////                    printf("%02X",writeParam.handleValPair.value.val[i]);
 330:.\BLEApplication.c **** ////                }
 331:.\BLEApplication.c **** ////                printf(">\r\n");
 332:.\BLEApplication.c **** //            } 
 333:.\BLEApplication.c **** //            //Ëá™ÂÆö‰πâÊúçÂä°ÁöÑClient Characteristic
 334:.\BLEApplication.c **** //            if(writeParam.handleValPair.attrHandle == 
 335:.\BLEApplication.c **** //               CYBLE_TROUGHPUT_SERVICE_CUSTOM_CHARACTERISTIC_CLIENT_CHARACTERISTIC_CONFIGURATION_
 336:.\BLEApplication.c **** //            {
 337:.\BLEApplication.c **** //                charNotificationEnabled = writeParam.handleValPair.value.val[0];  
 338:.\BLEApplication.c **** //                if(charNotificationEnabled)
 339:.\BLEApplication.c **** //                {               
 340:.\BLEApplication.c **** //                    CommandMode=THROUGHT_MODE;
 341:.\BLEApplication.c **** //                    printf("+MODE=<THROUGHT_MODE>\r\n");
 342:.\BLEApplication.c **** //                }
 343:.\BLEApplication.c **** //                else
 344:.\BLEApplication.c **** //                {
 345:.\BLEApplication.c **** //                    CommandMode=AT_COMMAND_MODE;
 346:.\BLEApplication.c **** //                    printf("+MODE=<AT_COMMAND_MODE>\r\n");
 347:.\BLEApplication.c **** //                }
 348:.\BLEApplication.c **** //            }   
 349:.\BLEApplication.c **** //            //Ëá™ÂÆö‰πâÊúçÂä°ÁöÑSPEEDTEST Characteristic
 350:.\BLEApplication.c **** //            if(writeParam.handleValPair.attrHandle == 
 351:.\BLEApplication.c **** //               CYBLE_TROUGHPUT_SERVICE_SPEEDTEST_CHAR_HANDLE)
 352:.\BLEApplication.c **** //            {
 353:.\BLEApplication.c **** //                TroughtTest_Flag = writeParam.handleValPair.value.val[0];                
 354:.\BLEApplication.c **** //            }               
 355:.\BLEApplication.c **** //            CyBle_GattsWriteRsp(cyBle_connHandle);
 356:.\BLEApplication.c ****         break;
 357:.\BLEApplication.c **** //        ÂÅö‰∏∫‰∏ªÊú∫Êó∂ÔºåÊé•Êî∂Âà∞‰ªéÊú∫ÁöÑÂÜôÂìçÂ∫î
 358:.\BLEApplication.c ****         case CYBLE_EVT_GATTC_WRITE_RSP:
 359:.\BLEApplication.c ****             /* Write response for the CCCD write; this means that the
 360:.\BLEApplication.c ****              * notifications are now enabled.
 361:.\BLEApplication.c ****              * Start timing measurements to calculate throughput.
 362:.\BLEApplication.c ****              */
 363:.\BLEApplication.c **** //            if(TroughtTest_Flag)//‰ªÖ‰ªÖÂìçÂ∫îÊµãËØïÈÄè‰º†ÈÄüÁéáÊåá‰ª§,ÂÖ∂‰ªñÂÜôËØ∑Ê±Ç‰∏çÂìçÂ∫î
 364:.\BLEApplication.c **** //            {                
 365:.\BLEApplication.c **** ////                TroughtTest_Flag=FALSE;
 366:.\BLEApplication.c **** //                UART_UartPutString("Calculating throughput. Please wait...\n\r");
 367:.\BLEApplication.c **** //                Timer_Enable();
 368:.\BLEApplication.c **** //            }
 369:.\BLEApplication.c ****         break;
 370:.\BLEApplication.c **** //        case CYBLE_EVT_GATTC_READ_RSP:
 371:.\BLEApplication.c **** //            readParam=*(CYBLE_GATTC_READ_RSP_PARAM_T*)eventParam;
 372:.\BLEApplication.c **** //            if((readParam.value.val[0]))
 373:.\BLEApplication.c **** //                printf("+NOTIFY=<ENABLE>\r\n");
 374:.\BLEApplication.c **** //            else
 375:.\BLEApplication.c **** //                printf("+NOTIFY=<DISABLE>\r\n");
 376:.\BLEApplication.c **** //        break;
 377:.\BLEApplication.c **** //        Êé•Êî∂‰ªéÊú∫ÂèëÈÄÅËøáÊù•ÁöÑÈÄè‰º†Êï∞ÊçÆ            
 378:.\BLEApplication.c ****         case CYBLE_EVT_GATTC_HANDLE_VALUE_NTF:
 379:.\BLEApplication.c ****             if(TroughtTest_Flag==TRUE)
ARM GAS  C:\Users\Helon\AppData\Local\Temp\ccKCxrf8.s 			page 9


 380:.\BLEApplication.c ****             {
 381:.\BLEApplication.c ****                 if(Central==Role)//‰ªÖÊµãËØïÈÄè‰º†ÈÄüÁéáÊó∂ÊúâÊïà
 382:.\BLEApplication.c ****                 {
 383:.\BLEApplication.c ****                     handleValueNotification = (CYBLE_GATTC_HANDLE_VALUE_NTF_PARAM_T *)eventParam;
 384:.\BLEApplication.c ****                     if(handleValueNotification->handleValPair.attrHandle == 0x000E)//NotifyÊùÉÈôêÁö
 385:.\BLEApplication.c ****                     {
 386:.\BLEApplication.c ****         //                printf("Len is %d",handleValueNotification->handleValPair.value.len);
 387:.\BLEApplication.c ****                         totalByteCounter += handleValueNotification->handleValPair.value.len;
 388:.\BLEApplication.c ****                     }
 389:.\BLEApplication.c ****     //                printf("ReceviceNotification\r\n");
 390:.\BLEApplication.c ****                 }
 391:.\BLEApplication.c ****             }
 392:.\BLEApplication.c ****             else
 393:.\BLEApplication.c ****             {
 394:.\BLEApplication.c ****                 if(Central==Role)//Êé•Êî∂‰ªéÊú∫ÂèëÈÄÅËøáÊù•ÁöÑÈÄè‰º†Êï∞ÊçÆ
 395:.\BLEApplication.c ****                 {
 396:.\BLEApplication.c ****                     handleValueNotification = (CYBLE_GATTC_HANDLE_VALUE_NTF_PARAM_T *)eventParam;
 397:.\BLEApplication.c ****                     if(handleValueNotification->handleValPair.attrHandle == 0x000E)//NotifyÊùÉÈôêÁö
 398:.\BLEApplication.c ****                     {
 399:.\BLEApplication.c ****         //                printf("Len is %d",handleValueNotification->handleValPair.value.len);
 400:.\BLEApplication.c ****     //                    totalByteCounter += handleValueNotification->handleValPair.value.len;
 401:.\BLEApplication.c ****     //                    printf("%ld\r\n",totalByteCounter);
 402:.\BLEApplication.c **** //                        printf("+RX=<0x");
 403:.\BLEApplication.c ****                           if(CommandMode==THROUGHT_MODE)
 404:.\BLEApplication.c ****                           {
 405:.\BLEApplication.c ****                             for(i=0;i<handleValueNotification->handleValPair.value.len;i++)
 406:.\BLEApplication.c ****                             {
 407:.\BLEApplication.c ****     //                            printf("%02X",handleValueNotification->handleValPair.value.val[i]
 408:.\BLEApplication.c ****                                 UART_UartPutChar(handleValueNotification->handleValPair.value.val[i
 409:.\BLEApplication.c ****                             }
 410:.\BLEApplication.c ****                           }
 411:.\BLEApplication.c **** //                        printf("\r\n");
 412:.\BLEApplication.c ****                     }
 413:.\BLEApplication.c ****                 }
 414:.\BLEApplication.c ****             }
 415:.\BLEApplication.c ****             break;
 416:.\BLEApplication.c **** //        case CYBLE_EVT_GATTC_READ_BY_TYPE_RSP:
 417:.\BLEApplication.c **** //            DisAllCharResult=*((CYBLE_GATTC_READ_BY_TYPE_RSP_PARAM_T*)eventParam);
 418:.\BLEApplication.c **** //            printf("characteristic declaration is 0x%04X\r\n",DisAllCharResult.connHandle.bdHandl
 419:.\BLEApplication.c **** //            printf("attrLen is %d\r\n",DisAllCharResult.attrData.attrLen);   
 420:.\BLEApplication.c **** //            for(i=0;i<DisAllCharResult.attrData.attrLen;)
 421:.\BLEApplication.c **** //            {
 422:.\BLEApplication.c **** //                printf("Attribute Handle is 0x%02X%02X\r\n",DisAllCharResult.attrData.attrValue[i
 423:.\BLEApplication.c **** //                printf("Properties is 0x%02X\r\n",DisAllCharResult.attrData.attrValue[i+2]); 
 424:.\BLEApplication.c **** //                printf("Pointer Handle is 0x%02X%02X\r\n",DisAllCharResult.attrData.attrValue[i+4
 425:.\BLEApplication.c **** //                printf("UUID is 0x%02X%02X\r\n",DisAllCharResult.attrData.attrValue[i+6],DisAllCh
 426:.\BLEApplication.c **** //                i+=7;
 427:.\BLEApplication.c **** //            }
 428:.\BLEApplication.c **** ////            printf("uuid16 is 0x%04X\r\n",DisAllCharResult.uuid.uuid16); 
 429:.\BLEApplication.c **** ////            printf("uuidFormat is 0x%04X\r\n",DisAllCharResult.uuidFormat); 
 430:.\BLEApplication.c **** ////            printf("valueHandle is 0x%04X\r\n",DisAllCharResult.valueHandle);            
 431:.\BLEApplication.c **** //        break;
 432:.\BLEApplication.c **** //        Êü•ÊâæServerÁöÑÊâÄÊúâÁâπÂæÅÂÄº
 433:.\BLEApplication.c ****         case CYBLE_EVT_GATTC_FIND_INFO_RSP:
 434:.\BLEApplication.c ****             DisAllCharResult=*((CYBLE_GATTC_FIND_INFO_RSP_PARAM_T *)eventParam);
 435:.\BLEApplication.c **** //            printf("+DISALLCHAR=<0x%02X%02X,",);
 436:.\BLEApplication.c **** //            printf("connHandle is 0x%04X\r\n",DisAllCharResult.connHandle.bdHandle);
ARM GAS  C:\Users\Helon\AppData\Local\Temp\ccKCxrf8.s 			page 10


 437:.\BLEApplication.c **** //            printf("uuidFormat is %d\r\n",DisAllCharResult.uuidFormat);
 438:.\BLEApplication.c **** //            printf("byteCount is %d\r\n",DisAllCharResult.handleValueList.byteCount);
 439:.\BLEApplication.c ****             for(i=0;i<DisAllCharResult.handleValueList.byteCount;)
 440:.\BLEApplication.c ****             {                
 441:.\BLEApplication.c ****                 printf("+DIS_EVT=0x%02X%02X,0x%02X%02X\r\n",
 442:.\BLEApplication.c ****                     DisAllCharResult.handleValueList.list[i+1],DisAllCharResult.handleValueList.lis
 443:.\BLEApplication.c ****                     DisAllCharResult.handleValueList.list[i+3],DisAllCharResult.handleValueList.lis
 444:.\BLEApplication.c ****                 i=i+4;
 445:.\BLEApplication.c ****             }
 446:.\BLEApplication.c ****         break;
 447:.\BLEApplication.c ****         case CYBLE_EVT_GAP_AUTH_REQ:
 448:.\BLEApplication.c ****             if(Role==Peripheral)//‰ªéÊú∫Êé•Êî∂‰∏ªÊú∫ÂèëËµ∑ËÆ§ËØÅËØ∑Ê±Ç
 449:.\BLEApplication.c ****             {
 450:.\BLEApplication.c ****                 CyBle_GappAuthReqReply(cyBle_connHandle.bdHandle,&cyBle_authInfo);
 451:.\BLEApplication.c ****             }
 452:.\BLEApplication.c ****             else
 453:.\BLEApplication.c ****             {
 454:.\BLEApplication.c **** //                CyBle_GappAuthReq();
 455:.\BLEApplication.c ****             }
 456:.\BLEApplication.c ****         break;    
 457:.\BLEApplication.c ****         case CYBLE_EVT_GAP_PASSKEY_DISPLAY_REQUEST://ÊòæÁ§∫ÈöèÊú∫‰∫ßÁîüÁöÑÈÖçÂØπÁ†Å
 458:.\BLEApplication.c **** //            PassKey=*(uint32*)eventParam;   
 459:.\BLEApplication.c ****             if((*(uint32 *)eventParam)<100000)//Ëß£ÂÜ≥ÈöèÊú∫ÈÖçÂØπÁ†ÅÊúÄÈ´ò‰ΩçÊòØ0Êó∂ÁöÑÊÉÖÂÜµ
 460:.\BLEApplication.c ****             {
 461:.\BLEApplication.c ****                 printf("+AUTHKEY=0");
 462:.\BLEApplication.c ****                 printf("%lu\r\n",*(uint32 *)eventParam);                
 463:.\BLEApplication.c ****             }
 464:.\BLEApplication.c ****             else
 465:.\BLEApplication.c ****                 printf("+AUTHKEY=%lu\r\n",*(uint32 *)eventParam);
 466:.\BLEApplication.c ****         break;
 467:.\BLEApplication.c ****         case CYBLE_EVT_GAP_PASSKEY_ENTRY_REQUEST:
 468:.\BLEApplication.c ****             KEYBOARD=TURE;//Ê†áËÆ∞Ê≠§Êó∂Ê≠§ËÆæÂ§áÂÖ∑ÊúâËæìÂÖ•ËÉΩÂäõ
  77              		.loc 1 468 0
  78 003c 1A75     		strb	r2, [r3, #20]
 469:.\BLEApplication.c ****             printf("Please Input PassKey:\r\n");            
  79              		.loc 1 469 0
  80 003e 9548     		ldr	r0, .L53+8
  81              	.LVL4:
  82 0040 17E1     		b	.L49
  83              	.LVL5:
  84              	.L4:
 114:.\BLEApplication.c ****     {
  85              		.loc 1 114 0
  86 0042 2A28     		cmp	r0, #42
  87 0044 63D0     		beq	.L13
  88 0046 05D8     		bhi	.L14
  89 0048 2728     		cmp	r0, #39
  90 004a 3DD0     		beq	.L15
  91 004c 33D3     		bcc	.L16
  92 004e 2828     		cmp	r0, #40
  93 0050 62D0     		beq	.L17
  94 0052 18E1     		b	.L1
  95              	.L14:
  96 0054 4728     		cmp	r0, #71
  97 0056 00D1     		bne	.LCB70
  98 0058 E3E0     		b	.L18	@long jump
  99              	.LCB70:
ARM GAS  C:\Users\Helon\AppData\Local\Temp\ccKCxrf8.s 			page 11


 100 005a 02D8     		bhi	.L19
 101 005c 2B28     		cmp	r0, #43
 102 005e 19D0     		beq	.L20
 103 0060 11E1     		b	.L1
 104              	.L19:
 105 0062 4E28     		cmp	r0, #78
 106 0064 00D1     		bne	.LCB80
 107 0066 92E0     		b	.L21	@long jump
 108              	.LCB80:
 109 0068 5228     		cmp	r0, #82
 110 006a 00D1     		bne	.LCB82
 111 006c B7E0     		b	.L22	@long jump
 112              	.LCB82:
 113 006e 0AE1     		b	.L1
 114              	.LVL6:
 115              	.L23:
 118:.\BLEApplication.c **** //            StartScan=TRUE;     
 116              		.loc 1 118 0 discriminator 5
 117 0070 FFF7FEFF 		bl	UART_SpiUartGetTxBufferSize
 118              	.LVL7:
 119 0074 884B     		ldr	r3, .L53+12
 120 0076 1B68     		ldr	r3, [r3]
 121 0078 1B04     		lsl	r3, r3, #16
 122 007a DB17     		asr	r3, r3, #31
 123 007c 8342     		cmp	r3, r0
 124 007e F7D1     		bne	.L23
 125 0080 01E1     		b	.L1
 126              	.LVL8:
 127              	.L8:
 123:.\BLEApplication.c ****             HandleScanDevices(&Scan_Result);               
 128              		.loc 1 123 0
 129 0082 03A8     		add	r0, sp, #12
 130              	.LVL9:
 131 0084 031C     		mov	r3, r0
 132 0086 26CC     		ldmia	r4!, {r1, r2, r5}
 133 0088 26C3     		stmia	r3!, {r1, r2, r5}
 134              	.LVL10:
 135 008a 06CC     		ldmia	r4!, {r1, r2}
 136 008c 06C3     		stmia	r3!, {r1, r2}
 137              	.LVL11:
 124:.\BLEApplication.c **** //            CyBle_GapcStopScan();
 138              		.loc 1 124 0
 139 008e FFF7FEFF 		bl	HandleScanDevices
 140              	.LVL12:
 126:.\BLEApplication.c ****         case CYBLE_EVT_GAPC_SCAN_START_STOP:
 141              		.loc 1 126 0
 142 0092 F8E0     		b	.L1
 143              	.LVL13:
 144              	.L20:
 128:.\BLEApplication.c ****             {
 145              		.loc 1 128 0
 146 0094 7E4B     		ldr	r3, .L53+4
 147 0096 1A78     		ldrb	r2, [r3]
 148 0098 002A     		cmp	r2, #0
 149 009a 00D1     		bne	.LCB124
 150 009c F3E0     		b	.L1	@long jump
 151              	.LCB124:
ARM GAS  C:\Users\Helon\AppData\Local\Temp\ccKCxrf8.s 			page 12


 130:.\BLEApplication.c ****                 printf("+SCAN_STOP\r\n");
 152              		.loc 1 130 0
 153 009e 0022     		mov	r2, #0
 131:.\BLEApplication.c ****             }
 154              		.loc 1 131 0
 155 00a0 7E48     		ldr	r0, .L53+16
 156              	.LVL14:
 130:.\BLEApplication.c ****                 printf("+SCAN_STOP\r\n");
 157              		.loc 1 130 0
 158 00a2 1A70     		strb	r2, [r3]
 159 00a4 E5E0     		b	.L49
 160              	.LVL15:
 161              	.L7:
 140:.\BLEApplication.c ****             {   
 162              		.loc 1 140 0
 163 00a6 0B78     		ldrb	r3, [r1]
 164 00a8 022B     		cmp	r3, #2
 165 00aa 00D0     		beq	.LCB136
 166 00ac EBE0     		b	.L1	@long jump
 167              	.LCB136:
 142:.\BLEApplication.c ****                 printf("+SCAN_CMP\r\n");                    
 168              		.loc 1 142 0
 169 00ae FFF7FEFF 		bl	CyBle_GapcStopScan
 170              	.LVL16:
 143:.\BLEApplication.c ****             }
 171              		.loc 1 143 0
 172 00b2 7B48     		ldr	r0, .L53+20
 173 00b4 DDE0     		b	.L49
 174              	.LVL17:
 175              	.L16:
 153:.\BLEApplication.c ****             {
 176              		.loc 1 153 0
 177 00b6 7B4B     		ldr	r3, .L53+24
 178 00b8 1B78     		ldrb	r3, [r3]
 179 00ba 032B     		cmp	r3, #3
 180 00bc 00D1     		bne	.LCB151
 181 00be E2E0     		b	.L1	@long jump
 182              	.LCB151:
 155:.\BLEApplication.c ****             }
 183              		.loc 1 155 0
 184 00c0 0120     		mov	r0, #1
 185              	.LVL18:
 186 00c2 FFF7FEFF 		bl	CyBle_GappStartAdvertisement
 187              	.LVL19:
 188 00c6 DEE0     		b	.L1
 189              	.LVL20:
 190              	.L15:
 160:.\BLEApplication.c ****             if(Role==Peripheral)
 191              		.loc 1 160 0
 192 00c8 0822     		mov	r2, #8
 193 00ca 7748     		ldr	r0, .L53+28
 194              	.LVL21:
 195 00cc FFF7FEFF 		bl	memcpy
 196              	.LVL22:
 161:.\BLEApplication.c ****             {
 197              		.loc 1 161 0
 198 00d0 6F4B     		ldr	r3, .L53+4
ARM GAS  C:\Users\Helon\AppData\Local\Temp\ccKCxrf8.s 			page 13


 199 00d2 764C     		ldr	r4, .L53+32
 200              	.LVL23:
 201 00d4 5A78     		ldrb	r2, [r3, #1]
 202 00d6 764D     		ldr	r5, .L53+36
 203 00d8 002A     		cmp	r2, #0
 204 00da 07D1     		bne	.L25
 163:.\BLEApplication.c **** //                handleValuePair.value.val[0]=0x01;
 205              		.loc 1 163 0
 206 00dc 7548     		ldr	r0, .L53+40
 207 00de FFF7FEFF 		bl	puts
 208              	.LVL24:
 170:.\BLEApplication.c ****                 #ifdef RELEASE
 209              		.loc 1 170 0
 210 00e2 2078     		ldrb	r0, [r4]
 211 00e4 291C     		mov	r1, r5
 212 00e6 FFF7FEFF 		bl	CyBle_L2capLeConnectionParamUpdateRequest
 213              	.LVL25:
 214 00ea CCE0     		b	.L1
 215              	.L25:
 178:.\BLEApplication.c **** //                ‰∏é‰ªéÊú∫ËøûÊé•ÊàêÂäüÂêéÔºå‰∏ªÊú∫ÂèëËµ∑ËøûÊé•Èó¥ÈöîÊõ¥Êñ∞ËØ∑Ê±Ç
 216              		.loc 1 178 0
 217 00ec 9978     		ldrb	r1, [r3, #2]
 218 00ee 7248     		ldr	r0, .L53+44
 219 00f0 FFF7FEFF 		bl	printf
 220              	.LVL26:
 180:.\BLEApplication.c ****                 /* Initiate an MTU exchange request CYBLE_GATT_MTU*/
 221              		.loc 1 180 0
 222 00f4 291C     		mov	r1, r5
 223 00f6 2078     		ldrb	r0, [r4]
 224 00f8 FFF7FEFF 		bl	CyBle_GapcConnectionParamUpdateRequest
 225              	.LVL27:
 182:.\BLEApplication.c ****             }
 226              		.loc 1 182 0
 227 00fc 8021     		mov	r1, #128
 228 00fe 6078     		ldrb	r0, [r4, #1]
 229 0100 2378     		ldrb	r3, [r4]
 230 0102 0002     		lsl	r0, r0, #8
 231 0104 1843     		orr	r0, r3
 232 0106 8900     		lsl	r1, r1, #2
 233 0108 FFF7FEFF 		bl	CyBle_GattcExchangeMtuReq
 234              	.LVL28:
 235 010c BBE0     		b	.L1
 236              	.LVL29:
 237              	.L13:
 194:.\BLEApplication.c **** //            printf("+UPDATECONN_EVT=OK\r\n");
 238              		.loc 1 194 0
 239 010e 0822     		mov	r2, #8
 240 0110 6548     		ldr	r0, .L53+28
 241              	.LVL30:
 242 0112 FFF7FEFF 		bl	memcpy
 243              	.LVL31:
 198:.\BLEApplication.c **** //            ‰∏ªÊú∫Êé•Êî∂‰ªéÊú∫ÁöÑMTU‰∫§Êç¢ÂìçÂ∫î
 244              		.loc 1 198 0
 245 0116 B6E0     		b	.L1
 246              	.LVL32:
 247              	.L17:
 227:.\BLEApplication.c ****             cyBle_discoveryModeInfo.advParam->advIntvMin = CYBLE_FAST_ADV_INT_MIN;
ARM GAS  C:\Users\Helon\AppData\Local\Temp\ccKCxrf8.s 			page 14


 248              		.loc 1 227 0
 249 0118 1E22     		mov	r2, #30
 250 011a 684B     		ldr	r3, .L53+48
 230:.\BLEApplication.c ****             {
 251              		.loc 1 230 0
 252 011c 5C4D     		ldr	r5, .L53+4
 227:.\BLEApplication.c ****             cyBle_discoveryModeInfo.advParam->advIntvMin = CYBLE_FAST_ADV_INT_MIN;
 253              		.loc 1 227 0
 254 011e 1A82     		strh	r2, [r3, #16]
 228:.\BLEApplication.c ****             cyBle_discoveryModeInfo.advParam->advIntvMax = CYBLE_FAST_ADV_INT_MAX;                 
 255              		.loc 1 228 0
 256 0120 5B68     		ldr	r3, [r3, #4]
 257 0122 0232     		add	r2, r2, #2
 258 0124 1A80     		strh	r2, [r3]
 229:.\BLEApplication.c ****             if(Role==Peripheral)
 259              		.loc 1 229 0
 260 0126 5A80     		strh	r2, [r3, #2]
 230:.\BLEApplication.c ****             {
 261              		.loc 1 230 0
 262 0128 6B78     		ldrb	r3, [r5, #1]
 263 012a 0A78     		ldrb	r2, [r1]
 264 012c 604C     		ldr	r4, .L53+36
 265 012e 002B     		cmp	r3, #0
 266 0130 0DD1     		bne	.L26
 232:.\BLEApplication.c ****                if(!SleepMode)
 267              		.loc 1 232 0
 268 0132 6348     		ldr	r0, .L53+52
 269              	.LVL33:
 270 0134 111C     		mov	r1, r2
 271              	.LVL34:
 272 0136 FFF7FEFF 		bl	printf
 273              	.LVL35:
 233:.\BLEApplication.c ****                {
 274              		.loc 1 233 0
 275 013a 237A     		ldrb	r3, [r4, #8]
 276 013c 002B     		cmp	r3, #0
 277 013e 03D1     		bne	.L27
 235:.\BLEApplication.c ****                }
 278              		.loc 1 235 0
 279 0140 0120     		mov	r0, #1
 280 0142 FFF7FEFF 		bl	CyBle_GappStartAdvertisement
 281              	.LVL36:
 282 0146 0CE0     		b	.L29
 283              	.L27:
 239:.\BLEApplication.c ****                }
 284              		.loc 1 239 0
 285 0148 0123     		mov	r3, #1
 286 014a 6372     		strb	r3, [r4, #9]
 287 014c 09E0     		b	.L29
 288              	.LVL37:
 289              	.L26:
 244:.\BLEApplication.c ****                if(!SleepMode)
 290              		.loc 1 244 0
 291 014e A978     		ldrb	r1, [r5, #2]
 292              	.LVL38:
 293 0150 5C48     		ldr	r0, .L53+56
 294              	.LVL39:
ARM GAS  C:\Users\Helon\AppData\Local\Temp\ccKCxrf8.s 			page 15


 295 0152 FFF7FEFF 		bl	printf
 296              	.LVL40:
 245:.\BLEApplication.c ****                {
 297              		.loc 1 245 0
 298 0156 237A     		ldrb	r3, [r4, #8]
 299 0158 002B     		cmp	r3, #0
 300 015a F5D1     		bne	.L27
 247:.\BLEApplication.c ****                }
 301              		.loc 1 247 0
 302 015c 0120     		mov	r0, #1
 303 015e FFF7FEFF 		bl	CyBle_GapcStartScan
 304              	.LVL41:
 305              	.L29:
 254:.\BLEApplication.c **** //            LowPower_EN=TURE;
 306              		.loc 1 254 0 discriminator 5
 307 0162 FFF7FEFF 		bl	UART_SpiUartGetTxBufferSize
 308              	.LVL42:
 309 0166 4C4B     		ldr	r3, .L53+12
 310 0168 1B68     		ldr	r3, [r3]
 311 016a 1B04     		lsl	r3, r3, #16
 312 016c DB0F     		lsr	r3, r3, #31
 313 016e C018     		add	r0, r0, r3
 314 0170 0028     		cmp	r0, #0
 315 0172 F6D1     		bne	.L29
 256:.\BLEApplication.c ****             CommandMode=AT_COMMAND_MODE;
 316              		.loc 1 256 0
 317 0174 E870     		strb	r0, [r5, #3]
 257:.\BLEApplication.c ****             CTS_Write(CTS_OFF);
 318              		.loc 1 257 0
 319 0176 2871     		strb	r0, [r5, #4]
 258:.\BLEApplication.c ****             /* RESET Uart and flush all buffers */
 320              		.loc 1 258 0
 321 0178 FFF7FEFF 		bl	CTS_Write
 322              	.LVL43:
 260:.\BLEApplication.c ****             UART_SpiUartClearTxBuffer();
 323              		.loc 1 260 0
 324 017c FFF7FEFF 		bl	UART_Stop
 325              	.LVL44:
 261:.\BLEApplication.c ****             UART_SpiUartClearRxBuffer();
 326              		.loc 1 261 0
 327 0180 FFF7FEFF 		bl	UART_SpiUartClearTxBuffer
 328              	.LVL45:
 262:.\BLEApplication.c ****             UART_Start();
 329              		.loc 1 262 0
 330 0184 FFF7FEFF 		bl	UART_SpiUartClearRxBuffer
 331              	.LVL46:
 263:.\BLEApplication.c ****         break;
 332              		.loc 1 263 0
 333 0188 FFF7FEFF 		bl	UART_Start
 334              	.LVL47:
 264:.\BLEApplication.c **** //            ‰ªéÊú∫Êé•Êî∂‰∏ªÊú∫ÁöÑÂÜôËØ∑Ê±ÇÔºåÂπ∂‰∏î‰ªéÊú∫‰∏çÈúÄË¶ÅÂÜôÂìçÂ∫î
 335              		.loc 1 264 0
 336 018c 7BE0     		b	.L1
 337              	.LVL48:
 338              	.L21:
 267:.\BLEApplication.c ****             //Ëá™ÂÆö‰πâÊúçÂä°ÁöÑCUSTOM Characteristic
 339              		.loc 1 267 0
ARM GAS  C:\Users\Helon\AppData\Local\Temp\ccKCxrf8.s 			page 16


 340 018e 8B89     		ldrh	r3, [r1, #12]
 341 0190 4D68     		ldr	r5, [r1, #4]
 342              	.LVL49:
 343 0192 0E89     		ldrh	r6, [r1, #8]
 344              	.LVL50:
 269:.\BLEApplication.c ****                CYBLE_TROUGHPUT_SERVICE_CUSTOM_CHARACTERISTIC_CHAR_HANDLE)
 345              		.loc 1 269 0
 346 0194 0E2B     		cmp	r3, #14
 347 0196 0FD1     		bne	.L30
 272:.\BLEApplication.c ****                 {
 348              		.loc 1 272 0
 349 0198 3D4B     		ldr	r3, .L53+4
 350              	.LVL51:
 351 019a 1A79     		ldrb	r2, [r3, #4]
 352 019c 012A     		cmp	r2, #1
 353 019e 72D1     		bne	.L1
 277:.\BLEApplication.c ****                     {                    
 354              		.loc 1 277 0
 355 01a0 0024     		mov	r4, #0
 274:.\BLEApplication.c **** //                printf("0x");
 356              		.loc 1 274 0
 357 01a2 9A68     		ldr	r2, [r3, #8]
 358 01a4 B218     		add	r2, r6, r2
 359 01a6 9A60     		str	r2, [r3, #8]
 360              	.LVL52:
 361              	.L32:
 277:.\BLEApplication.c ****                     {                    
 362              		.loc 1 277 0 discriminator 1
 363 01a8 B442     		cmp	r4, r6
 364 01aa 6CD2     		bcs	.L1
 280:.\BLEApplication.c ****                     }  
 365              		.loc 1 280 0 discriminator 3
 366 01ac 285D     		ldrb	r0, [r5, r4]
 277:.\BLEApplication.c ****                     {                    
 367              		.loc 1 277 0 discriminator 3
 368 01ae 0134     		add	r4, r4, #1
 369              	.LVL53:
 280:.\BLEApplication.c ****                     }  
 370              		.loc 1 280 0 discriminator 3
 371 01b0 FFF7FEFF 		bl	UART_SpiUartWriteTxData
 372              	.LVL54:
 277:.\BLEApplication.c ****                     {                    
 373              		.loc 1 277 0 discriminator 3
 374 01b4 E4B2     		uxtb	r4, r4
 375              	.LVL55:
 376 01b6 F7E7     		b	.L32
 377              	.LVL56:
 378              	.L30:
 295:.\BLEApplication.c ****                CYBLE_TROUGHPUT_SERVICE_CUSTOM_CHARACTERISTIC_CLIENT_CHARACTERISTIC_CONFIGURATION_DE
 379              		.loc 1 295 0
 380 01b8 0F2B     		cmp	r3, #15
 381 01ba 64D1     		bne	.L1
 298:.\BLEApplication.c ****                 if(charNotificationEnabled)
 382              		.loc 1 298 0
 383 01bc 2A78     		ldrb	r2, [r5]
 384 01be 344B     		ldr	r3, .L53+4
 385              	.LVL57:
ARM GAS  C:\Users\Helon\AppData\Local\Temp\ccKCxrf8.s 			page 17


 386 01c0 1A73     		strb	r2, [r3, #12]
 299:.\BLEApplication.c ****                 {               
 387              		.loc 1 299 0
 388 01c2 002A     		cmp	r2, #0
 389 01c4 05D0     		beq	.L34
 301:.\BLEApplication.c ****                     CTS_Write(CTS_ON);
 390              		.loc 1 301 0
 391 01c6 0120     		mov	r0, #1
 392              	.LVL58:
 393 01c8 1871     		strb	r0, [r3, #4]
 302:.\BLEApplication.c ****                     printf("+MODE=THROUGHT_MODE\r\n");
 394              		.loc 1 302 0
 395 01ca FFF7FEFF 		bl	CTS_Write
 396              	.LVL59:
 303:.\BLEApplication.c ****                 }
 397              		.loc 1 303 0
 398 01ce 3E48     		ldr	r0, .L53+60
 399 01d0 4FE0     		b	.L49
 400              	.LVL60:
 401              	.L34:
 307:.\BLEApplication.c ****                     CTS_Write(CTS_OFF);
 402              		.loc 1 307 0
 403 01d2 0020     		mov	r0, #0
 404              	.LVL61:
 405 01d4 1871     		strb	r0, [r3, #4]
 308:.\BLEApplication.c ****                     printf("+MODE=AT_COMMAND_MODE\r\n");
 406              		.loc 1 308 0
 407 01d6 FFF7FEFF 		bl	CTS_Write
 408              	.LVL62:
 309:.\BLEApplication.c ****                 }
 409              		.loc 1 309 0
 410 01da 3C48     		ldr	r0, .L53+64
 411 01dc 49E0     		b	.L49
 412              	.LVL63:
 413              	.L22:
 379:.\BLEApplication.c ****             {
 414              		.loc 1 379 0
 415 01de 2C4B     		ldr	r3, .L53+4
 416 01e0 597B     		ldrb	r1, [r3, #13]
 417              	.LVL64:
 418 01e2 5A78     		ldrb	r2, [r3, #1]
 419 01e4 0129     		cmp	r1, #1
 420 01e6 09D1     		bne	.L35
 381:.\BLEApplication.c ****                 {
 421              		.loc 1 381 0
 422 01e8 012A     		cmp	r2, #1
 423 01ea 4CD1     		bne	.L1
 424              	.LVL65:
 384:.\BLEApplication.c ****                     {
 425              		.loc 1 384 0
 426 01ec A289     		ldrh	r2, [r4, #12]
 427 01ee 0E2A     		cmp	r2, #14
 428 01f0 49D1     		bne	.L1
 387:.\BLEApplication.c ****                     }
 429              		.loc 1 387 0
 430 01f2 2289     		ldrh	r2, [r4, #8]
 431 01f4 1969     		ldr	r1, [r3, #16]
ARM GAS  C:\Users\Helon\AppData\Local\Temp\ccKCxrf8.s 			page 18


 432 01f6 5218     		add	r2, r2, r1
 433 01f8 1A61     		str	r2, [r3, #16]
 434 01fa 44E0     		b	.L1
 435              	.LVL66:
 436              	.L35:
 394:.\BLEApplication.c ****                 {
 437              		.loc 1 394 0
 438 01fc 012A     		cmp	r2, #1
 439 01fe 42D1     		bne	.L1
 440              	.LVL67:
 397:.\BLEApplication.c ****                     {
 441              		.loc 1 397 0
 442 0200 A289     		ldrh	r2, [r4, #12]
 443 0202 0E2A     		cmp	r2, #14
 444 0204 3FD1     		bne	.L1
 403:.\BLEApplication.c ****                           {
 445              		.loc 1 403 0
 446 0206 1B79     		ldrb	r3, [r3, #4]
 447 0208 012B     		cmp	r3, #1
 448 020a 3CD1     		bne	.L1
 449 020c 0025     		mov	r5, #0
 450              	.LVL68:
 451              	.L36:
 405:.\BLEApplication.c ****                             {
 452              		.loc 1 405 0 discriminator 1
 453 020e 2389     		ldrh	r3, [r4, #8]
 454 0210 AB42     		cmp	r3, r5
 455 0212 38D9     		bls	.L1
 408:.\BLEApplication.c ****                             }
 456              		.loc 1 408 0 discriminator 3
 457 0214 6368     		ldr	r3, [r4, #4]
 458 0216 585D     		ldrb	r0, [r3, r5]
 405:.\BLEApplication.c ****                             {
 459              		.loc 1 405 0 discriminator 3
 460 0218 0135     		add	r5, r5, #1
 461              	.LVL69:
 408:.\BLEApplication.c ****                             }
 462              		.loc 1 408 0 discriminator 3
 463 021a FFF7FEFF 		bl	UART_SpiUartWriteTxData
 464              	.LVL70:
 405:.\BLEApplication.c ****                             {
 465              		.loc 1 405 0 discriminator 3
 466 021e EDB2     		uxtb	r5, r5
 467              	.LVL71:
 468 0220 F5E7     		b	.L36
 469              	.LVL72:
 470              	.L18:
 439:.\BLEApplication.c ****             {                
 471              		.loc 1 439 0
 472 0222 0024     		mov	r4, #0
 434:.\BLEApplication.c **** //            printf("+DISALLCHAR=<0x%02X%02X,",);
 473              		.loc 1 434 0
 474 0224 4D68     		ldr	r5, [r1, #4]
 475              	.LVL73:
 476 0226 0E89     		ldrh	r6, [r1, #8]
 477              	.LVL74:
 478              	.L38:
ARM GAS  C:\Users\Helon\AppData\Local\Temp\ccKCxrf8.s 			page 19


 439:.\BLEApplication.c ****             {                
 479              		.loc 1 439 0 discriminator 1
 480 0228 B442     		cmp	r4, r6
 481 022a 2CD2     		bcs	.L1
 442:.\BLEApplication.c ****                     DisAllCharResult.handleValueList.list[i+3],DisAllCharResult.handleValueList.lis
 482              		.loc 1 442 0
 483 022c 2819     		add	r0, r5, r4
 441:.\BLEApplication.c ****                     DisAllCharResult.handleValueList.list[i+1],DisAllCharResult.handleValueList.lis
 484              		.loc 1 441 0
 485 022e 4178     		ldrb	r1, [r0, #1]
 486 0230 C378     		ldrb	r3, [r0, #3]
 487 0232 8078     		ldrb	r0, [r0, #2]
 488 0234 2A5D     		ldrb	r2, [r5, r4]
 489 0236 0090     		str	r0, [sp]
 444:.\BLEApplication.c ****             }
 490              		.loc 1 444 0
 491 0238 0434     		add	r4, r4, #4
 492              	.LVL75:
 441:.\BLEApplication.c ****                     DisAllCharResult.handleValueList.list[i+1],DisAllCharResult.handleValueList.lis
 493              		.loc 1 441 0
 494 023a 2548     		ldr	r0, .L53+68
 495 023c FFF7FEFF 		bl	printf
 496              	.LVL76:
 444:.\BLEApplication.c ****             }
 497              		.loc 1 444 0
 498 0240 E4B2     		uxtb	r4, r4
 499              	.LVL77:
 500 0242 F1E7     		b	.L38
 501              	.LVL78:
 502              	.L5:
 448:.\BLEApplication.c ****             {
 503              		.loc 1 448 0
 504 0244 124B     		ldr	r3, .L53+4
 505 0246 5B78     		ldrb	r3, [r3, #1]
 506 0248 002B     		cmp	r3, #0
 507 024a 1CD1     		bne	.L1
 450:.\BLEApplication.c ****             }
 508              		.loc 1 450 0
 509 024c 174B     		ldr	r3, .L53+32
 510 024e 2149     		ldr	r1, .L53+72
 511              	.LVL79:
 512 0250 1878     		ldrb	r0, [r3]
 513              	.LVL80:
 514 0252 FFF7FEFF 		bl	CyBle_GappAuthReqReply
 515              	.LVL81:
 516 0256 16E0     		b	.L1
 517              	.LVL82:
 518              	.L10:
 459:.\BLEApplication.c ****             {
 519              		.loc 1 459 0
 520 0258 0968     		ldr	r1, [r1]
 521              	.LVL83:
 522 025a 1F4B     		ldr	r3, .L53+76
 465:.\BLEApplication.c ****         break;
 523              		.loc 1 465 0
 524 025c 1F48     		ldr	r0, .L53+80
 525              	.LVL84:
ARM GAS  C:\Users\Helon\AppData\Local\Temp\ccKCxrf8.s 			page 20


 459:.\BLEApplication.c ****             {
 526              		.loc 1 459 0
 527 025e 9942     		cmp	r1, r3
 528 0260 04D8     		bhi	.L51
 461:.\BLEApplication.c ****                 printf("%lu\r\n",*(uint32 *)eventParam);                
 529              		.loc 1 461 0
 530 0262 1F48     		ldr	r0, .L53+84
 531 0264 FFF7FEFF 		bl	printf
 532              	.LVL85:
 462:.\BLEApplication.c ****             }
 533              		.loc 1 462 0
 534 0268 1E48     		ldr	r0, .L53+88
 535 026a 2168     		ldr	r1, [r4]
 536              	.L51:
 465:.\BLEApplication.c ****         break;
 537              		.loc 1 465 0
 538 026c FFF7FEFF 		bl	printf
 539              	.LVL86:
 540 0270 09E0     		b	.L1
 541              	.L49:
 542              		.loc 1 469 0
 543 0272 FFF7FEFF 		bl	puts
 544              	.LVL87:
 470:.\BLEApplication.c ****         break;
 545              		.loc 1 470 0
 546 0276 06E0     		b	.L1
 547              	.LVL88:
 548              	.L3:
 471:.\BLEApplication.c ****         case CYBLE_EVT_GAP_AUTH_COMPLETE:
 472:.\BLEApplication.c **** //             printf("+AUTH=OK\r\n");
 473:.\BLEApplication.c ****              AUTHFLAG=TURE;
 474:.\BLEApplication.c ****         break;
 475:.\BLEApplication.c ****         case CYBLE_EVT_GAP_AUTH_FAILED:            
 476:.\BLEApplication.c ****             printf("AT+AUTHERR=%d\r\n",*(CYBLE_GAP_AUTH_FAILED_REASON_T*)eventParam);
 549              		.loc 1 476 0
 550 0278 0978     		ldrb	r1, [r1]
 551              	.LVL89:
 552 027a 1B48     		ldr	r0, .L53+92
 553              	.LVL90:
 554 027c FFF7FEFF 		bl	printf
 555              	.LVL91:
 477:.\BLEApplication.c ****             AUTHFLAG=FALSE;
 556              		.loc 1 477 0
 557 0280 0022     		mov	r2, #0
 558 0282 034B     		ldr	r3, .L53+4
 559              	.L50:
 560 0284 DA70     		strb	r2, [r3, #3]
 561              	.LVL92:
 562              	.L1:
 478:.\BLEApplication.c ****         break;
 479:.\BLEApplication.c ****         default:
 480:.\BLEApplication.c ****         break;
 481:.\BLEApplication.c ****     
 482:.\BLEApplication.c ****     }
 483:.\BLEApplication.c **** }
 563              		.loc 1 483 0
 564 0286 08B0     		add	sp, sp, #32
ARM GAS  C:\Users\Helon\AppData\Local\Temp\ccKCxrf8.s 			page 21


 565              		@ sp needed
 566 0288 70BD     		pop	{r4, r5, r6, pc}
 567              	.L54:
 568 028a C046     		.align	2
 569              	.L53:
 570 028c 00000000 		.word	.LC0
 571 0290 00000000 		.word	.LANCHOR0
 572 0294 E1000000 		.word	.LC33
 573 0298 08022440 		.word	1076101640
 574 029c 0E000000 		.word	.LC3
 575 02a0 1A000000 		.word	.LC5
 576 02a4 00000000 		.word	cyBle_state
 577 02a8 00000000 		.word	ConnParam
 578 02ac 00000000 		.word	cyBle_connHandle
 579 02b0 00000000 		.word	.LANCHOR1
 580 02b4 25000000 		.word	.LC9
 581 02b8 33000000 		.word	.LC13
 582 02bc 00000000 		.word	cyBle_discoveryModeInfo
 583 02c0 45000000 		.word	.LC16
 584 02c4 5B000000 		.word	.LC18
 585 02c8 74000000 		.word	.LC20
 586 02cc 89000000 		.word	.LC22
 587 02d0 A0000000 		.word	.LC24
 588 02d4 00000000 		.word	cyBle_authInfo
 589 02d8 9F860100 		.word	99999
 590 02dc D2000000 		.word	.LC31
 591 02e0 C1000000 		.word	.LC27
 592 02e4 CC000000 		.word	.LC29
 593 02e8 F8000000 		.word	.LC35
 594              		.cfi_endproc
 595              	.LFE35:
 596              		.size	StackEventHandler, .-StackEventHandler
 597              		.section	.text.MyTimerIsr,"ax",%progbits
 598              		.align	1
 599              		.global	MyTimerIsr
 600              		.code	16
 601              		.thumb_func
 602              		.type	MyTimerIsr, %function
 603              	MyTimerIsr:
 604              	.LFB45:
 484:.\BLEApplication.c **** 
 485:.\BLEApplication.c **** 
 486:.\BLEApplication.c **** /******************************************************************************
 487:.\BLEApplication.c **** * Function Name: LowPowerManagement
 488:.\BLEApplication.c **** ***************************************************************************//**
 489:.\BLEApplication.c **** * 
 490:.\BLEApplication.c **** *  BLE‰ΩéÂäüËÄóÁÆ°ÁêÜ
 491:.\BLEApplication.c **** * 
 492:.\BLEApplication.c **** * \return
 493:.\BLEApplication.c **** *  None
 494:.\BLEApplication.c **** * 
 495:.\BLEApplication.c **** ******************************************************************************/
 496:.\BLEApplication.c **** //uint8_t size=0,ch[10]={0},i=0;
 497:.\BLEApplication.c **** void LowPowerManagement(void)
 498:.\BLEApplication.c **** {
 499:.\BLEApplication.c ****     /* Local variable to store the status of BLESS Hardware block */
 500:.\BLEApplication.c **** 		CYBLE_LP_MODE_T sleepMode;
ARM GAS  C:\Users\Helon\AppData\Local\Temp\ccKCxrf8.s 			page 22


 501:.\BLEApplication.c **** 		CYBLE_BLESS_STATE_T blessState;
 502:.\BLEApplication.c **** 	
 503:.\BLEApplication.c **** 		/* Put BLESS into Deep Sleep and check the return status */
 504:.\BLEApplication.c **** 		sleepMode = CyBle_EnterLPM(CYBLE_BLESS_DEEPSLEEP);
 505:.\BLEApplication.c **** 		
 506:.\BLEApplication.c **** 		/* Disable global interrupt to prevent changes from any other interrupt ISR */
 507:.\BLEApplication.c **** 		CyGlobalIntDisable;
 508:.\BLEApplication.c **** 	
 509:.\BLEApplication.c **** 		/* Check the Status of BLESS */
 510:.\BLEApplication.c **** 		blessState = CyBle_GetBleSsState();
 511:.\BLEApplication.c **** 
 512:.\BLEApplication.c **** 		if(sleepMode == CYBLE_BLESS_DEEPSLEEP)
 513:.\BLEApplication.c **** 		{
 514:.\BLEApplication.c **** 		    /* If the ECO has started or the BLESS can go to Deep Sleep, then place CPU 
 515:.\BLEApplication.c **** 			* to Deep Sleep */
 516:.\BLEApplication.c **** 			if(blessState == CYBLE_BLESS_STATE_ECO_ON || blessState == CYBLE_BLESS_STATE_DEEPSLEEP)
 517:.\BLEApplication.c **** 		    {
 518:.\BLEApplication.c **** //                printf("Device is going into DeepSleep!\r\n");
 519:.\BLEApplication.c ****                 Status_LED_Write(LED_ON);             
 520:.\BLEApplication.c ****                 while((UART_SpiUartGetTxBufferSize() + UART_GET_TX_FIFO_SR_VALID) != 0);//Á≠âÂæÖ‰∏≤
 521:.\BLEApplication.c ****                 UART_Sleep();
 522:.\BLEApplication.c **** 		        CySysPmDeepSleep();
 523:.\BLEApplication.c ****                 UART_Wakeup();
 524:.\BLEApplication.c ****                 CyDelay(5);
 525:.\BLEApplication.c ****                 UART_SpiUartClearRxBuffer();//Ê∏ÖÈô§‰∏≤Âè£Êé•Êî∂ÁºìÂÜ≤Âå∫
 526:.\BLEApplication.c ****                 UART_RX_WAKEUP_IRQ_ClearPending();
 527:.\BLEApplication.c **** //                UART_SCB_IRQ_ClearPending();
 528:.\BLEApplication.c ****                 UART_rx_wake_ClearInterrupt();                
 529:.\BLEApplication.c **** //                UART_RX_WAKEUP_IRQ_Disable();
 530:.\BLEApplication.c **** //                UART_UartPutString("Device is WakeUp!\r\n");                
 531:.\BLEApplication.c **** //                Âî§ÈÜíÂêé‰ΩøËÉΩ‰∏≤Âè£Êé•Êî∂‰∏≠Êñ≠
 532:.\BLEApplication.c **** //                  UART_SetCustomInterruptHandler(My_ISR_UART);            
 533:.\BLEApplication.c ****                 LowPower_EN=FALSE;
 534:.\BLEApplication.c ****                 Status_LED_Write(LED_OFF);  
 535:.\BLEApplication.c **** 
 536:.\BLEApplication.c **** 		 	}
 537:.\BLEApplication.c **** 		}
 538:.\BLEApplication.c **** 		else if(sleepMode == CYBLE_BLESS_SLEEP)
 539:.\BLEApplication.c **** 		{
 540:.\BLEApplication.c **** 		    if(blessState != CYBLE_BLESS_STATE_EVENT_CLOSE)
 541:.\BLEApplication.c **** 		    {
 542:.\BLEApplication.c **** 				/* If the BLESS hardware block cannot go to Deep Sleep and BLE Event has not 
 543:.\BLEApplication.c **** 				* closed yet, then place CPU to Sleep */ 
 544:.\BLEApplication.c **** 		        CySysPmSleep();  
 545:.\BLEApplication.c **** 		    }
 546:.\BLEApplication.c **** 		}
 547:.\BLEApplication.c **** 		/* Re-enable global interrupt mask after wakeup */
 548:.\BLEApplication.c **** 		CyGlobalIntEnable;           
 549:.\BLEApplication.c ****         
 550:.\BLEApplication.c **** }
 551:.\BLEApplication.c **** 
 552:.\BLEApplication.c **** /******************************************************************************
 553:.\BLEApplication.c **** * Function Name: MY_ISR_USERBUTTON
 554:.\BLEApplication.c **** ***************************************************************************//**
 555:.\BLEApplication.c **** * 
 556:.\BLEApplication.c **** *  Âî§ÈÜíÊåâÈîÆ‰∏≠Êñ≠Â§ÑÁêÜÂáΩÊï∞
 557:.\BLEApplication.c **** * 
ARM GAS  C:\Users\Helon\AppData\Local\Temp\ccKCxrf8.s 			page 23


 558:.\BLEApplication.c **** * \return
 559:.\BLEApplication.c **** *  None
 560:.\BLEApplication.c **** * 
 561:.\BLEApplication.c **** ******************************************************************************/
 562:.\BLEApplication.c **** CY_ISR(MY_ISR_USERBUTTON)
 563:.\BLEApplication.c **** {
 564:.\BLEApplication.c **** //    isr_UserButton_ClearPending();
 565:.\BLEApplication.c **** //    UserButton_ClearInterrupt();
 566:.\BLEApplication.c **** ////    Ê∏ÖÈô§‰∏≤Âè£Êé•Êî∂ÁºìÂÜ≤Âå∫,Èò≤Ê≠¢‰øÆÊîπ‰∫Ü‰∏≤Âè£Ê≥¢ÁâπÁéá‰πãÂêé,ÂèëÈÄÅÁ´ØÊú™ÂèäÊó∂Áõ∏Â∫îÁö
 567:.\BLEApplication.c **** //    memset(RX_BUFFER,0,sizeof(RX_BUFFER));
 568:.\BLEApplication.c **** //    Buffer_Length=0;
 569:.\BLEApplication.c **** //    if(Peripheral==Role)
 570:.\BLEApplication.c **** //    {
 571:.\BLEApplication.c **** //        CyBle_GappStartAdvertisement(CYBLE_ADVERTISING_FAST);
 572:.\BLEApplication.c **** //    }
 573:.\BLEApplication.c **** //    StartScan=TRUE;
 574:.\BLEApplication.c **** //    printf("test!\r\n");
 575:.\BLEApplication.c **** }
 576:.\BLEApplication.c **** /******************************************************************************
 577:.\BLEApplication.c **** * Function Name: My_ISR_UART
 578:.\BLEApplication.c **** ***************************************************************************//**
 579:.\BLEApplication.c **** * 
 580:.\BLEApplication.c **** *  ‰∏≤Âè£Êé•Êî∂‰∏≠Êñ≠Â§ÑÁêÜÂáΩÊï∞
 581:.\BLEApplication.c **** * 
 582:.\BLEApplication.c **** * \return
 583:.\BLEApplication.c **** *  None
 584:.\BLEApplication.c **** * 
 585:.\BLEApplication.c **** ******************************************************************************/
 586:.\BLEApplication.c **** CY_ISR(My_ISR_UART)
 587:.\BLEApplication.c **** {
 588:.\BLEApplication.c **** //    uint8_t rxdata;
 589:.\BLEApplication.c ****     if(UART_GetRxInterruptSourceMasked()&UART_INTR_RX_NOT_EMPTY)//Âà§Êñ≠Êé•Êî∂‰∏≠Êñ≠ÁöÑÁ±ªÂûã
 590:.\BLEApplication.c ****     {
 591:.\BLEApplication.c ****         rx_isover=TURE;
 592:.\BLEApplication.c ****         //ËØªÂèñ‰∏≤Âè£Êï∞ÊçÆ
 593:.\BLEApplication.c **** //        rxdata=UART_UartGetByte();
 594:.\BLEApplication.c **** //        if(rxdata!='\n')
 595:.\BLEApplication.c **** //        {
 596:.\BLEApplication.c **** //          RX_BUFFER[Buffer_Length]=rxdata;//ËØªÂèñ‰∏≤Âè£Êé•Êî∂ÁºìÂÜ≤Âå∫ÁöÑÊï∞ÊçÆ
 597:.\BLEApplication.c **** //          Buffer_Length++;
 598:.\BLEApplication.c **** //        }
 599:.\BLEApplication.c **** //        else
 600:.\BLEApplication.c **** //        {          
 601:.\BLEApplication.c **** //          RX_BUFFER[Buffer_Length]=rxdata;//ËØªÂèñ‰∏≤Âè£Êé•Êî∂ÁºìÂÜ≤Âå∫ÁöÑÊï∞ÊçÆ
 602:.\BLEApplication.c **** //          rx_isover=TURE;
 603:.\BLEApplication.c **** //        }
 604:.\BLEApplication.c ****     }
 605:.\BLEApplication.c **** //    UART_SpiUartClearRxBuffer();//Ê∏ÖÈô§‰∏≤Âè£Êé•Êî∂ÁºìÂÜ≤Âå∫
 606:.\BLEApplication.c **** //    UART_RX_WAKEUP_IRQ_ClearPending();
 607:.\BLEApplication.c **** //    UART_SCB_IRQ_ClearPending();
 608:.\BLEApplication.c **** //    UART_rx_wake_ClearInterrupt();    
 609:.\BLEApplication.c ****     UART_ClearRxInterruptSource(UART_INTR_RX_NOT_EMPTY);
 610:.\BLEApplication.c ****   
 611:.\BLEApplication.c **** }
 612:.\BLEApplication.c **** 
 613:.\BLEApplication.c **** /******************************************************************************
 614:.\BLEApplication.c **** * Function Name: SystemInitialization
ARM GAS  C:\Users\Helon\AppData\Local\Temp\ccKCxrf8.s 			page 24


 615:.\BLEApplication.c **** ***************************************************************************//**
 616:.\BLEApplication.c **** * 
 617:.\BLEApplication.c **** *  BLEÂçèËÆÆÊ†à„ÄÅÂ§ñËÆæÂàùÂßãÂåñ
 618:.\BLEApplication.c **** * 
 619:.\BLEApplication.c **** * \return
 620:.\BLEApplication.c **** *  None
 621:.\BLEApplication.c **** * 
 622:.\BLEApplication.c **** ******************************************************************************/
 623:.\BLEApplication.c **** void SystemInitialization(void)
 624:.\BLEApplication.c **** {
 625:.\BLEApplication.c **** //    ÊµÅÊéßÂºïËÑöÁöÑÂàùÂßãÂåñ
 626:.\BLEApplication.c ****     CTS_SetDriveMode(CTS_DM_STRONG);//ÊµÅÊéßÂºïËÑöËÆæÁΩÆ‰∏∫Êé®ÊåΩËæìÂá∫
 627:.\BLEApplication.c ****     CTS_Write(CTS_OFF);//ÊµÅÊéßÊòØÈ´òÁîµÂπ≥ÊúâÊïà
 628:.\BLEApplication.c ****     UART_rx_wake_SetDriveMode(UART_rx_wake_DM_RES_UP);//ËÆæÁΩÆRXËÑö‰∏∫ÂÜÖÈÉ®‰∏äÊãâ
 629:.\BLEApplication.c ****     UART_tx_SetDriveMode(UART_tx_DM_RES_UP);//ËÆæÁΩÆTX‰∏∫ÂÜÖÈÉ®‰∏äÊãâ
 630:.\BLEApplication.c **** //    uint16_t counter;
 631:.\BLEApplication.c ****     //Â≠òÊîæNotifyÂÄºÁöÑÊï∞ÁªÑÂàùÂßãÂåñ
 632:.\BLEApplication.c **** //    for(counter = 0; counter < 20; counter++)
 633:.\BLEApplication.c **** //    {
 634:.\BLEApplication.c **** //        buffer[counter] = counter;
 635:.\BLEApplication.c **** //    }
 636:.\BLEApplication.c **** //    ÂàùÂßãÂåñÂÜôËØ∑Ê±ÇÊï∞ÊçÆ
 637:.\BLEApplication.c ****     writeRequestData.attrHandle=CYBLE_TROUGHPUT_SERVICE_CUSTOM_CHARACTERISTIC_CLIENT_CHARACTERISTIC
 638:.\BLEApplication.c ****     writeRequestData.value=cccdNotifFlagSetStruct;
 639:.\BLEApplication.c **** //    ÂàùÂßãÂåñÂπøÊí≠Èó¥ÈöîÂíåÂπøÂëäË∂ÖÊó∂Êó∂Èó¥
 640:.\BLEApplication.c **** //    updateadvparam.advParam->advIntvMin=CYBLE_FAST_ADV_INT_MIN;
 641:.\BLEApplication.c **** //    updateadvparam.advParam->advIntvMax=CYBLE_FAST_ADV_INT_MAX;
 642:.\BLEApplication.c **** //    updateadvparam.advTo=CYBLE_FAST_ADV_TIMEOUT;
 643:.\BLEApplication.c **** //    ConfigUartInit();
 644:.\BLEApplication.c **** //    SetUartConfiguration(BAUD_9600);    
 645:.\BLEApplication.c ****     Timer_Init();
 646:.\BLEApplication.c ****     TimerInterrupt_StartEx(MyTimerIsr);
 647:.\BLEApplication.c ****     UART_Start();
 648:.\BLEApplication.c ****   //    UART_SCB_IRQ_StartEx(My_ISR_UART);   
 649:.\BLEApplication.c **** //    isr_UserButton_StartEx(MY_ISR_USERBUTTON);
 650:.\BLEApplication.c ****     LedInit();
 651:.\BLEApplication.c ****     CyBle_Start(StackEventHandler);
 652:.\BLEApplication.c ****     
 653:.\BLEApplication.c **** }
 654:.\BLEApplication.c **** 
 655:.\BLEApplication.c **** /******************************************************************************
 656:.\BLEApplication.c **** * Function Name: ConfigUartInit
 657:.\BLEApplication.c **** ***************************************************************************//**
 658:.\BLEApplication.c **** * 
 659:.\BLEApplication.c **** *  UARTÈÖçÁΩÆÂàùÂßãÂåñ
 660:.\BLEApplication.c **** * 
 661:.\BLEApplication.c **** * \return
 662:.\BLEApplication.c **** *  None   
 663:.\BLEApplication.c **** * 
 664:.\BLEApplication.c **** ******************************************************************************/
 665:.\BLEApplication.c **** void ConfigUartInit(void)
 666:.\BLEApplication.c **** {   
 667:.\BLEApplication.c **** //    configUart.mode=UART_UART_MODE_STD;         /* mode: Standard */ 
 668:.\BLEApplication.c **** //    configUart.direction=UART_UART_TX_RX;       /* direction: RX + TX */ 
 669:.\BLEApplication.c **** //    configUart.dataBits=8;                      /* dataBits: 8 bits */
 670:.\BLEApplication.c **** //    configUart.parity=UART_UART_PARITY_NONE;    /* parity: None */
 671:.\BLEApplication.c **** //    configUart.stopBits=UART_UART_STOP_BITS_1;  /* stopBits: 1 bit */ 
ARM GAS  C:\Users\Helon\AppData\Local\Temp\ccKCxrf8.s 			page 25


 672:.\BLEApplication.c **** //    configUart.oversample=16;                   /* oversample: 16u */
 673:.\BLEApplication.c **** //    configUart.enableIrdaLowPower=0;            /* enableIrdaLowPower: disable */
 674:.\BLEApplication.c **** //    configUart.enableMedianFilter=1;            /* enableMedianFilter: enable */
 675:.\BLEApplication.c **** //    configUart.enableRetryNack=0;               /* enableRetryNack: disable */
 676:.\BLEApplication.c **** //    configUart.enableInvertedRx=0;              /* enableInvertedRx: disable */
 677:.\BLEApplication.c **** //    configUart.dropOnParityErr=0;               /* dropOnParityErr: disable */
 678:.\BLEApplication.c **** //    configUart.dropOnFrameErr=0;                /* dropOnFrameErr: disable */
 679:.\BLEApplication.c **** //    configUart.enableWake=0;                    /* enableWake: disable */
 680:.\BLEApplication.c **** //    configUart.rxBufferSize=UART_RX_BUFFER;   /* rxBufferSize: software buffer 10 bytes */
 681:.\BLEApplication.c **** //    configUart.rxBuffer=bufferRx;               /* rxBuffer: RX software buffer enable */ 
 682:.\BLEApplication.c **** //    configUart.txBufferSize=UART_TX_BUFFER;   /* txBufferSize: software buffer 10 bytes */
 683:.\BLEApplication.c **** //    configUart.txBuffer=bufferTx;               /* txBuffer: TX software buffer enable */
 684:.\BLEApplication.c **** //    configUart.enableMultiproc=0;               /* enableMultiproc: disable */
 685:.\BLEApplication.c **** //    configUart.multiprocAcceptAddr=0;           /* multiprocAcceptAddr: disable */ 
 686:.\BLEApplication.c **** //    configUart.multiprocAddr=0;                 /* multiprocAddr: N/A for this configuration */ 
 687:.\BLEApplication.c **** //    configUart.multiprocAddrMask=0;             /* multiprocAddrMask: N/A for this configuration 
 688:.\BLEApplication.c **** //    configUart.enableInterrupt=1;               /* enableInterrupt: enable to process software bu
 689:.\BLEApplication.c **** //    configUart.rxInterruptMask=UART_INTR_RX_NOT_EMPTY; /* rxInterruptMask: enable NOT_EMPTY for R
 690:.\BLEApplication.c **** //    configUart.rxTriggerLevel=0;               /* rxTriggerLevel: N/A for this configuration */ 
 691:.\BLEApplication.c **** //    configUart.txInterruptMask=0;              /* txInterruptMask: NOT_FULL is enabled when there
 692:.\BLEApplication.c **** //    configUart.txTriggerLevel=0;               /* txTriggerLevel: N/A for this configuration */ 
 693:.\BLEApplication.c **** }
 694:.\BLEApplication.c **** /******************************************************************************
 695:.\BLEApplication.c **** * Function Name: SetUartConfiguration
 696:.\BLEApplication.c **** ***************************************************************************//**
 697:.\BLEApplication.c **** * 
 698:.\BLEApplication.c **** *  ËÆæÁΩÆ‰∏≤Âè£ÈÖçÁΩÆ
 699:.\BLEApplication.c **** * \param  DIVIDER_CLOCK:ÈÖçÁΩÆÊ≥¢ÁâπÁéáÁöÑÊó∂ÈíüÂàÜÈ¢ëÔºå‰∏çÂêåÁöÑÈ¢ëÁéáÂàÜÈ¢ëÁ≥ªÁªü‰∏çÂêå„ÄÇ
 700:.\BLEApplication.c **** * \return
 701:.\BLEApplication.c **** *   CYRET_SUCCESS    //Successful
 702:.\BLEApplication.c **** *   CYRET_BAD_PARAM  //Uknowns operation mode - no actions 
 703:.\BLEApplication.c **** ******************************************************************************/
 704:.\BLEApplication.c **** void SetUartConfiguration(uint32_t DIVIDER_CLOCK) 
 705:.\BLEApplication.c **** {
 706:.\BLEApplication.c **** //    cystatus status = CYRET_SUCCESS; 
 707:.\BLEApplication.c **** //    UART_Stop();                    /* Disable component before configuration change */ 
 708:.\BLEApplication.c **** //    /* Change clock divider */
 709:.\BLEApplication.c **** //    UART_CLOCK_Stop();
 710:.\BLEApplication.c **** //    UART_CLOCK_SetFractionalDividerRegister(DIVIDER_CLOCK, 0u); 
 711:.\BLEApplication.c **** //    UART_CLOCK_Start();
 712:.\BLEApplication.c **** //    /* Configure to UART operation */ 
 713:.\BLEApplication.c **** //    UART_UartInit(&configUart);          
 714:.\BLEApplication.c **** //    UART_Start();                       /* Enable component after configuration change */     
 715:.\BLEApplication.c **** }
 716:.\BLEApplication.c **** 
 717:.\BLEApplication.c **** /******************************************************************************
 718:.\BLEApplication.c **** * Function Name: LedInit
 719:.\BLEApplication.c **** ***************************************************************************//**
 720:.\BLEApplication.c **** * 
 721:.\BLEApplication.c **** *  Áä∂ÊÄÅÁÅØÂàùÂßãÂåñ
 722:.\BLEApplication.c **** * 
 723:.\BLEApplication.c **** * \return
 724:.\BLEApplication.c **** *  None
 725:.\BLEApplication.c **** * 
 726:.\BLEApplication.c **** ******************************************************************************/
 727:.\BLEApplication.c **** void LedInit(void)
 728:.\BLEApplication.c **** {
ARM GAS  C:\Users\Helon\AppData\Local\Temp\ccKCxrf8.s 			page 26


 729:.\BLEApplication.c ****     Status_LED_SetDriveMode(Status_LED_DM_STRONG);
 730:.\BLEApplication.c ****     Connected_LED_SetDriveMode(Connected_LED_DM_STRONG);
 731:.\BLEApplication.c ****     Status_LED_Write(LED_OFF);
 732:.\BLEApplication.c ****     Connected_LED_Write(LED_OFF);
 733:.\BLEApplication.c **** }
 734:.\BLEApplication.c **** 
 735:.\BLEApplication.c **** /******************************************************************************
 736:.\BLEApplication.c **** * Function Name: Parser_UartData
 737:.\BLEApplication.c **** ***************************************************************************//**
 738:.\BLEApplication.c **** * 
 739:.\BLEApplication.c **** *  Ëß£ÊûêÊé•Êî∂Âà∞ÁöÑ‰∏≤Âè£Êï∞ÊçÆ
 740:.\BLEApplication.c **** * \param  SerialData:ÊåáÂêëcharÂûãÁöÑÊåáÈíà
 741:.\BLEApplication.c **** * \return
 742:.\BLEApplication.c **** *  None
 743:.\BLEApplication.c **** * 
 744:.\BLEApplication.c **** ******************************************************************************/
 745:.\BLEApplication.c **** void Parser_UartData(const char* SerialData)
 746:.\BLEApplication.c **** {
 747:.\BLEApplication.c ****     if(NULL==SerialData)
 748:.\BLEApplication.c ****         return;
 749:.\BLEApplication.c ****     uint8_t At_Command_Idex=0,i=0;
 750:.\BLEApplication.c ****     uint8_t idx=0;    
 751:.\BLEApplication.c ****     int16_t AdvMin,AdvMax;
 752:.\BLEApplication.c ****     char8 Name[27]={0};
 753:.\BLEApplication.c ****     char AdvData[31]={0};
 754:.\BLEApplication.c ****     char StrAdvData[62]={0};
 755:.\BLEApplication.c ****     char StrAdvDataLength[2]={0};
 756:.\BLEApplication.c ****     char AdvDataLength=0;
 757:.\BLEApplication.c ****     char AdvParamArray[2]={0};
 758:.\BLEApplication.c ****     char AdvParam=0;
 759:.\BLEApplication.c ****     uint8 DeviceNameLen[1]={0};
 760:.\BLEApplication.c ****     uint32 WriteDataToFlash=0;
 761:.\BLEApplication.c **** //    volatile uint8_t test=0;
 762:.\BLEApplication.c **** //    double connintv=0;
 763:.\BLEApplication.c **** //    uint16 supervisionTO=0;
 764:.\BLEApplication.c ****     CYBLE_API_RESULT_T API_RESULT=0;
 765:.\BLEApplication.c ****     uint8_t STAUS_T=0;
 766:.\BLEApplication.c ****     CYBLE_GATTC_FIND_INFO_REQ_T range;    
 767:.\BLEApplication.c ****     CYBLE_GAPP_DISC_DATA_T advDiscData;
 768:.\BLEApplication.c ****     CYBLE_GAP_BONDED_DEV_ADDR_LIST_T bondedDevList;
 769:.\BLEApplication.c **** //    CYBLE_CONN_HANDLE_T  connHandle; 
 770:.\BLEApplication.c **** //     uint8 bdHandle=0;
 771:.\BLEApplication.c ****     At_Command_Idex=Command_Identify(SerialData);
 772:.\BLEApplication.c ****     switch(At_Command_Idex)
 773:.\BLEApplication.c ****     {
 774:.\BLEApplication.c **** //        ÊµãËØï‰∏≤Âè£ÊòØÂê¶Ê≠£Â∏∏----‰∏ª‰ªéÊúâÊïà
 775:.\BLEApplication.c ****         case _AT:
 776:.\BLEApplication.c **** //            printf("OK\r\n");
 777:.\BLEApplication.c ****             printf("AT+OK\r\n");
 778:.\BLEApplication.c ****         break;
 779:.\BLEApplication.c **** //        ËΩØÂ§ç‰Ωç----‰∏ª‰ªéÊúâÊïà
 780:.\BLEApplication.c ****         case RESET:
 781:.\BLEApplication.c ****             if(SerialData[9]=='1')
 782:.\BLEApplication.c ****             {
 783:.\BLEApplication.c ****                 printf("AT+OK\r\n");
 784:.\BLEApplication.c ****                 while((UART_SpiUartGetTxBufferSize() + UART_GET_TX_FIFO_SR_VALID) != 0);//Á≠âÂæÖ‰∏≤
 785:.\BLEApplication.c ****                 CySoftwareReset();
ARM GAS  C:\Users\Helon\AppData\Local\Temp\ccKCxrf8.s 			page 27


 786:.\BLEApplication.c ****             }
 787:.\BLEApplication.c ****             else
 788:.\BLEApplication.c ****             {
 789:.\BLEApplication.c ****                 printf("AT+ERR=5\r\n");//Ë°®Á§∫Ê≤°ÊúâËØ•ATÂëΩ‰ª§     
 790:.\BLEApplication.c ****             }
 791:.\BLEApplication.c ****         break;
 792:.\BLEApplication.c ****         case REFAC:
 793:.\BLEApplication.c ****         break;
 794:.\BLEApplication.c **** //         ÂΩìÂâçÂõ∫‰ª∂ÁâàÊú¨ÁöÑÊü•ËØ¢
 795:.\BLEApplication.c ****         case VERSION:
 796:.\BLEApplication.c ****             if(SerialData[11]=='?')
 797:.\BLEApplication.c ****             #ifdef RELEASE
 798:.\BLEApplication.c ****                 printf("+VERSION=CY-B01_V2.0.4\r\n");
 799:.\BLEApplication.c ****             #else
 800:.\BLEApplication.c ****                 printf("+VERSION=CY-B01_V1.1.1\r\n");
 801:.\BLEApplication.c ****             #endif
 802:.\BLEApplication.c ****             else
 803:.\BLEApplication.c ****             {
 804:.\BLEApplication.c ****                 printf("AT+ERR=5\r\n");//Ë°®Á§∫Ê≤°ÊúâËØ•ATÂëΩ‰ª§     
 805:.\BLEApplication.c ****             }
 806:.\BLEApplication.c ****         break;
 807:.\BLEApplication.c **** //            ÊöÇÊó∂Êó†ÊïàÔºåÂõ∫ÂÆö‰∏∫9600ÁöÑÊ≥¢ÁâπÁéá
 808:.\BLEApplication.c ****         case BAUD:
 809:.\BLEApplication.c ****             printf("AT+ERR=5\r\n");//Ë°®Á§∫Ê≤°ÊúâËØ•ATÂëΩ‰ª§ 
 810:.\BLEApplication.c **** //            idx=SerialData[8];             
 811:.\BLEApplication.c **** //            UartBuadRate_Handler(idx);
 812:.\BLEApplication.c ****         break;
 813:.\BLEApplication.c **** //            MACÂú∞ÂùÄÊü•ËØ¢----‰∏ª‰ªéÊúâÊïà
 814:.\BLEApplication.c ****         case LADDR:
 815:.\BLEApplication.c ****             idx=SerialData[9]; 
 816:.\BLEApplication.c ****             if('?'==idx)
 817:.\BLEApplication.c ****             {
 818:.\BLEApplication.c ****                 CyBle_GetDeviceAddress(&DeviceAddr);
 819:.\BLEApplication.c ****                 printf("+LADDR=%02X%02X%02X%02X%02X%02X\r\n",                  
 820:.\BLEApplication.c ****                     DeviceAddr.bdAddr[5],
 821:.\BLEApplication.c ****                     DeviceAddr.bdAddr[4],
 822:.\BLEApplication.c ****                     DeviceAddr.bdAddr[3],
 823:.\BLEApplication.c ****                     DeviceAddr.bdAddr[2],
 824:.\BLEApplication.c ****                     DeviceAddr.bdAddr[1],
 825:.\BLEApplication.c ****                     DeviceAddr.bdAddr[0]                             
 826:.\BLEApplication.c ****                   );
 827:.\BLEApplication.c ****             }
 828:.\BLEApplication.c ****             else
 829:.\BLEApplication.c ****             {
 830:.\BLEApplication.c ****                 printf("AT+ERR=5\r\n");//Ë°®Á§∫Ê≤°ÊúâËØ•ATÂëΩ‰ª§ 
 831:.\BLEApplication.c ****             }
 832:.\BLEApplication.c ****         break;
 833:.\BLEApplication.c **** //                ËÆæÂ§áÂêçÊü•ËØ¢Âèä‰øÆÊîπ---‰ªéÊú∫ÊúâÊïà
 834:.\BLEApplication.c ****         case NAME:
 835:.\BLEApplication.c ****              idx=SerialData[8];
 836:.\BLEApplication.c ****              if(Peripheral==Role)
 837:.\BLEApplication.c ****              {
 838:.\BLEApplication.c ****                 switch(idx)
 839:.\BLEApplication.c ****                 {
 840:.\BLEApplication.c ****                     case '?':
 841:.\BLEApplication.c ****                         CyBle_GapGetLocalName(Name);
 842:.\BLEApplication.c ****                         printf("+NAME=%s\r\n",Name);
ARM GAS  C:\Users\Helon\AppData\Local\Temp\ccKCxrf8.s 			page 28


 843:.\BLEApplication.c **** //                        free(Name);
 844:.\BLEApplication.c ****                     break;
 845:.\BLEApplication.c ****                     case '<':
 846:.\BLEApplication.c ****                         if((strchr((char*)(SerialData+9),'>')-(SerialData+9))>23)
 847:.\BLEApplication.c ****                         {
 848:.\BLEApplication.c ****                             printf("AT+ERR=6\r\n");//Ë°®Á§∫ËÆæÁΩÆÁöÑËÆæÂ§áÂêçÂ≠óËøáÈïø
 849:.\BLEApplication.c ****                             return;
 850:.\BLEApplication.c ****                         }
 851:.\BLEApplication.c ****                         if((CYBLE_STATE_CONNECTED!=CyBle_GetState()))
 852:.\BLEApplication.c ****                         {
 853:.\BLEApplication.c ****                             CyBle_GappStopAdvertisement();
 854:.\BLEApplication.c ****                             memset(Name,0,sizeof(char8)*27);
 855:.\BLEApplication.c ****                             DeviceNameLen[0]=Buffer_Length-11;
 856:.\BLEApplication.c ****                             memcpy(Name,RX_BUFFER+9,DeviceNameLen[0]);
 857:.\BLEApplication.c ****                             WriteUserSFlashRow(1,DeviceNameLen,1,0x00);//Â∞ÜËÆæÂ§áÂêçÂ≠óÈïøÂ∫¶ÂÜôÂÖ
 858:.\BLEApplication.c ****                             WriteUserSFlashRow(2,Name,DeviceNameLen[0],0x00);//Â∞ÜËÆæÂ§áÂêçÂÜôÂÖ•SF
 859:.\BLEApplication.c ****                             API_RESULT=CyBle_GapSetLocalName(Name);                            
 860:.\BLEApplication.c ****                             if(API_RESULT==CYBLE_ERROR_OK)
 861:.\BLEApplication.c ****                             {
 862:.\BLEApplication.c ****                                 printf("AT+OK\r\n");
 863:.\BLEApplication.c **** //                                printf("AT+ NAME=<%s>\r\n",Name);
 864:.\BLEApplication.c **** //                                printf("OK\r\n");
 865:.\BLEApplication.c ****                             }
 866:.\BLEApplication.c ****                             else
 867:.\BLEApplication.c ****                             {
 868:.\BLEApplication.c ****                                 printf("AT+ERR=2\r\n");//Ë°®Á§∫ÂëΩ‰ª§ËÆæÁΩÆÂ§±Ë¥•
 869:.\BLEApplication.c ****                             }
 870:.\BLEApplication.c **** //                            free(Name);
 871:.\BLEApplication.c **** //                            CyBle_GappStartAdvertisement(CYBLE_ADVERTISING_FAST);
 872:.\BLEApplication.c ****                         }
 873:.\BLEApplication.c ****                         else
 874:.\BLEApplication.c ****                         {
 875:.\BLEApplication.c ****                                 printf("AT+ERR=3\r\n");//Ë°®Á§∫ÂΩìÂâçÁä∂ÊÄÅ‰∏çÊîØÊåÅËØ•ÂëΩ‰ª§
 876:.\BLEApplication.c **** //                            printf("+NAME=<INVALID>\r\n"); 
 877:.\BLEApplication.c ****                         }
 878:.\BLEApplication.c ****                     break;
 879:.\BLEApplication.c ****                     default:
 880:.\BLEApplication.c ****                         printf("AT+ERR=5\r\n");//Ë°®Á§∫Ê≤°ÊúâËØ•ATÂëΩ‰ª§ 
 881:.\BLEApplication.c ****                     break;
 882:.\BLEApplication.c ****                 }                   
 883:.\BLEApplication.c ****              }
 884:.\BLEApplication.c ****              else
 885:.\BLEApplication.c ****              {
 886:.\BLEApplication.c **** //                printf("+NAME=<INVALID>\r\n"); 
 887:.\BLEApplication.c ****                 printf("AT+ERR=4\r\n");//Ë°®Á§∫ÂΩìÂâçËßíËâ≤‰∏çÊîØÊåÅËØ•ÂëΩ‰ª§ 
 888:.\BLEApplication.c ****              }
 889:.\BLEApplication.c ****                 
 890:.\BLEApplication.c ****         break;
 891:.\BLEApplication.c ****         case CPIN:
 892:.\BLEApplication.c ****         break;
 893:.\BLEApplication.c **** //            ÂèëÂ∞ÑÂäüÁéáÊü•ËØ¢Âèä‰øÆÊîπ----‰ªéÊú∫ÊúâÊïà
 894:.\BLEApplication.c ****         case TXP:
 895:.\BLEApplication.c ****             idx=SerialData[7];
 896:.\BLEApplication.c ****             if(Role==Peripheral)
 897:.\BLEApplication.c ****                 TxPower_Handler(idx);
 898:.\BLEApplication.c ****              else
 899:.\BLEApplication.c ****             {
ARM GAS  C:\Users\Helon\AppData\Local\Temp\ccKCxrf8.s 			page 29


 900:.\BLEApplication.c **** //                printf("+TXP=<INVALID>\r\n"); 
 901:.\BLEApplication.c ****                 printf("AT+ERR=4\r\n");//Ë°®Á§∫ÂΩìÂâçËßíËâ≤‰∏çÊîØÊåÅËØ•ÂëΩ‰ª§ 
 902:.\BLEApplication.c ****             }
 903:.\BLEApplication.c ****         break;
 904:.\BLEApplication.c **** //            ÂπøÊí≠Êï∞ÊçÆÁöÑ‰øÆÊîπÂèäÊü•ËØ¢----‰ªéÊú∫ÊúâÊïà
 905:.\BLEApplication.c ****         case ADVD:
 906:.\BLEApplication.c ****             idx=SerialData[8];
 907:.\BLEApplication.c ****             if(Peripheral==Role)
 908:.\BLEApplication.c ****             {
 909:.\BLEApplication.c ****                 switch(idx)
 910:.\BLEApplication.c ****                 {
 911:.\BLEApplication.c ****                     case '<':
 912:.\BLEApplication.c ****                         if(CYBLE_STATE_ADVERTISING!=CyBle_GetState())
 913:.\BLEApplication.c ****                         {
 914:.\BLEApplication.c ****                             if((strchr((char*)(SerialData+9),'>')-(SerialData+9))>31)
 915:.\BLEApplication.c ****                             {
 916:.\BLEApplication.c ****                                 printf("AT+ERR=9\r\n");//Ë°®Á§∫ËÆæÁΩÆÁöÑÂπøÊí≠Êï∞ÊçÆÈïøÂ∫¶ËøáÈïø
 917:.\BLEApplication.c ****                                 return;
 918:.\BLEApplication.c ****                             }
 919:.\BLEApplication.c ****                             memset(advDiscData.advData,0,CYBLE_GAP_MAX_ADV_DATA_LEN);
 920:.\BLEApplication.c ****                             memcpy(StrAdvDataLength,SerialData+9,2);
 921:.\BLEApplication.c ****                             StrToHex(&AdvDataLength,StrAdvDataLength,1);
 922:.\BLEApplication.c ****                             advDiscData.advDataLen=AdvDataLength;
 923:.\BLEApplication.c ****                             memcpy(StrAdvData,SerialData+12,AdvDataLength*2);
 924:.\BLEApplication.c ****                             StrToHex(AdvData,StrAdvData,sizeof(StrAdvData)/sizeof(char)/2);
 925:.\BLEApplication.c ****                             memcpy(advDiscData.advData,AdvData,advDiscData.advDataLen);
 926:.\BLEApplication.c ****                             API_RESULT=CyBle_GapUpdateAdvData(&advDiscData,NULL);
 927:.\BLEApplication.c ****                             if(CYBLE_ERROR_OK==API_RESULT)
 928:.\BLEApplication.c ****                             {
 929:.\BLEApplication.c ****     //                            printf("+ADVD=<SUCCESS>\r\n");
 930:.\BLEApplication.c ****                                 cyBle_discoveryModeInfo.advData->advDataLen=AdvDataLength;
 931:.\BLEApplication.c ****                                 memcpy(cyBle_discoveryModeInfo.advData->advData,AdvData,AdvDataLeng
 932:.\BLEApplication.c ****                                 printf("AT+OK\r\n");
 933:.\BLEApplication.c ****                             }
 934:.\BLEApplication.c ****                             else
 935:.\BLEApplication.c ****                             {
 936:.\BLEApplication.c ****                                 printf("AT+ERR=2\r\n");//Ë°®Á§∫ÂëΩ‰ª§ËÆæÁΩÆÂ§±Ë¥•
 937:.\BLEApplication.c ****                             }
 938:.\BLEApplication.c ****                         }
 939:.\BLEApplication.c ****                         else
 940:.\BLEApplication.c ****                         {
 941:.\BLEApplication.c ****                             printf("AT+ERR=3\r\n");//Ë°®Á§∫ÂΩìÂâçÁä∂ÊÄÅ‰∏çÊîØÊåÅËØ•ÂëΩ‰ª§
 942:.\BLEApplication.c ****                         }
 943:.\BLEApplication.c ****                     break;                        
 944:.\BLEApplication.c ****                     case '?':
 945:.\BLEApplication.c ****                         if(CYBLE_STATE_ADVERTISING==CyBle_GetState())
 946:.\BLEApplication.c ****                         {
 947:.\BLEApplication.c ****                             printf("+ADVD=");
 948:.\BLEApplication.c ****                             for(i=0;i<cyBle_discoveryModeInfo.advData->advDataLen;i++)
 949:.\BLEApplication.c ****                             {
 950:.\BLEApplication.c ****                                 printf("%02X",cyBle_discoveryModeInfo.advData->advData[i]);
 951:.\BLEApplication.c ****                             }
 952:.\BLEApplication.c ****                             printf("\r\n");
 953:.\BLEApplication.c ****                         }
 954:.\BLEApplication.c ****                         else
 955:.\BLEApplication.c ****                         {
 956:.\BLEApplication.c ****                             printf("AT+ERR=3\r\n");//Ë°®Á§∫ÂΩìÂâçÁä∂ÊÄÅ‰∏çÊîØÊåÅËØ•ÂëΩ‰ª§
ARM GAS  C:\Users\Helon\AppData\Local\Temp\ccKCxrf8.s 			page 30


 957:.\BLEApplication.c ****                         }
 958:.\BLEApplication.c ****                         
 959:.\BLEApplication.c ****                     break;
 960:.\BLEApplication.c ****                     default:
 961:.\BLEApplication.c ****                         printf("AT+ERR=5\r\n");//Ë°®Á§∫Ê≤°ÊúâËØ•ATÂëΩ‰ª§ 
 962:.\BLEApplication.c ****                     break;
 963:.\BLEApplication.c ****                 }                
 964:.\BLEApplication.c ****             }                
 965:.\BLEApplication.c ****             else
 966:.\BLEApplication.c ****             {
 967:.\BLEApplication.c **** //                printf("+ADVD=<INVALID>\r\n");
 968:.\BLEApplication.c ****                 printf("AT+ERR=4\r\n");//Ë°®Á§∫ÂΩìÂâçËßíËâ≤‰∏çÊîØÊåÅËØ•ÂëΩ‰ª§
 969:.\BLEApplication.c ****             }
 970:.\BLEApplication.c ****         break;
 971:.\BLEApplication.c **** //            ÂπøÊí≠Èó¥ÈöîÁöÑ‰øÆÊîπÂèäÊü•ËØ¢----‰ªéÊú∫ÊúâÊïà
 972:.\BLEApplication.c ****         case ADVI:            
 973:.\BLEApplication.c ****             if(Role==Peripheral)
 974:.\BLEApplication.c ****             {
 975:.\BLEApplication.c ****                 idx=SerialData[8];  
 976:.\BLEApplication.c ****                 if((CYBLE_STATE_CONNECTED!=CyBle_GetState()))
 977:.\BLEApplication.c ****                 {
 978:.\BLEApplication.c ****                     switch(idx)
 979:.\BLEApplication.c ****                     {
 980:.\BLEApplication.c ****                         case '?':
 981:.\BLEApplication.c ****                         AdvMin=(cyBle_discoveryModeInfo.advParam->advIntvMin)*0.625;
 982:.\BLEApplication.c ****                         AdvMax=(cyBle_discoveryModeInfo.advParam->advIntvMax)*0.625;               
 983:.\BLEApplication.c ****                         printf("+ADVI=%hdms,%hdms,%hus\r\n",AdvMin,
 984:.\BLEApplication.c ****                         AdvMax,cyBle_discoveryModeInfo.advTo);
 985:.\BLEApplication.c ****                         while((UART_SpiUartGetTxBufferSize() + UART_GET_TX_FIFO_SR_VALID) != 0);//Á
 986:.\BLEApplication.c ****                         break;
 987:.\BLEApplication.c ****                         case '<':
 988:.\BLEApplication.c ****     //                    Âè™ÊúâÂÅúÊ≠¢ÂπøÊí≠‰∫Ü‰øÆÊîπÊâçÊúâÊïà
 989:.\BLEApplication.c ****                         if(CYBLE_STATE_ADVERTISING!=CyBle_GetState())
 990:.\BLEApplication.c ****                         {
 991:.\BLEApplication.c ****              //              Ëé∑ÂèñAdvMinÂÄº
 992:.\BLEApplication.c ****                             AdvParamArray[0]=SerialData[9];
 993:.\BLEApplication.c ****                             AdvParamArray[1]=SerialData[10];
 994:.\BLEApplication.c ****                             StrToHex(&AdvParam,AdvParamArray,1);
 995:.\BLEApplication.c ****                             cyBle_discoveryModeInfo.advParam->advIntvMin=AdvParam;
 996:.\BLEApplication.c ****         //                    Ëé∑ÂèñAdvMaxÂÄº
 997:.\BLEApplication.c ****                             AdvParamArray[0]=SerialData[12];
 998:.\BLEApplication.c ****                             AdvParamArray[1]=SerialData[13];
 999:.\BLEApplication.c ****                             StrToHex(&AdvParam,AdvParamArray,1);
1000:.\BLEApplication.c ****                             cyBle_discoveryModeInfo.advParam->advIntvMax=AdvParam;
1001:.\BLEApplication.c ****         //                      Ëé∑ÂèñAdvToÂÄº
1002:.\BLEApplication.c ****                             AdvParamArray[0]=SerialData[15];
1003:.\BLEApplication.c ****                             AdvParamArray[1]=SerialData[16];
1004:.\BLEApplication.c ****                             StrToHex(&AdvParam,AdvParamArray,1);
1005:.\BLEApplication.c ****                             cyBle_discoveryModeInfo.advTo=AdvParam;
1006:.\BLEApplication.c ****                             printf("AT+OK\r\n");
1007:.\BLEApplication.c **** //                            printf("%s",SerialData);
1008:.\BLEApplication.c **** //                            printf("OK\r\n");
1009:.\BLEApplication.c ****                         }
1010:.\BLEApplication.c ****                         else
1011:.\BLEApplication.c ****                         {
1012:.\BLEApplication.c **** //                             printf("+ADVI=<INVALID>\r\n");
1013:.\BLEApplication.c ****                             printf("AT+ERR=3\r\n");//Ë°®Á§∫ÂΩìÂâçÁä∂ÊÄÅ‰∏çÊîØÊåÅËØ•ÂëΩ‰ª§
ARM GAS  C:\Users\Helon\AppData\Local\Temp\ccKCxrf8.s 			page 31


1014:.\BLEApplication.c ****                         }
1015:.\BLEApplication.c ****                         break;
1016:.\BLEApplication.c ****                         default:
1017:.\BLEApplication.c ****                             printf("AT+ERR=5\r\n");//Ë°®Á§∫Ê≤°ÊúâËØ•ATÂëΩ‰ª§ 
1018:.\BLEApplication.c ****                         break;
1019:.\BLEApplication.c ****                     }  
1020:.\BLEApplication.c ****                 }
1021:.\BLEApplication.c ****                 else
1022:.\BLEApplication.c ****                 {
1023:.\BLEApplication.c ****                     printf("AT+ERR=3\r\n");//Ë°®Á§∫ÂΩìÂâçÁä∂ÊÄÅ‰∏çÊîØÊåÅËØ•ÂëΩ‰ª§
1024:.\BLEApplication.c ****                 }
1025:.\BLEApplication.c ****                                             
1026:.\BLEApplication.c ****             }
1027:.\BLEApplication.c ****             else
1028:.\BLEApplication.c ****             {
1029:.\BLEApplication.c **** //                printf("+ADVI=<INVALID>\r\n");
1030:.\BLEApplication.c ****                 printf("AT+ERR=4\r\n");//Ë°®Á§∫ÂΩìÂâçËßíËâ≤‰∏çÊîØÊåÅËØ•ÂëΩ‰ª§
1031:.\BLEApplication.c ****             }
1032:.\BLEApplication.c ****             
1033:.\BLEApplication.c ****         break;
1034:.\BLEApplication.c **** //            ËøûÊé•Èó¥ÈöîÁöÑ‰øÆÊîπÂèäÊü•ËØ¢----‰∏ªÊú∫ÊúâÊïàÔºåÊü•ËØ¢Âàô‰∏ª‰ªéÊúâÊïà
1035:.\BLEApplication.c ****         case CONNI:  
1036:.\BLEApplication.c ****             idx=SerialData[9];
1037:.\BLEApplication.c ****             switch(idx)
1038:.\BLEApplication.c ****             {
1039:.\BLEApplication.c ****                 case '?':
1040:.\BLEApplication.c ****                 if(CYBLE_STATE_CONNECTED==CyBle_GetState())
1041:.\BLEApplication.c ****                 {
1042:.\BLEApplication.c **** //                    connintv=(ConnParam.connIntv)*1.25;
1043:.\BLEApplication.c **** //                    supervisionTO=(ConnParam.supervisionTO)*10;
1044:.\BLEApplication.c ****                     printf("+CONNI=%04X,%04X,%04X\r\n",ConnParam.connIntv,
1045:.\BLEApplication.c ****                     ConnParam.supervisionTO,ConnParam.connLatency);
1046:.\BLEApplication.c ****                 }
1047:.\BLEApplication.c ****                 else
1048:.\BLEApplication.c ****                 {
1049:.\BLEApplication.c **** //                    printf("+CONNI=<INVALID>\r\n");
1050:.\BLEApplication.c ****                     printf("AT+ERR=3\r\n");//Ë°®Á§∫ÂΩìÂâçÁä∂ÊÄÅ‰∏çÊîØÊåÅËØ•ÂëΩ‰ª§
1051:.\BLEApplication.c ****                 }
1052:.\BLEApplication.c ****                 break;
1053:.\BLEApplication.c ****                 case '<':
1054:.\BLEApplication.c **** //                Âè™Êúâ‰∏ªÊú∫ÂèØ‰ª•Êõ¥ÊîπËøûÊé•ÂèÇÊï∞
1055:.\BLEApplication.c ****                 if(Role==Central)
1056:.\BLEApplication.c ****                 {
1057:.\BLEApplication.c ****                     if(CYBLE_STATE_CONNECTED==CyBle_GetState())
1058:.\BLEApplication.c ****                     {
1059:.\BLEApplication.c ****                         //                    Ëé∑ÂèñÊúÄÂ∞èËøûÊé•Èó¥Èöî
1060:.\BLEApplication.c ****                         AdvParamArray[0]=SerialData[10];
1061:.\BLEApplication.c ****                         AdvParamArray[1]=SerialData[11];
1062:.\BLEApplication.c ****                         StrToHex(&AdvParam,AdvParamArray,1);
1063:.\BLEApplication.c ****                         connParam.connIntvMin=AdvParam;
1064:.\BLEApplication.c ****     //                    Ëé∑ÂèñÊúÄÂ§ßËøûÊé•Èó¥Èöî                    
1065:.\BLEApplication.c ****                         AdvParamArray[0]=SerialData[13];
1066:.\BLEApplication.c ****                         AdvParamArray[1]=SerialData[14];
1067:.\BLEApplication.c ****                         StrToHex(&AdvParam,AdvParamArray,1);
1068:.\BLEApplication.c ****                         connParam.connIntvMax=AdvParam;
1069:.\BLEApplication.c ****     //                    ÂèëËµ∑ËøûÊé•Èó¥ÈöîÊõ¥Êñ∞ËØ∑Ê±Ç
1070:.\BLEApplication.c ****                         API_RESULT=CyBle_GapcConnectionParamUpdateRequest(cyBle_connHandle.bdHandle
ARM GAS  C:\Users\Helon\AppData\Local\Temp\ccKCxrf8.s 			page 32


1071:.\BLEApplication.c ****                         if(CYBLE_ERROR_OK==API_RESULT)
1072:.\BLEApplication.c ****                         {
1073:.\BLEApplication.c ****                             printf("AT+OK\r\n");
1074:.\BLEApplication.c ****     //                        printf("%s",SerialData);
1075:.\BLEApplication.c ****     //                        printf("OK\r\n");
1076:.\BLEApplication.c ****                         }
1077:.\BLEApplication.c ****                         else
1078:.\BLEApplication.c ****                         {
1079:.\BLEApplication.c ****     //                        printf("+CONNI=<FAIL>\r\n");
1080:.\BLEApplication.c ****                             printf("AT+ERR=2\r\n");//Ë°®Á§∫ÂëΩ‰ª§ËÆæÁΩÆÂ§±Ë¥•
1081:.\BLEApplication.c ****                         }
1082:.\BLEApplication.c ****                         
1083:.\BLEApplication.c ****                     }
1084:.\BLEApplication.c ****                     else
1085:.\BLEApplication.c ****                     {
1086:.\BLEApplication.c ****                         printf("AT+ERR=3\r\n");//Ë°®Á§∫ÂΩìÂâçÁä∂ÊÄÅ‰∏çÊîØÊåÅËØ•ÂëΩ‰ª§
1087:.\BLEApplication.c ****                     }
1088:.\BLEApplication.c **** 
1089:.\BLEApplication.c ****                 }
1090:.\BLEApplication.c ****                 else
1091:.\BLEApplication.c ****                 {
1092:.\BLEApplication.c **** //                    printf("+CONNI=<INVALID>\r\n");
1093:.\BLEApplication.c ****                     printf("AT+ERR=4\r\n");//Ë°®Á§∫ÂΩìÂâçËßíËâ≤‰∏çÊîØÊåÅËØ•ÂëΩ‰ª§
1094:.\BLEApplication.c ****                 }
1095:.\BLEApplication.c ****                 break;
1096:.\BLEApplication.c ****                 default:
1097:.\BLEApplication.c ****                     printf("AT+ERR=5\r\n");//Ë°®Á§∫Ê≤°ÊúâËØ•ATÂëΩ‰ª§ 
1098:.\BLEApplication.c ****                 break;
1099:.\BLEApplication.c ****             }
1100:.\BLEApplication.c ****             
1101:.\BLEApplication.c ****         break;
1102:.\BLEApplication.c **** //              ‰∏ª‰ªé‰∏Ä‰ΩìÂàáÊç¢ÂëΩ‰ª§-----‰∏ª‰ªéÊúâÊïà
1103:.\BLEApplication.c ****         case ROLE:
1104:.\BLEApplication.c ****             idx=SerialData[8];
1105:.\BLEApplication.c ****             switch(idx)
1106:.\BLEApplication.c ****             {
1107:.\BLEApplication.c ****                 case '?':
1108:.\BLEApplication.c ****                     if(Peripheral==Role)
1109:.\BLEApplication.c ****                     {
1110:.\BLEApplication.c ****                         printf("+ROLE=0\r\n");
1111:.\BLEApplication.c **** //                        printf("+ROLE=<Peripheral>\r\n");
1112:.\BLEApplication.c ****                     }
1113:.\BLEApplication.c ****                     else
1114:.\BLEApplication.c ****                     {   
1115:.\BLEApplication.c ****                         printf("+ROLE=1\r\n");
1116:.\BLEApplication.c **** //                        printf("+ROLE=<Central>\r\n");
1117:.\BLEApplication.c ****                     }
1118:.\BLEApplication.c ****                 break;
1119:.\BLEApplication.c **** //                    0Ôºö‰ªéÊú∫(Slave)
1120:.\BLEApplication.c ****                 case '0':
1121:.\BLEApplication.c ****                     if(CYBLE_STATE_CONNECTED!=CyBle_GetState())
1122:.\BLEApplication.c ****                     {
1123:.\BLEApplication.c ****                         WriteDataToFlash=Peripheral;//ÊääÂΩìÂâçÁöÑÂÄºÂÜôÂÖ•Flash‰∏≠,Áî®‰∫éÂ§ç‰ΩçÊó∂
1124:.\BLEApplication.c ****                         if(USER_SFLASH_WRITE_SUCCESSFUL==WriteUserSFlashRow(0,&WriteDataToFlash,1,0
1125:.\BLEApplication.c ****                         {
1126:.\BLEApplication.c ****                             //ÂÅúÊ≠¢Êâ´Êèè,Ê≥®ÈáäÊéâÂπøÊí≠ÊâçÊ≠£Â∏∏ÔºåÂê¶ÂàôÂè™ÊúâÂø´ÂπøÊí≠Ê≤°ÊúâÊÖ
1127:.\BLEApplication.c **** //                            CyBle_GapcStopScan();
ARM GAS  C:\Users\Helon\AppData\Local\Temp\ccKCxrf8.s 			page 33


1128:.\BLEApplication.c ****                             //ÂºÄÂßãÂπøÊí≠
1129:.\BLEApplication.c ****                             CyBle_GappStartAdvertisement(CYBLE_ADVERTISING_FAST);
1130:.\BLEApplication.c ****                             Role=Peripheral;
1131:.\BLEApplication.c ****                             printf("AT+OK\r\n");
1132:.\BLEApplication.c **** //                            printf("+ROLE:<Peripheral>\r\n");
1133:.\BLEApplication.c **** //                            printf("OK\r\n");
1134:.\BLEApplication.c ****                         }  
1135:.\BLEApplication.c ****                         
1136:.\BLEApplication.c ****                     } 
1137:.\BLEApplication.c ****                     else
1138:.\BLEApplication.c ****                     {
1139:.\BLEApplication.c ****                         printf("AT+ERR=3\r\n");//Ë°®Á§∫ÂΩìÂâçÁä∂ÊÄÅ‰∏çÊîØÊåÅËØ•ÂëΩ‰ª§
1140:.\BLEApplication.c ****                     }
1141:.\BLEApplication.c ****                 break;
1142:.\BLEApplication.c **** //                     1Ôºö‰∏ªÊú∫(Master)
1143:.\BLEApplication.c ****                 case '1':
1144:.\BLEApplication.c ****                     if(CYBLE_STATE_CONNECTED!=CyBle_GetState())
1145:.\BLEApplication.c ****                     {
1146:.\BLEApplication.c ****                         WriteDataToFlash=Central;
1147:.\BLEApplication.c ****                         if(USER_SFLASH_WRITE_SUCCESSFUL==WriteUserSFlashRow(0,&WriteDataToFlash,1,0
1148:.\BLEApplication.c ****                         {
1149:.\BLEApplication.c **** //                        ÂÅúÊ≠¢ÂπøÊí≠
1150:.\BLEApplication.c **** //                            CyBle_GappStopAdvertisement();
1151:.\BLEApplication.c **** //                        ÂºÄÂßãÊâ´Êèè
1152:.\BLEApplication.c ****                             CyBle_GapcStartScan(CYBLE_SCANNING_FAST);
1153:.\BLEApplication.c ****                             Role=Central;
1154:.\BLEApplication.c ****                             printf("AT+OK\r\n");
1155:.\BLEApplication.c **** //                            printf("+ROLE:<Central>\r\n");
1156:.\BLEApplication.c **** //                            printf("OK\r\n");
1157:.\BLEApplication.c ****                         }
1158:.\BLEApplication.c **** 
1159:.\BLEApplication.c ****                     }
1160:.\BLEApplication.c ****                     else
1161:.\BLEApplication.c ****                     {
1162:.\BLEApplication.c ****                         printf("AT+ERR=3\r\n");//Ë°®Á§∫ÂΩìÂâçÁä∂ÊÄÅ‰∏çÊîØÊåÅËØ•ÂëΩ‰ª§
1163:.\BLEApplication.c ****                     }
1164:.\BLEApplication.c ****                     
1165:.\BLEApplication.c ****                 break;
1166:.\BLEApplication.c ****                 default:
1167:.\BLEApplication.c ****                     printf("AT+ERR=5\r\n");//Ë°®Á§∫Ê≤°ÊúâËØ•ATÂëΩ‰ª§ 
1168:.\BLEApplication.c ****                 break;                    
1169:.\BLEApplication.c ****             }
1170:.\BLEApplication.c ****         break;
1171:.\BLEApplication.c **** ////            Êü•ËØ¢ÊâÄÊúâÁöÑÁâπÂæÅÊèèËø∞Á¨¶----‰∏ªÊú∫ÊúâÊïà
1172:.\BLEApplication.c ****         case DISALLCHAR:
1173:.\BLEApplication.c ****             if(Role==Central)
1174:.\BLEApplication.c ****             {
1175:.\BLEApplication.c ****                 range.startHandle=0x0001;
1176:.\BLEApplication.c ****                 range.endHandle=0xFFFF;       
1177:.\BLEApplication.c ****                 API_RESULT=CyBle_GattcDiscoverAllCharacteristicDescriptors(cyBle_connHandle,&range)
1178:.\BLEApplication.c ****             }
1179:.\BLEApplication.c ****             else
1180:.\BLEApplication.c ****             {
1181:.\BLEApplication.c ****                 printf("AT+ERR=4\r\n");//Ë°®Á§∫ÂΩìÂâçËßíËâ≤‰∏çÊîØÊåÅËØ•ÂëΩ‰ª§
1182:.\BLEApplication.c **** //                printf("+DISALLCHAR=<INVALID>\r\n");
1183:.\BLEApplication.c ****             }
1184:.\BLEApplication.c ****         break;
ARM GAS  C:\Users\Helon\AppData\Local\Temp\ccKCxrf8.s 			page 34


1185:.\BLEApplication.c **** //            Êâ´ÊèèÂë®Âõ¥ÁöÑBLEËÆæÂ§á----‰∏ªÊú∫ÊúâÊïà
1186:.\BLEApplication.c ****         case SCAN:
1187:.\BLEApplication.c ****             if(Role==Central)
1188:.\BLEApplication.c ****             {
1189:.\BLEApplication.c ****                 if(SerialData[8]=='1')
1190:.\BLEApplication.c ****                 {
1191:.\BLEApplication.c ****                     if(CYBLE_STATE_CONNECTED!=CyBle_GetState())
1192:.\BLEApplication.c ****                     {
1193:.\BLEApplication.c ****                         ScanDeviceInfoInit();
1194:.\BLEApplication.c ****                         if(CYBLE_ERROR_OK==CyBle_GapcStartScan(CYBLE_SCANNING_FAST))
1195:.\BLEApplication.c ****                         {
1196:.\BLEApplication.c ****                             printf("AT+OK\r\n");  
1197:.\BLEApplication.c ****                         }
1198:.\BLEApplication.c ****                         else
1199:.\BLEApplication.c ****                         {
1200:.\BLEApplication.c ****                             printf("AT+ERR=2\r\n");//Ë°®Á§∫ÂëΩ‰ª§ËÆæÁΩÆÂ§±Ë¥•
1201:.\BLEApplication.c ****                         }
1202:.\BLEApplication.c ****                     }
1203:.\BLEApplication.c ****                     else
1204:.\BLEApplication.c ****                     {
1205:.\BLEApplication.c ****                         printf("AT+ERR=3\r\n");//Ë°®Á§∫ÂΩìÂâçÁä∂ÊÄÅ‰∏çÊîØÊåÅËØ•ÂëΩ‰ª§
1206:.\BLEApplication.c ****                     }
1207:.\BLEApplication.c ****                     
1208:.\BLEApplication.c ****                 }
1209:.\BLEApplication.c ****                 else if(SerialData[8]=='0')
1210:.\BLEApplication.c ****                 {
1211:.\BLEApplication.c ****                     if(CYBLE_STATE_SCANNING==CyBle_GetState())
1212:.\BLEApplication.c ****                     {
1213:.\BLEApplication.c ****                         ScanDeviceInfoInit();
1214:.\BLEApplication.c ****                         CyBle_GapcStopScan();                                   
1215:.\BLEApplication.c ****                         STOP_SCAN_FLAG=TRUE;
1216:.\BLEApplication.c ****                         printf("AT+OK\r\n"); 
1217:.\BLEApplication.c ****                     }
1218:.\BLEApplication.c ****                     else
1219:.\BLEApplication.c ****                     {
1220:.\BLEApplication.c ****                         printf("AT+ERR=3\r\n");//Ë°®Á§∫ÂΩìÂâçÁä∂ÊÄÅ‰∏çÊîØÊåÅËØ•ÂëΩ‰ª§
1221:.\BLEApplication.c ****                     }
1222:.\BLEApplication.c ****                 }
1223:.\BLEApplication.c ****                 else if(SerialData[8]=='?')
1224:.\BLEApplication.c ****                 {
1225:.\BLEApplication.c ****                     if(0==DeviceCount)
1226:.\BLEApplication.c ****                     {
1227:.\BLEApplication.c ****                         printf("AT+ERR=10\r\n");//Ë°®Á§∫ÂΩìÂâçËøòÊ≤°ÊúâÊâ´ÊèèÂà∞Âë®ËæπÁöÑBLEËÆæÂ§á
1228:.\BLEApplication.c ****                         return;
1229:.\BLEApplication.c ****                     }
1230:.\BLEApplication.c ****                     for(i=0;i<DeviceCount;i++)
1231:.\BLEApplication.c ****                     {
1232:.\BLEApplication.c ****                         printf("+INQ_SCAN=%d,%02X%02X%02X%02X%02X%02X\r\n",
1233:.\BLEApplication.c ****                         DeviceInfo[i].idx,
1234:.\BLEApplication.c ****                         DeviceInfo[i].DeviceList.bdAddr[5],
1235:.\BLEApplication.c ****                         DeviceInfo[i].DeviceList.bdAddr[4],
1236:.\BLEApplication.c ****                         DeviceInfo[i].DeviceList.bdAddr[3],
1237:.\BLEApplication.c ****                         DeviceInfo[i].DeviceList.bdAddr[2],
1238:.\BLEApplication.c ****                         DeviceInfo[i].DeviceList.bdAddr[1],
1239:.\BLEApplication.c ****                         DeviceInfo[i].DeviceList.bdAddr[0]                             
1240:.\BLEApplication.c ****                       );
1241:.\BLEApplication.c ****     //                  while((UART_SpiUartGetTxBufferSize() + UART_GET_TX_FIFO_SR_VALID) != 0);//Á
ARM GAS  C:\Users\Helon\AppData\Local\Temp\ccKCxrf8.s 			page 35


1242:.\BLEApplication.c ****                     }
1243:.\BLEApplication.c ****                 }
1244:.\BLEApplication.c ****                 else
1245:.\BLEApplication.c ****                 {
1246:.\BLEApplication.c ****                     printf("AT+ERR=5\r\n");//Ë°®Á§∫Ê≤°ÊúâËØ•ATÂëΩ‰ª§ 
1247:.\BLEApplication.c ****                 }
1248:.\BLEApplication.c ****             }
1249:.\BLEApplication.c ****             else
1250:.\BLEApplication.c ****             {
1251:.\BLEApplication.c **** //                printf("+SCAN=<INVALID>\r\n");
1252:.\BLEApplication.c ****                 printf("AT+ERR=4\r\n");//Ë°®Á§∫ÂΩìÂâçËßíËâ≤‰∏çÊîØÊåÅËØ•ÂëΩ‰ª§
1253:.\BLEApplication.c ****             }
1254:.\BLEApplication.c ****         break;
1255:.\BLEApplication.c **** //            ËøûÊé•ÈÄâ‰∏≠ÁöÑBLEËÆæÂ§á-----‰∏ªÊú∫ÊúâÊïà
1256:.\BLEApplication.c ****         case CONNT:
1257:.\BLEApplication.c ****             if(Role==Central)
1258:.\BLEApplication.c ****             {
1259:.\BLEApplication.c ****                 idx=SerialData[9];
1260:.\BLEApplication.c ****                 Connect_Device(idx);      
1261:.\BLEApplication.c ****             }
1262:.\BLEApplication.c ****             else
1263:.\BLEApplication.c ****             {
1264:.\BLEApplication.c **** //                printf("+CONNT=<INVALID>\r\n");
1265:.\BLEApplication.c ****                 printf("AT+ERR=4\r\n");//Ë°®Á§∫ÂΩìÂâçËßíËâ≤‰∏çÊîØÊåÅËØ•ÂëΩ‰ª§
1266:.\BLEApplication.c ****             }
1267:.\BLEApplication.c ****         break;
1268:.\BLEApplication.c **** //            Êñ≠ÂºÄËøûÊé•----‰∏ª‰ªéÊúâÊïà
1269:.\BLEApplication.c ****         case DISCONN:
1270:.\BLEApplication.c ****             if(CYBLE_STATE_CONNECTED==CyBle_GetState())
1271:.\BLEApplication.c ****             {
1272:.\BLEApplication.c ****                 idx=SerialData[11];
1273:.\BLEApplication.c ****                 if(Role==Central)
1274:.\BLEApplication.c ****                 {
1275:.\BLEApplication.c ****                     switch(idx)
1276:.\BLEApplication.c ****                     {
1277:.\BLEApplication.c ****                         case '1':
1278:.\BLEApplication.c ****                             API_RESULT=CyBle_GapDisconnect(cyBle_connHandle.bdHandle);
1279:.\BLEApplication.c ****                             if(CYBLE_ERROR_OK!=API_RESULT)  
1280:.\BLEApplication.c ****                             {
1281:.\BLEApplication.c ****                                 printf("AT+ERR=%d,0x%02X\r\n",idx-0x30,API_RESULT);                
1282:.\BLEApplication.c ****                             }
1283:.\BLEApplication.c ****                             else
1284:.\BLEApplication.c ****                             {
1285:.\BLEApplication.c ****                                 //Êñ≠ÂºÄËøûÊé•ÂêéÔºåÂ∫îËØ•Ê∏ÖÁ©∫ËøûÊé•ÂàóË°®ÂØπÂ∫îÁöÑÂÜÖÂÆπ
1286:.\BLEApplication.c ****                                 for(i=0;i<Conn_Or_Disconn_Info.Connected_Count;i++)
1287:.\BLEApplication.c ****                                 {
1288:.\BLEApplication.c ****                                     if(1==Conn_Or_Disconn_Info.Connect_Idx[i])
1289:.\BLEApplication.c ****                                     {
1290:.\BLEApplication.c ****                                         Conn_Or_Disconn_Info.Connected_Count--;
1291:.\BLEApplication.c ****                                         memset(Conn_Or_Disconn_Info.DeviceAddr[i].bdAddr,0,6);
1292:.\BLEApplication.c ****                                         Conn_Or_Disconn_Info.Connect_Idx[i]=0;
1293:.\BLEApplication.c ****                                         Conn_Or_Disconn_Info.Disconn_Idx[0]=idx-0x30;
1294:.\BLEApplication.c ****                                         Conn_or_Disconn_Idx=idx-0x30;
1295:.\BLEApplication.c ****                                         break;
1296:.\BLEApplication.c ****                                     }
1297:.\BLEApplication.c ****                                 }
1298:.\BLEApplication.c ****                                 printf("AT+OK\r\n");
ARM GAS  C:\Users\Helon\AppData\Local\Temp\ccKCxrf8.s 			page 36


1299:.\BLEApplication.c ****                             }
1300:.\BLEApplication.c ****                         break;
1301:.\BLEApplication.c ****                         case '2':
1302:.\BLEApplication.c ****                             API_RESULT=CyBle_GapDisconnect(cyBle_connHandle.bdHandle);
1303:.\BLEApplication.c ****                             if(CYBLE_ERROR_OK!=API_RESULT)  
1304:.\BLEApplication.c ****                             {
1305:.\BLEApplication.c ****                                 printf("AT+ERR=%d,0x%02X\r\n",idx-0x30,API_RESULT);                
1306:.\BLEApplication.c ****                             }
1307:.\BLEApplication.c ****                             else
1308:.\BLEApplication.c ****                             {
1309:.\BLEApplication.c ****                                 //Êñ≠ÂºÄËøûÊé•ÂêéÔºåÂ∫îËØ•Ê∏ÖÁ©∫ËøûÊé•ÂàóË°®ÂØπÂ∫îÁöÑÂÜÖÂÆπ
1310:.\BLEApplication.c ****                                 for(i=0;i<Conn_Or_Disconn_Info.Connected_Count;i++)
1311:.\BLEApplication.c ****                                 {
1312:.\BLEApplication.c ****                                     if(1==Conn_Or_Disconn_Info.Connect_Idx[i])
1313:.\BLEApplication.c ****                                     {
1314:.\BLEApplication.c ****                                         Conn_Or_Disconn_Info.Connected_Count--;
1315:.\BLEApplication.c ****                                         memset(Conn_Or_Disconn_Info.DeviceAddr[i].bdAddr,0,6);
1316:.\BLEApplication.c ****                                         Conn_Or_Disconn_Info.Connect_Idx[i]=0;
1317:.\BLEApplication.c ****                                         Conn_Or_Disconn_Info.Disconn_Idx[0]=idx-0x30;
1318:.\BLEApplication.c ****                                         Conn_or_Disconn_Idx=idx-0x30;
1319:.\BLEApplication.c ****                                         break;
1320:.\BLEApplication.c ****                                     }
1321:.\BLEApplication.c ****                                 }
1322:.\BLEApplication.c ****                                 printf("AT+OK\r\n");
1323:.\BLEApplication.c ****                             }
1324:.\BLEApplication.c ****                         break;
1325:.\BLEApplication.c ****                         case '3':
1326:.\BLEApplication.c ****                             API_RESULT=CyBle_GapDisconnect(cyBle_connHandle.bdHandle);
1327:.\BLEApplication.c ****                             if(CYBLE_ERROR_OK!=API_RESULT)  
1328:.\BLEApplication.c ****                             {
1329:.\BLEApplication.c ****                                 printf("AT+ERR=%d,0x%02X\r\n",idx-0x30,API_RESULT);                
1330:.\BLEApplication.c ****                             }
1331:.\BLEApplication.c ****                             else
1332:.\BLEApplication.c ****                             {
1333:.\BLEApplication.c ****                                 //Êñ≠ÂºÄËøûÊé•ÂêéÔºåÂ∫îËØ•Ê∏ÖÁ©∫ËøûÊé•ÂàóË°®ÂØπÂ∫îÁöÑÂÜÖÂÆπ
1334:.\BLEApplication.c ****                                 for(i=0;i<Conn_Or_Disconn_Info.Connected_Count;i++)
1335:.\BLEApplication.c ****                                 {
1336:.\BLEApplication.c ****                                     if(1==Conn_Or_Disconn_Info.Connect_Idx[i])
1337:.\BLEApplication.c ****                                     {
1338:.\BLEApplication.c ****                                         Conn_Or_Disconn_Info.Connected_Count--;
1339:.\BLEApplication.c ****                                         memset(Conn_Or_Disconn_Info.DeviceAddr[i].bdAddr,0,6);
1340:.\BLEApplication.c ****                                         Conn_Or_Disconn_Info.Connect_Idx[i]=0;
1341:.\BLEApplication.c ****                                         Conn_Or_Disconn_Info.Disconn_Idx[0]=idx-0x30;
1342:.\BLEApplication.c ****                                         Conn_or_Disconn_Idx=idx-0x30;
1343:.\BLEApplication.c ****                                         break;
1344:.\BLEApplication.c ****                                     }
1345:.\BLEApplication.c ****                                 }
1346:.\BLEApplication.c ****                                 printf("AT+OK\r\n");
1347:.\BLEApplication.c ****                             }
1348:.\BLEApplication.c ****                         break;
1349:.\BLEApplication.c ****                         case '4':
1350:.\BLEApplication.c ****                             API_RESULT=CyBle_GapDisconnect(cyBle_connHandle.bdHandle);
1351:.\BLEApplication.c ****                             if(CYBLE_ERROR_OK!=API_RESULT)  
1352:.\BLEApplication.c ****                             {
1353:.\BLEApplication.c ****                                 printf("AT+ERR=%d,0x%02X\r\n",idx-0x30,API_RESULT);                
1354:.\BLEApplication.c ****                             }
1355:.\BLEApplication.c ****                             else
ARM GAS  C:\Users\Helon\AppData\Local\Temp\ccKCxrf8.s 			page 37


1356:.\BLEApplication.c ****                             {
1357:.\BLEApplication.c ****                                 //Êñ≠ÂºÄËøûÊé•ÂêéÔºåÂ∫îËØ•Ê∏ÖÁ©∫ËøûÊé•ÂàóË°®ÂØπÂ∫îÁöÑÂÜÖÂÆπ
1358:.\BLEApplication.c ****                                 for(i=0;i<Conn_Or_Disconn_Info.Connected_Count;i++)
1359:.\BLEApplication.c ****                                 {
1360:.\BLEApplication.c ****                                     if(1==Conn_Or_Disconn_Info.Connect_Idx[i])
1361:.\BLEApplication.c ****                                     {
1362:.\BLEApplication.c ****                                         Conn_Or_Disconn_Info.Connected_Count--;
1363:.\BLEApplication.c ****                                         memset(Conn_Or_Disconn_Info.DeviceAddr[i].bdAddr,0,6);
1364:.\BLEApplication.c ****                                         Conn_Or_Disconn_Info.Connect_Idx[i]=0;
1365:.\BLEApplication.c ****                                         Conn_Or_Disconn_Info.Disconn_Idx[0]=idx-0x30;
1366:.\BLEApplication.c ****                                         Conn_or_Disconn_Idx=idx-0x30;
1367:.\BLEApplication.c ****                                         break;
1368:.\BLEApplication.c ****                                     }
1369:.\BLEApplication.c ****                                 }
1370:.\BLEApplication.c ****                                 printf("AT+OK\r\n");
1371:.\BLEApplication.c ****                             }
1372:.\BLEApplication.c ****                         break;  
1373:.\BLEApplication.c ****                         default:
1374:.\BLEApplication.c ****                             printf("AT+ERR=5\r\n");//Ë°®Á§∫Ê≤°ÊúâËØ•ATÂëΩ‰ª§ 
1375:.\BLEApplication.c ****                         break;
1376:.\BLEApplication.c ****                     }
1377:.\BLEApplication.c ****                 }
1378:.\BLEApplication.c ****                 else
1379:.\BLEApplication.c ****                 {
1380:.\BLEApplication.c ****                     if(idx=='1')
1381:.\BLEApplication.c ****                     {                        
1382:.\BLEApplication.c ****                         API_RESULT=CyBle_GapDisconnect(cyBle_connHandle.bdHandle);
1383:.\BLEApplication.c ****                         if(CYBLE_ERROR_OK!=API_RESULT)  
1384:.\BLEApplication.c ****                         {
1385:.\BLEApplication.c ****                             printf("AT+ERR=0x%02X\r\n",API_RESULT);                    
1386:.\BLEApplication.c ****                         }
1387:.\BLEApplication.c ****                     }
1388:.\BLEApplication.c ****                     else
1389:.\BLEApplication.c ****                     {
1390:.\BLEApplication.c ****                         printf("AT+ERR=5\r\n");//Ë°®Á§∫Ê≤°ÊúâËØ•ATÂëΩ‰ª§
1391:.\BLEApplication.c ****                     }
1392:.\BLEApplication.c ****                 }
1393:.\BLEApplication.c ****             }
1394:.\BLEApplication.c ****             else
1395:.\BLEApplication.c ****             {
1396:.\BLEApplication.c ****                 printf("AT+ERR=3\r\n");//Ë°®Á§∫ÂΩìÂâçÁä∂ÊÄÅ‰∏çÊîØÊåÅËØ•ÂëΩ‰ª§
1397:.\BLEApplication.c ****             }
1398:.\BLEApplication.c ****             
1399:.\BLEApplication.c ****         break;
1400:.\BLEApplication.c ****         case LOGIN:
1401:.\BLEApplication.c ****         break;
1402:.\BLEApplication.c ****         case TX:
1403:.\BLEApplication.c ****         break;
1404:.\BLEApplication.c **** //            ‰∏ªÊú∫Êåá‰ª§ËØªÂèñ‰ªéÊú∫ÁöÑRSSI----‰∏ª‰ªéÊú∫ÊúâÊïà
1405:.\BLEApplication.c ****         case RSSI:
1406:.\BLEApplication.c ****             if(CYBLE_STATE_CONNECTED==CyBle_GetState())
1407:.\BLEApplication.c ****             {
1408:.\BLEApplication.c ****                 idx=SerialData[8];
1409:.\BLEApplication.c ****                 if(idx=='?')
1410:.\BLEApplication.c ****                 {                    
1411:.\BLEApplication.c ****                      printf("+RSSI=%ddbm\r\n",CyBle_GetRssi());
1412:.\BLEApplication.c ****                 }                    
ARM GAS  C:\Users\Helon\AppData\Local\Temp\ccKCxrf8.s 			page 38


1413:.\BLEApplication.c ****                 else
1414:.\BLEApplication.c ****                 {
1415:.\BLEApplication.c ****                     printf("AT+ERR=5\r\n");//Ë°®Á§∫Ê≤°ÊúâËØ•ATÂëΩ‰ª§
1416:.\BLEApplication.c ****                 }
1417:.\BLEApplication.c ****             }
1418:.\BLEApplication.c ****             else
1419:.\BLEApplication.c ****             {
1420:.\BLEApplication.c ****                printf("AT+ERR=3\r\n");//Ë°®Á§∫ÂΩìÂâçÁä∂ÊÄÅ‰∏çÊîØÊåÅËØ•ÂëΩ‰ª§ 
1421:.\BLEApplication.c ****             }
1422:.\BLEApplication.c ****         break;     
1423:.\BLEApplication.c **** //            ÈÄè‰º†ÈÄüÁéáÊµãËØï----‰∏ªÊúâÊïà
1424:.\BLEApplication.c ****         case SPEED:
1425:.\BLEApplication.c ****             idx=SerialData[9];
1426:.\BLEApplication.c ****             if('?'==idx)
1427:.\BLEApplication.c ****             {
1428:.\BLEApplication.c ****                 printf("%ld\r\n",testCount);
1429:.\BLEApplication.c ****                 testCount=0;
1430:.\BLEApplication.c ****             }
1431:.\BLEApplication.c ****             else
1432:.\BLEApplication.c ****             {
1433:.\BLEApplication.c ****                printf("AT+ERR=5\r\n");//Ë°®Á§∫Ê≤°ÊúâËØ•ATÂëΩ‰ª§ 
1434:.\BLEApplication.c ****             }
1435:.\BLEApplication.c **** //            if(CYBLE_STATE_CONNECTED==CyBle_GetState()&&(Central==Role))//ÂΩì‰∏î‰ªÖÂΩìÊòØËøûÊé•Áä
1436:.\BLEApplication.c **** //            {
1437:.\BLEApplication.c **** //                idx=SerialData[9];
1438:.\BLEApplication.c **** ////                MTU_REQ_FLAG=TRUE;                
1439:.\BLEApplication.c **** //                if('?'==idx)
1440:.\BLEApplication.c **** //                {                           
1441:.\BLEApplication.c **** //                    printf("Test Start\r\n");
1442:.\BLEApplication.c **** //                    Timer_Enable();
1443:.\BLEApplication.c **** //                    //‰∏ªÊú∫ÂèëÈÄÅÁöÑMTU exchange request
1444:.\BLEApplication.c **** ////                    if(MTU_REQ_FLAG^FALSE)
1445:.\BLEApplication.c **** ////                    {
1446:.\BLEApplication.c **** ////                        TroughtTest_Flag=TURE;                        
1447:.\BLEApplication.c **** ////                        MTU_REQ_FLAG=FALSE;
1448:.\BLEApplication.c **** ////                        API_RESULT=CyBle_GattcExchangeMtuReq(cyBle_connHandle, CYBLE_GATT_MTU);
1449:.\BLEApplication.c **** //////                        printf("GattcExchangeMtuReq is %d\r\n",API_RESULT);
1450:.\BLEApplication.c **** ////                        break;
1451:.\BLEApplication.c **** ////                    }
1452:.\BLEApplication.c **** ////                    else
1453:.\BLEApplication.c **** ////                    {
1454:.\BLEApplication.c **** //////                        TroughtTest_Flag=TURE;
1455:.\BLEApplication.c **** //////                        charNotificationEnabled = TURE;
1456:.\BLEApplication.c **** ////                        totalByteCounter=0;
1457:.\BLEApplication.c **** //////                        UART_UartPutString("Calculating throughput. Please wait...\n\r");
1458:.\BLEApplication.c **** //////                        Timer_Enable();
1459:.\BLEApplication.c **** ////                        writeRequestData.value.val[0]=0x01;
1460:.\BLEApplication.c **** ////                        writeRequestData.attrHandle=CYBLE_TROUGHPUT_SERVICE_SPEEDTEST_CHAR_HAND
1461:.\BLEApplication.c **** ////                        API_RESULT=CyBle_GattcWriteCharacteristicValue(cyBle_connHandle, &write
1462:.\BLEApplication.c **** ////                        if(CYBLE_ERROR_OK==API_RESULT)
1463:.\BLEApplication.c **** ////                        {
1464:.\BLEApplication.c **** ////                            CyBle_ProcessEvents();
1465:.\BLEApplication.c **** ////                        }                       
1466:.\BLEApplication.c **** ////                        printf("CyBle_GattcWriteCharacteristicDescriptors is %d\r\n",API_RESULT
1467:.\BLEApplication.c **** ////                    }
1468:.\BLEApplication.c **** //                }    
1469:.\BLEApplication.c **** ////            break;
ARM GAS  C:\Users\Helon\AppData\Local\Temp\ccKCxrf8.s 			page 39


1470:.\BLEApplication.c **** //            }
1471:.\BLEApplication.c **** //            else
1472:.\BLEApplication.c **** //            {                
1473:.\BLEApplication.c **** //            }
1474:.\BLEApplication.c ****         break;
1475:.\BLEApplication.c **** //            ‰ΩøËÉΩNotifyÂ±ûÊÄßÁöÑÁâπÂæÅÂÄº-----‰∏ªÊú∫ÊúâÊïàÔºå‰ΩÜÊòØ‰ªéÊú∫‰πüÂèØ‰ª•ÊúâÊïàÂè™ÊòØ‰∏
1476:.\BLEApplication.c ****         case NOTIFY:
1477:.\BLEApplication.c ****             idx=SerialData[10];
1478:.\BLEApplication.c ****             if((CYBLE_STATE_CONNECTED==CyBle_GetState())&&(Central==Role))//‰∏ªÊú∫Ê®°Âºè‰∏ã‰∏îÊòØAT
1479:.\BLEApplication.c ****              {                  
1480:.\BLEApplication.c ****                 switch(idx)
1481:.\BLEApplication.c ****                 {
1482:.\BLEApplication.c **** //                    //ÂÖ≥Èó≠ÈÄè‰º†ÈÄöÈÅì,Âú®ÈÄè‰º†Ê®°Âºè‰∏ã‰∏ç‰ºöËøõÊù•ËøôÈáå
1483:.\BLEApplication.c ****                     case '0':
1484:.\BLEApplication.c **** //                        writeRequestData.value.val[0]=0x00;
1485:.\BLEApplication.c **** //                        writeRequestData.attrHandle=CYBLE_TROUGHPUT_SERVICE_CUSTOM_CHARACTERISTIC
1486:.\BLEApplication.c **** //                        API_RESULT=CyBle_GattcWriteCharacteristicValue(cyBle_connHandle, &writeRe
1487:.\BLEApplication.c **** //                        if(CYBLE_ERROR_OK==API_RESULT)
1488:.\BLEApplication.c **** //                        {
1489:.\BLEApplication.c ****                         CTS_Write(CTS_OFF);
1490:.\BLEApplication.c ****                         CommandMode=AT_COMMAND_MODE;
1491:.\BLEApplication.c ****                         printf("+MODE=AT_COMMAND_MODE\r\n");
1492:.\BLEApplication.c **** //                        }
1493:.\BLEApplication.c **** ////                        printf("CyBle_GattcWriteCharacteristicValue is %d\r\n",API_RESULT);
1494:.\BLEApplication.c ****                     break;
1495:.\BLEApplication.c **** //                    ÊâìÂºÄÈÄè‰º†ÈÄöÈÅì
1496:.\BLEApplication.c ****                     case '1':
1497:.\BLEApplication.c ****                         writeRequestData.value.val[0]=0x01;
1498:.\BLEApplication.c ****                         writeRequestData.attrHandle=CYBLE_TROUGHPUT_SERVICE_CUSTOM_CHARACTERISTIC_C
1499:.\BLEApplication.c ****                         API_RESULT=CyBle_GattcWriteWithoutResponse(cyBle_connHandle, &writeRequestD
1500:.\BLEApplication.c ****                         if(CYBLE_ERROR_OK==API_RESULT)
1501:.\BLEApplication.c ****                         {
1502:.\BLEApplication.c ****                             CommandMode=THROUGHT_MODE;
1503:.\BLEApplication.c ****                             CTS_Write(CTS_ON);
1504:.\BLEApplication.c ****                             printf("+MODE=THROUGHT_MODE\r\n");
1505:.\BLEApplication.c ****                         }
1506:.\BLEApplication.c **** //                        printf("CyBle_GattcWriteCharacteristicValue is %d\r\n",API_RESULT);
1507:.\BLEApplication.c ****                     break;
1508:.\BLEApplication.c ****                     case '?'://‰∏ªÊú∫Ê®°Âºè‰∏ãÔºåËÉΩÊé•Êî∂Âà∞ËØ•ÂëΩ‰ª§Âàô‰∏ÄÂÆöÊòØATÂëΩ‰ª§Ê®°Âºè
1509:.\BLEApplication.c ****                         printf("+MODE=AT_COMMAND_MODE\r\n");                       
1510:.\BLEApplication.c ****                     break;
1511:.\BLEApplication.c ****                     default:
1512:.\BLEApplication.c ****                         printf("AT+ERR=5\r\n");//Ë°®Á§∫Ê≤°ÊúâËØ•ATÂëΩ‰ª§
1513:.\BLEApplication.c ****                     break;
1514:.\BLEApplication.c **** //                        API_RESULT=CyBle_GattcReadCharacteristicValue(cyBle_connHandle,readReques
1515:.\BLEApplication.c **** //                        printf("CyBle_GattcReadCharacteristicDescriptors is %d\r\n",API_RESULT); 
1516:.\BLEApplication.c ****                         
1517:.\BLEApplication.c **** //                    break;
1518:.\BLEApplication.c ****                 }
1519:.\BLEApplication.c ****             }
1520:.\BLEApplication.c ****             else if((CYBLE_STATE_CONNECTED==CyBle_GetState())&&(Peripheral==Role))//‰ªéÊú∫Ê®°Âºè‰∏ã
1521:.\BLEApplication.c ****             {
1522:.\BLEApplication.c ****                 switch(idx)
1523:.\BLEApplication.c ****                 {
1524:.\BLEApplication.c ****                     case '0':
1525:.\BLEApplication.c ****                         CommandMode=AT_COMMAND_MODE;
1526:.\BLEApplication.c ****                         CTS_Write(CTS_OFF);
ARM GAS  C:\Users\Helon\AppData\Local\Temp\ccKCxrf8.s 			page 40


1527:.\BLEApplication.c ****                         printf("+MODE=AT_COMMAND_MODE\r\n");
1528:.\BLEApplication.c ****                     break;
1529:.\BLEApplication.c ****                     case '1'://‰ªéÊú∫Ê®°Âºè‰∏îATÂëΩ‰ª§Ê®°Âºè‰∏ãÔºåÊâìÂºÄ‰ªéÊú∫Áªô‰∏ªÊú∫ÁöÑÈÄè‰º†ÈÄö
1530:.\BLEApplication.c ****                         CommandMode=THROUGHT_MODE;
1531:.\BLEApplication.c ****                         CTS_Write(CTS_ON);
1532:.\BLEApplication.c ****                         printf("+MODE=THROUGHT_MODE\r\n");
1533:.\BLEApplication.c ****                     break;
1534:.\BLEApplication.c ****                     case '?'://‰ªéÊú∫Ê®°Âºè‰∏ãÔºåËÉΩÊé•Êî∂Âà∞ËØ•ÂëΩ‰ª§Âàô‰∏ÄÂÆöÊòØATÂëΩ‰ª§Ê®°Âºè
1535:.\BLEApplication.c ****                         printf("+MODE=AT_COMMAND_MODE\r\n");                       
1536:.\BLEApplication.c ****                     break;
1537:.\BLEApplication.c ****                     default:
1538:.\BLEApplication.c ****                         printf("AT+ERR=5\r\n");//Ë°®Á§∫Ê≤°ÊúâËØ•ATÂëΩ‰ª§
1539:.\BLEApplication.c ****                     break;
1540:.\BLEApplication.c **** 
1541:.\BLEApplication.c ****                 }
1542:.\BLEApplication.c **** //                printf("+NOTIFY=<INVALID>\r\n");
1543:.\BLEApplication.c ****             }
1544:.\BLEApplication.c ****             else
1545:.\BLEApplication.c ****             {
1546:.\BLEApplication.c **** //                printf("+NOTIFY=<INVALID>\r\n");
1547:.\BLEApplication.c ****                 printf("AT+ERR=3\r\n");//Ë°®Á§∫ÂΩìÂâçÁä∂ÊÄÅ‰∏çÊîØÊåÅËØ•ÂëΩ‰ª§
1548:.\BLEApplication.c ****             }
1549:.\BLEApplication.c ****         break;
1550:.\BLEApplication.c **** //            ÂΩìÂâçBLEËÆæÂ§áÁä∂ÊÄÅÊü•ËØ¢----‰∏ª‰ªéÊúâÊïà
1551:.\BLEApplication.c ****         case STAUS:
1552:.\BLEApplication.c ****             idx=SerialData[9];            
1553:.\BLEApplication.c ****             if(idx=='?')
1554:.\BLEApplication.c ****             {
1555:.\BLEApplication.c ****                 STAUS_T=CyBle_GetState();
1556:.\BLEApplication.c ****                 switch(STAUS_T)
1557:.\BLEApplication.c ****                 {
1558:.\BLEApplication.c ****                     case 0:
1559:.\BLEApplication.c ****                             printf("+STAUS=0\r\n");
1560:.\BLEApplication.c **** //                        printf("+STAUS=<STATE_STOPPED>\r\n");
1561:.\BLEApplication.c ****                     break;
1562:.\BLEApplication.c ****                     case 1:
1563:.\BLEApplication.c ****                             printf("+STAUS=1\r\n");
1564:.\BLEApplication.c **** //                        printf("+STAUS=<STATE_INITIALIZING>\r\n");
1565:.\BLEApplication.c ****                     break;
1566:.\BLEApplication.c ****                     case 2:
1567:.\BLEApplication.c ****                             printf("+STAUS=2\r\n");
1568:.\BLEApplication.c **** //                        printf("+STAUS=<STATE_CONNECTED>\r\n");
1569:.\BLEApplication.c ****                     break;
1570:.\BLEApplication.c ****                     case 3:
1571:.\BLEApplication.c ****                             printf("+STAUS=3\r\n");
1572:.\BLEApplication.c **** //                        printf("+STAUS=<STATE_ADVERTISING>\r\n");
1573:.\BLEApplication.c ****                     break;
1574:.\BLEApplication.c ****                     case 4:
1575:.\BLEApplication.c ****                             printf("+STAUS=4\r\n");
1576:.\BLEApplication.c **** //                        printf("+STAUS=<STATE_SCANNING>\r\n");
1577:.\BLEApplication.c ****                     break;
1578:.\BLEApplication.c ****                     case 5:
1579:.\BLEApplication.c ****                             printf("+STAUS=5\r\n");
1580:.\BLEApplication.c **** //                        printf("+STAUS=<STATE_CONNECTING>\r\n");
1581:.\BLEApplication.c ****                     break;
1582:.\BLEApplication.c ****                     case 6:
1583:.\BLEApplication.c ****                             printf("+STAUS=6\r\n");
ARM GAS  C:\Users\Helon\AppData\Local\Temp\ccKCxrf8.s 			page 41


1584:.\BLEApplication.c **** //                        printf("+STAUS=<STATE_DISCONNECTED>\r\n");
1585:.\BLEApplication.c ****                     break;
1586:.\BLEApplication.c ****                     default:
1587:.\BLEApplication.c ****                     break;
1588:.\BLEApplication.c ****                 }
1589:.\BLEApplication.c ****             }
1590:.\BLEApplication.c ****             else
1591:.\BLEApplication.c ****             {
1592:.\BLEApplication.c ****                 printf("AT+ERR=5\r\n");//Ë°®Á§∫Ê≤°ÊúâËØ•ATÂëΩ‰ª§
1593:.\BLEApplication.c ****             }
1594:.\BLEApplication.c ****         break;
1595:.\BLEApplication.c **** //            ÂπøÊí≠ÁöÑÊâìÂºÄ‰∏éÂÖ≥Èó≠-----‰ªéÊú∫ÊúâÊïà
1596:.\BLEApplication.c ****         case ADVS:            
1597:.\BLEApplication.c ****             idx=SerialData[8];            
1598:.\BLEApplication.c ****             if(Role==Peripheral)
1599:.\BLEApplication.c ****             {
1600:.\BLEApplication.c ****                 if(CYBLE_STATE_CONNECTED!=CyBle_GetState())
1601:.\BLEApplication.c ****                 {
1602:.\BLEApplication.c ****                     if(idx=='1')//ÂºÄÂßãÂπøÊí≠
1603:.\BLEApplication.c ****                     {
1604:.\BLEApplication.c ****                         if(CYBLE_STATE_ADVERTISING!=CyBle_GetState())
1605:.\BLEApplication.c ****                         {
1606:.\BLEApplication.c ****                             API_RESULT=CyBle_GappStartAdvertisement(CYBLE_ADVERTISING_FAST);
1607:.\BLEApplication.c ****                             if(CYBLE_ERROR_OK==API_RESULT)
1608:.\BLEApplication.c ****                             {
1609:.\BLEApplication.c ****     //                           printf("+ADV=<ENABLE>\r\n");
1610:.\BLEApplication.c ****                                 printf("AT+OK\r\n");
1611:.\BLEApplication.c ****                             }
1612:.\BLEApplication.c ****                             else
1613:.\BLEApplication.c ****                             {
1614:.\BLEApplication.c ****                                 printf("AT+ERR=2\r\n");//Ë°®Á§∫ÂëΩ‰ª§ËÆæÁΩÆÂ§±Ë¥•
1615:.\BLEApplication.c ****                             }
1616:.\BLEApplication.c ****                         }
1617:.\BLEApplication.c ****                         else
1618:.\BLEApplication.c ****                         {
1619:.\BLEApplication.c ****     //                        printf("+ADV=<ENABLE>\r\n");
1620:.\BLEApplication.c ****                             printf("AT+ERR=3\r\n");//Ë°®Á§∫ÂΩìÂâçÁä∂ÊÄÅ‰∏çÊîØÊåÅËØ•ÂëΩ‰ª§
1621:.\BLEApplication.c ****                         }
1622:.\BLEApplication.c ****                     }
1623:.\BLEApplication.c ****                     else if(idx=='0')//ÂÖ≥Èó≠ÂπøÊí≠
1624:.\BLEApplication.c ****                     {
1625:.\BLEApplication.c ****                         if(CYBLE_STATE_ADVERTISING==CyBle_GetState())
1626:.\BLEApplication.c ****                         {
1627:.\BLEApplication.c ****                             CyBle_GappStopAdvertisement();
1628:.\BLEApplication.c ****                             printf("AT+OK\r\n");
1629:.\BLEApplication.c ****     //                        printf("+ADV=<DISABLE>\r\n");                        
1630:.\BLEApplication.c ****                         }
1631:.\BLEApplication.c ****                         else
1632:.\BLEApplication.c ****                         {
1633:.\BLEApplication.c ****     //                        printf("+ADV=<DISABLE>\r\n");  
1634:.\BLEApplication.c ****                             printf("AT+ERR=3\r\n");//Ë°®Á§∫ÂΩìÂâçÁä∂ÊÄÅ‰∏çÊîØÊåÅËØ•ÂëΩ‰ª§
1635:.\BLEApplication.c ****                         }
1636:.\BLEApplication.c ****                     }
1637:.\BLEApplication.c ****                     else
1638:.\BLEApplication.c ****                     {
1639:.\BLEApplication.c ****                         printf("AT+ERR=5\r\n");//Ë°®Á§∫Ê≤°ÊúâËØ•ATÂëΩ‰ª§
1640:.\BLEApplication.c ****                     }
ARM GAS  C:\Users\Helon\AppData\Local\Temp\ccKCxrf8.s 			page 42


1641:.\BLEApplication.c ****                 }
1642:.\BLEApplication.c ****                 else
1643:.\BLEApplication.c ****                 {
1644:.\BLEApplication.c ****     //                printf("+ADV=<INVALID>\r\n"); 
1645:.\BLEApplication.c ****                     printf("AT+ERR=3\r\n");//Ë°®Á§∫ÂΩìÂâçÁä∂ÊÄÅ‰∏çÊîØÊåÅËØ•ÂëΩ‰ª§
1646:.\BLEApplication.c ****                 }
1647:.\BLEApplication.c ****             }
1648:.\BLEApplication.c ****             else
1649:.\BLEApplication.c ****             {
1650:.\BLEApplication.c **** //                printf("+CONNT=<INVALID>\r\n");
1651:.\BLEApplication.c ****                 printf("AT+ERR=4\r\n");//Ë°®Á§∫ÂΩìÂâçËßíËâ≤‰∏çÊîØÊåÅËØ•ÂëΩ‰ª§
1652:.\BLEApplication.c ****             }
1653:.\BLEApplication.c ****         break;
1654:.\BLEApplication.c **** //            ËÆæÁΩÆËÆæÂ§áIOÁöÑËÉΩÂäõ-----‰∏ª‰ªéÊúâÊïà
1655:.\BLEApplication.c ****         case IOCAP:
1656:.\BLEApplication.c ****             idx=SerialData[9];
1657:.\BLEApplication.c ****             if(CYBLE_STATE_CONNECTED!=CyBle_GetState())
1658:.\BLEApplication.c ****             {                
1659:.\BLEApplication.c ****                 switch(idx)
1660:.\BLEApplication.c ****                 {
1661:.\BLEApplication.c ****                     case '0':
1662:.\BLEApplication.c ****                     API_RESULT=CyBle_GapSetIoCap(CYBLE_GAP_IOCAP_DISPLAY_ONLY);
1663:.\BLEApplication.c ****                     if(API_RESULT==CYBLE_ERROR_OK)
1664:.\BLEApplication.c ****                     {
1665:.\BLEApplication.c **** //                        printf("+IOCAP=<DISPLAY_ONLY>\r\n");
1666:.\BLEApplication.c ****                         printf("AT+OK\r\n");
1667:.\BLEApplication.c ****                         iocapability=CYBLE_GAP_IOCAP_DISPLAY_ONLY;
1668:.\BLEApplication.c ****                     }
1669:.\BLEApplication.c ****                     else
1670:.\BLEApplication.c ****                     {
1671:.\BLEApplication.c ****                         printf("AT+ERR=2\r\n");//Ë°®Á§∫ÂëΩ‰ª§ËÆæÁΩÆÂ§±Ë¥•
1672:.\BLEApplication.c ****                     }
1673:.\BLEApplication.c ****                     break;
1674:.\BLEApplication.c ****                     case '1':
1675:.\BLEApplication.c ****                     API_RESULT=CyBle_GapSetIoCap(CYBLE_GAP_IOCAP_DISPLAY_YESNO);
1676:.\BLEApplication.c ****                     if(API_RESULT==CYBLE_ERROR_OK)
1677:.\BLEApplication.c ****                     {
1678:.\BLEApplication.c **** //                        printf("+IOCAP=<DISPLAY_YESNO>\r\n");
1679:.\BLEApplication.c ****                         printf("AT+OK\r\n");
1680:.\BLEApplication.c ****                         iocapability=CYBLE_GAP_IOCAP_DISPLAY_YESNO;
1681:.\BLEApplication.c ****                     }
1682:.\BLEApplication.c ****                     else
1683:.\BLEApplication.c ****                     {
1684:.\BLEApplication.c ****                         printf("AT+ERR=2\r\n");//Ë°®Á§∫ÂëΩ‰ª§ËÆæÁΩÆÂ§±Ë¥•
1685:.\BLEApplication.c ****                     }
1686:.\BLEApplication.c ****                     break;
1687:.\BLEApplication.c ****                     case '2':
1688:.\BLEApplication.c ****                     API_RESULT=CyBle_GapSetIoCap(CYBLE_GAP_IOCAP_KEYBOARD_ONLY);
1689:.\BLEApplication.c ****                     if(API_RESULT==CYBLE_ERROR_OK)
1690:.\BLEApplication.c ****                     {
1691:.\BLEApplication.c **** //                        printf("+IOCAP=<KEYBOARD_ONLY>\r\n");
1692:.\BLEApplication.c ****                         printf("AT+OK\r\n");
1693:.\BLEApplication.c ****                         iocapability=CYBLE_GAP_IOCAP_KEYBOARD_ONLY;
1694:.\BLEApplication.c ****                     }
1695:.\BLEApplication.c ****                     else
1696:.\BLEApplication.c ****                     {
1697:.\BLEApplication.c ****                         printf("AT+ERR=2\r\n");//Ë°®Á§∫ÂëΩ‰ª§ËÆæÁΩÆÂ§±Ë¥•
ARM GAS  C:\Users\Helon\AppData\Local\Temp\ccKCxrf8.s 			page 43


1698:.\BLEApplication.c ****                     }
1699:.\BLEApplication.c ****                     break;
1700:.\BLEApplication.c ****                     case '3':
1701:.\BLEApplication.c ****                     API_RESULT=CyBle_GapSetIoCap(CYBLE_GAP_IOCAP_NOINPUT_NOOUTPUT);
1702:.\BLEApplication.c ****                     if(API_RESULT==CYBLE_ERROR_OK)
1703:.\BLEApplication.c ****                     {
1704:.\BLEApplication.c **** //                        printf("+IOCAP=<NOINPUT_NOOUTPUT>\r\n");
1705:.\BLEApplication.c ****                         printf("AT+OK\r\n");
1706:.\BLEApplication.c ****                         iocapability=CYBLE_GAP_IOCAP_NOINPUT_NOOUTPUT;
1707:.\BLEApplication.c ****                     }
1708:.\BLEApplication.c ****                     else
1709:.\BLEApplication.c ****                     {
1710:.\BLEApplication.c ****                         printf("AT+ERR=2\r\n");//Ë°®Á§∫ÂëΩ‰ª§ËÆæÁΩÆÂ§±Ë¥•
1711:.\BLEApplication.c ****                     }
1712:.\BLEApplication.c ****                     break;
1713:.\BLEApplication.c ****                     case '4':
1714:.\BLEApplication.c ****                     API_RESULT=CyBle_GapSetIoCap(CYBLE_GAP_IOCAP_KEYBOARD_DISPLAY);
1715:.\BLEApplication.c ****                     if(API_RESULT==CYBLE_ERROR_OK)
1716:.\BLEApplication.c ****                     {
1717:.\BLEApplication.c **** //                        printf("+IOCAP=<KEYBOARD_DISPLAY>\r\n");
1718:.\BLEApplication.c ****                         printf("AT+OK\r\n");
1719:.\BLEApplication.c ****                         iocapability=CYBLE_GAP_IOCAP_KEYBOARD_DISPLAY;
1720:.\BLEApplication.c ****                     }
1721:.\BLEApplication.c ****                     else
1722:.\BLEApplication.c ****                     {
1723:.\BLEApplication.c ****                         printf("AT+ERR=2\r\n");//Ë°®Á§∫ÂëΩ‰ª§ËÆæÁΩÆÂ§±Ë¥•
1724:.\BLEApplication.c ****                     }
1725:.\BLEApplication.c ****                     break;
1726:.\BLEApplication.c ****                     case '?':
1727:.\BLEApplication.c ****                         switch(iocapability)
1728:.\BLEApplication.c ****                         {
1729:.\BLEApplication.c ****                             case 0:
1730:.\BLEApplication.c ****                                     printf("+IOCAP=0\r\n");
1731:.\BLEApplication.c **** //                                printf("+IOCAP=<DISPLAY_ONLY>\r\n");
1732:.\BLEApplication.c ****                             break;
1733:.\BLEApplication.c ****                             case 1:
1734:.\BLEApplication.c ****                                     printf("+IOCAP=1\r\n");
1735:.\BLEApplication.c **** //                                printf("+IOCAP=<DISPLAY_YESNO>\r\n");
1736:.\BLEApplication.c ****                             break;
1737:.\BLEApplication.c ****                             case 2:
1738:.\BLEApplication.c ****                                     printf("+IOCAP=2\r\n");
1739:.\BLEApplication.c **** //                                printf("+IOCAP=<KEYBOARD_ONLY>\r\n");
1740:.\BLEApplication.c ****                             break;
1741:.\BLEApplication.c ****                             case 3:
1742:.\BLEApplication.c ****                                     printf("+IOCAP=3\r\n");
1743:.\BLEApplication.c **** //                                printf("+IOCAP=<NOINPUT_NOOUTPUT>\r\n");
1744:.\BLEApplication.c ****                             break;
1745:.\BLEApplication.c ****                             case 4:
1746:.\BLEApplication.c ****                                     printf("+IOCAP=4\r\n");
1747:.\BLEApplication.c **** //                                printf("+IOCAP=<KEYBOARD_DISPLAY>\r\n");
1748:.\BLEApplication.c ****                             break;
1749:.\BLEApplication.c ****                         }
1750:.\BLEApplication.c ****                     break;
1751:.\BLEApplication.c ****                     default:
1752:.\BLEApplication.c ****                         printf("AT+ERR=5\r\n");//Ë°®Á§∫Ê≤°ÊúâËØ•ATÂëΩ‰ª§
1753:.\BLEApplication.c ****                     break;
1754:.\BLEApplication.c ****                 }   
ARM GAS  C:\Users\Helon\AppData\Local\Temp\ccKCxrf8.s 			page 44


1755:.\BLEApplication.c ****             }            
1756:.\BLEApplication.c ****             else
1757:.\BLEApplication.c ****             {
1758:.\BLEApplication.c **** //                printf("+IOCAP=<INVALID>\r\n");
1759:.\BLEApplication.c ****                 printf("AT+ERR=3\r\n");//Ë°®Á§∫ÂΩìÂâçÁä∂ÊÄÅ‰∏çÊîØÊåÅËØ•ÂëΩ‰ª§
1760:.\BLEApplication.c ****             }
1761:.\BLEApplication.c ****         break;
1762:.\BLEApplication.c **** //            ÂèëËµ∑ÈÖçÂØπËØ∑Ê±Ç-----‰∏ª‰ªéÊúâÊïà            
1763:.\BLEApplication.c ****         case AUTH:
1764:.\BLEApplication.c ****             idx=SerialData[8];
1765:.\BLEApplication.c ****             if(idx=='?')
1766:.\BLEApplication.c ****             {
1767:.\BLEApplication.c ****                 if(AUTHFLAG)
1768:.\BLEApplication.c ****                         printf("+AUTH=1\r\n");
1769:.\BLEApplication.c **** //                    printf("+AUTH=<ENABLE>\r\n");
1770:.\BLEApplication.c ****                 else
1771:.\BLEApplication.c ****                         printf("+AUTH=0\r\n");
1772:.\BLEApplication.c **** //                    printf("+AUTH=<DISABLE>\r\n");
1773:.\BLEApplication.c ****             }
1774:.\BLEApplication.c ****             else if(idx=='1')
1775:.\BLEApplication.c ****             {
1776:.\BLEApplication.c ****                 if(!AUTHFLAG)
1777:.\BLEApplication.c ****                 {
1778:.\BLEApplication.c **** //                  ÂèëÈÄÅËÆ§ËØÅËØ∑Ê±Ç  
1779:.\BLEApplication.c ****                     API_RESULT=CyBle_GapAuthReq(cyBle_connHandle.bdHandle,&cyBle_authInfo); 
1780:.\BLEApplication.c ****                     if(API_RESULT==CYBLE_ERROR_OK)
1781:.\BLEApplication.c ****                     {
1782:.\BLEApplication.c ****                         printf("AT+OK\r\n");
1783:.\BLEApplication.c ****                     }
1784:.\BLEApplication.c ****                     else
1785:.\BLEApplication.c ****                     {
1786:.\BLEApplication.c ****                         printf("AT+ERR=2\r\n");//Ë°®Á§∫ÂëΩ‰ª§ËÆæÁΩÆÂ§±Ë¥•
1787:.\BLEApplication.c ****                     }
1788:.\BLEApplication.c ****                 }                                  
1789:.\BLEApplication.c ****                 else
1790:.\BLEApplication.c ****                 {
1791:.\BLEApplication.c ****                     printf("AT+ERR=3\r\n");//Ë°®Á§∫ÂΩìÂâçÁä∂ÊÄÅ‰∏çÊîØÊåÅËØ•ÂëΩ‰ª§
1792:.\BLEApplication.c ****                 }
1793:.\BLEApplication.c ****                     
1794:.\BLEApplication.c **** //                    printf("+AUTH=<INVALID>\r\n");
1795:.\BLEApplication.c ****             }
1796:.\BLEApplication.c ****             else
1797:.\BLEApplication.c ****             {
1798:.\BLEApplication.c ****                 printf("AT+ERR=5\r\n");//Ë°®Á§∫Ê≤°ÊúâËØ•ATÂëΩ‰ª§
1799:.\BLEApplication.c ****             }
1800:.\BLEApplication.c ****         break;
1801:.\BLEApplication.c **** //            ËÆæÁΩÆ‰ΩéÂäüËÄóËÉΩÂäõ-----‰∏ª‰ªéÊúâÊïà            
1802:.\BLEApplication.c ****         case SLEEP:
1803:.\BLEApplication.c ****             idx=SerialData[9];
1804:.\BLEApplication.c ****             switch(idx)
1805:.\BLEApplication.c ****             {
1806:.\BLEApplication.c ****                 case '0':
1807:.\BLEApplication.c **** //                    LowPower_EN=FALSE;
1808:.\BLEApplication.c ****                     SleepMode=FALSE;
1809:.\BLEApplication.c ****                     printf("AT+OK\r\n");
1810:.\BLEApplication.c ****                 break;
1811:.\BLEApplication.c ****                 case '1':
ARM GAS  C:\Users\Helon\AppData\Local\Temp\ccKCxrf8.s 			page 45


1812:.\BLEApplication.c **** //                    LowPower_EN=TURE;
1813:.\BLEApplication.c ****                     SleepMode=TURE;
1814:.\BLEApplication.c ****                     printf("AT+OK\r\n");
1815:.\BLEApplication.c ****                 break;
1816:.\BLEApplication.c ****                 case '?':
1817:.\BLEApplication.c ****                     if(SleepMode)
1818:.\BLEApplication.c ****                             printf("+SLEEPMODE=1\r\n");
1819:.\BLEApplication.c **** //                        printf("+SLEEPMODE=<ENABLE>\r\n");
1820:.\BLEApplication.c ****                     else
1821:.\BLEApplication.c ****                             printf("+SLEEPMODE=0\r\n");
1822:.\BLEApplication.c **** //                        printf("+SLEEPMODE=<DISABLE>\r\n");
1823:.\BLEApplication.c ****                 break;
1824:.\BLEApplication.c ****                 default:
1825:.\BLEApplication.c ****                     printf("AT+ERR=5\r\n");//Ë°®Á§∫Ê≤°ÊúâËØ•ATÂëΩ‰ª§
1826:.\BLEApplication.c ****                 break;
1827:.\BLEApplication.c ****             }
1828:.\BLEApplication.c ****         break;
1829:.\BLEApplication.c ****         case BOND:
1830:.\BLEApplication.c ****             idx=SerialData[8];
1831:.\BLEApplication.c ****             if(Role==Peripheral)
1832:.\BLEApplication.c ****             {
1833:.\BLEApplication.c ****                 CyBle_GapGetBondedDevicesList(&bondedDevList);//Èò≤Ê≠¢Âç≥‰ΩøÊéâÁîµÂêéÔºåÂÜçÊ¨°ÂèëËµ
1834:.\BLEApplication.c ****                 if(bondedDevList.count)
1835:.\BLEApplication.c ****                     Bond=TURE;
1836:.\BLEApplication.c ****                 else
1837:.\BLEApplication.c ****                     Bond=FALSE;
1838:.\BLEApplication.c ****                 switch(idx)
1839:.\BLEApplication.c ****                 {
1840:.\BLEApplication.c ****                     case '0':
1841:.\BLEApplication.c ****                         if(CYBLE_STATE_CONNECTED!=CyBle_GetState())//ÈùûËøûÊé•Áä∂ÊÄÅÊó∂ÔºåËß£Èô§Áªë
1842:.\BLEApplication.c ****                         {                                                        
1843:.\BLEApplication.c ****                             if(Bond)
1844:.\BLEApplication.c ****                             {
1845:.\BLEApplication.c ****                                 CyBle_GapRemoveDeviceFromWhiteList(&clearAllDevices);//Ê∏ÖÈô§ÁªëÂÆö
1846:.\BLEApplication.c ****                                 while(CYBLE_ERROR_OK != CyBle_StoreBondingData(1));
1847:.\BLEApplication.c ****                                 printf("+BOND=0\r\n");//Ê∏ÖÈô§ÁªëÂÆöÊàêÂäü
1848:.\BLEApplication.c ****                                 Bond=FALSE;
1849:.\BLEApplication.c ****                             }                                             
1850:.\BLEApplication.c ****                             else
1851:.\BLEApplication.c ****                             {
1852:.\BLEApplication.c ****                                 printf("+BOND=2\r\n");//Ê∏ÖÈô§ÁªëÂÆöÂ§±Ë¥• 
1853:.\BLEApplication.c ****                             }
1854:.\BLEApplication.c ****                         }
1855:.\BLEApplication.c ****                         else
1856:.\BLEApplication.c ****                         {
1857:.\BLEApplication.c ****                             printf("AT+ERR=3\r\n");//ÂΩìÂâçÁöÑ BLE Áä∂ÊÄÅ‰∏ã‰∏çÊîØÊåÅËØ•ÂëΩ‰ª§
1858:.\BLEApplication.c ****                         }
1859:.\BLEApplication.c ****                     break;
1860:.\BLEApplication.c ****                     case '?':
1861:.\BLEApplication.c ****                         if(Bond)
1862:.\BLEApplication.c ****                            printf("+BOND=1\r\n");//ÁªëÂÆöÊàêÂäü 
1863:.\BLEApplication.c ****                         else
1864:.\BLEApplication.c ****                             printf("+BOND=0\r\n");//Ê∏ÖÈô§ÁªëÂÆöÊàêÂäü
1865:.\BLEApplication.c ****                     break;                        
1866:.\BLEApplication.c ****                     default:
1867:.\BLEApplication.c ****                         printf("AT+ERR=5\r\n");//Ë°®Á§∫Ê≤°ÊúâËØ•ATÂëΩ‰ª§
1868:.\BLEApplication.c ****                     break;                        
ARM GAS  C:\Users\Helon\AppData\Local\Temp\ccKCxrf8.s 			page 46


1869:.\BLEApplication.c ****                 }                                                  
1870:.\BLEApplication.c ****             }
1871:.\BLEApplication.c ****             else
1872:.\BLEApplication.c ****             {
1873:.\BLEApplication.c ****                 if(CYBLE_STATE_CONNECTED!=CyBle_GetState())
1874:.\BLEApplication.c ****                 {
1875:.\BLEApplication.c ****                     
1876:.\BLEApplication.c ****                 }
1877:.\BLEApplication.c ****             }
1878:.\BLEApplication.c ****         break;
1879:.\BLEApplication.c ****         default:
1880:.\BLEApplication.c ****             printf("AT+ERR=5\r\n");//Ë°®Á§∫Ê≤°ÊúâËØ•ATÂëΩ‰ª§
1881:.\BLEApplication.c ****         break;
1882:.\BLEApplication.c ****     }
1883:.\BLEApplication.c ****         
1884:.\BLEApplication.c **** }
1885:.\BLEApplication.c **** 
1886:.\BLEApplication.c **** /******************************************************************************
1887:.\BLEApplication.c **** * Function Name: Command_Identify
1888:.\BLEApplication.c **** ***************************************************************************//**
1889:.\BLEApplication.c **** * 
1890:.\BLEApplication.c **** *  ËØÜÂà´ATÂëΩ‰ª§
1891:.\BLEApplication.c **** * \param  SerialData:ÊåáÂêëcharÂûãÁöÑÊåáÈíà
1892:.\BLEApplication.c **** * \return ËøîÂõûATÂëΩ‰ª§Âú®ATÂëΩ‰ª§ÂàóË°®‰∏≠ÁöÑÁ¥¢ÂºïÂÄº
1893:.\BLEApplication.c **** *  
1894:.\BLEApplication.c **** * 
1895:.\BLEApplication.c **** ******************************************************************************/
1896:.\BLEApplication.c **** uint8_t Command_Identify(const char* SerialData)
1897:.\BLEApplication.c **** {
1898:.\BLEApplication.c ****     if(NULL==SerialData)
1899:.\BLEApplication.c ****         return FALSE;
1900:.\BLEApplication.c ****     uint8_t SerialArryLength=0,i=0,location;    
1901:.\BLEApplication.c **** //    char String[20]={0};
1902:.\BLEApplication.c ****     if(0==strcmp(SerialData,"AT\r\n"))
1903:.\BLEApplication.c ****     {
1904:.\BLEApplication.c **** //        printf("OK\r\n");
1905:.\BLEApplication.c ****         return _AT;
1906:.\BLEApplication.c ****     }
1907:.\BLEApplication.c ****     //Ëé∑ÂèñATÂëΩ‰ª§Á≠âÂè∑ÁöÑ‰ΩçÁΩÆÔºåÂ¶Ç‚ÄúAT+RESET=1‚Äù‰∏≠‚Äú=‚ÄùÂè∑ÁöÑ‰ΩçÁΩÆÊòØ8.
1908:.\BLEApplication.c ****     location=strchr((char*)SerialData,'=')-SerialData;
1909:.\BLEApplication.c ****     if(location>11)
1910:.\BLEApplication.c ****     {
1911:.\BLEApplication.c ****         return 0xff;
1912:.\BLEApplication.c ****     }
1913:.\BLEApplication.c **** //    Âä®ÊÄÅÂàÜÈÖçÂ†ÜÁ©∫Èó¥
1914:.\BLEApplication.c ****     char* String=malloc(sizeof(char)*location);
1915:.\BLEApplication.c ****     //‰øùÂ≠òATÂëΩ‰ª§Á≠âÂè∑ÂâçÁöÑÊï∞ÊçÆ.
1916:.\BLEApplication.c ****     strncpy(String,SerialData,location);
1917:.\BLEApplication.c ****     SerialArryLength=sizeof(StringArry)/sizeof(StringArry[0]);   
1918:.\BLEApplication.c **** //    ÂåπÈÖçATÂëΩ‰ª§ÂàóË°®‰∏≠ATÂëΩ‰ª§ÁöÑ‰ΩçÁΩÆ
1919:.\BLEApplication.c ****     for(i=0;i<SerialArryLength;i++)
1920:.\BLEApplication.c ****     {
1921:.\BLEApplication.c ****         if(strncmp((char*)String,StringArry[i],location)==0)
1922:.\BLEApplication.c ****         {
1923:.\BLEApplication.c ****             break;
1924:.\BLEApplication.c ****         }
1925:.\BLEApplication.c **** //        printf("%s\r\n",StringArry[i]);
ARM GAS  C:\Users\Helon\AppData\Local\Temp\ccKCxrf8.s 			page 47


1926:.\BLEApplication.c **** //        printf("%d\r\n",strcmp((char*)String,StringArry[i]));
1927:.\BLEApplication.c ****     }
1928:.\BLEApplication.c **** //    ÈáäÊîæ‰πãÂâçÂàÜÈÖçÁöÑÂ†ÜÁ©∫Èó¥
1929:.\BLEApplication.c ****     free(String);
1930:.\BLEApplication.c ****     return i;
1931:.\BLEApplication.c **** }
1932:.\BLEApplication.c **** 
1933:.\BLEApplication.c **** /*******************************************************************************
1934:.\BLEApplication.c **** * Function Name: MyTimerIsr()
1935:.\BLEApplication.c **** ********************************************************************************
1936:.\BLEApplication.c **** * Summary:
1937:.\BLEApplication.c **** * Interrupt service routine for the timer block.
1938:.\BLEApplication.c **** *
1939:.\BLEApplication.c **** * Parameters:
1940:.\BLEApplication.c **** * None
1941:.\BLEApplication.c **** *
1942:.\BLEApplication.c **** * Return:
1943:.\BLEApplication.c **** * None
1944:.\BLEApplication.c **** *
1945:.\BLEApplication.c **** * Theory:
1946:.\BLEApplication.c **** * The ISR is fired when the timer reaches terminal count. In the ISR, the total
1947:.\BLEApplication.c **** * number of bytes received until now is cached locally (to avoid any potential 
1948:.\BLEApplication.c **** * race conditions) and then the throughput is calculated from it.
1949:.\BLEApplication.c **** * Since the ISR fires 10 seconds after the timer is started, the total number
1950:.\BLEApplication.c **** * of bytes is divided by 10. The bytes are converted to kilobytes by dividing 
1951:.\BLEApplication.c **** * by 1024. It is then converted to kilo bits by multiplying the result by 8.
1952:.\BLEApplication.c **** *
1953:.\BLEApplication.c **** * Side Effects:
1954:.\BLEApplication.c **** * None
1955:.\BLEApplication.c **** *
1956:.\BLEApplication.c **** *******************************************************************************/
1957:.\BLEApplication.c **** CY_ISR(MyTimerIsr)
1958:.\BLEApplication.c **** {
 605              		.loc 1 1958 0
 606              		.cfi_startproc
 607 0000 38B5     		push	{r3, r4, r5, lr}
 608              		.cfi_def_cfa_offset 16
 609              		.cfi_offset 3, -16
 610              		.cfi_offset 4, -12
 611              		.cfi_offset 5, -8
 612              		.cfi_offset 14, -4
1959:.\BLEApplication.c **** //    uint32 cachedTotalByteCounter = totalByteCounter;
1960:.\BLEApplication.c **** //    uint32 throughput;
1961:.\BLEApplication.c ****     static uint32 timercount=0;
1962:.\BLEApplication.c ****     Timer_ClearInterrupt(Timer_INTR_MASK_TC);
 613              		.loc 1 1962 0
 614 0002 0120     		mov	r0, #1
 615 0004 FFF7FEFF 		bl	Timer_ClearInterrupt
 616              	.LVL93:
1963:.\BLEApplication.c ****     _10sIsOver=TURE;
 617              		.loc 1 1963 0
 618 0008 0123     		mov	r3, #1
 619 000a 084C     		ldr	r4, .L57
1964:.\BLEApplication.c ****     timercount++;
1965:.\BLEApplication.c ****     if(timercount==10001)
 620              		.loc 1 1965 0
 621 000c 084A     		ldr	r2, .L57+4
ARM GAS  C:\Users\Helon\AppData\Local\Temp\ccKCxrf8.s 			page 48


1963:.\BLEApplication.c ****     _10sIsOver=TURE;
 622              		.loc 1 1963 0
 623 000e 6375     		strb	r3, [r4, #21]
1964:.\BLEApplication.c ****     timercount++;
 624              		.loc 1 1964 0
 625 0010 A369     		ldr	r3, [r4, #24]
 626 0012 0133     		add	r3, r3, #1
 627 0014 A361     		str	r3, [r4, #24]
 628              		.loc 1 1965 0
 629 0016 9342     		cmp	r3, r2
 630 0018 07D1     		bne	.L55
 631              	.LBB26:
 632              	.LBB27:
1966:.\BLEApplication.c ****     {
1967:.\BLEApplication.c ****         _10sIsOver=FALSE;
 633              		.loc 1 1967 0
 634 001a 0025     		mov	r5, #0
 635 001c 6575     		strb	r5, [r4, #21]
1968:.\BLEApplication.c ****         Timer_Stop();
 636              		.loc 1 1968 0
 637 001e FFF7FEFF 		bl	Timer_Stop
 638              	.LVL94:
1969:.\BLEApplication.c ****         timercount=0;
1970:.\BLEApplication.c ****         printf("Send Compelete!\r\n");
 639              		.loc 1 1970 0
 640 0022 0448     		ldr	r0, .L57+8
1969:.\BLEApplication.c ****         timercount=0;
 641              		.loc 1 1969 0
 642 0024 A561     		str	r5, [r4, #24]
 643              		.loc 1 1970 0
 644 0026 FFF7FEFF 		bl	puts
 645              	.LVL95:
 646              	.L55:
 647              	.LBE27:
 648              	.LBE26:
1971:.\BLEApplication.c ****         
1972:.\BLEApplication.c ****     }
1973:.\BLEApplication.c **** //    charNotificationEnabled=FALSE;
1974:.\BLEApplication.c **** //    TroughtTest_Flag=FALSE;
1975:.\BLEApplication.c **** //    TroughtTest_Flag=FALSE;
1976:.\BLEApplication.c ****     /* Total bytes received in 10 seconds converted to Kilo bits per second */
1977:.\BLEApplication.c **** //    printf("totalByteCounter is %ld",totalByteCounter);
1978:.\BLEApplication.c **** //    while((UART_SpiUartGetTxBufferSize() + UART_GET_TX_FIFO_SR_VALID) != 0);//Á≠âÂæÖ‰∏≤Âè£ÁºìÂÜ≤Â
1979:.\BLEApplication.c **** //    throughput = (cachedTotalByteCounter >> 7) / 10;
1980:.\BLEApplication.c **** //    printf("\r\n+SPEED=<%ldkbps>\r\n",throughput);      
1981:.\BLEApplication.c **** //    CyBle_GattcWriteCharacteristicDescriptors(cyBle_connHandle, &writeRequestData);
1982:.\BLEApplication.c **** }
 649              		.loc 1 1982 0
 650              		@ sp needed
 651 002a 38BD     		pop	{r3, r4, r5, pc}
 652              	.L58:
 653              		.align	2
 654              	.L57:
 655 002c 00000000 		.word	.LANCHOR0
 656 0030 11270000 		.word	10001
 657 0034 08010000 		.word	.LC43
 658              		.cfi_endproc
ARM GAS  C:\Users\Helon\AppData\Local\Temp\ccKCxrf8.s 			page 49


 659              	.LFE45:
 660              		.size	MyTimerIsr, .-MyTimerIsr
 661              		.section	.text.LowPowerManagement,"ax",%progbits
 662              		.align	1
 663              		.global	LowPowerManagement
 664              		.code	16
 665              		.thumb_func
 666              		.type	LowPowerManagement, %function
 667              	LowPowerManagement:
 668              	.LFB36:
 498:.\BLEApplication.c ****     /* Local variable to store the status of BLESS Hardware block */
 669              		.loc 1 498 0
 670              		.cfi_startproc
 671 0000 38B5     		push	{r3, r4, r5, lr}
 672              		.cfi_def_cfa_offset 16
 673              		.cfi_offset 3, -16
 674              		.cfi_offset 4, -12
 675              		.cfi_offset 5, -8
 676              		.cfi_offset 14, -4
 504:.\BLEApplication.c **** 		
 677              		.loc 1 504 0
 678 0002 0320     		mov	r0, #3
 679 0004 FFF7FEFF 		bl	CyBle_EnterLPM
 680              	.LVL96:
 681 0008 041C     		mov	r4, r0
 682              	.LVL97:
 507:.\BLEApplication.c **** 	
 683              		.loc 1 507 0
 684              	@ 507 ".\BLEApplication.c" 1
 685 000a 72B6     		CPSID   i
 686              	@ 0 "" 2
 510:.\BLEApplication.c **** 
 687              		.loc 1 510 0
 688              		.code	16
 689 000c FFF7FEFF 		bl	CyBle_GetBleSsState
 690              	.LVL98:
 512:.\BLEApplication.c **** 		{
 691              		.loc 1 512 0
 692 0010 032C     		cmp	r4, #3
 693 0012 25D1     		bne	.L60
 516:.\BLEApplication.c **** 		    {
 694              		.loc 1 516 0
 695 0014 FD23     		mov	r3, #253
 696 0016 1840     		and	r0, r3
 697              	.LVL99:
 698 0018 0428     		cmp	r0, #4
 699 001a 27D1     		bne	.L61
 519:.\BLEApplication.c ****                 while((UART_SpiUartGetTxBufferSize() + UART_GET_TX_FIFO_SR_VALID) != 0);//Á≠âÂæÖ‰∏≤
 700              		.loc 1 519 0
 701 001c 0020     		mov	r0, #0
 702 001e FFF7FEFF 		bl	Status_LED_Write
 703              	.LVL100:
 704              	.L62:
 520:.\BLEApplication.c ****                 UART_Sleep();
 705              		.loc 1 520 0 discriminator 5
 706 0022 0125     		mov	r5, #1
 707 0024 FFF7FEFF 		bl	UART_SpiUartGetTxBufferSize
ARM GAS  C:\Users\Helon\AppData\Local\Temp\ccKCxrf8.s 			page 50


 708              	.LVL101:
 709 0028 114B     		ldr	r3, .L66
 710 002a 1C68     		ldr	r4, [r3]
 711 002c E40B     		lsr	r4, r4, #15
 712 002e 2C40     		and	r4, r5
 713 0030 0419     		add	r4, r0, r4
 714 0032 002C     		cmp	r4, #0
 715 0034 F5D1     		bne	.L62
 521:.\BLEApplication.c **** 		        CySysPmDeepSleep();
 716              		.loc 1 521 0
 717 0036 FFF7FEFF 		bl	UART_Sleep
 718              	.LVL102:
 522:.\BLEApplication.c ****                 UART_Wakeup();
 719              		.loc 1 522 0
 720 003a FFF7FEFF 		bl	CySysPmDeepSleep
 721              	.LVL103:
 523:.\BLEApplication.c ****                 CyDelay(5);
 722              		.loc 1 523 0
 723 003e FFF7FEFF 		bl	UART_Wakeup
 724              	.LVL104:
 524:.\BLEApplication.c ****                 UART_SpiUartClearRxBuffer();//Ê∏ÖÈô§‰∏≤Âè£Êé•Êî∂ÁºìÂÜ≤Âå∫
 725              		.loc 1 524 0
 726 0042 0520     		mov	r0, #5
 727 0044 FFF7FEFF 		bl	CyDelay
 728              	.LVL105:
 525:.\BLEApplication.c ****                 UART_RX_WAKEUP_IRQ_ClearPending();
 729              		.loc 1 525 0
 730 0048 FFF7FEFF 		bl	UART_SpiUartClearRxBuffer
 731              	.LVL106:
 526:.\BLEApplication.c **** //                UART_SCB_IRQ_ClearPending();
 732              		.loc 1 526 0
 733 004c FFF7FEFF 		bl	UART_RX_WAKEUP_IRQ_ClearPending
 734              	.LVL107:
 528:.\BLEApplication.c **** //                UART_RX_WAKEUP_IRQ_Disable();
 735              		.loc 1 528 0
 736 0050 FFF7FEFF 		bl	UART_rx_wake_ClearInterrupt
 737              	.LVL108:
 533:.\BLEApplication.c ****                 Status_LED_Write(LED_OFF);  
 738              		.loc 1 533 0
 739 0054 074B     		ldr	r3, .L66+4
 534:.\BLEApplication.c **** 
 740              		.loc 1 534 0
 741 0056 281C     		mov	r0, r5
 533:.\BLEApplication.c ****                 Status_LED_Write(LED_OFF);  
 742              		.loc 1 533 0
 743 0058 5C72     		strb	r4, [r3, #9]
 534:.\BLEApplication.c **** 
 744              		.loc 1 534 0
 745 005a FFF7FEFF 		bl	Status_LED_Write
 746              	.LVL109:
 747 005e 05E0     		b	.L61
 748              	.LVL110:
 749              	.L60:
 538:.\BLEApplication.c **** 		{
 750              		.loc 1 538 0
 751 0060 022C     		cmp	r4, #2
 752 0062 03D1     		bne	.L61
ARM GAS  C:\Users\Helon\AppData\Local\Temp\ccKCxrf8.s 			page 51


 540:.\BLEApplication.c **** 		    {
 753              		.loc 1 540 0
 754 0064 0228     		cmp	r0, #2
 755 0066 01D0     		beq	.L61
 544:.\BLEApplication.c **** 		    }
 756              		.loc 1 544 0
 757 0068 FFF7FEFF 		bl	CySysPmSleep
 758              	.LVL111:
 759              	.L61:
 548:.\BLEApplication.c ****         
 760              		.loc 1 548 0
 761              	@ 548 ".\BLEApplication.c" 1
 762 006c 62B6     		CPSIE   i
 763              	@ 0 "" 2
 550:.\BLEApplication.c **** 
 764              		.loc 1 550 0
 765              		.code	16
 766              		@ sp needed
 767 006e 38BD     		pop	{r3, r4, r5, pc}
 768              	.L67:
 769              		.align	2
 770              	.L66:
 771 0070 08022440 		.word	1076101640
 772 0074 00000000 		.word	.LANCHOR1
 773              		.cfi_endproc
 774              	.LFE36:
 775              		.size	LowPowerManagement, .-LowPowerManagement
 776              		.section	.text.MY_ISR_USERBUTTON,"ax",%progbits
 777              		.align	1
 778              		.global	MY_ISR_USERBUTTON
 779              		.code	16
 780              		.thumb_func
 781              		.type	MY_ISR_USERBUTTON, %function
 782              	MY_ISR_USERBUTTON:
 783              	.LFB37:
 563:.\BLEApplication.c **** //    isr_UserButton_ClearPending();
 784              		.loc 1 563 0
 785              		.cfi_startproc
 575:.\BLEApplication.c **** /******************************************************************************
 786              		.loc 1 575 0
 787              		@ sp needed
 788 0000 7047     		bx	lr
 789              		.cfi_endproc
 790              	.LFE37:
 791              		.size	MY_ISR_USERBUTTON, .-MY_ISR_USERBUTTON
 792              		.section	.text.My_ISR_UART,"ax",%progbits
 793              		.align	1
 794              		.global	My_ISR_UART
 795              		.code	16
 796              		.thumb_func
 797              		.type	My_ISR_UART, %function
 798              	My_ISR_UART:
 799              	.LFB38:
 587:.\BLEApplication.c **** //    uint8_t rxdata;
 800              		.loc 1 587 0
 801              		.cfi_startproc
 589:.\BLEApplication.c ****     {
ARM GAS  C:\Users\Helon\AppData\Local\Temp\ccKCxrf8.s 			page 52


 802              		.loc 1 589 0
 803 0000 054B     		ldr	r3, .L74
 804 0002 1B68     		ldr	r3, [r3]
 805 0004 5B07     		lsl	r3, r3, #29
 806 0006 02D5     		bpl	.L70
 591:.\BLEApplication.c ****         //ËØªÂèñ‰∏≤Âè£Êï∞ÊçÆ
 807              		.loc 1 591 0
 808 0008 0122     		mov	r2, #1
 809 000a 044B     		ldr	r3, .L74+4
 810 000c 1A77     		strb	r2, [r3, #28]
 811              	.L70:
 609:.\BLEApplication.c ****   
 812              		.loc 1 609 0
 813 000e 0422     		mov	r2, #4
 814 0010 034B     		ldr	r3, .L74+8
 611:.\BLEApplication.c **** 
 815              		.loc 1 611 0
 816              		@ sp needed
 609:.\BLEApplication.c ****   
 817              		.loc 1 609 0
 818 0012 1A60     		str	r2, [r3]
 611:.\BLEApplication.c **** 
 819              		.loc 1 611 0
 820 0014 7047     		bx	lr
 821              	.L75:
 822 0016 C046     		.align	2
 823              	.L74:
 824 0018 CC0F2440 		.word	1076105164
 825 001c 00000000 		.word	.LANCHOR0
 826 0020 C00F2440 		.word	1076105152
 827              		.cfi_endproc
 828              	.LFE38:
 829              		.size	My_ISR_UART, .-My_ISR_UART
 830              		.section	.text.ConfigUartInit,"ax",%progbits
 831              		.align	1
 832              		.global	ConfigUartInit
 833              		.code	16
 834              		.thumb_func
 835              		.type	ConfigUartInit, %function
 836              	ConfigUartInit:
 837              	.LFB40:
 666:.\BLEApplication.c **** //    configUart.mode=UART_UART_MODE_STD;         /* mode: Standard */ 
 838              		.loc 1 666 0
 839              		.cfi_startproc
 693:.\BLEApplication.c **** /******************************************************************************
 840              		.loc 1 693 0
 841              		@ sp needed
 842 0000 7047     		bx	lr
 843              		.cfi_endproc
 844              	.LFE40:
 845              		.size	ConfigUartInit, .-ConfigUartInit
 846              		.section	.text.SetUartConfiguration,"ax",%progbits
 847              		.align	1
 848              		.global	SetUartConfiguration
 849              		.code	16
 850              		.thumb_func
 851              		.type	SetUartConfiguration, %function
ARM GAS  C:\Users\Helon\AppData\Local\Temp\ccKCxrf8.s 			page 53


 852              	SetUartConfiguration:
 853              	.LFB41:
 705:.\BLEApplication.c **** //    cystatus status = CYRET_SUCCESS; 
 854              		.loc 1 705 0
 855              		.cfi_startproc
 856              	.LVL112:
 715:.\BLEApplication.c **** 
 857              		.loc 1 715 0
 858              		@ sp needed
 859 0000 7047     		bx	lr
 860              		.cfi_endproc
 861              	.LFE41:
 862              		.size	SetUartConfiguration, .-SetUartConfiguration
 863              		.section	.text.LedInit,"ax",%progbits
 864              		.align	1
 865              		.global	LedInit
 866              		.code	16
 867              		.thumb_func
 868              		.type	LedInit, %function
 869              	LedInit:
 870              	.LFB42:
 728:.\BLEApplication.c ****     Status_LED_SetDriveMode(Status_LED_DM_STRONG);
 871              		.loc 1 728 0
 872              		.cfi_startproc
 873 0000 08B5     		push	{r3, lr}
 874              		.cfi_def_cfa_offset 8
 875              		.cfi_offset 3, -8
 876              		.cfi_offset 14, -4
 729:.\BLEApplication.c ****     Connected_LED_SetDriveMode(Connected_LED_DM_STRONG);
 877              		.loc 1 729 0
 878 0002 0620     		mov	r0, #6
 879 0004 FFF7FEFF 		bl	Status_LED_SetDriveMode
 880              	.LVL113:
 730:.\BLEApplication.c ****     Status_LED_Write(LED_OFF);
 881              		.loc 1 730 0
 882 0008 0620     		mov	r0, #6
 883 000a FFF7FEFF 		bl	Connected_LED_SetDriveMode
 884              	.LVL114:
 731:.\BLEApplication.c ****     Connected_LED_Write(LED_OFF);
 885              		.loc 1 731 0
 886 000e 0120     		mov	r0, #1
 887 0010 FFF7FEFF 		bl	Status_LED_Write
 888              	.LVL115:
 732:.\BLEApplication.c **** }
 889              		.loc 1 732 0
 890 0014 0120     		mov	r0, #1
 891 0016 FFF7FEFF 		bl	Connected_LED_Write
 892              	.LVL116:
 733:.\BLEApplication.c **** 
 893              		.loc 1 733 0
 894              		@ sp needed
 895 001a 08BD     		pop	{r3, pc}
 896              		.cfi_endproc
 897              	.LFE42:
 898              		.size	LedInit, .-LedInit
 899              		.section	.text.SystemInitialization,"ax",%progbits
 900              		.align	1
ARM GAS  C:\Users\Helon\AppData\Local\Temp\ccKCxrf8.s 			page 54


 901              		.global	SystemInitialization
 902              		.code	16
 903              		.thumb_func
 904              		.type	SystemInitialization, %function
 905              	SystemInitialization:
 906              	.LFB39:
 624:.\BLEApplication.c **** //    ÊµÅÊéßÂºïËÑöÁöÑÂàùÂßãÂåñ
 907              		.loc 1 624 0
 908              		.cfi_startproc
 909 0000 08B5     		push	{r3, lr}
 910              		.cfi_def_cfa_offset 8
 911              		.cfi_offset 3, -8
 912              		.cfi_offset 14, -4
 626:.\BLEApplication.c ****     CTS_Write(CTS_OFF);//ÊµÅÊéßÊòØÈ´òÁîµÂπ≥ÊúâÊïà
 913              		.loc 1 626 0
 914 0002 0620     		mov	r0, #6
 915 0004 FFF7FEFF 		bl	CTS_SetDriveMode
 916              	.LVL117:
 627:.\BLEApplication.c ****     UART_rx_wake_SetDriveMode(UART_rx_wake_DM_RES_UP);//ËÆæÁΩÆRXËÑö‰∏∫ÂÜÖÈÉ®‰∏äÊãâ
 917              		.loc 1 627 0
 918 0008 0020     		mov	r0, #0
 919 000a FFF7FEFF 		bl	CTS_Write
 920              	.LVL118:
 628:.\BLEApplication.c ****     UART_tx_SetDriveMode(UART_tx_DM_RES_UP);//ËÆæÁΩÆTX‰∏∫ÂÜÖÈÉ®‰∏äÊãâ
 921              		.loc 1 628 0
 922 000e 0220     		mov	r0, #2
 923 0010 FFF7FEFF 		bl	UART_rx_wake_SetDriveMode
 924              	.LVL119:
 629:.\BLEApplication.c **** //    uint16_t counter;
 925              		.loc 1 629 0
 926 0014 0220     		mov	r0, #2
 927 0016 FFF7FEFF 		bl	UART_tx_SetDriveMode
 928              	.LVL120:
 637:.\BLEApplication.c ****     writeRequestData.value=cccdNotifFlagSetStruct;
 929              		.loc 1 637 0
 930 001a 0F23     		mov	r3, #15
 931 001c 094A     		ldr	r2, .L80
 653:.\BLEApplication.c **** 
 932              		.loc 1 653 0
 933              		@ sp needed
 637:.\BLEApplication.c ****     writeRequestData.value=cccdNotifFlagSetStruct;
 934              		.loc 1 637 0
 935 001e 1381     		strh	r3, [r2, #8]
 638:.\BLEApplication.c **** //    ÂàùÂßãÂåñÂπøÊí≠Èó¥ÈöîÂíåÂπøÂëäË∂ÖÊó∂Êó∂Èó¥
 936              		.loc 1 638 0
 937 0020 094B     		ldr	r3, .L80+4
 938 0022 0C33     		add	r3, r3, #12
 939 0024 03CB     		ldmia	r3!, {r0, r1}
 940 0026 03C2     		stmia	r2!, {r0, r1}
 645:.\BLEApplication.c ****     TimerInterrupt_StartEx(MyTimerIsr);
 941              		.loc 1 645 0
 942 0028 FFF7FEFF 		bl	Timer_Init
 943              	.LVL121:
 646:.\BLEApplication.c ****     UART_Start();
 944              		.loc 1 646 0
 945 002c 0748     		ldr	r0, .L80+8
 946 002e FFF7FEFF 		bl	TimerInterrupt_StartEx
ARM GAS  C:\Users\Helon\AppData\Local\Temp\ccKCxrf8.s 			page 55


 947              	.LVL122:
 647:.\BLEApplication.c ****   //    UART_SCB_IRQ_StartEx(My_ISR_UART);   
 948              		.loc 1 647 0
 949 0032 FFF7FEFF 		bl	UART_Start
 950              	.LVL123:
 650:.\BLEApplication.c ****     CyBle_Start(StackEventHandler);
 951              		.loc 1 650 0
 952 0036 FFF7FEFF 		bl	LedInit
 953              	.LVL124:
 651:.\BLEApplication.c ****     
 954              		.loc 1 651 0
 955 003a 0548     		ldr	r0, .L80+12
 956 003c FFF7FEFF 		bl	CyBle_Start
 957              	.LVL125:
 653:.\BLEApplication.c **** 
 958              		.loc 1 653 0
 959 0040 08BD     		pop	{r3, pc}
 960              	.L81:
 961 0042 C046     		.align	2
 962              	.L80:
 963 0044 00000000 		.word	writeRequestData
 964 0048 00000000 		.word	.LANCHOR1
 965 004c 00000000 		.word	MyTimerIsr
 966 0050 00000000 		.word	StackEventHandler
 967              		.cfi_endproc
 968              	.LFE39:
 969              		.size	SystemInitialization, .-SystemInitialization
 970              		.section	.text.Command_Identify,"ax",%progbits
 971              		.align	1
 972              		.global	Command_Identify
 973              		.code	16
 974              		.thumb_func
 975              		.type	Command_Identify, %function
 976              	Command_Identify:
 977              	.LFB44:
1897:.\BLEApplication.c ****     if(NULL==SerialData)
 978              		.loc 1 1897 0
 979              		.cfi_startproc
 980              	.LVL126:
 981 0000 F8B5     		push	{r3, r4, r5, r6, r7, lr}
 982              		.cfi_def_cfa_offset 24
 983              		.cfi_offset 3, -24
 984              		.cfi_offset 4, -20
 985              		.cfi_offset 5, -16
 986              		.cfi_offset 6, -12
 987              		.cfi_offset 7, -8
 988              		.cfi_offset 14, -4
1899:.\BLEApplication.c ****     uint8_t SerialArryLength=0,i=0,location;    
 989              		.loc 1 1899 0
 990 0002 031E     		sub	r3, r0, #0
1898:.\BLEApplication.c ****         return FALSE;
 991              		.loc 1 1898 0
 992 0004 2DD0     		beq	.L83
1902:.\BLEApplication.c ****     {
 993              		.loc 1 1902 0
 994 0006 1849     		ldr	r1, .L93
 995 0008 041C     		mov	r4, r0
ARM GAS  C:\Users\Helon\AppData\Local\Temp\ccKCxrf8.s 			page 56


 996              	.LVL127:
 997 000a FFF7FEFF 		bl	strcmp
 998              	.LVL128:
1905:.\BLEApplication.c ****     }
 999              		.loc 1 1905 0
 1000 000e 1323     		mov	r3, #19
1902:.\BLEApplication.c ****     {
 1001              		.loc 1 1902 0
 1002 0010 0028     		cmp	r0, #0
 1003 0012 26D0     		beq	.L83
 1004              	.LVL129:
 1005              	.LBB30:
 1006              	.LBB31:
1908:.\BLEApplication.c ****     if(location>11)
 1007              		.loc 1 1908 0
 1008 0014 201C     		mov	r0, r4
 1009 0016 3D21     		mov	r1, #61
 1010 0018 FFF7FEFF 		bl	strchr
 1011              	.LVL130:
 1012 001c FF25     		mov	r5, #255
 1013 001e 001B     		sub	r0, r0, r4
 1014              	.LVL131:
1909:.\BLEApplication.c ****     {
 1015              		.loc 1 1909 0
 1016 0020 C2B2     		uxtb	r2, r0
1911:.\BLEApplication.c ****     }
 1017              		.loc 1 1911 0
 1018 0022 2B1C     		mov	r3, r5
1909:.\BLEApplication.c ****     {
 1019              		.loc 1 1909 0
 1020 0024 0B2A     		cmp	r2, #11
 1021 0026 1CD8     		bhi	.L83
 1022 0028 0540     		and	r5, r0
1914:.\BLEApplication.c ****     //‰øùÂ≠òATÂëΩ‰ª§Á≠âÂè∑ÂâçÁöÑÊï∞ÊçÆ.
 1023              		.loc 1 1914 0
 1024 002a 281C     		mov	r0, r5
 1025              	.LVL132:
 1026 002c FFF7FEFF 		bl	malloc
 1027              	.LVL133:
1916:.\BLEApplication.c ****     SerialArryLength=sizeof(StringArry)/sizeof(StringArry[0]);   
 1028              		.loc 1 1916 0
 1029 0030 211C     		mov	r1, r4
 1030 0032 2A1C     		mov	r2, r5
1914:.\BLEApplication.c ****     //‰øùÂ≠òATÂëΩ‰ª§Á≠âÂè∑ÂâçÁöÑÊï∞ÊçÆ.
 1031              		.loc 1 1914 0
 1032 0034 061C     		mov	r6, r0
 1033              	.LVL134:
1916:.\BLEApplication.c ****     SerialArryLength=sizeof(StringArry)/sizeof(StringArry[0]);   
 1034              		.loc 1 1916 0
 1035 0036 0027     		mov	r7, #0
 1036 0038 FFF7FEFF 		bl	strncpy
 1037              	.LVL135:
 1038              	.L85:
1921:.\BLEApplication.c ****         {
 1039              		.loc 1 1921 0
 1040 003c 0B4B     		ldr	r3, .L93+4
 1041 003e BA00     		lsl	r2, r7, #2
ARM GAS  C:\Users\Helon\AppData\Local\Temp\ccKCxrf8.s 			page 57


 1042 0040 1433     		add	r3, r3, #20
 1043 0042 D158     		ldr	r1, [r2, r3]
 1044 0044 301C     		mov	r0, r6
 1045 0046 2A1C     		mov	r2, r5
 1046 0048 FCB2     		uxtb	r4, r7
 1047              	.LVL136:
 1048 004a FFF7FEFF 		bl	strncmp
 1049              	.LVL137:
 1050 004e 0028     		cmp	r0, #0
 1051 0050 03D0     		beq	.L84
 1052              	.LVL138:
 1053 0052 0137     		add	r7, r7, #1
 1054              	.LVL139:
1919:.\BLEApplication.c ****     {
 1055              		.loc 1 1919 0
 1056 0054 1C2F     		cmp	r7, #28
 1057 0056 F1D1     		bne	.L85
 1058 0058 3C1C     		mov	r4, r7
 1059              	.LVL140:
 1060              	.L84:
1929:.\BLEApplication.c ****     return i;
 1061              		.loc 1 1929 0
 1062 005a 301C     		mov	r0, r6
 1063 005c FFF7FEFF 		bl	free
 1064              	.LVL141:
1930:.\BLEApplication.c **** }
 1065              		.loc 1 1930 0
 1066 0060 231C     		mov	r3, r4
 1067              	.LVL142:
 1068              	.L83:
 1069              	.LBE31:
 1070              	.LBE30:
1931:.\BLEApplication.c **** 
 1071              		.loc 1 1931 0
 1072 0062 181C     		mov	r0, r3
 1073              		@ sp needed
 1074 0064 F8BD     		pop	{r3, r4, r5, r6, r7, pc}
 1075              	.L94:
 1076 0066 C046     		.align	2
 1077              	.L93:
 1078 0068 19010000 		.word	.LC53
 1079 006c 00000000 		.word	.LANCHOR1
 1080              		.cfi_endproc
 1081              	.LFE44:
 1082              		.size	Command_Identify, .-Command_Identify
 1083              		.section	.text.SendNotification,"ax",%progbits
 1084              		.align	1
 1085              		.global	SendNotification
 1086              		.code	16
 1087              		.thumb_func
 1088              		.type	SendNotification, %function
 1089              	SendNotification:
 1090              	.LFB46:
1983:.\BLEApplication.c **** 
1984:.\BLEApplication.c **** /*******************************************************************************
1985:.\BLEApplication.c **** * Function Name: SendNotification()
1986:.\BLEApplication.c **** ********************************************************************************
ARM GAS  C:\Users\Helon\AppData\Local\Temp\ccKCxrf8.s 			page 58


1987:.\BLEApplication.c **** * Summary:
1988:.\BLEApplication.c **** * This function creates a notification packet and sends it.
1989:.\BLEApplication.c **** *
1990:.\BLEApplication.c **** * Parameters:
1991:.\BLEApplication.c **** * None
1992:.\BLEApplication.c **** *
1993:.\BLEApplication.c **** * Return:
1994:.\BLEApplication.c **** * None
1995:.\BLEApplication.c **** *
1996:.\BLEApplication.c **** * Theory:
1997:.\BLEApplication.c **** * The function creates a notification packet for the custom characteristic and 
1998:.\BLEApplication.c **** * sends it over BLE. The amount of data sent for the characteristic is equal 
1999:.\BLEApplication.c **** * to (negotiated MTU size - 3) bytes.
2000:.\BLEApplication.c **** *
2001:.\BLEApplication.c **** * Side Effects:
2002:.\BLEApplication.c **** * None
2003:.\BLEApplication.c **** *
2004:.\BLEApplication.c **** *******************************************************************************/
2005:.\BLEApplication.c **** void SendNotification(uint8_t*val,uint16_t len)
2006:.\BLEApplication.c **** {
 1091              		.loc 1 2006 0
 1092              		.cfi_startproc
 1093              	.LVL143:
 1094 0000 1FB5     		push	{r0, r1, r2, r3, r4, lr}
 1095              		.cfi_def_cfa_offset 24
 1096              		.cfi_offset 0, -24
 1097              		.cfi_offset 1, -20
 1098              		.cfi_offset 2, -16
 1099              		.cfi_offset 3, -12
 1100              		.cfi_offset 4, -8
 1101              		.cfi_offset 14, -4
2007:.\BLEApplication.c **** //    uint8   index;
2008:.\BLEApplication.c **** //    uint8   uartTxData[negotiatedMtu - 3];
2009:.\BLEApplication.c ****     CYBLE_API_RESULT_T API_RESULT=0;
2010:.\BLEApplication.c **** //    uint16_t uartTxDataLength;
2011:.\BLEApplication.c **** //    static uint16 uartIdleCount = UART_IDLE_TIMEOUT;
2012:.\BLEApplication.c **** ////    Uart_Char=UART_UartGetChar();
2013:.\BLEApplication.c **** //    CYBLE_GATTS_HANDLE_VALUE_NTF_T      uartTxDataNtf;
2014:.\BLEApplication.c ****     
2015:.\BLEApplication.c ****     /* Create a new notification packet */
2016:.\BLEApplication.c ****     CYBLE_GATTS_HANDLE_VALUE_NTF_T notificationPacket;
2017:.\BLEApplication.c **** //    CYBLE_API_RESULT_T API_RESULT;
2018:.\BLEApplication.c ****     /* Update Notification packet with the data.
2019:.\BLEApplication.c ****      * Maximum data which can be sent is equal to (Negotiated MTU - 3) bytes.
2020:.\BLEApplication.c ****      */
2021:.\BLEApplication.c ****     notificationPacket.attrHandle = CYBLE_TROUGHPUT_SERVICE_CUSTOM_CHARACTERISTIC_CHAR_HANDLE;
 1102              		.loc 1 2021 0
 1103 0002 0E22     		mov	r2, #14
 1104 0004 01AB     		add	r3, sp, #4
2022:.\BLEApplication.c ****     notificationPacket.value.val = val;   
2023:.\BLEApplication.c ****     notificationPacket.value.len = len - 3;
 1105              		.loc 1 2023 0
 1106 0006 0339     		sub	r1, r1, #3
 1107              	.LVL144:
 1108 0008 9980     		strh	r1, [r3, #4]
2024:.\BLEApplication.c **** //    notificationPacket.value.actualLen=0x00;
2025:.\BLEApplication.c ****     /* Report data to BLE component */
ARM GAS  C:\Users\Helon\AppData\Local\Temp\ccKCxrf8.s 			page 59


2026:.\BLEApplication.c ****     CyBle_GattsNotification(cyBle_connHandle, &notificationPacket);
 1109              		.loc 1 2026 0
 1110 000a 0849     		ldr	r1, .L96
2022:.\BLEApplication.c ****     notificationPacket.value.val = val;   
 1111              		.loc 1 2022 0
 1112 000c 0190     		str	r0, [sp, #4]
 1113              		.loc 1 2026 0
 1114 000e 4878     		ldrb	r0, [r1, #1]
 1115              	.LVL145:
2021:.\BLEApplication.c ****     notificationPacket.value.val = val;   
 1116              		.loc 1 2021 0
 1117 0010 1A81     		strh	r2, [r3, #8]
 1118              		.loc 1 2026 0
 1119 0012 0A78     		ldrb	r2, [r1]
 1120 0014 0002     		lsl	r0, r0, #8
 1121 0016 191C     		mov	r1, r3
 1122 0018 1043     		orr	r0, r2
 1123 001a FFF7FEFF 		bl	CyBle_GattsNotification
 1124              	.LVL146:
2027:.\BLEApplication.c ****     printf("SendNotification is %d\r\n",API_RESULT);
 1125              		.loc 1 2027 0
 1126 001e 0021     		mov	r1, #0
 1127 0020 0348     		ldr	r0, .L96+4
 1128 0022 FFF7FEFF 		bl	printf
 1129              	.LVL147:
2028:.\BLEApplication.c **** }
 1130              		.loc 1 2028 0
 1131 0026 05B0     		add	sp, sp, #20
 1132              		@ sp needed
 1133 0028 00BD     		pop	{pc}
 1134              	.L97:
 1135 002a C046     		.align	2
 1136              	.L96:
 1137 002c 00000000 		.word	cyBle_connHandle
 1138 0030 1E010000 		.word	.LC58
 1139              		.cfi_endproc
 1140              	.LFE46:
 1141              		.size	SendNotification, .-SendNotification
 1142              		.section	.text.SendData_toSlave,"ax",%progbits
 1143              		.align	1
 1144              		.global	SendData_toSlave
 1145              		.code	16
 1146              		.thumb_func
 1147              		.type	SendData_toSlave, %function
 1148              	SendData_toSlave:
 1149              	.LFB47:
2029:.\BLEApplication.c **** /******************************************************************************
2030:.\BLEApplication.c **** * Function Name: SendData_toSlave
2031:.\BLEApplication.c **** ***************************************************************************//**
2032:.\BLEApplication.c **** * 
2033:.\BLEApplication.c **** *  MasterÁªôSlaveÂèëÊï∞ÊçÆ
2034:.\BLEApplication.c **** * \param  val:ÊåáÂêëË¶ÅÂèëÈÄÅÁöÑÊï∞ÊçÆÁöÑÈ¶ñÂú∞ÂùÄ
2035:.\BLEApplication.c **** * \param  len:Ë¶ÅÂèëÈÄÅÁöÑÊï∞ÊçÆÁöÑÈïøÂ∫¶
2036:.\BLEApplication.c **** * \return none
2037:.\BLEApplication.c **** *  
2038:.\BLEApplication.c **** * 
2039:.\BLEApplication.c **** ******************************************************************************/
ARM GAS  C:\Users\Helon\AppData\Local\Temp\ccKCxrf8.s 			page 60


2040:.\BLEApplication.c **** void SendData_toSlave(uint8_t*val,uint16_t len)
2041:.\BLEApplication.c **** {
 1150              		.loc 1 2041 0
 1151              		.cfi_startproc
 1152              	.LVL148:
 1153 0000 1FB5     		push	{r0, r1, r2, r3, r4, lr}
 1154              		.cfi_def_cfa_offset 24
 1155              		.cfi_offset 0, -24
 1156              		.cfi_offset 1, -20
 1157              		.cfi_offset 2, -16
 1158              		.cfi_offset 3, -12
 1159              		.cfi_offset 4, -8
 1160              		.cfi_offset 14, -4
2042:.\BLEApplication.c **** //    uint8 cccdNotifEnabledValue[] = {0x01, 0x00};
2043:.\BLEApplication.c ****     CYBLE_API_RESULT_T API_RESULT=0;
2044:.\BLEApplication.c ****     CYBLE_GATT_VALUE_T SendDataStruct =
2045:.\BLEApplication.c ****     {
2046:.\BLEApplication.c ****         val,
2047:.\BLEApplication.c ****         len,
2048:.\BLEApplication.c ****         0
2049:.\BLEApplication.c ****     };
2050:.\BLEApplication.c ****     CYBLE_GATTC_WRITE_REQ_T writeRequestData;
2051:.\BLEApplication.c ****     writeRequestData.attrHandle=CYBLE_TROUGHPUT_SERVICE_CUSTOM_CHARACTERISTIC_CHAR_HANDLE;
 1161              		.loc 1 2051 0
 1162 0002 0E23     		mov	r3, #14
 1163 0004 01AC     		add	r4, sp, #4
 1164 0006 2381     		strh	r3, [r4, #8]
2052:.\BLEApplication.c ****     writeRequestData.value=SendDataStruct;
 1165              		.loc 1 2052 0
 1166 0008 0023     		mov	r3, #0
 1167 000a 0190     		str	r0, [sp, #4]
 1168 000c A180     		strh	r1, [r4, #4]
 1169 000e E380     		strh	r3, [r4, #6]
 1170              	.LVL149:
 1171              	.L100:
2053:.\BLEApplication.c **** //    CyBle_GattcWriteCharacteristicValue(cyBle_connHandle,&writeRequestData);
2054:.\BLEApplication.c ****     do{
2055:.\BLEApplication.c ****         API_RESULT=CyBle_GattcWriteWithoutResponse(cyBle_connHandle,&writeRequestData);
 1172              		.loc 1 2055 0 discriminator 2
 1173 0010 074A     		ldr	r2, .L105
 1174 0012 211C     		mov	r1, r4
 1175 0014 5078     		ldrb	r0, [r2, #1]
 1176 0016 1378     		ldrb	r3, [r2]
 1177 0018 0002     		lsl	r0, r0, #8
 1178 001a 1843     		orr	r0, r3
 1179 001c FFF7FEFF 		bl	CyBle_GattcWriteWithoutResponse
 1180              	.LVL150:
2056:.\BLEApplication.c ****       }
2057:.\BLEApplication.c ****     while((CYBLE_ERROR_OK != API_RESULT)  && (CYBLE_STATE_CONNECTED == cyBle_state));
 1181              		.loc 1 2057 0 discriminator 2
 1182 0020 0028     		cmp	r0, #0
 1183 0022 03D0     		beq	.L98
 1184              		.loc 1 2057 0 is_stmt 0 discriminator 1
 1185 0024 034B     		ldr	r3, .L105+4
 1186 0026 1B78     		ldrb	r3, [r3]
 1187 0028 022B     		cmp	r3, #2
 1188 002a F1D0     		beq	.L100
ARM GAS  C:\Users\Helon\AppData\Local\Temp\ccKCxrf8.s 			page 61


 1189              	.L98:
2058:.\BLEApplication.c ****     
2059:.\BLEApplication.c ****     
2060:.\BLEApplication.c **** }
 1190              		.loc 1 2060 0 is_stmt 1
 1191              		@ sp needed
 1192 002c 1FBD     		pop	{r0, r1, r2, r3, r4, pc}
 1193              	.L106:
 1194 002e C046     		.align	2
 1195              	.L105:
 1196 0030 00000000 		.word	cyBle_connHandle
 1197 0034 00000000 		.word	cyBle_state
 1198              		.cfi_endproc
 1199              	.LFE47:
 1200              		.size	SendData_toSlave, .-SendData_toSlave
 1201              		.section	.text.Connect_Device,"ax",%progbits
 1202              		.align	1
 1203              		.global	Connect_Device
 1204              		.code	16
 1205              		.thumb_func
 1206              		.type	Connect_Device, %function
 1207              	Connect_Device:
 1208              	.LFB49:
2061:.\BLEApplication.c **** /******************************************************************************
2062:.\BLEApplication.c **** * Function Name: Slave_UartHandler
2063:.\BLEApplication.c **** ***************************************************************************//**
2064:.\BLEApplication.c **** * 
2065:.\BLEApplication.c **** *  Âú®Master_SlaveÊ®°Âºè‰∏ãÂ§ÑÁêÜ‰∏≤Âè£Êåá‰ª§
2066:.\BLEApplication.c **** * \param  none
2067:.\BLEApplication.c **** * \return none
2068:.\BLEApplication.c **** *  
2069:.\BLEApplication.c **** * 
2070:.\BLEApplication.c **** ******************************************************************************/
2071:.\BLEApplication.c **** void Master_Slave_UartHandler(uint8_t Role)
2072:.\BLEApplication.c **** {
2073:.\BLEApplication.c ****     uint8_t Uart_Char=0;
2074:.\BLEApplication.c ****     uint32 passkey=0;
2075:.\BLEApplication.c ****     uint32 pow;
2076:.\BLEApplication.c ****     uint8   index;
2077:.\BLEApplication.c ****     uint8   uartTxData[negotiatedMtu - 3];
2078:.\BLEApplication.c ****     CYBLE_API_RESULT_T API_RESULT=0;
2079:.\BLEApplication.c ****     uint16_t uartTxDataLength;
2080:.\BLEApplication.c ****     static uint16 uartIdleCount = UART_IDLE_TIMEOUT;
2081:.\BLEApplication.c **** //    Uart_Char=UART_UartGetChar();
2082:.\BLEApplication.c ****     CYBLE_GATTS_HANDLE_VALUE_NTF_T      uartTxDataNtf;
2083:.\BLEApplication.c ****     uartTxDataLength = UART_SpiUartGetRxBufferSize();//Âè™ÊúâËØªÂèñÂÆå‰∫ÜRX_BufferÊâçÊ∏Ö0
2084:.\BLEApplication.c **** //    UART_UartPutChar(uartTxDataLength);   
2085:.\BLEApplication.c **** //        Â§ÑÁêÜ‰∏≤Âè£‰ø°ÊÅØ,‰∏çÈááÁî®‰∏≠Êñ≠ÁöÑÊñπÂºè,ÈááÂèñ‰∏≠Êñ≠‰ºöÂΩ±ÂìçÈÄè‰º†ÈÄüÁéá
2086:.\BLEApplication.c ****     if((0!=uartTxDataLength)&&((CommandMode==THROUGHT_MODE)))
2087:.\BLEApplication.c ****     {   
2088:.\BLEApplication.c ****          #ifdef  FLOW_CONTROL//Ê≠§Â§ÑÊúÄÂ•ΩÁΩÆ‰∏ÄGPIOÂè£‰∏∫‰ΩéÁîµÂπ≥ÂëäËØâÂèëÈÄÅÊñπÂÅúÊ≠¢ÂèëÈÄÅÊï∞Ê
2089:.\BLEApplication.c ****             if(uartTxDataLength>=(UART_RX_BUFFER/4))
2090:.\BLEApplication.c ****             {
2091:.\BLEApplication.c ****                 UART_RX_INT_DISABLE();
2092:.\BLEApplication.c ****                 CTS_Write(CTS_OFF);
2093:.\BLEApplication.c ****             }
2094:.\BLEApplication.c ****             else
ARM GAS  C:\Users\Helon\AppData\Local\Temp\ccKCxrf8.s 			page 62


2095:.\BLEApplication.c ****             {
2096:.\BLEApplication.c ****                 UART_RX_INT_ENABLE();
2097:.\BLEApplication.c ****                 CTS_Write(CTS_ON);
2098:.\BLEApplication.c ****             }
2099:.\BLEApplication.c ****         #endif
2100:.\BLEApplication.c ****         if(uartTxDataLength>=negotiatedMtu-3)
2101:.\BLEApplication.c ****         {                 
2102:.\BLEApplication.c ****             uartIdleCount=UART_IDLE_TIMEOUT;
2103:.\BLEApplication.c ****             uartTxDataLength=negotiatedMtu-3;
2104:.\BLEApplication.c ****         }
2105:.\BLEApplication.c ****         else//Â¶ÇÊûúÂ∞è‰∫é20Â≠óËäÇÂàôÁ≠â‰∏™100ms,Â¶ÇÊûú100msÂêéËøòÊòØÂ∞ë‰∫é20Â≠óËäÇÂàôÈÄè‰º†Âá∫Âéª
2106:.\BLEApplication.c ****         {
2107:.\BLEApplication.c ****             if(--uartIdleCount == 0)
2108:.\BLEApplication.c ****             {
2109:.\BLEApplication.c ****                 /*uartTxDataLength remains unchanged */;
2110:.\BLEApplication.c ****             }
2111:.\BLEApplication.c ****             else
2112:.\BLEApplication.c ****             {
2113:.\BLEApplication.c ****                 uartTxDataLength = 0;
2114:.\BLEApplication.c ****             }
2115:.\BLEApplication.c ****         }
2116:.\BLEApplication.c ****         if(0!=uartTxDataLength)
2117:.\BLEApplication.c ****         {
2118:.\BLEApplication.c ****             uartIdleCount=UART_IDLE_TIMEOUT;
2119:.\BLEApplication.c **** //            UART_UartPutChar(UART_SpiUartGetRxBufferSize());
2120:.\BLEApplication.c ****             for(index=0;index<uartTxDataLength;index++)//‰∏çÁÆ°ÊòØ‰∏ªÊú∫ËøòÊòØ‰ªéÊú∫ÔºåÂú®ÈÄè‰º†Ê®°
2121:.\BLEApplication.c ****             {
2122:.\BLEApplication.c ****                 uartTxData[index] = (uint8) UART_UartGetByte();
2123:.\BLEApplication.c ****             }            
2124:.\BLEApplication.c ****             if(0==memcmp("AT+NOTIFY=0",uartTxData,11))//Âú®ÈÄè‰º†Ê®°Âºè‰∏ãÔºåÂà§Êñ≠ÊòØ‰∏çÊòØË¶ÅÈÄÄÂ
2125:.\BLEApplication.c ****             {                
2126:.\BLEApplication.c ****                 if(Role==Central) //‰∏ªÊú∫Ê®°Âºè‰∏ãÈÄÄÂá∫ÈÄè‰º†Ê®°Âºè
2127:.\BLEApplication.c ****                 {
2128:.\BLEApplication.c ****                     writeRequestData.value.val[0]=0x00;
2129:.\BLEApplication.c ****                     writeRequestData.attrHandle=CYBLE_TROUGHPUT_SERVICE_CUSTOM_CHARACTERISTIC_CLIEN
2130:.\BLEApplication.c ****                     API_RESULT=CyBle_GattcWriteCharacteristicValue(cyBle_connHandle, &writeRequestD
2131:.\BLEApplication.c ****                     if(CYBLE_ERROR_OK==API_RESULT)
2132:.\BLEApplication.c ****                     {
2133:.\BLEApplication.c ****                         CommandMode=AT_COMMAND_MODE;
2134:.\BLEApplication.c ****                         CTS_Write(CTS_OFF);
2135:.\BLEApplication.c ****                         Buffer_Length=0;
2136:.\BLEApplication.c ****                         memset(RX_BUFFER,0,sizeof(RX_BUFFER));
2137:.\BLEApplication.c ****                         printf("+MODE=AT_COMMAND_MODE\r\n");
2138:.\BLEApplication.c ****                     }
2139:.\BLEApplication.c ****                 }
2140:.\BLEApplication.c ****                 else //‰ªéÊú∫Ê®°Âºè‰∏ãÈÄÄÂá∫ÈÄè‰º†Ê®°Âºè
2141:.\BLEApplication.c ****                 {
2142:.\BLEApplication.c ****                     CommandMode=AT_COMMAND_MODE;
2143:.\BLEApplication.c ****                     CTS_Write(CTS_OFF);
2144:.\BLEApplication.c ****                     Buffer_Length=0;
2145:.\BLEApplication.c ****                     memset(RX_BUFFER,0,sizeof(RX_BUFFER));
2146:.\BLEApplication.c ****                     printf("+MODE=AT_COMMAND_MODE\r\n");
2147:.\BLEApplication.c ****                 }
2148:.\BLEApplication.c ****                 return;
2149:.\BLEApplication.c ****             }  
2150:.\BLEApplication.c ****             if(0==memcmp("AT+NOTIFY=?",uartTxData,11))//‰∏çÁÆ°‰∏ªÊú∫ËøòÊòØ‰ªéÊú∫ÔºåÂú®ÈÄè‰º†Ê®°Âºè‰
2151:.\BLEApplication.c ****             {
ARM GAS  C:\Users\Helon\AppData\Local\Temp\ccKCxrf8.s 			page 63


2152:.\BLEApplication.c ****                 Buffer_Length=0;
2153:.\BLEApplication.c ****                 memset(RX_BUFFER,0,sizeof(RX_BUFFER));
2154:.\BLEApplication.c ****                 printf("+MODE=THROUGHT_MODE\r\n");
2155:.\BLEApplication.c ****                 return;
2156:.\BLEApplication.c ****             }
2157:.\BLEApplication.c ****             else if(Peripheral==Role)//‰ªéÊú∫Áªô‰∏ªÊú∫ÂèëÈÄÅÈÄè‰º†Êï∞ÊçÆ
2158:.\BLEApplication.c ****             {
2159:.\BLEApplication.c ****                while(CyBle_GattGetBusStatus()!= CYBLE_STACK_STATE_FREE);//Âè™ÊúâÂΩìËìùÁâôÂçèËÆÆÊ†àÁ
2160:.\BLEApplication.c ****                 uartTxDataNtf.value.val  = uartTxData;
2161:.\BLEApplication.c ****                 uartTxDataNtf.value.len  = uartTxDataLength;
2162:.\BLEApplication.c ****                 uartTxDataNtf.attrHandle = CYBLE_TROUGHPUT_SERVICE_CUSTOM_CHARACTERISTIC_CHAR_HANDL
2163:.\BLEApplication.c **** //                #ifdef FLOW_CONTROL
2164:.\BLEApplication.c **** //                    UART_RX_INT_DISABLE();
2165:.\BLEApplication.c **** //                #endif
2166:.\BLEApplication.c ****                 do
2167:.\BLEApplication.c ****                 {
2168:.\BLEApplication.c ****                     API_RESULT = CyBle_GattsNotification(cyBle_connHandle, &uartTxDataNtf);
2169:.\BLEApplication.c ****                     CyBle_ProcessEvents();
2170:.\BLEApplication.c ****                 }
2171:.\BLEApplication.c ****                 while((CYBLE_ERROR_OK != API_RESULT)  && (CYBLE_STATE_CONNECTED == cyBle_state));
2172:.\BLEApplication.c **** //                testCount+=uartTxDataLength;
2173:.\BLEApplication.c ****             }
2174:.\BLEApplication.c ****             else////‰∏ªÊú∫Áªô‰ªéÊú∫ÂèëÈÄÅÈÄè‰º†Êï∞ÊçÆ
2175:.\BLEApplication.c ****             {
2176:.\BLEApplication.c ****                 #ifdef FLOW_CONTROL
2177:.\BLEApplication.c ****                     UART_RX_INT_DISABLE();
2178:.\BLEApplication.c ****                 #endif
2179:.\BLEApplication.c ****                 while(CyBle_GattGetBusStatus()!= CYBLE_STACK_STATE_FREE);//Âè™ÊúâÂΩìËìùÁâôÂçèËÆÆÊ†à
2180:.\BLEApplication.c ****                 SendData_toSlave(uartTxData,uartTxDataLength);
2181:.\BLEApplication.c ****             }
2182:.\BLEApplication.c ****         }
2183:.\BLEApplication.c ****         return ;
2184:.\BLEApplication.c ****     }
2185:.\BLEApplication.c ****     else if(0!=uartTxDataLength)
2186:.\BLEApplication.c ****     {   
2187:.\BLEApplication.c ****         RxFlag=START;
2188:.\BLEApplication.c ****         if(KEYBOARD)
2189:.\BLEApplication.c ****         {
2190:.\BLEApplication.c ****            KEYBOARD=FALSE;
2191:.\BLEApplication.c ****         /*Set the passkey to zero before receiving New passkey */
2192:.\BLEApplication.c ****             passkey = 0u;
2193:.\BLEApplication.c ****             pow = 100000ul;
2194:.\BLEApplication.c ****             
2195:.\BLEApplication.c ****             /*Get 6 digit number from UART terminal*/
2196:.\BLEApplication.c ****             for(index = 0u; index < CYBLE_GAP_USER_PASSKEY_SIZE; index++)
2197:.\BLEApplication.c ****             {
2198:.\BLEApplication.c ****                 while((Uart_Char = UART_UartGetChar()) == 0);
2199:.\BLEApplication.c ****                 
2200:.\BLEApplication.c ****                 /* accept the digits that are in between the range '0' and '9'  */
2201:.\BLEApplication.c ****                 if((Uart_Char >= '0') && (Uart_Char <= '9'))  
2202:.\BLEApplication.c ****                 {
2203:.\BLEApplication.c ****                     passkey += (uint32)(Uart_Char - '0') * pow;
2204:.\BLEApplication.c ****                     pow /= 10u;
2205:.\BLEApplication.c **** //                    UART_UartPutChar(Uart_Char); 
2206:.\BLEApplication.c ****                 }
2207:.\BLEApplication.c ****                 else  /* If entered digit is not in between the rnage '0' and '9'*/
2208:.\BLEApplication.c ****                 {
ARM GAS  C:\Users\Helon\AppData\Local\Temp\ccKCxrf8.s 			page 64


2209:.\BLEApplication.c ****                     printf("+AUTHKEY=INVALID\r\n");
2210:.\BLEApplication.c ****                     break;
2211:.\BLEApplication.c ****                 }
2212:.\BLEApplication.c ****             }            
2213:.\BLEApplication.c ****             /*Send Pass key Response to to create an Authenticated Link*/
2214:.\BLEApplication.c ****             API_RESULT = CyBle_GapAuthPassKeyReply(cyBle_connHandle.bdHandle,passkey,1);         
2215:.\BLEApplication.c ****             /*Check the result of CyBle_GapAuthPassKeyReply*/
2216:.\BLEApplication.c ****             if(API_RESULT== CYBLE_ERROR_INVALID_PARAMETER)
2217:.\BLEApplication.c ****             {
2218:.\BLEApplication.c ****                 printf("CYBLE_ERROR_INVALID_PARAMETER \r\n");               
2219:.\BLEApplication.c ****             }
2220:.\BLEApplication.c ****             else if(API_RESULT==CYBLE_ERROR_MEMORY_ALLOCATION_FAILED)
2221:.\BLEApplication.c ****             {
2222:.\BLEApplication.c ****                 printf("CYBLE_ERROR_MEMORY_ALLOCATION_FAILED\r\n");
2223:.\BLEApplication.c ****             }
2224:.\BLEApplication.c ****             else if(API_RESULT==CYBLE_ERROR_NO_DEVICE_ENTITY)
2225:.\BLEApplication.c ****             {
2226:.\BLEApplication.c ****                 printf("CYBLE_ERROR_NO_DEVICE_ENTITY\r\n");
2227:.\BLEApplication.c ****             }
2228:.\BLEApplication.c ****             else if(API_RESULT==CYBLE_ERROR_OK)
2229:.\BLEApplication.c ****             {
2230:.\BLEApplication.c ****                 printf("+AUTHKEY=SUCCESFULLY\r\n");
2231:.\BLEApplication.c ****             }
2232:.\BLEApplication.c ****         }
2233:.\BLEApplication.c ****         else
2234:.\BLEApplication.c ****         {
2235:.\BLEApplication.c ****             Uart_Char=(uint8) UART_UartGetByte();
2236:.\BLEApplication.c ****             if('\n'!=Uart_Char)
2237:.\BLEApplication.c ****             {
2238:.\BLEApplication.c ****     //            if(CommandMode==THROUGHT_MODE)
2239:.\BLEApplication.c ****     //            {
2240:.\BLEApplication.c ****     //                RX_BUFFER[Buffer_Length]=Uart_Char-0x30;//ËØªÂèñ‰∏≤Âè£Êé•Êî∂ÁºìÂÜ≤Âå∫ÁöÑÊï∞Êç
2241:.\BLEApplication.c ****     //                Buffer_Length++;
2242:.\BLEApplication.c ****     //            }
2243:.\BLEApplication.c ****     //            else
2244:.\BLEApplication.c ****     //            {
2245:.\BLEApplication.c ****                     RX_BUFFER[Buffer_Length]=Uart_Char;//ËØªÂèñ‰∏≤Âè£Êé•Êî∂ÁºìÂÜ≤Âå∫ÁöÑÊï∞ÊçÆ
2246:.\BLEApplication.c ****                     Buffer_Length++;
2247:.\BLEApplication.c ****     //            }                      
2248:.\BLEApplication.c ****             }
2249:.\BLEApplication.c ****             else
2250:.\BLEApplication.c ****             {
2251:.\BLEApplication.c ****                 uartIdleCount=UART_IDLE_TIMEOUT;
2252:.\BLEApplication.c ****                 RxFlag=OVER;
2253:.\BLEApplication.c ****             //‰∏≤Âè£Êé•Êî∂ÁöÑÊï∞ÊçÆÈïøÂ∫¶Ê∏ÖÈõ∂,‰ª•‰æø‰∏ã‰∏ÄÊù°ÂëΩ‰ª§ËøáÊù•Êó∂ËøòÊòØÂ≠òÊîæÂú®Êï∞ÁªÑ
2254:.\BLEApplication.c ****                 RX_BUFFER[Buffer_Length]=Uart_Char;//ËØªÂèñ‰∏≤Âè£Êé•Êî∂ÁºìÂÜ≤Âå∫ÁöÑÊï∞ÊçÆ          
2255:.\BLEApplication.c ****                 Parser_UartData((char*)RX_BUFFER);
2256:.\BLEApplication.c ****                 Buffer_Length=0;
2257:.\BLEApplication.c ****                 memset(RX_BUFFER,0,sizeof(RX_BUFFER));
2258:.\BLEApplication.c ****     //            if(CommandMode==THROUGHT_MODE)
2259:.\BLEApplication.c ****     //            {
2260:.\BLEApplication.c ****     //                
2261:.\BLEApplication.c ****     //                if(Role==Peripheral)
2262:.\BLEApplication.c ****     //                    SendNotification(RX_BUFFER,Buffer_Length+3);
2263:.\BLEApplication.c ****     //                else
2264:.\BLEApplication.c ****     //                    SendData_toSlave(RX_BUFFER,Buffer_Length);
2265:.\BLEApplication.c ****     //                //‰∏≤Âè£Êé•Êî∂ÁöÑÊï∞ÊçÆÈïøÂ∫¶Ê∏ÖÈõ∂,‰ª•‰æø‰∏ã‰∏ÄÊù°ÂëΩ‰ª§ËøáÊù•Êó∂ËøòÊòØÂ≠òÊî
ARM GAS  C:\Users\Helon\AppData\Local\Temp\ccKCxrf8.s 			page 65


2266:.\BLEApplication.c ****     //                Buffer_Length=0;
2267:.\BLEApplication.c ****     //                memset(RX_BUFFER,0,sizeof(RX_BUFFER));
2268:.\BLEApplication.c ****     //            }
2269:.\BLEApplication.c ****     //            else
2270:.\BLEApplication.c ****     //            {
2271:.\BLEApplication.c ****     //                
2272:.\BLEApplication.c ****     //            }
2273:.\BLEApplication.c ****             }
2274:.\BLEApplication.c ****         }    
2275:.\BLEApplication.c ****     }
2276:.\BLEApplication.c ****     else
2277:.\BLEApplication.c ****     {
2278:.\BLEApplication.c ****         if(RxFlag)//Â¶ÇÊûú‰∏≤Âè£100msÂÜÖÊ≤°ÊúâÊé•Êî∂Âà∞ÂõûËΩ¶Êç¢Ë°åÁ¨¶Êó∂ÔºåÂàôËÆ§‰∏∫ËØ•ATÂëΩ‰ª§Êó†
2279:.\BLEApplication.c ****         {
2280:.\BLEApplication.c ****             if(--uartIdleCount == 0)
2281:.\BLEApplication.c ****             {
2282:.\BLEApplication.c ****                 RxFlag=OVER;
2283:.\BLEApplication.c ****                 uartIdleCount=UART_IDLE_TIMEOUT;
2284:.\BLEApplication.c ****                 Buffer_Length=0;
2285:.\BLEApplication.c ****                 memset(RX_BUFFER,0,sizeof(RX_BUFFER));
2286:.\BLEApplication.c ****                 printf("AT+ERR=7\r\n");//ATÂëΩ‰ª§Ê≤°ÊúâÂõûËΩ¶Êç¢Ë°å
2287:.\BLEApplication.c ****                 /*uartTxDataLength remains unchanged */;
2288:.\BLEApplication.c ****             }
2289:.\BLEApplication.c ****         }
2290:.\BLEApplication.c ****     }
2291:.\BLEApplication.c **** }
2292:.\BLEApplication.c **** 
2293:.\BLEApplication.c **** /******************************************************************************
2294:.\BLEApplication.c **** * Function Name: Connect_Device
2295:.\BLEApplication.c **** ***************************************************************************//**
2296:.\BLEApplication.c **** * 
2297:.\BLEApplication.c **** *  ËøûÊé•Êâ´ÊèèÂàóË°®‰∏≠ÁöÑSlaveËÆæÂ§á
2298:.\BLEApplication.c **** * \param  idx:Êâ´ÊèèÂàóË°®‰∏≠ÁöÑÁ¥¢ÂºïÂè∑
2299:.\BLEApplication.c **** * \return none
2300:.\BLEApplication.c **** *  
2301:.\BLEApplication.c **** * 
2302:.\BLEApplication.c **** ******************************************************************************/
2303:.\BLEApplication.c **** void Connect_Device(uint8_t idx)
2304:.\BLEApplication.c **** {
 1209              		.loc 1 2304 0
 1210              		.cfi_startproc
 1211              	.LVL151:
 1212 0000 30B5     		push	{r4, r5, lr}
 1213              		.cfi_def_cfa_offset 12
 1214              		.cfi_offset 4, -12
 1215              		.cfi_offset 5, -8
 1216              		.cfi_offset 14, -4
2305:.\BLEApplication.c ****     CYBLE_API_RESULT_T API_RESULT=0;
2306:.\BLEApplication.c ****     uint8_t i=0;
2307:.\BLEApplication.c ****     if(Role==Central)
 1217              		.loc 1 2307 0
 1218 0002 444C     		ldr	r4, .L130
2304:.\BLEApplication.c ****     CYBLE_API_RESULT_T API_RESULT=0;
 1219              		.loc 1 2304 0
 1220 0004 85B0     		sub	sp, sp, #20
 1221              		.cfi_def_cfa_offset 32
 1222              		.loc 1 2307 0
ARM GAS  C:\Users\Helon\AppData\Local\Temp\ccKCxrf8.s 			page 66


 1223 0006 6378     		ldrb	r3, [r4, #1]
 1224 0008 012B     		cmp	r3, #1
 1225 000a 00D0     		beq	.LCB1122
 1226 000c 7DE0     		b	.L108	@long jump
 1227              	.LCB1122:
 1228              	.LVL152:
 1229              	.LBB34:
 1230              	.LBB35:
2308:.\BLEApplication.c ****     {
2309:.\BLEApplication.c ****         switch(idx)
 1231              		.loc 1 2309 0
 1232 000e 3138     		sub	r0, r0, #49
 1233              	.LVL153:
 1234 0010 0E28     		cmp	r0, #14
 1235 0012 00D9     		bls	.LCB1130
 1236 0014 7CE0     		b	.L107	@long jump
 1237              	.LCB1130:
 1238 0016 FFF7FEFF 		bl	__gnu_thumb1_case_uqi
 1239              	.L111:
 1240 001a 08       		.byte	(.L110-.L111)/2
 1241 001b 19       		.byte	(.L112-.L111)/2
 1242 001c 2C       		.byte	(.L113-.L111)/2
 1243 001d 3D       		.byte	(.L114-.L111)/2
 1244 001e 7B       		.byte	(.L107-.L111)/2
 1245 001f 7B       		.byte	(.L107-.L111)/2
 1246 0020 7B       		.byte	(.L107-.L111)/2
 1247 0021 7B       		.byte	(.L107-.L111)/2
 1248 0022 7B       		.byte	(.L107-.L111)/2
 1249 0023 7B       		.byte	(.L107-.L111)/2
 1250 0024 7B       		.byte	(.L107-.L111)/2
 1251 0025 7B       		.byte	(.L107-.L111)/2
 1252 0026 7B       		.byte	(.L107-.L111)/2
 1253 0027 7B       		.byte	(.L107-.L111)/2
 1254 0028 59       		.byte	(.L115-.L111)/2
 1255 0029 00       		.p2align 1
 1256              	.L110:
2310:.\BLEApplication.c ****         {
2311:.\BLEApplication.c ****             case '1':
2312:.\BLEApplication.c ****                 API_RESULT=CyBle_GapcConnectDevice(&DeviceInfo[idx-1-0x30].DeviceList);
 1257              		.loc 1 2312 0
 1258 002a 3B4D     		ldr	r5, .L130+4
 1259 002c 281C     		mov	r0, r5
 1260 002e FFF7FEFF 		bl	CyBle_GapcConnectDevice
 1261              	.LVL154:
 1262 0032 021E     		sub	r2, r0, #0
 1263              	.LVL155:
2313:.\BLEApplication.c ****                 if(CYBLE_ERROR_OK!=API_RESULT)  
 1264              		.loc 1 2313 0
 1265 0034 02D0     		beq	.L116
2314:.\BLEApplication.c ****                 {
2315:.\BLEApplication.c ****                     printf("AT+ERR=%d,0x%02X\r\n",idx-0x30,API_RESULT);                    
 1266              		.loc 1 2315 0
 1267 0036 3948     		ldr	r0, .L130+8
 1268              	.LVL156:
 1269 0038 0121     		mov	r1, #1
 1270 003a 0FE0     		b	.L126
 1271              	.LVL157:
ARM GAS  C:\Users\Helon\AppData\Local\Temp\ccKCxrf8.s 			page 67


 1272              	.L116:
2316:.\BLEApplication.c ****                 }
2317:.\BLEApplication.c ****                 else
2318:.\BLEApplication.c ****                 {
2319:.\BLEApplication.c ****                     Conn_Or_Disconn_Info.Connected_Count++;
 1273              		.loc 1 2319 0
 1274 003c 384A     		ldr	r2, .L130+12
2320:.\BLEApplication.c ****                     Conn_Or_Disconn_Info.Connect_Idx[Conn_Or_Disconn_Info.Connected_Count-1]=idx-0x
 1275              		.loc 1 2320 0
 1276 003e 0121     		mov	r1, #1
2319:.\BLEApplication.c ****                     Conn_Or_Disconn_Info.Connect_Idx[Conn_Or_Disconn_Info.Connected_Count-1]=idx-0x
 1277              		.loc 1 2319 0
 1278 0040 137A     		ldrb	r3, [r2, #8]
 1279 0042 0133     		add	r3, r3, #1
 1280 0044 DBB2     		uxtb	r3, r3
 1281 0046 1372     		strb	r3, [r2, #8]
 1282              		.loc 1 2320 0
 1283 0048 013B     		sub	r3, r3, #1
 1284 004a 33E0     		b	.L128
 1285              	.LVL158:
 1286              	.L112:
2321:.\BLEApplication.c ****                     Conn_or_Disconn_Idx=idx-0x30;
2322:.\BLEApplication.c ****                     memcpy(Conn_Or_Disconn_Info.DeviceAddr[Conn_Or_Disconn_Info.Connected_Count-1].
2323:.\BLEApplication.c ****                            DeviceInfo[idx-1-0x30].DeviceList.bdAddr,6);  
2324:.\BLEApplication.c ****                     printf("AT+OK\r\n");
2325:.\BLEApplication.c **** //                        CyBle_GapGetPeerBdHandle(bdHandle,&DeviceInfo[idx-1-0x30].DeviceList);
2326:.\BLEApplication.c **** //                        printf("0x%02X\r\n",*bdHandle);  
2327:.\BLEApplication.c ****                 }
2328:.\BLEApplication.c ****             break;
2329:.\BLEApplication.c ****             case '2':
2330:.\BLEApplication.c ****                 API_RESULT=CyBle_GapcConnectDevice(&DeviceInfo[idx-1-0x30].DeviceList);
 1287              		.loc 1 2330 0
 1288 004c 354D     		ldr	r5, .L130+16
 1289 004e 281C     		mov	r0, r5
 1290 0050 FFF7FEFF 		bl	CyBle_GapcConnectDevice
 1291              	.LVL159:
 1292 0054 021E     		sub	r2, r0, #0
 1293              	.LVL160:
2331:.\BLEApplication.c ****                 if(CYBLE_ERROR_OK!=API_RESULT)  
 1294              		.loc 1 2331 0
 1295 0056 04D0     		beq	.L117
2332:.\BLEApplication.c ****                 {
2333:.\BLEApplication.c ****                     printf("AT+ERR=%d,0x%02X\r\n",idx-0x30,API_RESULT);                    
 1296              		.loc 1 2333 0
 1297 0058 0221     		mov	r1, #2
 1298 005a 3048     		ldr	r0, .L130+8
 1299              	.LVL161:
 1300              	.L126:
 1301 005c FFF7FEFF 		bl	printf
 1302              	.LVL162:
 1303 0060 56E0     		b	.L107
 1304              	.LVL163:
 1305              	.L117:
2334:.\BLEApplication.c ****                 }
2335:.\BLEApplication.c ****                 else
2336:.\BLEApplication.c ****                 {
2337:.\BLEApplication.c ****                     Conn_Or_Disconn_Info.Connected_Count++;
ARM GAS  C:\Users\Helon\AppData\Local\Temp\ccKCxrf8.s 			page 68


 1306              		.loc 1 2337 0
 1307 0062 2F4A     		ldr	r2, .L130+12
2338:.\BLEApplication.c ****                     Conn_Or_Disconn_Info.Connect_Idx[Conn_Or_Disconn_Info.Connected_Count-1]=idx-0x
 1308              		.loc 1 2338 0
 1309 0064 0221     		mov	r1, #2
2337:.\BLEApplication.c ****                     Conn_Or_Disconn_Info.Connect_Idx[Conn_Or_Disconn_Info.Connected_Count-1]=idx-0x
 1310              		.loc 1 2337 0
 1311 0066 137A     		ldrb	r3, [r2, #8]
 1312 0068 0133     		add	r3, r3, #1
 1313 006a DBB2     		uxtb	r3, r3
 1314 006c 1372     		strb	r3, [r2, #8]
 1315              		.loc 1 2338 0
 1316 006e 013B     		sub	r3, r3, #1
 1317 0070 20E0     		b	.L128
 1318              	.LVL164:
 1319              	.L113:
2339:.\BLEApplication.c ****                     Conn_or_Disconn_Idx=idx-0x30;
2340:.\BLEApplication.c ****                     memcpy(Conn_Or_Disconn_Info.DeviceAddr[Conn_Or_Disconn_Info.Connected_Count-1].
2341:.\BLEApplication.c ****                            DeviceInfo[idx-1-0x30].DeviceList.bdAddr,6);
2342:.\BLEApplication.c ****                     printf("AT+OK\r\n");
2343:.\BLEApplication.c ****                 }
2344:.\BLEApplication.c ****             break;
2345:.\BLEApplication.c ****             case '3':
2346:.\BLEApplication.c ****                 API_RESULT=CyBle_GapcConnectDevice(&DeviceInfo[idx-1-0x30].DeviceList);
 1320              		.loc 1 2346 0
 1321 0072 2D4D     		ldr	r5, .L130+20
 1322 0074 281C     		mov	r0, r5
 1323 0076 FFF7FEFF 		bl	CyBle_GapcConnectDevice
 1324              	.LVL165:
 1325 007a 021E     		sub	r2, r0, #0
 1326              	.LVL166:
2347:.\BLEApplication.c ****                 if(CYBLE_ERROR_OK!=API_RESULT)  
 1327              		.loc 1 2347 0
 1328 007c 02D0     		beq	.L118
2348:.\BLEApplication.c ****                 {
2349:.\BLEApplication.c ****                     printf("AT+ERR=%d,0x%02X\r\n",idx-0x30,API_RESULT);                    
 1329              		.loc 1 2349 0
 1330 007e 2748     		ldr	r0, .L130+8
 1331              	.LVL167:
 1332 0080 0321     		mov	r1, #3
 1333 0082 EBE7     		b	.L126
 1334              	.LVL168:
 1335              	.L118:
2350:.\BLEApplication.c ****                 }
2351:.\BLEApplication.c ****                 else
2352:.\BLEApplication.c ****                 {
2353:.\BLEApplication.c ****                     Conn_Or_Disconn_Info.Connected_Count++;
 1336              		.loc 1 2353 0
 1337 0084 264A     		ldr	r2, .L130+12
2354:.\BLEApplication.c ****                     Conn_Or_Disconn_Info.Connect_Idx[Conn_Or_Disconn_Info.Connected_Count-1]=idx-0x
 1338              		.loc 1 2354 0
 1339 0086 0321     		mov	r1, #3
2353:.\BLEApplication.c ****                     Conn_Or_Disconn_Info.Connect_Idx[Conn_Or_Disconn_Info.Connected_Count-1]=idx-0x
 1340              		.loc 1 2353 0
 1341 0088 137A     		ldrb	r3, [r2, #8]
 1342 008a 0133     		add	r3, r3, #1
 1343 008c DBB2     		uxtb	r3, r3
ARM GAS  C:\Users\Helon\AppData\Local\Temp\ccKCxrf8.s 			page 69


 1344 008e 1372     		strb	r3, [r2, #8]
 1345              		.loc 1 2354 0
 1346 0090 013B     		sub	r3, r3, #1
 1347 0092 0FE0     		b	.L128
 1348              	.LVL169:
 1349              	.L114:
2355:.\BLEApplication.c ****                     Conn_or_Disconn_Idx=idx-0x30;
2356:.\BLEApplication.c ****                     memcpy(Conn_Or_Disconn_Info.DeviceAddr[Conn_Or_Disconn_Info.Connected_Count-1].
2357:.\BLEApplication.c ****                            DeviceInfo[idx-1-0x30].DeviceList.bdAddr,6);
2358:.\BLEApplication.c ****                     printf("AT+OK\r\n");
2359:.\BLEApplication.c ****                 }
2360:.\BLEApplication.c ****             break;
2361:.\BLEApplication.c ****             case '4':
2362:.\BLEApplication.c ****                 API_RESULT=CyBle_GapcConnectDevice(&DeviceInfo[idx-1-0x30].DeviceList);
 1350              		.loc 1 2362 0
 1351 0094 254D     		ldr	r5, .L130+24
 1352 0096 281C     		mov	r0, r5
 1353 0098 FFF7FEFF 		bl	CyBle_GapcConnectDevice
 1354              	.LVL170:
 1355 009c 021E     		sub	r2, r0, #0
 1356              	.LVL171:
2363:.\BLEApplication.c ****                 if(CYBLE_ERROR_OK!=API_RESULT)  
 1357              		.loc 1 2363 0
 1358 009e 02D0     		beq	.L119
2364:.\BLEApplication.c ****                 {
2365:.\BLEApplication.c ****                     printf("AT+ERR=%d,0x%02X\r\n",idx-0x30,API_RESULT);                    
 1359              		.loc 1 2365 0
 1360 00a0 1E48     		ldr	r0, .L130+8
 1361              	.LVL172:
 1362 00a2 0421     		mov	r1, #4
 1363 00a4 DAE7     		b	.L126
 1364              	.LVL173:
 1365              	.L119:
2366:.\BLEApplication.c ****                 }
2367:.\BLEApplication.c ****                 else
2368:.\BLEApplication.c ****                 {
2369:.\BLEApplication.c ****                     Conn_Or_Disconn_Info.Connected_Count++;
2370:.\BLEApplication.c ****                     Conn_Or_Disconn_Info.Connect_Idx[Conn_Or_Disconn_Info.Connected_Count-1]=idx-0x
 1366              		.loc 1 2370 0
 1367 00a6 0421     		mov	r1, #4
2369:.\BLEApplication.c ****                     Conn_Or_Disconn_Info.Connect_Idx[Conn_Or_Disconn_Info.Connected_Count-1]=idx-0x
 1368              		.loc 1 2369 0
 1369 00a8 1D4A     		ldr	r2, .L130+12
 1370 00aa 137A     		ldrb	r3, [r2, #8]
 1371 00ac 0133     		add	r3, r3, #1
 1372 00ae DBB2     		uxtb	r3, r3
 1373 00b0 1372     		strb	r3, [r2, #8]
 1374              		.loc 1 2370 0
 1375 00b2 013B     		sub	r3, r3, #1
 1376              	.L128:
2371:.\BLEApplication.c ****                     Conn_or_Disconn_Idx=idx-0x30;
2372:.\BLEApplication.c ****                     memcpy(Conn_Or_Disconn_Info.DeviceAddr[Conn_Or_Disconn_Info.Connected_Count-1].
 1377              		.loc 1 2372 0
 1378 00b4 0720     		mov	r0, #7
 1379              	.LVL174:
2370:.\BLEApplication.c ****                     Conn_or_Disconn_Idx=idx-0x30;
 1380              		.loc 1 2370 0
ARM GAS  C:\Users\Helon\AppData\Local\Temp\ccKCxrf8.s 			page 70


 1381 00b6 D154     		strb	r1, [r2, r3]
 1382              		.loc 1 2372 0
 1383 00b8 4343     		mul	r3, r0
 1384 00ba D018     		add	r0, r2, r3
2371:.\BLEApplication.c ****                     Conn_or_Disconn_Idx=idx-0x30;
 1385              		.loc 1 2371 0
 1386 00bc A170     		strb	r1, [r4, #2]
 1387              		.loc 1 2372 0
 1388 00be 0930     		add	r0, r0, #9
 1389 00c0 291C     		mov	r1, r5
 1390 00c2 0622     		mov	r2, #6
 1391 00c4 FFF7FEFF 		bl	memcpy
 1392              	.LVL175:
2373:.\BLEApplication.c ****                            DeviceInfo[idx-1-0x30].DeviceList.bdAddr,6);
2374:.\BLEApplication.c ****                     printf("AT+OK\r\n");
 1393              		.loc 1 2374 0
 1394 00c8 1948     		ldr	r0, .L130+28
 1395 00ca 1FE0     		b	.L127
 1396              	.L115:
2375:.\BLEApplication.c ****                 }
2376:.\BLEApplication.c ****             break;
2377:.\BLEApplication.c ****             case '?':
2378:.\BLEApplication.c ****                 if(CYBLE_STATE_CONNECTED==CyBle_GetState())
 1397              		.loc 1 2378 0
 1398 00cc 194B     		ldr	r3, .L130+32
 1399 00ce 0024     		mov	r4, #0
 1400 00d0 1B78     		ldrb	r3, [r3]
 1401 00d2 022B     		cmp	r3, #2
 1402 00d4 17D1     		bne	.L129
 1403              	.L120:
 1404              	.LVL176:
2379:.\BLEApplication.c ****                 {
2380:.\BLEApplication.c ****                     for(i=0;i<Conn_Or_Disconn_Info.Connected_Count;i++)
 1405              		.loc 1 2380 0
 1406 00d6 124B     		ldr	r3, .L130+12
 1407 00d8 1A7A     		ldrb	r2, [r3, #8]
 1408 00da A242     		cmp	r2, r4
 1409 00dc 18D9     		bls	.L107
2381:.\BLEApplication.c ****                     {
2382:.\BLEApplication.c ****                         printf("+INQ_CONN=%d,%02X%02X%02X%02X%02X%02X\r\n",
2383:.\BLEApplication.c ****                         Conn_Or_Disconn_Info.Connect_Idx[i],
2384:.\BLEApplication.c ****                         Conn_Or_Disconn_Info.DeviceAddr[i].bdAddr[5],
 1410              		.loc 1 2384 0
 1411 00de 0720     		mov	r0, #7
 1412 00e0 6043     		mul	r0, r4
 1413 00e2 1818     		add	r0, r3, r0
2382:.\BLEApplication.c ****                         Conn_Or_Disconn_Info.Connect_Idx[i],
 1414              		.loc 1 2382 0
 1415 00e4 057B     		ldrb	r5, [r0, #12]
 1416 00e6 195D     		ldrb	r1, [r3, r4]
 1417 00e8 827B     		ldrb	r2, [r0, #14]
 1418 00ea 437B     		ldrb	r3, [r0, #13]
 1419 00ec 0095     		str	r5, [sp]
 1420 00ee C57A     		ldrb	r5, [r0, #11]
2380:.\BLEApplication.c ****                     {
 1421              		.loc 1 2380 0
 1422 00f0 0134     		add	r4, r4, #1
ARM GAS  C:\Users\Helon\AppData\Local\Temp\ccKCxrf8.s 			page 71


 1423              	.LVL177:
2382:.\BLEApplication.c ****                         Conn_Or_Disconn_Info.Connect_Idx[i],
 1424              		.loc 1 2382 0
 1425 00f2 0195     		str	r5, [sp, #4]
 1426 00f4 857A     		ldrb	r5, [r0, #10]
2380:.\BLEApplication.c ****                     {
 1427              		.loc 1 2380 0
 1428 00f6 E4B2     		uxtb	r4, r4
2382:.\BLEApplication.c ****                         Conn_Or_Disconn_Info.Connect_Idx[i],
 1429              		.loc 1 2382 0
 1430 00f8 0295     		str	r5, [sp, #8]
 1431 00fa 407A     		ldrb	r0, [r0, #9]
 1432 00fc 0390     		str	r0, [sp, #12]
 1433 00fe 0E48     		ldr	r0, .L130+36
 1434 0100 FFF7FEFF 		bl	printf
 1435              	.LVL178:
 1436 0104 E7E7     		b	.L120
 1437              	.LVL179:
 1438              	.L129:
2385:.\BLEApplication.c ****                         Conn_Or_Disconn_Info.DeviceAddr[i].bdAddr[4],
2386:.\BLEApplication.c ****                         Conn_Or_Disconn_Info.DeviceAddr[i].bdAddr[3],
2387:.\BLEApplication.c ****                         Conn_Or_Disconn_Info.DeviceAddr[i].bdAddr[2],
2388:.\BLEApplication.c ****                         Conn_Or_Disconn_Info.DeviceAddr[i].bdAddr[1],
2389:.\BLEApplication.c ****                         Conn_Or_Disconn_Info.DeviceAddr[i].bdAddr[0]
2390:.\BLEApplication.c ****                       );
2391:.\BLEApplication.c ****                     }
2392:.\BLEApplication.c ****                 }
2393:.\BLEApplication.c ****                 else
2394:.\BLEApplication.c ****                 {
2395:.\BLEApplication.c ****                     printf("AT+ERR=3\r\n");//Ë°®Á§∫ÂΩìÂâçÁä∂ÊÄÅ‰∏çÊîØÊåÅËØ•ÂëΩ‰ª§
 1439              		.loc 1 2395 0
 1440 0106 0D48     		ldr	r0, .L130+40
 1441 0108 00E0     		b	.L127
 1442              	.LVL180:
 1443              	.L108:
 1444              	.LBE35:
 1445              	.LBE34:
2396:.\BLEApplication.c ****                 }
2397:.\BLEApplication.c ****                 
2398:.\BLEApplication.c ****             break;
2399:.\BLEApplication.c ****         }
2400:.\BLEApplication.c ****     }
2401:.\BLEApplication.c ****     else
2402:.\BLEApplication.c ****     {
2403:.\BLEApplication.c ****         printf("AT+ERR=4\r\n");//Ë°®Á§∫ÂΩìÂâçËßíËâ≤‰∏çÊîØÊåÅËØ•ÂëΩ‰ª§ 
 1446              		.loc 1 2403 0
 1447 010a 0D48     		ldr	r0, .L130+44
 1448              	.LVL181:
 1449              	.L127:
 1450 010c FFF7FEFF 		bl	puts
 1451              	.LVL182:
 1452              	.L107:
2404:.\BLEApplication.c ****     }
2405:.\BLEApplication.c **** }
 1453              		.loc 1 2405 0
 1454 0110 05B0     		add	sp, sp, #20
 1455              		@ sp needed
ARM GAS  C:\Users\Helon\AppData\Local\Temp\ccKCxrf8.s 			page 72


 1456 0112 30BD     		pop	{r4, r5, pc}
 1457              	.L131:
 1458              		.align	2
 1459              	.L130:
 1460 0114 00000000 		.word	.LANCHOR0
 1461 0118 00000000 		.word	DeviceInfo
 1462 011c 37010000 		.word	.LC64
 1463 0120 00000000 		.word	Conn_Or_Disconn_Info
 1464 0124 1E000000 		.word	DeviceInfo+30
 1465 0128 3C000000 		.word	DeviceInfo+60
 1466 012c 5A000000 		.word	DeviceInfo+90
 1467 0130 4A010000 		.word	.LC67
 1468 0134 00000000 		.word	cyBle_state
 1469 0138 51010000 		.word	.LC73
 1470 013c 79010000 		.word	.LC75
 1471 0140 83010000 		.word	.LC77
 1472              		.cfi_endproc
 1473              	.LFE49:
 1474              		.size	Connect_Device, .-Connect_Device
 1475              		.section	.text.UartBuadRate_Handler,"ax",%progbits
 1476              		.align	1
 1477              		.global	UartBuadRate_Handler
 1478              		.code	16
 1479              		.thumb_func
 1480              		.type	UartBuadRate_Handler, %function
 1481              	UartBuadRate_Handler:
 1482              	.LFB50:
2406:.\BLEApplication.c **** /******************************************************************************
2407:.\BLEApplication.c **** * Function Name: UartBuadRate_Handler
2408:.\BLEApplication.c **** ***************************************************************************//**
2409:.\BLEApplication.c **** * 
2410:.\BLEApplication.c **** *  ËÆæÂ§á‰∏≤Âè£Ê≥¢ÁâπÁéáÊàñËÄÖÊü•ËØ¢ÂΩìÂâçÁöÑ‰∏≤Âè£Ê≥¢ÁâπÁéá
2411:.\BLEApplication.c **** * \param  idx:ËÆæÁΩÆÁöÑÊ≥¢ÁâπÁéáÂÄºÊàñÊü•ËØ¢Ê≥¢ÁâπÁéáÁöÑÁä∂ÊÄÅ
2412:.\BLEApplication.c **** * \return none
2413:.\BLEApplication.c **** *  
2414:.\BLEApplication.c **** * 
2415:.\BLEApplication.c **** ******************************************************************************/
2416:.\BLEApplication.c **** void UartBuadRate_Handler(uint8_t idx)
2417:.\BLEApplication.c **** {
 1483              		.loc 1 2417 0
 1484              		.cfi_startproc
 1485              	.LVL183:
 1486 0000 70B5     		push	{r4, r5, r6, lr}
 1487              		.cfi_def_cfa_offset 16
 1488              		.cfi_offset 4, -16
 1489              		.cfi_offset 5, -12
 1490              		.cfi_offset 6, -8
 1491              		.cfi_offset 14, -4
 1492              		.loc 1 2417 0
 1493 0002 041E     		sub	r4, r0, #0
2418:.\BLEApplication.c ****     switch(idx)
 1494              		.loc 1 2418 0
 1495 0004 362C     		cmp	r4, #54
 1496 0006 00D1     		bne	.LCB1368
 1497 0008 89E0     		b	.L134	@long jump
 1498              	.LCB1368:
 1499 000a 3628     		cmp	r0, #54
ARM GAS  C:\Users\Helon\AppData\Local\Temp\ccKCxrf8.s 			page 73


 1500 000c 1AD8     		bhi	.L135
 1501 000e 3228     		cmp	r0, #50
 1502 0010 4ED0     		beq	.L136
 1503 0012 0BD8     		bhi	.L137
 1504 0014 3028     		cmp	r0, #48
 1505 0016 2FD0     		beq	.L138
 1506 0018 3128     		cmp	r0, #49
 1507 001a 00D0     		beq	.LCB1378
 1508 001c A5E1     		b	.L132	@long jump
 1509              	.LCB1378:
2419:.\BLEApplication.c ****     {
2420:.\BLEApplication.c **** //                1200
2421:.\BLEApplication.c ****         case '0':                     
2422:.\BLEApplication.c ****              printf("AT+BAUD=<1200>\r\n");
2423:.\BLEApplication.c ****              printf("OK\r\n");
2424:.\BLEApplication.c ****              while((UART_SpiUartGetTxBufferSize() + UART_GET_TX_FIFO_SR_VALID) != 0);//Á≠âÂæÖ‰∏≤Âè£
2425:.\BLEApplication.c ****              SetUartConfiguration(BAUD_1200);
2426:.\BLEApplication.c ****              Baud_rate_idx=idx;
2427:.\BLEApplication.c ****         break;
2428:.\BLEApplication.c **** //                2400
2429:.\BLEApplication.c ****         case '1':
2430:.\BLEApplication.c ****              printf("AT+BAUD=<2400>\r\n");
 1510              		.loc 1 2430 0
 1511 001e B548     		ldr	r0, .L201
 1512              	.LVL184:
 1513 0020 FFF7FEFF 		bl	puts
 1514              	.LVL185:
2431:.\BLEApplication.c ****              printf("OK\r\n");
 1515              		.loc 1 2431 0
 1516 0024 B448     		ldr	r0, .L201+4
 1517 0026 FFF7FEFF 		bl	puts
 1518              	.LVL186:
2432:.\BLEApplication.c ****              while((UART_SpiUartGetTxBufferSize() + UART_GET_TX_FIFO_SR_VALID) != 0);//Á≠âÂæÖ‰∏≤Âè£
 1519              		.loc 1 2432 0
 1520 002a 35E0     		b	.L150
 1521              	.LVL187:
 1522              	.L137:
 1523 002c B24E     		ldr	r6, .L201+4
 1524 002e B34D     		ldr	r5, .L201+8
2418:.\BLEApplication.c ****     {
 1525              		.loc 1 2418 0
 1526 0030 3428     		cmp	r0, #52
 1527 0032 56D0     		beq	.L140
 1528 0034 64D8     		bhi	.L200
2433:.\BLEApplication.c ****              SetUartConfiguration(BAUD_2400);
2434:.\BLEApplication.c ****              Baud_rate_idx=idx;
2435:.\BLEApplication.c ****         break;
2436:.\BLEApplication.c **** //                4800
2437:.\BLEApplication.c ****         case '2':
2438:.\BLEApplication.c ****              printf("AT+BAUD=<4800>\r\n");
2439:.\BLEApplication.c ****              printf("OK\r\n");
2440:.\BLEApplication.c ****              while((UART_SpiUartGetTxBufferSize() + UART_GET_TX_FIFO_SR_VALID) != 0);//Á≠âÂæÖ‰∏≤Âè£
2441:.\BLEApplication.c ****              SetUartConfiguration(BAUD_4800);
2442:.\BLEApplication.c ****              Baud_rate_idx=idx;
2443:.\BLEApplication.c ****         break;
2444:.\BLEApplication.c **** //                9600
2445:.\BLEApplication.c ****         case '3':
ARM GAS  C:\Users\Helon\AppData\Local\Temp\ccKCxrf8.s 			page 74


2446:.\BLEApplication.c ****              printf("AT+BAUD=<9600>\r\n");
 1529              		.loc 1 2446 0
 1530 0036 B248     		ldr	r0, .L201+12
 1531              	.LVL188:
 1532 0038 FFF7FEFF 		bl	puts
 1533              	.LVL189:
2447:.\BLEApplication.c ****              printf("OK\r\n");
 1534              		.loc 1 2447 0
 1535 003c 301C     		mov	r0, r6
 1536 003e FFF7FEFF 		bl	puts
 1537              	.LVL190:
2448:.\BLEApplication.c ****              while((UART_SpiUartGetTxBufferSize() + UART_GET_TX_FIFO_SR_VALID) != 0);//Á≠âÂæÖ‰∏≤Âè£
 1538              		.loc 1 2448 0
 1539 0042 45E0     		b	.L152
 1540              	.LVL191:
 1541              	.L135:
2418:.\BLEApplication.c ****     {
 1542              		.loc 1 2418 0
 1543 0044 3928     		cmp	r0, #57
 1544 0046 00D1     		bne	.LCB1410
 1545 0048 93E0     		b	.L143	@long jump
 1546              	.LCB1410:
 1547 004a 0BD8     		bhi	.L144
 1548 004c 3728     		cmp	r0, #55
 1549 004e 76D0     		beq	.L145
 1550 0050 3828     		cmp	r0, #56
 1551 0052 00D0     		beq	.LCB1416
 1552 0054 89E1     		b	.L132	@long jump
 1553              	.LCB1416:
2449:.\BLEApplication.c ****              SetUartConfiguration(BAUD_9600);
2450:.\BLEApplication.c ****              Baud_rate_idx=idx;
2451:.\BLEApplication.c ****         break;
2452:.\BLEApplication.c ****         case '4':
2453:.\BLEApplication.c ****              printf("AT+BAUD=<19200>\r\n");
2454:.\BLEApplication.c ****              printf("OK\r\n");
2455:.\BLEApplication.c ****              while((UART_SpiUartGetTxBufferSize() + UART_GET_TX_FIFO_SR_VALID) != 0);//Á≠âÂæÖ‰∏≤Âè£
2456:.\BLEApplication.c ****              SetUartConfiguration(BAUD_19200);
2457:.\BLEApplication.c ****              Baud_rate_idx=idx;
2458:.\BLEApplication.c ****         break;
2459:.\BLEApplication.c ****         case '5':
2460:.\BLEApplication.c ****              printf("AT+BAUD=<38400>\r\n");
2461:.\BLEApplication.c ****              printf("OK\r\n");
2462:.\BLEApplication.c ****              while((UART_SpiUartGetTxBufferSize() + UART_GET_TX_FIFO_SR_VALID) != 0);//Á≠âÂæÖ‰∏≤Âè£
2463:.\BLEApplication.c ****              SetUartConfiguration(BAUD_38400);
2464:.\BLEApplication.c ****              Baud_rate_idx=idx;
2465:.\BLEApplication.c ****         break;
2466:.\BLEApplication.c **** //                57600
2467:.\BLEApplication.c ****         case '6':
2468:.\BLEApplication.c ****              printf("AT+BAUD=<57600>\r\n");
2469:.\BLEApplication.c ****              printf("OK\r\n");
2470:.\BLEApplication.c ****              while((UART_SpiUartGetTxBufferSize() + UART_GET_TX_FIFO_SR_VALID) != 0);//Á≠âÂæÖ‰∏≤Âè£
2471:.\BLEApplication.c ****              SetUartConfiguration(BAUD_57600);
2472:.\BLEApplication.c ****              Baud_rate_idx=idx;
2473:.\BLEApplication.c ****         break;
2474:.\BLEApplication.c ****         case '7':
2475:.\BLEApplication.c ****              printf("AT+BAUD=<115200>\r\n");
2476:.\BLEApplication.c ****              printf("OK\r\n");
ARM GAS  C:\Users\Helon\AppData\Local\Temp\ccKCxrf8.s 			page 75


2477:.\BLEApplication.c ****              while((UART_SpiUartGetTxBufferSize() + UART_GET_TX_FIFO_SR_VALID) != 0);//Á≠âÂæÖ‰∏≤Âè£
2478:.\BLEApplication.c ****              SetUartConfiguration(BAUD_115200);
2479:.\BLEApplication.c ****              Baud_rate_idx=idx;
2480:.\BLEApplication.c ****         break;
2481:.\BLEApplication.c ****         case '8':
2482:.\BLEApplication.c ****              printf("AT+BAUD=<230400>\r\n");
 1554              		.loc 1 2482 0
 1555 0056 AB48     		ldr	r0, .L201+16
 1556              	.LVL192:
 1557 0058 FFF7FEFF 		bl	puts
 1558              	.LVL193:
2483:.\BLEApplication.c ****              printf("OK\r\n");
 1559              		.loc 1 2483 0
 1560 005c A648     		ldr	r0, .L201+4
 1561 005e FFF7FEFF 		bl	puts
 1562              	.LVL194:
2484:.\BLEApplication.c ****              while((UART_SpiUartGetTxBufferSize() + UART_GET_TX_FIFO_SR_VALID) != 0);//Á≠âÂæÖ‰∏≤Âè£
 1563              		.loc 1 2484 0
 1564 0062 7CE0     		b	.L157
 1565              	.LVL195:
 1566              	.L144:
2418:.\BLEApplication.c ****     {
 1567              		.loc 1 2418 0
 1568 0064 4128     		cmp	r0, #65
 1569 0066 00D1     		bne	.LCB1430
 1570 0068 93E0     		b	.L147	@long jump
 1571              	.LCB1430:
 1572 006a 6128     		cmp	r0, #97
 1573 006c 00D1     		bne	.LCB1432
 1574 006e 90E0     		b	.L147	@long jump
 1575              	.LCB1432:
 1576 0070 3F28     		cmp	r0, #63
 1577 0072 00D1     		bne	.LCB1434
 1578 0074 9EE0     		b	.L148	@long jump
 1579              	.LCB1434:
 1580 0076 78E1     		b	.L132
 1581              	.L138:
2422:.\BLEApplication.c ****              printf("OK\r\n");
 1582              		.loc 1 2422 0
 1583 0078 A348     		ldr	r0, .L201+20
 1584              	.LVL196:
 1585 007a FFF7FEFF 		bl	puts
 1586              	.LVL197:
2423:.\BLEApplication.c ****              while((UART_SpiUartGetTxBufferSize() + UART_GET_TX_FIFO_SR_VALID) != 0);//Á≠âÂæÖ‰∏≤Âè£
 1587              		.loc 1 2423 0
 1588 007e 9E48     		ldr	r0, .L201+4
 1589 0080 FFF7FEFF 		bl	puts
 1590              	.LVL198:
 1591              	.L149:
2424:.\BLEApplication.c ****              SetUartConfiguration(BAUD_1200);
 1592              		.loc 1 2424 0 discriminator 5
 1593 0084 FFF7FEFF 		bl	UART_SpiUartGetTxBufferSize
 1594              	.LVL199:
 1595 0088 9C4B     		ldr	r3, .L201+8
 1596 008a 1B68     		ldr	r3, [r3]
 1597 008c 1B04     		lsl	r3, r3, #16
 1598 008e DB17     		asr	r3, r3, #31
ARM GAS  C:\Users\Helon\AppData\Local\Temp\ccKCxrf8.s 			page 76


 1599 0090 8342     		cmp	r3, r0
 1600 0092 F7D1     		bne	.L149
 1601              	.LVL200:
2426:.\BLEApplication.c ****         break;
 1602              		.loc 1 2426 0
 1603 0094 3022     		mov	r2, #48
 1604 0096 08E0     		b	.L199
 1605              	.LVL201:
 1606              	.L150:
2432:.\BLEApplication.c ****              SetUartConfiguration(BAUD_2400);
 1607              		.loc 1 2432 0 discriminator 5
 1608 0098 FFF7FEFF 		bl	UART_SpiUartGetTxBufferSize
 1609              	.LVL202:
 1610 009c 974B     		ldr	r3, .L201+8
 1611 009e 1B68     		ldr	r3, [r3]
 1612 00a0 1B04     		lsl	r3, r3, #16
 1613 00a2 DB17     		asr	r3, r3, #31
 1614 00a4 8342     		cmp	r3, r0
 1615 00a6 F7D1     		bne	.L150
 1616              	.LVL203:
2434:.\BLEApplication.c ****         break;
 1617              		.loc 1 2434 0
 1618 00a8 3122     		mov	r2, #49
 1619              	.LVL204:
 1620              	.L199:
 1621 00aa 984B     		ldr	r3, .L201+24
 1622 00ac 1A71     		strb	r2, [r3, #4]
2435:.\BLEApplication.c **** //                4800
 1623              		.loc 1 2435 0
 1624 00ae 5CE1     		b	.L132
 1625              	.LVL205:
 1626              	.L136:
2438:.\BLEApplication.c ****              printf("OK\r\n");
 1627              		.loc 1 2438 0
 1628 00b0 9748     		ldr	r0, .L201+28
 1629              	.LVL206:
 1630 00b2 FFF7FEFF 		bl	puts
 1631              	.LVL207:
2439:.\BLEApplication.c ****              while((UART_SpiUartGetTxBufferSize() + UART_GET_TX_FIFO_SR_VALID) != 0);//Á≠âÂæÖ‰∏≤Âè£
 1632              		.loc 1 2439 0
 1633 00b6 9048     		ldr	r0, .L201+4
 1634 00b8 FFF7FEFF 		bl	puts
 1635              	.LVL208:
 1636              	.L151:
2440:.\BLEApplication.c ****              SetUartConfiguration(BAUD_4800);
 1637              		.loc 1 2440 0 discriminator 5
 1638 00bc FFF7FEFF 		bl	UART_SpiUartGetTxBufferSize
 1639              	.LVL209:
 1640 00c0 8E4B     		ldr	r3, .L201+8
 1641 00c2 1B68     		ldr	r3, [r3]
 1642 00c4 1B04     		lsl	r3, r3, #16
 1643 00c6 DB17     		asr	r3, r3, #31
 1644 00c8 8342     		cmp	r3, r0
 1645 00ca F7D1     		bne	.L151
 1646              	.LVL210:
2442:.\BLEApplication.c ****         break;
 1647              		.loc 1 2442 0
ARM GAS  C:\Users\Helon\AppData\Local\Temp\ccKCxrf8.s 			page 77


 1648 00cc 3222     		mov	r2, #50
 1649 00ce ECE7     		b	.L199
 1650              	.LVL211:
 1651              	.L152:
2448:.\BLEApplication.c ****              SetUartConfiguration(BAUD_9600);
 1652              		.loc 1 2448 0 discriminator 5
 1653 00d0 FFF7FEFF 		bl	UART_SpiUartGetTxBufferSize
 1654              	.LVL212:
 1655 00d4 2B68     		ldr	r3, [r5]
 1656 00d6 1B04     		lsl	r3, r3, #16
 1657 00d8 DB17     		asr	r3, r3, #31
 1658 00da 8342     		cmp	r3, r0
 1659 00dc F8D1     		bne	.L152
 1660              	.LVL213:
2450:.\BLEApplication.c ****         break;
 1661              		.loc 1 2450 0
 1662 00de 3322     		mov	r2, #51
 1663 00e0 E3E7     		b	.L199
 1664              	.LVL214:
 1665              	.L140:
2453:.\BLEApplication.c ****              printf("OK\r\n");
 1666              		.loc 1 2453 0
 1667 00e2 8C48     		ldr	r0, .L201+32
 1668              	.LVL215:
 1669 00e4 FFF7FEFF 		bl	puts
 1670              	.LVL216:
2454:.\BLEApplication.c ****              while((UART_SpiUartGetTxBufferSize() + UART_GET_TX_FIFO_SR_VALID) != 0);//Á≠âÂæÖ‰∏≤Âè£
 1671              		.loc 1 2454 0
 1672 00e8 301C     		mov	r0, r6
 1673 00ea FFF7FEFF 		bl	puts
 1674              	.LVL217:
 1675              	.L153:
2455:.\BLEApplication.c ****              SetUartConfiguration(BAUD_19200);
 1676              		.loc 1 2455 0 discriminator 5
 1677 00ee FFF7FEFF 		bl	UART_SpiUartGetTxBufferSize
 1678              	.LVL218:
 1679 00f2 2B68     		ldr	r3, [r5]
 1680 00f4 1B04     		lsl	r3, r3, #16
 1681 00f6 DB17     		asr	r3, r3, #31
 1682 00f8 8342     		cmp	r3, r0
 1683 00fa F8D1     		bne	.L153
 1684              	.LVL219:
2457:.\BLEApplication.c ****         break;
 1685              		.loc 1 2457 0
 1686 00fc 3422     		mov	r2, #52
 1687 00fe D4E7     		b	.L199
 1688              	.LVL220:
 1689              	.L200:
2460:.\BLEApplication.c ****              printf("OK\r\n");
 1690              		.loc 1 2460 0
 1691 0100 8548     		ldr	r0, .L201+36
 1692              	.LVL221:
 1693 0102 FFF7FEFF 		bl	puts
 1694              	.LVL222:
2461:.\BLEApplication.c ****              while((UART_SpiUartGetTxBufferSize() + UART_GET_TX_FIFO_SR_VALID) != 0);//Á≠âÂæÖ‰∏≤Âè£
 1695              		.loc 1 2461 0
 1696 0106 301C     		mov	r0, r6
ARM GAS  C:\Users\Helon\AppData\Local\Temp\ccKCxrf8.s 			page 78


 1697 0108 FFF7FEFF 		bl	puts
 1698              	.LVL223:
 1699              	.L154:
2462:.\BLEApplication.c ****              SetUartConfiguration(BAUD_38400);
 1700              		.loc 1 2462 0 discriminator 5
 1701 010c FFF7FEFF 		bl	UART_SpiUartGetTxBufferSize
 1702              	.LVL224:
 1703 0110 2B68     		ldr	r3, [r5]
 1704 0112 1B04     		lsl	r3, r3, #16
 1705 0114 DB17     		asr	r3, r3, #31
 1706 0116 8342     		cmp	r3, r0
 1707 0118 F8D1     		bne	.L154
 1708              	.LVL225:
2464:.\BLEApplication.c ****         break;
 1709              		.loc 1 2464 0
 1710 011a 3522     		mov	r2, #53
 1711 011c C5E7     		b	.L199
 1712              	.LVL226:
 1713              	.L134:
2468:.\BLEApplication.c ****              printf("OK\r\n");
 1714              		.loc 1 2468 0
 1715 011e 7F48     		ldr	r0, .L201+40
 1716              	.LVL227:
 1717 0120 FFF7FEFF 		bl	puts
 1718              	.LVL228:
2469:.\BLEApplication.c ****              while((UART_SpiUartGetTxBufferSize() + UART_GET_TX_FIFO_SR_VALID) != 0);//Á≠âÂæÖ‰∏≤Âè£
 1719              		.loc 1 2469 0
 1720 0124 7448     		ldr	r0, .L201+4
 1721 0126 FFF7FEFF 		bl	puts
 1722              	.LVL229:
 1723              	.L155:
2470:.\BLEApplication.c ****              SetUartConfiguration(BAUD_57600);
 1724              		.loc 1 2470 0 discriminator 5
 1725 012a FFF7FEFF 		bl	UART_SpiUartGetTxBufferSize
 1726              	.LVL230:
 1727 012e 734B     		ldr	r3, .L201+8
 1728 0130 1B68     		ldr	r3, [r3]
 1729 0132 1B04     		lsl	r3, r3, #16
 1730 0134 DB17     		asr	r3, r3, #31
 1731 0136 8342     		cmp	r3, r0
 1732 0138 F7D1     		bne	.L155
 1733              	.LVL231:
2472:.\BLEApplication.c ****         break;
 1734              		.loc 1 2472 0
 1735 013a 3622     		mov	r2, #54
 1736 013c B5E7     		b	.L199
 1737              	.LVL232:
 1738              	.L145:
2475:.\BLEApplication.c ****              printf("OK\r\n");
 1739              		.loc 1 2475 0
 1740 013e 7848     		ldr	r0, .L201+44
 1741              	.LVL233:
 1742 0140 FFF7FEFF 		bl	puts
 1743              	.LVL234:
2476:.\BLEApplication.c ****              while((UART_SpiUartGetTxBufferSize() + UART_GET_TX_FIFO_SR_VALID) != 0);//Á≠âÂæÖ‰∏≤Âè£
 1744              		.loc 1 2476 0
 1745 0144 6C48     		ldr	r0, .L201+4
ARM GAS  C:\Users\Helon\AppData\Local\Temp\ccKCxrf8.s 			page 79


 1746 0146 FFF7FEFF 		bl	puts
 1747              	.LVL235:
 1748              	.L156:
2477:.\BLEApplication.c ****              SetUartConfiguration(BAUD_115200);
 1749              		.loc 1 2477 0 discriminator 5
 1750 014a FFF7FEFF 		bl	UART_SpiUartGetTxBufferSize
 1751              	.LVL236:
 1752 014e 6B4B     		ldr	r3, .L201+8
 1753 0150 1B68     		ldr	r3, [r3]
 1754 0152 1B04     		lsl	r3, r3, #16
 1755 0154 DB17     		asr	r3, r3, #31
 1756 0156 8342     		cmp	r3, r0
 1757 0158 F7D1     		bne	.L156
 1758              	.LVL237:
2479:.\BLEApplication.c ****         break;
 1759              		.loc 1 2479 0
 1760 015a 3722     		mov	r2, #55
 1761 015c A5E7     		b	.L199
 1762              	.LVL238:
 1763              	.L157:
 1764              		.loc 1 2484 0 discriminator 5
 1765 015e FFF7FEFF 		bl	UART_SpiUartGetTxBufferSize
 1766              	.LVL239:
 1767 0162 664B     		ldr	r3, .L201+8
 1768 0164 1B68     		ldr	r3, [r3]
 1769 0166 1B04     		lsl	r3, r3, #16
 1770 0168 DB17     		asr	r3, r3, #31
 1771 016a 8342     		cmp	r3, r0
 1772 016c F7D1     		bne	.L157
 1773              	.LVL240:
2485:.\BLEApplication.c ****              SetUartConfiguration(BAUD_230400);
2486:.\BLEApplication.c ****              Baud_rate_idx=idx;
 1774              		.loc 1 2486 0
 1775 016e 3822     		mov	r2, #56
 1776 0170 9BE7     		b	.L199
 1777              	.LVL241:
 1778              	.L143:
2487:.\BLEApplication.c ****         break;
2488:.\BLEApplication.c ****         case '9':
2489:.\BLEApplication.c ****              printf("AT+BAUD=<460800>\r\n");
 1779              		.loc 1 2489 0
 1780 0172 6C48     		ldr	r0, .L201+48
 1781              	.LVL242:
 1782 0174 FFF7FEFF 		bl	puts
 1783              	.LVL243:
2490:.\BLEApplication.c ****              printf("OK\r\n");
 1784              		.loc 1 2490 0
 1785 0178 5F48     		ldr	r0, .L201+4
 1786 017a FFF7FEFF 		bl	puts
 1787              	.LVL244:
 1788              	.L158:
2491:.\BLEApplication.c ****              while((UART_SpiUartGetTxBufferSize() + UART_GET_TX_FIFO_SR_VALID) != 0);//Á≠âÂæÖ‰∏≤Âè£
 1789              		.loc 1 2491 0 discriminator 5
 1790 017e FFF7FEFF 		bl	UART_SpiUartGetTxBufferSize
 1791              	.LVL245:
 1792 0182 5E4B     		ldr	r3, .L201+8
 1793 0184 1B68     		ldr	r3, [r3]
ARM GAS  C:\Users\Helon\AppData\Local\Temp\ccKCxrf8.s 			page 80


 1794 0186 1B04     		lsl	r3, r3, #16
 1795 0188 DB17     		asr	r3, r3, #31
 1796 018a 8342     		cmp	r3, r0
 1797 018c F7D1     		bne	.L158
 1798              	.LVL246:
2492:.\BLEApplication.c ****              SetUartConfiguration(BAUD_460800);
2493:.\BLEApplication.c ****              Baud_rate_idx=idx;
 1799              		.loc 1 2493 0
 1800 018e 3922     		mov	r2, #57
 1801 0190 8BE7     		b	.L199
 1802              	.LVL247:
 1803              	.L147:
2494:.\BLEApplication.c ****         break;
2495:.\BLEApplication.c ****         case 'a':
2496:.\BLEApplication.c ****         case 'A':
2497:.\BLEApplication.c ****              printf("AT+BAUD=<921600>\r\n");
 1804              		.loc 1 2497 0
 1805 0192 6548     		ldr	r0, .L201+52
 1806              	.LVL248:
 1807 0194 FFF7FEFF 		bl	puts
 1808              	.LVL249:
2498:.\BLEApplication.c ****              printf("OK\r\n");
 1809              		.loc 1 2498 0
 1810 0198 5748     		ldr	r0, .L201+4
 1811 019a FFF7FEFF 		bl	puts
 1812              	.LVL250:
 1813              	.L159:
2499:.\BLEApplication.c ****              while((UART_SpiUartGetTxBufferSize() + UART_GET_TX_FIFO_SR_VALID) != 0);//Á≠âÂæÖ‰∏≤Âè£
 1814              		.loc 1 2499 0 discriminator 5
 1815 019e FFF7FEFF 		bl	UART_SpiUartGetTxBufferSize
 1816              	.LVL251:
 1817 01a2 564B     		ldr	r3, .L201+8
 1818 01a4 1B68     		ldr	r3, [r3]
 1819 01a6 1B04     		lsl	r3, r3, #16
 1820 01a8 DB17     		asr	r3, r3, #31
 1821 01aa 8342     		cmp	r3, r0
 1822 01ac F7D1     		bne	.L159
 1823              	.LVL252:
2500:.\BLEApplication.c ****              SetUartConfiguration(BAUD_921600);
2501:.\BLEApplication.c ****              Baud_rate_idx=idx;
 1824              		.loc 1 2501 0
 1825 01ae 574B     		ldr	r3, .L201+24
 1826 01b0 1C71     		strb	r4, [r3, #4]
2502:.\BLEApplication.c ****         break;
 1827              		.loc 1 2502 0
 1828 01b2 DAE0     		b	.L132
 1829              	.LVL253:
 1830              	.L148:
2503:.\BLEApplication.c ****         case '?':
2504:.\BLEApplication.c ****             switch(Baud_rate_idx)
 1831              		.loc 1 2504 0
 1832 01b4 554B     		ldr	r3, .L201+24
 1833 01b6 1B79     		ldrb	r3, [r3, #4]
 1834 01b8 352B     		cmp	r3, #53
 1835 01ba 64D0     		beq	.L160
 1836 01bc 14D8     		bhi	.L161
 1837 01be 322B     		cmp	r3, #50
ARM GAS  C:\Users\Helon\AppData\Local\Temp\ccKCxrf8.s 			page 81


 1838 01c0 40D0     		beq	.L162
 1839 01c2 08D8     		bhi	.L163
 1840 01c4 302B     		cmp	r3, #48
 1841 01c6 28D0     		beq	.L164
 1842 01c8 312B     		cmp	r3, #49
 1843 01ca 00D0     		beq	.LCB1722
 1844 01cc CDE0     		b	.L132	@long jump
 1845              	.LCB1722:
2505:.\BLEApplication.c ****             {
2506:.\BLEApplication.c **** //                1200
2507:.\BLEApplication.c ****                 case '0':                     
2508:.\BLEApplication.c ****                      printf("+BAUD:<1200>\r\n");
2509:.\BLEApplication.c **** //                             printf("OK\r\n");
2510:.\BLEApplication.c ****                      while((UART_SpiUartGetTxBufferSize() + UART_GET_TX_FIFO_SR_VALID) != 0);//Á≠âÂ
2511:.\BLEApplication.c **** //                             SetUartConfiguration(BAUD_1200);
2512:.\BLEApplication.c ****                 break;
2513:.\BLEApplication.c **** //                2400
2514:.\BLEApplication.c ****                 case '1':
2515:.\BLEApplication.c ****                      printf("+BAUD:<2400>\r\n");
 1846              		.loc 1 2515 0
 1847 01ce 5748     		ldr	r0, .L201+56
 1848              	.LVL254:
 1849 01d0 FFF7FEFF 		bl	puts
 1850              	.LVL255:
2516:.\BLEApplication.c **** //                             printf("OK\r\n");
2517:.\BLEApplication.c ****                      while((UART_SpiUartGetTxBufferSize() + UART_GET_TX_FIFO_SR_VALID) != 0);//Á≠âÂ
 1851              		.loc 1 2517 0
 1852 01d4 2DE0     		b	.L175
 1853              	.LVL256:
 1854              	.L163:
2504:.\BLEApplication.c ****             {
 1855              		.loc 1 2504 0
 1856 01d6 332B     		cmp	r3, #51
 1857 01d8 40D0     		beq	.L166
 1858 01da 342B     		cmp	r3, #52
 1859 01dc 00D0     		beq	.LCB1735
 1860 01de C4E0     		b	.L132	@long jump
 1861              	.LCB1735:
2518:.\BLEApplication.c **** //                             SetUartConfiguration(BAUD_2400);
2519:.\BLEApplication.c ****                 break;
2520:.\BLEApplication.c **** //                4800
2521:.\BLEApplication.c ****                 case '2':
2522:.\BLEApplication.c ****                      printf("+BAUD:<4800>\r\n");
2523:.\BLEApplication.c **** //                             printf("OK\r\n");
2524:.\BLEApplication.c ****                      while((UART_SpiUartGetTxBufferSize() + UART_GET_TX_FIFO_SR_VALID) != 0);//Á≠âÂ
2525:.\BLEApplication.c **** //                             SetUartConfiguration(BAUD_4800);
2526:.\BLEApplication.c ****                 break;
2527:.\BLEApplication.c **** //                9600
2528:.\BLEApplication.c ****                 case '3':
2529:.\BLEApplication.c ****                      printf("+BAUD:<9600>\r\n");
2530:.\BLEApplication.c **** //                             printf("OK\r\n");
2531:.\BLEApplication.c ****                      while((UART_SpiUartGetTxBufferSize() + UART_GET_TX_FIFO_SR_VALID) != 0);//Á≠âÂ
2532:.\BLEApplication.c **** //                             SetUartConfiguration(BAUD_9600);
2533:.\BLEApplication.c ****                 break;
2534:.\BLEApplication.c ****                 case '4':
2535:.\BLEApplication.c ****                      printf("+BAUD:<19200>\r\n");
 1862              		.loc 1 2535 0
ARM GAS  C:\Users\Helon\AppData\Local\Temp\ccKCxrf8.s 			page 82


 1863 01e0 5348     		ldr	r0, .L201+60
 1864              	.LVL257:
 1865 01e2 FFF7FEFF 		bl	puts
 1866              	.LVL258:
2536:.\BLEApplication.c **** //                             printf("OK\r\n");
2537:.\BLEApplication.c ****                      while((UART_SpiUartGetTxBufferSize() + UART_GET_TX_FIFO_SR_VALID) != 0);//Á≠âÂ
 1867              		.loc 1 2537 0
 1868 01e6 45E0     		b	.L179
 1869              	.LVL259:
 1870              	.L161:
2504:.\BLEApplication.c ****             {
 1871              		.loc 1 2504 0
 1872 01e8 382B     		cmp	r3, #56
 1873 01ea 6DD0     		beq	.L168
 1874 01ec 08D8     		bhi	.L169
 1875 01ee 362B     		cmp	r3, #54
 1876 01f0 55D0     		beq	.L170
 1877 01f2 372B     		cmp	r3, #55
 1878 01f4 00D0     		beq	.LCB1752
 1879 01f6 B8E0     		b	.L132	@long jump
 1880              	.LCB1752:
2538:.\BLEApplication.c **** //                             SetUartConfiguration(BAUD_19200);
2539:.\BLEApplication.c ****                 break;
2540:.\BLEApplication.c ****                 case '5':
2541:.\BLEApplication.c ****                      printf("+BAUD:<38400>\r\n");
2542:.\BLEApplication.c **** //                             printf("OK\r\n");
2543:.\BLEApplication.c ****                      while((UART_SpiUartGetTxBufferSize() + UART_GET_TX_FIFO_SR_VALID) != 0);//Á≠âÂ
2544:.\BLEApplication.c **** //                             SetUartConfiguration(BAUD_38400);
2545:.\BLEApplication.c ****                 break;
2546:.\BLEApplication.c **** //                57600
2547:.\BLEApplication.c ****                 case '6':
2548:.\BLEApplication.c ****                      printf("+BAUD:<57600>\r\n");
2549:.\BLEApplication.c **** //                             printf("OK\r\n");
2550:.\BLEApplication.c ****                      while((UART_SpiUartGetTxBufferSize() + UART_GET_TX_FIFO_SR_VALID) != 0);//Á≠âÂ
2551:.\BLEApplication.c **** //                             SetUartConfiguration(BAUD_57600);
2552:.\BLEApplication.c ****                 break;
2553:.\BLEApplication.c ****                 case '7':
2554:.\BLEApplication.c ****                      printf("+BAUD:<115200>\r\n");
 1881              		.loc 1 2554 0
 1882 01f8 4E48     		ldr	r0, .L201+64
 1883              	.LVL260:
 1884 01fa FFF7FEFF 		bl	puts
 1885              	.LVL261:
2555:.\BLEApplication.c **** //                             printf("OK\r\n");
2556:.\BLEApplication.c ****                      while((UART_SpiUartGetTxBufferSize() + UART_GET_TX_FIFO_SR_VALID) != 0);//Á≠âÂ
 1886              		.loc 1 2556 0
 1887 01fe 5AE0     		b	.L182
 1888              	.LVL262:
 1889              	.L169:
2504:.\BLEApplication.c ****             {
 1890              		.loc 1 2504 0
 1891 0200 412B     		cmp	r3, #65
 1892 0202 00D1     		bne	.LCB1763
 1893 0204 A6E0     		b	.L172	@long jump
 1894              	.LCB1763:
 1895 0206 612B     		cmp	r3, #97
 1896 0208 00D1     		bne	.LCB1765
ARM GAS  C:\Users\Helon\AppData\Local\Temp\ccKCxrf8.s 			page 83


 1897 020a A3E0     		b	.L172	@long jump
 1898              	.LCB1765:
 1899 020c 392B     		cmp	r3, #57
 1900 020e 00D0     		beq	.LCB1767
 1901 0210 ABE0     		b	.L132	@long jump
 1902              	.LCB1767:
2557:.\BLEApplication.c **** //                             SetUartConfiguration(BAUD_115200);
2558:.\BLEApplication.c ****                 break;
2559:.\BLEApplication.c ****                 case '8':
2560:.\BLEApplication.c ****                      printf("+BAUD:<230400>\r\n");
2561:.\BLEApplication.c **** //                             printf("OK\r\n");
2562:.\BLEApplication.c ****                      while((UART_SpiUartGetTxBufferSize() + UART_GET_TX_FIFO_SR_VALID) != 0);//Á≠âÂ
2563:.\BLEApplication.c **** //                             SetUartConfiguration(BAUD_230400);
2564:.\BLEApplication.c ****                 break;
2565:.\BLEApplication.c ****                 case '9':
2566:.\BLEApplication.c ****                      printf("+BAUD:<460800>\r\n");
 1903              		.loc 1 2566 0
 1904 0212 4948     		ldr	r0, .L201+68
 1905              	.LVL263:
 1906 0214 FFF7FEFF 		bl	puts
 1907              	.LVL264:
2567:.\BLEApplication.c **** //                             printf("OK\r\n");
2568:.\BLEApplication.c ****                      while((UART_SpiUartGetTxBufferSize() + UART_GET_TX_FIFO_SR_VALID) != 0);//Á≠âÂ
 1908              		.loc 1 2568 0
 1909 0218 62E0     		b	.L184
 1910              	.LVL265:
 1911              	.L164:
2508:.\BLEApplication.c **** //                             printf("OK\r\n");
 1912              		.loc 1 2508 0
 1913 021a 4848     		ldr	r0, .L201+72
 1914              	.LVL266:
 1915 021c FFF7FEFF 		bl	puts
 1916              	.LVL267:
 1917              	.L174:
2510:.\BLEApplication.c **** //                             SetUartConfiguration(BAUD_1200);
 1918              		.loc 1 2510 0 discriminator 5
 1919 0220 FFF7FEFF 		bl	UART_SpiUartGetTxBufferSize
 1920              	.LVL268:
 1921 0224 354B     		ldr	r3, .L201+8
 1922 0226 1B68     		ldr	r3, [r3]
 1923 0228 1B04     		lsl	r3, r3, #16
 1924 022a DB17     		asr	r3, r3, #31
 1925 022c 8342     		cmp	r3, r0
 1926 022e F7D1     		bne	.L174
 1927 0230 9BE0     		b	.L132
 1928              	.L175:
2517:.\BLEApplication.c **** //                             SetUartConfiguration(BAUD_2400);
 1929              		.loc 1 2517 0 discriminator 5
 1930 0232 FFF7FEFF 		bl	UART_SpiUartGetTxBufferSize
 1931              	.LVL269:
 1932 0236 314B     		ldr	r3, .L201+8
 1933 0238 1B68     		ldr	r3, [r3]
 1934 023a 1B04     		lsl	r3, r3, #16
 1935 023c DB17     		asr	r3, r3, #31
 1936 023e 8342     		cmp	r3, r0
 1937 0240 F7D1     		bne	.L175
 1938 0242 92E0     		b	.L132
ARM GAS  C:\Users\Helon\AppData\Local\Temp\ccKCxrf8.s 			page 84


 1939              	.LVL270:
 1940              	.L162:
2522:.\BLEApplication.c **** //                             printf("OK\r\n");
 1941              		.loc 1 2522 0
 1942 0244 3E48     		ldr	r0, .L201+76
 1943              	.LVL271:
 1944 0246 FFF7FEFF 		bl	puts
 1945              	.LVL272:
 1946              	.L177:
2524:.\BLEApplication.c **** //                             SetUartConfiguration(BAUD_4800);
 1947              		.loc 1 2524 0 discriminator 5
 1948 024a FFF7FEFF 		bl	UART_SpiUartGetTxBufferSize
 1949              	.LVL273:
 1950 024e 2B4B     		ldr	r3, .L201+8
 1951 0250 1B68     		ldr	r3, [r3]
 1952 0252 1B04     		lsl	r3, r3, #16
 1953 0254 DB17     		asr	r3, r3, #31
 1954 0256 8342     		cmp	r3, r0
 1955 0258 F7D1     		bne	.L177
 1956 025a 86E0     		b	.L132
 1957              	.LVL274:
 1958              	.L166:
2529:.\BLEApplication.c **** //                             printf("OK\r\n");
 1959              		.loc 1 2529 0
 1960 025c 3948     		ldr	r0, .L201+80
 1961              	.LVL275:
 1962 025e FFF7FEFF 		bl	puts
 1963              	.LVL276:
 1964              	.L178:
2531:.\BLEApplication.c **** //                             SetUartConfiguration(BAUD_9600);
 1965              		.loc 1 2531 0 discriminator 5
 1966 0262 FFF7FEFF 		bl	UART_SpiUartGetTxBufferSize
 1967              	.LVL277:
 1968 0266 254B     		ldr	r3, .L201+8
 1969 0268 1B68     		ldr	r3, [r3]
 1970 026a 1B04     		lsl	r3, r3, #16
 1971 026c DB17     		asr	r3, r3, #31
 1972 026e 8342     		cmp	r3, r0
 1973 0270 F7D1     		bne	.L178
 1974 0272 7AE0     		b	.L132
 1975              	.L179:
2537:.\BLEApplication.c **** //                             SetUartConfiguration(BAUD_19200);
 1976              		.loc 1 2537 0 discriminator 5
 1977 0274 FFF7FEFF 		bl	UART_SpiUartGetTxBufferSize
 1978              	.LVL278:
 1979 0278 204B     		ldr	r3, .L201+8
 1980 027a 1B68     		ldr	r3, [r3]
 1981 027c 1B04     		lsl	r3, r3, #16
 1982 027e DB17     		asr	r3, r3, #31
 1983 0280 8342     		cmp	r3, r0
 1984 0282 F7D1     		bne	.L179
 1985 0284 71E0     		b	.L132
 1986              	.LVL279:
 1987              	.L160:
2541:.\BLEApplication.c **** //                             printf("OK\r\n");
 1988              		.loc 1 2541 0
 1989 0286 3048     		ldr	r0, .L201+84
ARM GAS  C:\Users\Helon\AppData\Local\Temp\ccKCxrf8.s 			page 85


 1990              	.LVL280:
 1991 0288 FFF7FEFF 		bl	puts
 1992              	.LVL281:
 1993              	.L180:
2543:.\BLEApplication.c **** //                             SetUartConfiguration(BAUD_38400);
 1994              		.loc 1 2543 0 discriminator 5
 1995 028c FFF7FEFF 		bl	UART_SpiUartGetTxBufferSize
 1996              	.LVL282:
 1997 0290 1A4B     		ldr	r3, .L201+8
 1998 0292 1B68     		ldr	r3, [r3]
 1999 0294 1B04     		lsl	r3, r3, #16
 2000 0296 DB17     		asr	r3, r3, #31
 2001 0298 8342     		cmp	r3, r0
 2002 029a F7D1     		bne	.L180
 2003 029c 65E0     		b	.L132
 2004              	.LVL283:
 2005              	.L170:
2548:.\BLEApplication.c **** //                             printf("OK\r\n");
 2006              		.loc 1 2548 0
 2007 029e 2B48     		ldr	r0, .L201+88
 2008              	.LVL284:
 2009 02a0 FFF7FEFF 		bl	puts
 2010              	.LVL285:
 2011              	.L181:
2550:.\BLEApplication.c **** //                             SetUartConfiguration(BAUD_57600);
 2012              		.loc 1 2550 0 discriminator 5
 2013 02a4 FFF7FEFF 		bl	UART_SpiUartGetTxBufferSize
 2014              	.LVL286:
 2015 02a8 144B     		ldr	r3, .L201+8
 2016 02aa 1B68     		ldr	r3, [r3]
 2017 02ac 1B04     		lsl	r3, r3, #16
 2018 02ae DB17     		asr	r3, r3, #31
 2019 02b0 8342     		cmp	r3, r0
 2020 02b2 F7D1     		bne	.L181
 2021 02b4 59E0     		b	.L132
 2022              	.L182:
2556:.\BLEApplication.c **** //                             SetUartConfiguration(BAUD_115200);
 2023              		.loc 1 2556 0 discriminator 5
 2024 02b6 FFF7FEFF 		bl	UART_SpiUartGetTxBufferSize
 2025              	.LVL287:
 2026 02ba 104B     		ldr	r3, .L201+8
 2027 02bc 1B68     		ldr	r3, [r3]
 2028 02be 1B04     		lsl	r3, r3, #16
 2029 02c0 DB17     		asr	r3, r3, #31
 2030 02c2 8342     		cmp	r3, r0
 2031 02c4 F7D1     		bne	.L182
 2032 02c6 50E0     		b	.L132
 2033              	.LVL288:
 2034              	.L168:
2560:.\BLEApplication.c **** //                             printf("OK\r\n");
 2035              		.loc 1 2560 0
 2036 02c8 2148     		ldr	r0, .L201+92
 2037              	.LVL289:
 2038 02ca FFF7FEFF 		bl	puts
 2039              	.LVL290:
 2040              	.L183:
2562:.\BLEApplication.c **** //                             SetUartConfiguration(BAUD_230400);
ARM GAS  C:\Users\Helon\AppData\Local\Temp\ccKCxrf8.s 			page 86


 2041              		.loc 1 2562 0 discriminator 5
 2042 02ce FFF7FEFF 		bl	UART_SpiUartGetTxBufferSize
 2043              	.LVL291:
 2044 02d2 0A4B     		ldr	r3, .L201+8
 2045 02d4 1B68     		ldr	r3, [r3]
 2046 02d6 1B04     		lsl	r3, r3, #16
 2047 02d8 DB17     		asr	r3, r3, #31
 2048 02da 8342     		cmp	r3, r0
 2049 02dc F7D1     		bne	.L183
 2050 02de 44E0     		b	.L132
 2051              	.L184:
 2052              		.loc 1 2568 0 discriminator 5
 2053 02e0 FFF7FEFF 		bl	UART_SpiUartGetTxBufferSize
 2054              	.LVL292:
 2055 02e4 054B     		ldr	r3, .L201+8
 2056 02e6 1B68     		ldr	r3, [r3]
 2057 02e8 1B04     		lsl	r3, r3, #16
 2058 02ea DB17     		asr	r3, r3, #31
 2059 02ec 8342     		cmp	r3, r0
 2060 02ee F7D1     		bne	.L184
 2061 02f0 3BE0     		b	.L132
 2062              	.L202:
 2063 02f2 C046     		.align	2
 2064              	.L201:
 2065 02f4 A1010000 		.word	.LC85
 2066 02f8 9D010000 		.word	.LC82
 2067 02fc 08022440 		.word	1076101640
 2068 0300 C1010000 		.word	.LC89
 2069 0304 16020000 		.word	.LC99
 2070 0308 8D010000 		.word	.LC80
 2071 030c 80000000 		.word	.LANCHOR2
 2072 0310 B1010000 		.word	.LC87
 2073 0314 D1010000 		.word	.LC91
 2074 0318 E2010000 		.word	.LC93
 2075 031c F3010000 		.word	.LC95
 2076 0320 04020000 		.word	.LC97
 2077 0324 28020000 		.word	.LC101
 2078 0328 3A020000 		.word	.LC103
 2079 032c 5A020000 		.word	.LC107
 2080 0330 84020000 		.word	.LC113
 2081 0334 B1020000 		.word	.LC119
 2082 0338 D1020000 		.word	.LC123
 2083 033c 4C020000 		.word	.LC105
 2084 0340 68020000 		.word	.LC109
 2085 0344 76020000 		.word	.LC111
 2086 0348 93020000 		.word	.LC115
 2087 034c A2020000 		.word	.LC117
 2088 0350 C1020000 		.word	.LC121
 2089              	.LVL293:
 2090              	.L172:
2569:.\BLEApplication.c **** //                             SetUartConfiguration(BAUD_460800);
2570:.\BLEApplication.c ****                 break;
2571:.\BLEApplication.c ****                 case 'a':
2572:.\BLEApplication.c ****                 case 'A':
2573:.\BLEApplication.c ****                      printf("+BAUD:<921600>\r\n");
 2091              		.loc 1 2573 0
 2092 0354 0548     		ldr	r0, .L203
ARM GAS  C:\Users\Helon\AppData\Local\Temp\ccKCxrf8.s 			page 87


 2093              	.LVL294:
 2094 0356 FFF7FEFF 		bl	puts
 2095              	.LVL295:
 2096              	.L185:
2574:.\BLEApplication.c **** //                             printf("OK\r\n");
2575:.\BLEApplication.c ****                      while((UART_SpiUartGetTxBufferSize() + UART_GET_TX_FIFO_SR_VALID) != 0);//Á≠âÂ
 2097              		.loc 1 2575 0 discriminator 5
 2098 035a FFF7FEFF 		bl	UART_SpiUartGetTxBufferSize
 2099              	.LVL296:
 2100 035e 044B     		ldr	r3, .L203+4
 2101 0360 1B68     		ldr	r3, [r3]
 2102 0362 1B04     		lsl	r3, r3, #16
 2103 0364 DB17     		asr	r3, r3, #31
 2104 0366 8342     		cmp	r3, r0
 2105 0368 F7D1     		bne	.L185
 2106              	.L132:
2576:.\BLEApplication.c **** //                             SetUartConfiguration(BAUD_921600);
2577:.\BLEApplication.c ****                 break;
2578:.\BLEApplication.c ****                 default:
2579:.\BLEApplication.c ****                 break;
2580:.\BLEApplication.c ****              }
2581:.\BLEApplication.c ****         break;
2582:.\BLEApplication.c ****     }  
2583:.\BLEApplication.c **** }
 2107              		.loc 1 2583 0
 2108              		@ sp needed
 2109 036a 70BD     		pop	{r4, r5, r6, pc}
 2110              	.L204:
 2111              		.align	2
 2112              	.L203:
 2113 036c E1020000 		.word	.LC125
 2114 0370 08022440 		.word	1076101640
 2115              		.cfi_endproc
 2116              	.LFE50:
 2117              		.size	UartBuadRate_Handler, .-UartBuadRate_Handler
 2118              		.section	.text.TxPower_Handler,"ax",%progbits
 2119              		.align	1
 2120              		.global	TxPower_Handler
 2121              		.code	16
 2122              		.thumb_func
 2123              		.type	TxPower_Handler, %function
 2124              	TxPower_Handler:
 2125              	.LFB51:
2584:.\BLEApplication.c **** /******************************************************************************
2585:.\BLEApplication.c **** * Function Name: TxPower_Handler
2586:.\BLEApplication.c **** ***************************************************************************//**
2587:.\BLEApplication.c **** * 
2588:.\BLEApplication.c **** *  ËÆæÁΩÆÂèëÂ∞ÑÂäüÁéáÊàñËÄÖÊü•ËØ¢ÂΩìÂâçÁöÑÂèëÂ∞ÑÂäüÁéá
2589:.\BLEApplication.c **** * \param  idx:ËÆæÁΩÆÁöÑÂèëÂ∞ÑÂäüÁéáÂÄºÊàñÊü•ËØ¢ÂèëÂ∞ÑÂäüÁéáÁöÑÁä∂ÊÄÅ
2590:.\BLEApplication.c **** * \return none
2591:.\BLEApplication.c **** *  
2592:.\BLEApplication.c **** * 
2593:.\BLEApplication.c **** ******************************************************************************/
2594:.\BLEApplication.c **** void TxPower_Handler(uint8_t idx)
2595:.\BLEApplication.c **** {
 2126              		.loc 1 2595 0
 2127              		.cfi_startproc
ARM GAS  C:\Users\Helon\AppData\Local\Temp\ccKCxrf8.s 			page 88


 2128              	.LVL297:
2596:.\BLEApplication.c ****     CYBLE_BLESS_PWR_IN_DB_T bleSsPwrLvl;
2597:.\BLEApplication.c ****     CYBLE_API_RESULT_T API_RESULT=0;
2598:.\BLEApplication.c ****     if(CYBLE_STATE_ADVERTISING==CyBle_GetState())
 2129              		.loc 1 2598 0
 2130 0000 2D4B     		ldr	r3, .L268
2595:.\BLEApplication.c ****     CYBLE_BLESS_PWR_IN_DB_T bleSsPwrLvl;
 2131              		.loc 1 2595 0
 2132 0002 13B5     		push	{r0, r1, r4, lr}
 2133              		.cfi_def_cfa_offset 16
 2134              		.cfi_offset 0, -16
 2135              		.cfi_offset 1, -12
 2136              		.cfi_offset 4, -8
 2137              		.cfi_offset 14, -4
 2138              		.loc 1 2598 0
 2139 0004 1B78     		ldrb	r3, [r3]
2599:.\BLEApplication.c ****     {
2600:.\BLEApplication.c ****         bleSsPwrLvl.bleSsChId=CYBLE_LL_ADV_CH_TYPE;
 2140              		.loc 1 2600 0
 2141 0006 0022     		mov	r2, #0
2598:.\BLEApplication.c ****     {
 2142              		.loc 1 2598 0
 2143 0008 032B     		cmp	r3, #3
 2144 000a 02D0     		beq	.L257
2601:.\BLEApplication.c ****     }
2602:.\BLEApplication.c ****     else if(CYBLE_STATE_CONNECTED==CyBle_GetState())
 2145              		.loc 1 2602 0
 2146 000c 022B     		cmp	r3, #2
 2147 000e 06D1     		bne	.L208
2603:.\BLEApplication.c ****     {
2604:.\BLEApplication.c ****         bleSsPwrLvl.bleSsChId=CYBLE_LL_CONN_CH_TYPE;
 2148              		.loc 1 2604 0
 2149 0010 0122     		mov	r2, #1
 2150              	.L257:
 2151 0012 01AB     		add	r3, sp, #4
2605:.\BLEApplication.c ****     }
2606:.\BLEApplication.c ****     else//Â¶Ç‰Ωï‰∏çÊòØÂπøÊí≠ÊàñËÄÖËøûÊé•Áä∂ÊÄÅÂàôÊó†Êïà
2607:.\BLEApplication.c ****     {
2608:.\BLEApplication.c ****         printf("AT+ERR=8\r\n");//Ë°®Á§∫ÂΩìÂâçÁä∂ÊÄÅ‰∏çÊòØËøûÊé•Áä∂ÊÄÅ‰πü‰∏çÊòØÂπøÊí≠Áä∂ÊÄÅÔºåÊó†Ê≥ï
2609:.\BLEApplication.c ****         return;
2610:.\BLEApplication.c ****     }
2611:.\BLEApplication.c ****     switch(idx)
 2152              		.loc 1 2611 0
 2153 0014 3138     		sub	r0, r0, #49
 2154              	.LVL298:
2604:.\BLEApplication.c ****     }
 2155              		.loc 1 2604 0
 2156 0016 5A70     		strb	r2, [r3, #1]
 2157              		.loc 1 2611 0
 2158 0018 0E28     		cmp	r0, #14
 2159 001a 48D8     		bhi	.L210
 2160 001c 01E0     		b	.L267
 2161              	.LVL299:
 2162              	.L208:
2608:.\BLEApplication.c ****         return;
 2163              		.loc 1 2608 0
 2164 001e 2748     		ldr	r0, .L268+4
ARM GAS  C:\Users\Helon\AppData\Local\Temp\ccKCxrf8.s 			page 89


 2165              	.LVL300:
 2166 0020 46E0     		b	.L266
 2167              	.L267:
 2168              		.loc 1 2611 0
 2169 0022 FFF7FEFF 		bl	__gnu_thumb1_case_uqi
 2170              	.L212:
 2171 0026 26       		.byte	(.L211-.L212)/2
 2172 0027 2F       		.byte	(.L213-.L212)/2
 2173 0028 32       		.byte	(.L214-.L212)/2
 2174 0029 35       		.byte	(.L215-.L212)/2
 2175 002a 38       		.byte	(.L216-.L212)/2
 2176 002b 3B       		.byte	(.L217-.L212)/2
 2177 002c 3E       		.byte	(.L218-.L212)/2
 2178 002d 41       		.byte	(.L219-.L212)/2
 2179 002e 44       		.byte	(.L210-.L212)/2
 2180 002f 44       		.byte	(.L210-.L212)/2
 2181 0030 44       		.byte	(.L210-.L212)/2
 2182 0031 44       		.byte	(.L210-.L212)/2
 2183 0032 44       		.byte	(.L210-.L212)/2
 2184 0033 44       		.byte	(.L210-.L212)/2
 2185 0034 08       		.byte	(.L220-.L212)/2
 2186 0035 00       		.p2align 1
 2187              	.L220:
2612:.\BLEApplication.c ****     {
2613:.\BLEApplication.c ****         case '?':                        
2614:.\BLEApplication.c ****             CyBle_GetTxPowerLevel(&bleSsPwrLvl);
 2188              		.loc 1 2614 0
 2189 0036 01AC     		add	r4, sp, #4
 2190 0038 201C     		mov	r0, r4
 2191 003a FFF7FEFF 		bl	CyBle_GetTxPowerLevel
 2192              	.LVL301:
2615:.\BLEApplication.c ****             idx=bleSsPwrLvl.blePwrLevelInDbm;
2616:.\BLEApplication.c ****             switch(idx)
 2193              		.loc 1 2616 0
 2194 003e 2078     		ldrb	r0, [r4]
 2195 0040 0138     		sub	r0, r0, #1
 2196 0042 0728     		cmp	r0, #7
 2197 0044 36D8     		bhi	.L205
 2198 0046 FFF7FEFF 		bl	__gnu_thumb1_case_uqi
 2199              	.L223:
 2200 004a 04       		.byte	(.L222-.L223)/2
 2201 004b 06       		.byte	(.L224-.L223)/2
 2202 004c 08       		.byte	(.L225-.L223)/2
 2203 004d 0A       		.byte	(.L226-.L223)/2
 2204 004e 0C       		.byte	(.L227-.L223)/2
 2205 004f 0E       		.byte	(.L228-.L223)/2
 2206 0050 10       		.byte	(.L229-.L223)/2
 2207 0051 12       		.byte	(.L230-.L223)/2
 2208              		.p2align 1
 2209              	.L222:
2617:.\BLEApplication.c ****             {
2618:.\BLEApplication.c ****                 case 1:
2619:.\BLEApplication.c ****                         printf("+TXP=1\r\n");
 2210              		.loc 1 2619 0
 2211 0052 1B48     		ldr	r0, .L268+8
 2212 0054 2CE0     		b	.L266
 2213              	.L224:
ARM GAS  C:\Users\Helon\AppData\Local\Temp\ccKCxrf8.s 			page 90


2620:.\BLEApplication.c **** //                    printf("+TXP=<-18dBm>\r\n");
2621:.\BLEApplication.c ****                 break;
2622:.\BLEApplication.c ****                 case 2:
2623:.\BLEApplication.c ****                         printf("+TXP=2\r\n");
 2214              		.loc 1 2623 0
 2215 0056 1B48     		ldr	r0, .L268+12
 2216 0058 2AE0     		b	.L266
 2217              	.L225:
2624:.\BLEApplication.c **** //                    printf("+TXP=<-12dBm>\r\n");
2625:.\BLEApplication.c ****                 break;
2626:.\BLEApplication.c ****                 case 3:
2627:.\BLEApplication.c ****                         printf("+TXP=3\r\n");
 2218              		.loc 1 2627 0
 2219 005a 1B48     		ldr	r0, .L268+16
 2220 005c 28E0     		b	.L266
 2221              	.L226:
2628:.\BLEApplication.c **** //                    printf("+TXP=<-6dBm>\r\n");
2629:.\BLEApplication.c ****                 break;
2630:.\BLEApplication.c ****                 case 4:
2631:.\BLEApplication.c ****                         printf("+TXP=4\r\n");
 2222              		.loc 1 2631 0
 2223 005e 1B48     		ldr	r0, .L268+20
 2224 0060 26E0     		b	.L266
 2225              	.L227:
2632:.\BLEApplication.c **** //                    printf("+TXP=<-3dBm>\r\n");
2633:.\BLEApplication.c ****                 break;
2634:.\BLEApplication.c ****                 case 5:
2635:.\BLEApplication.c ****                         printf("+TXP=5\r\n");
 2226              		.loc 1 2635 0
 2227 0062 1B48     		ldr	r0, .L268+24
 2228 0064 24E0     		b	.L266
 2229              	.L228:
2636:.\BLEApplication.c **** //                    printf("+TXP=<-2dBm>\r\n");
2637:.\BLEApplication.c ****                 break;
2638:.\BLEApplication.c ****                 case 6:
2639:.\BLEApplication.c ****                         printf("+TXP=6\r\n");
 2230              		.loc 1 2639 0
 2231 0066 1B48     		ldr	r0, .L268+28
 2232 0068 22E0     		b	.L266
 2233              	.L229:
2640:.\BLEApplication.c **** //                    printf("+TXP=<-1dBm>\r\n");
2641:.\BLEApplication.c ****                 break;
2642:.\BLEApplication.c ****                 case 7:
2643:.\BLEApplication.c ****                         printf("+TXP=7\r\n");
 2234              		.loc 1 2643 0
 2235 006a 1B48     		ldr	r0, .L268+32
 2236 006c 20E0     		b	.L266
 2237              	.L230:
2644:.\BLEApplication.c **** //                    printf("+TXP=<0dBm>\r\n");
2645:.\BLEApplication.c ****                 break;
2646:.\BLEApplication.c ****                 case 8:
2647:.\BLEApplication.c ****                         printf("+TXP=8\r\n");
 2238              		.loc 1 2647 0
 2239 006e 1B48     		ldr	r0, .L268+36
 2240 0070 1EE0     		b	.L266
 2241              	.LVL302:
 2242              	.L211:
ARM GAS  C:\Users\Helon\AppData\Local\Temp\ccKCxrf8.s 			page 91


2648:.\BLEApplication.c **** //                    printf("+TXP=<3dBm>\r\n");
2649:.\BLEApplication.c ****                 break;
2650:.\BLEApplication.c ****             }
2651:.\BLEApplication.c ****             
2652:.\BLEApplication.c ****         break;
2653:.\BLEApplication.c ****         case '1':
2654:.\BLEApplication.c ****             bleSsPwrLvl.blePwrLevelInDbm=CYBLE_LL_PWR_LVL_NEG_18_DBM;
 2243              		.loc 1 2654 0
 2244 0072 0123     		mov	r3, #1
 2245 0074 01A8     		add	r0, sp, #4
 2246              	.L259:
 2247 0076 0370     		strb	r3, [r0]
2655:.\BLEApplication.c ****             API_RESULT=CyBle_SetTxPowerLevel(&bleSsPwrLvl);
 2248              		.loc 1 2655 0
 2249 0078 FFF7FEFF 		bl	CyBle_SetTxPowerLevel
 2250              	.LVL303:
2656:.\BLEApplication.c ****             if(CYBLE_ERROR_OK==API_RESULT)
 2251              		.loc 1 2656 0
 2252 007c 0028     		cmp	r0, #0
 2253 007e 19D1     		bne	.L205
2657:.\BLEApplication.c ****             {     
2658:.\BLEApplication.c ****                 printf("AT+OK\r\n");
 2254              		.loc 1 2658 0
 2255 0080 1748     		ldr	r0, .L268+40
 2256              	.LVL304:
 2257 0082 15E0     		b	.L266
 2258              	.LVL305:
 2259              	.L213:
2659:.\BLEApplication.c **** //                printf("AT+TXP=<-18dBm>\r\n");
2660:.\BLEApplication.c **** //                printf("OK\r\n");
2661:.\BLEApplication.c ****             }            
2662:.\BLEApplication.c ****         break;
2663:.\BLEApplication.c ****         case '2':
2664:.\BLEApplication.c ****             bleSsPwrLvl.blePwrLevelInDbm=CYBLE_LL_PWR_LVL_NEG_12_DBM;
 2260              		.loc 1 2664 0
 2261 0084 01A8     		add	r0, sp, #4
 2262 0086 0223     		mov	r3, #2
 2263 0088 F5E7     		b	.L259
 2264              	.L214:
2665:.\BLEApplication.c ****             API_RESULT=CyBle_SetTxPowerLevel(&bleSsPwrLvl);
2666:.\BLEApplication.c ****             if(CYBLE_ERROR_OK==API_RESULT)
2667:.\BLEApplication.c ****             {     
2668:.\BLEApplication.c ****                 printf("AT+OK\r\n");
2669:.\BLEApplication.c **** //                printf("AT+TXP=<-12dBm>\r\n");
2670:.\BLEApplication.c **** //                printf("OK\r\n");
2671:.\BLEApplication.c ****             }            
2672:.\BLEApplication.c ****         break;
2673:.\BLEApplication.c ****         case '3':
2674:.\BLEApplication.c ****             bleSsPwrLvl.blePwrLevelInDbm=CYBLE_LL_PWR_LVL_NEG_6_DBM;
 2265              		.loc 1 2674 0
 2266 008a 01A8     		add	r0, sp, #4
 2267 008c 0323     		mov	r3, #3
 2268 008e F2E7     		b	.L259
 2269              	.L215:
2675:.\BLEApplication.c ****             API_RESULT=CyBle_SetTxPowerLevel(&bleSsPwrLvl);
2676:.\BLEApplication.c ****             if(CYBLE_ERROR_OK==API_RESULT)
2677:.\BLEApplication.c ****             {     
ARM GAS  C:\Users\Helon\AppData\Local\Temp\ccKCxrf8.s 			page 92


2678:.\BLEApplication.c ****                 printf("AT+OK\r\n");
2679:.\BLEApplication.c **** //                printf("AT+TXP=<-6dBm>\r\n");
2680:.\BLEApplication.c **** //                printf("OK\r\n");
2681:.\BLEApplication.c ****             }            
2682:.\BLEApplication.c ****         break;
2683:.\BLEApplication.c ****         case '4':
2684:.\BLEApplication.c ****             bleSsPwrLvl.blePwrLevelInDbm=CYBLE_LL_PWR_LVL_NEG_3_DBM;
 2270              		.loc 1 2684 0
 2271 0090 01A8     		add	r0, sp, #4
 2272 0092 0423     		mov	r3, #4
 2273 0094 EFE7     		b	.L259
 2274              	.L216:
2685:.\BLEApplication.c ****             API_RESULT=CyBle_SetTxPowerLevel(&bleSsPwrLvl);
2686:.\BLEApplication.c ****             if(CYBLE_ERROR_OK==API_RESULT)
2687:.\BLEApplication.c ****             {    
2688:.\BLEApplication.c ****                 printf("AT+OK\r\n");
2689:.\BLEApplication.c **** //                printf("AT+TXP=<-3dBm>\r\n");
2690:.\BLEApplication.c **** //                printf("OK\r\n");
2691:.\BLEApplication.c ****             }            
2692:.\BLEApplication.c ****         break;
2693:.\BLEApplication.c ****         case '5':
2694:.\BLEApplication.c ****             bleSsPwrLvl.blePwrLevelInDbm=CYBLE_LL_PWR_LVL_NEG_2_DBM;
 2275              		.loc 1 2694 0
 2276 0096 01A8     		add	r0, sp, #4
 2277 0098 0523     		mov	r3, #5
 2278 009a ECE7     		b	.L259
 2279              	.L217:
2695:.\BLEApplication.c ****             API_RESULT=CyBle_SetTxPowerLevel(&bleSsPwrLvl);
2696:.\BLEApplication.c ****             if(CYBLE_ERROR_OK==API_RESULT)
2697:.\BLEApplication.c ****             {     
2698:.\BLEApplication.c ****                 printf("AT+OK\r\n");
2699:.\BLEApplication.c **** //                printf("AT+TXP=<-2dBm>\r\n");
2700:.\BLEApplication.c **** //                printf("OK\r\n");
2701:.\BLEApplication.c ****             }           
2702:.\BLEApplication.c ****         break;
2703:.\BLEApplication.c ****         case '6':
2704:.\BLEApplication.c ****             bleSsPwrLvl.blePwrLevelInDbm=CYBLE_LL_PWR_LVL_NEG_1_DBM;
 2280              		.loc 1 2704 0
 2281 009c 01A8     		add	r0, sp, #4
 2282 009e 0623     		mov	r3, #6
 2283 00a0 E9E7     		b	.L259
 2284              	.L218:
2705:.\BLEApplication.c ****             API_RESULT=CyBle_SetTxPowerLevel(&bleSsPwrLvl);
2706:.\BLEApplication.c ****             if(CYBLE_ERROR_OK==API_RESULT)
2707:.\BLEApplication.c ****             {    
2708:.\BLEApplication.c ****                 printf("AT+OK\r\n");
2709:.\BLEApplication.c **** //                printf("AT+TXP=<-1dBm>\r\n");
2710:.\BLEApplication.c **** //                printf("OK\r\n");
2711:.\BLEApplication.c ****             }            
2712:.\BLEApplication.c ****         break;
2713:.\BLEApplication.c ****         case '7':
2714:.\BLEApplication.c ****             bleSsPwrLvl.blePwrLevelInDbm=CYBLE_LL_PWR_LVL_0_DBM;
 2285              		.loc 1 2714 0
 2286 00a2 01A8     		add	r0, sp, #4
 2287 00a4 0723     		mov	r3, #7
 2288 00a6 E6E7     		b	.L259
 2289              	.L219:
ARM GAS  C:\Users\Helon\AppData\Local\Temp\ccKCxrf8.s 			page 93


2715:.\BLEApplication.c ****             API_RESULT=CyBle_SetTxPowerLevel(&bleSsPwrLvl);
2716:.\BLEApplication.c ****             if(CYBLE_ERROR_OK==API_RESULT)
2717:.\BLEApplication.c ****             {   
2718:.\BLEApplication.c ****                 printf("AT+OK\r\n");
2719:.\BLEApplication.c **** //                printf("AT+TXP=<0dBm>\r\n");
2720:.\BLEApplication.c **** //                printf("OK\r\n");
2721:.\BLEApplication.c ****             }      
2722:.\BLEApplication.c ****         break;
2723:.\BLEApplication.c ****         case '8':
2724:.\BLEApplication.c ****             bleSsPwrLvl.blePwrLevelInDbm=CYBLE_LL_PWR_LVL_3_DBM;
 2290              		.loc 1 2724 0
 2291 00a8 01A8     		add	r0, sp, #4
 2292 00aa 0823     		mov	r3, #8
 2293 00ac E3E7     		b	.L259
 2294              	.L210:
2725:.\BLEApplication.c ****             API_RESULT=CyBle_SetTxPowerLevel(&bleSsPwrLvl);
2726:.\BLEApplication.c ****             if(CYBLE_ERROR_OK==API_RESULT)
2727:.\BLEApplication.c ****             {     
2728:.\BLEApplication.c ****                 printf("AT+OK\r\n");
2729:.\BLEApplication.c **** //                printf("AT+TXP=<3dBm>\r\n");
2730:.\BLEApplication.c **** //                printf("OK\r\n");
2731:.\BLEApplication.c ****             }           
2732:.\BLEApplication.c ****         break;
2733:.\BLEApplication.c ****         default:
2734:.\BLEApplication.c ****             printf("AT+ERR=5\r\n");//Ë°®Á§∫Ê≤°ÊúâËØ•ATÂëΩ‰ª§ 
 2295              		.loc 1 2734 0
 2296 00ae 0D48     		ldr	r0, .L268+44
 2297              	.LVL306:
 2298              	.L266:
 2299 00b0 FFF7FEFF 		bl	puts
 2300              	.LVL307:
 2301              	.L205:
2735:.\BLEApplication.c ****         break;
2736:.\BLEApplication.c ****     }    
2737:.\BLEApplication.c **** }
 2302              		.loc 1 2737 0
 2303              		@ sp needed
 2304 00b4 13BD     		pop	{r0, r1, r4, pc}
 2305              	.L269:
 2306 00b6 C046     		.align	2
 2307              	.L268:
 2308 00b8 00000000 		.word	cyBle_state
 2309 00bc F1020000 		.word	.LC128
 2310 00c0 FB020000 		.word	.LC130
 2311 00c4 03030000 		.word	.LC132
 2312 00c8 0B030000 		.word	.LC134
 2313 00cc 13030000 		.word	.LC136
 2314 00d0 1B030000 		.word	.LC138
 2315 00d4 23030000 		.word	.LC140
 2316 00d8 2B030000 		.word	.LC142
 2317 00dc 33030000 		.word	.LC144
 2318 00e0 4A010000 		.word	.LC67
 2319 00e4 3B030000 		.word	.LC147
 2320              		.cfi_endproc
 2321              	.LFE51:
 2322              		.size	TxPower_Handler, .-TxPower_Handler
 2323              		.section	.text.StrToHex,"ax",%progbits
ARM GAS  C:\Users\Helon\AppData\Local\Temp\ccKCxrf8.s 			page 94


 2324              		.align	1
 2325              		.global	StrToHex
 2326              		.code	16
 2327              		.thumb_func
 2328              		.type	StrToHex, %function
 2329              	StrToHex:
 2330              	.LFB52:
2738:.\BLEApplication.c **** /******************************************************************************
2739:.\BLEApplication.c **** * Function Name: StrToHex
2740:.\BLEApplication.c **** ***************************************************************************//**
2741:.\BLEApplication.c **** * 
2742:.\BLEApplication.c **** *  Â≠óÁ¨¶‰∏≤ËΩ¨ÂçÅÂÖ≠ËøõÂà∂
2743:.\BLEApplication.c **** * \param  pbDest:ËæìÂá∫ÁºìÂÜ≤Âå∫
2744:.\BLEApplication.c **** * \param  pbSrc :ËæìÂÖ•ÁöÑÂ≠óÁ¨¶‰∏≤
2745:.\BLEApplication.c **** * \param  nLen :ËæìÂÖ•ÁöÑÂ≠óÁ¨¶‰∏≤16ËøõÂà∂Êï∞ÁöÑÂ≠óËäÇÊï∞(Â≠óÁ¨¶‰∏≤ÁöÑÈïøÂ∫¶/2)
2746:.\BLEApplication.c **** * \return none
2747:.\BLEApplication.c **** *  
2748:.\BLEApplication.c **** * 
2749:.\BLEApplication.c **** ******************************************************************************/
2750:.\BLEApplication.c **** void StrToHex(char *pbDest, char *pbSrc, int nLen)
2751:.\BLEApplication.c **** {
 2331              		.loc 1 2751 0
 2332              		.cfi_startproc
 2333              	.LVL308:
 2334 0000 F7B5     		push	{r0, r1, r2, r4, r5, r6, r7, lr}
 2335              		.cfi_def_cfa_offset 32
 2336              		.cfi_offset 0, -32
 2337              		.cfi_offset 1, -28
 2338              		.cfi_offset 2, -24
 2339              		.cfi_offset 4, -20
 2340              		.cfi_offset 5, -16
 2341              		.cfi_offset 6, -12
 2342              		.cfi_offset 7, -8
 2343              		.cfi_offset 14, -4
2752:.\BLEApplication.c ****     unsigned char h1,h2;
2753:.\BLEApplication.c ****     unsigned char s1,s2;
2754:.\BLEApplication.c ****     int i;
2755:.\BLEApplication.c **** 
2756:.\BLEApplication.c ****     for (i=0; i<nLen; i++)
 2344              		.loc 1 2756 0
 2345 0002 051C     		mov	r5, r0
2751:.\BLEApplication.c ****     unsigned char h1,h2;
 2346              		.loc 1 2751 0
 2347 0004 0192     		str	r2, [sp, #4]
 2348              	.LVL309:
 2349              	.L271:
 2350              		.loc 1 2756 0 discriminator 1
 2351 0006 019A     		ldr	r2, [sp, #4]
 2352 0008 2B1A     		sub	r3, r5, r0
 2353 000a 9342     		cmp	r3, r2
 2354 000c 29DA     		bge	.L279
 2355              	.LBB36:
2757:.\BLEApplication.c ****     {
2758:.\BLEApplication.c ****     h1 = pbSrc[2*i];
2759:.\BLEApplication.c ****     h2 = pbSrc[2*i+1];
2760:.\BLEApplication.c **** 
2761:.\BLEApplication.c ****     s1 = toupper(h1) - 0x30;
ARM GAS  C:\Users\Helon\AppData\Local\Temp\ccKCxrf8.s 			page 95


 2356              		.loc 1 2761 0
 2357 000e 154E     		ldr	r6, .L280
 2358              	.LBE36:
2758:.\BLEApplication.c ****     h2 = pbSrc[2*i+1];
 2359              		.loc 1 2758 0
 2360 0010 0C78     		ldrb	r4, [r1]
 2361              	.LVL310:
 2362              	.LBB37:
 2363              		.loc 1 2761 0
 2364 0012 3768     		ldr	r7, [r6]
 2365              	.LBE37:
2759:.\BLEApplication.c **** 
 2366              		.loc 1 2759 0
 2367 0014 4B78     		ldrb	r3, [r1, #1]
 2368              	.LVL311:
 2369              	.LBB38:
 2370              		.loc 1 2761 0
 2371 0016 3E19     		add	r6, r7, r4
 2372 0018 7678     		ldrb	r6, [r6, #1]
 2373 001a B446     		mov	ip, r6
 2374 001c 0326     		mov	r6, #3
 2375 001e 6246     		mov	r2, ip
 2376 0020 1640     		and	r6, r2
 2377 0022 022E     		cmp	r6, #2
 2378 0024 00D1     		bne	.L273
 2379              		.loc 1 2761 0 is_stmt 0 discriminator 1
 2380 0026 203C     		sub	r4, r4, #32
 2381              	.LVL312:
 2382              	.L273:
 2383              	.LBE38:
 2384              		.loc 1 2761 0 discriminator 4
 2385 0028 E4B2     		uxtb	r4, r4
 2386 002a 261C     		mov	r6, r4
 2387 002c 303E     		sub	r6, r6, #48
 2388 002e F6B2     		uxtb	r6, r6
 2389              	.LVL313:
2762:.\BLEApplication.c ****     if (s1 > 9) 
 2390              		.loc 1 2762 0 is_stmt 1 discriminator 4
 2391 0030 092E     		cmp	r6, #9
 2392 0032 01D9     		bls	.L274
2763:.\BLEApplication.c ****     s1 -= 7;
 2393              		.loc 1 2763 0
 2394 0034 373C     		sub	r4, r4, #55
 2395 0036 E6B2     		uxtb	r6, r4
 2396              	.LVL314:
 2397              	.L274:
 2398              	.LBB39:
2764:.\BLEApplication.c **** 
2765:.\BLEApplication.c ****     s2 = toupper(h2) - 0x30;
 2399              		.loc 1 2765 0
 2400 0038 0324     		mov	r4, #3
 2401 003a FF18     		add	r7, r7, r3
 2402 003c 7F78     		ldrb	r7, [r7, #1]
 2403 003e 3C40     		and	r4, r7
 2404 0040 022C     		cmp	r4, #2
 2405 0042 00D1     		bne	.L276
 2406              		.loc 1 2765 0 is_stmt 0 discriminator 1
ARM GAS  C:\Users\Helon\AppData\Local\Temp\ccKCxrf8.s 			page 96


 2407 0044 203B     		sub	r3, r3, #32
 2408              	.LVL315:
 2409              	.L276:
 2410              	.LBE39:
 2411              		.loc 1 2765 0 discriminator 4
 2412 0046 DBB2     		uxtb	r3, r3
 2413 0048 1C1C     		mov	r4, r3
 2414 004a 303C     		sub	r4, r4, #48
 2415 004c E4B2     		uxtb	r4, r4
 2416              	.LVL316:
2766:.\BLEApplication.c ****     if (s2 > 9) 
 2417              		.loc 1 2766 0 is_stmt 1 discriminator 4
 2418 004e 092C     		cmp	r4, #9
 2419 0050 01D9     		bls	.L277
2767:.\BLEApplication.c ****     s2 -= 7;
 2420              		.loc 1 2767 0
 2421 0052 373B     		sub	r3, r3, #55
 2422 0054 DCB2     		uxtb	r4, r3
 2423              	.LVL317:
 2424              	.L277:
2768:.\BLEApplication.c **** 
2769:.\BLEApplication.c ****     pbDest[i] = s1*16 + s2;
 2425              		.loc 1 2769 0 discriminator 2
 2426 0056 3601     		lsl	r6, r6, #4
 2427              	.LVL318:
 2428 0058 A319     		add	r3, r4, r6
 2429 005a 2B70     		strb	r3, [r5]
 2430              	.LVL319:
 2431 005c 0231     		add	r1, r1, #2
 2432 005e 0135     		add	r5, r5, #1
 2433              	.LVL320:
 2434 0060 D1E7     		b	.L271
 2435              	.LVL321:
 2436              	.L279:
2770:.\BLEApplication.c ****     }
2771:.\BLEApplication.c **** }
 2437              		.loc 1 2771 0
 2438              		@ sp needed
 2439              	.LVL322:
 2440 0062 F7BD     		pop	{r0, r1, r2, r4, r5, r6, r7, pc}
 2441              	.L281:
 2442              		.align	2
 2443              	.L280:
 2444 0064 00000000 		.word	__ctype_ptr__
 2445              		.cfi_endproc
 2446              	.LFE52:
 2447              		.size	StrToHex, .-StrToHex
 2448              		.global	__aeabi_i2d
 2449              		.global	__aeabi_dmul
 2450              		.global	__aeabi_d2iz
 2451              		.section	.text.Parser_UartData,"ax",%progbits
 2452              		.align	1
 2453              		.global	Parser_UartData
 2454              		.code	16
 2455              		.thumb_func
 2456              		.type	Parser_UartData, %function
 2457              	Parser_UartData:
ARM GAS  C:\Users\Helon\AppData\Local\Temp\ccKCxrf8.s 			page 97


 2458              	.LFB43:
 746:.\BLEApplication.c ****     if(NULL==SerialData)
 2459              		.loc 1 746 0
 2460              		.cfi_startproc
 2461              	.LVL323:
 2462 0000 F0B5     		push	{r4, r5, r6, r7, lr}
 2463              		.cfi_def_cfa_offset 20
 2464              		.cfi_offset 4, -20
 2465              		.cfi_offset 5, -16
 2466              		.cfi_offset 6, -12
 2467              		.cfi_offset 7, -8
 2468              		.cfi_offset 14, -4
 2469 0002 B1B0     		sub	sp, sp, #196
 2470              		.cfi_def_cfa_offset 216
 747:.\BLEApplication.c ****         return;
 2471              		.loc 1 747 0
 2472 0004 0028     		cmp	r0, #0
 2473 0006 01D1     		bne	.LCB2375
 2474 0008 00F0B7FC 		bl	.L282	@far jump
 2475              	.LCB2375:
 2476 000c 041C     		mov	r4, r0
 2477              	.LVL324:
 752:.\BLEApplication.c ****     char AdvData[31]={0};
 2478              		.loc 1 752 0
 2479 000e 0021     		mov	r1, #0
 2480 0010 1B22     		mov	r2, #27
 2481 0012 09A8     		add	r0, sp, #36
 2482              	.LVL325:
 2483 0014 FFF7FEFF 		bl	memset
 2484              	.LVL326:
 753:.\BLEApplication.c ****     char StrAdvData[62]={0};
 2485              		.loc 1 753 0
 2486 0018 0021     		mov	r1, #0
 2487 001a 1F22     		mov	r2, #31
 2488 001c 10A8     		add	r0, sp, #64
 2489 001e FFF7FEFF 		bl	memset
 2490              	.LVL327:
 754:.\BLEApplication.c ****     char StrAdvDataLength[2]={0};
 2491              		.loc 1 754 0
 2492 0022 3E22     		mov	r2, #62
 2493 0024 20A8     		add	r0, sp, #128
 2494 0026 0021     		mov	r1, #0
 2495 0028 FFF7FEFF 		bl	memset
 2496              	.LVL328:
 755:.\BLEApplication.c ****     char AdvDataLength=0;
 2497              		.loc 1 755 0
 2498 002c 0023     		mov	r3, #0
 2499 002e 6A46     		mov	r2, sp
 758:.\BLEApplication.c ****     uint8 DeviceNameLen[1]={0};
 2500              		.loc 1 758 0
 2501 0030 1726     		mov	r6, #23
 755:.\BLEApplication.c ****     char AdvDataLength=0;
 2502              		.loc 1 755 0
 2503 0032 1383     		strh	r3, [r2, #24]
 756:.\BLEApplication.c ****     char AdvParamArray[2]={0};
 2504              		.loc 1 756 0
 2505 0034 1622     		mov	r2, #22
ARM GAS  C:\Users\Helon\AppData\Local\Temp\ccKCxrf8.s 			page 98


 757:.\BLEApplication.c ****     char AdvParam=0;
 2506              		.loc 1 757 0
 2507 0036 07AD     		add	r5, sp, #28
 756:.\BLEApplication.c ****     char AdvParamArray[2]={0};
 2508              		.loc 1 756 0
 2509 0038 6A44     		add	r2, r2, sp
 758:.\BLEApplication.c ****     uint8 DeviceNameLen[1]={0};
 2510              		.loc 1 758 0
 2511 003a 6E44     		add	r6, r6, sp
 759:.\BLEApplication.c ****     uint32 WriteDataToFlash=0;
 2512              		.loc 1 759 0
 2513 003c 05AF     		add	r7, sp, #20
 771:.\BLEApplication.c ****     switch(At_Command_Idex)
 2514              		.loc 1 771 0
 2515 003e 201C     		mov	r0, r4
 756:.\BLEApplication.c ****     char AdvParamArray[2]={0};
 2516              		.loc 1 756 0
 2517 0040 1370     		strb	r3, [r2]
 757:.\BLEApplication.c ****     char AdvParam=0;
 2518              		.loc 1 757 0
 2519 0042 2B80     		strh	r3, [r5]
 758:.\BLEApplication.c ****     uint8 DeviceNameLen[1]={0};
 2520              		.loc 1 758 0
 2521 0044 3370     		strb	r3, [r6]
 759:.\BLEApplication.c ****     uint32 WriteDataToFlash=0;
 2522              		.loc 1 759 0
 2523 0046 3B70     		strb	r3, [r7]
 760:.\BLEApplication.c **** //    volatile uint8_t test=0;
 2524              		.loc 1 760 0
 2525 0048 0893     		str	r3, [sp, #32]
 2526              	.LVL329:
 771:.\BLEApplication.c ****     switch(At_Command_Idex)
 2527              		.loc 1 771 0
 2528 004a FFF7FEFF 		bl	Command_Identify
 2529              	.LVL330:
 772:.\BLEApplication.c ****     {
 2530              		.loc 1 772 0
 2531 004e 1B28     		cmp	r0, #27
 2532 0050 01D9     		bls	.LCB2421
 2533 0052 00F08FFC 		bl	.L284	@far jump
 2534              	.LCB2421:
 2535 0056 FFF7FEFF 		bl	__gnu_thumb1_case_uhi
 2536              	.L286:
 2537 005a 1C00     		.2byte	(.L285-.L286)/2
 2538 005c 9004     		.2byte	(.L282-.L286)/2
 2539 005e 3000     		.2byte	(.L288-.L286)/2
 2540 0060 8D04     		.2byte	(.L284-.L286)/2
 2541 0062 3800     		.2byte	(.L290-.L286)/2
 2542 0064 4F00     		.2byte	(.L291-.L286)/2
 2543 0066 9004     		.2byte	(.L282-.L286)/2
 2544 0068 A800     		.2byte	(.L292-.L286)/2
 2545 006a 9400     		.2byte	(.L293-.L286)/2
 2546 006c A200     		.2byte	(.L294-.L286)/2
 2547 006e 5B01     		.2byte	(.L295-.L286)/2
 2548 0070 9601     		.2byte	(.L296-.L286)/2
 2549 0072 1802     		.2byte	(.L297-.L286)/2
 2550 0074 5C02     		.2byte	(.L298-.L286)/2
ARM GAS  C:\Users\Helon\AppData\Local\Temp\ccKCxrf8.s 			page 99


 2551 0076 6502     		.2byte	(.L299-.L286)/2
 2552 0078 9004     		.2byte	(.L282-.L286)/2
 2553 007a 9004     		.2byte	(.L282-.L286)/2
 2554 007c 1403     		.2byte	(.L300-.L286)/2
 2555 007e 0702     		.2byte	(.L301-.L286)/2
 2556 0080 4C04     		.2byte	(.L487-.L286)/2
 2557 0082 2203     		.2byte	(.L303-.L286)/2
 2558 0084 2E03     		.2byte	(.L304-.L286)/2
 2559 0086 6E03     		.2byte	(.L305-.L286)/2
 2560 0088 A903     		.2byte	(.L306-.L286)/2
 2561 008a 2904     		.2byte	(.L307-.L286)/2
 2562 008c C503     		.2byte	(.L308-.L286)/2
 2563 008e 4004     		.2byte	(.L309-.L286)/2
 2564 0090 5504     		.2byte	(.L310-.L286)/2
 2565              		.p2align 1
 2566              	.L285:
 781:.\BLEApplication.c ****             {
 2567              		.loc 1 781 0
 2568 0092 637A     		ldrb	r3, [r4, #9]
 2569 0094 312B     		cmp	r3, #49
 2570 0096 01D0     		beq	.LCB2430
 2571 0098 00F06CFC 		bl	.L284	@far jump
 2572              	.LCB2430:
 783:.\BLEApplication.c ****                 while((UART_SpiUartGetTxBufferSize() + UART_GET_TX_FIFO_SR_VALID) != 0);//Á≠âÂæÖ‰∏≤
 2573              		.loc 1 783 0
 2574 009c CD48     		ldr	r0, .L496
 2575              	.LVL331:
 2576 009e FFF7FEFF 		bl	puts
 2577              	.LVL332:
 2578              	.L312:
 784:.\BLEApplication.c ****                 CySoftwareReset();
 2579              		.loc 1 784 0 discriminator 5
 2580 00a2 FFF7FEFF 		bl	UART_SpiUartGetTxBufferSize
 2581              	.LVL333:
 2582 00a6 CC4B     		ldr	r3, .L496+4
 2583 00a8 1B68     		ldr	r3, [r3]
 2584 00aa 1B04     		lsl	r3, r3, #16
 2585 00ac DB17     		asr	r3, r3, #31
 2586 00ae 8342     		cmp	r3, r0
 2587 00b0 F7D1     		bne	.L312
 785:.\BLEApplication.c ****             }
 2588              		.loc 1 785 0
 2589 00b2 FFF7FEFF 		bl	CySoftwareReset
 2590              	.LVL334:
 2591 00b6 00F060FC 		bl	.L282	@ far jump
 2592              	.LVL335:
 2593              	.L288:
 796:.\BLEApplication.c ****             #ifdef RELEASE
 2594              		.loc 1 796 0
 2595 00ba E37A     		ldrb	r3, [r4, #11]
 800:.\BLEApplication.c ****             #endif
 2596              		.loc 1 800 0
 2597 00bc C748     		ldr	r0, .L496+8
 2598              	.LVL336:
 796:.\BLEApplication.c ****             #ifdef RELEASE
 2599              		.loc 1 796 0
 2600 00be 3F2B     		cmp	r3, #63
ARM GAS  C:\Users\Helon\AppData\Local\Temp\ccKCxrf8.s 			page 100


 2601 00c0 01D0     		beq	.LCB2459
 2602 00c2 00F057FC 		bl	.L284	@far jump
 2603              	.LCB2459:
 2604 00c6 00F056FC 		bl	.L483	@ far jump
 2605              	.LVL337:
 2606              	.L290:
 816:.\BLEApplication.c ****             {
 2607              		.loc 1 816 0
 2608 00ca 637A     		ldrb	r3, [r4, #9]
 2609 00cc 3F2B     		cmp	r3, #63
 2610 00ce 01D0     		beq	.LCB2469
 2611 00d0 00F050FC 		bl	.L284	@far jump
 2612              	.LCB2469:
 818:.\BLEApplication.c ****                 printf("+LADDR=%02X%02X%02X%02X%02X%02X\r\n",                  
 2613              		.loc 1 818 0
 2614 00d4 C24C     		ldr	r4, .L496+12
 2615              	.LVL338:
 2616 00d6 201C     		mov	r0, r4
 2617              	.LVL339:
 2618 00d8 FFF7FEFF 		bl	CyBle_GetDeviceAddress
 2619              	.LVL340:
 819:.\BLEApplication.c ****                     DeviceAddr.bdAddr[5],
 2620              		.loc 1 819 0
 2621 00dc A078     		ldrb	r0, [r4, #2]
 2622 00de 6179     		ldrb	r1, [r4, #5]
 2623 00e0 2279     		ldrb	r2, [r4, #4]
 2624 00e2 E378     		ldrb	r3, [r4, #3]
 2625 00e4 0090     		str	r0, [sp]
 2626 00e6 6078     		ldrb	r0, [r4, #1]
 2627 00e8 0190     		str	r0, [sp, #4]
 2628 00ea 2078     		ldrb	r0, [r4]
 2629 00ec 0290     		str	r0, [sp, #8]
 2630 00ee BD48     		ldr	r0, .L496+16
 2631 00f0 FFF7FEFF 		bl	printf
 2632              	.LVL341:
 2633 00f4 00F041FC 		bl	.L282	@ far jump
 2634              	.LVL342:
 2635              	.L291:
 836:.\BLEApplication.c ****              {
 2636              		.loc 1 836 0
 2637 00f8 BB4D     		ldr	r5, .L496+20
 835:.\BLEApplication.c ****              if(Peripheral==Role)
 2638              		.loc 1 835 0
 2639 00fa 237A     		ldrb	r3, [r4, #8]
 2640              	.LVL343:
 836:.\BLEApplication.c ****              {
 2641              		.loc 1 836 0
 2642 00fc 6E78     		ldrb	r6, [r5, #1]
 2643 00fe 002E     		cmp	r6, #0
 2644 0100 51D1     		bne	.L313
 838:.\BLEApplication.c ****                 {
 2645              		.loc 1 838 0
 2646 0102 3C2B     		cmp	r3, #60
 2647 0104 09D0     		beq	.L315
 2648 0106 3F2B     		cmp	r3, #63
 2649 0108 01D0     		beq	.LCB2506
 2650 010a 00F033FC 		bl	.L284	@far jump
ARM GAS  C:\Users\Helon\AppData\Local\Temp\ccKCxrf8.s 			page 101


 2651              	.LCB2506:
 841:.\BLEApplication.c ****                         printf("+NAME=%s\r\n",Name);
 2652              		.loc 1 841 0
 2653 010e 09A8     		add	r0, sp, #36
 2654              	.LVL344:
 2655 0110 FFF7FEFF 		bl	CyBle_GapGetLocalName
 2656              	.LVL345:
 842:.\BLEApplication.c **** //                        free(Name);
 2657              		.loc 1 842 0
 2658 0114 B548     		ldr	r0, .L496+24
 2659 0116 09A9     		add	r1, sp, #36
 2660 0118 B0E2     		b	.L485
 2661              	.LVL346:
 2662              	.L315:
 846:.\BLEApplication.c ****                         {
 2663              		.loc 1 846 0
 2664 011a 0934     		add	r4, r4, #9
 2665              	.LVL347:
 2666 011c 201C     		mov	r0, r4
 2667              	.LVL348:
 2668 011e 3E21     		mov	r1, #62
 2669 0120 FFF7FEFF 		bl	strchr
 2670              	.LVL349:
 2671 0124 001B     		sub	r0, r0, r4
 2672 0126 1728     		cmp	r0, #23
 2673 0128 02DD     		ble	.L317
 848:.\BLEApplication.c ****                             return;
 2674              		.loc 1 848 0
 2675 012a B148     		ldr	r0, .L496+28
 2676 012c 00F023FC 		bl	.L483	@ far jump
 2677              	.L317:
 851:.\BLEApplication.c ****                         {
 2678              		.loc 1 851 0
 2679 0130 B04B     		ldr	r3, .L496+32
 2680 0132 1B78     		ldrb	r3, [r3]
 2681 0134 022B     		cmp	r3, #2
 2682 0136 2FD0     		beq	.L318
 853:.\BLEApplication.c ****                             memset(Name,0,sizeof(char8)*27);
 2683              		.loc 1 853 0
 2684 0138 FFF7FEFF 		bl	CyBle_GappStopAdvertisement
 2685              	.LVL350:
 854:.\BLEApplication.c ****                             DeviceNameLen[0]=Buffer_Length-11;
 2686              		.loc 1 854 0
 2687 013c 311C     		mov	r1, r6
 2688 013e 1B22     		mov	r2, #27
 2689 0140 09A8     		add	r0, sp, #36
 2690 0142 FFF7FEFF 		bl	memset
 2691              	.LVL351:
 856:.\BLEApplication.c ****                             WriteUserSFlashRow(1,DeviceNameLen,1,0x00);//Â∞ÜËÆæÂ§áÂêçÂ≠óÈïøÂ∫¶ÂÜôÂÖ
 2692              		.loc 1 856 0
 2693 0146 291C     		mov	r1, r5
 855:.\BLEApplication.c ****                             memcpy(Name,RX_BUFFER+9,DeviceNameLen[0]);
 2694              		.loc 1 855 0
 2695 0148 6A7F     		ldrb	r2, [r5, #29]
 856:.\BLEApplication.c ****                             WriteUserSFlashRow(1,DeviceNameLen,1,0x00);//Â∞ÜËÆæÂ§áÂêçÂ≠óÈïøÂ∫¶ÂÜôÂÖ
 2696              		.loc 1 856 0
 2697 014a 2731     		add	r1, r1, #39
ARM GAS  C:\Users\Helon\AppData\Local\Temp\ccKCxrf8.s 			page 102


 855:.\BLEApplication.c ****                             memcpy(Name,RX_BUFFER+9,DeviceNameLen[0]);
 2698              		.loc 1 855 0
 2699 014c 0B3A     		sub	r2, r2, #11
 2700 014e D2B2     		uxtb	r2, r2
 856:.\BLEApplication.c ****                             WriteUserSFlashRow(1,DeviceNameLen,1,0x00);//Â∞ÜËÆæÂ§áÂêçÂ≠óÈïøÂ∫¶ÂÜôÂÖ
 2701              		.loc 1 856 0
 2702 0150 09A8     		add	r0, sp, #36
 855:.\BLEApplication.c ****                             memcpy(Name,RX_BUFFER+9,DeviceNameLen[0]);
 2703              		.loc 1 855 0
 2704 0152 3A70     		strb	r2, [r7]
 856:.\BLEApplication.c ****                             WriteUserSFlashRow(1,DeviceNameLen,1,0x00);//Â∞ÜËÆæÂ§áÂêçÂ≠óÈïøÂ∫¶ÂÜôÂÖ
 2705              		.loc 1 856 0
 2706 0154 FFF7FEFF 		bl	memcpy
 2707              	.LVL352:
 857:.\BLEApplication.c ****                             WriteUserSFlashRow(2,Name,DeviceNameLen[0],0x00);//Â∞ÜËÆæÂ§áÂêçÂÜôÂÖ•SF
 2708              		.loc 1 857 0
 2709 0158 0120     		mov	r0, #1
 2710 015a 391C     		mov	r1, r7
 2711 015c 021C     		mov	r2, r0
 2712 015e 331C     		mov	r3, r6
 2713 0160 FFF7FEFF 		bl	WriteUserSFlashRow
 2714              	.LVL353:
 858:.\BLEApplication.c ****                             API_RESULT=CyBle_GapSetLocalName(Name);                            
 2715              		.loc 1 858 0
 2716 0164 3A78     		ldrb	r2, [r7]
 2717 0166 0220     		mov	r0, #2
 2718 0168 09A9     		add	r1, sp, #36
 2719 016a 331C     		mov	r3, r6
 2720 016c FFF7FEFF 		bl	WriteUserSFlashRow
 2721              	.LVL354:
 859:.\BLEApplication.c ****                             if(API_RESULT==CYBLE_ERROR_OK)
 2722              		.loc 1 859 0
 2723 0170 09A8     		add	r0, sp, #36
 2724 0172 FFF7FEFF 		bl	CyBle_GapSetLocalName
 2725              	.LVL355:
 2726              	.L481:
 860:.\BLEApplication.c ****                             {
 2727              		.loc 1 860 0
 2728 0176 0028     		cmp	r0, #0
 2729 0178 00D1     		bne	.LCB2578
 2730 017a BAE3     		b	.L487	@long jump
 2731              	.LCB2578:
 2732              	.L319:
 868:.\BLEApplication.c ****                             }
 2733              		.loc 1 868 0
 2734 017c 9E48     		ldr	r0, .L496+36
 2735              	.LVL356:
 2736 017e 00F0FAFB 		bl	.L483	@ far jump
 2737              	.LVL357:
 2738              	.L293:
 907:.\BLEApplication.c ****             {
 2739              		.loc 1 907 0
 2740 0182 994A     		ldr	r2, .L496+20
 906:.\BLEApplication.c ****             if(Peripheral==Role)
 2741              		.loc 1 906 0
 2742 0184 237A     		ldrb	r3, [r4, #8]
 2743              	.LVL358:
ARM GAS  C:\Users\Helon\AppData\Local\Temp\ccKCxrf8.s 			page 103


 907:.\BLEApplication.c ****             {
 2744              		.loc 1 907 0
 2745 0186 5578     		ldrb	r5, [r2, #1]
 2746 0188 002D     		cmp	r5, #0
 2747 018a 0CD1     		bne	.L313
 909:.\BLEApplication.c ****                 {
 2748              		.loc 1 909 0
 2749 018c 3C2B     		cmp	r3, #60
 2750 018e 14D1     		bne	.L491
 912:.\BLEApplication.c ****                         {
 2751              		.loc 1 912 0
 2752 0190 984B     		ldr	r3, .L496+32
 2753              	.LVL359:
 2754 0192 1B78     		ldrb	r3, [r3]
 2755 0194 032B     		cmp	r3, #3
 2756 0196 13D1     		bne	.L492
 2757              	.LVL360:
 2758              	.L318:
 875:.\BLEApplication.c **** //                            printf("+NAME=<INVALID>\r\n"); 
 2759              		.loc 1 875 0
 2760 0198 9848     		ldr	r0, .L496+40
 2761 019a 00F0ECFB 		bl	.L483	@ far jump
 2762              	.LVL361:
 2763              	.L294:
 973:.\BLEApplication.c ****             {
 2764              		.loc 1 973 0
 2765 019e 924B     		ldr	r3, .L496+20
 2766 01a0 5B78     		ldrb	r3, [r3, #1]
 2767 01a2 002B     		cmp	r3, #0
 2768 01a4 5ED0     		beq	.L493
 2769              	.LVL362:
 2770              	.L313:
 887:.\BLEApplication.c ****              }
 2771              		.loc 1 887 0
 2772 01a6 9648     		ldr	r0, .L496+44
 2773 01a8 E5E3     		b	.L483
 2774              	.LVL363:
 2775              	.L292:
 896:.\BLEApplication.c ****                 TxPower_Handler(idx);
 2776              		.loc 1 896 0
 2777 01aa 8F4B     		ldr	r3, .L496+20
 895:.\BLEApplication.c ****             if(Role==Peripheral)
 2778              		.loc 1 895 0
 2779 01ac E079     		ldrb	r0, [r4, #7]
 2780              	.LVL364:
 896:.\BLEApplication.c ****                 TxPower_Handler(idx);
 2781              		.loc 1 896 0
 2782 01ae 5B78     		ldrb	r3, [r3, #1]
 2783 01b0 002B     		cmp	r3, #0
 2784 01b2 F8D1     		bne	.L313
 897:.\BLEApplication.c ****              else
 2785              		.loc 1 897 0
 2786 01b4 FFF7FEFF 		bl	TxPower_Handler
 2787              	.LVL365:
 2788 01b8 DFE3     		b	.L282
 2789              	.LVL366:
 2790              	.L491:
ARM GAS  C:\Users\Helon\AppData\Local\Temp\ccKCxrf8.s 			page 104


 909:.\BLEApplication.c ****                 {
 2791              		.loc 1 909 0
 2792 01ba 3F2B     		cmp	r3, #63
 2793 01bc 3DD0     		beq	.L322
 2794 01be D9E3     		b	.L284
 2795              	.LVL367:
 2796              	.L492:
 914:.\BLEApplication.c ****                             {
 2797              		.loc 1 914 0
 2798 01c0 271C     		mov	r7, r4
 2799 01c2 0937     		add	r7, r7, #9
 2800 01c4 381C     		mov	r0, r7
 2801              	.LVL368:
 2802 01c6 3E21     		mov	r1, #62
 2803 01c8 FFF7FEFF 		bl	strchr
 2804              	.LVL369:
 2805 01cc C01B     		sub	r0, r0, r7
 2806 01ce 1F28     		cmp	r0, #31
 2807 01d0 01DD     		ble	.L323
 916:.\BLEApplication.c ****                                 return;
 2808              		.loc 1 916 0
 2809 01d2 8C48     		ldr	r0, .L496+48
 2810 01d4 CFE3     		b	.L483
 2811              	.L323:
 919:.\BLEApplication.c ****                             memcpy(StrAdvDataLength,SerialData+9,2);
 2812              		.loc 1 919 0
 2813 01d6 18AE     		add	r6, sp, #96
 2814 01d8 291C     		mov	r1, r5
 2815 01da 1F22     		mov	r2, #31
 2816 01dc 301C     		mov	r0, r6
 2817 01de FFF7FEFF 		bl	memset
 2818              	.LVL370:
 920:.\BLEApplication.c ****                             StrToHex(&AdvDataLength,StrAdvDataLength,1);
 2819              		.loc 1 920 0
 2820 01e2 391C     		mov	r1, r7
 921:.\BLEApplication.c ****                             advDiscData.advDataLen=AdvDataLength;
 2821              		.loc 1 921 0
 2822 01e4 1627     		mov	r7, #22
 920:.\BLEApplication.c ****                             StrToHex(&AdvDataLength,StrAdvDataLength,1);
 2823              		.loc 1 920 0
 2824 01e6 0222     		mov	r2, #2
 921:.\BLEApplication.c ****                             advDiscData.advDataLen=AdvDataLength;
 2825              		.loc 1 921 0
 2826 01e8 6F44     		add	r7, r7, sp
 920:.\BLEApplication.c ****                             StrToHex(&AdvDataLength,StrAdvDataLength,1);
 2827              		.loc 1 920 0
 2828 01ea 06A8     		add	r0, sp, #24
 2829 01ec FFF7FEFF 		bl	memcpy
 2830              	.LVL371:
 921:.\BLEApplication.c ****                             advDiscData.advDataLen=AdvDataLength;
 2831              		.loc 1 921 0
 2832 01f0 381C     		mov	r0, r7
 2833 01f2 06A9     		add	r1, sp, #24
 2834 01f4 0122     		mov	r2, #1
 2835 01f6 FFF7FEFF 		bl	StrToHex
 2836              	.LVL372:
 923:.\BLEApplication.c ****                             StrToHex(AdvData,StrAdvData,sizeof(StrAdvData)/sizeof(char)/2);
ARM GAS  C:\Users\Helon\AppData\Local\Temp\ccKCxrf8.s 			page 105


 2837              		.loc 1 923 0
 2838 01fa 211C     		mov	r1, r4
 922:.\BLEApplication.c ****                             memcpy(StrAdvData,SerialData+12,AdvDataLength*2);
 2839              		.loc 1 922 0
 2840 01fc 3A78     		ldrb	r2, [r7]
 923:.\BLEApplication.c ****                             StrToHex(AdvData,StrAdvData,sizeof(StrAdvData)/sizeof(char)/2);
 2841              		.loc 1 923 0
 2842 01fe 0C31     		add	r1, r1, #12
 922:.\BLEApplication.c ****                             memcpy(StrAdvData,SerialData+12,AdvDataLength*2);
 2843              		.loc 1 922 0
 2844 0200 F277     		strb	r2, [r6, #31]
 923:.\BLEApplication.c ****                             StrToHex(AdvData,StrAdvData,sizeof(StrAdvData)/sizeof(char)/2);
 2845              		.loc 1 923 0
 2846 0202 20A8     		add	r0, sp, #128
 2847 0204 5200     		lsl	r2, r2, #1
 2848 0206 FFF7FEFF 		bl	memcpy
 2849              	.LVL373:
 924:.\BLEApplication.c ****                             memcpy(advDiscData.advData,AdvData,advDiscData.advDataLen);
 2850              		.loc 1 924 0
 2851 020a 10A8     		add	r0, sp, #64
 2852 020c 20A9     		add	r1, sp, #128
 2853 020e 1F22     		mov	r2, #31
 2854 0210 FFF7FEFF 		bl	StrToHex
 2855              	.LVL374:
 925:.\BLEApplication.c ****                             API_RESULT=CyBle_GapUpdateAdvData(&advDiscData,NULL);
 2856              		.loc 1 925 0
 2857 0214 10A9     		add	r1, sp, #64
 2858 0216 F27F     		ldrb	r2, [r6, #31]
 2859 0218 301C     		mov	r0, r6
 2860 021a FFF7FEFF 		bl	memcpy
 2861              	.LVL375:
 926:.\BLEApplication.c ****                             if(CYBLE_ERROR_OK==API_RESULT)
 2862              		.loc 1 926 0
 2863 021e 301C     		mov	r0, r6
 2864 0220 291C     		mov	r1, r5
 2865 0222 FFF7FEFF 		bl	CyBle_GapUpdateAdvData
 2866              	.LVL376:
 927:.\BLEApplication.c ****                             {
 2867              		.loc 1 927 0
 2868 0226 0028     		cmp	r0, #0
 2869 0228 A8D1     		bne	.L319
 930:.\BLEApplication.c ****                                 memcpy(cyBle_discoveryModeInfo.advData->advData,AdvData,AdvDataLeng
 2870              		.loc 1 930 0
 2871 022a 774B     		ldr	r3, .L496+52
 2872 022c 3A78     		ldrb	r2, [r7]
 2873 022e 9868     		ldr	r0, [r3, #8]
 2874              	.LVL377:
 931:.\BLEApplication.c ****                                 printf("AT+OK\r\n");
 2875              		.loc 1 931 0
 2876 0230 10A9     		add	r1, sp, #64
 930:.\BLEApplication.c ****                                 memcpy(cyBle_discoveryModeInfo.advData->advData,AdvData,AdvDataLeng
 2877              		.loc 1 930 0
 2878 0232 C277     		strb	r2, [r0, #31]
 931:.\BLEApplication.c ****                                 printf("AT+OK\r\n");
 2879              		.loc 1 931 0
 2880 0234 FFF7FEFF 		bl	memcpy
 2881              	.LVL378:
ARM GAS  C:\Users\Helon\AppData\Local\Temp\ccKCxrf8.s 			page 106


 2882 0238 5BE3     		b	.L487
 2883              	.LVL379:
 2884              	.L322:
 945:.\BLEApplication.c ****                         {
 2885              		.loc 1 945 0
 2886 023a 6E4B     		ldr	r3, .L496+32
 2887              	.LVL380:
 2888 023c 1B78     		ldrb	r3, [r3]
 2889 023e 032B     		cmp	r3, #3
 2890 0240 AAD1     		bne	.L318
 947:.\BLEApplication.c ****                             for(i=0;i<cyBle_discoveryModeInfo.advData->advDataLen;i++)
 2891              		.loc 1 947 0
 2892 0242 7248     		ldr	r0, .L496+56
 2893              	.LVL381:
 2894 0244 FFF7FEFF 		bl	printf
 2895              	.LVL382:
 2896              	.L324:
 948:.\BLEApplication.c ****                             {
 2897              		.loc 1 948 0 discriminator 1
 2898 0248 6F4B     		ldr	r3, .L496+52
 2899 024a 9B68     		ldr	r3, [r3, #8]
 2900 024c DA7F     		ldrb	r2, [r3, #31]
 2901 024e AA42     		cmp	r2, r5
 2902 0250 06D9     		bls	.L494
 950:.\BLEApplication.c ****                             }
 2903              		.loc 1 950 0 discriminator 3
 2904 0252 595D     		ldrb	r1, [r3, r5]
 2905 0254 6E48     		ldr	r0, .L496+60
 948:.\BLEApplication.c ****                             {
 2906              		.loc 1 948 0 discriminator 3
 2907 0256 0135     		add	r5, r5, #1
 2908              	.LVL383:
 950:.\BLEApplication.c ****                             }
 2909              		.loc 1 950 0 discriminator 3
 2910 0258 FFF7FEFF 		bl	printf
 2911              	.LVL384:
 948:.\BLEApplication.c ****                             {
 2912              		.loc 1 948 0 discriminator 3
 2913 025c EDB2     		uxtb	r5, r5
 2914              	.LVL385:
 2915 025e F3E7     		b	.L324
 2916              	.L494:
 952:.\BLEApplication.c ****                         }
 2917              		.loc 1 952 0
 2918 0260 6C48     		ldr	r0, .L496+64
 2919 0262 88E3     		b	.L483
 2920              	.LVL386:
 2921              	.L493:
 976:.\BLEApplication.c ****                 {
 2922              		.loc 1 976 0
 2923 0264 634B     		ldr	r3, .L496+32
 975:.\BLEApplication.c ****                 if((CYBLE_STATE_CONNECTED!=CyBle_GetState()))
 2924              		.loc 1 975 0
 2925 0266 227A     		ldrb	r2, [r4, #8]
 2926              	.LVL387:
 976:.\BLEApplication.c ****                 {
 2927              		.loc 1 976 0
ARM GAS  C:\Users\Helon\AppData\Local\Temp\ccKCxrf8.s 			page 107


 2928 0268 1B78     		ldrb	r3, [r3]
 2929 026a 022B     		cmp	r3, #2
 2930 026c 94D0     		beq	.L318
 978:.\BLEApplication.c ****                     {
 2931              		.loc 1 978 0
 2932 026e 3C2A     		cmp	r2, #60
 2933 0270 26D0     		beq	.L327
 2934 0272 3F2A     		cmp	r2, #63
 2935 0274 00D0     		beq	.LCB2780
 2936 0276 7DE3     		b	.L284	@long jump
 2937              	.LCB2780:
 981:.\BLEApplication.c ****                         AdvMax=(cyBle_discoveryModeInfo.advParam->advIntvMax)*0.625;               
 2938              		.loc 1 981 0
 2939 0278 634D     		ldr	r5, .L496+52
 2940 027a 6E68     		ldr	r6, [r5, #4]
 2941              	.LVL388:
 2942 027c 3088     		ldrh	r0, [r6]
 2943              	.LVL389:
 2944 027e FFF7FEFF 		bl	__aeabi_i2d
 2945              	.LVL390:
 2946 0282 0022     		mov	r2, #0
 2947 0284 644B     		ldr	r3, .L496+68
 2948 0286 FFF7FEFF 		bl	__aeabi_dmul
 2949              	.LVL391:
 2950 028a FFF7FEFF 		bl	__aeabi_d2iz
 2951              	.LVL392:
 983:.\BLEApplication.c ****                         AdvMax,cyBle_discoveryModeInfo.advTo);
 2952              		.loc 1 983 0
 2953 028e 04B2     		sxth	r4, r0
 2954              	.LVL393:
 982:.\BLEApplication.c ****                         printf("+ADVI=%hdms,%hdms,%hus\r\n",AdvMin,
 2955              		.loc 1 982 0
 2956 0290 7088     		ldrh	r0, [r6, #2]
 2957              	.LVL394:
 2958 0292 FFF7FEFF 		bl	__aeabi_i2d
 2959              	.LVL395:
 2960 0296 0022     		mov	r2, #0
 2961 0298 5F4B     		ldr	r3, .L496+68
 2962 029a FFF7FEFF 		bl	__aeabi_dmul
 2963              	.LVL396:
 2964 029e FFF7FEFF 		bl	__aeabi_d2iz
 2965              	.LVL397:
 983:.\BLEApplication.c ****                         AdvMax,cyBle_discoveryModeInfo.advTo);
 2966              		.loc 1 983 0
 2967 02a2 2B8A     		ldrh	r3, [r5, #16]
 2968 02a4 02B2     		sxth	r2, r0
 2969 02a6 211C     		mov	r1, r4
 2970 02a8 5C48     		ldr	r0, .L496+72
 2971 02aa FFF7FEFF 		bl	printf
 2972              	.LVL398:
 2973              	.L329:
 985:.\BLEApplication.c ****                         break;
 2974              		.loc 1 985 0 discriminator 5
 2975 02ae FFF7FEFF 		bl	UART_SpiUartGetTxBufferSize
 2976              	.LVL399:
 2977 02b2 494B     		ldr	r3, .L496+4
 2978 02b4 1B68     		ldr	r3, [r3]
ARM GAS  C:\Users\Helon\AppData\Local\Temp\ccKCxrf8.s 			page 108


 2979 02b6 1B04     		lsl	r3, r3, #16
 2980 02b8 DB17     		asr	r3, r3, #31
 2981 02ba 8342     		cmp	r3, r0
 2982 02bc F7D1     		bne	.L329
 2983 02be 5CE3     		b	.L282
 2984              	.LVL400:
 2985              	.L327:
 989:.\BLEApplication.c ****                         {
 2986              		.loc 1 989 0
 2987 02c0 032B     		cmp	r3, #3
 2988 02c2 00D1     		bne	.LCB2839
 2989 02c4 68E7     		b	.L318	@long jump
 2990              	.LCB2839:
 992:.\BLEApplication.c ****                             AdvParamArray[1]=SerialData[10];
 2991              		.loc 1 992 0
 2992 02c6 637A     		ldrb	r3, [r4, #9]
 994:.\BLEApplication.c ****                             cyBle_discoveryModeInfo.advParam->advIntvMin=AdvParam;
 2993              		.loc 1 994 0
 2994 02c8 301C     		mov	r0, r6
 2995              	.LVL401:
 992:.\BLEApplication.c ****                             AdvParamArray[1]=SerialData[10];
 2996              		.loc 1 992 0
 2997 02ca 2B70     		strb	r3, [r5]
 993:.\BLEApplication.c ****                             StrToHex(&AdvParam,AdvParamArray,1);
 2998              		.loc 1 993 0
 2999 02cc A37A     		ldrb	r3, [r4, #10]
 994:.\BLEApplication.c ****                             cyBle_discoveryModeInfo.advParam->advIntvMin=AdvParam;
 3000              		.loc 1 994 0
 3001 02ce 291C     		mov	r1, r5
 3002 02d0 0122     		mov	r2, #1
 3003              	.LVL402:
 993:.\BLEApplication.c ****                             StrToHex(&AdvParam,AdvParamArray,1);
 3004              		.loc 1 993 0
 3005 02d2 6B70     		strb	r3, [r5, #1]
 994:.\BLEApplication.c ****                             cyBle_discoveryModeInfo.advParam->advIntvMin=AdvParam;
 3006              		.loc 1 994 0
 3007 02d4 FFF7FEFF 		bl	StrToHex
 3008              	.LVL403:
 995:.\BLEApplication.c ****         //                    Ëé∑ÂèñAdvMaxÂÄº
 3009              		.loc 1 995 0
 3010 02d8 4B4F     		ldr	r7, .L496+52
 3011 02da 3378     		ldrb	r3, [r6]
 3012 02dc 7A68     		ldr	r2, [r7, #4]
 999:.\BLEApplication.c ****                             cyBle_discoveryModeInfo.advParam->advIntvMax=AdvParam;
 3013              		.loc 1 999 0
 3014 02de 301C     		mov	r0, r6
 995:.\BLEApplication.c ****         //                    Ëé∑ÂèñAdvMaxÂÄº
 3015              		.loc 1 995 0
 3016 02e0 1380     		strh	r3, [r2]
 997:.\BLEApplication.c ****                             AdvParamArray[1]=SerialData[13];
 3017              		.loc 1 997 0
 3018 02e2 237B     		ldrb	r3, [r4, #12]
 999:.\BLEApplication.c ****                             cyBle_discoveryModeInfo.advParam->advIntvMax=AdvParam;
 3019              		.loc 1 999 0
 3020 02e4 291C     		mov	r1, r5
 997:.\BLEApplication.c ****                             AdvParamArray[1]=SerialData[13];
 3021              		.loc 1 997 0
ARM GAS  C:\Users\Helon\AppData\Local\Temp\ccKCxrf8.s 			page 109


 3022 02e6 2B70     		strb	r3, [r5]
 998:.\BLEApplication.c ****                             StrToHex(&AdvParam,AdvParamArray,1);
 3023              		.loc 1 998 0
 3024 02e8 637B     		ldrb	r3, [r4, #13]
 999:.\BLEApplication.c ****                             cyBle_discoveryModeInfo.advParam->advIntvMax=AdvParam;
 3025              		.loc 1 999 0
 3026 02ea 0122     		mov	r2, #1
 998:.\BLEApplication.c ****                             StrToHex(&AdvParam,AdvParamArray,1);
 3027              		.loc 1 998 0
 3028 02ec 6B70     		strb	r3, [r5, #1]
 999:.\BLEApplication.c ****                             cyBle_discoveryModeInfo.advParam->advIntvMax=AdvParam;
 3029              		.loc 1 999 0
 3030 02ee FFF7FEFF 		bl	StrToHex
 3031              	.LVL404:
1000:.\BLEApplication.c ****         //                      Ëé∑ÂèñAdvToÂÄº
 3032              		.loc 1 1000 0
 3033 02f2 3378     		ldrb	r3, [r6]
 3034 02f4 7A68     		ldr	r2, [r7, #4]
1004:.\BLEApplication.c ****                             cyBle_discoveryModeInfo.advTo=AdvParam;
 3035              		.loc 1 1004 0
 3036 02f6 301C     		mov	r0, r6
1000:.\BLEApplication.c ****         //                      Ëé∑ÂèñAdvToÂÄº
 3037              		.loc 1 1000 0
 3038 02f8 5380     		strh	r3, [r2, #2]
1002:.\BLEApplication.c ****                             AdvParamArray[1]=SerialData[16];
 3039              		.loc 1 1002 0
 3040 02fa E37B     		ldrb	r3, [r4, #15]
1004:.\BLEApplication.c ****                             cyBle_discoveryModeInfo.advTo=AdvParam;
 3041              		.loc 1 1004 0
 3042 02fc 291C     		mov	r1, r5
1002:.\BLEApplication.c ****                             AdvParamArray[1]=SerialData[16];
 3043              		.loc 1 1002 0
 3044 02fe 2B70     		strb	r3, [r5]
1003:.\BLEApplication.c ****                             StrToHex(&AdvParam,AdvParamArray,1);
 3045              		.loc 1 1003 0
 3046 0300 237C     		ldrb	r3, [r4, #16]
1004:.\BLEApplication.c ****                             cyBle_discoveryModeInfo.advTo=AdvParam;
 3047              		.loc 1 1004 0
 3048 0302 0122     		mov	r2, #1
1003:.\BLEApplication.c ****                             StrToHex(&AdvParam,AdvParamArray,1);
 3049              		.loc 1 1003 0
 3050 0304 6B70     		strb	r3, [r5, #1]
1004:.\BLEApplication.c ****                             cyBle_discoveryModeInfo.advTo=AdvParam;
 3051              		.loc 1 1004 0
 3052 0306 FFF7FEFF 		bl	StrToHex
 3053              	.LVL405:
1005:.\BLEApplication.c ****                             printf("AT+OK\r\n");
 3054              		.loc 1 1005 0
 3055 030a 3378     		ldrb	r3, [r6]
 3056 030c 3B82     		strh	r3, [r7, #16]
 3057 030e F0E2     		b	.L487
 3058              	.LVL406:
 3059              	.L295:
1037:.\BLEApplication.c ****             {
 3060              		.loc 1 1037 0
 3061 0310 637A     		ldrb	r3, [r4, #9]
 3062 0312 3C2B     		cmp	r3, #60
ARM GAS  C:\Users\Helon\AppData\Local\Temp\ccKCxrf8.s 			page 110


 3063 0314 0FD0     		beq	.L331
 3064 0316 3F2B     		cmp	r3, #63
 3065 0318 00D0     		beq	.LCB2894
 3066 031a 2BE3     		b	.L284	@long jump
 3067              	.LCB2894:
1040:.\BLEApplication.c ****                 {
 3068              		.loc 1 1040 0
 3069 031c 354B     		ldr	r3, .L496+32
 3070 031e 1B78     		ldrb	r3, [r3]
 3071 0320 022B     		cmp	r3, #2
 3072 0322 00D0     		beq	.LCB2898
 3073 0324 38E7     		b	.L318	@long jump
 3074              	.LCB2898:
1044:.\BLEApplication.c ****                     ConnParam.supervisionTO,ConnParam.connLatency);
 3075              		.loc 1 1044 0
 3076 0326 3E4B     		ldr	r3, .L496+76
 3077 0328 3E48     		ldr	r0, .L496+80
 3078              	.LVL407:
 3079 032a 5988     		ldrh	r1, [r3, #2]
 3080 032c DA88     		ldrh	r2, [r3, #6]
 3081 032e 9B88     		ldrh	r3, [r3, #4]
 3082 0330 FFF7FEFF 		bl	printf
 3083              	.LVL408:
 3084 0334 21E3     		b	.L282
 3085              	.LVL409:
 3086              	.L331:
1055:.\BLEApplication.c ****                 {
 3087              		.loc 1 1055 0
 3088 0336 2C4B     		ldr	r3, .L496+20
 3089 0338 5F78     		ldrb	r7, [r3, #1]
 3090 033a 012F     		cmp	r7, #1
 3091 033c 00D0     		beq	.LCB2917
 3092 033e 32E7     		b	.L313	@long jump
 3093              	.LCB2917:
1057:.\BLEApplication.c ****                     {
 3094              		.loc 1 1057 0
 3095 0340 2C4B     		ldr	r3, .L496+32
 3096 0342 1B78     		ldrb	r3, [r3]
 3097 0344 022B     		cmp	r3, #2
 3098 0346 00D0     		beq	.LCB2921
 3099 0348 26E7     		b	.L318	@long jump
 3100              	.LCB2921:
1060:.\BLEApplication.c ****                         AdvParamArray[1]=SerialData[11];
 3101              		.loc 1 1060 0
 3102 034a A37A     		ldrb	r3, [r4, #10]
1062:.\BLEApplication.c ****                         connParam.connIntvMin=AdvParam;
 3103              		.loc 1 1062 0
 3104 034c 301C     		mov	r0, r6
 3105              	.LVL410:
1060:.\BLEApplication.c ****                         AdvParamArray[1]=SerialData[11];
 3106              		.loc 1 1060 0
 3107 034e 2B70     		strb	r3, [r5]
1061:.\BLEApplication.c ****                         StrToHex(&AdvParam,AdvParamArray,1);
 3108              		.loc 1 1061 0
 3109 0350 E37A     		ldrb	r3, [r4, #11]
1062:.\BLEApplication.c ****                         connParam.connIntvMin=AdvParam;
 3110              		.loc 1 1062 0
ARM GAS  C:\Users\Helon\AppData\Local\Temp\ccKCxrf8.s 			page 111


 3111 0352 291C     		mov	r1, r5
 3112 0354 3A1C     		mov	r2, r7
1061:.\BLEApplication.c ****                         StrToHex(&AdvParam,AdvParamArray,1);
 3113              		.loc 1 1061 0
 3114 0356 6B70     		strb	r3, [r5, #1]
1062:.\BLEApplication.c ****                         connParam.connIntvMin=AdvParam;
 3115              		.loc 1 1062 0
 3116 0358 FFF7FEFF 		bl	StrToHex
 3117              	.LVL411:
1063:.\BLEApplication.c ****     //                    Ëé∑ÂèñÊúÄÂ§ßËøûÊé•Èó¥Èöî                    
 3118              		.loc 1 1063 0
 3119 035c 3378     		ldrb	r3, [r6]
 3120 035e 324A     		ldr	r2, .L496+84
1067:.\BLEApplication.c ****                         connParam.connIntvMax=AdvParam;
 3121              		.loc 1 1067 0
 3122 0360 301C     		mov	r0, r6
1063:.\BLEApplication.c ****     //                    Ëé∑ÂèñÊúÄÂ§ßËøûÊé•Èó¥Èöî                    
 3123              		.loc 1 1063 0
 3124 0362 1380     		strh	r3, [r2]
1065:.\BLEApplication.c ****                         AdvParamArray[1]=SerialData[14];
 3125              		.loc 1 1065 0
 3126 0364 637B     		ldrb	r3, [r4, #13]
1067:.\BLEApplication.c ****                         connParam.connIntvMax=AdvParam;
 3127              		.loc 1 1067 0
 3128 0366 291C     		mov	r1, r5
1065:.\BLEApplication.c ****                         AdvParamArray[1]=SerialData[14];
 3129              		.loc 1 1065 0
 3130 0368 2B70     		strb	r3, [r5]
1066:.\BLEApplication.c ****                         StrToHex(&AdvParam,AdvParamArray,1);
 3131              		.loc 1 1066 0
 3132 036a A37B     		ldrb	r3, [r4, #14]
1067:.\BLEApplication.c ****                         connParam.connIntvMax=AdvParam;
 3133              		.loc 1 1067 0
 3134 036c 3A1C     		mov	r2, r7
1066:.\BLEApplication.c ****                         StrToHex(&AdvParam,AdvParamArray,1);
 3135              		.loc 1 1066 0
 3136 036e 6B70     		strb	r3, [r5, #1]
1067:.\BLEApplication.c ****                         connParam.connIntvMax=AdvParam;
 3137              		.loc 1 1067 0
 3138 0370 FFF7FEFF 		bl	StrToHex
 3139              	.LVL412:
1068:.\BLEApplication.c ****     //                    ÂèëËµ∑ËøûÊé•Èó¥ÈöîÊõ¥Êñ∞ËØ∑Ê±Ç
 3140              		.loc 1 1068 0
 3141 0374 3378     		ldrb	r3, [r6]
 3142 0376 2C4A     		ldr	r2, .L496+84
 3143 0378 5380     		strh	r3, [r2, #2]
1070:.\BLEApplication.c ****                         if(CYBLE_ERROR_OK==API_RESULT)
 3144              		.loc 1 1070 0
 3145 037a 2C4B     		ldr	r3, .L496+88
 3146 037c 111C     		mov	r1, r2
 3147 037e 1878     		ldrb	r0, [r3]
 3148 0380 FFF7FEFF 		bl	CyBle_GapcConnectionParamUpdateRequest
 3149              	.LVL413:
 3150 0384 F7E6     		b	.L481
 3151              	.LVL414:
 3152              	.L296:
1105:.\BLEApplication.c ****             {
ARM GAS  C:\Users\Helon\AppData\Local\Temp\ccKCxrf8.s 			page 112


 3153              		.loc 1 1105 0
 3154 0386 237A     		ldrb	r3, [r4, #8]
 3155 0388 312B     		cmp	r3, #49
 3156 038a 55D0     		beq	.L335
 3157 038c 3F2B     		cmp	r3, #63
 3158 038e 03D0     		beq	.L336
 3159 0390 302B     		cmp	r3, #48
 3160 0392 00D0     		beq	.LCB2971
 3161 0394 EEE2     		b	.L284	@long jump
 3162              	.LCB2971:
 3163 0396 07E0     		b	.L495
 3164              	.L336:
1108:.\BLEApplication.c ****                     {
 3165              		.loc 1 1108 0
 3166 0398 134B     		ldr	r3, .L496+20
1110:.\BLEApplication.c **** //                        printf("+ROLE=<Peripheral>\r\n");
 3167              		.loc 1 1110 0
 3168 039a 2548     		ldr	r0, .L496+92
 3169              	.LVL415:
1108:.\BLEApplication.c ****                     {
 3170              		.loc 1 1108 0
 3171 039c 5B78     		ldrb	r3, [r3, #1]
 3172 039e 002B     		cmp	r3, #0
 3173 03a0 00D1     		bne	.LCB2981
 3174 03a2 E8E2     		b	.L483	@long jump
 3175              	.LCB2981:
1115:.\BLEApplication.c **** //                        printf("+ROLE=<Central>\r\n");
 3176              		.loc 1 1115 0
 3177 03a4 2348     		ldr	r0, .L496+96
 3178 03a6 E6E2     		b	.L483
 3179              	.LVL416:
 3180              	.L495:
1121:.\BLEApplication.c ****                     {
 3181              		.loc 1 1121 0
 3182 03a8 124B     		ldr	r3, .L496+32
 3183 03aa 1B78     		ldrb	r3, [r3]
 3184 03ac 022B     		cmp	r3, #2
 3185 03ae 00D1     		bne	.LCB2991
 3186 03b0 F2E6     		b	.L318	@long jump
 3187              	.LCB2991:
1123:.\BLEApplication.c ****                         if(USER_SFLASH_WRITE_SUCCESSFUL==WriteUserSFlashRow(0,&WriteDataToFlash,1,0
 3188              		.loc 1 1123 0
 3189 03b2 0024     		mov	r4, #0
 3190              	.LVL417:
1124:.\BLEApplication.c ****                         {
 3191              		.loc 1 1124 0
 3192 03b4 0623     		mov	r3, #6
 3193 03b6 201C     		mov	r0, r4
 3194              	.LVL418:
 3195 03b8 08A9     		add	r1, sp, #32
 3196 03ba 0122     		mov	r2, #1
1123:.\BLEApplication.c ****                         if(USER_SFLASH_WRITE_SUCCESSFUL==WriteUserSFlashRow(0,&WriteDataToFlash,1,0
 3197              		.loc 1 1123 0
 3198 03bc 0894     		str	r4, [sp, #32]
1124:.\BLEApplication.c ****                         {
 3199              		.loc 1 1124 0
 3200 03be FFF7FEFF 		bl	WriteUserSFlashRow
ARM GAS  C:\Users\Helon\AppData\Local\Temp\ccKCxrf8.s 			page 113


 3201              	.LVL419:
 3202 03c2 A023     		mov	r3, #160
 3203 03c4 1B06     		lsl	r3, r3, #24
 3204 03c6 9842     		cmp	r0, r3
 3205 03c8 00D0     		beq	.LCB3007
 3206 03ca D6E2     		b	.L282	@long jump
 3207              	.LCB3007:
1129:.\BLEApplication.c ****                             Role=Peripheral;
 3208              		.loc 1 1129 0
 3209 03cc 201C     		mov	r0, r4
 3210 03ce FFF7FEFF 		bl	CyBle_GappStartAdvertisement
 3211              	.LVL420:
 3212 03d2 46E0     		b	.L490
 3213              	.L497:
 3214              		.align	2
 3215              	.L496:
 3216 03d4 4A010000 		.word	.LC67
 3217 03d8 08022440 		.word	1076101640
 3218 03dc 45030000 		.word	.LC155
 3219 03e0 00000000 		.word	DeviceAddr
 3220 03e4 5D030000 		.word	.LC158
 3221 03e8 00000000 		.word	.LANCHOR0
 3222 03ec 7F030000 		.word	.LC161
 3223 03f0 8A030000 		.word	.LC163
 3224 03f4 00000000 		.word	cyBle_state
 3225 03f8 94030000 		.word	.LC166
 3226 03fc 79010000 		.word	.LC75
 3227 0400 83010000 		.word	.LC77
 3228 0404 9E030000 		.word	.LC170
 3229 0408 00000000 		.word	cyBle_discoveryModeInfo
 3230 040c A8030000 		.word	.LC173
 3231 0410 AF030000 		.word	.LC175
 3232 0414 B4030000 		.word	.LC177
 3233 0418 0000E43F 		.word	1071906816
 3234 041c B6030000 		.word	.LC179
 3235 0420 00000000 		.word	ConnParam
 3236 0424 CF030000 		.word	.LC181
 3237 0428 00000000 		.word	.LANCHOR1
 3238 042c 00000000 		.word	cyBle_connHandle
 3239 0430 E7030000 		.word	.LC186
 3240 0434 F0030000 		.word	.LC188
 3241              	.LVL421:
 3242              	.L335:
1144:.\BLEApplication.c ****                     {
 3243              		.loc 1 1144 0
 3244 0438 C64B     		ldr	r3, .L498
 3245 043a 1B78     		ldrb	r3, [r3]
 3246 043c 022B     		cmp	r3, #2
 3247 043e 00D1     		bne	.LCB3051
 3248 0440 AAE6     		b	.L318	@long jump
 3249              	.LCB3051:
1146:.\BLEApplication.c ****                         if(USER_SFLASH_WRITE_SUCCESSFUL==WriteUserSFlashRow(0,&WriteDataToFlash,1,0
 3250              		.loc 1 1146 0
 3251 0442 0124     		mov	r4, #1
 3252              	.LVL422:
1147:.\BLEApplication.c ****                         {
 3253              		.loc 1 1147 0
ARM GAS  C:\Users\Helon\AppData\Local\Temp\ccKCxrf8.s 			page 114


 3254 0444 0623     		mov	r3, #6
 3255 0446 0020     		mov	r0, #0
 3256              	.LVL423:
 3257 0448 08A9     		add	r1, sp, #32
 3258 044a 221C     		mov	r2, r4
1146:.\BLEApplication.c ****                         if(USER_SFLASH_WRITE_SUCCESSFUL==WriteUserSFlashRow(0,&WriteDataToFlash,1,0
 3259              		.loc 1 1146 0
 3260 044c 0894     		str	r4, [sp, #32]
1147:.\BLEApplication.c ****                         {
 3261              		.loc 1 1147 0
 3262 044e FFF7FEFF 		bl	WriteUserSFlashRow
 3263              	.LVL424:
 3264 0452 A023     		mov	r3, #160
 3265 0454 1B06     		lsl	r3, r3, #24
 3266 0456 9842     		cmp	r0, r3
 3267 0458 00D0     		beq	.LCB3067
 3268 045a 8EE2     		b	.L282	@long jump
 3269              	.LCB3067:
1152:.\BLEApplication.c ****                             Role=Central;
 3270              		.loc 1 1152 0
 3271 045c 0020     		mov	r0, #0
 3272 045e FFF7FEFF 		bl	CyBle_GapcStartScan
 3273              	.LVL425:
 3274              	.L490:
1153:.\BLEApplication.c ****                             printf("AT+OK\r\n");
 3275              		.loc 1 1153 0
 3276 0462 BD4B     		ldr	r3, .L498+4
 3277 0464 5C70     		strb	r4, [r3, #1]
 3278 0466 44E2     		b	.L487
 3279              	.LVL426:
 3280              	.L301:
1173:.\BLEApplication.c ****             {
 3281              		.loc 1 1173 0
 3282 0468 BB4B     		ldr	r3, .L498+4
 3283 046a 5B78     		ldrb	r3, [r3, #1]
 3284 046c 012B     		cmp	r3, #1
 3285 046e 00D0     		beq	.LCB3085
 3286 0470 99E6     		b	.L313	@long jump
 3287              	.LCB3085:
1177:.\BLEApplication.c ****             }
 3288              		.loc 1 1177 0
 3289 0472 BA4A     		ldr	r2, .L498+8
1175:.\BLEApplication.c ****                 range.endHandle=0xFFFF;       
 3290              		.loc 1 1175 0
 3291 0474 18A9     		add	r1, sp, #96
 3292 0476 0B80     		strh	r3, [r1]
1177:.\BLEApplication.c ****             }
 3293              		.loc 1 1177 0
 3294 0478 5078     		ldrb	r0, [r2, #1]
 3295              	.LVL427:
1176:.\BLEApplication.c ****                 API_RESULT=CyBle_GattcDiscoverAllCharacteristicDescriptors(cyBle_connHandle,&range)
 3296              		.loc 1 1176 0
 3297 047a 023B     		sub	r3, r3, #2
 3298 047c 4B80     		strh	r3, [r1, #2]
1177:.\BLEApplication.c ****             }
 3299              		.loc 1 1177 0
 3300 047e 1378     		ldrb	r3, [r2]
ARM GAS  C:\Users\Helon\AppData\Local\Temp\ccKCxrf8.s 			page 115


 3301 0480 0002     		lsl	r0, r0, #8
 3302 0482 1843     		orr	r0, r3
 3303 0484 FFF7FEFF 		bl	CyBle_GattcDiscoverAllCharacteristicDescriptors
 3304              	.LVL428:
 3305 0488 77E2     		b	.L282
 3306              	.LVL429:
 3307              	.L297:
1187:.\BLEApplication.c ****             {
 3308              		.loc 1 1187 0
 3309 048a B34D     		ldr	r5, .L498+4
 3310 048c 6E78     		ldrb	r6, [r5, #1]
 3311 048e 012E     		cmp	r6, #1
 3312 0490 00D0     		beq	.LCB3110
 3313 0492 88E6     		b	.L313	@long jump
 3314              	.LCB3110:
1189:.\BLEApplication.c ****                 {
 3315              		.loc 1 1189 0
 3316 0494 237A     		ldrb	r3, [r4, #8]
 3317 0496 312B     		cmp	r3, #49
 3318 0498 0AD1     		bne	.L340
1191:.\BLEApplication.c ****                     {
 3319              		.loc 1 1191 0
 3320 049a AE4B     		ldr	r3, .L498
 3321 049c 1B78     		ldrb	r3, [r3]
 3322 049e 022B     		cmp	r3, #2
 3323 04a0 00D1     		bne	.LCB3117
 3324 04a2 79E6     		b	.L318	@long jump
 3325              	.LCB3117:
1193:.\BLEApplication.c ****                         if(CYBLE_ERROR_OK==CyBle_GapcStartScan(CYBLE_SCANNING_FAST))
 3326              		.loc 1 1193 0
 3327 04a4 FFF7FEFF 		bl	ScanDeviceInfoInit
 3328              	.LVL430:
1194:.\BLEApplication.c ****                         {
 3329              		.loc 1 1194 0
 3330 04a8 0020     		mov	r0, #0
 3331 04aa FFF7FEFF 		bl	CyBle_GapcStartScan
 3332              	.LVL431:
 3333 04ae 62E6     		b	.L481
 3334              	.LVL432:
 3335              	.L340:
1209:.\BLEApplication.c ****                 {
 3336              		.loc 1 1209 0
 3337 04b0 302B     		cmp	r3, #48
 3338 04b2 0AD1     		bne	.L341
1211:.\BLEApplication.c ****                     {
 3339              		.loc 1 1211 0
 3340 04b4 A74B     		ldr	r3, .L498
 3341 04b6 1B78     		ldrb	r3, [r3]
 3342 04b8 042B     		cmp	r3, #4
 3343 04ba 00D0     		beq	.LCB3134
 3344 04bc 6CE6     		b	.L318	@long jump
 3345              	.LCB3134:
1213:.\BLEApplication.c ****                         CyBle_GapcStopScan();                                   
 3346              		.loc 1 1213 0
 3347 04be FFF7FEFF 		bl	ScanDeviceInfoInit
 3348              	.LVL433:
1214:.\BLEApplication.c ****                         STOP_SCAN_FLAG=TRUE;
ARM GAS  C:\Users\Helon\AppData\Local\Temp\ccKCxrf8.s 			page 116


 3349              		.loc 1 1214 0
 3350 04c2 FFF7FEFF 		bl	CyBle_GapcStopScan
 3351              	.LVL434:
1215:.\BLEApplication.c ****                         printf("AT+OK\r\n"); 
 3352              		.loc 1 1215 0
 3353 04c6 2E70     		strb	r6, [r5]
 3354 04c8 13E2     		b	.L487
 3355              	.LVL435:
 3356              	.L341:
1223:.\BLEApplication.c ****                 {
 3357              		.loc 1 1223 0
 3358 04ca 3F2B     		cmp	r3, #63
 3359 04cc 00D0     		beq	.LCB3147
 3360 04ce 51E2     		b	.L284	@long jump
 3361              	.LCB3147:
 3362 04d0 0024     		mov	r4, #0
 3363              	.LVL436:
1225:.\BLEApplication.c ****                     {
 3364              		.loc 1 1225 0
 3365 04d2 A34B     		ldr	r3, .L498+12
1227:.\BLEApplication.c ****                         return;
 3366              		.loc 1 1227 0
 3367 04d4 A348     		ldr	r0, .L498+16
 3368              	.LVL437:
1225:.\BLEApplication.c ****                     {
 3369              		.loc 1 1225 0
 3370 04d6 1B78     		ldrb	r3, [r3]
 3371 04d8 A342     		cmp	r3, r4
 3372 04da 00D1     		bne	.LCB3155
 3373 04dc 4BE2     		b	.L483	@long jump
 3374              	.LCB3155:
 3375              	.LVL438:
 3376              	.L342:
1230:.\BLEApplication.c ****                     {
 3377              		.loc 1 1230 0 discriminator 1
 3378 04de A04B     		ldr	r3, .L498+12
 3379 04e0 1B78     		ldrb	r3, [r3]
 3380 04e2 A342     		cmp	r3, r4
 3381 04e4 00D8     		bhi	.LCB3162
 3382 04e6 48E2     		b	.L282	@long jump
 3383              	.LCB3162:
1233:.\BLEApplication.c ****                         DeviceInfo[i].DeviceList.bdAddr[5],
 3384              		.loc 1 1233 0 discriminator 3
 3385 04e8 1E25     		mov	r5, #30
 3386 04ea 6543     		mul	r5, r4
 3387 04ec 9E4E     		ldr	r6, .L498+20
1230:.\BLEApplication.c ****                     {
 3388              		.loc 1 1230 0 discriminator 3
 3389 04ee 0134     		add	r4, r4, #1
 3390              	.LVL439:
1233:.\BLEApplication.c ****                         DeviceInfo[i].DeviceList.bdAddr[5],
 3391              		.loc 1 1233 0 discriminator 3
 3392 04f0 7019     		add	r0, r6, r5
1232:.\BLEApplication.c ****                         DeviceInfo[i].idx,
 3393              		.loc 1 1232 0 discriminator 3
 3394 04f2 C778     		ldrb	r7, [r0, #3]
 3395 04f4 C179     		ldrb	r1, [r0, #7]
ARM GAS  C:\Users\Helon\AppData\Local\Temp\ccKCxrf8.s 			page 117


 3396 04f6 4279     		ldrb	r2, [r0, #5]
 3397 04f8 0379     		ldrb	r3, [r0, #4]
 3398 04fa 0097     		str	r7, [sp]
 3399 04fc 8778     		ldrb	r7, [r0, #2]
1230:.\BLEApplication.c ****                     {
 3400              		.loc 1 1230 0 discriminator 3
 3401 04fe E4B2     		uxtb	r4, r4
1232:.\BLEApplication.c ****                         DeviceInfo[i].idx,
 3402              		.loc 1 1232 0 discriminator 3
 3403 0500 0197     		str	r7, [sp, #4]
 3404 0502 4078     		ldrb	r0, [r0, #1]
 3405 0504 0290     		str	r0, [sp, #8]
 3406 0506 A85D     		ldrb	r0, [r5, r6]
 3407 0508 0390     		str	r0, [sp, #12]
 3408 050a 9848     		ldr	r0, .L498+24
 3409 050c FFF7FEFF 		bl	printf
 3410              	.LVL440:
 3411 0510 E5E7     		b	.L342
 3412              	.LVL441:
 3413              	.L298:
1257:.\BLEApplication.c ****             {
 3414              		.loc 1 1257 0
 3415 0512 914B     		ldr	r3, .L498+4
 3416 0514 5B78     		ldrb	r3, [r3, #1]
 3417 0516 012B     		cmp	r3, #1
 3418 0518 00D0     		beq	.LCB3195
 3419 051a 44E6     		b	.L313	@long jump
 3420              	.LCB3195:
 3421              	.LVL442:
1260:.\BLEApplication.c ****             }
 3422              		.loc 1 1260 0
 3423 051c 607A     		ldrb	r0, [r4, #9]
 3424              	.LVL443:
 3425 051e FFF7FEFF 		bl	Connect_Device
 3426              	.LVL444:
 3427 0522 2AE2     		b	.L282
 3428              	.LVL445:
 3429              	.L299:
1270:.\BLEApplication.c ****             {
 3430              		.loc 1 1270 0
 3431 0524 8B4B     		ldr	r3, .L498
 3432 0526 1B78     		ldrb	r3, [r3]
 3433 0528 022B     		cmp	r3, #2
 3434 052a 00D0     		beq	.LCB3212
 3435 052c 34E6     		b	.L318	@long jump
 3436              	.LCB3212:
1273:.\BLEApplication.c ****                 {
 3437              		.loc 1 1273 0
 3438 052e 8A4D     		ldr	r5, .L498+4
1272:.\BLEApplication.c ****                 if(Role==Central)
 3439              		.loc 1 1272 0
 3440 0530 E07A     		ldrb	r0, [r4, #11]
 3441              	.LVL446:
1273:.\BLEApplication.c ****                 {
 3442              		.loc 1 1273 0
 3443 0532 6B78     		ldrb	r3, [r5, #1]
 3444 0534 012B     		cmp	r3, #1
ARM GAS  C:\Users\Helon\AppData\Local\Temp\ccKCxrf8.s 			page 118


 3445 0536 00D0     		beq	.LCB3219
 3446 0538 95E0     		b	.L344	@long jump
 3447              	.LCB3219:
1275:.\BLEApplication.c ****                     {
 3448              		.loc 1 1275 0
 3449 053a 3138     		sub	r0, r0, #49
 3450              	.LVL447:
 3451 053c 0328     		cmp	r0, #3
 3452 053e 00D9     		bls	.LCB3223
 3453 0540 18E2     		b	.L284	@long jump
 3454              	.LCB3223:
 3455 0542 864B     		ldr	r3, .L498+8
 3456 0544 FFF7FEFF 		bl	__gnu_thumb1_case_uqi
 3457              	.L347:
 3458 0548 02       		.byte	(.L346-.L347)/2
 3459 0549 25       		.byte	(.L348-.L347)/2
 3460 054a 47       		.byte	(.L349-.L347)/2
 3461 054b 69       		.byte	(.L350-.L347)/2
 3462              		.p2align 1
 3463              	.L346:
1278:.\BLEApplication.c ****                             if(CYBLE_ERROR_OK!=API_RESULT)  
 3464              		.loc 1 1278 0
 3465 054c 1878     		ldrb	r0, [r3]
 3466              	.LVL448:
 3467 054e FFF7FEFF 		bl	CyBle_GapDisconnect
 3468              	.LVL449:
 3469 0552 021E     		sub	r2, r0, #0
 3470              	.LVL450:
1279:.\BLEApplication.c ****                             {
 3471              		.loc 1 1279 0
 3472 0554 02D1     		bne	.L351
1286:.\BLEApplication.c ****                                 {
 3473              		.loc 1 1286 0
 3474 0556 864E     		ldr	r6, .L498+28
 3475 0558 337A     		ldrb	r3, [r6, #8]
 3476 055a 02E0     		b	.L412
 3477              	.L351:
1281:.\BLEApplication.c ****                             }
 3478              		.loc 1 1281 0
 3479 055c 8548     		ldr	r0, .L498+32
 3480              	.LVL451:
 3481 055e 0121     		mov	r1, #1
 3482 0560 65E0     		b	.L486
 3483              	.LVL452:
 3484              	.L412:
 3485 0562 141C     		mov	r4, r2
 3486              	.LVL453:
1286:.\BLEApplication.c ****                                 {
 3487              		.loc 1 1286 0
 3488 0564 D2B2     		uxtb	r2, r2
 3489 0566 9A42     		cmp	r2, r3
 3490 0568 00D3     		bcc	.LCB3261
 3491 056a C2E1     		b	.L487	@long jump
 3492              	.LCB3261:
1288:.\BLEApplication.c ****                                     {
 3493              		.loc 1 1288 0
 3494 056c 375D     		ldrb	r7, [r6, r4]
ARM GAS  C:\Users\Helon\AppData\Local\Temp\ccKCxrf8.s 			page 119


 3495 056e 621C     		add	r2, r4, #1
 3496              	.LVL454:
 3497 0570 012F     		cmp	r7, #1
 3498 0572 F6D1     		bne	.L412
1291:.\BLEApplication.c ****                                         Conn_Or_Disconn_Info.Connect_Idx[i]=0;
 3499              		.loc 1 1291 0
 3500 0574 0720     		mov	r0, #7
 3501              	.LVL455:
 3502 0576 6043     		mul	r0, r4
 3503 0578 3018     		add	r0, r6, r0
1290:.\BLEApplication.c ****                                         memset(Conn_Or_Disconn_Info.DeviceAddr[i].bdAddr,0,6);
 3504              		.loc 1 1290 0
 3505 057a 013B     		sub	r3, r3, #1
1291:.\BLEApplication.c ****                                         Conn_Or_Disconn_Info.Connect_Idx[i]=0;
 3506              		.loc 1 1291 0
 3507 057c 0930     		add	r0, r0, #9
 3508 057e 0021     		mov	r1, #0
 3509 0580 0622     		mov	r2, #6
1290:.\BLEApplication.c ****                                         memset(Conn_Or_Disconn_Info.DeviceAddr[i].bdAddr,0,6);
 3510              		.loc 1 1290 0
 3511 0582 3372     		strb	r3, [r6, #8]
1291:.\BLEApplication.c ****                                         Conn_Or_Disconn_Info.Connect_Idx[i]=0;
 3512              		.loc 1 1291 0
 3513 0584 FFF7FEFF 		bl	memset
 3514              	.LVL456:
1292:.\BLEApplication.c ****                                         Conn_Or_Disconn_Info.Disconn_Idx[0]=idx-0x30;
 3515              		.loc 1 1292 0
 3516 0588 0023     		mov	r3, #0
1293:.\BLEApplication.c ****                                         Conn_or_Disconn_Idx=idx-0x30;
 3517              		.loc 1 1293 0
 3518 058a 3771     		strb	r7, [r6, #4]
1292:.\BLEApplication.c ****                                         Conn_Or_Disconn_Info.Disconn_Idx[0]=idx-0x30;
 3519              		.loc 1 1292 0
 3520 058c 3355     		strb	r3, [r6, r4]
1294:.\BLEApplication.c ****                                         break;
 3521              		.loc 1 1294 0
 3522 058e AF70     		strb	r7, [r5, #2]
1295:.\BLEApplication.c ****                                     }
 3523              		.loc 1 1295 0
 3524 0590 AFE1     		b	.L487
 3525              	.LVL457:
 3526              	.L348:
1302:.\BLEApplication.c ****                             if(CYBLE_ERROR_OK!=API_RESULT)  
 3527              		.loc 1 1302 0
 3528 0592 1878     		ldrb	r0, [r3]
 3529              	.LVL458:
 3530 0594 FFF7FEFF 		bl	CyBle_GapDisconnect
 3531              	.LVL459:
 3532 0598 021E     		sub	r2, r0, #0
 3533              	.LVL460:
1303:.\BLEApplication.c ****                             {
 3534              		.loc 1 1303 0
 3535 059a 02D1     		bne	.L354
1310:.\BLEApplication.c ****                                 {
 3536              		.loc 1 1310 0
 3537 059c 744E     		ldr	r6, .L498+28
 3538 059e 337A     		ldrb	r3, [r6, #8]
ARM GAS  C:\Users\Helon\AppData\Local\Temp\ccKCxrf8.s 			page 120


 3539 05a0 02E0     		b	.L413
 3540              	.L354:
1305:.\BLEApplication.c ****                             }
 3541              		.loc 1 1305 0
 3542 05a2 7448     		ldr	r0, .L498+32
 3543              	.LVL461:
 3544 05a4 0221     		mov	r1, #2
 3545 05a6 42E0     		b	.L486
 3546              	.LVL462:
 3547              	.L413:
 3548 05a8 141C     		mov	r4, r2
 3549              	.LVL463:
1310:.\BLEApplication.c ****                                 {
 3550              		.loc 1 1310 0
 3551 05aa D2B2     		uxtb	r2, r2
 3552 05ac 9A42     		cmp	r2, r3
 3553 05ae 00D3     		bcc	.LCB3322
 3554 05b0 9FE1     		b	.L487	@long jump
 3555              	.LCB3322:
1312:.\BLEApplication.c ****                                     {
 3556              		.loc 1 1312 0
 3557 05b2 315D     		ldrb	r1, [r6, r4]
 3558 05b4 621C     		add	r2, r4, #1
 3559              	.LVL464:
 3560 05b6 0129     		cmp	r1, #1
 3561 05b8 F6D1     		bne	.L413
1315:.\BLEApplication.c ****                                         Conn_Or_Disconn_Info.Connect_Idx[i]=0;
 3562              		.loc 1 1315 0
 3563 05ba 0720     		mov	r0, #7
 3564              	.LVL465:
 3565 05bc 6043     		mul	r0, r4
 3566 05be 3018     		add	r0, r6, r0
1314:.\BLEApplication.c ****                                         memset(Conn_Or_Disconn_Info.DeviceAddr[i].bdAddr,0,6);
 3567              		.loc 1 1314 0
 3568 05c0 013B     		sub	r3, r3, #1
1315:.\BLEApplication.c ****                                         Conn_Or_Disconn_Info.Connect_Idx[i]=0;
 3569              		.loc 1 1315 0
 3570 05c2 0930     		add	r0, r0, #9
 3571 05c4 0021     		mov	r1, #0
 3572 05c6 0622     		mov	r2, #6
1314:.\BLEApplication.c ****                                         memset(Conn_Or_Disconn_Info.DeviceAddr[i].bdAddr,0,6);
 3573              		.loc 1 1314 0
 3574 05c8 3372     		strb	r3, [r6, #8]
1315:.\BLEApplication.c ****                                         Conn_Or_Disconn_Info.Connect_Idx[i]=0;
 3575              		.loc 1 1315 0
 3576 05ca FFF7FEFF 		bl	memset
 3577              	.LVL466:
1316:.\BLEApplication.c ****                                         Conn_Or_Disconn_Info.Disconn_Idx[0]=idx-0x30;
 3578              		.loc 1 1316 0
 3579 05ce 0023     		mov	r3, #0
 3580 05d0 3355     		strb	r3, [r6, r4]
1317:.\BLEApplication.c ****                                         Conn_or_Disconn_Idx=idx-0x30;
 3581              		.loc 1 1317 0
 3582 05d2 0233     		add	r3, r3, #2
 3583 05d4 44E0     		b	.L482
 3584              	.LVL467:
 3585              	.L349:
ARM GAS  C:\Users\Helon\AppData\Local\Temp\ccKCxrf8.s 			page 121


1326:.\BLEApplication.c ****                             if(CYBLE_ERROR_OK!=API_RESULT)  
 3586              		.loc 1 1326 0
 3587 05d6 1878     		ldrb	r0, [r3]
 3588              	.LVL468:
 3589 05d8 FFF7FEFF 		bl	CyBle_GapDisconnect
 3590              	.LVL469:
 3591 05dc 021E     		sub	r2, r0, #0
 3592              	.LVL470:
1327:.\BLEApplication.c ****                             {
 3593              		.loc 1 1327 0
 3594 05de 02D1     		bne	.L358
1334:.\BLEApplication.c ****                                 {
 3595              		.loc 1 1334 0
 3596 05e0 634E     		ldr	r6, .L498+28
 3597 05e2 337A     		ldrb	r3, [r6, #8]
 3598 05e4 02E0     		b	.L414
 3599              	.L358:
1329:.\BLEApplication.c ****                             }
 3600              		.loc 1 1329 0
 3601 05e6 6348     		ldr	r0, .L498+32
 3602              	.LVL471:
 3603 05e8 0321     		mov	r1, #3
 3604 05ea 20E0     		b	.L486
 3605              	.LVL472:
 3606              	.L414:
 3607 05ec 141C     		mov	r4, r2
 3608              	.LVL473:
1334:.\BLEApplication.c ****                                 {
 3609              		.loc 1 1334 0
 3610 05ee D2B2     		uxtb	r2, r2
 3611 05f0 9A42     		cmp	r2, r3
 3612 05f2 00D3     		bcc	.LCB3382
 3613 05f4 7DE1     		b	.L487	@long jump
 3614              	.LCB3382:
1336:.\BLEApplication.c ****                                     {
 3615              		.loc 1 1336 0
 3616 05f6 315D     		ldrb	r1, [r6, r4]
 3617 05f8 621C     		add	r2, r4, #1
 3618              	.LVL474:
 3619 05fa 0129     		cmp	r1, #1
 3620 05fc F6D1     		bne	.L414
1339:.\BLEApplication.c ****                                         Conn_Or_Disconn_Info.Connect_Idx[i]=0;
 3621              		.loc 1 1339 0
 3622 05fe 0720     		mov	r0, #7
 3623              	.LVL475:
 3624 0600 6043     		mul	r0, r4
 3625 0602 3018     		add	r0, r6, r0
1338:.\BLEApplication.c ****                                         memset(Conn_Or_Disconn_Info.DeviceAddr[i].bdAddr,0,6);
 3626              		.loc 1 1338 0
 3627 0604 013B     		sub	r3, r3, #1
1339:.\BLEApplication.c ****                                         Conn_Or_Disconn_Info.Connect_Idx[i]=0;
 3628              		.loc 1 1339 0
 3629 0606 0930     		add	r0, r0, #9
 3630 0608 0021     		mov	r1, #0
 3631 060a 0622     		mov	r2, #6
1338:.\BLEApplication.c ****                                         memset(Conn_Or_Disconn_Info.DeviceAddr[i].bdAddr,0,6);
 3632              		.loc 1 1338 0
ARM GAS  C:\Users\Helon\AppData\Local\Temp\ccKCxrf8.s 			page 122


 3633 060c 3372     		strb	r3, [r6, #8]
1339:.\BLEApplication.c ****                                         Conn_Or_Disconn_Info.Connect_Idx[i]=0;
 3634              		.loc 1 1339 0
 3635 060e FFF7FEFF 		bl	memset
 3636              	.LVL476:
1340:.\BLEApplication.c ****                                         Conn_Or_Disconn_Info.Disconn_Idx[0]=idx-0x30;
 3637              		.loc 1 1340 0
 3638 0612 0023     		mov	r3, #0
 3639 0614 3355     		strb	r3, [r6, r4]
1341:.\BLEApplication.c ****                                         Conn_or_Disconn_Idx=idx-0x30;
 3640              		.loc 1 1341 0
 3641 0616 0333     		add	r3, r3, #3
 3642 0618 22E0     		b	.L482
 3643              	.LVL477:
 3644              	.L350:
1350:.\BLEApplication.c ****                             if(CYBLE_ERROR_OK!=API_RESULT)  
 3645              		.loc 1 1350 0
 3646 061a 1878     		ldrb	r0, [r3]
 3647              	.LVL478:
 3648 061c FFF7FEFF 		bl	CyBle_GapDisconnect
 3649              	.LVL479:
 3650 0620 021E     		sub	r2, r0, #0
 3651              	.LVL480:
1351:.\BLEApplication.c ****                             {
 3652              		.loc 1 1351 0
 3653 0622 02D1     		bne	.L361
1358:.\BLEApplication.c ****                                 {
 3654              		.loc 1 1358 0
 3655 0624 524E     		ldr	r6, .L498+28
 3656 0626 337A     		ldrb	r3, [r6, #8]
 3657 0628 04E0     		b	.L415
 3658              	.L361:
1353:.\BLEApplication.c ****                             }
 3659              		.loc 1 1353 0
 3660 062a 0421     		mov	r1, #4
 3661 062c 5148     		ldr	r0, .L498+32
 3662              	.LVL481:
 3663              	.L486:
 3664 062e FFF7FEFF 		bl	printf
 3665              	.LVL482:
 3666 0632 A2E1     		b	.L282
 3667              	.LVL483:
 3668              	.L415:
 3669 0634 141C     		mov	r4, r2
 3670              	.LVL484:
1358:.\BLEApplication.c ****                                 {
 3671              		.loc 1 1358 0
 3672 0636 D2B2     		uxtb	r2, r2
 3673 0638 9A42     		cmp	r2, r3
 3674 063a 00D3     		bcc	.LCB3447
 3675 063c 59E1     		b	.L487	@long jump
 3676              	.LCB3447:
1360:.\BLEApplication.c ****                                     {
 3677              		.loc 1 1360 0
 3678 063e 315D     		ldrb	r1, [r6, r4]
 3679 0640 621C     		add	r2, r4, #1
 3680              	.LVL485:
ARM GAS  C:\Users\Helon\AppData\Local\Temp\ccKCxrf8.s 			page 123


 3681 0642 0129     		cmp	r1, #1
 3682 0644 F6D1     		bne	.L415
1363:.\BLEApplication.c ****                                         Conn_Or_Disconn_Info.Connect_Idx[i]=0;
 3683              		.loc 1 1363 0
 3684 0646 0720     		mov	r0, #7
 3685              	.LVL486:
 3686 0648 6043     		mul	r0, r4
 3687 064a 3018     		add	r0, r6, r0
1362:.\BLEApplication.c ****                                         memset(Conn_Or_Disconn_Info.DeviceAddr[i].bdAddr,0,6);
 3688              		.loc 1 1362 0
 3689 064c 013B     		sub	r3, r3, #1
1363:.\BLEApplication.c ****                                         Conn_Or_Disconn_Info.Connect_Idx[i]=0;
 3690              		.loc 1 1363 0
 3691 064e 0930     		add	r0, r0, #9
 3692 0650 0021     		mov	r1, #0
 3693 0652 0622     		mov	r2, #6
1362:.\BLEApplication.c ****                                         memset(Conn_Or_Disconn_Info.DeviceAddr[i].bdAddr,0,6);
 3694              		.loc 1 1362 0
 3695 0654 3372     		strb	r3, [r6, #8]
1363:.\BLEApplication.c ****                                         Conn_Or_Disconn_Info.Connect_Idx[i]=0;
 3696              		.loc 1 1363 0
 3697 0656 FFF7FEFF 		bl	memset
 3698              	.LVL487:
1364:.\BLEApplication.c ****                                         Conn_Or_Disconn_Info.Disconn_Idx[0]=idx-0x30;
 3699              		.loc 1 1364 0
 3700 065a 0023     		mov	r3, #0
 3701 065c 3355     		strb	r3, [r6, r4]
1365:.\BLEApplication.c ****                                         Conn_or_Disconn_Idx=idx-0x30;
 3702              		.loc 1 1365 0
 3703 065e 0433     		add	r3, r3, #4
 3704              	.L482:
 3705 0660 3371     		strb	r3, [r6, #4]
1366:.\BLEApplication.c ****                                         break;
 3706              		.loc 1 1366 0
 3707 0662 AB70     		strb	r3, [r5, #2]
1367:.\BLEApplication.c ****                                     }
 3708              		.loc 1 1367 0
 3709 0664 45E1     		b	.L487
 3710              	.LVL488:
 3711              	.L344:
1380:.\BLEApplication.c ****                     {                        
 3712              		.loc 1 1380 0
 3713 0666 3128     		cmp	r0, #49
 3714 0668 00D0     		beq	.LCB3484
 3715 066a 83E1     		b	.L284	@long jump
 3716              	.LCB3484:
1382:.\BLEApplication.c ****                         if(CYBLE_ERROR_OK!=API_RESULT)  
 3717              		.loc 1 1382 0
 3718 066c 3B4B     		ldr	r3, .L498+8
 3719 066e 1878     		ldrb	r0, [r3]
 3720              	.LVL489:
 3721 0670 FFF7FEFF 		bl	CyBle_GapDisconnect
 3722              	.LVL490:
 3723 0674 011E     		sub	r1, r0, #0
 3724              	.LVL491:
1383:.\BLEApplication.c ****                         {
 3725              		.loc 1 1383 0
ARM GAS  C:\Users\Helon\AppData\Local\Temp\ccKCxrf8.s 			page 124


 3726 0676 00D1     		bne	.LCB3494
 3727 0678 7FE1     		b	.L282	@long jump
 3728              	.LCB3494:
1385:.\BLEApplication.c ****                         }
 3729              		.loc 1 1385 0
 3730 067a 3F48     		ldr	r0, .L498+36
 3731              	.LVL492:
 3732              	.L485:
 3733 067c FFF7FEFF 		bl	printf
 3734              	.LVL493:
 3735 0680 7BE1     		b	.L282
 3736              	.LVL494:
 3737              	.L300:
1406:.\BLEApplication.c ****             {
 3738              		.loc 1 1406 0
 3739 0682 344B     		ldr	r3, .L498
 3740 0684 1B78     		ldrb	r3, [r3]
 3741 0686 022B     		cmp	r3, #2
 3742 0688 00D0     		beq	.LCB3514
 3743 068a 85E5     		b	.L318	@long jump
 3744              	.LCB3514:
 3745              	.LVL495:
1409:.\BLEApplication.c ****                 {                    
 3746              		.loc 1 1409 0
 3747 068c 237A     		ldrb	r3, [r4, #8]
 3748 068e 3F2B     		cmp	r3, #63
 3749 0690 00D0     		beq	.LCB3518
 3750 0692 6FE1     		b	.L284	@long jump
 3751              	.LCB3518:
1411:.\BLEApplication.c ****                 }                    
 3752              		.loc 1 1411 0
 3753 0694 FFF7FEFF 		bl	CyBle_GetRssi
 3754              	.LVL496:
 3755 0698 011C     		mov	r1, r0
 3756 069a 3848     		ldr	r0, .L498+40
 3757 069c EEE7     		b	.L485
 3758              	.LVL497:
 3759              	.L303:
1426:.\BLEApplication.c ****             {
 3760              		.loc 1 1426 0
 3761 069e 637A     		ldrb	r3, [r4, #9]
 3762 06a0 3F2B     		cmp	r3, #63
 3763 06a2 00D0     		beq	.LCB3535
 3764 06a4 66E1     		b	.L284	@long jump
 3765              	.LCB3535:
1428:.\BLEApplication.c ****                 testCount=0;
 3766              		.loc 1 1428 0
 3767 06a6 2C4C     		ldr	r4, .L498+4
 3768              	.LVL498:
 3769 06a8 3548     		ldr	r0, .L498+44
 3770              	.LVL499:
 3771 06aa A168     		ldr	r1, [r4, #8]
 3772 06ac FFF7FEFF 		bl	printf
 3773              	.LVL500:
1429:.\BLEApplication.c ****             }
 3774              		.loc 1 1429 0
 3775 06b0 0023     		mov	r3, #0
ARM GAS  C:\Users\Helon\AppData\Local\Temp\ccKCxrf8.s 			page 125


 3776 06b2 A360     		str	r3, [r4, #8]
 3777 06b4 61E1     		b	.L282
 3778              	.LVL501:
 3779              	.L304:
1478:.\BLEApplication.c ****              {                  
 3780              		.loc 1 1478 0
 3781 06b6 274A     		ldr	r2, .L498
1477:.\BLEApplication.c ****             if((CYBLE_STATE_CONNECTED==CyBle_GetState())&&(Central==Role))//‰∏ªÊú∫Ê®°Âºè‰∏ã‰∏îÊòØAT
 3782              		.loc 1 1477 0
 3783 06b8 A37A     		ldrb	r3, [r4, #10]
 3784              	.LVL502:
1478:.\BLEApplication.c ****              {                  
 3785              		.loc 1 1478 0
 3786 06ba 1278     		ldrb	r2, [r2]
 3787 06bc 022A     		cmp	r2, #2
 3788 06be 00D0     		beq	.LCB3559
 3789 06c0 6AE5     		b	.L318	@long jump
 3790              	.LCB3559:
1478:.\BLEApplication.c ****              {                  
 3791              		.loc 1 1478 0 is_stmt 0 discriminator 1
 3792 06c2 254D     		ldr	r5, .L498+4
 3793 06c4 6C78     		ldrb	r4, [r5, #1]
 3794              	.LVL503:
 3795 06c6 012C     		cmp	r4, #1
 3796 06c8 1ED1     		bne	.L364
1480:.\BLEApplication.c ****                 {
 3797              		.loc 1 1480 0 is_stmt 1
 3798 06ca 312B     		cmp	r3, #49
 3799 06cc 0AD0     		beq	.L366
 3800 06ce 3F2B     		cmp	r3, #63
 3801 06d0 2FD0     		beq	.L371
 3802 06d2 302B     		cmp	r3, #48
 3803 06d4 00D0     		beq	.LCB3570
 3804 06d6 4DE1     		b	.L284	@long jump
 3805              	.LCB3570:
1489:.\BLEApplication.c ****                         CommandMode=AT_COMMAND_MODE;
 3806              		.loc 1 1489 0
 3807 06d8 0020     		mov	r0, #0
 3808              	.LVL504:
 3809 06da FFF7FEFF 		bl	CTS_Write
 3810              	.LVL505:
1490:.\BLEApplication.c ****                         printf("+MODE=AT_COMMAND_MODE\r\n");
 3811              		.loc 1 1490 0
 3812 06de 0023     		mov	r3, #0
 3813 06e0 2B71     		strb	r3, [r5, #4]
 3814 06e2 26E0     		b	.L371
 3815              	.LVL506:
 3816              	.L366:
1497:.\BLEApplication.c ****                         writeRequestData.attrHandle=CYBLE_TROUGHPUT_SERVICE_CUSTOM_CHARACTERISTIC_C
 3817              		.loc 1 1497 0
 3818 06e4 2749     		ldr	r1, .L498+48
1499:.\BLEApplication.c ****                         if(CYBLE_ERROR_OK==API_RESULT)
 3819              		.loc 1 1499 0
 3820 06e6 1D4A     		ldr	r2, .L498+8
1497:.\BLEApplication.c ****                         writeRequestData.attrHandle=CYBLE_TROUGHPUT_SERVICE_CUSTOM_CHARACTERISTIC_C
 3821              		.loc 1 1497 0
 3822 06e8 0B68     		ldr	r3, [r1]
ARM GAS  C:\Users\Helon\AppData\Local\Temp\ccKCxrf8.s 			page 126


 3823              	.LVL507:
 3824 06ea 1C70     		strb	r4, [r3]
 3825              	.LVL508:
1498:.\BLEApplication.c ****                         API_RESULT=CyBle_GattcWriteWithoutResponse(cyBle_connHandle, &writeRequestD
 3826              		.loc 1 1498 0
 3827 06ec 0F23     		mov	r3, #15
1499:.\BLEApplication.c ****                         if(CYBLE_ERROR_OK==API_RESULT)
 3828              		.loc 1 1499 0
 3829 06ee 5078     		ldrb	r0, [r2, #1]
 3830              	.LVL509:
1498:.\BLEApplication.c ****                         API_RESULT=CyBle_GattcWriteWithoutResponse(cyBle_connHandle, &writeRequestD
 3831              		.loc 1 1498 0
 3832 06f0 0B81     		strh	r3, [r1, #8]
1499:.\BLEApplication.c ****                         if(CYBLE_ERROR_OK==API_RESULT)
 3833              		.loc 1 1499 0
 3834 06f2 1378     		ldrb	r3, [r2]
 3835 06f4 0002     		lsl	r0, r0, #8
 3836 06f6 1843     		orr	r0, r3
 3837 06f8 FFF7FEFF 		bl	CyBle_GattcWriteWithoutResponse
 3838              	.LVL510:
1500:.\BLEApplication.c ****                         {
 3839              		.loc 1 1500 0
 3840 06fc 0028     		cmp	r0, #0
 3841 06fe 00D0     		beq	.LCB3604
 3842 0700 3BE1     		b	.L282	@long jump
 3843              	.LCB3604:
1502:.\BLEApplication.c ****                             CTS_Write(CTS_ON);
 3844              		.loc 1 1502 0
 3845 0702 2C71     		strb	r4, [r5, #4]
1503:.\BLEApplication.c ****                             printf("+MODE=THROUGHT_MODE\r\n");
 3846              		.loc 1 1503 0
 3847 0704 201C     		mov	r0, r4
 3848              	.LVL511:
 3849 0706 10E0     		b	.L489
 3850              	.LVL512:
 3851              	.L364:
1520:.\BLEApplication.c ****             {
 3852              		.loc 1 1520 0 discriminator 1
 3853 0708 002C     		cmp	r4, #0
 3854 070a 00D0     		beq	.LCB3616
 3855 070c 44E5     		b	.L318	@long jump
 3856              	.LCB3616:
1522:.\BLEApplication.c ****                 {
 3857              		.loc 1 1522 0
 3858 070e 312B     		cmp	r3, #49
 3859 0710 09D0     		beq	.L370
 3860 0712 3F2B     		cmp	r3, #63
 3861 0714 0DD0     		beq	.L371
 3862 0716 302B     		cmp	r3, #48
 3863 0718 00D0     		beq	.LCB3622
 3864 071a 2BE1     		b	.L284	@long jump
 3865              	.LCB3622:
1526:.\BLEApplication.c ****                         printf("+MODE=AT_COMMAND_MODE\r\n");
 3866              		.loc 1 1526 0
 3867 071c 201C     		mov	r0, r4
 3868              	.LVL513:
1525:.\BLEApplication.c ****                         CTS_Write(CTS_OFF);
ARM GAS  C:\Users\Helon\AppData\Local\Temp\ccKCxrf8.s 			page 127


 3869              		.loc 1 1525 0
 3870 071e 2C71     		strb	r4, [r5, #4]
1526:.\BLEApplication.c ****                         printf("+MODE=AT_COMMAND_MODE\r\n");
 3871              		.loc 1 1526 0
 3872 0720 FFF7FEFF 		bl	CTS_Write
 3873              	.LVL514:
 3874 0724 05E0     		b	.L371
 3875              	.LVL515:
 3876              	.L370:
1530:.\BLEApplication.c ****                         CTS_Write(CTS_ON);
 3877              		.loc 1 1530 0
 3878 0726 0120     		mov	r0, #1
 3879              	.LVL516:
 3880 0728 2871     		strb	r0, [r5, #4]
 3881              	.LVL517:
 3882              	.L489:
1531:.\BLEApplication.c ****                         printf("+MODE=THROUGHT_MODE\r\n");
 3883              		.loc 1 1531 0
 3884 072a FFF7FEFF 		bl	CTS_Write
 3885              	.LVL518:
1532:.\BLEApplication.c ****                     break;
 3886              		.loc 1 1532 0
 3887 072e 1648     		ldr	r0, .L498+52
 3888 0730 21E1     		b	.L483
 3889              	.LVL519:
 3890              	.L371:
1535:.\BLEApplication.c ****                     break;
 3891              		.loc 1 1535 0
 3892 0732 1648     		ldr	r0, .L498+56
 3893 0734 1FE1     		b	.L483
 3894              	.LVL520:
 3895              	.L305:
1553:.\BLEApplication.c ****             {
 3896              		.loc 1 1553 0
 3897 0736 637A     		ldrb	r3, [r4, #9]
 3898 0738 3F2B     		cmp	r3, #63
 3899 073a 00D0     		beq	.LCB3661
 3900 073c 1AE1     		b	.L284	@long jump
 3901              	.LCB3661:
 3902              	.LVL521:
1555:.\BLEApplication.c ****                 switch(STAUS_T)
 3903              		.loc 1 1555 0
 3904 073e 054B     		ldr	r3, .L498
 3905              	.LVL522:
1556:.\BLEApplication.c ****                 {
 3906              		.loc 1 1556 0
 3907 0740 1878     		ldrb	r0, [r3]
 3908              	.LVL523:
 3909 0742 0628     		cmp	r0, #6
 3910 0744 00D9     		bls	.LCB3668
 3911 0746 18E1     		b	.L282	@long jump
 3912              	.LCB3668:
 3913 0748 FFF7FEFF 		bl	__gnu_thumb1_case_uqi
 3914              	.L374:
 3915 074c 22       		.byte	(.L373-.L374)/2
 3916 074d 24       		.byte	(.L375-.L374)/2
 3917 074e 26       		.byte	(.L376-.L374)/2
ARM GAS  C:\Users\Helon\AppData\Local\Temp\ccKCxrf8.s 			page 128


 3918 074f 28       		.byte	(.L377-.L374)/2
 3919 0750 2A       		.byte	(.L378-.L374)/2
 3920 0751 2C       		.byte	(.L379-.L374)/2
 3921 0752 2E       		.byte	(.L380-.L374)/2
 3922 0753 00       		.p2align 1
 3923              	.L499:
 3924              		.align	2
 3925              	.L498:
 3926 0754 00000000 		.word	cyBle_state
 3927 0758 00000000 		.word	.LANCHOR0
 3928 075c 00000000 		.word	cyBle_connHandle
 3929 0760 00000000 		.word	DeviceCount
 3930 0764 F9030000 		.word	.LC191
 3931 0768 00000000 		.word	DeviceInfo
 3932 076c 04040000 		.word	.LC193
 3933 0770 00000000 		.word	Conn_Or_Disconn_Info
 3934 0774 37010000 		.word	.LC64
 3935 0778 2C040000 		.word	.LC197
 3936 077c 3C040000 		.word	.LC199
 3937 0780 4A040000 		.word	.LC201
 3938 0784 00000000 		.word	writeRequestData
 3939 0788 74000000 		.word	.LC20
 3940 078c 89000000 		.word	.LC22
 3941              	.L373:
1559:.\BLEApplication.c **** //                        printf("+STAUS=<STATE_STOPPED>\r\n");
 3942              		.loc 1 1559 0
 3943 0790 7B48     		ldr	r0, .L500
 3944 0792 F0E0     		b	.L483
 3945              	.L375:
1563:.\BLEApplication.c **** //                        printf("+STAUS=<STATE_INITIALIZING>\r\n");
 3946              		.loc 1 1563 0
 3947 0794 7B48     		ldr	r0, .L500+4
 3948 0796 EEE0     		b	.L483
 3949              	.L376:
1567:.\BLEApplication.c **** //                        printf("+STAUS=<STATE_CONNECTED>\r\n");
 3950              		.loc 1 1567 0
 3951 0798 7B48     		ldr	r0, .L500+8
 3952 079a ECE0     		b	.L483
 3953              	.L377:
1571:.\BLEApplication.c **** //                        printf("+STAUS=<STATE_ADVERTISING>\r\n");
 3954              		.loc 1 1571 0
 3955 079c 7B48     		ldr	r0, .L500+12
 3956 079e EAE0     		b	.L483
 3957              	.L378:
1575:.\BLEApplication.c **** //                        printf("+STAUS=<STATE_SCANNING>\r\n");
 3958              		.loc 1 1575 0
 3959 07a0 7B48     		ldr	r0, .L500+16
 3960 07a2 E8E0     		b	.L483
 3961              	.L379:
1579:.\BLEApplication.c **** //                        printf("+STAUS=<STATE_CONNECTING>\r\n");
 3962              		.loc 1 1579 0
 3963 07a4 7B48     		ldr	r0, .L500+20
 3964 07a6 E6E0     		b	.L483
 3965              	.L380:
1583:.\BLEApplication.c **** //                        printf("+STAUS=<STATE_DISCONNECTED>\r\n");
 3966              		.loc 1 1583 0
 3967 07a8 7B48     		ldr	r0, .L500+24
ARM GAS  C:\Users\Helon\AppData\Local\Temp\ccKCxrf8.s 			page 129


 3968 07aa E4E0     		b	.L483
 3969              	.LVL524:
 3970              	.L306:
1598:.\BLEApplication.c ****             {
 3971              		.loc 1 1598 0
 3972 07ac 7B4B     		ldr	r3, .L500+28
1597:.\BLEApplication.c ****             if(Role==Peripheral)
 3973              		.loc 1 1597 0
 3974 07ae 227A     		ldrb	r2, [r4, #8]
 3975              	.LVL525:
1598:.\BLEApplication.c ****             {
 3976              		.loc 1 1598 0
 3977 07b0 5878     		ldrb	r0, [r3, #1]
 3978              	.LVL526:
 3979 07b2 0028     		cmp	r0, #0
 3980 07b4 00D0     		beq	.LCB3740
 3981 07b6 F6E4     		b	.L313	@long jump
 3982              	.LCB3740:
1600:.\BLEApplication.c ****                 {
 3983              		.loc 1 1600 0
 3984 07b8 794B     		ldr	r3, .L500+32
 3985 07ba 1B78     		ldrb	r3, [r3]
 3986 07bc 022B     		cmp	r3, #2
 3987 07be 00D1     		bne	.LCB3744
 3988 07c0 EAE4     		b	.L318	@long jump
 3989              	.LCB3744:
1602:.\BLEApplication.c ****                     {
 3990              		.loc 1 1602 0
 3991 07c2 312A     		cmp	r2, #49
 3992 07c4 05D1     		bne	.L381
1604:.\BLEApplication.c ****                         {
 3993              		.loc 1 1604 0
 3994 07c6 032B     		cmp	r3, #3
 3995 07c8 00D1     		bne	.LCB3748
 3996 07ca E5E4     		b	.L318	@long jump
 3997              	.LCB3748:
1606:.\BLEApplication.c ****                             if(CYBLE_ERROR_OK==API_RESULT)
 3998              		.loc 1 1606 0
 3999 07cc FFF7FEFF 		bl	CyBle_GappStartAdvertisement
 4000              	.LVL527:
 4001 07d0 D1E4     		b	.L481
 4002              	.LVL528:
 4003              	.L381:
1623:.\BLEApplication.c ****                     {
 4004              		.loc 1 1623 0
 4005 07d2 302A     		cmp	r2, #48
 4006 07d4 00D0     		beq	.LCB3760
 4007 07d6 CDE0     		b	.L284	@long jump
 4008              	.LCB3760:
1625:.\BLEApplication.c ****                         {
 4009              		.loc 1 1625 0
 4010 07d8 032B     		cmp	r3, #3
 4011 07da 00D0     		beq	.LCB3762
 4012 07dc DCE4     		b	.L318	@long jump
 4013              	.LCB3762:
1627:.\BLEApplication.c ****                             printf("AT+OK\r\n");
 4014              		.loc 1 1627 0
ARM GAS  C:\Users\Helon\AppData\Local\Temp\ccKCxrf8.s 			page 130


 4015 07de FFF7FEFF 		bl	CyBle_GappStopAdvertisement
 4016              	.LVL529:
 4017 07e2 86E0     		b	.L487
 4018              	.LVL530:
 4019              	.L308:
1657:.\BLEApplication.c ****             {                
 4020              		.loc 1 1657 0
 4021 07e4 6E4B     		ldr	r3, .L500+32
1656:.\BLEApplication.c ****             if(CYBLE_STATE_CONNECTED!=CyBle_GetState())
 4022              		.loc 1 1656 0
 4023 07e6 607A     		ldrb	r0, [r4, #9]
 4024              	.LVL531:
1657:.\BLEApplication.c ****             {                
 4025              		.loc 1 1657 0
 4026 07e8 1B78     		ldrb	r3, [r3]
 4027 07ea 022B     		cmp	r3, #2
 4028 07ec 00D1     		bne	.LCB3779
 4029 07ee D3E4     		b	.L318	@long jump
 4030              	.LCB3779:
1659:.\BLEApplication.c ****                 {
 4031              		.loc 1 1659 0
 4032 07f0 3038     		sub	r0, r0, #48
 4033              	.LVL532:
 4034 07f2 0F28     		cmp	r0, #15
 4035 07f4 00D9     		bls	.LCB3783
 4036 07f6 BDE0     		b	.L284	@long jump
 4037              	.LCB3783:
 4038 07f8 FFF7FEFF 		bl	__gnu_thumb1_case_uqi
 4039              	.L384:
 4040 07fc 08       		.byte	(.L383-.L384)/2
 4041 07fd 15       		.byte	(.L385-.L384)/2
 4042 07fe 20       		.byte	(.L386-.L384)/2
 4043 07ff 2B       		.byte	(.L387-.L384)/2
 4044 0800 36       		.byte	(.L388-.L384)/2
 4045 0801 BC       		.byte	(.L284-.L384)/2
 4046 0802 BC       		.byte	(.L284-.L384)/2
 4047 0803 BC       		.byte	(.L284-.L384)/2
 4048 0804 BC       		.byte	(.L284-.L384)/2
 4049 0805 BC       		.byte	(.L284-.L384)/2
 4050 0806 BC       		.byte	(.L284-.L384)/2
 4051 0807 BC       		.byte	(.L284-.L384)/2
 4052 0808 BC       		.byte	(.L284-.L384)/2
 4053 0809 BC       		.byte	(.L284-.L384)/2
 4054 080a BC       		.byte	(.L284-.L384)/2
 4055 080b 44       		.byte	(.L389-.L384)/2
 4056              		.p2align 1
 4057              	.L383:
1662:.\BLEApplication.c ****                     if(API_RESULT==CYBLE_ERROR_OK)
 4058              		.loc 1 1662 0
 4059 080c 0020     		mov	r0, #0
 4060              	.LVL533:
 4061 080e FFF7FEFF 		bl	CyBle_GapSetIoCap
 4062              	.LVL534:
 4063 0812 041E     		sub	r4, r0, #0
 4064              	.LVL535:
1663:.\BLEApplication.c ****                     {
 4065              		.loc 1 1663 0
ARM GAS  C:\Users\Helon\AppData\Local\Temp\ccKCxrf8.s 			page 131


 4066 0814 00D0     		beq	.LCB3799
 4067 0816 B1E4     		b	.L319	@long jump
 4068              	.LCB3799:
1666:.\BLEApplication.c ****                         iocapability=CYBLE_GAP_IOCAP_DISPLAY_ONLY;
 4069              		.loc 1 1666 0
 4070 0818 6248     		ldr	r0, .L500+36
 4071              	.LVL536:
 4072 081a FFF7FEFF 		bl	puts
 4073              	.LVL537:
1667:.\BLEApplication.c ****                     }
 4074              		.loc 1 1667 0
 4075 081e 5F4B     		ldr	r3, .L500+28
 4076 0820 4E33     		add	r3, r3, #78
 4077 0822 1C70     		strb	r4, [r3]
 4078 0824 A9E0     		b	.L282
 4079              	.LVL538:
 4080              	.L385:
1675:.\BLEApplication.c ****                     if(API_RESULT==CYBLE_ERROR_OK)
 4081              		.loc 1 1675 0
 4082 0826 0120     		mov	r0, #1
 4083              	.LVL539:
 4084 0828 FFF7FEFF 		bl	CyBle_GapSetIoCap
 4085              	.LVL540:
1676:.\BLEApplication.c ****                     {
 4086              		.loc 1 1676 0
 4087 082c 0028     		cmp	r0, #0
 4088 082e 00D0     		beq	.LCB3821
 4089 0830 A4E4     		b	.L319	@long jump
 4090              	.LCB3821:
1679:.\BLEApplication.c ****                         iocapability=CYBLE_GAP_IOCAP_DISPLAY_YESNO;
 4091              		.loc 1 1679 0
 4092 0832 5C48     		ldr	r0, .L500+36
 4093              	.LVL541:
 4094 0834 FFF7FEFF 		bl	puts
 4095              	.LVL542:
1680:.\BLEApplication.c ****                     }
 4096              		.loc 1 1680 0
 4097 0838 0122     		mov	r2, #1
 4098 083a 1FE0     		b	.L484
 4099              	.LVL543:
 4100              	.L386:
1688:.\BLEApplication.c ****                     if(API_RESULT==CYBLE_ERROR_OK)
 4101              		.loc 1 1688 0
 4102 083c 0220     		mov	r0, #2
 4103              	.LVL544:
 4104 083e FFF7FEFF 		bl	CyBle_GapSetIoCap
 4105              	.LVL545:
1689:.\BLEApplication.c ****                     {
 4106              		.loc 1 1689 0
 4107 0842 0028     		cmp	r0, #0
 4108 0844 00D0     		beq	.LCB3840
 4109 0846 99E4     		b	.L319	@long jump
 4110              	.LCB3840:
1692:.\BLEApplication.c ****                         iocapability=CYBLE_GAP_IOCAP_KEYBOARD_ONLY;
 4111              		.loc 1 1692 0
 4112 0848 5648     		ldr	r0, .L500+36
 4113              	.LVL546:
ARM GAS  C:\Users\Helon\AppData\Local\Temp\ccKCxrf8.s 			page 132


 4114 084a FFF7FEFF 		bl	puts
 4115              	.LVL547:
1693:.\BLEApplication.c ****                     }
 4116              		.loc 1 1693 0
 4117 084e 0222     		mov	r2, #2
 4118 0850 14E0     		b	.L484
 4119              	.LVL548:
 4120              	.L387:
1701:.\BLEApplication.c ****                     if(API_RESULT==CYBLE_ERROR_OK)
 4121              		.loc 1 1701 0
 4122 0852 0320     		mov	r0, #3
 4123              	.LVL549:
 4124 0854 FFF7FEFF 		bl	CyBle_GapSetIoCap
 4125              	.LVL550:
1702:.\BLEApplication.c ****                     {
 4126              		.loc 1 1702 0
 4127 0858 0028     		cmp	r0, #0
 4128 085a 00D0     		beq	.LCB3859
 4129 085c 8EE4     		b	.L319	@long jump
 4130              	.LCB3859:
1705:.\BLEApplication.c ****                         iocapability=CYBLE_GAP_IOCAP_NOINPUT_NOOUTPUT;
 4131              		.loc 1 1705 0
 4132 085e 5148     		ldr	r0, .L500+36
 4133              	.LVL551:
 4134 0860 FFF7FEFF 		bl	puts
 4135              	.LVL552:
1706:.\BLEApplication.c ****                     }
 4136              		.loc 1 1706 0
 4137 0864 0322     		mov	r2, #3
 4138 0866 09E0     		b	.L484
 4139              	.LVL553:
 4140              	.L388:
1714:.\BLEApplication.c ****                     if(API_RESULT==CYBLE_ERROR_OK)
 4141              		.loc 1 1714 0
 4142 0868 0420     		mov	r0, #4
 4143              	.LVL554:
 4144 086a FFF7FEFF 		bl	CyBle_GapSetIoCap
 4145              	.LVL555:
1715:.\BLEApplication.c ****                     {
 4146              		.loc 1 1715 0
 4147 086e 0028     		cmp	r0, #0
 4148 0870 00D0     		beq	.LCB3878
 4149 0872 83E4     		b	.L319	@long jump
 4150              	.LCB3878:
1718:.\BLEApplication.c ****                         iocapability=CYBLE_GAP_IOCAP_KEYBOARD_DISPLAY;
 4151              		.loc 1 1718 0
 4152 0874 4B48     		ldr	r0, .L500+36
 4153              	.LVL556:
 4154 0876 FFF7FEFF 		bl	puts
 4155              	.LVL557:
1719:.\BLEApplication.c ****                     }
 4156              		.loc 1 1719 0
 4157 087a 0422     		mov	r2, #4
 4158              	.L484:
 4159 087c 474B     		ldr	r3, .L500+28
 4160 087e 4E33     		add	r3, r3, #78
 4161 0880 1A70     		strb	r2, [r3]
ARM GAS  C:\Users\Helon\AppData\Local\Temp\ccKCxrf8.s 			page 133


 4162 0882 7AE0     		b	.L282
 4163              	.LVL558:
 4164              	.L389:
1727:.\BLEApplication.c ****                         {
 4165              		.loc 1 1727 0
 4166 0884 454B     		ldr	r3, .L500+28
 4167 0886 4E33     		add	r3, r3, #78
 4168 0888 1878     		ldrb	r0, [r3]
 4169              	.LVL559:
 4170 088a 0428     		cmp	r0, #4
 4171 088c 75D8     		bhi	.L282
 4172 088e FFF7FEFF 		bl	__gnu_thumb1_case_uqi
 4173              	.L391:
 4174 0892 03       		.byte	(.L390-.L391)/2
 4175 0893 05       		.byte	(.L392-.L391)/2
 4176 0894 07       		.byte	(.L393-.L391)/2
 4177 0895 09       		.byte	(.L394-.L391)/2
 4178 0896 0B       		.byte	(.L395-.L391)/2
 4179 0897 00       		.p2align 1
 4180              	.L390:
1730:.\BLEApplication.c **** //                                printf("+IOCAP=<DISPLAY_ONLY>\r\n");
 4181              		.loc 1 1730 0
 4182 0898 4348     		ldr	r0, .L500+40
 4183 089a 6CE0     		b	.L483
 4184              	.L392:
1734:.\BLEApplication.c **** //                                printf("+IOCAP=<DISPLAY_YESNO>\r\n");
 4185              		.loc 1 1734 0
 4186 089c 4348     		ldr	r0, .L500+44
 4187 089e 6AE0     		b	.L483
 4188              	.L393:
1738:.\BLEApplication.c **** //                                printf("+IOCAP=<KEYBOARD_ONLY>\r\n");
 4189              		.loc 1 1738 0
 4190 08a0 4348     		ldr	r0, .L500+48
 4191 08a2 68E0     		b	.L483
 4192              	.L394:
1742:.\BLEApplication.c **** //                                printf("+IOCAP=<NOINPUT_NOOUTPUT>\r\n");
 4193              		.loc 1 1742 0
 4194 08a4 4348     		ldr	r0, .L500+52
 4195 08a6 66E0     		b	.L483
 4196              	.L395:
1746:.\BLEApplication.c **** //                                printf("+IOCAP=<KEYBOARD_DISPLAY>\r\n");
 4197              		.loc 1 1746 0
 4198 08a8 4348     		ldr	r0, .L500+56
 4199 08aa 64E0     		b	.L483
 4200              	.LVL560:
 4201              	.L307:
1764:.\BLEApplication.c ****             if(idx=='?')
 4202              		.loc 1 1764 0
 4203 08ac 237A     		ldrb	r3, [r4, #8]
 4204              	.LVL561:
1765:.\BLEApplication.c ****             {
 4205              		.loc 1 1765 0
 4206 08ae 3F2B     		cmp	r3, #63
 4207 08b0 06D1     		bne	.L396
1767:.\BLEApplication.c ****                         printf("+AUTH=1\r\n");
 4208              		.loc 1 1767 0
 4209 08b2 3A4B     		ldr	r3, .L500+28
ARM GAS  C:\Users\Helon\AppData\Local\Temp\ccKCxrf8.s 			page 134


 4210              	.LVL562:
1768:.\BLEApplication.c **** //                    printf("+AUTH=<ENABLE>\r\n");
 4211              		.loc 1 1768 0
 4212 08b4 4148     		ldr	r0, .L500+60
 4213              	.LVL563:
1767:.\BLEApplication.c ****                         printf("+AUTH=1\r\n");
 4214              		.loc 1 1767 0
 4215 08b6 DB78     		ldrb	r3, [r3, #3]
 4216 08b8 002B     		cmp	r3, #0
 4217 08ba 5CD1     		bne	.L483
1771:.\BLEApplication.c **** //                    printf("+AUTH=<DISABLE>\r\n");
 4218              		.loc 1 1771 0
 4219 08bc 4048     		ldr	r0, .L500+64
 4220 08be 5AE0     		b	.L483
 4221              	.LVL564:
 4222              	.L396:
1774:.\BLEApplication.c ****             {
 4223              		.loc 1 1774 0
 4224 08c0 312B     		cmp	r3, #49
 4225 08c2 57D1     		bne	.L284
1776:.\BLEApplication.c ****                 {
 4226              		.loc 1 1776 0
 4227 08c4 354B     		ldr	r3, .L500+28
 4228              	.LVL565:
 4229 08c6 DB78     		ldrb	r3, [r3, #3]
 4230 08c8 002B     		cmp	r3, #0
 4231 08ca 00D0     		beq	.LCB3960
 4232 08cc 64E4     		b	.L318	@long jump
 4233              	.LCB3960:
1779:.\BLEApplication.c ****                     if(API_RESULT==CYBLE_ERROR_OK)
 4234              		.loc 1 1779 0
 4235 08ce 3D4B     		ldr	r3, .L500+68
 4236 08d0 3D49     		ldr	r1, .L500+72
 4237 08d2 1878     		ldrb	r0, [r3]
 4238              	.LVL566:
 4239 08d4 FFF7FEFF 		bl	CyBle_GapAuthReq
 4240              	.LVL567:
 4241 08d8 4DE4     		b	.L481
 4242              	.LVL568:
 4243              	.L309:
1804:.\BLEApplication.c ****             {
 4244              		.loc 1 1804 0
 4245 08da 637A     		ldrb	r3, [r4, #9]
 4246 08dc 312B     		cmp	r3, #49
 4247 08de 05D0     		beq	.L399
 4248 08e0 3F2B     		cmp	r3, #63
 4249 08e2 08D0     		beq	.L400
1808:.\BLEApplication.c ****                     printf("AT+OK\r\n");
 4250              		.loc 1 1808 0
 4251 08e4 0022     		mov	r2, #0
1804:.\BLEApplication.c ****             {
 4252              		.loc 1 1804 0
 4253 08e6 302B     		cmp	r3, #48
 4254 08e8 44D1     		bne	.L284
 4255 08ea 00E0     		b	.L488
 4256              	.L399:
1813:.\BLEApplication.c ****                     printf("AT+OK\r\n");
ARM GAS  C:\Users\Helon\AppData\Local\Temp\ccKCxrf8.s 			page 135


 4257              		.loc 1 1813 0
 4258 08ec 0122     		mov	r2, #1
 4259              	.L488:
 4260 08ee 374B     		ldr	r3, .L500+76
 4261 08f0 1A72     		strb	r2, [r3, #8]
 4262              	.LVL569:
 4263              	.L487:
1814:.\BLEApplication.c ****                 break;
 4264              		.loc 1 1814 0
 4265 08f2 2C48     		ldr	r0, .L500+36
 4266 08f4 3FE0     		b	.L483
 4267              	.LVL570:
 4268              	.L400:
1817:.\BLEApplication.c ****                             printf("+SLEEPMODE=1\r\n");
 4269              		.loc 1 1817 0
 4270 08f6 354B     		ldr	r3, .L500+76
1818:.\BLEApplication.c **** //                        printf("+SLEEPMODE=<ENABLE>\r\n");
 4271              		.loc 1 1818 0
 4272 08f8 3548     		ldr	r0, .L500+80
 4273              	.LVL571:
1817:.\BLEApplication.c ****                             printf("+SLEEPMODE=1\r\n");
 4274              		.loc 1 1817 0
 4275 08fa 1B7A     		ldrb	r3, [r3, #8]
 4276 08fc 002B     		cmp	r3, #0
 4277 08fe 3AD1     		bne	.L483
1821:.\BLEApplication.c **** //                        printf("+SLEEPMODE=<DISABLE>\r\n");
 4278              		.loc 1 1821 0
 4279 0900 3448     		ldr	r0, .L500+84
 4280 0902 38E0     		b	.L483
 4281              	.LVL572:
 4282              	.L310:
1830:.\BLEApplication.c ****             if(Role==Peripheral)
 4283              		.loc 1 1830 0
 4284 0904 267A     		ldrb	r6, [r4, #8]
 4285              	.LVL573:
1831:.\BLEApplication.c ****             {
 4286              		.loc 1 1831 0
 4287 0906 254C     		ldr	r4, .L500+28
 4288              	.LVL574:
 4289 0908 6378     		ldrb	r3, [r4, #1]
 4290 090a 251C     		mov	r5, r4
 4291 090c 002B     		cmp	r3, #0
 4292 090e 34D1     		bne	.L282
1833:.\BLEApplication.c ****                 if(bondedDevList.count)
 4293              		.loc 1 1833 0
 4294 0910 18AF     		add	r7, sp, #96
 4295 0912 381C     		mov	r0, r7
 4296              	.LVL575:
 4297 0914 FFF7FEFF 		bl	CyBle_GapGetBondedDevicesList
 4298              	.LVL576:
1834:.\BLEApplication.c ****                     Bond=TURE;
 4299              		.loc 1 1834 0
 4300 0918 3B78     		ldrb	r3, [r7]
 4301 091a 4F34     		add	r4, r4, #79
 4302 091c 002B     		cmp	r3, #0
 4303 091e 07D0     		beq	.L403
1835:.\BLEApplication.c ****                 else
ARM GAS  C:\Users\Helon\AppData\Local\Temp\ccKCxrf8.s 			page 136


 4304              		.loc 1 1835 0
 4305 0920 0123     		mov	r3, #1
 4306 0922 2370     		strb	r3, [r4]
1838:.\BLEApplication.c ****                 {
 4307              		.loc 1 1838 0
 4308 0924 302E     		cmp	r6, #48
 4309 0926 0AD0     		beq	.L405
1862:.\BLEApplication.c ****                         else
 4310              		.loc 1 1862 0
 4311 0928 2B48     		ldr	r0, .L500+88
1838:.\BLEApplication.c ****                 {
 4312              		.loc 1 1838 0
 4313 092a 3F2E     		cmp	r6, #63
 4314 092c 23D0     		beq	.L483
 4315 092e 21E0     		b	.L284
 4316              	.L403:
1837:.\BLEApplication.c ****                 switch(idx)
 4317              		.loc 1 1837 0
 4318 0930 2370     		strb	r3, [r4]
1838:.\BLEApplication.c ****                 {
 4319              		.loc 1 1838 0
 4320 0932 302E     		cmp	r6, #48
 4321 0934 03D0     		beq	.L405
1864:.\BLEApplication.c ****                     break;                        
 4322              		.loc 1 1864 0
 4323 0936 2948     		ldr	r0, .L500+92
1838:.\BLEApplication.c ****                 {
 4324              		.loc 1 1838 0
 4325 0938 3F2E     		cmp	r6, #63
 4326 093a 1CD0     		beq	.L483
 4327 093c 1AE0     		b	.L284
 4328              	.L405:
1841:.\BLEApplication.c ****                         {                                                        
 4329              		.loc 1 1841 0
 4330 093e 184B     		ldr	r3, .L500+32
 4331 0940 1B78     		ldrb	r3, [r3]
 4332 0942 022B     		cmp	r3, #2
 4333 0944 00D1     		bne	.LCB4068
 4334 0946 27E4     		b	.L318	@long jump
 4335              	.LCB4068:
1843:.\BLEApplication.c ****                             {
 4336              		.loc 1 1843 0
 4337 0948 2B1C     		mov	r3, r5
 4338 094a 4F33     		add	r3, r3, #79
 4339 094c 1B78     		ldrb	r3, [r3]
 4340 094e 002B     		cmp	r3, #0
 4341 0950 0ED0     		beq	.L408
1845:.\BLEApplication.c ****                                 while(CYBLE_ERROR_OK != CyBle_StoreBondingData(1));
 4342              		.loc 1 1845 0
 4343 0952 281C     		mov	r0, r5
 4344 0954 5030     		add	r0, r0, #80
 4345 0956 FFF7FEFF 		bl	CyBle_GapRemoveDeviceFromWhiteList
 4346              	.LVL577:
 4347              	.L409:
1846:.\BLEApplication.c ****                                 printf("+BOND=0\r\n");//Ê∏ÖÈô§ÁªëÂÆöÊàêÂäü
 4348              		.loc 1 1846 0 discriminator 1
 4349 095a 0120     		mov	r0, #1
ARM GAS  C:\Users\Helon\AppData\Local\Temp\ccKCxrf8.s 			page 137


 4350 095c FFF7FEFF 		bl	CyBle_StoreBondingData
 4351              	.LVL578:
 4352 0960 041E     		sub	r4, r0, #0
 4353 0962 FAD1     		bne	.L409
1847:.\BLEApplication.c ****                                 Bond=FALSE;
 4354              		.loc 1 1847 0
 4355 0964 1D48     		ldr	r0, .L500+92
1848:.\BLEApplication.c ****                             }                                             
 4356              		.loc 1 1848 0
 4357 0966 4F35     		add	r5, r5, #79
1847:.\BLEApplication.c ****                                 Bond=FALSE;
 4358              		.loc 1 1847 0
 4359 0968 FFF7FEFF 		bl	puts
 4360              	.LVL579:
1848:.\BLEApplication.c ****                             }                                             
 4361              		.loc 1 1848 0
 4362 096c 2C70     		strb	r4, [r5]
 4363 096e 04E0     		b	.L282
 4364              	.L408:
1852:.\BLEApplication.c ****                             }
 4365              		.loc 1 1852 0
 4366 0970 1B48     		ldr	r0, .L500+96
 4367 0972 00E0     		b	.L483
 4368              	.LVL580:
 4369              	.L284:
1880:.\BLEApplication.c ****         break;
 4370              		.loc 1 1880 0
 4371 0974 1B48     		ldr	r0, .L500+100
 4372              	.LVL581:
 4373              	.L483:
1864:.\BLEApplication.c ****                     break;                        
 4374              		.loc 1 1864 0
 4375 0976 FFF7FEFF 		bl	puts
 4376              	.LVL582:
 4377              	.L282:
1884:.\BLEApplication.c **** 
 4378              		.loc 1 1884 0
 4379 097a 31B0     		add	sp, sp, #196
 4380              		@ sp needed
 4381 097c F0BD     		pop	{r4, r5, r6, r7, pc}
 4382              	.L501:
 4383 097e C046     		.align	2
 4384              	.L500:
 4385 0980 50040000 		.word	.LC206
 4386 0984 5A040000 		.word	.LC208
 4387 0988 64040000 		.word	.LC210
 4388 098c 6E040000 		.word	.LC212
 4389 0990 78040000 		.word	.LC214
 4390 0994 82040000 		.word	.LC216
 4391 0998 8C040000 		.word	.LC218
 4392 099c 00000000 		.word	.LANCHOR0
 4393 09a0 00000000 		.word	cyBle_state
 4394 09a4 4A010000 		.word	.LC67
 4395 09a8 96040000 		.word	.LC220
 4396 09ac A0040000 		.word	.LC222
 4397 09b0 AA040000 		.word	.LC224
 4398 09b4 B4040000 		.word	.LC226
ARM GAS  C:\Users\Helon\AppData\Local\Temp\ccKCxrf8.s 			page 138


 4399 09b8 BE040000 		.word	.LC228
 4400 09bc C8040000 		.word	.LC230
 4401 09c0 D1040000 		.word	.LC232
 4402 09c4 00000000 		.word	cyBle_connHandle
 4403 09c8 00000000 		.word	cyBle_authInfo
 4404 09cc 00000000 		.word	.LANCHOR1
 4405 09d0 DA040000 		.word	.LC235
 4406 09d4 E8040000 		.word	.LC237
 4407 09d8 08050000 		.word	.LC243
 4408 09dc F6040000 		.word	.LC239
 4409 09e0 FF040000 		.word	.LC241
 4410 09e4 3B030000 		.word	.LC147
 4411              		.cfi_endproc
 4412              	.LFE43:
 4413              		.size	Parser_UartData, .-Parser_UartData
 4414              		.global	__aeabi_uidiv
 4415              		.section	.text.Master_Slave_UartHandler,"ax",%progbits
 4416              		.align	1
 4417              		.global	Master_Slave_UartHandler
 4418              		.code	16
 4419              		.thumb_func
 4420              		.type	Master_Slave_UartHandler, %function
 4421              	Master_Slave_UartHandler:
 4422              	.LFB48:
2072:.\BLEApplication.c ****     uint8_t Uart_Char=0;
 4423              		.loc 1 2072 0
 4424              		.cfi_startproc
 4425              	.LVL583:
 4426 0000 F0B5     		push	{r4, r5, r6, r7, lr}
 4427              		.cfi_def_cfa_offset 20
 4428              		.cfi_offset 4, -20
 4429              		.cfi_offset 5, -16
 4430              		.cfi_offset 6, -12
 4431              		.cfi_offset 7, -8
 4432              		.cfi_offset 14, -4
 4433 0002 8BB0     		sub	sp, sp, #44
 4434              		.cfi_def_cfa_offset 64
 4435 0004 6B46     		mov	r3, sp
2077:.\BLEApplication.c ****     CYBLE_API_RESULT_T API_RESULT=0;
 4436              		.loc 1 2077 0
 4437 0006 6A46     		mov	r2, sp
 4438 0008 8D4C     		ldr	r4, .L545
2072:.\BLEApplication.c ****     uint8_t Uart_Char=0;
 4439              		.loc 1 2072 0
 4440 000a 00AF     		add	r7, sp, #0
 4441              		.cfi_def_cfa_register 7
 4442 000c FB60     		str	r3, [r7, #12]
 4443              	.LVL584:
2077:.\BLEApplication.c ****     CYBLE_API_RESULT_T API_RESULT=0;
 4444              		.loc 1 2077 0
 4445 000e E388     		ldrh	r3, [r4, #6]
2072:.\BLEApplication.c ****     uint8_t Uart_Char=0;
 4446              		.loc 1 2072 0
 4447 0010 7860     		str	r0, [r7, #4]
2077:.\BLEApplication.c ****     CYBLE_API_RESULT_T API_RESULT=0;
 4448              		.loc 1 2077 0
 4449 0012 0433     		add	r3, r3, #4
ARM GAS  C:\Users\Helon\AppData\Local\Temp\ccKCxrf8.s 			page 139


 4450 0014 DB08     		lsr	r3, r3, #3
 4451 0016 DB00     		lsl	r3, r3, #3
 4452 0018 D31A     		sub	r3, r2, r3
 4453 001a 9D46     		mov	sp, r3
 4454 001c 3B61     		str	r3, [r7, #16]
 4455              	.LVL585:
2083:.\BLEApplication.c **** //    UART_UartPutChar(uartTxDataLength);   
 4456              		.loc 1 2083 0
 4457 001e FFF7FEFF 		bl	UART_SpiUartGetRxBufferSize
 4458              	.LVL586:
 4459 0022 B860     		str	r0, [r7, #8]
 4460 0024 3B89     		ldrh	r3, [r7, #8]
 4461 0026 251C     		mov	r5, r4
 4462 0028 7B61     		str	r3, [r7, #20]
 4463              	.LVL587:
 4464 002a 864E     		ldr	r6, .L545+4
2086:.\BLEApplication.c ****     {   
 4465              		.loc 1 2086 0
 4466 002c 002B     		cmp	r3, #0
 4467 002e 00D1     		bne	.LCB4200
 4468 0030 E9E0     		b	.L503	@long jump
 4469              	.LCB4200:
2086:.\BLEApplication.c ****     {   
 4470              		.loc 1 2086 0 is_stmt 0 discriminator 1
 4471 0032 3079     		ldrb	r0, [r6, #4]
 4472 0034 0128     		cmp	r0, #1
 4473 0036 00D0     		beq	.LCB4203
 4474 0038 92E0     		b	.L504	@long jump
 4475              	.LCB4203:
2089:.\BLEApplication.c ****             {
 4476              		.loc 1 2089 0 is_stmt 1
 4477 003a 834B     		ldr	r3, .L545+8
 4478 003c 7969     		ldr	r1, [r7, #20]
 4479 003e 834C     		ldr	r4, .L545+12
 4480 0040 0422     		mov	r2, #4
 4481 0042 9942     		cmp	r1, r3
 4482 0044 04D9     		bls	.L505
2091:.\BLEApplication.c ****                 CTS_Write(CTS_OFF);
 4483              		.loc 1 2091 0
 4484 0046 2368     		ldr	r3, [r4]
2092:.\BLEApplication.c ****             }
 4485              		.loc 1 2092 0
 4486 0048 0020     		mov	r0, #0
2091:.\BLEApplication.c ****                 CTS_Write(CTS_OFF);
 4487              		.loc 1 2091 0
 4488 004a 9343     		bic	r3, r2
 4489 004c 2360     		str	r3, [r4]
 4490 004e 02E0     		b	.L541
 4491              	.L505:
2096:.\BLEApplication.c ****                 CTS_Write(CTS_ON);
 4492              		.loc 1 2096 0
 4493 0050 2368     		ldr	r3, [r4]
 4494 0052 1343     		orr	r3, r2
 4495 0054 2360     		str	r3, [r4]
 4496              	.L541:
2097:.\BLEApplication.c ****             }
 4497              		.loc 1 2097 0
ARM GAS  C:\Users\Helon\AppData\Local\Temp\ccKCxrf8.s 			page 140


 4498 0056 FFF7FEFF 		bl	CTS_Write
 4499              	.LVL588:
2100:.\BLEApplication.c ****         {                 
 4500              		.loc 1 2100 0
 4501 005a EB88     		ldrh	r3, [r5, #6]
 4502 005c 3A89     		ldrh	r2, [r7, #8]
 4503 005e 033B     		sub	r3, r3, #3
 4504 0060 9A42     		cmp	r2, r3
 4505 0062 07DB     		blt	.L507
2102:.\BLEApplication.c ****             uartTxDataLength=negotiatedMtu-3;
 4506              		.loc 1 2102 0
 4507 0064 7A4A     		ldr	r2, .L545+16
2103:.\BLEApplication.c ****         }
 4508              		.loc 1 2103 0
 4509 0066 9BB2     		uxth	r3, r3
2102:.\BLEApplication.c ****             uartTxDataLength=negotiatedMtu-3;
 4510              		.loc 1 2102 0
 4511 0068 2A81     		strh	r2, [r5, #8]
2103:.\BLEApplication.c ****         }
 4512              		.loc 1 2103 0
 4513 006a 7B61     		str	r3, [r7, #20]
 4514              	.LVL589:
2116:.\BLEApplication.c ****         {
 4515              		.loc 1 2116 0
 4516 006c 002B     		cmp	r3, #0
 4517 006e 00D1     		bne	.LCB4238
 4518 0070 E0E0     		b	.L514	@long jump
 4519              	.LCB4238:
 4520 0072 06E0     		b	.L508
 4521              	.L507:
2107:.\BLEApplication.c ****             {
 4522              		.loc 1 2107 0
 4523 0074 2B89     		ldrh	r3, [r5, #8]
 4524 0076 013B     		sub	r3, r3, #1
 4525 0078 9BB2     		uxth	r3, r3
 4526 007a 2B81     		strh	r3, [r5, #8]
 4527 007c 002B     		cmp	r3, #0
 4528 007e 00D0     		beq	.LCB4249
 4529 0080 D8E0     		b	.L514	@long jump
 4530              	.LCB4249:
 4531              	.L508:
2118:.\BLEApplication.c **** //            UART_UartPutChar(UART_SpiUartGetRxBufferSize());
 4532              		.loc 1 2118 0
 4533 0082 734B     		ldr	r3, .L545+16
 4534 0084 2B81     		strh	r3, [r5, #8]
 4535              	.LVL590:
2120:.\BLEApplication.c ****             {
 4536              		.loc 1 2120 0
 4537 0086 0025     		mov	r5, #0
 4538              	.LVL591:
 4539              	.L510:
2120:.\BLEApplication.c ****             {
 4540              		.loc 1 2120 0 is_stmt 0 discriminator 1
 4541 0088 7B69     		ldr	r3, [r7, #20]
 4542 008a 9D42     		cmp	r5, r3
 4543 008c 06D2     		bcs	.L544
2122:.\BLEApplication.c ****             }            
ARM GAS  C:\Users\Helon\AppData\Local\Temp\ccKCxrf8.s 			page 141


 4544              		.loc 1 2122 0 is_stmt 1 discriminator 3
 4545 008e FFF7FEFF 		bl	UART_UartGetByte
 4546              	.LVL592:
 4547 0092 3B69     		ldr	r3, [r7, #16]
 4548 0094 5855     		strb	r0, [r3, r5]
2120:.\BLEApplication.c ****             {
 4549              		.loc 1 2120 0 discriminator 3
 4550 0096 0135     		add	r5, r5, #1
 4551              	.LVL593:
 4552 0098 EDB2     		uxtb	r5, r5
 4553              	.LVL594:
 4554 009a F5E7     		b	.L510
 4555              	.L544:
2124:.\BLEApplication.c ****             {                
 4556              		.loc 1 2124 0
 4557 009c 6D48     		ldr	r0, .L545+20
 4558 009e 3969     		ldr	r1, [r7, #16]
 4559 00a0 0B22     		mov	r2, #11
 4560 00a2 FFF7FEFF 		bl	memcmp
 4561              	.LVL595:
 4562 00a6 0028     		cmp	r0, #0
 4563 00a8 1FD1     		bne	.L512
2126:.\BLEApplication.c ****                 {
 4564              		.loc 1 2126 0
 4565 00aa 7B68     		ldr	r3, [r7, #4]
 4566 00ac 012B     		cmp	r3, #1
 4567 00ae 0ED1     		bne	.L513
2128:.\BLEApplication.c ****                     writeRequestData.attrHandle=CYBLE_TROUGHPUT_SERVICE_CUSTOM_CHARACTERISTIC_CLIEN
 4568              		.loc 1 2128 0
 4569 00b0 6949     		ldr	r1, .L545+24
2130:.\BLEApplication.c ****                     if(CYBLE_ERROR_OK==API_RESULT)
 4570              		.loc 1 2130 0
 4571 00b2 6A4A     		ldr	r2, .L545+28
2128:.\BLEApplication.c ****                     writeRequestData.attrHandle=CYBLE_TROUGHPUT_SERVICE_CUSTOM_CHARACTERISTIC_CLIEN
 4572              		.loc 1 2128 0
 4573 00b4 0B68     		ldr	r3, [r1]
 4574 00b6 1870     		strb	r0, [r3]
2129:.\BLEApplication.c ****                     API_RESULT=CyBle_GattcWriteCharacteristicValue(cyBle_connHandle, &writeRequestD
 4575              		.loc 1 2129 0
 4576 00b8 0F23     		mov	r3, #15
2130:.\BLEApplication.c ****                     if(CYBLE_ERROR_OK==API_RESULT)
 4577              		.loc 1 2130 0
 4578 00ba 5078     		ldrb	r0, [r2, #1]
2129:.\BLEApplication.c ****                     API_RESULT=CyBle_GattcWriteCharacteristicValue(cyBle_connHandle, &writeRequestD
 4579              		.loc 1 2129 0
 4580 00bc 0B81     		strh	r3, [r1, #8]
2130:.\BLEApplication.c ****                     if(CYBLE_ERROR_OK==API_RESULT)
 4581              		.loc 1 2130 0
 4582 00be 1378     		ldrb	r3, [r2]
 4583 00c0 0002     		lsl	r0, r0, #8
 4584 00c2 1843     		orr	r0, r3
 4585 00c4 FFF7FEFF 		bl	CyBle_GattcWriteCharacteristicValue
 4586              	.LVL596:
2131:.\BLEApplication.c ****                     {
 4587              		.loc 1 2131 0
 4588 00c8 0028     		cmp	r0, #0
 4589 00ca 00D0     		beq	.LCB4306
ARM GAS  C:\Users\Helon\AppData\Local\Temp\ccKCxrf8.s 			page 142


 4590 00cc B2E0     		b	.L514	@long jump
 4591              	.LCB4306:
 4592              	.LVL597:
 4593              	.L513:
2133:.\BLEApplication.c ****                         CTS_Write(CTS_OFF);
 4594              		.loc 1 2133 0
 4595 00ce 0024     		mov	r4, #0
2134:.\BLEApplication.c ****                         Buffer_Length=0;
 4596              		.loc 1 2134 0
 4597 00d0 201C     		mov	r0, r4
2133:.\BLEApplication.c ****                         CTS_Write(CTS_OFF);
 4598              		.loc 1 2133 0
 4599 00d2 3471     		strb	r4, [r6, #4]
2134:.\BLEApplication.c ****                         Buffer_Length=0;
 4600              		.loc 1 2134 0
 4601 00d4 FFF7FEFF 		bl	CTS_Write
 4602              	.LVL598:
2136:.\BLEApplication.c ****                         printf("+MODE=AT_COMMAND_MODE\r\n");
 4603              		.loc 1 2136 0
 4604 00d8 301C     		mov	r0, r6
 4605 00da 211C     		mov	r1, r4
 4606 00dc 1E30     		add	r0, r0, #30
 4607 00de 3022     		mov	r2, #48
2135:.\BLEApplication.c ****                         memset(RX_BUFFER,0,sizeof(RX_BUFFER));
 4608              		.loc 1 2135 0
 4609 00e0 7477     		strb	r4, [r6, #29]
2136:.\BLEApplication.c ****                         printf("+MODE=AT_COMMAND_MODE\r\n");
 4610              		.loc 1 2136 0
 4611 00e2 FFF7FEFF 		bl	memset
 4612              	.LVL599:
2137:.\BLEApplication.c ****                     }
 4613              		.loc 1 2137 0
 4614 00e6 5E48     		ldr	r0, .L545+32
 4615 00e8 A2E0     		b	.L542
 4616              	.LVL600:
 4617              	.L512:
2150:.\BLEApplication.c ****             {
 4618              		.loc 1 2150 0
 4619 00ea 3969     		ldr	r1, [r7, #16]
 4620 00ec 5D48     		ldr	r0, .L545+36
 4621 00ee 0B22     		mov	r2, #11
 4622 00f0 FFF7FEFF 		bl	memcmp
 4623              	.LVL601:
 4624 00f4 011E     		sub	r1, r0, #0
 4625 00f6 07D1     		bne	.L515
2152:.\BLEApplication.c ****                 memset(RX_BUFFER,0,sizeof(RX_BUFFER));
 4626              		.loc 1 2152 0
 4627 00f8 7077     		strb	r0, [r6, #29]
2153:.\BLEApplication.c ****                 printf("+MODE=THROUGHT_MODE\r\n");
 4628              		.loc 1 2153 0
 4629 00fa 301C     		mov	r0, r6
 4630 00fc 3022     		mov	r2, #48
 4631 00fe 1E30     		add	r0, r0, #30
 4632 0100 FFF7FEFF 		bl	memset
 4633              	.LVL602:
2154:.\BLEApplication.c ****                 return;
 4634              		.loc 1 2154 0
ARM GAS  C:\Users\Helon\AppData\Local\Temp\ccKCxrf8.s 			page 143


 4635 0104 5848     		ldr	r0, .L545+40
 4636 0106 93E0     		b	.L542
 4637              	.L515:
2157:.\BLEApplication.c ****             {
 4638              		.loc 1 2157 0
 4639 0108 7B68     		ldr	r3, [r7, #4]
 4640 010a 584A     		ldr	r2, .L545+44
 4641 010c 002B     		cmp	r3, #0
 4642 010e 1BD1     		bne	.L516
 4643              	.L517:
2159:.\BLEApplication.c ****                 uartTxDataNtf.value.val  = uartTxData;
 4644              		.loc 1 2159 0 discriminator 1
 4645 0110 1378     		ldrb	r3, [r2]
 4646 0112 002B     		cmp	r3, #0
 4647 0114 FCD1     		bne	.L517
2160:.\BLEApplication.c ****                 uartTxDataNtf.value.len  = uartTxDataLength;
 4648              		.loc 1 2160 0
 4649 0116 3B69     		ldr	r3, [r7, #16]
 4650 0118 FB61     		str	r3, [r7, #28]
2161:.\BLEApplication.c ****                 uartTxDataNtf.attrHandle = CYBLE_TROUGHPUT_SERVICE_CUSTOM_CHARACTERISTIC_CHAR_HANDL
 4651              		.loc 1 2161 0
 4652 011a BB8A     		ldrh	r3, [r7, #20]
 4653 011c 3B84     		strh	r3, [r7, #32]
2162:.\BLEApplication.c **** //                #ifdef FLOW_CONTROL
 4654              		.loc 1 2162 0
 4655 011e 0E23     		mov	r3, #14
 4656 0120 BB84     		strh	r3, [r7, #36]
 4657              	.LVL603:
 4658              	.L518:
2168:.\BLEApplication.c ****                     CyBle_ProcessEvents();
 4659              		.loc 1 2168 0 discriminator 2
 4660 0122 4E4A     		ldr	r2, .L545+28
 4661 0124 5078     		ldrb	r0, [r2, #1]
 4662 0126 1378     		ldrb	r3, [r2]
 4663 0128 0002     		lsl	r0, r0, #8
 4664 012a 1843     		orr	r0, r3
 4665 012c 1C23     		mov	r3, #28
 4666 012e F918     		add	r1, r7, r3
 4667 0130 FFF7FEFF 		bl	CyBle_GattsNotification
 4668              	.LVL604:
 4669 0134 041C     		mov	r4, r0
 4670              	.LVL605:
2169:.\BLEApplication.c ****                 }
 4671              		.loc 1 2169 0 discriminator 2
 4672 0136 FFF7FEFF 		bl	CyBle_ProcessEvents
 4673              	.LVL606:
2171:.\BLEApplication.c **** //                testCount+=uartTxDataLength;
 4674              		.loc 1 2171 0 discriminator 2
 4675 013a 002C     		cmp	r4, #0
 4676 013c 7AD0     		beq	.L514
2171:.\BLEApplication.c **** //                testCount+=uartTxDataLength;
 4677              		.loc 1 2171 0 is_stmt 0 discriminator 1
 4678 013e 4C4B     		ldr	r3, .L545+48
 4679 0140 1B78     		ldrb	r3, [r3]
 4680 0142 022B     		cmp	r3, #2
 4681 0144 EDD0     		beq	.L518
 4682 0146 75E0     		b	.L514
ARM GAS  C:\Users\Helon\AppData\Local\Temp\ccKCxrf8.s 			page 144


 4683              	.LVL607:
 4684              	.L516:
2177:.\BLEApplication.c ****                 #endif
 4685              		.loc 1 2177 0 is_stmt 1
 4686 0148 0421     		mov	r1, #4
 4687 014a 2368     		ldr	r3, [r4]
 4688 014c 8B43     		bic	r3, r1
 4689 014e 2360     		str	r3, [r4]
 4690              	.L519:
2179:.\BLEApplication.c ****                 SendData_toSlave(uartTxData,uartTxDataLength);
 4691              		.loc 1 2179 0 discriminator 1
 4692 0150 1378     		ldrb	r3, [r2]
 4693 0152 002B     		cmp	r3, #0
 4694 0154 FCD1     		bne	.L519
2180:.\BLEApplication.c ****             }
 4695              		.loc 1 2180 0
 4696 0156 3869     		ldr	r0, [r7, #16]
 4697 0158 7969     		ldr	r1, [r7, #20]
 4698 015a FFF7FEFF 		bl	SendData_toSlave
 4699              	.LVL608:
 4700 015e 69E0     		b	.L514
 4701              	.LVL609:
 4702              	.L504:
2187:.\BLEApplication.c ****         if(KEYBOARD)
 4703              		.loc 1 2187 0
 4704 0160 0123     		mov	r3, #1
 4705 0162 444A     		ldr	r2, .L545+52
2188:.\BLEApplication.c ****         {
 4706              		.loc 1 2188 0
 4707 0164 357D     		ldrb	r5, [r6, #20]
2187:.\BLEApplication.c ****         if(KEYBOARD)
 4708              		.loc 1 2187 0
 4709 0166 1370     		strb	r3, [r2]
2188:.\BLEApplication.c ****         {
 4710              		.loc 1 2188 0
 4711 0168 002D     		cmp	r5, #0
 4712 016a 31D0     		beq	.L520
2190:.\BLEApplication.c ****         /*Set the passkey to zero before receiving New passkey */
 4713              		.loc 1 2190 0
 4714 016c 0024     		mov	r4, #0
 4715 016e 0625     		mov	r5, #6
 4716 0170 3475     		strb	r4, [r6, #20]
 4717              	.LVL610:
2193:.\BLEApplication.c ****             
 4718              		.loc 1 2193 0
 4719 0172 414E     		ldr	r6, .L545+56
 4720              	.LVL611:
 4721              	.L521:
2198:.\BLEApplication.c ****                 
 4722              		.loc 1 2198 0 discriminator 1
 4723 0174 FFF7FEFF 		bl	UART_UartGetChar
 4724              	.LVL612:
 4725 0178 C3B2     		uxtb	r3, r0
 4726              	.LVL613:
 4727 017a 002B     		cmp	r3, #0
 4728 017c FAD0     		beq	.L521
2201:.\BLEApplication.c ****                 {
ARM GAS  C:\Users\Helon\AppData\Local\Temp\ccKCxrf8.s 			page 145


 4729              		.loc 1 2201 0
 4730 017e 303B     		sub	r3, r3, #48
 4731              	.LVL614:
 4732 0180 092B     		cmp	r3, #9
 4733 0182 0CD8     		bhi	.L522
2203:.\BLEApplication.c ****                     pow /= 10u;
 4734              		.loc 1 2203 0
 4735 0184 181C     		mov	r0, r3
 4736 0186 7043     		mul	r0, r6
2204:.\BLEApplication.c **** //                    UART_UartPutChar(Uart_Char); 
 4737              		.loc 1 2204 0
 4738 0188 0A21     		mov	r1, #10
2203:.\BLEApplication.c ****                     pow /= 10u;
 4739              		.loc 1 2203 0
 4740 018a 2418     		add	r4, r4, r0
 4741              	.LVL615:
2204:.\BLEApplication.c **** //                    UART_UartPutChar(Uart_Char); 
 4742              		.loc 1 2204 0
 4743 018c 301C     		mov	r0, r6
 4744 018e FFF7FEFF 		bl	__aeabi_uidiv
 4745              	.LVL616:
 4746 0192 013D     		sub	r5, r5, #1
 4747 0194 EDB2     		uxtb	r5, r5
 4748 0196 061C     		mov	r6, r0
 4749              	.LVL617:
2196:.\BLEApplication.c ****             {
 4750              		.loc 1 2196 0
 4751 0198 002D     		cmp	r5, #0
 4752 019a EBD1     		bne	.L521
 4753 019c 02E0     		b	.L524
 4754              	.LVL618:
 4755              	.L522:
2209:.\BLEApplication.c ****                     break;
 4756              		.loc 1 2209 0
 4757 019e 3748     		ldr	r0, .L545+60
 4758 01a0 FFF7FEFF 		bl	puts
 4759              	.LVL619:
 4760              	.L524:
2214:.\BLEApplication.c ****             /*Check the result of CyBle_GapAuthPassKeyReply*/
 4761              		.loc 1 2214 0
 4762 01a4 2D4B     		ldr	r3, .L545+28
 4763 01a6 211C     		mov	r1, r4
 4764 01a8 1878     		ldrb	r0, [r3]
 4765 01aa 0122     		mov	r2, #1
 4766 01ac FFF7FEFF 		bl	CyBle_GapAuthPassKeyReply
 4767              	.LVL620:
2216:.\BLEApplication.c ****             {
 4768              		.loc 1 2216 0
 4769 01b0 0128     		cmp	r0, #1
 4770 01b2 01D1     		bne	.L525
2218:.\BLEApplication.c ****             }
 4771              		.loc 1 2218 0
 4772 01b4 3248     		ldr	r0, .L545+64
 4773              	.LVL621:
 4774 01b6 3BE0     		b	.L542
 4775              	.LVL622:
 4776              	.L525:
ARM GAS  C:\Users\Helon\AppData\Local\Temp\ccKCxrf8.s 			page 146


2220:.\BLEApplication.c ****             {
 4777              		.loc 1 2220 0
 4778 01b8 0328     		cmp	r0, #3
 4779 01ba 01D1     		bne	.L527
2222:.\BLEApplication.c ****             }
 4780              		.loc 1 2222 0
 4781 01bc 3148     		ldr	r0, .L545+68
 4782              	.LVL623:
 4783 01be 37E0     		b	.L542
 4784              	.LVL624:
 4785              	.L527:
2224:.\BLEApplication.c ****             {
 4786              		.loc 1 2224 0
 4787 01c0 0728     		cmp	r0, #7
 4788 01c2 01D1     		bne	.L528
2226:.\BLEApplication.c ****             }
 4789              		.loc 1 2226 0
 4790 01c4 3048     		ldr	r0, .L545+72
 4791              	.LVL625:
 4792 01c6 33E0     		b	.L542
 4793              	.LVL626:
 4794              	.L528:
2228:.\BLEApplication.c ****             {
 4795              		.loc 1 2228 0
 4796 01c8 0028     		cmp	r0, #0
 4797 01ca 33D1     		bne	.L514
2230:.\BLEApplication.c ****             }
 4798              		.loc 1 2230 0
 4799 01cc 2F48     		ldr	r0, .L545+76
 4800              	.LVL627:
 4801 01ce 2FE0     		b	.L542
 4802              	.LVL628:
 4803              	.L520:
2235:.\BLEApplication.c ****             if('\n'!=Uart_Char)
 4804              		.loc 1 2235 0
 4805 01d0 FFF7FEFF 		bl	UART_UartGetByte
 4806              	.LVL629:
 4807 01d4 C0B2     		uxtb	r0, r0
 4808              	.LVL630:
 4809 01d6 737F     		ldrb	r3, [r6, #29]
2236:.\BLEApplication.c ****             {
 4810              		.loc 1 2236 0
 4811 01d8 0A28     		cmp	r0, #10
 4812 01da 04D0     		beq	.L530
2245:.\BLEApplication.c ****                     Buffer_Length++;
 4813              		.loc 1 2245 0
 4814 01dc 2C4A     		ldr	r2, .L545+80
 4815 01de D054     		strb	r0, [r2, r3]
2246:.\BLEApplication.c ****     //            }                      
 4816              		.loc 1 2246 0
 4817 01e0 0133     		add	r3, r3, #1
 4818 01e2 7377     		strb	r3, [r6, #29]
 4819 01e4 26E0     		b	.L514
 4820              	.L530:
2251:.\BLEApplication.c ****                 RxFlag=OVER;
 4821              		.loc 1 2251 0
 4822 01e6 1A4A     		ldr	r2, .L545+16
ARM GAS  C:\Users\Helon\AppData\Local\Temp\ccKCxrf8.s 			page 147


 4823 01e8 2281     		strh	r2, [r4, #8]
2252:.\BLEApplication.c ****             //‰∏≤Âè£Êé•Êî∂ÁöÑÊï∞ÊçÆÈïøÂ∫¶Ê∏ÖÈõ∂,‰ª•‰æø‰∏ã‰∏ÄÊù°ÂëΩ‰ª§ËøáÊù•Êó∂ËøòÊòØÂ≠òÊîæÂú®Êï∞ÁªÑ
 4824              		.loc 1 2252 0
 4825 01ea 224A     		ldr	r2, .L545+52
 4826 01ec 1570     		strb	r5, [r2]
2254:.\BLEApplication.c ****                 Parser_UartData((char*)RX_BUFFER);
 4827              		.loc 1 2254 0
 4828 01ee 284A     		ldr	r2, .L545+80
 4829 01f0 D054     		strb	r0, [r2, r3]
2255:.\BLEApplication.c ****                 Buffer_Length=0;
 4830              		.loc 1 2255 0
 4831 01f2 101C     		mov	r0, r2
 4832              	.LVL631:
 4833 01f4 FFF7FEFF 		bl	Parser_UartData
 4834              	.LVL632:
2257:.\BLEApplication.c ****     //            if(CommandMode==THROUGHT_MODE)
 4835              		.loc 1 2257 0
 4836 01f8 291C     		mov	r1, r5
 4837 01fa 3022     		mov	r2, #48
 4838 01fc 2448     		ldr	r0, .L545+80
2256:.\BLEApplication.c ****                 memset(RX_BUFFER,0,sizeof(RX_BUFFER));
 4839              		.loc 1 2256 0
 4840 01fe 7577     		strb	r5, [r6, #29]
2257:.\BLEApplication.c ****     //            if(CommandMode==THROUGHT_MODE)
 4841              		.loc 1 2257 0
 4842 0200 FFF7FEFF 		bl	memset
 4843              	.LVL633:
 4844 0204 16E0     		b	.L514
 4845              	.LVL634:
 4846              	.L503:
2278:.\BLEApplication.c ****         {
 4847              		.loc 1 2278 0
 4848 0206 331C     		mov	r3, r6
 4849 0208 5733     		add	r3, r3, #87
 4850 020a 1A78     		ldrb	r2, [r3]
 4851 020c 002A     		cmp	r2, #0
 4852 020e 11D0     		beq	.L514
2280:.\BLEApplication.c ****             {
 4853              		.loc 1 2280 0
 4854 0210 2189     		ldrh	r1, [r4, #8]
 4855 0212 0139     		sub	r1, r1, #1
 4856 0214 89B2     		uxth	r1, r1
 4857 0216 2181     		strh	r1, [r4, #8]
 4858 0218 0029     		cmp	r1, #0
 4859 021a 0BD1     		bne	.L514
2285:.\BLEApplication.c ****                 printf("AT+ERR=7\r\n");//ATÂëΩ‰ª§Ê≤°ÊúâÂõûËΩ¶Êç¢Ë°å
 4860              		.loc 1 2285 0
 4861 021c 301C     		mov	r0, r6
2282:.\BLEApplication.c ****                 uartIdleCount=UART_IDLE_TIMEOUT;
 4862              		.loc 1 2282 0
 4863 021e 1970     		strb	r1, [r3]
2283:.\BLEApplication.c ****                 Buffer_Length=0;
 4864              		.loc 1 2283 0
 4865 0220 0B4B     		ldr	r3, .L545+16
2285:.\BLEApplication.c ****                 printf("AT+ERR=7\r\n");//ATÂëΩ‰ª§Ê≤°ÊúâÂõûËΩ¶Êç¢Ë°å
 4866              		.loc 1 2285 0
 4867 0222 1E30     		add	r0, r0, #30
ARM GAS  C:\Users\Helon\AppData\Local\Temp\ccKCxrf8.s 			page 148


 4868 0224 3022     		mov	r2, #48
2283:.\BLEApplication.c ****                 Buffer_Length=0;
 4869              		.loc 1 2283 0
 4870 0226 2381     		strh	r3, [r4, #8]
2284:.\BLEApplication.c ****                 memset(RX_BUFFER,0,sizeof(RX_BUFFER));
 4871              		.loc 1 2284 0
 4872 0228 7177     		strb	r1, [r6, #29]
2285:.\BLEApplication.c ****                 printf("AT+ERR=7\r\n");//ATÂëΩ‰ª§Ê≤°ÊúâÂõûËΩ¶Êç¢Ë°å
 4873              		.loc 1 2285 0
 4874 022a FFF7FEFF 		bl	memset
 4875              	.LVL635:
2286:.\BLEApplication.c ****                 /*uartTxDataLength remains unchanged */;
 4876              		.loc 1 2286 0
 4877 022e 1948     		ldr	r0, .L545+84
 4878              	.LVL636:
 4879              	.L542:
 4880 0230 FFF7FEFF 		bl	puts
 4881              	.LVL637:
 4882              	.L514:
2148:.\BLEApplication.c ****             }  
 4883              		.loc 1 2148 0
 4884 0234 FB68     		ldr	r3, [r7, #12]
 4885 0236 9D46     		mov	sp, r3
 4886              	.LVL638:
2291:.\BLEApplication.c **** 
 4887              		.loc 1 2291 0
 4888 0238 BD46     		mov	sp, r7
 4889 023a 0BB0     		add	sp, sp, #44
 4890              		@ sp needed
 4891              	.LVL639:
 4892 023c F0BD     		pop	{r4, r5, r6, r7, pc}
 4893              	.L546:
 4894 023e C046     		.align	2
 4895              	.L545:
 4896 0240 80000000 		.word	.LANCHOR2
 4897 0244 00000000 		.word	.LANCHOR0
 4898 0248 FF010000 		.word	511
 4899 024c C80F2440 		.word	1076105160
 4900 0250 581B0000 		.word	7000
 4901 0254 11050000 		.word	.LC254
 4902 0258 00000000 		.word	writeRequestData
 4903 025c 00000000 		.word	cyBle_connHandle
 4904 0260 89000000 		.word	.LC22
 4905 0264 1D050000 		.word	.LC259
 4906 0268 74000000 		.word	.LC20
 4907 026c 00000000 		.word	cyBle_busyStatus
 4908 0270 00000000 		.word	cyBle_state
 4909 0274 57000000 		.word	.LANCHOR0+87
 4910 0278 A0860100 		.word	100000
 4911 027c 29050000 		.word	.LC264
 4912 0280 3B050000 		.word	.LC266
 4913 0284 5B050000 		.word	.LC268
 4914 0288 81050000 		.word	.LC270
 4915 028c 9F050000 		.word	.LC272
 4916 0290 1E000000 		.word	.LANCHOR0+30
 4917 0294 B5050000 		.word	.LC274
 4918              		.cfi_endproc
ARM GAS  C:\Users\Helon\AppData\Local\Temp\ccKCxrf8.s 			page 149


 4919              	.LFE48:
 4920              		.size	Master_Slave_UartHandler, .-Master_Slave_UartHandler
 4921              		.section	.text._write,"ax",%progbits
 4922              		.align	1
 4923              		.global	_write
 4924              		.code	16
 4925              		.thumb_func
 4926              		.type	_write, %function
 4927              	_write:
 4928              	.LFB53:
2772:.\BLEApplication.c **** /******************************************************************************
2773:.\BLEApplication.c **** * Function Name: PrintfÂáΩÊï∞ÈáçÊò†Â∞Ñ
2774:.\BLEApplication.c **** ***************************************************************************//**
2775:.\BLEApplication.c **** * 
2776:.\BLEApplication.c **** *  ÈáçÂÜô_write()ÂáΩÊï∞Ôºå‰∏∫‰∫Ü‰ΩøËÉΩPrintfÂáΩÊï∞ÊâìÂç∞‰∏≤Âè£‰ø°ÊÅØ
2777:.\BLEApplication.c **** * 
2778:.\BLEApplication.c **** * \return
2779:.\BLEApplication.c **** *  None
2780:.\BLEApplication.c **** * 
2781:.\BLEApplication.c **** ******************************************************************************/
2782:.\BLEApplication.c **** #if defined(__ARMCC_VERSION)
2783:.\BLEApplication.c **** /* For MDK/RVDS compiler revise fputc function for printf functionality */
2784:.\BLEApplication.c **** struct __FILE
2785:.\BLEApplication.c **** {
2786:.\BLEApplication.c ****     int handle;
2787:.\BLEApplication.c **** };
2788:.\BLEApplication.c **** enum
2789:.\BLEApplication.c **** {
2790:.\BLEApplication.c ****     STDIN_HANDLE,
2791:.\BLEApplication.c ****     STDOUT_HANDLE,
2792:.\BLEApplication.c ****     STDERR_HANDLE
2793:.\BLEApplication.c **** };
2794:.\BLEApplication.c **** FILE __stdin = {STDIN_HANDLE};
2795:.\BLEApplication.c **** FILE __stdout = {STDOUT_HANDLE};
2796:.\BLEApplication.c **** FILE __stderr = {STDERR_HANDLE};
2797:.\BLEApplication.c **** int fputc(int ch, FILE *file)
2798:.\BLEApplication.c **** {
2799:.\BLEApplication.c ****     int ret = EOF;
2800:.\BLEApplication.c ****     switch( file->handle )
2801:.\BLEApplication.c ****     {
2802:.\BLEApplication.c ****         case STDOUT_HANDLE:
2803:.\BLEApplication.c ****             UART_DEB_UartPutChar(ch);
2804:.\BLEApplication.c ****             ret = ch ;
2805:.\BLEApplication.c ****             break ;
2806:.\BLEApplication.c ****         case STDERR_HANDLE:
2807:.\BLEApplication.c ****             ret = ch ;
2808:.\BLEApplication.c ****             break ;
2809:.\BLEApplication.c ****         default:
2810:.\BLEApplication.c ****             file = file;
2811:.\BLEApplication.c ****             break ;
2812:.\BLEApplication.c ****     }
2813:.\BLEApplication.c ****     return ret ;
2814:.\BLEApplication.c **** }
2815:.\BLEApplication.c **** #elif defined (__ICCARM__)      /* IAR */
2816:.\BLEApplication.c **** /* For IAR compiler revise __write() function for printf functionality */
2817:.\BLEApplication.c **** size_t __write(int handle, const unsigned char * buffer, size_t size)
2818:.\BLEApplication.c **** {
ARM GAS  C:\Users\Helon\AppData\Local\Temp\ccKCxrf8.s 			page 150


2819:.\BLEApplication.c ****     size_t nChars = 0;
2820:.\BLEApplication.c ****     if (buffer == 0)
2821:.\BLEApplication.c ****     {
2822:.\BLEApplication.c ****         /*
2823:.\BLEApplication.c ****          * This means that we should flush internal buffers.  Since we
2824:.\BLEApplication.c ****          * don't we just return.  (Remember, "handle" == -1 means that all
2825:.\BLEApplication.c ****          * handles should be flushed.)
2826:.\BLEApplication.c ****          */
2827:.\BLEApplication.c ****         return (0);
2828:.\BLEApplication.c ****     }
2829:.\BLEApplication.c ****     for (/* Empty */; size != 0; --size)
2830:.\BLEApplication.c ****     {
2831:.\BLEApplication.c ****         UART_DEB_UartPutChar(*buffer++);
2832:.\BLEApplication.c ****         ++nChars;
2833:.\BLEApplication.c ****     }
2834:.\BLEApplication.c ****     return (nChars);
2835:.\BLEApplication.c **** }
2836:.\BLEApplication.c **** #else  /* (__GNUC__)  GCC */
2837:.\BLEApplication.c **** /* For GCC compiler revise _write() function for printf functionality */
2838:.\BLEApplication.c **** int _write(int file, char *ptr, int len)
2839:.\BLEApplication.c **** {
 4929              		.loc 1 2839 0
 4930              		.cfi_startproc
 4931              	.LVL640:
 4932 0000 70B5     		push	{r4, r5, r6, lr}
 4933              		.cfi_def_cfa_offset 16
 4934              		.cfi_offset 4, -16
 4935              		.cfi_offset 5, -12
 4936              		.cfi_offset 6, -8
 4937              		.cfi_offset 14, -4
 4938              		.loc 1 2839 0
 4939 0002 0E1C     		mov	r6, r1
 4940 0004 151C     		mov	r5, r2
2840:.\BLEApplication.c ****     int i;
2841:.\BLEApplication.c ****     file = file;
2842:.\BLEApplication.c ****     for (i = 0; i < len; i++)
 4941              		.loc 1 2842 0
 4942 0006 0C1C     		mov	r4, r1
 4943              	.LVL641:
 4944              	.L548:
 4945 0008 A31B     		sub	r3, r4, r6
 4946              		.loc 1 2842 0 is_stmt 0 discriminator 1
 4947 000a AB42     		cmp	r3, r5
 4948 000c 04DA     		bge	.L550
 4949              	.LVL642:
2843:.\BLEApplication.c ****     {
2844:.\BLEApplication.c ****         UART_UartPutChar(*ptr++);//ËøôÈáåÊõø‰ª£ÊàêUARTÁöÑÂèëÈÄÅÂçïÂ≠óËäÇÁöÑÂáΩÊï∞Âç≥ÂèØ
 4950              		.loc 1 2844 0 is_stmt 1 discriminator 3
 4951 000e 2078     		ldrb	r0, [r4]
 4952 0010 FFF7FEFF 		bl	UART_SpiUartWriteTxData
 4953              	.LVL643:
 4954 0014 0134     		add	r4, r4, #1
 4955              	.LVL644:
 4956 0016 F7E7     		b	.L548
 4957              	.L550:
2845:.\BLEApplication.c ****     }
2846:.\BLEApplication.c ****     return len;
ARM GAS  C:\Users\Helon\AppData\Local\Temp\ccKCxrf8.s 			page 151


2847:.\BLEApplication.c **** }
 4958              		.loc 1 2847 0
 4959 0018 281C     		mov	r0, r5
 4960              		@ sp needed
 4961              	.LVL645:
 4962              	.LVL646:
 4963 001a 70BD     		pop	{r4, r5, r6, pc}
 4964              		.cfi_endproc
 4965              	.LFE53:
 4966              		.size	_write, .-_write
 4967              		.global	Baud_rate_idx
 4968              		.global	STOP_SCAN_FLAG
 4969              		.global	StringArry
 4970              		.global	readRequestData
 4971              		.comm	writeRequestData,12,4
 4972              		.global	connParam
 4973              		.global	cccdNotifFlagSetStruct
 4974              		.global	cccdNotifEnabledValue
 4975              		.global	_10sIsOver
 4976              		.comm	DeviceAddr,7,1
 4977              		.global	clearAllDevices
 4978              		.global	Bond
 4979              		.global	SleepMode
 4980              		.global	AUTHFLAG
 4981              		.global	KEYBOARD
 4982              		.comm	ConnParam,8,2
 4983              		.global	iocapability
 4984              		.global	testCount
 4985              		.global	CommandMode
 4986              		.global	negotiatedMtu
 4987              		.comm	buffer,20,1
 4988              		.global	Role
 4989              		.global	totalByteCounter
 4990              		.global	charNotificationEnabled
 4991              		.global	TroughtTest_Flag
 4992              		.global	MTU_REQ_FLAG
 4993              		.global	Conn_or_Disconn_Idx
 4994              		.comm	Conn_Or_Disconn_Info,37,1
 4995              		.global	RxFlag
 4996              		.global	rx_isover
 4997              		.global	Buffer_Length
 4998              		.global	RX_BUFFER
 4999              		.global	LowPower_EN
 5000              		.comm	configUart,112,4
 5001              		.section	.rodata.str1.1,"aMS",%progbits,1
 5002              	.LC0:
 5003 0000 424C4520 		.ascii	"BLE is Ready\015\000"
 5003      69732052 
 5003      65616479 
 5003      0D00
 5004              	.LC3:
 5005 000e 2B534341 		.ascii	"+SCAN_STOP\015\000"
 5005      4E5F5354 
 5005      4F500D00 
 5006              	.LC5:
 5007 001a 2B534341 		.ascii	"+SCAN_CMP\015\000"
 5007      4E5F434D 
ARM GAS  C:\Users\Helon\AppData\Local\Temp\ccKCxrf8.s 			page 152


 5007      500D00
 5008              	.LC9:
 5009 0025 2B434F4E 		.ascii	"+CONN_EVT=OK\015\000"
 5009      4E5F4556 
 5009      543D4F4B 
 5009      0D00
 5010              	.LC13:
 5011 0033 2B434F4E 		.ascii	"+CONN_EVT=%d,OK\015\012\000"
 5011      4E5F4556 
 5011      543D2564 
 5011      2C4F4B0D 
 5011      0A00
 5012              	.LC16:
 5013 0045 2B444953 		.ascii	"+DISCONN_EVT=0x%02X\015\012\000"
 5013      434F4E4E 
 5013      5F455654 
 5013      3D307825 
 5013      3032580D 
 5014              	.LC18:
 5015 005b 2B444953 		.ascii	"+DISCONN_EVT=%d,0x%02X\015\012\000"
 5015      434F4E4E 
 5015      5F455654 
 5015      3D25642C 
 5015      30782530 
 5016              	.LC20:
 5017 0074 2B4D4F44 		.ascii	"+MODE=THROUGHT_MODE\015\000"
 5017      453D5448 
 5017      524F5547 
 5017      48545F4D 
 5017      4F44450D 
 5018              	.LC22:
 5019 0089 2B4D4F44 		.ascii	"+MODE=AT_COMMAND_MODE\015\000"
 5019      453D4154 
 5019      5F434F4D 
 5019      4D414E44 
 5019      5F4D4F44 
 5020              	.LC24:
 5021 00a0 2B444953 		.ascii	"+DIS_EVT=0x%02X%02X,0x%02X%02X\015\012\000"
 5021      5F455654 
 5021      3D307825 
 5021      30325825 
 5021      3032582C 
 5022              	.LC27:
 5023 00c1 2B415554 		.ascii	"+AUTHKEY=0\000"
 5023      484B4559 
 5023      3D3000
 5024              	.LC29:
 5025 00cc 256C750D 		.ascii	"%lu\015\012\000"
 5025      0A00
 5026              	.LC31:
 5027 00d2 2B415554 		.ascii	"+AUTHKEY=%lu\015\012\000"
 5027      484B4559 
 5027      3D256C75 
 5027      0D0A00
 5028              	.LC33:
 5029 00e1 506C6561 		.ascii	"Please Input PassKey:\015\000"
 5029      73652049 
ARM GAS  C:\Users\Helon\AppData\Local\Temp\ccKCxrf8.s 			page 153


 5029      6E707574 
 5029      20506173 
 5029      734B6579 
 5030              	.LC35:
 5031 00f8 41542B41 		.ascii	"AT+AUTHERR=%d\015\012\000"
 5031      55544845 
 5031      52523D25 
 5031      640D0A00 
 5032              	.LC43:
 5033 0108 53656E64 		.ascii	"Send Compelete!\015\000"
 5033      20436F6D 
 5033      70656C65 
 5033      7465210D 
 5033      00
 5034              	.LC53:
 5035 0119 41540D0A 		.ascii	"AT\015\012\000"
 5035      00
 5036              	.LC58:
 5037 011e 53656E64 		.ascii	"SendNotification is %d\015\012\000"
 5037      4E6F7469 
 5037      66696361 
 5037      74696F6E 
 5037      20697320 
 5038              	.LC64:
 5039 0137 41542B45 		.ascii	"AT+ERR=%d,0x%02X\015\012\000"
 5039      52523D25 
 5039      642C3078 
 5039      25303258 
 5039      0D0A00
 5040              	.LC67:
 5041 014a 41542B4F 		.ascii	"AT+OK\015\000"
 5041      4B0D00
 5042              	.LC73:
 5043 0151 2B494E51 		.ascii	"+INQ_CONN=%d,%02X%02X%02X%02X%02X%02X\015\012\000"
 5043      5F434F4E 
 5043      4E3D2564 
 5043      2C253032 
 5043      58253032 
 5044              	.LC75:
 5045 0179 41542B45 		.ascii	"AT+ERR=3\015\000"
 5045      52523D33 
 5045      0D00
 5046              	.LC77:
 5047 0183 41542B45 		.ascii	"AT+ERR=4\015\000"
 5047      52523D34 
 5047      0D00
 5048              	.LC80:
 5049 018d 41542B42 		.ascii	"AT+BAUD=<1200>\015\000"
 5049      4155443D 
 5049      3C313230 
 5049      303E0D00 
 5050              	.LC82:
 5051 019d 4F4B0D00 		.ascii	"OK\015\000"
 5052              	.LC85:
 5053 01a1 41542B42 		.ascii	"AT+BAUD=<2400>\015\000"
 5053      4155443D 
 5053      3C323430 
ARM GAS  C:\Users\Helon\AppData\Local\Temp\ccKCxrf8.s 			page 154


 5053      303E0D00 
 5054              	.LC87:
 5055 01b1 41542B42 		.ascii	"AT+BAUD=<4800>\015\000"
 5055      4155443D 
 5055      3C343830 
 5055      303E0D00 
 5056              	.LC89:
 5057 01c1 41542B42 		.ascii	"AT+BAUD=<9600>\015\000"
 5057      4155443D 
 5057      3C393630 
 5057      303E0D00 
 5058              	.LC91:
 5059 01d1 41542B42 		.ascii	"AT+BAUD=<19200>\015\000"
 5059      4155443D 
 5059      3C313932 
 5059      30303E0D 
 5059      00
 5060              	.LC93:
 5061 01e2 41542B42 		.ascii	"AT+BAUD=<38400>\015\000"
 5061      4155443D 
 5061      3C333834 
 5061      30303E0D 
 5061      00
 5062              	.LC95:
 5063 01f3 41542B42 		.ascii	"AT+BAUD=<57600>\015\000"
 5063      4155443D 
 5063      3C353736 
 5063      30303E0D 
 5063      00
 5064              	.LC97:
 5065 0204 41542B42 		.ascii	"AT+BAUD=<115200>\015\000"
 5065      4155443D 
 5065      3C313135 
 5065      3230303E 
 5065      0D00
 5066              	.LC99:
 5067 0216 41542B42 		.ascii	"AT+BAUD=<230400>\015\000"
 5067      4155443D 
 5067      3C323330 
 5067      3430303E 
 5067      0D00
 5068              	.LC101:
 5069 0228 41542B42 		.ascii	"AT+BAUD=<460800>\015\000"
 5069      4155443D 
 5069      3C343630 
 5069      3830303E 
 5069      0D00
 5070              	.LC103:
 5071 023a 41542B42 		.ascii	"AT+BAUD=<921600>\015\000"
 5071      4155443D 
 5071      3C393231 
 5071      3630303E 
 5071      0D00
 5072              	.LC105:
 5073 024c 2B424155 		.ascii	"+BAUD:<1200>\015\000"
 5073      443A3C31 
 5073      3230303E 
ARM GAS  C:\Users\Helon\AppData\Local\Temp\ccKCxrf8.s 			page 155


 5073      0D00
 5074              	.LC107:
 5075 025a 2B424155 		.ascii	"+BAUD:<2400>\015\000"
 5075      443A3C32 
 5075      3430303E 
 5075      0D00
 5076              	.LC109:
 5077 0268 2B424155 		.ascii	"+BAUD:<4800>\015\000"
 5077      443A3C34 
 5077      3830303E 
 5077      0D00
 5078              	.LC111:
 5079 0276 2B424155 		.ascii	"+BAUD:<9600>\015\000"
 5079      443A3C39 
 5079      3630303E 
 5079      0D00
 5080              	.LC113:
 5081 0284 2B424155 		.ascii	"+BAUD:<19200>\015\000"
 5081      443A3C31 
 5081      39323030 
 5081      3E0D00
 5082              	.LC115:
 5083 0293 2B424155 		.ascii	"+BAUD:<38400>\015\000"
 5083      443A3C33 
 5083      38343030 
 5083      3E0D00
 5084              	.LC117:
 5085 02a2 2B424155 		.ascii	"+BAUD:<57600>\015\000"
 5085      443A3C35 
 5085      37363030 
 5085      3E0D00
 5086              	.LC119:
 5087 02b1 2B424155 		.ascii	"+BAUD:<115200>\015\000"
 5087      443A3C31 
 5087      31353230 
 5087      303E0D00 
 5088              	.LC121:
 5089 02c1 2B424155 		.ascii	"+BAUD:<230400>\015\000"
 5089      443A3C32 
 5089      33303430 
 5089      303E0D00 
 5090              	.LC123:
 5091 02d1 2B424155 		.ascii	"+BAUD:<460800>\015\000"
 5091      443A3C34 
 5091      36303830 
 5091      303E0D00 
 5092              	.LC125:
 5093 02e1 2B424155 		.ascii	"+BAUD:<921600>\015\000"
 5093      443A3C39 
 5093      32313630 
 5093      303E0D00 
 5094              	.LC128:
 5095 02f1 41542B45 		.ascii	"AT+ERR=8\015\000"
 5095      52523D38 
 5095      0D00
 5096              	.LC130:
 5097 02fb 2B545850 		.ascii	"+TXP=1\015\000"
ARM GAS  C:\Users\Helon\AppData\Local\Temp\ccKCxrf8.s 			page 156


 5097      3D310D00 
 5098              	.LC132:
 5099 0303 2B545850 		.ascii	"+TXP=2\015\000"
 5099      3D320D00 
 5100              	.LC134:
 5101 030b 2B545850 		.ascii	"+TXP=3\015\000"
 5101      3D330D00 
 5102              	.LC136:
 5103 0313 2B545850 		.ascii	"+TXP=4\015\000"
 5103      3D340D00 
 5104              	.LC138:
 5105 031b 2B545850 		.ascii	"+TXP=5\015\000"
 5105      3D350D00 
 5106              	.LC140:
 5107 0323 2B545850 		.ascii	"+TXP=6\015\000"
 5107      3D360D00 
 5108              	.LC142:
 5109 032b 2B545850 		.ascii	"+TXP=7\015\000"
 5109      3D370D00 
 5110              	.LC144:
 5111 0333 2B545850 		.ascii	"+TXP=8\015\000"
 5111      3D380D00 
 5112              	.LC147:
 5113 033b 41542B45 		.ascii	"AT+ERR=5\015\000"
 5113      52523D35 
 5113      0D00
 5114              	.LC155:
 5115 0345 2B564552 		.ascii	"+VERSION=CY-B01_V1.1.1\015\000"
 5115      53494F4E 
 5115      3D43592D 
 5115      4230315F 
 5115      56312E31 
 5116              	.LC158:
 5117 035d 2B4C4144 		.ascii	"+LADDR=%02X%02X%02X%02X%02X%02X\015\012\000"
 5117      44523D25 
 5117      30325825 
 5117      30325825 
 5117      30325825 
 5118              	.LC161:
 5119 037f 2B4E414D 		.ascii	"+NAME=%s\015\012\000"
 5119      453D2573 
 5119      0D0A00
 5120              	.LC163:
 5121 038a 41542B45 		.ascii	"AT+ERR=6\015\000"
 5121      52523D36 
 5121      0D00
 5122              	.LC166:
 5123 0394 41542B45 		.ascii	"AT+ERR=2\015\000"
 5123      52523D32 
 5123      0D00
 5124              	.LC170:
 5125 039e 41542B45 		.ascii	"AT+ERR=9\015\000"
 5125      52523D39 
 5125      0D00
 5126              	.LC173:
 5127 03a8 2B414456 		.ascii	"+ADVD=\000"
 5127      443D00
ARM GAS  C:\Users\Helon\AppData\Local\Temp\ccKCxrf8.s 			page 157


 5128              	.LC175:
 5129 03af 25303258 		.ascii	"%02X\000"
 5129      00
 5130              	.LC177:
 5131 03b4 0D00     		.ascii	"\015\000"
 5132              	.LC179:
 5133 03b6 2B414456 		.ascii	"+ADVI=%hdms,%hdms,%hus\015\012\000"
 5133      493D2568 
 5133      646D732C 
 5133      2568646D 
 5133      732C2568 
 5134              	.LC181:
 5135 03cf 2B434F4E 		.ascii	"+CONNI=%04X,%04X,%04X\015\012\000"
 5135      4E493D25 
 5135      3034582C 
 5135      25303458 
 5135      2C253034 
 5136              	.LC186:
 5137 03e7 2B524F4C 		.ascii	"+ROLE=0\015\000"
 5137      453D300D 
 5137      00
 5138              	.LC188:
 5139 03f0 2B524F4C 		.ascii	"+ROLE=1\015\000"
 5139      453D310D 
 5139      00
 5140              	.LC191:
 5141 03f9 41542B45 		.ascii	"AT+ERR=10\015\000"
 5141      52523D31 
 5141      300D00
 5142              	.LC193:
 5143 0404 2B494E51 		.ascii	"+INQ_SCAN=%d,%02X%02X%02X%02X%02X%02X\015\012\000"
 5143      5F534341 
 5143      4E3D2564 
 5143      2C253032 
 5143      58253032 
 5144              	.LC197:
 5145 042c 41542B45 		.ascii	"AT+ERR=0x%02X\015\012\000"
 5145      52523D30 
 5145      78253032 
 5145      580D0A00 
 5146              	.LC199:
 5147 043c 2B525353 		.ascii	"+RSSI=%ddbm\015\012\000"
 5147      493D2564 
 5147      64626D0D 
 5147      0A00
 5148              	.LC201:
 5149 044a 256C640D 		.ascii	"%ld\015\012\000"
 5149      0A00
 5150              	.LC206:
 5151 0450 2B535441 		.ascii	"+STAUS=0\015\000"
 5151      55533D30 
 5151      0D00
 5152              	.LC208:
 5153 045a 2B535441 		.ascii	"+STAUS=1\015\000"
 5153      55533D31 
 5153      0D00
 5154              	.LC210:
ARM GAS  C:\Users\Helon\AppData\Local\Temp\ccKCxrf8.s 			page 158


 5155 0464 2B535441 		.ascii	"+STAUS=2\015\000"
 5155      55533D32 
 5155      0D00
 5156              	.LC212:
 5157 046e 2B535441 		.ascii	"+STAUS=3\015\000"
 5157      55533D33 
 5157      0D00
 5158              	.LC214:
 5159 0478 2B535441 		.ascii	"+STAUS=4\015\000"
 5159      55533D34 
 5159      0D00
 5160              	.LC216:
 5161 0482 2B535441 		.ascii	"+STAUS=5\015\000"
 5161      55533D35 
 5161      0D00
 5162              	.LC218:
 5163 048c 2B535441 		.ascii	"+STAUS=6\015\000"
 5163      55533D36 
 5163      0D00
 5164              	.LC220:
 5165 0496 2B494F43 		.ascii	"+IOCAP=0\015\000"
 5165      41503D30 
 5165      0D00
 5166              	.LC222:
 5167 04a0 2B494F43 		.ascii	"+IOCAP=1\015\000"
 5167      41503D31 
 5167      0D00
 5168              	.LC224:
 5169 04aa 2B494F43 		.ascii	"+IOCAP=2\015\000"
 5169      41503D32 
 5169      0D00
 5170              	.LC226:
 5171 04b4 2B494F43 		.ascii	"+IOCAP=3\015\000"
 5171      41503D33 
 5171      0D00
 5172              	.LC228:
 5173 04be 2B494F43 		.ascii	"+IOCAP=4\015\000"
 5173      41503D34 
 5173      0D00
 5174              	.LC230:
 5175 04c8 2B415554 		.ascii	"+AUTH=1\015\000"
 5175      483D310D 
 5175      00
 5176              	.LC232:
 5177 04d1 2B415554 		.ascii	"+AUTH=0\015\000"
 5177      483D300D 
 5177      00
 5178              	.LC235:
 5179 04da 2B534C45 		.ascii	"+SLEEPMODE=1\015\000"
 5179      45504D4F 
 5179      44453D31 
 5179      0D00
 5180              	.LC237:
 5181 04e8 2B534C45 		.ascii	"+SLEEPMODE=0\015\000"
 5181      45504D4F 
 5181      44453D30 
 5181      0D00
ARM GAS  C:\Users\Helon\AppData\Local\Temp\ccKCxrf8.s 			page 159


 5182              	.LC239:
 5183 04f6 2B424F4E 		.ascii	"+BOND=0\015\000"
 5183      443D300D 
 5183      00
 5184              	.LC241:
 5185 04ff 2B424F4E 		.ascii	"+BOND=2\015\000"
 5185      443D320D 
 5185      00
 5186              	.LC243:
 5187 0508 2B424F4E 		.ascii	"+BOND=1\015\000"
 5187      443D310D 
 5187      00
 5188              	.LC254:
 5189 0511 41542B4E 		.ascii	"AT+NOTIFY=0\000"
 5189      4F544946 
 5189      593D3000 
 5190              	.LC259:
 5191 051d 41542B4E 		.ascii	"AT+NOTIFY=?\000"
 5191      4F544946 
 5191      593D3F00 
 5192              	.LC264:
 5193 0529 2B415554 		.ascii	"+AUTHKEY=INVALID\015\000"
 5193      484B4559 
 5193      3D494E56 
 5193      414C4944 
 5193      0D00
 5194              	.LC266:
 5195 053b 4359424C 		.ascii	"CYBLE_ERROR_INVALID_PARAMETER \015\000"
 5195      455F4552 
 5195      524F525F 
 5195      494E5641 
 5195      4C49445F 
 5196              	.LC268:
 5197 055b 4359424C 		.ascii	"CYBLE_ERROR_MEMORY_ALLOCATION_FAILED\015\000"
 5197      455F4552 
 5197      524F525F 
 5197      4D454D4F 
 5197      52595F41 
 5198              	.LC270:
 5199 0581 4359424C 		.ascii	"CYBLE_ERROR_NO_DEVICE_ENTITY\015\000"
 5199      455F4552 
 5199      524F525F 
 5199      4E4F5F44 
 5199      45564943 
 5200              	.LC272:
 5201 059f 2B415554 		.ascii	"+AUTHKEY=SUCCESFULLY\015\000"
 5201      484B4559 
 5201      3D535543 
 5201      43455346 
 5201      554C4C59 
 5202              	.LC274:
 5203 05b5 41542B45 		.ascii	"AT+ERR=7\015\000"
 5203      52523D37 
 5203      0D00
 5204              	.LC282:
 5205 05bf 41542B52 		.ascii	"AT+RESET\000"
 5205      45534554 
ARM GAS  C:\Users\Helon\AppData\Local\Temp\ccKCxrf8.s 			page 160


 5205      00
 5206              	.LC283:
 5207 05c8 41542B52 		.ascii	"AT+REFAC\000"
 5207      45464143 
 5207      00
 5208              	.LC284:
 5209 05d1 41542B56 		.ascii	"AT+VERSION\000"
 5209      45525349 
 5209      4F4E00
 5210              	.LC285:
 5211 05dc 41542B42 		.ascii	"AT+BAUD\000"
 5211      41554400 
 5212              	.LC286:
 5213 05e4 41542B4C 		.ascii	"AT+LADDR\000"
 5213      41444452 
 5213      00
 5214              	.LC287:
 5215 05ed 41542B4E 		.ascii	"AT+NAME\000"
 5215      414D4500 
 5216              	.LC288:
 5217 05f5 41542B43 		.ascii	"AT+CPIN\000"
 5217      50494E00 
 5218              	.LC289:
 5219 05fd 41542B54 		.ascii	"AT+TXP\000"
 5219      585000
 5220              	.LC290:
 5221 0604 41542B41 		.ascii	"AT+ADVD\000"
 5221      44564400 
 5222              	.LC291:
 5223 060c 41542B41 		.ascii	"AT+ADVI\000"
 5223      44564900 
 5224              	.LC292:
 5225 0614 41542B43 		.ascii	"AT+CONNI\000"
 5225      4F4E4E49 
 5225      00
 5226              	.LC293:
 5227 061d 41542B52 		.ascii	"AT+ROLE\000"
 5227      4F4C4500 
 5228              	.LC294:
 5229 0625 41542B53 		.ascii	"AT+SCAN\000"
 5229      43414E00 
 5230              	.LC295:
 5231 062d 41542B43 		.ascii	"AT+CONNT\000"
 5231      4F4E4E54 
 5231      00
 5232              	.LC296:
 5233 0636 41542B44 		.ascii	"AT+DISCONN\000"
 5233      4953434F 
 5233      4E4E00
 5234              	.LC297:
 5235 0641 41542B4C 		.ascii	"AT+LOGIN\000"
 5235      4F47494E 
 5235      00
 5236              	.LC298:
 5237 064a 41542B54 		.ascii	"AT+TX\000"
 5237      5800
 5238              	.LC299:
ARM GAS  C:\Users\Helon\AppData\Local\Temp\ccKCxrf8.s 			page 161


 5239 0650 41542B52 		.ascii	"AT+RSSI\000"
 5239      53534900 
 5240              	.LC300:
 5241 0658 41542B44 		.ascii	"AT+DISALLCHAR\000"
 5241      4953414C 
 5241      4C434841 
 5241      5200
 5242              	.LC301:
 5243 0666 415400   		.ascii	"AT\000"
 5244              	.LC302:
 5245 0669 41542B53 		.ascii	"AT+SPEED\000"
 5245      50454544 
 5245      00
 5246              	.LC303:
 5247 0672 41542B4E 		.ascii	"AT+NOTIFY\000"
 5247      4F544946 
 5247      5900
 5248              	.LC304:
 5249 067c 41542B53 		.ascii	"AT+STAUS\000"
 5249      54415553 
 5249      00
 5250              	.LC305:
 5251 0685 41542B41 		.ascii	"AT+ADVS\000"
 5251      44565300 
 5252              	.LC306:
 5253 068d 41542B41 		.ascii	"AT+AUTH\000"
 5253      55544800 
 5254              	.LC307:
 5255 0695 41542B49 		.ascii	"AT+IOCAP\000"
 5255      4F434150 
 5255      00
 5256              	.LC308:
 5257 069e 41542B53 		.ascii	"AT+SLEEP\000"
 5257      4C454550 
 5257      00
 5258              	.LC309:
 5259 06a7 41542B42 		.ascii	"AT+BOND\000"
 5259      4F4E4400 
 5260              		.data
 5261              		.align	2
 5262              		.set	.LANCHOR1,. + 0
 5263              		.set	.LANCHOR2,. + 128
 5264              		.type	connParam, %object
 5265              		.size	connParam, 8
 5266              	connParam:
 5267 0000 1000     		.short	16
 5268 0002 1000     		.short	16
 5269 0004 0000     		.short	0
 5270 0006 E803     		.short	1000
 5271              		.type	SleepMode, %object
 5272              		.size	SleepMode, 1
 5273              	SleepMode:
 5274 0008 01       		.byte	1
 5275              		.type	LowPower_EN, %object
 5276              		.size	LowPower_EN, 1
 5277              	LowPower_EN:
 5278 0009 01       		.byte	1
ARM GAS  C:\Users\Helon\AppData\Local\Temp\ccKCxrf8.s 			page 162


 5279 000a 0000     		.space	2
 5280              		.type	cccdNotifFlagSetStruct, %object
 5281              		.size	cccdNotifFlagSetStruct, 8
 5282              	cccdNotifFlagSetStruct:
 5283 000c 00000000 		.word	cccdNotifEnabledValue
 5284 0010 0200     		.short	2
 5285 0012 0000     		.short	0
 5286              		.type	StringArry, %object
 5287              		.size	StringArry, 112
 5288              	StringArry:
 5289 0014 BF050000 		.word	.LC282
 5290 0018 C8050000 		.word	.LC283
 5291 001c D1050000 		.word	.LC284
 5292 0020 DC050000 		.word	.LC285
 5293 0024 E4050000 		.word	.LC286
 5294 0028 ED050000 		.word	.LC287
 5295 002c F5050000 		.word	.LC288
 5296 0030 FD050000 		.word	.LC289
 5297 0034 04060000 		.word	.LC290
 5298 0038 0C060000 		.word	.LC291
 5299 003c 14060000 		.word	.LC292
 5300 0040 1D060000 		.word	.LC293
 5301 0044 25060000 		.word	.LC294
 5302 0048 2D060000 		.word	.LC295
 5303 004c 36060000 		.word	.LC296
 5304 0050 41060000 		.word	.LC297
 5305 0054 4A060000 		.word	.LC298
 5306 0058 50060000 		.word	.LC299
 5307 005c 58060000 		.word	.LC300
 5308 0060 66060000 		.word	.LC301
 5309 0064 69060000 		.word	.LC302
 5310 0068 72060000 		.word	.LC303
 5311 006c 7C060000 		.word	.LC304
 5312 0070 85060000 		.word	.LC305
 5313 0074 8D060000 		.word	.LC306
 5314 0078 95060000 		.word	.LC307
 5315 007c 9E060000 		.word	.LC308
 5316 0080 A7060000 		.word	.LC309
 5317              		.type	Baud_rate_idx, %object
 5318              		.size	Baud_rate_idx, 1
 5319              	Baud_rate_idx:
 5320 0084 37       		.byte	55
 5321 0085 00       		.space	1
 5322              		.type	negotiatedMtu, %object
 5323              		.size	negotiatedMtu, 2
 5324              	negotiatedMtu:
 5325 0086 1700     		.short	23
 5326              		.type	uartIdleCount.7990, %object
 5327              		.size	uartIdleCount.7990, 2
 5328              	uartIdleCount.7990:
 5329 0088 581B     		.short	7000
 5330              		.type	readRequestData, %object
 5331              		.size	readRequestData, 2
 5332              	readRequestData:
 5333 008a 0F00     		.short	15
 5334              		.type	cccdNotifEnabledValue, %object
 5335              		.size	cccdNotifEnabledValue, 2
ARM GAS  C:\Users\Helon\AppData\Local\Temp\ccKCxrf8.s 			page 163


 5336              	cccdNotifEnabledValue:
 5337 008c 01       		.byte	1
 5338 008d 00       		.byte	0
 5339              		.type	MTU_REQ_FLAG, %object
 5340              		.size	MTU_REQ_FLAG, 1
 5341              	MTU_REQ_FLAG:
 5342 008e 01       		.byte	1
 5343 008f 00       		.bss
 5344              		.align	2
 5345              		.set	.LANCHOR0,. + 0
 5346              		.type	STOP_SCAN_FLAG, %object
 5347              		.size	STOP_SCAN_FLAG, 1
 5348              	STOP_SCAN_FLAG:
 5349 0000 00       		.space	1
 5350              		.type	Role, %object
 5351              		.size	Role, 1
 5352              	Role:
 5353 0001 00       		.space	1
 5354              		.type	Conn_or_Disconn_Idx, %object
 5355              		.size	Conn_or_Disconn_Idx, 1
 5356              	Conn_or_Disconn_Idx:
 5357 0002 00       		.space	1
 5358              		.type	AUTHFLAG, %object
 5359              		.size	AUTHFLAG, 1
 5360              	AUTHFLAG:
 5361 0003 00       		.space	1
 5362              		.type	CommandMode, %object
 5363              		.size	CommandMode, 1
 5364              	CommandMode:
 5365 0004 00       		.space	1
 5366 0005 000000   		.space	3
 5367              		.type	testCount, %object
 5368              		.size	testCount, 4
 5369              	testCount:
 5370 0008 00000000 		.space	4
 5371              		.type	charNotificationEnabled, %object
 5372              		.size	charNotificationEnabled, 1
 5373              	charNotificationEnabled:
 5374 000c 00       		.space	1
 5375              		.type	TroughtTest_Flag, %object
 5376              		.size	TroughtTest_Flag, 1
 5377              	TroughtTest_Flag:
 5378 000d 00       		.space	1
 5379 000e 0000     		.space	2
 5380              		.type	totalByteCounter, %object
 5381              		.size	totalByteCounter, 4
 5382              	totalByteCounter:
 5383 0010 00000000 		.space	4
 5384              		.type	KEYBOARD, %object
 5385              		.size	KEYBOARD, 1
 5386              	KEYBOARD:
 5387 0014 00       		.space	1
 5388              		.type	_10sIsOver, %object
 5389              		.size	_10sIsOver, 1
 5390              	_10sIsOver:
 5391 0015 00       		.space	1
 5392 0016 0000     		.space	2
ARM GAS  C:\Users\Helon\AppData\Local\Temp\ccKCxrf8.s 			page 164


 5393              		.type	timercount.7964, %object
 5394              		.size	timercount.7964, 4
 5395              	timercount.7964:
 5396 0018 00000000 		.space	4
 5397              		.type	rx_isover, %object
 5398              		.size	rx_isover, 1
 5399              	rx_isover:
 5400 001c 00       		.space	1
 5401              		.type	Buffer_Length, %object
 5402              		.size	Buffer_Length, 1
 5403              	Buffer_Length:
 5404 001d 00       		.space	1
 5405              		.type	RX_BUFFER, %object
 5406              		.size	RX_BUFFER, 48
 5407              	RX_BUFFER:
 5408 001e 00000000 		.space	48
 5408      00000000 
 5408      00000000 
 5408      00000000 
 5408      00000000 
 5409              		.type	iocapability, %object
 5410              		.size	iocapability, 1
 5411              	iocapability:
 5412 004e 00       		.space	1
 5413              		.type	Bond, %object
 5414              		.size	Bond, 1
 5415              	Bond:
 5416 004f 00       		.space	1
 5417              		.type	clearAllDevices, %object
 5418              		.size	clearAllDevices, 7
 5419              	clearAllDevices:
 5420 0050 00000000 		.space	7
 5420      000000
 5421              		.type	RxFlag, %object
 5422              		.size	RxFlag, 1
 5423              	RxFlag:
 5424 0057 00       		.space	1
 5425              		.text
 5426              	.Letext0:
 5427              		.file 2 "c:\\program files (x86)\\cypress\\psoc creator\\3.3\\psoc creator\\import\\gnu\\arm\\4.9.
 5428              		.file 3 "c:\\program files (x86)\\cypress\\psoc creator\\3.3\\psoc creator\\import\\gnu\\arm\\4.9.
 5429              		.file 4 "Generated_Source\\PSoC4/cytypes.h"
 5430              		.file 5 "c:\\program files (x86)\\cypress\\psoc creator\\3.3\\psoc creator\\import\\gnu\\arm\\4.9.
 5431              		.file 6 "Generated_Source\\PSoC4/BLE_Stack.h"
 5432              		.file 7 "Generated_Source\\PSoC4/BLE_StackHostMain.h"
 5433              		.file 8 "Generated_Source\\PSoC4/BLE_StackGap.h"
 5434              		.file 9 "Generated_Source\\PSoC4/BLE_StackGatt.h"
 5435              		.file 10 "Generated_Source\\PSoC4/BLE_StackGattServer.h"
 5436              		.file 11 "Generated_Source\\PSoC4/BLE_StackGattClient.h"
 5437              		.file 12 "Generated_Source\\PSoC4/BLE.h"
 5438              		.file 13 "Generated_Source\\PSoC4/BLE_eventHandler.h"
 5439              		.file 14 "Generated_Source\\PSoC4/UART_SPI_UART.h"
 5440              		.file 15 ".\\BLEApplication.h"
 5441              		.file 16 ".\\BLEClient.h"
 5442              		.file 17 "c:\\program files (x86)\\cypress\\psoc creator\\3.3\\psoc creator\\import\\gnu\\arm\\4.9
 5443              		.file 18 "Generated_Source\\PSoC4/BLE_StackL2cap.h"
 5444              		.file 19 "c:\\program files (x86)\\cypress\\psoc creator\\3.3\\psoc creator\\import\\gnu\\arm\\4.9
ARM GAS  C:\Users\Helon\AppData\Local\Temp\ccKCxrf8.s 			page 165


 5445              		.file 20 "Generated_Source\\PSoC4/CTS.h"
 5446              		.file 21 "Generated_Source\\PSoC4/UART.h"
 5447              		.file 22 "Generated_Source\\PSoC4/Timer.h"
 5448              		.file 23 "Generated_Source\\PSoC4/Status_LED.h"
 5449              		.file 24 "Generated_Source\\PSoC4/cyPm.h"
 5450              		.file 25 "Generated_Source\\PSoC4/CyLib.h"
 5451              		.file 26 "Generated_Source\\PSoC4/UART_RX_WAKEUP_IRQ.h"
 5452              		.file 27 "Generated_Source\\PSoC4/UART_rx_wake.h"
 5453              		.file 28 "Generated_Source\\PSoC4/Connected_LED.h"
 5454              		.file 29 "Generated_Source\\PSoC4/UART_tx.h"
 5455              		.file 30 "Generated_Source\\PSoC4/TimerInterrupt.h"
 5456              		.file 31 "c:\\program files (x86)\\cypress\\psoc creator\\3.3\\psoc creator\\import\\gnu\\arm\\4.9
 5457              		.file 32 "c:\\program files (x86)\\cypress\\psoc creator\\3.3\\psoc creator\\import\\gnu\\arm\\4.9
 5458              		.file 33 ".\\WriteUserSFlash.h"
 5459              		.file 34 "<built-in>"
 5460              		.section	.debug_info,"",%progbits
 5461              	.Ldebug_info0:
 5462 0000 6F370000 		.4byte	0x376f
 5463 0004 0400     		.2byte	0x4
 5464 0006 00000000 		.4byte	.Ldebug_abbrev0
 5465 000a 04       		.byte	0x4
 5466 000b 01       		.uleb128 0x1
 5467 000c 352A0000 		.4byte	.LASF762
 5468 0010 01       		.byte	0x1
 5469 0011 AA400000 		.4byte	.LASF763
 5470 0015 420D0000 		.4byte	.LASF764
 5471 0019 20000000 		.4byte	.Ldebug_ranges0+0x20
 5472 001d 00000000 		.4byte	0
 5473 0021 00000000 		.4byte	.Ldebug_line0
 5474 0025 02       		.uleb128 0x2
 5475 0026 08       		.byte	0x8
 5476 0027 04       		.byte	0x4
 5477 0028 DA240000 		.4byte	.LASF0
 5478 002c 03       		.uleb128 0x3
 5479 002d 04       		.byte	0x4
 5480 002e 05       		.byte	0x5
 5481 002f 696E7400 		.ascii	"int\000"
 5482 0033 02       		.uleb128 0x2
 5483 0034 02       		.byte	0x2
 5484 0035 05       		.byte	0x5
 5485 0036 DE3A0000 		.4byte	.LASF1
 5486 003a 04       		.uleb128 0x4
 5487 003b 2E310000 		.4byte	.LASF3
 5488 003f 02       		.byte	0x2
 5489 0040 1B       		.byte	0x1b
 5490 0041 45000000 		.4byte	0x45
 5491 0045 02       		.uleb128 0x2
 5492 0046 01       		.byte	0x1
 5493 0047 06       		.byte	0x6
 5494 0048 790F0000 		.4byte	.LASF2
 5495 004c 04       		.uleb128 0x4
 5496 004d C0090000 		.4byte	.LASF4
 5497 0051 02       		.byte	0x2
 5498 0052 1D       		.byte	0x1d
 5499 0053 57000000 		.4byte	0x57
 5500 0057 02       		.uleb128 0x2
 5501 0058 01       		.byte	0x1
ARM GAS  C:\Users\Helon\AppData\Local\Temp\ccKCxrf8.s 			page 166


 5502 0059 08       		.byte	0x8
 5503 005a 1F110000 		.4byte	.LASF5
 5504 005e 04       		.uleb128 0x4
 5505 005f B2350000 		.4byte	.LASF6
 5506 0063 02       		.byte	0x2
 5507 0064 29       		.byte	0x29
 5508 0065 33000000 		.4byte	0x33
 5509 0069 04       		.uleb128 0x4
 5510 006a 26150000 		.4byte	.LASF7
 5511 006e 02       		.byte	0x2
 5512 006f 2B       		.byte	0x2b
 5513 0070 74000000 		.4byte	0x74
 5514 0074 02       		.uleb128 0x2
 5515 0075 02       		.byte	0x2
 5516 0076 07       		.byte	0x7
 5517 0077 C1430000 		.4byte	.LASF8
 5518 007b 02       		.uleb128 0x2
 5519 007c 04       		.byte	0x4
 5520 007d 05       		.byte	0x5
 5521 007e 990B0000 		.4byte	.LASF9
 5522 0082 04       		.uleb128 0x4
 5523 0083 02230000 		.4byte	.LASF10
 5524 0087 02       		.byte	0x2
 5525 0088 41       		.byte	0x41
 5526 0089 8D000000 		.4byte	0x8d
 5527 008d 02       		.uleb128 0x2
 5528 008e 04       		.byte	0x4
 5529 008f 07       		.byte	0x7
 5530 0090 631E0000 		.4byte	.LASF11
 5531 0094 02       		.uleb128 0x2
 5532 0095 08       		.byte	0x8
 5533 0096 05       		.byte	0x5
 5534 0097 90230000 		.4byte	.LASF12
 5535 009b 02       		.uleb128 0x2
 5536 009c 08       		.byte	0x8
 5537 009d 07       		.byte	0x7
 5538 009e C4310000 		.4byte	.LASF13
 5539 00a2 02       		.uleb128 0x2
 5540 00a3 04       		.byte	0x4
 5541 00a4 07       		.byte	0x7
 5542 00a5 91280000 		.4byte	.LASF14
 5543 00a9 04       		.uleb128 0x4
 5544 00aa 2D000000 		.4byte	.LASF15
 5545 00ae 03       		.byte	0x3
 5546 00af 14       		.byte	0x14
 5547 00b0 3A000000 		.4byte	0x3a
 5548 00b4 04       		.uleb128 0x4
 5549 00b5 CB0F0000 		.4byte	.LASF16
 5550 00b9 03       		.byte	0x3
 5551 00ba 15       		.byte	0x15
 5552 00bb 4C000000 		.4byte	0x4c
 5553 00bf 04       		.uleb128 0x4
 5554 00c0 F03B0000 		.4byte	.LASF17
 5555 00c4 03       		.byte	0x3
 5556 00c5 20       		.byte	0x20
 5557 00c6 5E000000 		.4byte	0x5e
 5558 00ca 04       		.uleb128 0x4
ARM GAS  C:\Users\Helon\AppData\Local\Temp\ccKCxrf8.s 			page 167


 5559 00cb 33320000 		.4byte	.LASF18
 5560 00cf 03       		.byte	0x3
 5561 00d0 21       		.byte	0x21
 5562 00d1 69000000 		.4byte	0x69
 5563 00d5 04       		.uleb128 0x4
 5564 00d6 E3410000 		.4byte	.LASF19
 5565 00da 03       		.byte	0x3
 5566 00db 2D       		.byte	0x2d
 5567 00dc 82000000 		.4byte	0x82
 5568 00e0 04       		.uleb128 0x4
 5569 00e1 2C3A0000 		.4byte	.LASF20
 5570 00e5 04       		.byte	0x4
 5571 00e6 C2       		.byte	0xc2
 5572 00e7 57000000 		.4byte	0x57
 5573 00eb 04       		.uleb128 0x4
 5574 00ec 45470000 		.4byte	.LASF21
 5575 00f0 04       		.byte	0x4
 5576 00f1 C3       		.byte	0xc3
 5577 00f2 74000000 		.4byte	0x74
 5578 00f6 04       		.uleb128 0x4
 5579 00f7 3D030000 		.4byte	.LASF22
 5580 00fb 04       		.byte	0x4
 5581 00fc C4       		.byte	0xc4
 5582 00fd 8D000000 		.4byte	0x8d
 5583 0101 04       		.uleb128 0x4
 5584 0102 3F080000 		.4byte	.LASF23
 5585 0106 04       		.byte	0x4
 5586 0107 C5       		.byte	0xc5
 5587 0108 45000000 		.4byte	0x45
 5588 010c 02       		.uleb128 0x2
 5589 010d 04       		.byte	0x4
 5590 010e 04       		.byte	0x4
 5591 010f 00270000 		.4byte	.LASF24
 5592 0113 04       		.uleb128 0x4
 5593 0114 55060000 		.4byte	.LASF25
 5594 0118 04       		.byte	0x4
 5595 0119 D3       		.byte	0xd3
 5596 011a 1E010000 		.4byte	0x11e
 5597 011e 02       		.uleb128 0x2
 5598 011f 01       		.byte	0x1
 5599 0120 08       		.byte	0x8
 5600 0121 30140000 		.4byte	.LASF26
 5601 0125 05       		.uleb128 0x5
 5602 0126 E0000000 		.4byte	0xe0
 5603 012a 06       		.uleb128 0x6
 5604 012b 3C320000 		.4byte	.LASF27
 5605 012f 04       		.byte	0x4
 5606 0130 6E01     		.2byte	0x16e
 5607 0132 36010000 		.4byte	0x136
 5608 0136 05       		.uleb128 0x5
 5609 0137 F6000000 		.4byte	0xf6
 5610 013b 06       		.uleb128 0x6
 5611 013c 96300000 		.4byte	.LASF28
 5612 0140 04       		.byte	0x4
 5613 0141 7E01     		.2byte	0x17e
 5614 0143 47010000 		.4byte	0x147
 5615 0147 07       		.uleb128 0x7
ARM GAS  C:\Users\Helon\AppData\Local\Temp\ccKCxrf8.s 			page 168


 5616 0148 04       		.byte	0x4
 5617 0149 4D010000 		.4byte	0x14d
 5618 014d 08       		.uleb128 0x8
 5619 014e 04       		.uleb128 0x4
 5620 014f 6E000000 		.4byte	.LASF29
 5621 0153 05       		.byte	0x5
 5622 0154 D4       		.byte	0xd4
 5623 0155 A2000000 		.4byte	0xa2
 5624 0159 02       		.uleb128 0x2
 5625 015a 04       		.byte	0x4
 5626 015b 07       		.byte	0x7
 5627 015c 75000000 		.4byte	.LASF30
 5628 0160 09       		.uleb128 0x9
 5629 0161 04       		.byte	0x4
 5630 0162 07       		.uleb128 0x7
 5631 0163 04       		.byte	0x4
 5632 0164 1E010000 		.4byte	0x11e
 5633 0168 07       		.uleb128 0x7
 5634 0169 04       		.byte	0x4
 5635 016a 6E010000 		.4byte	0x16e
 5636 016e 0A       		.uleb128 0xa
 5637 016f 1E010000 		.4byte	0x11e
 5638 0173 0B       		.uleb128 0xb
 5639 0174 01       		.byte	0x1
 5640 0175 06       		.byte	0x6
 5641 0176 A4       		.byte	0xa4
 5642 0177 F8020000 		.4byte	0x2f8
 5643 017b 0C       		.uleb128 0xc
 5644 017c D6140000 		.4byte	.LASF31
 5645 0180 00       		.sleb128 0
 5646 0181 0C       		.uleb128 0xc
 5647 0182 380C0000 		.4byte	.LASF32
 5648 0186 01       		.sleb128 1
 5649 0187 0C       		.uleb128 0xc
 5650 0188 EF310000 		.4byte	.LASF33
 5651 018c 02       		.sleb128 2
 5652 018d 0C       		.uleb128 0xc
 5653 018e 49100000 		.4byte	.LASF34
 5654 0192 03       		.sleb128 3
 5655 0193 0C       		.uleb128 0xc
 5656 0194 28450000 		.4byte	.LASF35
 5657 0198 04       		.sleb128 4
 5658 0199 0C       		.uleb128 0xc
 5659 019a 0B200000 		.4byte	.LASF36
 5660 019e 05       		.sleb128 5
 5661 019f 0C       		.uleb128 0xc
 5662 01a0 533D0000 		.4byte	.LASF37
 5663 01a4 20       		.sleb128 32
 5664 01a5 0C       		.uleb128 0xc
 5665 01a6 28080000 		.4byte	.LASF38
 5666 01aa 21       		.sleb128 33
 5667 01ab 0C       		.uleb128 0xc
 5668 01ac 2E220000 		.4byte	.LASF39
 5669 01b0 22       		.sleb128 34
 5670 01b1 0C       		.uleb128 0xc
 5671 01b2 582C0000 		.4byte	.LASF40
 5672 01b6 23       		.sleb128 35
ARM GAS  C:\Users\Helon\AppData\Local\Temp\ccKCxrf8.s 			page 169


 5673 01b7 0C       		.uleb128 0xc
 5674 01b8 E01C0000 		.4byte	.LASF41
 5675 01bc 24       		.sleb128 36
 5676 01bd 0C       		.uleb128 0xc
 5677 01be 2F1D0000 		.4byte	.LASF42
 5678 01c2 25       		.sleb128 37
 5679 01c3 0C       		.uleb128 0xc
 5680 01c4 60390000 		.4byte	.LASF43
 5681 01c8 26       		.sleb128 38
 5682 01c9 0C       		.uleb128 0xc
 5683 01ca 96020000 		.4byte	.LASF44
 5684 01ce 27       		.sleb128 39
 5685 01cf 0C       		.uleb128 0xc
 5686 01d0 9A460000 		.4byte	.LASF45
 5687 01d4 28       		.sleb128 40
 5688 01d5 0C       		.uleb128 0xc
 5689 01d6 3D2F0000 		.4byte	.LASF46
 5690 01da 29       		.sleb128 41
 5691 01db 0C       		.uleb128 0xc
 5692 01dc EA200000 		.4byte	.LASF47
 5693 01e0 2A       		.sleb128 42
 5694 01e1 0C       		.uleb128 0xc
 5695 01e2 242B0000 		.4byte	.LASF48
 5696 01e6 2B       		.sleb128 43
 5697 01e7 0C       		.uleb128 0xc
 5698 01e8 50420000 		.4byte	.LASF49
 5699 01ec 2C       		.sleb128 44
 5700 01ed 0C       		.uleb128 0xc
 5701 01ee F83B0000 		.4byte	.LASF50
 5702 01f2 C000     		.sleb128 64
 5703 01f4 0C       		.uleb128 0xc
 5704 01f5 E6020000 		.4byte	.LASF51
 5705 01f9 C100     		.sleb128 65
 5706 01fb 0C       		.uleb128 0xc
 5707 01fc 55450000 		.4byte	.LASF52
 5708 0200 C200     		.sleb128 66
 5709 0202 0C       		.uleb128 0xc
 5710 0203 08300000 		.4byte	.LASF53
 5711 0207 C300     		.sleb128 67
 5712 0209 0C       		.uleb128 0xc
 5713 020a 2D110000 		.4byte	.LASF54
 5714 020e C400     		.sleb128 68
 5715 0210 0C       		.uleb128 0xc
 5716 0211 C1100000 		.4byte	.LASF55
 5717 0215 C500     		.sleb128 69
 5718 0217 0C       		.uleb128 0xc
 5719 0218 17370000 		.4byte	.LASF56
 5720 021c C600     		.sleb128 70
 5721 021e 0C       		.uleb128 0xc
 5722 021f F9360000 		.4byte	.LASF57
 5723 0223 C700     		.sleb128 71
 5724 0225 0C       		.uleb128 0xc
 5725 0226 9F130000 		.4byte	.LASF58
 5726 022a C800     		.sleb128 72
 5727 022c 0C       		.uleb128 0xc
 5728 022d E12C0000 		.4byte	.LASF59
 5729 0231 C900     		.sleb128 73
ARM GAS  C:\Users\Helon\AppData\Local\Temp\ccKCxrf8.s 			page 170


 5730 0233 0C       		.uleb128 0xc
 5731 0234 5C150000 		.4byte	.LASF60
 5732 0238 CA00     		.sleb128 74
 5733 023a 0C       		.uleb128 0xc
 5734 023b 6C140000 		.4byte	.LASF61
 5735 023f CB00     		.sleb128 75
 5736 0241 0C       		.uleb128 0xc
 5737 0242 9D2B0000 		.4byte	.LASF62
 5738 0246 CC00     		.sleb128 76
 5739 0248 0C       		.uleb128 0xc
 5740 0249 7D380000 		.4byte	.LASF63
 5741 024d CD00     		.sleb128 77
 5742 024f 0C       		.uleb128 0xc
 5743 0250 380B0000 		.4byte	.LASF64
 5744 0254 CE00     		.sleb128 78
 5745 0256 0C       		.uleb128 0xc
 5746 0257 9E280000 		.4byte	.LASF65
 5747 025b CF00     		.sleb128 79
 5748 025d 0C       		.uleb128 0xc
 5749 025e 343D0000 		.4byte	.LASF66
 5750 0262 D000     		.sleb128 80
 5751 0264 0C       		.uleb128 0xc
 5752 0265 C0150000 		.4byte	.LASF67
 5753 0269 D100     		.sleb128 81
 5754 026b 0C       		.uleb128 0xc
 5755 026c 07080000 		.4byte	.LASF68
 5756 0270 D200     		.sleb128 82
 5757 0272 0C       		.uleb128 0xc
 5758 0273 45410000 		.4byte	.LASF69
 5759 0277 D300     		.sleb128 83
 5760 0279 0C       		.uleb128 0xc
 5761 027a DC460000 		.4byte	.LASF70
 5762 027e D400     		.sleb128 84
 5763 0280 0C       		.uleb128 0xc
 5764 0281 D02B0000 		.4byte	.LASF71
 5765 0285 D500     		.sleb128 85
 5766 0287 0C       		.uleb128 0xc
 5767 0288 B1160000 		.4byte	.LASF72
 5768 028c D600     		.sleb128 86
 5769 028e 0C       		.uleb128 0xc
 5770 028f B2270000 		.4byte	.LASF73
 5771 0293 D700     		.sleb128 87
 5772 0295 0C       		.uleb128 0xc
 5773 0296 D0420000 		.4byte	.LASF74
 5774 029a F000     		.sleb128 112
 5775 029c 0C       		.uleb128 0xc
 5776 029d 671B0000 		.4byte	.LASF75
 5777 02a1 F100     		.sleb128 113
 5778 02a3 0C       		.uleb128 0xc
 5779 02a4 DF0E0000 		.4byte	.LASF76
 5780 02a8 F200     		.sleb128 114
 5781 02aa 0C       		.uleb128 0xc
 5782 02ab 163D0000 		.4byte	.LASF77
 5783 02af F300     		.sleb128 115
 5784 02b1 0C       		.uleb128 0xc
 5785 02b2 482D0000 		.4byte	.LASF78
 5786 02b6 F400     		.sleb128 116
ARM GAS  C:\Users\Helon\AppData\Local\Temp\ccKCxrf8.s 			page 171


 5787 02b8 0C       		.uleb128 0xc
 5788 02b9 91210000 		.4byte	.LASF79
 5789 02bd F500     		.sleb128 117
 5790 02bf 0C       		.uleb128 0xc
 5791 02c0 7E130000 		.4byte	.LASF80
 5792 02c4 F600     		.sleb128 118
 5793 02c6 0C       		.uleb128 0xc
 5794 02c7 CC320000 		.4byte	.LASF81
 5795 02cb F700     		.sleb128 119
 5796 02cd 0C       		.uleb128 0xc
 5797 02ce 5B060000 		.4byte	.LASF82
 5798 02d2 F800     		.sleb128 120
 5799 02d4 0C       		.uleb128 0xc
 5800 02d5 51120000 		.4byte	.LASF83
 5801 02d9 F900     		.sleb128 121
 5802 02db 0C       		.uleb128 0xc
 5803 02dc B9450000 		.4byte	.LASF84
 5804 02e0 FA00     		.sleb128 122
 5805 02e2 0C       		.uleb128 0xc
 5806 02e3 26250000 		.4byte	.LASF85
 5807 02e7 FA01     		.sleb128 250
 5808 02e9 0C       		.uleb128 0xc
 5809 02ea 04400000 		.4byte	.LASF86
 5810 02ee FB01     		.sleb128 251
 5811 02f0 0C       		.uleb128 0xc
 5812 02f1 162B0000 		.4byte	.LASF87
 5813 02f5 FF01     		.sleb128 255
 5814 02f7 00       		.byte	0
 5815 02f8 0D       		.uleb128 0xd
 5816 02f9 02       		.byte	0x2
 5817 02fa 06       		.byte	0x6
 5818 02fb 0C02     		.2byte	0x20c
 5819 02fd AF030000 		.4byte	0x3af
 5820 0301 0C       		.uleb128 0xc
 5821 0302 7C100000 		.4byte	.LASF88
 5822 0306 00       		.sleb128 0
 5823 0307 0C       		.uleb128 0xc
 5824 0308 DF170000 		.4byte	.LASF89
 5825 030c 01       		.sleb128 1
 5826 030d 0C       		.uleb128 0xc
 5827 030e 02450000 		.4byte	.LASF90
 5828 0312 02       		.sleb128 2
 5829 0313 0C       		.uleb128 0xc
 5830 0314 FF190000 		.4byte	.LASF91
 5831 0318 03       		.sleb128 3
 5832 0319 0C       		.uleb128 0xc
 5833 031a D51D0000 		.4byte	.LASF92
 5834 031e 04       		.sleb128 4
 5835 031f 0C       		.uleb128 0xc
 5836 0320 75240000 		.4byte	.LASF93
 5837 0324 05       		.sleb128 5
 5838 0325 0C       		.uleb128 0xc
 5839 0326 5A3F0000 		.4byte	.LASF94
 5840 032a 06       		.sleb128 6
 5841 032b 0C       		.uleb128 0xc
 5842 032c 31150000 		.4byte	.LASF95
 5843 0330 07       		.sleb128 7
ARM GAS  C:\Users\Helon\AppData\Local\Temp\ccKCxrf8.s 			page 172


 5844 0331 0C       		.uleb128 0xc
 5845 0332 81260000 		.4byte	.LASF96
 5846 0336 08       		.sleb128 8
 5847 0337 0C       		.uleb128 0xc
 5848 0338 0A3E0000 		.4byte	.LASF97
 5849 033c 09       		.sleb128 9
 5850 033d 0C       		.uleb128 0xc
 5851 033e 87470000 		.4byte	.LASF98
 5852 0342 0A       		.sleb128 10
 5853 0343 0C       		.uleb128 0xc
 5854 0344 9A080000 		.4byte	.LASF99
 5855 0348 0B       		.sleb128 11
 5856 0349 0C       		.uleb128 0xc
 5857 034a CC410000 		.4byte	.LASF100
 5858 034e 0C       		.sleb128 12
 5859 034f 0C       		.uleb128 0xc
 5860 0350 F3290000 		.4byte	.LASF101
 5861 0354 0D       		.sleb128 13
 5862 0355 0C       		.uleb128 0xc
 5863 0356 B51F0000 		.4byte	.LASF102
 5864 035a 0E       		.sleb128 14
 5865 035b 0C       		.uleb128 0xc
 5866 035c 50240000 		.4byte	.LASF103
 5867 0360 0F       		.sleb128 15
 5868 0361 0C       		.uleb128 0xc
 5869 0362 AA050000 		.4byte	.LASF104
 5870 0366 10       		.sleb128 16
 5871 0367 0C       		.uleb128 0xc
 5872 0368 42260000 		.4byte	.LASF105
 5873 036c 11       		.sleb128 17
 5874 036d 0C       		.uleb128 0xc
 5875 036e 4B0C0000 		.4byte	.LASF106
 5876 0372 12       		.sleb128 18
 5877 0373 0C       		.uleb128 0xc
 5878 0374 510F0000 		.4byte	.LASF107
 5879 0378 13       		.sleb128 19
 5880 0379 0C       		.uleb128 0xc
 5881 037a E1240000 		.4byte	.LASF108
 5882 037e 27       		.sleb128 39
 5883 037f 0C       		.uleb128 0xc
 5884 0380 61270000 		.4byte	.LASF109
 5885 0384 28       		.sleb128 40
 5886 0385 0C       		.uleb128 0xc
 5887 0386 D8050000 		.4byte	.LASF110
 5888 038a 29       		.sleb128 41
 5889 038b 0C       		.uleb128 0xc
 5890 038c 341B0000 		.4byte	.LASF111
 5891 0390 FF01     		.sleb128 255
 5892 0392 0C       		.uleb128 0xc
 5893 0393 972C0000 		.4byte	.LASF112
 5894 0397 8002     		.sleb128 256
 5895 0399 0C       		.uleb128 0xc
 5896 039a 7E2C0000 		.4byte	.LASF113
 5897 039e 8102     		.sleb128 257
 5898 03a0 0C       		.uleb128 0xc
 5899 03a1 AA0D0000 		.4byte	.LASF114
 5900 03a5 8202     		.sleb128 258
ARM GAS  C:\Users\Helon\AppData\Local\Temp\ccKCxrf8.s 			page 173


 5901 03a7 0C       		.uleb128 0xc
 5902 03a8 83320000 		.4byte	.LASF115
 5903 03ac 8302     		.sleb128 259
 5904 03ae 00       		.byte	0
 5905 03af 06       		.uleb128 0x6
 5906 03b0 23400000 		.4byte	.LASF116
 5907 03b4 06       		.byte	0x6
 5908 03b5 6902     		.2byte	0x269
 5909 03b7 F8020000 		.4byte	0x2f8
 5910 03bb 0D       		.uleb128 0xd
 5911 03bc 01       		.byte	0x1
 5912 03bd 06       		.byte	0x6
 5913 03be 6D02     		.2byte	0x26d
 5914 03c0 E4030000 		.4byte	0x3e4
 5915 03c4 0C       		.uleb128 0xc
 5916 03c5 37310000 		.4byte	.LASF117
 5917 03c9 01       		.sleb128 1
 5918 03ca 0C       		.uleb128 0xc
 5919 03cb 1F120000 		.4byte	.LASF118
 5920 03cf 02       		.sleb128 2
 5921 03d0 0C       		.uleb128 0xc
 5922 03d1 BF230000 		.4byte	.LASF119
 5923 03d5 03       		.sleb128 3
 5924 03d6 0C       		.uleb128 0xc
 5925 03d7 B63F0000 		.4byte	.LASF120
 5926 03db 04       		.sleb128 4
 5927 03dc 0C       		.uleb128 0xc
 5928 03dd 8E1C0000 		.4byte	.LASF121
 5929 03e1 FF01     		.sleb128 255
 5930 03e3 00       		.byte	0
 5931 03e4 06       		.uleb128 0x6
 5932 03e5 FB130000 		.4byte	.LASF122
 5933 03e9 06       		.byte	0x6
 5934 03ea 8902     		.2byte	0x289
 5935 03ec BB030000 		.4byte	0x3bb
 5936 03f0 0D       		.uleb128 0xd
 5937 03f1 01       		.byte	0x1
 5938 03f2 06       		.byte	0x6
 5939 03f3 8D02     		.2byte	0x28d
 5940 03f5 2B040000 		.4byte	0x42b
 5941 03f9 0C       		.uleb128 0xc
 5942 03fa FE120000 		.4byte	.LASF123
 5943 03fe 01       		.sleb128 1
 5944 03ff 0C       		.uleb128 0xc
 5945 0400 E40D0000 		.4byte	.LASF124
 5946 0404 02       		.sleb128 2
 5947 0405 0C       		.uleb128 0xc
 5948 0406 9E0C0000 		.4byte	.LASF125
 5949 040a 03       		.sleb128 3
 5950 040b 0C       		.uleb128 0xc
 5951 040c 24030000 		.4byte	.LASF126
 5952 0410 04       		.sleb128 4
 5953 0411 0C       		.uleb128 0xc
 5954 0412 263F0000 		.4byte	.LASF127
 5955 0416 05       		.sleb128 5
 5956 0417 0C       		.uleb128 0xc
 5957 0418 FA470000 		.4byte	.LASF128
ARM GAS  C:\Users\Helon\AppData\Local\Temp\ccKCxrf8.s 			page 174


 5958 041c 06       		.sleb128 6
 5959 041d 0C       		.uleb128 0xc
 5960 041e AA030000 		.4byte	.LASF129
 5961 0422 07       		.sleb128 7
 5962 0423 0C       		.uleb128 0xc
 5963 0424 6B400000 		.4byte	.LASF130
 5964 0428 FF01     		.sleb128 255
 5965 042a 00       		.byte	0
 5966 042b 06       		.uleb128 0x6
 5967 042c 661D0000 		.4byte	.LASF131
 5968 0430 06       		.byte	0x6
 5969 0431 9602     		.2byte	0x296
 5970 0433 F0030000 		.4byte	0x3f0
 5971 0437 0D       		.uleb128 0xd
 5972 0438 01       		.byte	0x1
 5973 0439 06       		.byte	0x6
 5974 043a 9A02     		.2byte	0x29a
 5975 043c 77040000 		.4byte	0x477
 5976 0440 0C       		.uleb128 0xc
 5977 0441 850F0000 		.4byte	.LASF132
 5978 0445 01       		.sleb128 1
 5979 0446 0C       		.uleb128 0xc
 5980 0447 5E0A0000 		.4byte	.LASF133
 5981 044b 02       		.sleb128 2
 5982 044c 0C       		.uleb128 0xc
 5983 044d 372E0000 		.4byte	.LASF134
 5984 0451 03       		.sleb128 3
 5985 0452 0C       		.uleb128 0xc
 5986 0453 4F090000 		.4byte	.LASF135
 5987 0457 04       		.sleb128 4
 5988 0458 0C       		.uleb128 0xc
 5989 0459 35140000 		.4byte	.LASF136
 5990 045d 05       		.sleb128 5
 5991 045e 0C       		.uleb128 0xc
 5992 045f A81E0000 		.4byte	.LASF137
 5993 0463 06       		.sleb128 6
 5994 0464 0C       		.uleb128 0xc
 5995 0465 743F0000 		.4byte	.LASF138
 5996 0469 07       		.sleb128 7
 5997 046a 0C       		.uleb128 0xc
 5998 046b 4C1E0000 		.4byte	.LASF139
 5999 046f 08       		.sleb128 8
 6000 0470 0C       		.uleb128 0xc
 6001 0471 6C250000 		.4byte	.LASF140
 6002 0475 09       		.sleb128 9
 6003 0476 00       		.byte	0
 6004 0477 06       		.uleb128 0x6
 6005 0478 5C220000 		.4byte	.LASF141
 6006 047c 06       		.byte	0x6
 6007 047d B102     		.2byte	0x2b1
 6008 047f 37040000 		.4byte	0x437
 6009 0483 0D       		.uleb128 0xd
 6010 0484 01       		.byte	0x1
 6011 0485 06       		.byte	0x6
 6012 0486 B502     		.2byte	0x2b5
 6013 0488 9F040000 		.4byte	0x49f
 6014 048c 0C       		.uleb128 0xc
ARM GAS  C:\Users\Helon\AppData\Local\Temp\ccKCxrf8.s 			page 175


 6015 048d CC3F0000 		.4byte	.LASF142
 6016 0491 00       		.sleb128 0
 6017 0492 0C       		.uleb128 0xc
 6018 0493 40290000 		.4byte	.LASF143
 6019 0497 01       		.sleb128 1
 6020 0498 0C       		.uleb128 0xc
 6021 0499 B1420000 		.4byte	.LASF144
 6022 049d 02       		.sleb128 2
 6023 049e 00       		.byte	0
 6024 049f 06       		.uleb128 0x6
 6025 04a0 8B100000 		.4byte	.LASF145
 6026 04a4 06       		.byte	0x6
 6027 04a5 BC02     		.2byte	0x2bc
 6028 04a7 83040000 		.4byte	0x483
 6029 04ab 0E       		.uleb128 0xe
 6030 04ac 02       		.byte	0x2
 6031 04ad 06       		.byte	0x6
 6032 04ae BF02     		.2byte	0x2bf
 6033 04b0 CF040000 		.4byte	0x4cf
 6034 04b4 0F       		.uleb128 0xf
 6035 04b5 45040000 		.4byte	.LASF146
 6036 04b9 06       		.byte	0x6
 6037 04ba C202     		.2byte	0x2c2
 6038 04bc 77040000 		.4byte	0x477
 6039 04c0 00       		.byte	0
 6040 04c1 0F       		.uleb128 0xf
 6041 04c2 450E0000 		.4byte	.LASF147
 6042 04c6 06       		.byte	0x6
 6043 04c7 C402     		.2byte	0x2c4
 6044 04c9 9F040000 		.4byte	0x49f
 6045 04cd 01       		.byte	0x1
 6046 04ce 00       		.byte	0
 6047 04cf 06       		.uleb128 0x6
 6048 04d0 99420000 		.4byte	.LASF148
 6049 04d4 06       		.byte	0x6
 6050 04d5 C502     		.2byte	0x2c5
 6051 04d7 AB040000 		.4byte	0x4ab
 6052 04db 0E       		.uleb128 0xe
 6053 04dc 07       		.byte	0x7
 6054 04dd 06       		.byte	0x6
 6055 04de 0503     		.2byte	0x305
 6056 04e0 FF040000 		.4byte	0x4ff
 6057 04e4 0F       		.uleb128 0xf
 6058 04e5 BC3E0000 		.4byte	.LASF149
 6059 04e9 06       		.byte	0x6
 6060 04ea 0803     		.2byte	0x308
 6061 04ec FF040000 		.4byte	0x4ff
 6062 04f0 00       		.byte	0
 6063 04f1 0F       		.uleb128 0xf
 6064 04f2 D8060000 		.4byte	.LASF150
 6065 04f6 06       		.byte	0x6
 6066 04f7 0A03     		.2byte	0x30a
 6067 04f9 E0000000 		.4byte	0xe0
 6068 04fd 06       		.byte	0x6
 6069 04fe 00       		.byte	0
 6070 04ff 10       		.uleb128 0x10
 6071 0500 E0000000 		.4byte	0xe0
ARM GAS  C:\Users\Helon\AppData\Local\Temp\ccKCxrf8.s 			page 176


 6072 0504 0F050000 		.4byte	0x50f
 6073 0508 11       		.uleb128 0x11
 6074 0509 59010000 		.4byte	0x159
 6075 050d 05       		.byte	0x5
 6076 050e 00       		.byte	0
 6077 050f 06       		.uleb128 0x6
 6078 0510 A5340000 		.4byte	.LASF151
 6079 0514 06       		.byte	0x6
 6080 0515 0B03     		.2byte	0x30b
 6081 0517 DB040000 		.4byte	0x4db
 6082 051b 0B       		.uleb128 0xb
 6083 051c 01       		.byte	0x1
 6084 051d 07       		.byte	0x7
 6085 051e 4B       		.byte	0x4b
 6086 051f 3C050000 		.4byte	0x53c
 6087 0523 0C       		.uleb128 0xc
 6088 0524 2C350000 		.4byte	.LASF152
 6089 0528 01       		.sleb128 1
 6090 0529 0C       		.uleb128 0xc
 6091 052a 20340000 		.4byte	.LASF153
 6092 052e 02       		.sleb128 2
 6093 052f 0C       		.uleb128 0xc
 6094 0530 81450000 		.4byte	.LASF154
 6095 0534 03       		.sleb128 3
 6096 0535 0C       		.uleb128 0xc
 6097 0536 99360000 		.4byte	.LASF155
 6098 053a 04       		.sleb128 4
 6099 053b 00       		.byte	0
 6100 053c 0B       		.uleb128 0xb
 6101 053d 01       		.byte	0x1
 6102 053e 08       		.byte	0x8
 6103 053f 90       		.byte	0x90
 6104 0540 63050000 		.4byte	0x563
 6105 0544 0C       		.uleb128 0xc
 6106 0545 95440000 		.4byte	.LASF156
 6107 0549 00       		.sleb128 0
 6108 054a 0C       		.uleb128 0xc
 6109 054b FA2C0000 		.4byte	.LASF157
 6110 054f 01       		.sleb128 1
 6111 0550 0C       		.uleb128 0xc
 6112 0551 F23C0000 		.4byte	.LASF158
 6113 0555 02       		.sleb128 2
 6114 0556 0C       		.uleb128 0xc
 6115 0557 AA0E0000 		.4byte	.LASF159
 6116 055b 03       		.sleb128 3
 6117 055c 0C       		.uleb128 0xc
 6118 055d 9B190000 		.4byte	.LASF160
 6119 0561 04       		.sleb128 4
 6120 0562 00       		.byte	0
 6121 0563 04       		.uleb128 0x4
 6122 0564 6D2B0000 		.4byte	.LASF161
 6123 0568 08       		.byte	0x8
 6124 0569 A0       		.byte	0xa0
 6125 056a 3C050000 		.4byte	0x53c
 6126 056e 0B       		.uleb128 0xb
 6127 056f 01       		.byte	0x1
 6128 0570 08       		.byte	0x8
ARM GAS  C:\Users\Helon\AppData\Local\Temp\ccKCxrf8.s 			page 177


 6129 0571 A4       		.byte	0xa4
 6130 0572 95050000 		.4byte	0x595
 6131 0576 0C       		.uleb128 0xc
 6132 0577 7A0B0000 		.4byte	.LASF162
 6133 057b 00       		.sleb128 0
 6134 057c 0C       		.uleb128 0xc
 6135 057d 32340000 		.4byte	.LASF163
 6136 0581 01       		.sleb128 1
 6137 0582 0C       		.uleb128 0xc
 6138 0583 493B0000 		.4byte	.LASF164
 6139 0587 02       		.sleb128 2
 6140 0588 0C       		.uleb128 0xc
 6141 0589 180A0000 		.4byte	.LASF165
 6142 058d 03       		.sleb128 3
 6143 058e 0C       		.uleb128 0xc
 6144 058f 4E000000 		.4byte	.LASF166
 6145 0593 04       		.sleb128 4
 6146 0594 00       		.byte	0
 6147 0595 04       		.uleb128 0x4
 6148 0596 433F0000 		.4byte	.LASF167
 6149 059a 08       		.byte	0x8
 6150 059b B4       		.byte	0xb4
 6151 059c 6E050000 		.4byte	0x56e
 6152 05a0 0B       		.uleb128 0xb
 6153 05a1 01       		.byte	0x1
 6154 05a2 08       		.byte	0x8
 6155 05a3 D2       		.byte	0xd2
 6156 05a4 C7050000 		.4byte	0x5c7
 6157 05a8 0C       		.uleb128 0xc
 6158 05a9 F1080000 		.4byte	.LASF168
 6159 05ad 00       		.sleb128 0
 6160 05ae 0C       		.uleb128 0xc
 6161 05af F8410000 		.4byte	.LASF169
 6162 05b3 01       		.sleb128 1
 6163 05b4 0C       		.uleb128 0xc
 6164 05b5 A1140000 		.4byte	.LASF170
 6165 05b9 02       		.sleb128 2
 6166 05ba 0C       		.uleb128 0xc
 6167 05bb B5020000 		.4byte	.LASF171
 6168 05bf 03       		.sleb128 3
 6169 05c0 0C       		.uleb128 0xc
 6170 05c1 123C0000 		.4byte	.LASF172
 6171 05c5 04       		.sleb128 4
 6172 05c6 00       		.byte	0
 6173 05c7 04       		.uleb128 0x4
 6174 05c8 98030000 		.4byte	.LASF173
 6175 05cc 08       		.byte	0x8
 6176 05cd E4       		.byte	0xe4
 6177 05ce A0050000 		.4byte	0x5a0
 6178 05d2 0B       		.uleb128 0xb
 6179 05d3 01       		.byte	0x1
 6180 05d4 08       		.byte	0x8
 6181 05d5 E8       		.byte	0xe8
 6182 05d6 29060000 		.4byte	0x629
 6183 05da 0C       		.uleb128 0xc
 6184 05db 232F0000 		.4byte	.LASF174
 6185 05df 00       		.sleb128 0
ARM GAS  C:\Users\Helon\AppData\Local\Temp\ccKCxrf8.s 			page 178


 6186 05e0 0C       		.uleb128 0xc
 6187 05e1 DD090000 		.4byte	.LASF175
 6188 05e5 01       		.sleb128 1
 6189 05e6 0C       		.uleb128 0xc
 6190 05e7 56300000 		.4byte	.LASF176
 6191 05eb 02       		.sleb128 2
 6192 05ec 0C       		.uleb128 0xc
 6193 05ed 1F1F0000 		.4byte	.LASF177
 6194 05f1 03       		.sleb128 3
 6195 05f2 0C       		.uleb128 0xc
 6196 05f3 150D0000 		.4byte	.LASF178
 6197 05f7 04       		.sleb128 4
 6198 05f8 0C       		.uleb128 0xc
 6199 05f9 3B360000 		.4byte	.LASF179
 6200 05fd 05       		.sleb128 5
 6201 05fe 0C       		.uleb128 0xc
 6202 05ff 24230000 		.4byte	.LASF180
 6203 0603 06       		.sleb128 6
 6204 0604 0C       		.uleb128 0xc
 6205 0605 F41E0000 		.4byte	.LASF181
 6206 0609 07       		.sleb128 7
 6207 060a 0C       		.uleb128 0xc
 6208 060b 6E070000 		.4byte	.LASF182
 6209 060f 08       		.sleb128 8
 6210 0610 0C       		.uleb128 0xc
 6211 0611 6A210000 		.4byte	.LASF183
 6212 0615 09       		.sleb128 9
 6213 0616 0C       		.uleb128 0xc
 6214 0617 C5120000 		.4byte	.LASF184
 6215 061b 0A       		.sleb128 10
 6216 061c 0C       		.uleb128 0xc
 6217 061d 20070000 		.4byte	.LASF185
 6218 0621 15       		.sleb128 21
 6219 0622 0C       		.uleb128 0xc
 6220 0623 8D1B0000 		.4byte	.LASF186
 6221 0627 18       		.sleb128 24
 6222 0628 00       		.byte	0
 6223 0629 06       		.uleb128 0x6
 6224 062a 7E2B0000 		.4byte	.LASF187
 6225 062e 08       		.byte	0x8
 6226 062f 1401     		.2byte	0x114
 6227 0631 D2050000 		.4byte	0x5d2
 6228 0635 0E       		.uleb128 0xe
 6229 0636 04       		.byte	0x4
 6230 0637 08       		.byte	0x8
 6231 0638 2D01     		.2byte	0x12d
 6232 063a 73060000 		.4byte	0x673
 6233 063e 0F       		.uleb128 0xf
 6234 063f 9A3A0000 		.4byte	.LASF188
 6235 0643 08       		.byte	0x8
 6236 0644 3601     		.2byte	0x136
 6237 0646 E0000000 		.4byte	0xe0
 6238 064a 00       		.byte	0
 6239 064b 0F       		.uleb128 0xf
 6240 064c 6B280000 		.4byte	.LASF189
 6241 0650 08       		.byte	0x8
 6242 0651 3C01     		.2byte	0x13c
ARM GAS  C:\Users\Helon\AppData\Local\Temp\ccKCxrf8.s 			page 179


 6243 0653 E0000000 		.4byte	0xe0
 6244 0657 01       		.byte	0x1
 6245 0658 0F       		.uleb128 0xf
 6246 0659 02010000 		.4byte	.LASF190
 6247 065d 08       		.byte	0x8
 6248 065e 4201     		.2byte	0x142
 6249 0660 E0000000 		.4byte	0xe0
 6250 0664 02       		.byte	0x2
 6251 0665 0F       		.uleb128 0xf
 6252 0666 E83A0000 		.4byte	.LASF191
 6253 066a 08       		.byte	0x8
 6254 066b 4601     		.2byte	0x146
 6255 066d 29060000 		.4byte	0x629
 6256 0671 03       		.byte	0x3
 6257 0672 00       		.byte	0
 6258 0673 06       		.uleb128 0x6
 6259 0674 8B140000 		.4byte	.LASF192
 6260 0678 08       		.byte	0x8
 6261 0679 4801     		.2byte	0x148
 6262 067b 35060000 		.4byte	0x635
 6263 067f 0E       		.uleb128 0xe
 6264 0680 1D       		.byte	0x1d
 6265 0681 08       		.byte	0x8
 6266 0682 4C01     		.2byte	0x14c
 6267 0684 A3060000 		.4byte	0x6a3
 6268 0688 0F       		.uleb128 0xf
 6269 0689 AC270000 		.4byte	.LASF193
 6270 068d 08       		.byte	0x8
 6271 068e 4F01     		.2byte	0x14f
 6272 0690 E0000000 		.4byte	0xe0
 6273 0694 00       		.byte	0
 6274 0695 0F       		.uleb128 0xf
 6275 0696 43000000 		.4byte	.LASF194
 6276 069a 08       		.byte	0x8
 6277 069b 5401     		.2byte	0x154
 6278 069d A3060000 		.4byte	0x6a3
 6279 06a1 01       		.byte	0x1
 6280 06a2 00       		.byte	0
 6281 06a3 10       		.uleb128 0x10
 6282 06a4 0F050000 		.4byte	0x50f
 6283 06a8 B3060000 		.4byte	0x6b3
 6284 06ac 11       		.uleb128 0x11
 6285 06ad 59010000 		.4byte	0x159
 6286 06b1 03       		.byte	0x3
 6287 06b2 00       		.byte	0
 6288 06b3 06       		.uleb128 0x6
 6289 06b4 1C430000 		.4byte	.LASF195
 6290 06b8 08       		.byte	0x8
 6291 06b9 5601     		.2byte	0x156
 6292 06bb 7F060000 		.4byte	0x67f
 6293 06bf 0E       		.uleb128 0xe
 6294 06c0 10       		.byte	0x10
 6295 06c1 08       		.byte	0x8
 6296 06c2 6E01     		.2byte	0x16e
 6297 06c4 31070000 		.4byte	0x731
 6298 06c8 0F       		.uleb128 0xf
 6299 06c9 74120000 		.4byte	.LASF196
ARM GAS  C:\Users\Helon\AppData\Local\Temp\ccKCxrf8.s 			page 180


 6300 06cd 08       		.byte	0x8
 6301 06ce 7401     		.2byte	0x174
 6302 06d0 EB000000 		.4byte	0xeb
 6303 06d4 00       		.byte	0
 6304 06d5 0F       		.uleb128 0xf
 6305 06d6 79480000 		.4byte	.LASF197
 6306 06da 08       		.byte	0x8
 6307 06db 7A01     		.2byte	0x17a
 6308 06dd EB000000 		.4byte	0xeb
 6309 06e1 02       		.byte	0x2
 6310 06e2 0F       		.uleb128 0xf
 6311 06e3 A11D0000 		.4byte	.LASF198
 6312 06e7 08       		.byte	0x8
 6313 06e8 8301     		.2byte	0x183
 6314 06ea 63050000 		.4byte	0x563
 6315 06ee 04       		.byte	0x4
 6316 06ef 0F       		.uleb128 0xf
 6317 06f0 7B470000 		.4byte	.LASF199
 6318 06f4 08       		.byte	0x8
 6319 06f5 8901     		.2byte	0x189
 6320 06f7 E0000000 		.4byte	0xe0
 6321 06fb 05       		.byte	0x5
 6322 06fc 0F       		.uleb128 0xf
 6323 06fd D6250000 		.4byte	.LASF200
 6324 0701 08       		.byte	0x8
 6325 0702 9001     		.2byte	0x190
 6326 0704 E0000000 		.4byte	0xe0
 6327 0708 06       		.byte	0x6
 6328 0709 0F       		.uleb128 0xf
 6329 070a 0D440000 		.4byte	.LASF201
 6330 070e 08       		.byte	0x8
 6331 070f 9601     		.2byte	0x196
 6332 0711 FF040000 		.4byte	0x4ff
 6333 0715 07       		.byte	0x7
 6334 0716 0F       		.uleb128 0xf
 6335 0717 38440000 		.4byte	.LASF202
 6336 071b 08       		.byte	0x8
 6337 071c 9E01     		.2byte	0x19e
 6338 071e E0000000 		.4byte	0xe0
 6339 0722 0D       		.byte	0xd
 6340 0723 0F       		.uleb128 0xf
 6341 0724 FC1C0000 		.4byte	.LASF203
 6342 0728 08       		.byte	0x8
 6343 0729 AA01     		.2byte	0x1aa
 6344 072b E0000000 		.4byte	0xe0
 6345 072f 0E       		.byte	0xe
 6346 0730 00       		.byte	0
 6347 0731 06       		.uleb128 0x6
 6348 0732 A21C0000 		.4byte	.LASF204
 6349 0736 08       		.byte	0x8
 6350 0737 AC01     		.2byte	0x1ac
 6351 0739 BF060000 		.4byte	0x6bf
 6352 073d 0E       		.uleb128 0xe
 6353 073e 20       		.byte	0x20
 6354 073f 08       		.byte	0x8
 6355 0740 AF01     		.2byte	0x1af
 6356 0742 61070000 		.4byte	0x761
ARM GAS  C:\Users\Helon\AppData\Local\Temp\ccKCxrf8.s 			page 181


 6357 0746 0F       		.uleb128 0xf
 6358 0747 C12B0000 		.4byte	.LASF205
 6359 074b 08       		.byte	0x8
 6360 074c B201     		.2byte	0x1b2
 6361 074e 61070000 		.4byte	0x761
 6362 0752 00       		.byte	0
 6363 0753 0F       		.uleb128 0xf
 6364 0754 E7350000 		.4byte	.LASF206
 6365 0758 08       		.byte	0x8
 6366 0759 B501     		.2byte	0x1b5
 6367 075b E0000000 		.4byte	0xe0
 6368 075f 1F       		.byte	0x1f
 6369 0760 00       		.byte	0
 6370 0761 10       		.uleb128 0x10
 6371 0762 E0000000 		.4byte	0xe0
 6372 0766 71070000 		.4byte	0x771
 6373 076a 11       		.uleb128 0x11
 6374 076b 59010000 		.4byte	0x159
 6375 076f 1E       		.byte	0x1e
 6376 0770 00       		.byte	0
 6377 0771 06       		.uleb128 0x6
 6378 0772 17130000 		.4byte	.LASF207
 6379 0776 08       		.byte	0x8
 6380 0777 B701     		.2byte	0x1b7
 6381 0779 3D070000 		.4byte	0x73d
 6382 077d 0E       		.uleb128 0xe
 6383 077e 20       		.byte	0x20
 6384 077f 08       		.byte	0x8
 6385 0780 BA01     		.2byte	0x1ba
 6386 0782 A1070000 		.4byte	0x7a1
 6387 0786 0F       		.uleb128 0xf
 6388 0787 62000000 		.4byte	.LASF208
 6389 078b 08       		.byte	0x8
 6390 078c BE01     		.2byte	0x1be
 6391 078e 61070000 		.4byte	0x761
 6392 0792 00       		.byte	0
 6393 0793 0F       		.uleb128 0xf
 6394 0794 733B0000 		.4byte	.LASF209
 6395 0798 08       		.byte	0x8
 6396 0799 C101     		.2byte	0x1c1
 6397 079b E0000000 		.4byte	0xe0
 6398 079f 1F       		.byte	0x1f
 6399 07a0 00       		.byte	0
 6400 07a1 06       		.uleb128 0x6
 6401 07a2 88390000 		.4byte	.LASF210
 6402 07a6 08       		.byte	0x8
 6403 07a7 C301     		.2byte	0x1c3
 6404 07a9 7D070000 		.4byte	0x77d
 6405 07ad 0E       		.uleb128 0xe
 6406 07ae 14       		.byte	0x14
 6407 07af 08       		.byte	0x8
 6408 07b0 C601     		.2byte	0x1c6
 6409 07b2 F8070000 		.4byte	0x7f8
 6410 07b6 0F       		.uleb128 0xf
 6411 07b7 29050000 		.4byte	.LASF211
 6412 07bb 08       		.byte	0x8
 6413 07bc CE01     		.2byte	0x1ce
ARM GAS  C:\Users\Helon\AppData\Local\Temp\ccKCxrf8.s 			page 182


 6414 07be E0000000 		.4byte	0xe0
 6415 07c2 00       		.byte	0
 6416 07c3 0F       		.uleb128 0xf
 6417 07c4 47240000 		.4byte	.LASF212
 6418 07c8 08       		.byte	0x8
 6419 07c9 D101     		.2byte	0x1d1
 6420 07cb F8070000 		.4byte	0x7f8
 6421 07cf 04       		.byte	0x4
 6422 07d0 0F       		.uleb128 0xf
 6423 07d1 C12B0000 		.4byte	.LASF205
 6424 07d5 08       		.byte	0x8
 6425 07d6 D301     		.2byte	0x1d3
 6426 07d8 FE070000 		.4byte	0x7fe
 6427 07dc 08       		.byte	0x8
 6428 07dd 0F       		.uleb128 0xf
 6429 07de 62000000 		.4byte	.LASF208
 6430 07e2 08       		.byte	0x8
 6431 07e3 D501     		.2byte	0x1d5
 6432 07e5 04080000 		.4byte	0x804
 6433 07e9 0C       		.byte	0xc
 6434 07ea 0F       		.uleb128 0xf
 6435 07eb 042E0000 		.4byte	.LASF213
 6436 07ef 08       		.byte	0x8
 6437 07f0 DF01     		.2byte	0x1df
 6438 07f2 EB000000 		.4byte	0xeb
 6439 07f6 10       		.byte	0x10
 6440 07f7 00       		.byte	0
 6441 07f8 07       		.uleb128 0x7
 6442 07f9 04       		.byte	0x4
 6443 07fa 31070000 		.4byte	0x731
 6444 07fe 07       		.uleb128 0x7
 6445 07ff 04       		.byte	0x4
 6446 0800 71070000 		.4byte	0x771
 6447 0804 07       		.uleb128 0x7
 6448 0805 04       		.byte	0x4
 6449 0806 A1070000 		.4byte	0x7a1
 6450 080a 06       		.uleb128 0x6
 6451 080b AA360000 		.4byte	.LASF214
 6452 080f 08       		.byte	0x8
 6453 0810 E101     		.2byte	0x1e1
 6454 0812 AD070000 		.4byte	0x7ad
 6455 0816 0E       		.uleb128 0xe
 6456 0817 14       		.byte	0x14
 6457 0818 08       		.byte	0x8
 6458 0819 6802     		.2byte	0x268
 6459 081b 6E080000 		.4byte	0x86e
 6460 081f 0F       		.uleb128 0xf
 6461 0820 3B410000 		.4byte	.LASF215
 6462 0824 08       		.byte	0x8
 6463 0825 7102     		.2byte	0x271
 6464 0827 95050000 		.4byte	0x595
 6465 082b 00       		.byte	0
 6466 082c 0F       		.uleb128 0xf
 6467 082d E23D0000 		.4byte	.LASF216
 6468 0831 08       		.byte	0x8
 6469 0832 7702     		.2byte	0x277
 6470 0834 E0000000 		.4byte	0xe0
ARM GAS  C:\Users\Helon\AppData\Local\Temp\ccKCxrf8.s 			page 183


 6471 0838 01       		.byte	0x1
 6472 0839 0F       		.uleb128 0xf
 6473 083a B6100000 		.4byte	.LASF217
 6474 083e 08       		.byte	0x8
 6475 083f 7B02     		.2byte	0x27b
 6476 0841 6E080000 		.4byte	0x86e
 6477 0845 04       		.byte	0x4
 6478 0846 0F       		.uleb128 0xf
 6479 0847 E90B0000 		.4byte	.LASF218
 6480 084b 08       		.byte	0x8
 6481 084c 7E02     		.2byte	0x27e
 6482 084e E0000000 		.4byte	0xe0
 6483 0852 08       		.byte	0x8
 6484 0853 0F       		.uleb128 0xf
 6485 0854 79460000 		.4byte	.LASF219
 6486 0858 08       		.byte	0x8
 6487 0859 8102     		.2byte	0x281
 6488 085b 6E080000 		.4byte	0x86e
 6489 085f 0C       		.byte	0xc
 6490 0860 0F       		.uleb128 0xf
 6491 0861 1E460000 		.4byte	.LASF220
 6492 0865 08       		.byte	0x8
 6493 0866 8602     		.2byte	0x286
 6494 0868 01010000 		.4byte	0x101
 6495 086c 10       		.byte	0x10
 6496 086d 00       		.byte	0
 6497 086e 07       		.uleb128 0x7
 6498 086f 04       		.byte	0x4
 6499 0870 E0000000 		.4byte	0xe0
 6500 0874 06       		.uleb128 0x6
 6501 0875 2D470000 		.4byte	.LASF221
 6502 0879 08       		.byte	0x8
 6503 087a 8802     		.2byte	0x288
 6504 087c 16080000 		.4byte	0x816
 6505 0880 0E       		.uleb128 0xe
 6506 0881 08       		.byte	0x8
 6507 0882 08       		.byte	0x8
 6508 0883 9602     		.2byte	0x296
 6509 0885 BE080000 		.4byte	0x8be
 6510 0889 0F       		.uleb128 0xf
 6511 088a D80D0000 		.4byte	.LASF222
 6512 088e 08       		.byte	0x8
 6513 088f 9D02     		.2byte	0x29d
 6514 0891 EB000000 		.4byte	0xeb
 6515 0895 00       		.byte	0
 6516 0896 0F       		.uleb128 0xf
 6517 0897 4D430000 		.4byte	.LASF223
 6518 089b 08       		.byte	0x8
 6519 089c A402     		.2byte	0x2a4
 6520 089e EB000000 		.4byte	0xeb
 6521 08a2 02       		.byte	0x2
 6522 08a3 0F       		.uleb128 0xf
 6523 08a4 EC410000 		.4byte	.LASF224
 6524 08a8 08       		.byte	0x8
 6525 08a9 A902     		.2byte	0x2a9
 6526 08ab EB000000 		.4byte	0xeb
 6527 08af 04       		.byte	0x4
ARM GAS  C:\Users\Helon\AppData\Local\Temp\ccKCxrf8.s 			page 184


 6528 08b0 0F       		.uleb128 0xf
 6529 08b1 73450000 		.4byte	.LASF225
 6530 08b5 08       		.byte	0x8
 6531 08b6 AF02     		.2byte	0x2af
 6532 08b8 EB000000 		.4byte	0xeb
 6533 08bc 06       		.byte	0x6
 6534 08bd 00       		.byte	0
 6535 08be 06       		.uleb128 0x6
 6536 08bf 7A1D0000 		.4byte	.LASF226
 6537 08c3 08       		.byte	0x8
 6538 08c4 B102     		.2byte	0x2b1
 6539 08c6 80080000 		.4byte	0x880
 6540 08ca 0E       		.uleb128 0xe
 6541 08cb 08       		.byte	0x8
 6542 08cc 08       		.byte	0x8
 6543 08cd B402     		.2byte	0x2b4
 6544 08cf 08090000 		.4byte	0x908
 6545 08d3 0F       		.uleb128 0xf
 6546 08d4 A11E0000 		.4byte	.LASF227
 6547 08d8 08       		.byte	0x8
 6548 08d9 B802     		.2byte	0x2b8
 6549 08db E0000000 		.4byte	0xe0
 6550 08df 00       		.byte	0
 6551 08e0 0F       		.uleb128 0xf
 6552 08e1 B8430000 		.4byte	.LASF228
 6553 08e5 08       		.byte	0x8
 6554 08e6 BE02     		.2byte	0x2be
 6555 08e8 EB000000 		.4byte	0xeb
 6556 08ec 02       		.byte	0x2
 6557 08ed 0F       		.uleb128 0xf
 6558 08ee EC410000 		.4byte	.LASF224
 6559 08f2 08       		.byte	0x8
 6560 08f3 C302     		.2byte	0x2c3
 6561 08f5 EB000000 		.4byte	0xeb
 6562 08f9 04       		.byte	0x4
 6563 08fa 0F       		.uleb128 0xf
 6564 08fb 73450000 		.4byte	.LASF225
 6565 08ff 08       		.byte	0x8
 6566 0900 C902     		.2byte	0x2c9
 6567 0902 EB000000 		.4byte	0xeb
 6568 0906 06       		.byte	0x6
 6569 0907 00       		.byte	0
 6570 0908 06       		.uleb128 0x6
 6571 0909 4A310000 		.4byte	.LASF229
 6572 090d 08       		.byte	0x8
 6573 090e CB02     		.2byte	0x2cb
 6574 0910 CA080000 		.4byte	0x8ca
 6575 0914 06       		.uleb128 0x6
 6576 0915 9D320000 		.4byte	.LASF230
 6577 0919 09       		.byte	0x9
 6578 091a 8801     		.2byte	0x188
 6579 091c EB000000 		.4byte	0xeb
 6580 0920 0E       		.uleb128 0xe
 6581 0921 02       		.byte	0x2
 6582 0922 09       		.byte	0x9
 6583 0923 9201     		.2byte	0x192
 6584 0925 44090000 		.4byte	0x944
ARM GAS  C:\Users\Helon\AppData\Local\Temp\ccKCxrf8.s 			page 185


 6585 0929 0F       		.uleb128 0xf
 6586 092a 8D090000 		.4byte	.LASF231
 6587 092e 09       		.byte	0x9
 6588 092f 9901     		.2byte	0x199
 6589 0931 E0000000 		.4byte	0xe0
 6590 0935 00       		.byte	0
 6591 0936 0F       		.uleb128 0xf
 6592 0937 FC440000 		.4byte	.LASF232
 6593 093b 09       		.byte	0x9
 6594 093c 9F01     		.2byte	0x19f
 6595 093e E0000000 		.4byte	0xe0
 6596 0942 01       		.byte	0x1
 6597 0943 00       		.byte	0
 6598 0944 06       		.uleb128 0x6
 6599 0945 6C080000 		.4byte	.LASF233
 6600 0949 09       		.byte	0x9
 6601 094a A101     		.2byte	0x1a1
 6602 094c 20090000 		.4byte	0x920
 6603 0950 0E       		.uleb128 0xe
 6604 0951 08       		.byte	0x8
 6605 0952 09       		.byte	0x9
 6606 0953 BD01     		.2byte	0x1bd
 6607 0955 81090000 		.4byte	0x981
 6608 0959 12       		.uleb128 0x12
 6609 095a 76616C00 		.ascii	"val\000"
 6610 095e 09       		.byte	0x9
 6611 095f C001     		.2byte	0x1c0
 6612 0961 6E080000 		.4byte	0x86e
 6613 0965 00       		.byte	0
 6614 0966 12       		.uleb128 0x12
 6615 0967 6C656E00 		.ascii	"len\000"
 6616 096b 09       		.byte	0x9
 6617 096c C301     		.2byte	0x1c3
 6618 096e EB000000 		.4byte	0xeb
 6619 0972 04       		.byte	0x4
 6620 0973 0F       		.uleb128 0xf
 6621 0974 2E440000 		.4byte	.LASF234
 6622 0978 09       		.byte	0x9
 6623 0979 CA01     		.2byte	0x1ca
 6624 097b EB000000 		.4byte	0xeb
 6625 097f 06       		.byte	0x6
 6626 0980 00       		.byte	0
 6627 0981 06       		.uleb128 0x6
 6628 0982 88060000 		.4byte	.LASF235
 6629 0986 09       		.byte	0x9
 6630 0987 CC01     		.2byte	0x1cc
 6631 0989 50090000 		.4byte	0x950
 6632 098d 0E       		.uleb128 0xe
 6633 098e 0C       		.byte	0xc
 6634 098f 09       		.byte	0x9
 6635 0990 CF01     		.2byte	0x1cf
 6636 0992 B1090000 		.4byte	0x9b1
 6637 0996 0F       		.uleb128 0xf
 6638 0997 0E330000 		.4byte	.LASF236
 6639 099b 09       		.byte	0x9
 6640 099c D201     		.2byte	0x1d2
 6641 099e 81090000 		.4byte	0x981
ARM GAS  C:\Users\Helon\AppData\Local\Temp\ccKCxrf8.s 			page 186


 6642 09a2 00       		.byte	0
 6643 09a3 0F       		.uleb128 0xf
 6644 09a4 20280000 		.4byte	.LASF237
 6645 09a8 09       		.byte	0x9
 6646 09a9 D501     		.2byte	0x1d5
 6647 09ab 14090000 		.4byte	0x914
 6648 09af 08       		.byte	0x8
 6649 09b0 00       		.byte	0
 6650 09b1 06       		.uleb128 0x6
 6651 09b2 020E0000 		.4byte	.LASF238
 6652 09b6 09       		.byte	0x9
 6653 09b7 D701     		.2byte	0x1d7
 6654 09b9 8D090000 		.4byte	0x98d
 6655 09bd 0E       		.uleb128 0xe
 6656 09be 04       		.byte	0x4
 6657 09bf 09       		.byte	0x9
 6658 09c0 DA01     		.2byte	0x1da
 6659 09c2 E1090000 		.4byte	0x9e1
 6660 09c6 0F       		.uleb128 0xf
 6661 09c7 BA1C0000 		.4byte	.LASF239
 6662 09cb 09       		.byte	0x9
 6663 09cc DD01     		.2byte	0x1dd
 6664 09ce 14090000 		.4byte	0x914
 6665 09d2 00       		.byte	0
 6666 09d3 0F       		.uleb128 0xf
 6667 09d4 743E0000 		.4byte	.LASF240
 6668 09d8 09       		.byte	0x9
 6669 09d9 E001     		.2byte	0x1e0
 6670 09db 14090000 		.4byte	0x914
 6671 09df 02       		.byte	0x2
 6672 09e0 00       		.byte	0
 6673 09e1 06       		.uleb128 0x6
 6674 09e2 333C0000 		.4byte	.LASF241
 6675 09e6 09       		.byte	0x9
 6676 09e7 E201     		.2byte	0x1e2
 6677 09e9 BD090000 		.4byte	0x9bd
 6678 09ed 04       		.uleb128 0x4
 6679 09ee A0000000 		.4byte	.LASF242
 6680 09f2 0A       		.byte	0xa
 6681 09f3 34       		.byte	0x34
 6682 09f4 B1090000 		.4byte	0x9b1
 6683 09f8 13       		.uleb128 0x13
 6684 09f9 10       		.byte	0x10
 6685 09fa 0A       		.byte	0xa
 6686 09fb 8A       		.byte	0x8a
 6687 09fc 190A0000 		.4byte	0xa19
 6688 0a00 14       		.uleb128 0x14
 6689 0a01 A7350000 		.4byte	.LASF243
 6690 0a05 0A       		.byte	0xa
 6691 0a06 8D       		.byte	0x8d
 6692 0a07 44090000 		.4byte	0x944
 6693 0a0b 00       		.byte	0
 6694 0a0c 14       		.uleb128 0x14
 6695 0a0d 67350000 		.4byte	.LASF244
 6696 0a11 0A       		.byte	0xa
 6697 0a12 90       		.byte	0x90
 6698 0a13 B1090000 		.4byte	0x9b1
ARM GAS  C:\Users\Helon\AppData\Local\Temp\ccKCxrf8.s 			page 187


 6699 0a17 04       		.byte	0x4
 6700 0a18 00       		.byte	0
 6701 0a19 04       		.uleb128 0x4
 6702 0a1a 73280000 		.4byte	.LASF245
 6703 0a1e 0A       		.byte	0xa
 6704 0a1f 92       		.byte	0x92
 6705 0a20 F8090000 		.4byte	0x9f8
 6706 0a24 04       		.uleb128 0x4
 6707 0a25 E0400000 		.4byte	.LASF246
 6708 0a29 0B       		.byte	0xb
 6709 0a2a 4F       		.byte	0x4f
 6710 0a2b E1090000 		.4byte	0x9e1
 6711 0a2f 04       		.uleb128 0x4
 6712 0a30 210B0000 		.4byte	.LASF247
 6713 0a34 0B       		.byte	0xb
 6714 0a35 55       		.byte	0x55
 6715 0a36 14090000 		.4byte	0x914
 6716 0a3a 04       		.uleb128 0x4
 6717 0a3b F0300000 		.4byte	.LASF248
 6718 0a3f 0B       		.byte	0xb
 6719 0a40 74       		.byte	0x74
 6720 0a41 B1090000 		.4byte	0x9b1
 6721 0a45 04       		.uleb128 0x4
 6722 0a46 FB0E0000 		.4byte	.LASF249
 6723 0a4a 0B       		.byte	0xb
 6724 0a4b 77       		.byte	0x77
 6725 0a4c B1090000 		.4byte	0x9b1
 6726 0a50 13       		.uleb128 0x13
 6727 0a51 10       		.byte	0x10
 6728 0a52 0B       		.byte	0xb
 6729 0a53 88       		.byte	0x88
 6730 0a54 710A0000 		.4byte	0xa71
 6731 0a58 14       		.uleb128 0x14
 6732 0a59 A7350000 		.4byte	.LASF243
 6733 0a5d 0B       		.byte	0xb
 6734 0a5e 8B       		.byte	0x8b
 6735 0a5f 44090000 		.4byte	0x944
 6736 0a63 00       		.byte	0
 6737 0a64 14       		.uleb128 0x14
 6738 0a65 67350000 		.4byte	.LASF244
 6739 0a69 0B       		.byte	0xb
 6740 0a6a 8E       		.byte	0x8e
 6741 0a6b B1090000 		.4byte	0x9b1
 6742 0a6f 04       		.byte	0x4
 6743 0a70 00       		.byte	0
 6744 0a71 04       		.uleb128 0x4
 6745 0a72 03160000 		.4byte	.LASF250
 6746 0a76 0B       		.byte	0xb
 6747 0a77 90       		.byte	0x90
 6748 0a78 500A0000 		.4byte	0xa50
 6749 0a7c 13       		.uleb128 0x13
 6750 0a7d 08       		.byte	0x8
 6751 0a7e 0B       		.byte	0xb
 6752 0a7f C0       		.byte	0xc0
 6753 0a80 9D0A0000 		.4byte	0xa9d
 6754 0a84 14       		.uleb128 0x14
 6755 0a85 112B0000 		.4byte	.LASF251
ARM GAS  C:\Users\Helon\AppData\Local\Temp\ccKCxrf8.s 			page 188


 6756 0a89 0B       		.byte	0xb
 6757 0a8a C4       		.byte	0xc4
 6758 0a8b 6E080000 		.4byte	0x86e
 6759 0a8f 00       		.byte	0
 6760 0a90 14       		.uleb128 0x14
 6761 0a91 D01C0000 		.4byte	.LASF252
 6762 0a95 0B       		.byte	0xb
 6763 0a96 C7       		.byte	0xc7
 6764 0a97 EB000000 		.4byte	0xeb
 6765 0a9b 04       		.byte	0x4
 6766 0a9c 00       		.byte	0
 6767 0a9d 04       		.uleb128 0x4
 6768 0a9e C0110000 		.4byte	.LASF253
 6769 0aa2 0B       		.byte	0xb
 6770 0aa3 C9       		.byte	0xc9
 6771 0aa4 7C0A0000 		.4byte	0xa7c
 6772 0aa8 13       		.uleb128 0x13
 6773 0aa9 10       		.byte	0x10
 6774 0aaa 0B       		.byte	0xb
 6775 0aab CC       		.byte	0xcc
 6776 0aac D50A0000 		.4byte	0xad5
 6777 0ab0 14       		.uleb128 0x14
 6778 0ab1 A7350000 		.4byte	.LASF243
 6779 0ab5 0B       		.byte	0xb
 6780 0ab6 CF       		.byte	0xcf
 6781 0ab7 44090000 		.4byte	0x944
 6782 0abb 00       		.byte	0
 6783 0abc 14       		.uleb128 0x14
 6784 0abd 49320000 		.4byte	.LASF254
 6785 0ac1 0B       		.byte	0xb
 6786 0ac2 D2       		.byte	0xd2
 6787 0ac3 9D0A0000 		.4byte	0xa9d
 6788 0ac7 04       		.byte	0x4
 6789 0ac8 14       		.uleb128 0x14
 6790 0ac9 A33C0000 		.4byte	.LASF255
 6791 0acd 0B       		.byte	0xb
 6792 0ace D5       		.byte	0xd5
 6793 0acf E0000000 		.4byte	0xe0
 6794 0ad3 0C       		.byte	0xc
 6795 0ad4 00       		.byte	0
 6796 0ad5 04       		.uleb128 0x4
 6797 0ad6 522E0000 		.4byte	.LASF256
 6798 0ada 0B       		.byte	0xb
 6799 0adb D7       		.byte	0xd7
 6800 0adc A80A0000 		.4byte	0xaa8
 6801 0ae0 06       		.uleb128 0x6
 6802 0ae1 B2070000 		.4byte	.LASF257
 6803 0ae5 0C       		.byte	0xc
 6804 0ae6 4101     		.2byte	0x141
 6805 0ae8 EC0A0000 		.4byte	0xaec
 6806 0aec 07       		.uleb128 0x7
 6807 0aed 04       		.byte	0x4
 6808 0aee F20A0000 		.4byte	0xaf2
 6809 0af2 15       		.uleb128 0x15
 6810 0af3 020B0000 		.4byte	0xb02
 6811 0af7 16       		.uleb128 0x16
 6812 0af8 F6000000 		.4byte	0xf6
ARM GAS  C:\Users\Helon\AppData\Local\Temp\ccKCxrf8.s 			page 189


 6813 0afc 16       		.uleb128 0x16
 6814 0afd 60010000 		.4byte	0x160
 6815 0b01 00       		.byte	0
 6816 0b02 0B       		.uleb128 0xb
 6817 0b03 02       		.byte	0x2
 6818 0b04 0D       		.byte	0xd
 6819 0b05 9D       		.byte	0x9d
 6820 0b06 F7110000 		.4byte	0x11f7
 6821 0b0a 0C       		.uleb128 0xc
 6822 0b0b BB290000 		.4byte	.LASF258
 6823 0b0f 8002     		.sleb128 256
 6824 0b11 0C       		.uleb128 0xc
 6825 0b12 EC450000 		.4byte	.LASF259
 6826 0b16 8102     		.sleb128 257
 6827 0b18 0C       		.uleb128 0xc
 6828 0b19 F10B0000 		.4byte	.LASF260
 6829 0b1d 8202     		.sleb128 258
 6830 0b1f 0C       		.uleb128 0xc
 6831 0b20 93450000 		.4byte	.LASF261
 6832 0b24 8302     		.sleb128 259
 6833 0b26 0C       		.uleb128 0xc
 6834 0b27 A1310000 		.4byte	.LASF262
 6835 0b2b 8402     		.sleb128 260
 6836 0b2d 0C       		.uleb128 0xc
 6837 0b2e 253B0000 		.4byte	.LASF263
 6838 0b32 8502     		.sleb128 261
 6839 0b34 0C       		.uleb128 0xc
 6840 0b35 9C120000 		.4byte	.LASF264
 6841 0b39 8602     		.sleb128 262
 6842 0b3b 0C       		.uleb128 0xc
 6843 0b3c 130F0000 		.4byte	.LASF265
 6844 0b40 8702     		.sleb128 263
 6845 0b42 0C       		.uleb128 0xc
 6846 0b43 8D430000 		.4byte	.LASF266
 6847 0b47 8802     		.sleb128 264
 6848 0b49 0C       		.uleb128 0xc
 6849 0b4a 09060000 		.4byte	.LASF267
 6850 0b4e 8902     		.sleb128 265
 6851 0b50 0C       		.uleb128 0xc
 6852 0b51 C3040000 		.4byte	.LASF268
 6853 0b55 8A02     		.sleb128 266
 6854 0b57 0C       		.uleb128 0xc
 6855 0b58 4F340000 		.4byte	.LASF269
 6856 0b5c 8B02     		.sleb128 267
 6857 0b5e 0C       		.uleb128 0xc
 6858 0b5f F7230000 		.4byte	.LASF270
 6859 0b63 8C02     		.sleb128 268
 6860 0b65 0C       		.uleb128 0xc
 6861 0b66 C62F0000 		.4byte	.LASF271
 6862 0b6a 8D02     		.sleb128 269
 6863 0b6c 0C       		.uleb128 0xc
 6864 0b6d 9B040000 		.4byte	.LASF272
 6865 0b71 8E02     		.sleb128 270
 6866 0b73 0C       		.uleb128 0xc
 6867 0b74 44250000 		.4byte	.LASF273
 6868 0b78 8F02     		.sleb128 271
 6869 0b7a 0C       		.uleb128 0xc
ARM GAS  C:\Users\Helon\AppData\Local\Temp\ccKCxrf8.s 			page 190


 6870 0b7b 44080000 		.4byte	.LASF274
 6871 0b7f 9002     		.sleb128 272
 6872 0b81 0C       		.uleb128 0xc
 6873 0b82 BD400000 		.4byte	.LASF275
 6874 0b86 9102     		.sleb128 273
 6875 0b88 0C       		.uleb128 0xc
 6876 0b89 C6130000 		.4byte	.LASF276
 6877 0b8d 9202     		.sleb128 274
 6878 0b8f 0C       		.uleb128 0xc
 6879 0b90 75350000 		.4byte	.LASF277
 6880 0b94 9302     		.sleb128 275
 6881 0b96 0C       		.uleb128 0xc
 6882 0b97 46440000 		.4byte	.LASF278
 6883 0b9b 9402     		.sleb128 276
 6884 0b9d 0C       		.uleb128 0xc
 6885 0b9e C7390000 		.4byte	.LASF279
 6886 0ba2 9502     		.sleb128 277
 6887 0ba4 0C       		.uleb128 0xc
 6888 0ba5 A20B0000 		.4byte	.LASF280
 6889 0ba9 9602     		.sleb128 278
 6890 0bab 0C       		.uleb128 0xc
 6891 0bac 57470000 		.4byte	.LASF281
 6892 0bb0 9702     		.sleb128 279
 6893 0bb2 0C       		.uleb128 0xc
 6894 0bb3 DB270000 		.4byte	.LASF282
 6895 0bb7 9802     		.sleb128 280
 6896 0bb9 0C       		.uleb128 0xc
 6897 0bba 2E180000 		.4byte	.LASF283
 6898 0bbe 9902     		.sleb128 281
 6899 0bc0 0C       		.uleb128 0xc
 6900 0bc1 843C0000 		.4byte	.LASF284
 6901 0bc5 9A02     		.sleb128 282
 6902 0bc7 0C       		.uleb128 0xc
 6903 0bc8 492B0000 		.4byte	.LASF285
 6904 0bcc 9B02     		.sleb128 283
 6905 0bce 0C       		.uleb128 0xc
 6906 0bcf 85400000 		.4byte	.LASF286
 6907 0bd3 9C02     		.sleb128 284
 6908 0bd5 0C       		.uleb128 0xc
 6909 0bd6 D03C0000 		.4byte	.LASF287
 6910 0bda 9D02     		.sleb128 285
 6911 0bdc 0C       		.uleb128 0xc
 6912 0bdd 7E460000 		.4byte	.LASF288
 6913 0be1 9E02     		.sleb128 286
 6914 0be3 0C       		.uleb128 0xc
 6915 0be4 701F0000 		.4byte	.LASF289
 6916 0be8 9F02     		.sleb128 287
 6917 0bea 0C       		.uleb128 0xc
 6918 0beb B91B0000 		.4byte	.LASF290
 6919 0bef A002     		.sleb128 288
 6920 0bf1 0C       		.uleb128 0xc
 6921 0bf2 56050000 		.4byte	.LASF291
 6922 0bf6 A102     		.sleb128 289
 6923 0bf8 0C       		.uleb128 0xc
 6924 0bf9 B6240000 		.4byte	.LASF292
 6925 0bfd A202     		.sleb128 290
 6926 0bff 0C       		.uleb128 0xc
ARM GAS  C:\Users\Helon\AppData\Local\Temp\ccKCxrf8.s 			page 191


 6927 0c00 27200000 		.4byte	.LASF293
 6928 0c04 A302     		.sleb128 291
 6929 0c06 0C       		.uleb128 0xc
 6930 0c07 C2350000 		.4byte	.LASF294
 6931 0c0b A402     		.sleb128 292
 6932 0c0d 0C       		.uleb128 0xc
 6933 0c0e 072F0000 		.4byte	.LASF295
 6934 0c12 A502     		.sleb128 293
 6935 0c14 0C       		.uleb128 0xc
 6936 0c15 7E3E0000 		.4byte	.LASF296
 6937 0c19 A602     		.sleb128 294
 6938 0c1b 0C       		.uleb128 0xc
 6939 0c1c 01100000 		.4byte	.LASF297
 6940 0c20 A702     		.sleb128 295
 6941 0c22 0C       		.uleb128 0xc
 6942 0c23 210E0000 		.4byte	.LASF298
 6943 0c27 A802     		.sleb128 296
 6944 0c29 0C       		.uleb128 0xc
 6945 0c2a 88050000 		.4byte	.LASF299
 6946 0c2e A902     		.sleb128 297
 6947 0c30 0C       		.uleb128 0xc
 6948 0c31 B03B0000 		.4byte	.LASF300
 6949 0c35 AA02     		.sleb128 298
 6950 0c37 0C       		.uleb128 0xc
 6951 0c38 07040000 		.4byte	.LASF301
 6952 0c3c AB02     		.sleb128 299
 6953 0c3e 0C       		.uleb128 0xc
 6954 0c3f 2B040000 		.4byte	.LASF302
 6955 0c43 AC02     		.sleb128 300
 6956 0c45 0C       		.uleb128 0xc
 6957 0c46 7E000000 		.4byte	.LASF303
 6958 0c4a AD02     		.sleb128 301
 6959 0c4c 0C       		.uleb128 0xc
 6960 0c4d EB320000 		.4byte	.LASF304
 6961 0c51 AE02     		.sleb128 302
 6962 0c53 0C       		.uleb128 0xc
 6963 0c54 23460000 		.4byte	.LASF305
 6964 0c58 AF02     		.sleb128 303
 6965 0c5a 0C       		.uleb128 0xc
 6966 0c5b 4C070000 		.4byte	.LASF306
 6967 0c5f B002     		.sleb128 304
 6968 0c61 0C       		.uleb128 0xc
 6969 0c62 12290000 		.4byte	.LASF307
 6970 0c66 B102     		.sleb128 305
 6971 0c68 0C       		.uleb128 0xc
 6972 0c69 A8010000 		.4byte	.LASF308
 6973 0c6d B202     		.sleb128 306
 6974 0c6f 0C       		.uleb128 0xc
 6975 0c70 A1170000 		.4byte	.LASF309
 6976 0c74 B302     		.sleb128 307
 6977 0c76 0C       		.uleb128 0xc
 6978 0c77 C32A0000 		.4byte	.LASF310
 6979 0c7b B402     		.sleb128 308
 6980 0c7d 0C       		.uleb128 0xc
 6981 0c7e A31A0000 		.4byte	.LASF311
 6982 0c82 B502     		.sleb128 309
 6983 0c84 0C       		.uleb128 0xc
ARM GAS  C:\Users\Helon\AppData\Local\Temp\ccKCxrf8.s 			page 192


 6984 0c85 96070000 		.4byte	.LASF312
 6985 0c89 B602     		.sleb128 310
 6986 0c8b 0C       		.uleb128 0xc
 6987 0c8c 74020000 		.4byte	.LASF313
 6988 0c90 B702     		.sleb128 311
 6989 0c92 0C       		.uleb128 0xc
 6990 0c93 3B0A0000 		.4byte	.LASF314
 6991 0c97 B802     		.sleb128 312
 6992 0c99 0C       		.uleb128 0xc
 6993 0c9a 30330000 		.4byte	.LASF315
 6994 0c9e B902     		.sleb128 313
 6995 0ca0 0C       		.uleb128 0xc
 6996 0ca1 063B0000 		.4byte	.LASF316
 6997 0ca5 BA02     		.sleb128 314
 6998 0ca7 0C       		.uleb128 0xc
 6999 0ca8 1A090000 		.4byte	.LASF317
 7000 0cac BB02     		.sleb128 315
 7001 0cae 0C       		.uleb128 0xc
 7002 0caf 662D0000 		.4byte	.LASF318
 7003 0cb3 BC02     		.sleb128 316
 7004 0cb5 0C       		.uleb128 0xc
 7005 0cb6 E13F0000 		.4byte	.LASF319
 7006 0cba BD02     		.sleb128 317
 7007 0cbc 0C       		.uleb128 0xc
 7008 0cbd 93240000 		.4byte	.LASF320
 7009 0cc1 BE02     		.sleb128 318
 7010 0cc3 0C       		.uleb128 0xc
 7011 0cc4 36400000 		.4byte	.LASF321
 7012 0cc8 BF02     		.sleb128 319
 7013 0cca 0C       		.uleb128 0xc
 7014 0ccb 9B090000 		.4byte	.LASF322
 7015 0ccf C002     		.sleb128 320
 7016 0cd1 0C       		.uleb128 0xc
 7017 0cd2 122E0000 		.4byte	.LASF323
 7018 0cd6 C102     		.sleb128 321
 7019 0cd8 0C       		.uleb128 0xc
 7020 0cd9 F6420000 		.4byte	.LASF324
 7021 0cdd C202     		.sleb128 322
 7022 0cdf 0C       		.uleb128 0xc
 7023 0ce0 FC400000 		.4byte	.LASF325
 7024 0ce4 C302     		.sleb128 323
 7025 0ce6 0C       		.uleb128 0xc
 7026 0ce7 C4000000 		.4byte	.LASF326
 7027 0ceb C402     		.sleb128 324
 7028 0ced 0C       		.uleb128 0xc
 7029 0cee D33B0000 		.4byte	.LASF327
 7030 0cf2 C502     		.sleb128 325
 7031 0cf4 0C       		.uleb128 0xc
 7032 0cf5 13210000 		.4byte	.LASF328
 7033 0cf9 C602     		.sleb128 326
 7034 0cfb 0C       		.uleb128 0xc
 7035 0cfc E4390000 		.4byte	.LASF329
 7036 0d00 C702     		.sleb128 327
 7037 0d02 0C       		.uleb128 0xc
 7038 0d03 5E370000 		.4byte	.LASF330
 7039 0d07 C802     		.sleb128 328
 7040 0d09 0C       		.uleb128 0xc
ARM GAS  C:\Users\Helon\AppData\Local\Temp\ccKCxrf8.s 			page 193


 7041 0d0a 1F020000 		.4byte	.LASF331
 7042 0d0e C902     		.sleb128 329
 7043 0d10 0C       		.uleb128 0xc
 7044 0d11 17360000 		.4byte	.LASF332
 7045 0d15 CA02     		.sleb128 330
 7046 0d17 0C       		.uleb128 0xc
 7047 0d18 6F110000 		.4byte	.LASF333
 7048 0d1c CB02     		.sleb128 331
 7049 0d1e 0C       		.uleb128 0xc
 7050 0d1f C90A0000 		.4byte	.LASF334
 7051 0d23 CC02     		.sleb128 332
 7052 0d25 0C       		.uleb128 0xc
 7053 0d26 A60A0000 		.4byte	.LASF335
 7054 0d2a CD02     		.sleb128 333
 7055 0d2c 0C       		.uleb128 0xc
 7056 0d2d 4B110000 		.4byte	.LASF336
 7057 0d31 CE02     		.sleb128 334
 7058 0d33 0C       		.uleb128 0xc
 7059 0d34 AA220000 		.4byte	.LASF337
 7060 0d38 CF02     		.sleb128 335
 7061 0d3a 0C       		.uleb128 0xc
 7062 0d3b BB440000 		.4byte	.LASF338
 7063 0d3f D002     		.sleb128 336
 7064 0d41 0C       		.uleb128 0xc
 7065 0d42 D3160000 		.4byte	.LASF339
 7066 0d46 D102     		.sleb128 337
 7067 0d48 0C       		.uleb128 0xc
 7068 0d49 14330000 		.4byte	.LASF340
 7069 0d4d D202     		.sleb128 338
 7070 0d4f 0C       		.uleb128 0xc
 7071 0d50 80080000 		.4byte	.LASF341
 7072 0d54 D302     		.sleb128 339
 7073 0d56 0C       		.uleb128 0xc
 7074 0d57 86010000 		.4byte	.LASF342
 7075 0d5b D402     		.sleb128 340
 7076 0d5d 0C       		.uleb128 0xc
 7077 0d5e BB200000 		.4byte	.LASF343
 7078 0d62 D502     		.sleb128 341
 7079 0d64 0C       		.uleb128 0xc
 7080 0d65 DF000000 		.4byte	.LASF344
 7081 0d69 D602     		.sleb128 342
 7082 0d6b 0C       		.uleb128 0xc
 7083 0d6c 560B0000 		.4byte	.LASF345
 7084 0d70 D702     		.sleb128 343
 7085 0d72 0C       		.uleb128 0xc
 7086 0d73 66410000 		.4byte	.LASF346
 7087 0d77 D802     		.sleb128 344
 7088 0d79 0C       		.uleb128 0xc
 7089 0d7a 581A0000 		.4byte	.LASF347
 7090 0d7e D902     		.sleb128 345
 7091 0d80 0C       		.uleb128 0xc
 7092 0d81 0E190000 		.4byte	.LASF348
 7093 0d85 DA02     		.sleb128 346
 7094 0d87 0C       		.uleb128 0xc
 7095 0d88 9B060000 		.4byte	.LASF349
 7096 0d8c DB02     		.sleb128 347
 7097 0d8e 0C       		.uleb128 0xc
ARM GAS  C:\Users\Helon\AppData\Local\Temp\ccKCxrf8.s 			page 194


 7098 0d8f 8B3F0000 		.4byte	.LASF350
 7099 0d93 DC02     		.sleb128 348
 7100 0d95 0C       		.uleb128 0xc
 7101 0d96 1A260000 		.4byte	.LASF351
 7102 0d9a DD02     		.sleb128 349
 7103 0d9c 0C       		.uleb128 0xc
 7104 0d9d C9210000 		.4byte	.LASF352
 7105 0da1 DE02     		.sleb128 350
 7106 0da3 0C       		.uleb128 0xc
 7107 0da4 BA080000 		.4byte	.LASF353
 7108 0da8 DF02     		.sleb128 351
 7109 0daa 0C       		.uleb128 0xc
 7110 0dab C3070000 		.4byte	.LASF354
 7111 0daf E002     		.sleb128 352
 7112 0db1 0C       		.uleb128 0xc
 7113 0db2 DA010000 		.4byte	.LASF355
 7114 0db6 E102     		.sleb128 353
 7115 0db8 0C       		.uleb128 0xc
 7116 0db9 DC260000 		.4byte	.LASF356
 7117 0dbd E202     		.sleb128 354
 7118 0dbf 0C       		.uleb128 0xc
 7119 0dc0 09470000 		.4byte	.LASF357
 7120 0dc4 E302     		.sleb128 355
 7121 0dc6 0C       		.uleb128 0xc
 7122 0dc7 171C0000 		.4byte	.LASF358
 7123 0dcb E402     		.sleb128 356
 7124 0dcd 0C       		.uleb128 0xc
 7125 0dce 34190000 		.4byte	.LASF359
 7126 0dd2 E502     		.sleb128 357
 7127 0dd4 0C       		.uleb128 0xc
 7128 0dd5 CB280000 		.4byte	.LASF360
 7129 0dd9 E602     		.sleb128 358
 7130 0ddb 0C       		.uleb128 0xc
 7131 0ddc 773D0000 		.4byte	.LASF361
 7132 0de0 E702     		.sleb128 359
 7133 0de2 0C       		.uleb128 0xc
 7134 0de3 BE330000 		.4byte	.LASF362
 7135 0de7 E802     		.sleb128 360
 7136 0de9 0C       		.uleb128 0xc
 7137 0dea 79040000 		.4byte	.LASF363
 7138 0dee E902     		.sleb128 361
 7139 0df0 0C       		.uleb128 0xc
 7140 0df1 01320000 		.4byte	.LASF364
 7141 0df5 EA02     		.sleb128 362
 7142 0df7 0C       		.uleb128 0xc
 7143 0df8 A91D0000 		.4byte	.LASF365
 7144 0dfc EB02     		.sleb128 363
 7145 0dfe 0C       		.uleb128 0xc
 7146 0dff 5F200000 		.4byte	.LASF366
 7147 0e03 EC02     		.sleb128 364
 7148 0e05 0C       		.uleb128 0xc
 7149 0e06 262D0000 		.4byte	.LASF367
 7150 0e0a ED02     		.sleb128 365
 7151 0e0c 0C       		.uleb128 0xc
 7152 0e0d 97380000 		.4byte	.LASF368
 7153 0e11 EE02     		.sleb128 366
 7154 0e13 0C       		.uleb128 0xc
ARM GAS  C:\Users\Helon\AppData\Local\Temp\ccKCxrf8.s 			page 195


 7155 0e14 1F170000 		.4byte	.LASF369
 7156 0e18 EF02     		.sleb128 367
 7157 0e1a 0C       		.uleb128 0xc
 7158 0e1b BA260000 		.4byte	.LASF370
 7159 0e1f F002     		.sleb128 368
 7160 0e21 0C       		.uleb128 0xc
 7161 0e22 03250000 		.4byte	.LASF371
 7162 0e26 F102     		.sleb128 369
 7163 0e28 0C       		.uleb128 0xc
 7164 0e29 94290000 		.4byte	.LASF372
 7165 0e2d F202     		.sleb128 370
 7166 0e2f 0C       		.uleb128 0xc
 7167 0e30 63380000 		.4byte	.LASF373
 7168 0e34 F302     		.sleb128 371
 7169 0e36 0C       		.uleb128 0xc
 7170 0e37 4C1C0000 		.4byte	.LASF374
 7171 0e3b F402     		.sleb128 372
 7172 0e3d 0C       		.uleb128 0xc
 7173 0e3e 9F260000 		.4byte	.LASF375
 7174 0e42 F502     		.sleb128 373
 7175 0e44 0C       		.uleb128 0xc
 7176 0e45 45270000 		.4byte	.LASF376
 7177 0e49 F602     		.sleb128 374
 7178 0e4b 0C       		.uleb128 0xc
 7179 0e4c 14180000 		.4byte	.LASF377
 7180 0e50 F702     		.sleb128 375
 7181 0e52 0C       		.uleb128 0xc
 7182 0e53 6B0E0000 		.4byte	.LASF378
 7183 0e57 F802     		.sleb128 376
 7184 0e59 0C       		.uleb128 0xc
 7185 0e5a 523C0000 		.4byte	.LASF379
 7186 0e5e F902     		.sleb128 377
 7187 0e60 0C       		.uleb128 0xc
 7188 0e61 0C1D0000 		.4byte	.LASF380
 7189 0e65 FA02     		.sleb128 378
 7190 0e67 0C       		.uleb128 0xc
 7191 0e68 B60C0000 		.4byte	.LASF381
 7192 0e6c FB02     		.sleb128 379
 7193 0e6e 0C       		.uleb128 0xc
 7194 0e6f AE3C0000 		.4byte	.LASF382
 7195 0e73 FC02     		.sleb128 380
 7196 0e75 0C       		.uleb128 0xc
 7197 0e76 FD330000 		.4byte	.LASF383
 7198 0e7a FD02     		.sleb128 381
 7199 0e7c 0C       		.uleb128 0xc
 7200 0e7d 083A0000 		.4byte	.LASF384
 7201 0e81 FE02     		.sleb128 382
 7202 0e83 0C       		.uleb128 0xc
 7203 0e84 18240000 		.4byte	.LASF385
 7204 0e88 FF02     		.sleb128 383
 7205 0e8a 0C       		.uleb128 0xc
 7206 0e8b 44020000 		.4byte	.LASF386
 7207 0e8f 8003     		.sleb128 384
 7208 0e91 0C       		.uleb128 0xc
 7209 0e92 C62D0000 		.4byte	.LASF387
 7210 0e96 8103     		.sleb128 385
 7211 0e98 0C       		.uleb128 0xc
ARM GAS  C:\Users\Helon\AppData\Local\Temp\ccKCxrf8.s 			page 196


 7212 0e99 7B440000 		.4byte	.LASF388
 7213 0e9d 8203     		.sleb128 386
 7214 0e9f 0C       		.uleb128 0xc
 7215 0ea0 A03E0000 		.4byte	.LASF389
 7216 0ea4 8303     		.sleb128 387
 7217 0ea6 0C       		.uleb128 0xc
 7218 0ea7 DB380000 		.4byte	.LASF390
 7219 0eab 8403     		.sleb128 388
 7220 0ead 0C       		.uleb128 0xc
 7221 0eae 01030000 		.4byte	.LASF391
 7222 0eb2 8503     		.sleb128 389
 7223 0eb4 0C       		.uleb128 0xc
 7224 0eb5 03150000 		.4byte	.LASF392
 7225 0eb9 8603     		.sleb128 390
 7226 0ebb 0C       		.uleb128 0xc
 7227 0ebc 17410000 		.4byte	.LASF393
 7228 0ec0 8703     		.sleb128 391
 7229 0ec2 0C       		.uleb128 0xc
 7230 0ec3 30480000 		.4byte	.LASF394
 7231 0ec7 8803     		.sleb128 392
 7232 0ec9 0C       		.uleb128 0xc
 7233 0eca 86270000 		.4byte	.LASF395
 7234 0ece 8903     		.sleb128 393
 7235 0ed0 0C       		.uleb128 0xc
 7236 0ed1 BC460000 		.4byte	.LASF396
 7237 0ed5 8A03     		.sleb128 394
 7238 0ed7 0C       		.uleb128 0xc
 7239 0ed8 23270000 		.4byte	.LASF397
 7240 0edc 8B03     		.sleb128 395
 7241 0ede 0C       		.uleb128 0xc
 7242 0edf 390F0000 		.4byte	.LASF398
 7243 0ee3 8C03     		.sleb128 396
 7244 0ee5 0C       		.uleb128 0xc
 7245 0ee6 491D0000 		.4byte	.LASF399
 7246 0eea 8D03     		.sleb128 397
 7247 0eec 0C       		.uleb128 0xc
 7248 0eed CF1A0000 		.4byte	.LASF400
 7249 0ef1 8E03     		.sleb128 398
 7250 0ef3 0C       		.uleb128 0xc
 7251 0ef4 8D0E0000 		.4byte	.LASF401
 7252 0ef8 8F03     		.sleb128 399
 7253 0efa 0C       		.uleb128 0xc
 7254 0efb 89370000 		.4byte	.LASF402
 7255 0eff 9003     		.sleb128 400
 7256 0f01 0C       		.uleb128 0xc
 7257 0f02 281E0000 		.4byte	.LASF403
 7258 0f06 9103     		.sleb128 401
 7259 0f08 0C       		.uleb128 0xc
 7260 0f09 C12E0000 		.4byte	.LASF404
 7261 0f0d 9203     		.sleb128 402
 7262 0f0f 0C       		.uleb128 0xc
 7263 0f10 F2350000 		.4byte	.LASF405
 7264 0f14 9303     		.sleb128 403
 7265 0f16 0C       		.uleb128 0xc
 7266 0f17 FA160000 		.4byte	.LASF406
 7267 0f1b 9403     		.sleb128 404
 7268 0f1d 0C       		.uleb128 0xc
ARM GAS  C:\Users\Helon\AppData\Local\Temp\ccKCxrf8.s 			page 197


 7269 0f1e B3180000 		.4byte	.LASF407
 7270 0f22 9503     		.sleb128 405
 7271 0f24 0C       		.uleb128 0xc
 7272 0f25 A9480000 		.4byte	.LASF408
 7273 0f29 9603     		.sleb128 406
 7274 0f2b 0C       		.uleb128 0xc
 7275 0f2c 742E0000 		.4byte	.LASF409
 7276 0f30 9703     		.sleb128 407
 7277 0f32 0C       		.uleb128 0xc
 7278 0f33 E52E0000 		.4byte	.LASF410
 7279 0f37 9803     		.sleb128 408
 7280 0f39 0C       		.uleb128 0xc
 7281 0f3a B9340000 		.4byte	.LASF411
 7282 0f3e 9903     		.sleb128 409
 7283 0f40 0C       		.uleb128 0xc
 7284 0f41 241A0000 		.4byte	.LASF412
 7285 0f45 9A03     		.sleb128 410
 7286 0f47 0C       		.uleb128 0xc
 7287 0f48 25380000 		.4byte	.LASF413
 7288 0f4c 9B03     		.sleb128 411
 7289 0f4e 0C       		.uleb128 0xc
 7290 0f4f F10C0000 		.4byte	.LASF414
 7291 0f53 9C03     		.sleb128 412
 7292 0f55 0C       		.uleb128 0xc
 7293 0f56 68430000 		.4byte	.LASF415
 7294 0f5a 9D03     		.sleb128 413
 7295 0f5c 0C       		.uleb128 0xc
 7296 0f5d 1F3E0000 		.4byte	.LASF416
 7297 0f61 9E03     		.sleb128 414
 7298 0f63 0C       		.uleb128 0xc
 7299 0f64 7A150000 		.4byte	.LASF417
 7300 0f68 9F03     		.sleb128 415
 7301 0f6a 0C       		.uleb128 0xc
 7302 0f6b 55480000 		.4byte	.LASF418
 7303 0f6f A003     		.sleb128 416
 7304 0f71 0C       		.uleb128 0xc
 7305 0f72 E41F0000 		.4byte	.LASF419
 7306 0f76 A103     		.sleb128 417
 7307 0f78 0C       		.uleb128 0xc
 7308 0f79 74230000 		.4byte	.LASF420
 7309 0f7d A203     		.sleb128 418
 7310 0f7f 0C       		.uleb128 0xc
 7311 0f80 16480000 		.4byte	.LASF421
 7312 0f84 A303     		.sleb128 419
 7313 0f86 0C       		.uleb128 0xc
 7314 0f87 323A0000 		.4byte	.LASF422
 7315 0f8b A403     		.sleb128 420
 7316 0f8d 0C       		.uleb128 0xc
 7317 0f8e EE2A0000 		.4byte	.LASF423
 7318 0f92 A503     		.sleb128 421
 7319 0f94 0C       		.uleb128 0xc
 7320 0f95 892D0000 		.4byte	.LASF424
 7321 0f99 A603     		.sleb128 422
 7322 0f9b 0C       		.uleb128 0xc
 7323 0f9c 27420000 		.4byte	.LASF425
 7324 0fa0 A703     		.sleb128 423
 7325 0fa2 0C       		.uleb128 0xc
ARM GAS  C:\Users\Helon\AppData\Local\Temp\ccKCxrf8.s 			page 198


 7326 0fa3 751E0000 		.4byte	.LASF426
 7327 0fa7 A803     		.sleb128 424
 7328 0fa9 0C       		.uleb128 0xc
 7329 0faa E1190000 		.4byte	.LASF427
 7330 0fae A903     		.sleb128 425
 7331 0fb0 0C       		.uleb128 0xc
 7332 0fb1 F8250000 		.4byte	.LASF428
 7333 0fb5 AA03     		.sleb128 426
 7334 0fb7 0C       		.uleb128 0xc
 7335 0fb8 033F0000 		.4byte	.LASF429
 7336 0fbc AB03     		.sleb128 427
 7337 0fbe 0C       		.uleb128 0xc
 7338 0fbf 83340000 		.4byte	.LASF430
 7339 0fc3 AC03     		.sleb128 428
 7340 0fc5 0C       		.uleb128 0xc
 7341 0fc6 56040000 		.4byte	.LASF431
 7342 0fca AD03     		.sleb128 429
 7343 0fcc 0C       		.uleb128 0xc
 7344 0fcd A3300000 		.4byte	.LASF432
 7345 0fd1 AE03     		.sleb128 430
 7346 0fd3 0C       		.uleb128 0xc
 7347 0fd4 EB0A0000 		.4byte	.LASF433
 7348 0fd8 AF03     		.sleb128 431
 7349 0fda 0C       		.uleb128 0xc
 7350 0fdb 85220000 		.4byte	.LASF434
 7351 0fdf B003     		.sleb128 432
 7352 0fe1 0C       		.uleb128 0xc
 7353 0fe2 49380000 		.4byte	.LASF435
 7354 0fe6 B103     		.sleb128 433
 7355 0fe8 0C       		.uleb128 0xc
 7356 0fe9 BE060000 		.4byte	.LASF436
 7357 0fed B203     		.sleb128 434
 7358 0fef 0C       		.uleb128 0xc
 7359 0ff0 83330000 		.4byte	.LASF437
 7360 0ff4 B303     		.sleb128 435
 7361 0ff6 0C       		.uleb128 0xc
 7362 0ff7 0C310000 		.4byte	.LASF438
 7363 0ffb B403     		.sleb128 436
 7364 0ffd 0C       		.uleb128 0xc
 7365 0ffe 441B0000 		.4byte	.LASF439
 7366 1002 B503     		.sleb128 437
 7367 1004 0C       		.uleb128 0xc
 7368 1005 921F0000 		.4byte	.LASF440
 7369 1009 B603     		.sleb128 438
 7370 100b 0C       		.uleb128 0xc
 7371 100c B2250000 		.4byte	.LASF441
 7372 1010 B703     		.sleb128 439
 7373 1012 0C       		.uleb128 0xc
 7374 1013 922F0000 		.4byte	.LASF442
 7375 1017 B803     		.sleb128 440
 7376 1019 0C       		.uleb128 0xc
 7377 101a 42350000 		.4byte	.LASF443
 7378 101e B903     		.sleb128 441
 7379 1020 0C       		.uleb128 0xc
 7380 1021 38370000 		.4byte	.LASF444
 7381 1025 BA03     		.sleb128 442
 7382 1027 0C       		.uleb128 0xc
ARM GAS  C:\Users\Helon\AppData\Local\Temp\ccKCxrf8.s 			page 199


 7383 1028 82200000 		.4byte	.LASF445
 7384 102c BB03     		.sleb128 443
 7385 102e 0C       		.uleb128 0xc
 7386 102f 182A0000 		.4byte	.LASF446
 7387 1033 BC03     		.sleb128 444
 7388 1035 0C       		.uleb128 0xc
 7389 1036 FD060000 		.4byte	.LASF447
 7390 103a BD03     		.sleb128 445
 7391 103c 0C       		.uleb128 0xc
 7392 103d C50B0000 		.4byte	.LASF448
 7393 1041 BE03     		.sleb128 446
 7394 1043 0C       		.uleb128 0xc
 7395 1044 82160000 		.4byte	.LASF449
 7396 1048 BF03     		.sleb128 447
 7397 104a 0C       		.uleb128 0xc
 7398 104b A33A0000 		.4byte	.LASF450
 7399 104f C003     		.sleb128 448
 7400 1051 0C       		.uleb128 0xc
 7401 1052 A1470000 		.4byte	.LASF451
 7402 1056 C103     		.sleb128 449
 7403 1058 0C       		.uleb128 0xc
 7404 1059 F81D0000 		.4byte	.LASF452
 7405 105d C203     		.sleb128 450
 7406 105f 0C       		.uleb128 0xc
 7407 1060 FC100000 		.4byte	.LASF453
 7408 1064 C303     		.sleb128 451
 7409 1066 0C       		.uleb128 0xc
 7410 1067 58190000 		.4byte	.LASF454
 7411 106b C403     		.sleb128 452
 7412 106d 0C       		.uleb128 0xc
 7413 106e 902E0000 		.4byte	.LASF455
 7414 1072 C503     		.sleb128 453
 7415 1074 0C       		.uleb128 0xc
 7416 1075 EA040000 		.4byte	.LASF456
 7417 1079 C603     		.sleb128 454
 7418 107b 0C       		.uleb128 0xc
 7419 107c 27390000 		.4byte	.LASF457
 7420 1080 C703     		.sleb128 455
 7421 1082 0C       		.uleb128 0xc
 7422 1083 A5110000 		.4byte	.LASF458
 7423 1087 C803     		.sleb128 456
 7424 1089 0C       		.uleb128 0xc
 7425 108a 0B220000 		.4byte	.LASF459
 7426 108e C903     		.sleb128 457
 7427 1090 0C       		.uleb128 0xc
 7428 1091 74180000 		.4byte	.LASF460
 7429 1095 CA03     		.sleb128 458
 7430 1097 0C       		.uleb128 0xc
 7431 1098 8A410000 		.4byte	.LASF461
 7432 109c CB03     		.sleb128 459
 7433 109e 0C       		.uleb128 0xc
 7434 109f E2030000 		.4byte	.LASF462
 7435 10a3 CC03     		.sleb128 460
 7436 10a5 0C       		.uleb128 0xc
 7437 10a6 0B010000 		.4byte	.LASF463
 7438 10aa CD03     		.sleb128 461
 7439 10ac 0C       		.uleb128 0xc
ARM GAS  C:\Users\Helon\AppData\Local\Temp\ccKCxrf8.s 			page 200


 7440 10ad 9D150000 		.4byte	.LASF464
 7441 10b1 CE03     		.sleb128 462
 7442 10b3 0C       		.uleb128 0xc
 7443 10b4 44130000 		.4byte	.LASF465
 7444 10b8 CF03     		.sleb128 463
 7445 10ba 0C       		.uleb128 0xc
 7446 10bb 56290000 		.4byte	.LASF466
 7447 10bf D003     		.sleb128 464
 7448 10c1 0C       		.uleb128 0xc
 7449 10c2 C33E0000 		.4byte	.LASF467
 7450 10c6 D103     		.sleb128 465
 7451 10c8 0C       		.uleb128 0xc
 7452 10c9 06270000 		.4byte	.LASF468
 7453 10cd D203     		.sleb128 466
 7454 10cf 0C       		.uleb128 0xc
 7455 10d0 01380000 		.4byte	.LASF469
 7456 10d4 D303     		.sleb128 467
 7457 10d6 0C       		.uleb128 0xc
 7458 10d7 0B140000 		.4byte	.LASF470
 7459 10db D403     		.sleb128 468
 7460 10dd 0C       		.uleb128 0xc
 7461 10de 32050000 		.4byte	.LASF471
 7462 10e2 D503     		.sleb128 469
 7463 10e4 0C       		.uleb128 0xc
 7464 10e5 DC370000 		.4byte	.LASF472
 7465 10e9 D603     		.sleb128 470
 7466 10eb 0C       		.uleb128 0xc
 7467 10ec 50140000 		.4byte	.LASF473
 7468 10f0 D703     		.sleb128 471
 7469 10f2 0C       		.uleb128 0xc
 7470 10f3 D5230000 		.4byte	.LASF474
 7471 10f7 D803     		.sleb128 472
 7472 10f9 0C       		.uleb128 0xc
 7473 10fa 76360000 		.4byte	.LASF475
 7474 10fe D903     		.sleb128 473
 7475 1100 0C       		.uleb128 0xc
 7476 1101 E5180000 		.4byte	.LASF476
 7477 1105 DA03     		.sleb128 474
 7478 1107 0C       		.uleb128 0xc
 7479 1108 913D0000 		.4byte	.LASF477
 7480 110c DB03     		.sleb128 475
 7481 110e 0C       		.uleb128 0xc
 7482 110f 5F160000 		.4byte	.LASF478
 7483 1113 DC03     		.sleb128 476
 7484 1115 0C       		.uleb128 0xc
 7485 1116 5A2F0000 		.4byte	.LASF479
 7486 111a DD03     		.sleb128 477
 7487 111c 0C       		.uleb128 0xc
 7488 111d 26300000 		.4byte	.LASF480
 7489 1121 DE03     		.sleb128 478
 7490 1123 0C       		.uleb128 0xc
 7491 1124 DC1B0000 		.4byte	.LASF481
 7492 1128 DF03     		.sleb128 479
 7493 112a 0C       		.uleb128 0xc
 7494 112b 6A1C0000 		.4byte	.LASF482
 7495 112f E003     		.sleb128 480
 7496 1131 0C       		.uleb128 0xc
ARM GAS  C:\Users\Helon\AppData\Local\Temp\ccKCxrf8.s 			page 201


 7497 1132 58460000 		.4byte	.LASF483
 7498 1136 E103     		.sleb128 481
 7499 1138 0C       		.uleb128 0xc
 7500 1139 D7080000 		.4byte	.LASF484
 7501 113d E203     		.sleb128 482
 7502 113f 0C       		.uleb128 0xc
 7503 1140 2B280000 		.4byte	.LASF485
 7504 1144 E303     		.sleb128 483
 7505 1146 0C       		.uleb128 0xc
 7506 1147 F0280000 		.4byte	.LASF486
 7507 114b E403     		.sleb128 484
 7508 114d 0C       		.uleb128 0xc
 7509 114e 012C0000 		.4byte	.LASF487
 7510 1152 E503     		.sleb128 485
 7511 1154 0C       		.uleb128 0xc
 7512 1155 513E0000 		.4byte	.LASF488
 7513 1159 E603     		.sleb128 486
 7514 115b 0C       		.uleb128 0xc
 7515 115c 05050000 		.4byte	.LASF489
 7516 1160 E703     		.sleb128 487
 7517 1162 0C       		.uleb128 0xc
 7518 1163 DB360000 		.4byte	.LASF490
 7519 1167 E803     		.sleb128 488
 7520 1169 0C       		.uleb128 0xc
 7521 116a 81250000 		.4byte	.LASF491
 7522 116e E903     		.sleb128 489
 7523 1170 0C       		.uleb128 0xc
 7524 1171 44170000 		.4byte	.LASF492
 7525 1175 EA03     		.sleb128 490
 7526 1177 0C       		.uleb128 0xc
 7527 1178 D11E0000 		.4byte	.LASF493
 7528 117c EB03     		.sleb128 491
 7529 117e 0C       		.uleb128 0xc
 7530 117f E02D0000 		.4byte	.LASF494
 7531 1183 EC03     		.sleb128 492
 7532 1185 0C       		.uleb128 0xc
 7533 1186 84480000 		.4byte	.LASF495
 7534 118a ED03     		.sleb128 493
 7535 118c 0C       		.uleb128 0xc
 7536 118d C6190000 		.4byte	.LASF496
 7537 1191 EE03     		.sleb128 494
 7538 1193 0C       		.uleb128 0xc
 7539 1194 41010000 		.4byte	.LASF497
 7540 1198 EF03     		.sleb128 495
 7541 119a 0C       		.uleb128 0xc
 7542 119b 322C0000 		.4byte	.LASF498
 7543 119f F003     		.sleb128 496
 7544 11a1 0C       		.uleb128 0xc
 7545 11a2 47280000 		.4byte	.LASF499
 7546 11a6 F103     		.sleb128 497
 7547 11a8 0C       		.uleb128 0xc
 7548 11a9 111B0000 		.4byte	.LASF500
 7549 11ad F203     		.sleb128 498
 7550 11af 0C       		.uleb128 0xc
 7551 11b0 A3390000 		.4byte	.LASF501
 7552 11b4 F303     		.sleb128 499
 7553 11b6 0C       		.uleb128 0xc
ARM GAS  C:\Users\Helon\AppData\Local\Temp\ccKCxrf8.s 			page 202


 7554 11b7 74420000 		.4byte	.LASF502
 7555 11bb F403     		.sleb128 500
 7556 11bd 0C       		.uleb128 0xc
 7557 11be 64010000 		.4byte	.LASF503
 7558 11c2 F503     		.sleb128 501
 7559 11c4 0C       		.uleb128 0xc
 7560 11c5 CD300000 		.4byte	.LASF504
 7561 11c9 F603     		.sleb128 502
 7562 11cb 0C       		.uleb128 0xc
 7563 11cc DF150000 		.4byte	.LASF505
 7564 11d0 F703     		.sleb128 503
 7565 11d2 0C       		.uleb128 0xc
 7566 11d3 C5170000 		.4byte	.LASF506
 7567 11d7 F803     		.sleb128 504
 7568 11d9 0C       		.uleb128 0xc
 7569 11da C6470000 		.4byte	.LASF507
 7570 11de F903     		.sleb128 505
 7571 11e0 0C       		.uleb128 0xc
 7572 11e1 E5110000 		.4byte	.LASF508
 7573 11e5 FA03     		.sleb128 506
 7574 11e7 0C       		.uleb128 0xc
 7575 11e8 DD0F0000 		.4byte	.LASF509
 7576 11ec FB03     		.sleb128 507
 7577 11ee 0C       		.uleb128 0xc
 7578 11ef AC2D0000 		.4byte	.LASF510
 7579 11f3 80C003   		.sleb128 57344
 7580 11f6 00       		.byte	0
 7581 11f7 0D       		.uleb128 0xd
 7582 11f8 01       		.byte	0x1
 7583 11f9 0D       		.byte	0xd
 7584 11fa 3707     		.2byte	0x737
 7585 11fc 2B120000 		.4byte	0x122b
 7586 1200 0C       		.uleb128 0xc
 7587 1201 E8100000 		.4byte	.LASF511
 7588 1205 00       		.sleb128 0
 7589 1206 0C       		.uleb128 0xc
 7590 1207 36210000 		.4byte	.LASF512
 7591 120b 01       		.sleb128 1
 7592 120c 0C       		.uleb128 0xc
 7593 120d 18440000 		.4byte	.LASF513
 7594 1211 02       		.sleb128 2
 7595 1212 0C       		.uleb128 0xc
 7596 1213 75090000 		.4byte	.LASF514
 7597 1217 03       		.sleb128 3
 7598 1218 0C       		.uleb128 0xc
 7599 1219 F4050000 		.4byte	.LASF515
 7600 121d 04       		.sleb128 4
 7601 121e 0C       		.uleb128 0xc
 7602 121f BF140000 		.4byte	.LASF516
 7603 1223 05       		.sleb128 5
 7604 1224 0C       		.uleb128 0xc
 7605 1225 C2380000 		.4byte	.LASF517
 7606 1229 06       		.sleb128 6
 7607 122a 00       		.byte	0
 7608 122b 06       		.uleb128 0x6
 7609 122c 77310000 		.4byte	.LASF518
 7610 1230 0D       		.byte	0xd
ARM GAS  C:\Users\Helon\AppData\Local\Temp\ccKCxrf8.s 			page 203


 7611 1231 4507     		.2byte	0x745
 7612 1233 F7110000 		.4byte	0x11f7
 7613 1237 0E       		.uleb128 0xe
 7614 1238 70       		.byte	0x70
 7615 1239 0E       		.byte	0xe
 7616 123a 2501     		.2byte	0x125
 7617 123c D4130000 		.4byte	0x13d4
 7618 1240 0F       		.uleb128 0xf
 7619 1241 203B0000 		.4byte	.LASF519
 7620 1245 0E       		.byte	0xe
 7621 1246 2701     		.2byte	0x127
 7622 1248 F6000000 		.4byte	0xf6
 7623 124c 00       		.byte	0
 7624 124d 0F       		.uleb128 0xf
 7625 124e 7E060000 		.4byte	.LASF520
 7626 1252 0E       		.byte	0xe
 7627 1253 2801     		.2byte	0x128
 7628 1255 F6000000 		.4byte	0xf6
 7629 1259 04       		.byte	0x4
 7630 125a 0F       		.uleb128 0xf
 7631 125b 841A0000 		.4byte	.LASF521
 7632 125f 0E       		.byte	0xe
 7633 1260 2901     		.2byte	0x129
 7634 1262 F6000000 		.4byte	0xf6
 7635 1266 08       		.byte	0x8
 7636 1267 0F       		.uleb128 0xf
 7637 1268 72460000 		.4byte	.LASF522
 7638 126c 0E       		.byte	0xe
 7639 126d 2A01     		.2byte	0x12a
 7640 126f F6000000 		.4byte	0xf6
 7641 1273 0C       		.byte	0xc
 7642 1274 0F       		.uleb128 0xf
 7643 1275 B7370000 		.4byte	.LASF523
 7644 1279 0E       		.byte	0xe
 7645 127a 2B01     		.2byte	0x12b
 7646 127c F6000000 		.4byte	0xf6
 7647 1280 10       		.byte	0x10
 7648 1281 0F       		.uleb128 0xf
 7649 1282 AC370000 		.4byte	.LASF524
 7650 1286 0E       		.byte	0xe
 7651 1287 2C01     		.2byte	0x12c
 7652 1289 F6000000 		.4byte	0xf6
 7653 128d 14       		.byte	0x14
 7654 128e 0F       		.uleb128 0xf
 7655 128f B9320000 		.4byte	.LASF525
 7656 1293 0E       		.byte	0xe
 7657 1294 2D01     		.2byte	0x12d
 7658 1296 F6000000 		.4byte	0xf6
 7659 129a 18       		.byte	0x18
 7660 129b 0F       		.uleb128 0xf
 7661 129c 3C090000 		.4byte	.LASF526
 7662 12a0 0E       		.byte	0xe
 7663 12a1 2E01     		.2byte	0x12e
 7664 12a3 F6000000 		.4byte	0xf6
 7665 12a7 1C       		.byte	0x1c
 7666 12a8 0F       		.uleb128 0xf
 7667 12a9 EB130000 		.4byte	.LASF527
ARM GAS  C:\Users\Helon\AppData\Local\Temp\ccKCxrf8.s 			page 204


 7668 12ad 0E       		.byte	0xe
 7669 12ae 2F01     		.2byte	0x12f
 7670 12b0 F6000000 		.4byte	0xf6
 7671 12b4 20       		.byte	0x20
 7672 12b5 0F       		.uleb128 0xf
 7673 12b6 47460000 		.4byte	.LASF528
 7674 12ba 0E       		.byte	0xe
 7675 12bb 3001     		.2byte	0x130
 7676 12bd F6000000 		.4byte	0xf6
 7677 12c1 24       		.byte	0x24
 7678 12c2 0F       		.uleb128 0xf
 7679 12c3 73320000 		.4byte	.LASF529
 7680 12c7 0E       		.byte	0xe
 7681 12c8 3101     		.2byte	0x131
 7682 12ca F6000000 		.4byte	0xf6
 7683 12ce 28       		.byte	0x28
 7684 12cf 0F       		.uleb128 0xf
 7685 12d0 DD450000 		.4byte	.LASF530
 7686 12d4 0E       		.byte	0xe
 7687 12d5 3201     		.2byte	0x132
 7688 12d7 F6000000 		.4byte	0xf6
 7689 12db 2C       		.byte	0x2c
 7690 12dc 0F       		.uleb128 0xf
 7691 12dd B4230000 		.4byte	.LASF531
 7692 12e1 0E       		.byte	0xe
 7693 12e2 3301     		.2byte	0x133
 7694 12e4 F6000000 		.4byte	0xf6
 7695 12e8 30       		.byte	0x30
 7696 12e9 0F       		.uleb128 0xf
 7697 12ea 43060000 		.4byte	.LASF532
 7698 12ee 0E       		.byte	0xe
 7699 12ef 3401     		.2byte	0x134
 7700 12f1 F6000000 		.4byte	0xf6
 7701 12f5 34       		.byte	0x34
 7702 12f6 0F       		.uleb128 0xf
 7703 12f7 981D0000 		.4byte	.LASF533
 7704 12fb 0E       		.byte	0xe
 7705 12fc 3501     		.2byte	0x135
 7706 12fe 6E080000 		.4byte	0x86e
 7707 1302 38       		.byte	0x38
 7708 1303 0F       		.uleb128 0xf
 7709 1304 F42B0000 		.4byte	.LASF534
 7710 1308 0E       		.byte	0xe
 7711 1309 3601     		.2byte	0x136
 7712 130b F6000000 		.4byte	0xf6
 7713 130f 3C       		.byte	0x3c
 7714 1310 0F       		.uleb128 0xf
 7715 1311 00000000 		.4byte	.LASF535
 7716 1315 0E       		.byte	0xe
 7717 1316 3701     		.2byte	0x137
 7718 1318 6E080000 		.4byte	0x86e
 7719 131c 40       		.byte	0x40
 7720 131d 0F       		.uleb128 0xf
 7721 131e 0E460000 		.4byte	.LASF536
 7722 1322 0E       		.byte	0xe
 7723 1323 3801     		.2byte	0x138
 7724 1325 F6000000 		.4byte	0xf6
ARM GAS  C:\Users\Helon\AppData\Local\Temp\ccKCxrf8.s 			page 205


 7725 1329 44       		.byte	0x44
 7726 132a 0F       		.uleb128 0xf
 7727 132b 82300000 		.4byte	.LASF537
 7728 132f 0E       		.byte	0xe
 7729 1330 3901     		.2byte	0x139
 7730 1332 F6000000 		.4byte	0xf6
 7731 1336 48       		.byte	0x48
 7732 1337 0F       		.uleb128 0xf
 7733 1338 4E150000 		.4byte	.LASF538
 7734 133c 0E       		.byte	0xe
 7735 133d 3A01     		.2byte	0x13a
 7736 133f F6000000 		.4byte	0xf6
 7737 1343 4C       		.byte	0x4c
 7738 1344 0F       		.uleb128 0xf
 7739 1345 F0220000 		.4byte	.LASF539
 7740 1349 0E       		.byte	0xe
 7741 134a 3B01     		.2byte	0x13b
 7742 134c F6000000 		.4byte	0xf6
 7743 1350 50       		.byte	0x50
 7744 1351 0F       		.uleb128 0xf
 7745 1352 66360000 		.4byte	.LASF540
 7746 1356 0E       		.byte	0xe
 7747 1357 3C01     		.2byte	0x13c
 7748 1359 F6000000 		.4byte	0xf6
 7749 135d 54       		.byte	0x54
 7750 135e 0F       		.uleb128 0xf
 7751 135f F7070000 		.4byte	.LASF541
 7752 1363 0E       		.byte	0xe
 7753 1364 3D01     		.2byte	0x13d
 7754 1366 F6000000 		.4byte	0xf6
 7755 136a 58       		.byte	0x58
 7756 136b 0F       		.uleb128 0xf
 7757 136c 85290000 		.4byte	.LASF542
 7758 1370 0E       		.byte	0xe
 7759 1371 3E01     		.2byte	0x13e
 7760 1373 F6000000 		.4byte	0xf6
 7761 1377 5C       		.byte	0x5c
 7762 1378 0F       		.uleb128 0xf
 7763 1379 8B170000 		.4byte	.LASF543
 7764 137d 0E       		.byte	0xe
 7765 137e 3F01     		.2byte	0x13f
 7766 1380 F6000000 		.4byte	0xf6
 7767 1384 60       		.byte	0x60
 7768 1385 0F       		.uleb128 0xf
 7769 1386 A7100000 		.4byte	.LASF544
 7770 138a 0E       		.byte	0xe
 7771 138b 4001     		.2byte	0x140
 7772 138d F6000000 		.4byte	0xf6
 7773 1391 64       		.byte	0x64
 7774 1392 0F       		.uleb128 0xf
 7775 1393 34000000 		.4byte	.LASF545
 7776 1397 0E       		.byte	0xe
 7777 1398 4101     		.2byte	0x141
 7778 139a E0000000 		.4byte	0xe0
 7779 139e 68       		.byte	0x68
 7780 139f 0F       		.uleb128 0xf
 7781 13a0 541F0000 		.4byte	.LASF546
ARM GAS  C:\Users\Helon\AppData\Local\Temp\ccKCxrf8.s 			page 206


 7782 13a4 0E       		.byte	0xe
 7783 13a5 4201     		.2byte	0x142
 7784 13a7 E0000000 		.4byte	0xe0
 7785 13ab 69       		.byte	0x69
 7786 13ac 0F       		.uleb128 0xf
 7787 13ad 08180000 		.4byte	.LASF547
 7788 13b1 0E       		.byte	0xe
 7789 13b2 4301     		.2byte	0x143
 7790 13b4 E0000000 		.4byte	0xe0
 7791 13b8 6A       		.byte	0x6a
 7792 13b9 0F       		.uleb128 0xf
 7793 13ba ED440000 		.4byte	.LASF548
 7794 13be 0E       		.byte	0xe
 7795 13bf 4401     		.2byte	0x144
 7796 13c1 E0000000 		.4byte	0xe0
 7797 13c5 6B       		.byte	0x6b
 7798 13c6 0F       		.uleb128 0xf
 7799 13c7 13120000 		.4byte	.LASF549
 7800 13cb 0E       		.byte	0xe
 7801 13cc 4501     		.2byte	0x145
 7802 13ce E0000000 		.4byte	0xe0
 7803 13d2 6C       		.byte	0x6c
 7804 13d3 00       		.byte	0
 7805 13d4 06       		.uleb128 0x6
 7806 13d5 011C0000 		.4byte	.LASF550
 7807 13d9 0E       		.byte	0xe
 7808 13da 4601     		.2byte	0x146
 7809 13dc 37120000 		.4byte	0x1237
 7810 13e0 0B       		.uleb128 0xb
 7811 13e1 01       		.byte	0x1
 7812 13e2 0F       		.byte	0xf
 7813 13e3 82       		.byte	0x82
 7814 13e4 90140000 		.4byte	0x1490
 7815 13e8 0C       		.uleb128 0xc
 7816 13e9 BC350000 		.4byte	.LASF551
 7817 13ed 00       		.sleb128 0
 7818 13ee 0C       		.uleb128 0xc
 7819 13ef E8470000 		.4byte	.LASF552
 7820 13f3 01       		.sleb128 1
 7821 13f4 0C       		.uleb128 0xc
 7822 13f5 7C3C0000 		.4byte	.LASF553
 7823 13f9 02       		.sleb128 2
 7824 13fa 0C       		.uleb128 0xc
 7825 13fb 86170000 		.4byte	.LASF554
 7826 13ff 03       		.sleb128 3
 7827 1400 0C       		.uleb128 0xc
 7828 1401 E82A0000 		.4byte	.LASF555
 7829 1405 04       		.sleb128 4
 7830 1406 0C       		.uleb128 0xc
 7831 1407 96090000 		.4byte	.LASF556
 7832 140b 05       		.sleb128 5
 7833 140c 0C       		.uleb128 0xc
 7834 140d 53180000 		.4byte	.LASF557
 7835 1411 06       		.sleb128 6
 7836 1412 17       		.uleb128 0x17
 7837 1413 54585000 		.ascii	"TXP\000"
 7838 1417 07       		.sleb128 7
ARM GAS  C:\Users\Helon\AppData\Local\Temp\ccKCxrf8.s 			page 207


 7839 1418 0C       		.uleb128 0xc
 7840 1419 09000000 		.4byte	.LASF558
 7841 141d 08       		.sleb128 8
 7842 141e 0C       		.uleb128 0xc
 7843 141f 15090000 		.4byte	.LASF559
 7844 1423 09       		.sleb128 9
 7845 1424 0C       		.uleb128 0xc
 7846 1425 432B0000 		.4byte	.LASF560
 7847 1429 0A       		.sleb128 10
 7848 142a 0C       		.uleb128 0xc
 7849 142b B3430000 		.4byte	.LASF561
 7850 142f 0B       		.sleb128 11
 7851 1430 0C       		.uleb128 0xc
 7852 1431 B41B0000 		.4byte	.LASF562
 7853 1435 0C       		.sleb128 12
 7854 1436 0C       		.uleb128 0xc
 7855 1437 AA3B0000 		.4byte	.LASF563
 7856 143b 0D       		.sleb128 13
 7857 143c 0C       		.uleb128 0xc
 7858 143d 7C190000 		.4byte	.LASF564
 7859 1441 0E       		.sleb128 14
 7860 1442 0C       		.uleb128 0xc
 7861 1443 DE1F0000 		.4byte	.LASF565
 7862 1447 0F       		.sleb128 15
 7863 1448 17       		.uleb128 0x17
 7864 1449 545800   		.ascii	"TX\000"
 7865 144c 10       		.sleb128 16
 7866 144d 0C       		.uleb128 0xc
 7867 144e A6250000 		.4byte	.LASF566
 7868 1452 11       		.sleb128 17
 7869 1453 0C       		.uleb128 0xc
 7870 1454 FD380000 		.4byte	.LASF567
 7871 1458 12       		.sleb128 18
 7872 1459 17       		.uleb128 0x17
 7873 145a 5F415400 		.ascii	"_AT\000"
 7874 145e 13       		.sleb128 19
 7875 145f 0C       		.uleb128 0xc
 7876 1460 9B170000 		.4byte	.LASF568
 7877 1464 14       		.sleb128 20
 7878 1465 0C       		.uleb128 0xc
 7879 1466 42320000 		.4byte	.LASF569
 7880 146a 15       		.sleb128 21
 7881 146b 0C       		.uleb128 0xc
 7882 146c 82050000 		.4byte	.LASF570
 7883 1470 16       		.sleb128 22
 7884 1471 0C       		.uleb128 0xc
 7885 1472 BF000000 		.4byte	.LASF571
 7886 1476 17       		.sleb128 23
 7887 1477 0C       		.uleb128 0xc
 7888 1478 D93A0000 		.4byte	.LASF572
 7889 147c 18       		.sleb128 24
 7890 147d 0C       		.uleb128 0xc
 7891 147e 8C2F0000 		.4byte	.LASF573
 7892 1482 19       		.sleb128 25
 7893 1483 0C       		.uleb128 0xc
 7894 1484 A6160000 		.4byte	.LASF574
 7895 1488 1A       		.sleb128 26
ARM GAS  C:\Users\Helon\AppData\Local\Temp\ccKCxrf8.s 			page 208


 7896 1489 0C       		.uleb128 0xc
 7897 148a 4B420000 		.4byte	.LASF575
 7898 148e 1B       		.sleb128 27
 7899 148f 00       		.byte	0
 7900 1490 13       		.uleb128 0x13
 7901 1491 25       		.byte	0x25
 7902 1492 0F       		.byte	0xf
 7903 1493 C0       		.byte	0xc0
 7904 1494 C9140000 		.4byte	0x14c9
 7905 1498 14       		.uleb128 0x14
 7906 1499 EE470000 		.4byte	.LASF576
 7907 149d 0F       		.byte	0xf
 7908 149e C3       		.byte	0xc3
 7909 149f C9140000 		.4byte	0x14c9
 7910 14a3 00       		.byte	0
 7911 14a4 14       		.uleb128 0x14
 7912 14a5 68180000 		.4byte	.LASF577
 7913 14a9 0F       		.byte	0xf
 7914 14aa C4       		.byte	0xc4
 7915 14ab C9140000 		.4byte	0x14c9
 7916 14af 04       		.byte	0x4
 7917 14b0 14       		.uleb128 0x14
 7918 14b1 3C1C0000 		.4byte	.LASF578
 7919 14b5 0F       		.byte	0xf
 7920 14b6 C6       		.byte	0xc6
 7921 14b7 B4000000 		.4byte	0xb4
 7922 14bb 08       		.byte	0x8
 7923 14bc 14       		.uleb128 0x14
 7924 14bd 4D2C0000 		.4byte	.LASF579
 7925 14c1 0F       		.byte	0xf
 7926 14c2 C8       		.byte	0xc8
 7927 14c3 A3060000 		.4byte	0x6a3
 7928 14c7 09       		.byte	0x9
 7929 14c8 00       		.byte	0
 7930 14c9 10       		.uleb128 0x10
 7931 14ca B4000000 		.4byte	0xb4
 7932 14ce D9140000 		.4byte	0x14d9
 7933 14d2 11       		.uleb128 0x11
 7934 14d3 59010000 		.4byte	0x159
 7935 14d7 03       		.byte	0x3
 7936 14d8 00       		.byte	0
 7937 14d9 04       		.uleb128 0x4
 7938 14da 98180000 		.4byte	.LASF580
 7939 14de 0F       		.byte	0xf
 7940 14df C9       		.byte	0xc9
 7941 14e0 90140000 		.4byte	0x1490
 7942 14e4 13       		.uleb128 0x13
 7943 14e5 1E       		.byte	0x1e
 7944 14e6 10       		.byte	0x10
 7945 14e7 25       		.byte	0x25
 7946 14e8 29150000 		.4byte	0x1529
 7947 14ec 14       		.uleb128 0x14
 7948 14ed 3D430000 		.4byte	.LASF581
 7949 14f1 10       		.byte	0x10
 7950 14f2 27       		.byte	0x27
 7951 14f3 0F050000 		.4byte	0x50f
 7952 14f7 00       		.byte	0
ARM GAS  C:\Users\Helon\AppData\Local\Temp\ccKCxrf8.s 			page 209


 7953 14f8 18       		.uleb128 0x18
 7954 14f9 69647800 		.ascii	"idx\000"
 7955 14fd 10       		.byte	0x10
 7956 14fe 28       		.byte	0x28
 7957 14ff B4000000 		.4byte	0xb4
 7958 1503 07       		.byte	0x7
 7959 1504 14       		.uleb128 0x14
 7960 1505 1E460000 		.4byte	.LASF220
 7961 1509 10       		.byte	0x10
 7962 150a 29       		.byte	0x29
 7963 150b A9000000 		.4byte	0xa9
 7964 150f 08       		.byte	0x8
 7965 1510 14       		.uleb128 0x14
 7966 1511 6A090000 		.4byte	.LASF582
 7967 1515 10       		.byte	0x10
 7968 1516 2A       		.byte	0x2a
 7969 1517 29150000 		.4byte	0x1529
 7970 151b 09       		.byte	0x9
 7971 151c 14       		.uleb128 0x14
 7972 151d 3A060000 		.4byte	.LASF583
 7973 1521 10       		.byte	0x10
 7974 1522 2C       		.byte	0x2c
 7975 1523 B4000000 		.4byte	0xb4
 7976 1527 1D       		.byte	0x1d
 7977 1528 00       		.byte	0
 7978 1529 10       		.uleb128 0x10
 7979 152a A9000000 		.4byte	0xa9
 7980 152e 39150000 		.4byte	0x1539
 7981 1532 11       		.uleb128 0x11
 7982 1533 59010000 		.4byte	0x159
 7983 1537 13       		.byte	0x13
 7984 1538 00       		.byte	0
 7985 1539 04       		.uleb128 0x4
 7986 153a E4210000 		.4byte	.LASF584
 7987 153e 10       		.byte	0x10
 7988 153f 2D       		.byte	0x2d
 7989 1540 E4140000 		.4byte	0x14e4
 7990 1544 19       		.uleb128 0x19
 7991 1545 C41A0000 		.4byte	.LASF589
 7992 1549 01       		.byte	0x1
 7993 154a A507     		.2byte	0x7a5
 7994 154c 01       		.byte	0x1
 7995 154d 5E150000 		.4byte	0x155e
 7996 1551 1A       		.uleb128 0x1a
 7997 1552 831C0000 		.4byte	.LASF585
 7998 1556 01       		.byte	0x1
 7999 1557 A907     		.2byte	0x7a9
 8000 1559 F6000000 		.4byte	0xf6
 8001 155d 00       		.byte	0
 8002 155e 1B       		.uleb128 0x1b
 8003 155f 24100000 		.4byte	.LASF689
 8004 1563 01       		.byte	0x1
 8005 1564 6807     		.2byte	0x768
 8006 1566 B4000000 		.4byte	0xb4
 8007 156a 01       		.byte	0x1
 8008 156b AA150000 		.4byte	0x15aa
 8009 156f 1C       		.uleb128 0x1c
ARM GAS  C:\Users\Helon\AppData\Local\Temp\ccKCxrf8.s 			page 210


 8010 1570 2F060000 		.4byte	.LASF591
 8011 1574 01       		.byte	0x1
 8012 1575 6807     		.2byte	0x768
 8013 1577 68010000 		.4byte	0x168
 8014 157b 1A       		.uleb128 0x1a
 8015 157c EC430000 		.4byte	.LASF586
 8016 1580 01       		.byte	0x1
 8017 1581 6C07     		.2byte	0x76c
 8018 1583 B4000000 		.4byte	0xb4
 8019 1587 1D       		.uleb128 0x1d
 8020 1588 6900     		.ascii	"i\000"
 8021 158a 01       		.byte	0x1
 8022 158b 6C07     		.2byte	0x76c
 8023 158d B4000000 		.4byte	0xb4
 8024 1591 1A       		.uleb128 0x1a
 8025 1592 F6210000 		.4byte	.LASF587
 8026 1596 01       		.byte	0x1
 8027 1597 6C07     		.2byte	0x76c
 8028 1599 B4000000 		.4byte	0xb4
 8029 159d 1A       		.uleb128 0x1a
 8030 159e C92B0000 		.4byte	.LASF588
 8031 15a2 01       		.byte	0x1
 8032 15a3 7A07     		.2byte	0x77a
 8033 15a5 62010000 		.4byte	0x162
 8034 15a9 00       		.byte	0
 8035 15aa 19       		.uleb128 0x19
 8036 15ab C12C0000 		.4byte	.LASF590
 8037 15af 01       		.byte	0x1
 8038 15b0 FF08     		.2byte	0x8ff
 8039 15b2 01       		.byte	0x1
 8040 15b3 DA150000 		.4byte	0x15da
 8041 15b7 1E       		.uleb128 0x1e
 8042 15b8 69647800 		.ascii	"idx\000"
 8043 15bc 01       		.byte	0x1
 8044 15bd FF08     		.2byte	0x8ff
 8045 15bf B4000000 		.4byte	0xb4
 8046 15c3 1A       		.uleb128 0x1a
 8047 15c4 683B0000 		.4byte	.LASF592
 8048 15c8 01       		.byte	0x1
 8049 15c9 0109     		.2byte	0x901
 8050 15cb AF030000 		.4byte	0x3af
 8051 15cf 1D       		.uleb128 0x1d
 8052 15d0 6900     		.ascii	"i\000"
 8053 15d2 01       		.byte	0x1
 8054 15d3 0209     		.2byte	0x902
 8055 15d5 B4000000 		.4byte	0xb4
 8056 15d9 00       		.byte	0
 8057 15da 19       		.uleb128 0x19
 8058 15db 853A0000 		.4byte	.LASF593
 8059 15df 01       		.byte	0x1
 8060 15e0 C002     		.2byte	0x2c0
 8061 15e2 01       		.byte	0x1
 8062 15e3 F4150000 		.4byte	0x15f4
 8063 15e7 1C       		.uleb128 0x1c
 8064 15e8 B0330000 		.4byte	.LASF594
 8065 15ec 01       		.byte	0x1
 8066 15ed C002     		.2byte	0x2c0
ARM GAS  C:\Users\Helon\AppData\Local\Temp\ccKCxrf8.s 			page 211


 8067 15ef D5000000 		.4byte	0xd5
 8068 15f3 00       		.byte	0
 8069 15f4 1F       		.uleb128 0x1f
 8070 15f5 FF1A0000 		.4byte	.LASF601
 8071 15f9 01       		.byte	0x1
 8072 15fa 67       		.byte	0x67
 8073 15fb 00000000 		.4byte	.LFB35
 8074 15ff EC020000 		.4byte	.LFE35-.LFB35
 8075 1603 01       		.uleb128 0x1
 8076 1604 9C       		.byte	0x9c
 8077 1605 81180000 		.4byte	0x1881
 8078 1609 20       		.uleb128 0x20
 8079 160a C2410000 		.4byte	.LASF595
 8080 160e 01       		.byte	0x1
 8081 160f 67       		.byte	0x67
 8082 1610 F6000000 		.4byte	0xf6
 8083 1614 00000000 		.4byte	.LLST0
 8084 1618 20       		.uleb128 0x20
 8085 1619 69020000 		.4byte	.LASF596
 8086 161d 01       		.byte	0x1
 8087 161e 67       		.byte	0x67
 8088 161f 60010000 		.4byte	0x160
 8089 1623 E3010000 		.4byte	.LLST1
 8090 1627 21       		.uleb128 0x21
 8091 1628 9B350000 		.4byte	.LASF597
 8092 162c 01       		.byte	0x1
 8093 162d 69       		.byte	0x69
 8094 162e 74080000 		.4byte	0x874
 8095 1632 02       		.uleb128 0x2
 8096 1633 91       		.byte	0x91
 8097 1634 5C       		.sleb128 -36
 8098 1635 22       		.uleb128 0x22
 8099 1636 471A0000 		.4byte	.LASF598
 8100 163a 01       		.byte	0x1
 8101 163b 6B       		.byte	0x6b
 8102 163c D50A0000 		.4byte	0xad5
 8103 1640 98030000 		.4byte	.LLST2
 8104 1644 23       		.uleb128 0x23
 8105 1645 6900     		.ascii	"i\000"
 8106 1647 01       		.byte	0x1
 8107 1648 6C       		.byte	0x6c
 8108 1649 B4000000 		.4byte	0xb4
 8109 164d C5030000 		.4byte	.LLST3
 8110 1651 22       		.uleb128 0x22
 8111 1652 DC340000 		.4byte	.LASF599
 8112 1656 01       		.byte	0x1
 8113 1657 6D       		.byte	0x6d
 8114 1658 81180000 		.4byte	0x1881
 8115 165c 3F040000 		.4byte	.LLST4
 8116 1660 22       		.uleb128 0x22
 8117 1661 35290000 		.4byte	.LASF600
 8118 1665 01       		.byte	0x1
 8119 1666 6E       		.byte	0x6e
 8120 1667 190A0000 		.4byte	0xa19
 8121 166b 5D040000 		.4byte	.LLST5
 8122 166f 24       		.uleb128 0x24
 8123 1670 2A000000 		.4byte	.LVL2
ARM GAS  C:\Users\Helon\AppData\Local\Temp\ccKCxrf8.s 			page 212


 8124 1674 AD310000 		.4byte	0x31ad
 8125 1678 86160000 		.4byte	0x1686
 8126 167c 25       		.uleb128 0x25
 8127 167d 01       		.uleb128 0x1
 8128 167e 50       		.byte	0x50
 8129 167f 05       		.uleb128 0x5
 8130 1680 03       		.byte	0x3
 8131 1681 00000000 		.4byte	.LC0
 8132 1685 00       		.byte	0
 8133 1686 26       		.uleb128 0x26
 8134 1687 74000000 		.4byte	.LVL7
 8135 168b C6310000 		.4byte	0x31c6
 8136 168f 24       		.uleb128 0x24
 8137 1690 92000000 		.4byte	.LVL12
 8138 1694 D2310000 		.4byte	0x31d2
 8139 1698 A3160000 		.4byte	0x16a3
 8140 169c 25       		.uleb128 0x25
 8141 169d 01       		.uleb128 0x1
 8142 169e 50       		.byte	0x50
 8143 169f 02       		.uleb128 0x2
 8144 16a0 91       		.byte	0x91
 8145 16a1 5C       		.sleb128 -36
 8146 16a2 00       		.byte	0
 8147 16a3 26       		.uleb128 0x26
 8148 16a4 B2000000 		.4byte	.LVL16
 8149 16a8 E9310000 		.4byte	0x31e9
 8150 16ac 24       		.uleb128 0x24
 8151 16ad C6000000 		.4byte	.LVL19
 8152 16b1 F1310000 		.4byte	0x31f1
 8153 16b5 BF160000 		.4byte	0x16bf
 8154 16b9 25       		.uleb128 0x25
 8155 16ba 01       		.uleb128 0x1
 8156 16bb 50       		.byte	0x50
 8157 16bc 01       		.uleb128 0x1
 8158 16bd 31       		.byte	0x31
 8159 16be 00       		.byte	0
 8160 16bf 24       		.uleb128 0x24
 8161 16c0 D0000000 		.4byte	.LVL22
 8162 16c4 07320000 		.4byte	0x3207
 8163 16c8 DB160000 		.4byte	0x16db
 8164 16cc 25       		.uleb128 0x25
 8165 16cd 01       		.uleb128 0x1
 8166 16ce 52       		.byte	0x52
 8167 16cf 01       		.uleb128 0x1
 8168 16d0 38       		.byte	0x38
 8169 16d1 25       		.uleb128 0x25
 8170 16d2 01       		.uleb128 0x1
 8171 16d3 50       		.byte	0x50
 8172 16d4 05       		.uleb128 0x5
 8173 16d5 03       		.byte	0x3
 8174 16d6 00000000 		.4byte	ConnParam
 8175 16da 00       		.byte	0
 8176 16db 24       		.uleb128 0x24
 8177 16dc E2000000 		.4byte	.LVL24
 8178 16e0 AD310000 		.4byte	0x31ad
 8179 16e4 F2160000 		.4byte	0x16f2
 8180 16e8 25       		.uleb128 0x25
ARM GAS  C:\Users\Helon\AppData\Local\Temp\ccKCxrf8.s 			page 213


 8181 16e9 01       		.uleb128 0x1
 8182 16ea 50       		.byte	0x50
 8183 16eb 05       		.uleb128 0x5
 8184 16ec 03       		.byte	0x3
 8185 16ed 25000000 		.4byte	.LC9
 8186 16f1 00       		.byte	0
 8187 16f2 24       		.uleb128 0x24
 8188 16f3 EA000000 		.4byte	.LVL25
 8189 16f7 2B320000 		.4byte	0x322b
 8190 16fb 06170000 		.4byte	0x1706
 8191 16ff 25       		.uleb128 0x25
 8192 1700 01       		.uleb128 0x1
 8193 1701 51       		.byte	0x51
 8194 1702 02       		.uleb128 0x2
 8195 1703 75       		.byte	0x75
 8196 1704 00       		.sleb128 0
 8197 1705 00       		.byte	0
 8198 1706 24       		.uleb128 0x24
 8199 1707 F4000000 		.4byte	.LVL26
 8200 170b 4C320000 		.4byte	0x324c
 8201 170f 1D170000 		.4byte	0x171d
 8202 1713 25       		.uleb128 0x25
 8203 1714 01       		.uleb128 0x1
 8204 1715 50       		.byte	0x50
 8205 1716 05       		.uleb128 0x5
 8206 1717 03       		.byte	0x3
 8207 1718 33000000 		.4byte	.LC13
 8208 171c 00       		.byte	0
 8209 171d 24       		.uleb128 0x24
 8210 171e FC000000 		.4byte	.LVL27
 8211 1722 62320000 		.4byte	0x3262
 8212 1726 31170000 		.4byte	0x1731
 8213 172a 25       		.uleb128 0x25
 8214 172b 01       		.uleb128 0x1
 8215 172c 51       		.byte	0x51
 8216 172d 02       		.uleb128 0x2
 8217 172e 75       		.byte	0x75
 8218 172f 00       		.sleb128 0
 8219 1730 00       		.byte	0
 8220 1731 24       		.uleb128 0x24
 8221 1732 0C010000 		.4byte	.LVL28
 8222 1736 7D320000 		.4byte	0x327d
 8223 173a 46170000 		.4byte	0x1746
 8224 173e 25       		.uleb128 0x25
 8225 173f 01       		.uleb128 0x1
 8226 1740 51       		.byte	0x51
 8227 1741 03       		.uleb128 0x3
 8228 1742 0A       		.byte	0xa
 8229 1743 0002     		.2byte	0x200
 8230 1745 00       		.byte	0
 8231 1746 24       		.uleb128 0x24
 8232 1747 16010000 		.4byte	.LVL31
 8233 174b 07320000 		.4byte	0x3207
 8234 174f 62170000 		.4byte	0x1762
 8235 1753 25       		.uleb128 0x25
 8236 1754 01       		.uleb128 0x1
 8237 1755 52       		.byte	0x52
ARM GAS  C:\Users\Helon\AppData\Local\Temp\ccKCxrf8.s 			page 214


 8238 1756 01       		.uleb128 0x1
 8239 1757 38       		.byte	0x38
 8240 1758 25       		.uleb128 0x25
 8241 1759 01       		.uleb128 0x1
 8242 175a 50       		.byte	0x50
 8243 175b 05       		.uleb128 0x5
 8244 175c 03       		.byte	0x3
 8245 175d 00000000 		.4byte	ConnParam
 8246 1761 00       		.byte	0
 8247 1762 24       		.uleb128 0x24
 8248 1763 3A010000 		.4byte	.LVL35
 8249 1767 4C320000 		.4byte	0x324c
 8250 176b 79170000 		.4byte	0x1779
 8251 176f 25       		.uleb128 0x25
 8252 1770 01       		.uleb128 0x1
 8253 1771 50       		.byte	0x50
 8254 1772 05       		.uleb128 0x5
 8255 1773 03       		.byte	0x3
 8256 1774 45000000 		.4byte	.LC16
 8257 1778 00       		.byte	0
 8258 1779 24       		.uleb128 0x24
 8259 177a 46010000 		.4byte	.LVL36
 8260 177e F1310000 		.4byte	0x31f1
 8261 1782 8C170000 		.4byte	0x178c
 8262 1786 25       		.uleb128 0x25
 8263 1787 01       		.uleb128 0x1
 8264 1788 50       		.byte	0x50
 8265 1789 01       		.uleb128 0x1
 8266 178a 31       		.byte	0x31
 8267 178b 00       		.byte	0
 8268 178c 24       		.uleb128 0x24
 8269 178d 56010000 		.4byte	.LVL40
 8270 1791 4C320000 		.4byte	0x324c
 8271 1795 A3170000 		.4byte	0x17a3
 8272 1799 25       		.uleb128 0x25
 8273 179a 01       		.uleb128 0x1
 8274 179b 50       		.byte	0x50
 8275 179c 05       		.uleb128 0x5
 8276 179d 03       		.byte	0x3
 8277 179e 5B000000 		.4byte	.LC18
 8278 17a2 00       		.byte	0
 8279 17a3 24       		.uleb128 0x24
 8280 17a4 62010000 		.4byte	.LVL41
 8281 17a8 98320000 		.4byte	0x3298
 8282 17ac B6170000 		.4byte	0x17b6
 8283 17b0 25       		.uleb128 0x25
 8284 17b1 01       		.uleb128 0x1
 8285 17b2 50       		.byte	0x50
 8286 17b3 01       		.uleb128 0x1
 8287 17b4 31       		.byte	0x31
 8288 17b5 00       		.byte	0
 8289 17b6 26       		.uleb128 0x26
 8290 17b7 66010000 		.4byte	.LVL42
 8291 17bb C6310000 		.4byte	0x31c6
 8292 17bf 26       		.uleb128 0x26
 8293 17c0 7C010000 		.4byte	.LVL43
 8294 17c4 AE320000 		.4byte	0x32ae
ARM GAS  C:\Users\Helon\AppData\Local\Temp\ccKCxrf8.s 			page 215


 8295 17c8 26       		.uleb128 0x26
 8296 17c9 80010000 		.4byte	.LVL44
 8297 17cd BF320000 		.4byte	0x32bf
 8298 17d1 26       		.uleb128 0x26
 8299 17d2 84010000 		.4byte	.LVL45
 8300 17d6 C6320000 		.4byte	0x32c6
 8301 17da 26       		.uleb128 0x26
 8302 17db 88010000 		.4byte	.LVL46
 8303 17df CE320000 		.4byte	0x32ce
 8304 17e3 26       		.uleb128 0x26
 8305 17e4 8C010000 		.4byte	.LVL47
 8306 17e8 D6320000 		.4byte	0x32d6
 8307 17ec 26       		.uleb128 0x26
 8308 17ed B4010000 		.4byte	.LVL54
 8309 17f1 DD320000 		.4byte	0x32dd
 8310 17f5 24       		.uleb128 0x24
 8311 17f6 CE010000 		.4byte	.LVL59
 8312 17fa AE320000 		.4byte	0x32ae
 8313 17fe 08180000 		.4byte	0x1808
 8314 1802 25       		.uleb128 0x25
 8315 1803 01       		.uleb128 0x1
 8316 1804 50       		.byte	0x50
 8317 1805 01       		.uleb128 0x1
 8318 1806 31       		.byte	0x31
 8319 1807 00       		.byte	0
 8320 1808 24       		.uleb128 0x24
 8321 1809 DA010000 		.4byte	.LVL62
 8322 180d AE320000 		.4byte	0x32ae
 8323 1811 1B180000 		.4byte	0x181b
 8324 1815 25       		.uleb128 0x25
 8325 1816 01       		.uleb128 0x1
 8326 1817 50       		.byte	0x50
 8327 1818 01       		.uleb128 0x1
 8328 1819 30       		.byte	0x30
 8329 181a 00       		.byte	0
 8330 181b 26       		.uleb128 0x26
 8331 181c 1E020000 		.4byte	.LVL70
 8332 1820 DD320000 		.4byte	0x32dd
 8333 1824 24       		.uleb128 0x24
 8334 1825 40020000 		.4byte	.LVL76
 8335 1829 4C320000 		.4byte	0x324c
 8336 182d 3B180000 		.4byte	0x183b
 8337 1831 25       		.uleb128 0x25
 8338 1832 01       		.uleb128 0x1
 8339 1833 50       		.byte	0x50
 8340 1834 05       		.uleb128 0x5
 8341 1835 03       		.byte	0x3
 8342 1836 A0000000 		.4byte	.LC24
 8343 183a 00       		.byte	0
 8344 183b 26       		.uleb128 0x26
 8345 183c 56020000 		.4byte	.LVL81
 8346 1840 EF320000 		.4byte	0x32ef
 8347 1844 24       		.uleb128 0x24
 8348 1845 68020000 		.4byte	.LVL85
 8349 1849 4C320000 		.4byte	0x324c
 8350 184d 5B180000 		.4byte	0x185b
 8351 1851 25       		.uleb128 0x25
ARM GAS  C:\Users\Helon\AppData\Local\Temp\ccKCxrf8.s 			page 216


 8352 1852 01       		.uleb128 0x1
 8353 1853 50       		.byte	0x50
 8354 1854 05       		.uleb128 0x5
 8355 1855 03       		.byte	0x3
 8356 1856 C1000000 		.4byte	.LC27
 8357 185a 00       		.byte	0
 8358 185b 26       		.uleb128 0x26
 8359 185c 70020000 		.4byte	.LVL86
 8360 1860 4C320000 		.4byte	0x324c
 8361 1864 26       		.uleb128 0x26
 8362 1865 76020000 		.4byte	.LVL87
 8363 1869 AD310000 		.4byte	0x31ad
 8364 186d 27       		.uleb128 0x27
 8365 186e 80020000 		.4byte	.LVL91
 8366 1872 4C320000 		.4byte	0x324c
 8367 1876 25       		.uleb128 0x25
 8368 1877 01       		.uleb128 0x1
 8369 1878 50       		.byte	0x50
 8370 1879 05       		.uleb128 0x5
 8371 187a 03       		.byte	0x3
 8372 187b F8000000 		.4byte	.LC35
 8373 187f 00       		.byte	0
 8374 1880 00       		.byte	0
 8375 1881 07       		.uleb128 0x7
 8376 1882 04       		.byte	0x4
 8377 1883 710A0000 		.4byte	0xa71
 8378 1887 28       		.uleb128 0x28
 8379 1888 44150000 		.4byte	0x1544
 8380 188c 00000000 		.4byte	.LFB45
 8381 1890 38000000 		.4byte	.LFE45-.LFB45
 8382 1894 01       		.uleb128 0x1
 8383 1895 9C       		.byte	0x9c
 8384 1896 EA180000 		.4byte	0x18ea
 8385 189a 29       		.uleb128 0x29
 8386 189b 51150000 		.4byte	0x1551
 8387 189f 05       		.uleb128 0x5
 8388 18a0 03       		.byte	0x3
 8389 18a1 18000000 		.4byte	timercount.7964
 8390 18a5 2A       		.uleb128 0x2a
 8391 18a6 1A000000 		.4byte	.LBB27
 8392 18aa 10000000 		.4byte	.LBE27-.LBB27
 8393 18ae DA180000 		.4byte	0x18da
 8394 18b2 29       		.uleb128 0x29
 8395 18b3 51150000 		.4byte	0x1551
 8396 18b7 05       		.uleb128 0x5
 8397 18b8 03       		.byte	0x3
 8398 18b9 18000000 		.4byte	timercount.7964
 8399 18bd 26       		.uleb128 0x26
 8400 18be 22000000 		.4byte	.LVL94
 8401 18c2 10330000 		.4byte	0x3310
 8402 18c6 27       		.uleb128 0x27
 8403 18c7 2A000000 		.4byte	.LVL95
 8404 18cb AD310000 		.4byte	0x31ad
 8405 18cf 25       		.uleb128 0x25
 8406 18d0 01       		.uleb128 0x1
 8407 18d1 50       		.byte	0x50
 8408 18d2 05       		.uleb128 0x5
ARM GAS  C:\Users\Helon\AppData\Local\Temp\ccKCxrf8.s 			page 217


 8409 18d3 03       		.byte	0x3
 8410 18d4 08010000 		.4byte	.LC43
 8411 18d8 00       		.byte	0
 8412 18d9 00       		.byte	0
 8413 18da 27       		.uleb128 0x27
 8414 18db 08000000 		.4byte	.LVL93
 8415 18df 18330000 		.4byte	0x3318
 8416 18e3 25       		.uleb128 0x25
 8417 18e4 01       		.uleb128 0x1
 8418 18e5 50       		.byte	0x50
 8419 18e6 01       		.uleb128 0x1
 8420 18e7 31       		.byte	0x31
 8421 18e8 00       		.byte	0
 8422 18e9 00       		.byte	0
 8423 18ea 2B       		.uleb128 0x2b
 8424 18eb FD010000 		.4byte	.LASF602
 8425 18ef 01       		.byte	0x1
 8426 18f0 F101     		.2byte	0x1f1
 8427 18f2 00000000 		.4byte	.LFB36
 8428 18f6 78000000 		.4byte	.LFE36-.LFB36
 8429 18fa 01       		.uleb128 0x1
 8430 18fb 9C       		.byte	0x9c
 8431 18fc BF190000 		.4byte	0x19bf
 8432 1900 2C       		.uleb128 0x2c
 8433 1901 60210000 		.4byte	.LASF603
 8434 1905 01       		.byte	0x1
 8435 1906 F401     		.2byte	0x1f4
 8436 1908 E4030000 		.4byte	0x3e4
 8437 190c 32050000 		.4byte	.LLST6
 8438 1910 2C       		.uleb128 0x2c
 8439 1911 FD170000 		.4byte	.LASF604
 8440 1915 01       		.byte	0x1
 8441 1916 F501     		.2byte	0x1f5
 8442 1918 2B040000 		.4byte	0x42b
 8443 191c 50050000 		.4byte	.LLST7
 8444 1920 24       		.uleb128 0x24
 8445 1921 08000000 		.4byte	.LVL96
 8446 1925 2A330000 		.4byte	0x332a
 8447 1929 33190000 		.4byte	0x1933
 8448 192d 25       		.uleb128 0x25
 8449 192e 01       		.uleb128 0x1
 8450 192f 50       		.byte	0x50
 8451 1930 01       		.uleb128 0x1
 8452 1931 33       		.byte	0x33
 8453 1932 00       		.byte	0
 8454 1933 26       		.uleb128 0x26
 8455 1934 10000000 		.4byte	.LVL98
 8456 1938 40330000 		.4byte	0x3340
 8457 193c 24       		.uleb128 0x24
 8458 193d 22000000 		.4byte	.LVL100
 8459 1941 4C330000 		.4byte	0x334c
 8460 1945 4F190000 		.4byte	0x194f
 8461 1949 25       		.uleb128 0x25
 8462 194a 01       		.uleb128 0x1
 8463 194b 50       		.byte	0x50
 8464 194c 01       		.uleb128 0x1
 8465 194d 30       		.byte	0x30
ARM GAS  C:\Users\Helon\AppData\Local\Temp\ccKCxrf8.s 			page 218


 8466 194e 00       		.byte	0
 8467 194f 26       		.uleb128 0x26
 8468 1950 28000000 		.4byte	.LVL101
 8469 1954 C6310000 		.4byte	0x31c6
 8470 1958 26       		.uleb128 0x26
 8471 1959 3A000000 		.4byte	.LVL102
 8472 195d 5D330000 		.4byte	0x335d
 8473 1961 26       		.uleb128 0x26
 8474 1962 3E000000 		.4byte	.LVL103
 8475 1966 64330000 		.4byte	0x3364
 8476 196a 26       		.uleb128 0x26
 8477 196b 42000000 		.4byte	.LVL104
 8478 196f 6B330000 		.4byte	0x336b
 8479 1973 24       		.uleb128 0x24
 8480 1974 48000000 		.4byte	.LVL105
 8481 1978 72330000 		.4byte	0x3372
 8482 197c 86190000 		.4byte	0x1986
 8483 1980 25       		.uleb128 0x25
 8484 1981 01       		.uleb128 0x1
 8485 1982 50       		.byte	0x50
 8486 1983 01       		.uleb128 0x1
 8487 1984 35       		.byte	0x35
 8488 1985 00       		.byte	0
 8489 1986 26       		.uleb128 0x26
 8490 1987 4C000000 		.4byte	.LVL106
 8491 198b CE320000 		.4byte	0x32ce
 8492 198f 26       		.uleb128 0x26
 8493 1990 50000000 		.4byte	.LVL107
 8494 1994 83330000 		.4byte	0x3383
 8495 1998 26       		.uleb128 0x26
 8496 1999 54000000 		.4byte	.LVL108
 8497 199d 8A330000 		.4byte	0x338a
 8498 19a1 24       		.uleb128 0x24
 8499 19a2 5E000000 		.4byte	.LVL109
 8500 19a6 4C330000 		.4byte	0x334c
 8501 19aa B5190000 		.4byte	0x19b5
 8502 19ae 25       		.uleb128 0x25
 8503 19af 01       		.uleb128 0x1
 8504 19b0 50       		.byte	0x50
 8505 19b1 02       		.uleb128 0x2
 8506 19b2 75       		.byte	0x75
 8507 19b3 00       		.sleb128 0
 8508 19b4 00       		.byte	0
 8509 19b5 26       		.uleb128 0x26
 8510 19b6 6C000000 		.4byte	.LVL111
 8511 19ba 95330000 		.4byte	0x3395
 8512 19be 00       		.byte	0
 8513 19bf 2D       		.uleb128 0x2d
 8514 19c0 5E1F0000 		.4byte	.LASF605
 8515 19c4 01       		.byte	0x1
 8516 19c5 3202     		.2byte	0x232
 8517 19c7 00000000 		.4byte	.LFB37
 8518 19cb 02000000 		.4byte	.LFE37-.LFB37
 8519 19cf 01       		.uleb128 0x1
 8520 19d0 9C       		.byte	0x9c
 8521 19d1 2D       		.uleb128 0x2d
 8522 19d2 9E3B0000 		.4byte	.LASF606
ARM GAS  C:\Users\Helon\AppData\Local\Temp\ccKCxrf8.s 			page 219


 8523 19d6 01       		.byte	0x1
 8524 19d7 4A02     		.2byte	0x24a
 8525 19d9 00000000 		.4byte	.LFB38
 8526 19dd 24000000 		.4byte	.LFE38-.LFB38
 8527 19e1 01       		.uleb128 0x1
 8528 19e2 9C       		.byte	0x9c
 8529 19e3 2D       		.uleb128 0x2d
 8530 19e4 59430000 		.4byte	.LASF607
 8531 19e8 01       		.byte	0x1
 8532 19e9 9902     		.2byte	0x299
 8533 19eb 00000000 		.4byte	.LFB40
 8534 19ef 02000000 		.4byte	.LFE40-.LFB40
 8535 19f3 01       		.uleb128 0x1
 8536 19f4 9C       		.byte	0x9c
 8537 19f5 28       		.uleb128 0x28
 8538 19f6 DA150000 		.4byte	0x15da
 8539 19fa 00000000 		.4byte	.LFB41
 8540 19fe 02000000 		.4byte	.LFE41-.LFB41
 8541 1a02 01       		.uleb128 0x1
 8542 1a03 9C       		.byte	0x9c
 8543 1a04 101A0000 		.4byte	0x1a10
 8544 1a08 2E       		.uleb128 0x2e
 8545 1a09 E7150000 		.4byte	0x15e7
 8546 1a0d 01       		.uleb128 0x1
 8547 1a0e 50       		.byte	0x50
 8548 1a0f 00       		.byte	0
 8549 1a10 2B       		.uleb128 0x2b
 8550 1a11 FE1F0000 		.4byte	.LASF608
 8551 1a15 01       		.byte	0x1
 8552 1a16 D702     		.2byte	0x2d7
 8553 1a18 00000000 		.4byte	.LFB42
 8554 1a1c 1C000000 		.4byte	.LFE42-.LFB42
 8555 1a20 01       		.uleb128 0x1
 8556 1a21 9C       		.byte	0x9c
 8557 1a22 6F1A0000 		.4byte	0x1a6f
 8558 1a26 24       		.uleb128 0x24
 8559 1a27 08000000 		.4byte	.LVL113
 8560 1a2b 9C330000 		.4byte	0x339c
 8561 1a2f 391A0000 		.4byte	0x1a39
 8562 1a33 25       		.uleb128 0x25
 8563 1a34 01       		.uleb128 0x1
 8564 1a35 50       		.byte	0x50
 8565 1a36 01       		.uleb128 0x1
 8566 1a37 36       		.byte	0x36
 8567 1a38 00       		.byte	0
 8568 1a39 24       		.uleb128 0x24
 8569 1a3a 0E000000 		.4byte	.LVL114
 8570 1a3e AD330000 		.4byte	0x33ad
 8571 1a42 4C1A0000 		.4byte	0x1a4c
 8572 1a46 25       		.uleb128 0x25
 8573 1a47 01       		.uleb128 0x1
 8574 1a48 50       		.byte	0x50
 8575 1a49 01       		.uleb128 0x1
 8576 1a4a 36       		.byte	0x36
 8577 1a4b 00       		.byte	0
 8578 1a4c 24       		.uleb128 0x24
 8579 1a4d 14000000 		.4byte	.LVL115
ARM GAS  C:\Users\Helon\AppData\Local\Temp\ccKCxrf8.s 			page 220


 8580 1a51 4C330000 		.4byte	0x334c
 8581 1a55 5F1A0000 		.4byte	0x1a5f
 8582 1a59 25       		.uleb128 0x25
 8583 1a5a 01       		.uleb128 0x1
 8584 1a5b 50       		.byte	0x50
 8585 1a5c 01       		.uleb128 0x1
 8586 1a5d 31       		.byte	0x31
 8587 1a5e 00       		.byte	0
 8588 1a5f 27       		.uleb128 0x27
 8589 1a60 1A000000 		.4byte	.LVL116
 8590 1a64 BE330000 		.4byte	0x33be
 8591 1a68 25       		.uleb128 0x25
 8592 1a69 01       		.uleb128 0x1
 8593 1a6a 50       		.byte	0x50
 8594 1a6b 01       		.uleb128 0x1
 8595 1a6c 31       		.byte	0x31
 8596 1a6d 00       		.byte	0
 8597 1a6e 00       		.byte	0
 8598 1a6f 2B       		.uleb128 0x2b
 8599 1a70 FF270000 		.4byte	.LASF609
 8600 1a74 01       		.byte	0x1
 8601 1a75 6F02     		.2byte	0x26f
 8602 1a77 00000000 		.4byte	.LFB39
 8603 1a7b 54000000 		.4byte	.LFE39-.LFB39
 8604 1a7f 01       		.uleb128 0x1
 8605 1a80 9C       		.byte	0x9c
 8606 1a81 171B0000 		.4byte	0x1b17
 8607 1a85 24       		.uleb128 0x24
 8608 1a86 08000000 		.4byte	.LVL117
 8609 1a8a CF330000 		.4byte	0x33cf
 8610 1a8e 981A0000 		.4byte	0x1a98
 8611 1a92 25       		.uleb128 0x25
 8612 1a93 01       		.uleb128 0x1
 8613 1a94 50       		.byte	0x50
 8614 1a95 01       		.uleb128 0x1
 8615 1a96 36       		.byte	0x36
 8616 1a97 00       		.byte	0
 8617 1a98 24       		.uleb128 0x24
 8618 1a99 0E000000 		.4byte	.LVL118
 8619 1a9d AE320000 		.4byte	0x32ae
 8620 1aa1 AB1A0000 		.4byte	0x1aab
 8621 1aa5 25       		.uleb128 0x25
 8622 1aa6 01       		.uleb128 0x1
 8623 1aa7 50       		.byte	0x50
 8624 1aa8 01       		.uleb128 0x1
 8625 1aa9 30       		.byte	0x30
 8626 1aaa 00       		.byte	0
 8627 1aab 24       		.uleb128 0x24
 8628 1aac 14000000 		.4byte	.LVL119
 8629 1ab0 E0330000 		.4byte	0x33e0
 8630 1ab4 BE1A0000 		.4byte	0x1abe
 8631 1ab8 25       		.uleb128 0x25
 8632 1ab9 01       		.uleb128 0x1
 8633 1aba 50       		.byte	0x50
 8634 1abb 01       		.uleb128 0x1
 8635 1abc 32       		.byte	0x32
 8636 1abd 00       		.byte	0
ARM GAS  C:\Users\Helon\AppData\Local\Temp\ccKCxrf8.s 			page 221


 8637 1abe 24       		.uleb128 0x24
 8638 1abf 1A000000 		.4byte	.LVL120
 8639 1ac3 F1330000 		.4byte	0x33f1
 8640 1ac7 D11A0000 		.4byte	0x1ad1
 8641 1acb 25       		.uleb128 0x25
 8642 1acc 01       		.uleb128 0x1
 8643 1acd 50       		.byte	0x50
 8644 1ace 01       		.uleb128 0x1
 8645 1acf 32       		.byte	0x32
 8646 1ad0 00       		.byte	0
 8647 1ad1 26       		.uleb128 0x26
 8648 1ad2 2C000000 		.4byte	.LVL121
 8649 1ad6 02340000 		.4byte	0x3402
 8650 1ada 24       		.uleb128 0x24
 8651 1adb 32000000 		.4byte	.LVL122
 8652 1adf 0A340000 		.4byte	0x340a
 8653 1ae3 F11A0000 		.4byte	0x1af1
 8654 1ae7 25       		.uleb128 0x25
 8655 1ae8 01       		.uleb128 0x1
 8656 1ae9 50       		.byte	0x50
 8657 1aea 05       		.uleb128 0x5
 8658 1aeb 03       		.byte	0x3
 8659 1aec 00000000 		.4byte	MyTimerIsr
 8660 1af0 00       		.byte	0
 8661 1af1 26       		.uleb128 0x26
 8662 1af2 36000000 		.4byte	.LVL123
 8663 1af6 D6320000 		.4byte	0x32d6
 8664 1afa 26       		.uleb128 0x26
 8665 1afb 3A000000 		.4byte	.LVL124
 8666 1aff 101A0000 		.4byte	0x1a10
 8667 1b03 27       		.uleb128 0x27
 8668 1b04 40000000 		.4byte	.LVL125
 8669 1b08 1B340000 		.4byte	0x341b
 8670 1b0c 25       		.uleb128 0x25
 8671 1b0d 01       		.uleb128 0x1
 8672 1b0e 50       		.byte	0x50
 8673 1b0f 05       		.uleb128 0x5
 8674 1b10 03       		.byte	0x3
 8675 1b11 00000000 		.4byte	StackEventHandler
 8676 1b15 00       		.byte	0
 8677 1b16 00       		.byte	0
 8678 1b17 28       		.uleb128 0x28
 8679 1b18 5E150000 		.4byte	0x155e
 8680 1b1c 00000000 		.4byte	.LFB44
 8681 1b20 70000000 		.4byte	.LFE44-.LFB44
 8682 1b24 01       		.uleb128 0x1
 8683 1b25 9C       		.byte	0x9c
 8684 1b26 261C0000 		.4byte	0x1c26
 8685 1b2a 2F       		.uleb128 0x2f
 8686 1b2b 6F150000 		.4byte	0x156f
 8687 1b2f 6E050000 		.4byte	.LLST8
 8688 1b33 30       		.uleb128 0x30
 8689 1b34 7B150000 		.4byte	0x157b
 8690 1b38 9A050000 		.4byte	.LLST9
 8691 1b3c 30       		.uleb128 0x30
 8692 1b3d 87150000 		.4byte	0x1587
 8693 1b41 9A050000 		.4byte	.LLST9
ARM GAS  C:\Users\Helon\AppData\Local\Temp\ccKCxrf8.s 			page 222


 8694 1b45 31       		.uleb128 0x31
 8695 1b46 91150000 		.4byte	0x1591
 8696 1b4a 31       		.uleb128 0x31
 8697 1b4b 9D150000 		.4byte	0x159d
 8698 1b4f 2A       		.uleb128 0x2a
 8699 1b50 14000000 		.4byte	.LBB30
 8700 1b54 4E000000 		.4byte	.LBE30-.LBB30
 8701 1b58 0C1C0000 		.4byte	0x1c0c
 8702 1b5c 2F       		.uleb128 0x2f
 8703 1b5d 6F150000 		.4byte	0x156f
 8704 1b61 AE050000 		.4byte	.LLST11
 8705 1b65 32       		.uleb128 0x32
 8706 1b66 14000000 		.4byte	.LBB31
 8707 1b6a 4E000000 		.4byte	.LBE31-.LBB31
 8708 1b6e 30       		.uleb128 0x30
 8709 1b6f 7B150000 		.4byte	0x157b
 8710 1b73 CF050000 		.4byte	.LLST12
 8711 1b77 30       		.uleb128 0x30
 8712 1b78 87150000 		.4byte	0x1587
 8713 1b7c E3050000 		.4byte	.LLST13
 8714 1b80 30       		.uleb128 0x30
 8715 1b81 91150000 		.4byte	0x1591
 8716 1b85 10060000 		.4byte	.LLST14
 8717 1b89 30       		.uleb128 0x30
 8718 1b8a 9D150000 		.4byte	0x159d
 8719 1b8e 2E060000 		.4byte	.LLST15
 8720 1b92 24       		.uleb128 0x24
 8721 1b93 1C000000 		.4byte	.LVL130
 8722 1b97 31340000 		.4byte	0x3431
 8723 1b9b AC1B0000 		.4byte	0x1bac
 8724 1b9f 25       		.uleb128 0x25
 8725 1ba0 01       		.uleb128 0x1
 8726 1ba1 51       		.byte	0x51
 8727 1ba2 02       		.uleb128 0x2
 8728 1ba3 08       		.byte	0x8
 8729 1ba4 3D       		.byte	0x3d
 8730 1ba5 25       		.uleb128 0x25
 8731 1ba6 01       		.uleb128 0x1
 8732 1ba7 50       		.byte	0x50
 8733 1ba8 02       		.uleb128 0x2
 8734 1ba9 74       		.byte	0x74
 8735 1baa 00       		.sleb128 0
 8736 1bab 00       		.byte	0
 8737 1bac 24       		.uleb128 0x24
 8738 1bad 30000000 		.4byte	.LVL133
 8739 1bb1 4B340000 		.4byte	0x344b
 8740 1bb5 C01B0000 		.4byte	0x1bc0
 8741 1bb9 25       		.uleb128 0x25
 8742 1bba 01       		.uleb128 0x1
 8743 1bbb 50       		.byte	0x50
 8744 1bbc 02       		.uleb128 0x2
 8745 1bbd 75       		.byte	0x75
 8746 1bbe 00       		.sleb128 0
 8747 1bbf 00       		.byte	0
 8748 1bc0 24       		.uleb128 0x24
 8749 1bc1 3C000000 		.4byte	.LVL135
 8750 1bc5 60340000 		.4byte	0x3460
ARM GAS  C:\Users\Helon\AppData\Local\Temp\ccKCxrf8.s 			page 223


 8751 1bc9 E01B0000 		.4byte	0x1be0
 8752 1bcd 25       		.uleb128 0x25
 8753 1bce 01       		.uleb128 0x1
 8754 1bcf 52       		.byte	0x52
 8755 1bd0 02       		.uleb128 0x2
 8756 1bd1 75       		.byte	0x75
 8757 1bd2 00       		.sleb128 0
 8758 1bd3 25       		.uleb128 0x25
 8759 1bd4 01       		.uleb128 0x1
 8760 1bd5 51       		.byte	0x51
 8761 1bd6 02       		.uleb128 0x2
 8762 1bd7 74       		.byte	0x74
 8763 1bd8 00       		.sleb128 0
 8764 1bd9 25       		.uleb128 0x25
 8765 1bda 01       		.uleb128 0x1
 8766 1bdb 50       		.byte	0x50
 8767 1bdc 02       		.uleb128 0x2
 8768 1bdd 76       		.byte	0x76
 8769 1bde 00       		.sleb128 0
 8770 1bdf 00       		.byte	0
 8771 1be0 24       		.uleb128 0x24
 8772 1be1 4E000000 		.4byte	.LVL137
 8773 1be5 7F340000 		.4byte	0x347f
 8774 1be9 FA1B0000 		.4byte	0x1bfa
 8775 1bed 25       		.uleb128 0x25
 8776 1bee 01       		.uleb128 0x1
 8777 1bef 52       		.byte	0x52
 8778 1bf0 02       		.uleb128 0x2
 8779 1bf1 75       		.byte	0x75
 8780 1bf2 00       		.sleb128 0
 8781 1bf3 25       		.uleb128 0x25
 8782 1bf4 01       		.uleb128 0x1
 8783 1bf5 50       		.byte	0x50
 8784 1bf6 02       		.uleb128 0x2
 8785 1bf7 76       		.byte	0x76
 8786 1bf8 00       		.sleb128 0
 8787 1bf9 00       		.byte	0
 8788 1bfa 27       		.uleb128 0x27
 8789 1bfb 60000000 		.4byte	.LVL141
 8790 1bff 9E340000 		.4byte	0x349e
 8791 1c03 25       		.uleb128 0x25
 8792 1c04 01       		.uleb128 0x1
 8793 1c05 50       		.byte	0x50
 8794 1c06 02       		.uleb128 0x2
 8795 1c07 76       		.byte	0x76
 8796 1c08 00       		.sleb128 0
 8797 1c09 00       		.byte	0
 8798 1c0a 00       		.byte	0
 8799 1c0b 00       		.byte	0
 8800 1c0c 27       		.uleb128 0x27
 8801 1c0d 0E000000 		.4byte	.LVL128
 8802 1c11 AF340000 		.4byte	0x34af
 8803 1c15 25       		.uleb128 0x25
 8804 1c16 01       		.uleb128 0x1
 8805 1c17 51       		.byte	0x51
 8806 1c18 05       		.uleb128 0x5
 8807 1c19 03       		.byte	0x3
ARM GAS  C:\Users\Helon\AppData\Local\Temp\ccKCxrf8.s 			page 224


 8808 1c1a 19010000 		.4byte	.LC53
 8809 1c1e 25       		.uleb128 0x25
 8810 1c1f 01       		.uleb128 0x1
 8811 1c20 50       		.byte	0x50
 8812 1c21 02       		.uleb128 0x2
 8813 1c22 74       		.byte	0x74
 8814 1c23 00       		.sleb128 0
 8815 1c24 00       		.byte	0
 8816 1c25 00       		.byte	0
 8817 1c26 2B       		.uleb128 0x2b
 8818 1c27 16390000 		.4byte	.LASF610
 8819 1c2b 01       		.byte	0x1
 8820 1c2c D507     		.2byte	0x7d5
 8821 1c2e 00000000 		.4byte	.LFB46
 8822 1c32 34000000 		.4byte	.LFE46-.LFB46
 8823 1c36 01       		.uleb128 0x1
 8824 1c37 9C       		.byte	0x9c
 8825 1c38 A51C0000 		.4byte	0x1ca5
 8826 1c3c 33       		.uleb128 0x33
 8827 1c3d 76616C00 		.ascii	"val\000"
 8828 1c41 01       		.byte	0x1
 8829 1c42 D507     		.2byte	0x7d5
 8830 1c44 A51C0000 		.4byte	0x1ca5
 8831 1c48 4C060000 		.4byte	.LLST16
 8832 1c4c 33       		.uleb128 0x33
 8833 1c4d 6C656E00 		.ascii	"len\000"
 8834 1c51 01       		.byte	0x1
 8835 1c52 D507     		.2byte	0x7d5
 8836 1c54 CA000000 		.4byte	0xca
 8837 1c58 79060000 		.4byte	.LLST17
 8838 1c5c 34       		.uleb128 0x34
 8839 1c5d 683B0000 		.4byte	.LASF592
 8840 1c61 01       		.byte	0x1
 8841 1c62 D907     		.2byte	0x7d9
 8842 1c64 AF030000 		.4byte	0x3af
 8843 1c68 00       		.byte	0
 8844 1c69 35       		.uleb128 0x35
 8845 1c6a 72220000 		.4byte	.LASF611
 8846 1c6e 01       		.byte	0x1
 8847 1c6f E007     		.2byte	0x7e0
 8848 1c71 ED090000 		.4byte	0x9ed
 8849 1c75 02       		.uleb128 0x2
 8850 1c76 91       		.byte	0x91
 8851 1c77 6C       		.sleb128 -20
 8852 1c78 24       		.uleb128 0x24
 8853 1c79 1E000000 		.4byte	.LVL146
 8854 1c7d C9340000 		.4byte	0x34c9
 8855 1c81 8C1C0000 		.4byte	0x1c8c
 8856 1c85 25       		.uleb128 0x25
 8857 1c86 01       		.uleb128 0x1
 8858 1c87 51       		.byte	0x51
 8859 1c88 02       		.uleb128 0x2
 8860 1c89 91       		.byte	0x91
 8861 1c8a 6C       		.sleb128 -20
 8862 1c8b 00       		.byte	0
 8863 1c8c 27       		.uleb128 0x27
 8864 1c8d 26000000 		.4byte	.LVL147
ARM GAS  C:\Users\Helon\AppData\Local\Temp\ccKCxrf8.s 			page 225


 8865 1c91 4C320000 		.4byte	0x324c
 8866 1c95 25       		.uleb128 0x25
 8867 1c96 01       		.uleb128 0x1
 8868 1c97 51       		.byte	0x51
 8869 1c98 01       		.uleb128 0x1
 8870 1c99 30       		.byte	0x30
 8871 1c9a 25       		.uleb128 0x25
 8872 1c9b 01       		.uleb128 0x1
 8873 1c9c 50       		.byte	0x50
 8874 1c9d 05       		.uleb128 0x5
 8875 1c9e 03       		.byte	0x3
 8876 1c9f 1E010000 		.4byte	.LC58
 8877 1ca3 00       		.byte	0
 8878 1ca4 00       		.byte	0
 8879 1ca5 07       		.uleb128 0x7
 8880 1ca6 04       		.byte	0x4
 8881 1ca7 B4000000 		.4byte	0xb4
 8882 1cab 2B       		.uleb128 0x2b
 8883 1cac 70260000 		.4byte	.LASF612
 8884 1cb0 01       		.byte	0x1
 8885 1cb1 F807     		.2byte	0x7f8
 8886 1cb3 00000000 		.4byte	.LFB47
 8887 1cb7 38000000 		.4byte	.LFE47-.LFB47
 8888 1cbb 01       		.uleb128 0x1
 8889 1cbc 9C       		.byte	0x9c
 8890 1cbd 211D0000 		.4byte	0x1d21
 8891 1cc1 33       		.uleb128 0x33
 8892 1cc2 76616C00 		.ascii	"val\000"
 8893 1cc6 01       		.byte	0x1
 8894 1cc7 F807     		.2byte	0x7f8
 8895 1cc9 A51C0000 		.4byte	0x1ca5
 8896 1ccd 9A060000 		.4byte	.LLST18
 8897 1cd1 33       		.uleb128 0x33
 8898 1cd2 6C656E00 		.ascii	"len\000"
 8899 1cd6 01       		.byte	0x1
 8900 1cd7 F807     		.2byte	0x7f8
 8901 1cd9 CA000000 		.4byte	0xca
 8902 1cdd BB060000 		.4byte	.LLST19
 8903 1ce1 2C       		.uleb128 0x2c
 8904 1ce2 683B0000 		.4byte	.LASF592
 8905 1ce6 01       		.byte	0x1
 8906 1ce7 FB07     		.2byte	0x7fb
 8907 1ce9 AF030000 		.4byte	0x3af
 8908 1ced DC060000 		.4byte	.LLST20
 8909 1cf1 2C       		.uleb128 0x2c
 8910 1cf2 543A0000 		.4byte	.LASF613
 8911 1cf6 01       		.byte	0x1
 8912 1cf7 FC07     		.2byte	0x7fc
 8913 1cf9 81090000 		.4byte	0x981
 8914 1cfd FB060000 		.4byte	.LLST21
 8915 1d01 35       		.uleb128 0x35
 8916 1d02 ED120000 		.4byte	.LASF614
 8917 1d06 01       		.byte	0x1
 8918 1d07 0208     		.2byte	0x802
 8919 1d09 450A0000 		.4byte	0xa45
 8920 1d0d 02       		.uleb128 0x2
 8921 1d0e 91       		.byte	0x91
ARM GAS  C:\Users\Helon\AppData\Local\Temp\ccKCxrf8.s 			page 226


 8922 1d0f 6C       		.sleb128 -20
 8923 1d10 27       		.uleb128 0x27
 8924 1d11 20000000 		.4byte	.LVL150
 8925 1d15 E9340000 		.4byte	0x34e9
 8926 1d19 25       		.uleb128 0x25
 8927 1d1a 01       		.uleb128 0x1
 8928 1d1b 51       		.byte	0x51
 8929 1d1c 02       		.uleb128 0x2
 8930 1d1d 74       		.byte	0x74
 8931 1d1e 00       		.sleb128 0
 8932 1d1f 00       		.byte	0
 8933 1d20 00       		.byte	0
 8934 1d21 28       		.uleb128 0x28
 8935 1d22 AA150000 		.4byte	0x15aa
 8936 1d26 00000000 		.4byte	.LFB49
 8937 1d2a 44010000 		.4byte	.LFE49-.LFB49
 8938 1d2e 01       		.uleb128 0x1
 8939 1d2f 9C       		.byte	0x9c
 8940 1d30 121E0000 		.4byte	0x1e12
 8941 1d34 2F       		.uleb128 0x2f
 8942 1d35 B7150000 		.4byte	0x15b7
 8943 1d39 31070000 		.4byte	.LLST22
 8944 1d3d 36       		.uleb128 0x36
 8945 1d3e C3150000 		.4byte	0x15c3
 8946 1d42 00       		.byte	0
 8947 1d43 36       		.uleb128 0x36
 8948 1d44 CF150000 		.4byte	0x15cf
 8949 1d48 00       		.byte	0
 8950 1d49 2A       		.uleb128 0x2a
 8951 1d4a 0E000000 		.4byte	.LBB34
 8952 1d4e FC000000 		.4byte	.LBE34-.LBB34
 8953 1d52 081E0000 		.4byte	0x1e08
 8954 1d56 2F       		.uleb128 0x2f
 8955 1d57 B7150000 		.4byte	0x15b7
 8956 1d5b 6B070000 		.4byte	.LLST23
 8957 1d5f 32       		.uleb128 0x32
 8958 1d60 0E000000 		.4byte	.LBB35
 8959 1d64 FC000000 		.4byte	.LBE35-.LBB35
 8960 1d68 30       		.uleb128 0x30
 8961 1d69 C3150000 		.4byte	0x15c3
 8962 1d6d 8C070000 		.4byte	.LLST24
 8963 1d71 30       		.uleb128 0x30
 8964 1d72 CF150000 		.4byte	0x15cf
 8965 1d76 EC070000 		.4byte	.LLST25
 8966 1d7a 24       		.uleb128 0x24
 8967 1d7b 32000000 		.4byte	.LVL154
 8968 1d7f 0A350000 		.4byte	0x350a
 8969 1d83 8E1D0000 		.4byte	0x1d8e
 8970 1d87 25       		.uleb128 0x25
 8971 1d88 01       		.uleb128 0x1
 8972 1d89 50       		.byte	0x50
 8973 1d8a 02       		.uleb128 0x2
 8974 1d8b 75       		.byte	0x75
 8975 1d8c 00       		.sleb128 0
 8976 1d8d 00       		.byte	0
 8977 1d8e 24       		.uleb128 0x24
 8978 1d8f 54000000 		.4byte	.LVL159
ARM GAS  C:\Users\Helon\AppData\Local\Temp\ccKCxrf8.s 			page 227


 8979 1d93 0A350000 		.4byte	0x350a
 8980 1d97 A21D0000 		.4byte	0x1da2
 8981 1d9b 25       		.uleb128 0x25
 8982 1d9c 01       		.uleb128 0x1
 8983 1d9d 50       		.byte	0x50
 8984 1d9e 02       		.uleb128 0x2
 8985 1d9f 75       		.byte	0x75
 8986 1da0 00       		.sleb128 0
 8987 1da1 00       		.byte	0
 8988 1da2 26       		.uleb128 0x26
 8989 1da3 60000000 		.4byte	.LVL162
 8990 1da7 4C320000 		.4byte	0x324c
 8991 1dab 24       		.uleb128 0x24
 8992 1dac 7A000000 		.4byte	.LVL165
 8993 1db0 0A350000 		.4byte	0x350a
 8994 1db4 BF1D0000 		.4byte	0x1dbf
 8995 1db8 25       		.uleb128 0x25
 8996 1db9 01       		.uleb128 0x1
 8997 1dba 50       		.byte	0x50
 8998 1dbb 02       		.uleb128 0x2
 8999 1dbc 75       		.byte	0x75
 9000 1dbd 00       		.sleb128 0
 9001 1dbe 00       		.byte	0
 9002 1dbf 24       		.uleb128 0x24
 9003 1dc0 9C000000 		.4byte	.LVL170
 9004 1dc4 0A350000 		.4byte	0x350a
 9005 1dc8 D31D0000 		.4byte	0x1dd3
 9006 1dcc 25       		.uleb128 0x25
 9007 1dcd 01       		.uleb128 0x1
 9008 1dce 50       		.byte	0x50
 9009 1dcf 02       		.uleb128 0x2
 9010 1dd0 75       		.byte	0x75
 9011 1dd1 00       		.sleb128 0
 9012 1dd2 00       		.byte	0
 9013 1dd3 24       		.uleb128 0x24
 9014 1dd4 C8000000 		.4byte	.LVL175
 9015 1dd8 07320000 		.4byte	0x3207
 9016 1ddc EC1D0000 		.4byte	0x1dec
 9017 1de0 25       		.uleb128 0x25
 9018 1de1 01       		.uleb128 0x1
 9019 1de2 52       		.byte	0x52
 9020 1de3 01       		.uleb128 0x1
 9021 1de4 36       		.byte	0x36
 9022 1de5 25       		.uleb128 0x25
 9023 1de6 01       		.uleb128 0x1
 9024 1de7 51       		.byte	0x51
 9025 1de8 02       		.uleb128 0x2
 9026 1de9 75       		.byte	0x75
 9027 1dea 00       		.sleb128 0
 9028 1deb 00       		.byte	0
 9029 1dec 27       		.uleb128 0x27
 9030 1ded 04010000 		.4byte	.LVL178
 9031 1df1 4C320000 		.4byte	0x324c
 9032 1df5 25       		.uleb128 0x25
 9033 1df6 01       		.uleb128 0x1
 9034 1df7 50       		.byte	0x50
 9035 1df8 05       		.uleb128 0x5
ARM GAS  C:\Users\Helon\AppData\Local\Temp\ccKCxrf8.s 			page 228


 9036 1df9 03       		.byte	0x3
 9037 1dfa 51010000 		.4byte	.LC73
 9038 1dfe 25       		.uleb128 0x25
 9039 1dff 02       		.uleb128 0x2
 9040 1e00 7D       		.byte	0x7d
 9041 1e01 08       		.sleb128 8
 9042 1e02 02       		.uleb128 0x2
 9043 1e03 75       		.byte	0x75
 9044 1e04 00       		.sleb128 0
 9045 1e05 00       		.byte	0
 9046 1e06 00       		.byte	0
 9047 1e07 00       		.byte	0
 9048 1e08 26       		.uleb128 0x26
 9049 1e09 10010000 		.4byte	.LVL182
 9050 1e0d AD310000 		.4byte	0x31ad
 9051 1e11 00       		.byte	0
 9052 1e12 2B       		.uleb128 0x2b
 9053 1e13 69130000 		.4byte	.LASF615
 9054 1e17 01       		.byte	0x1
 9055 1e18 7009     		.2byte	0x970
 9056 1e1a 00000000 		.4byte	.LFB50
 9057 1e1e 74030000 		.4byte	.LFE50-.LFB50
 9058 1e22 01       		.uleb128 0x1
 9059 1e23 9C       		.byte	0x9c
 9060 1e24 ED210000 		.4byte	0x21ed
 9061 1e28 33       		.uleb128 0x33
 9062 1e29 69647800 		.ascii	"idx\000"
 9063 1e2d 01       		.byte	0x1
 9064 1e2e 7009     		.2byte	0x970
 9065 1e30 B4000000 		.4byte	0xb4
 9066 1e34 0A080000 		.4byte	.LLST26
 9067 1e38 24       		.uleb128 0x24
 9068 1e39 24000000 		.4byte	.LVL185
 9069 1e3d AD310000 		.4byte	0x31ad
 9070 1e41 4F1E0000 		.4byte	0x1e4f
 9071 1e45 25       		.uleb128 0x25
 9072 1e46 01       		.uleb128 0x1
 9073 1e47 50       		.byte	0x50
 9074 1e48 05       		.uleb128 0x5
 9075 1e49 03       		.byte	0x3
 9076 1e4a A1010000 		.4byte	.LC85
 9077 1e4e 00       		.byte	0
 9078 1e4f 24       		.uleb128 0x24
 9079 1e50 2A000000 		.4byte	.LVL186
 9080 1e54 AD310000 		.4byte	0x31ad
 9081 1e58 661E0000 		.4byte	0x1e66
 9082 1e5c 25       		.uleb128 0x25
 9083 1e5d 01       		.uleb128 0x1
 9084 1e5e 50       		.byte	0x50
 9085 1e5f 05       		.uleb128 0x5
 9086 1e60 03       		.byte	0x3
 9087 1e61 9D010000 		.4byte	.LC82
 9088 1e65 00       		.byte	0
 9089 1e66 24       		.uleb128 0x24
 9090 1e67 3C000000 		.4byte	.LVL189
 9091 1e6b AD310000 		.4byte	0x31ad
 9092 1e6f 7D1E0000 		.4byte	0x1e7d
ARM GAS  C:\Users\Helon\AppData\Local\Temp\ccKCxrf8.s 			page 229


 9093 1e73 25       		.uleb128 0x25
 9094 1e74 01       		.uleb128 0x1
 9095 1e75 50       		.byte	0x50
 9096 1e76 05       		.uleb128 0x5
 9097 1e77 03       		.byte	0x3
 9098 1e78 C1010000 		.4byte	.LC89
 9099 1e7c 00       		.byte	0
 9100 1e7d 24       		.uleb128 0x24
 9101 1e7e 42000000 		.4byte	.LVL190
 9102 1e82 AD310000 		.4byte	0x31ad
 9103 1e86 911E0000 		.4byte	0x1e91
 9104 1e8a 25       		.uleb128 0x25
 9105 1e8b 01       		.uleb128 0x1
 9106 1e8c 50       		.byte	0x50
 9107 1e8d 02       		.uleb128 0x2
 9108 1e8e 76       		.byte	0x76
 9109 1e8f 00       		.sleb128 0
 9110 1e90 00       		.byte	0
 9111 1e91 24       		.uleb128 0x24
 9112 1e92 5C000000 		.4byte	.LVL193
 9113 1e96 AD310000 		.4byte	0x31ad
 9114 1e9a A81E0000 		.4byte	0x1ea8
 9115 1e9e 25       		.uleb128 0x25
 9116 1e9f 01       		.uleb128 0x1
 9117 1ea0 50       		.byte	0x50
 9118 1ea1 05       		.uleb128 0x5
 9119 1ea2 03       		.byte	0x3
 9120 1ea3 16020000 		.4byte	.LC99
 9121 1ea7 00       		.byte	0
 9122 1ea8 24       		.uleb128 0x24
 9123 1ea9 62000000 		.4byte	.LVL194
 9124 1ead AD310000 		.4byte	0x31ad
 9125 1eb1 BF1E0000 		.4byte	0x1ebf
 9126 1eb5 25       		.uleb128 0x25
 9127 1eb6 01       		.uleb128 0x1
 9128 1eb7 50       		.byte	0x50
 9129 1eb8 05       		.uleb128 0x5
 9130 1eb9 03       		.byte	0x3
 9131 1eba 9D010000 		.4byte	.LC82
 9132 1ebe 00       		.byte	0
 9133 1ebf 24       		.uleb128 0x24
 9134 1ec0 7E000000 		.4byte	.LVL197
 9135 1ec4 AD310000 		.4byte	0x31ad
 9136 1ec8 D61E0000 		.4byte	0x1ed6
 9137 1ecc 25       		.uleb128 0x25
 9138 1ecd 01       		.uleb128 0x1
 9139 1ece 50       		.byte	0x50
 9140 1ecf 05       		.uleb128 0x5
 9141 1ed0 03       		.byte	0x3
 9142 1ed1 8D010000 		.4byte	.LC80
 9143 1ed5 00       		.byte	0
 9144 1ed6 24       		.uleb128 0x24
 9145 1ed7 84000000 		.4byte	.LVL198
 9146 1edb AD310000 		.4byte	0x31ad
 9147 1edf ED1E0000 		.4byte	0x1eed
 9148 1ee3 25       		.uleb128 0x25
 9149 1ee4 01       		.uleb128 0x1
ARM GAS  C:\Users\Helon\AppData\Local\Temp\ccKCxrf8.s 			page 230


 9150 1ee5 50       		.byte	0x50
 9151 1ee6 05       		.uleb128 0x5
 9152 1ee7 03       		.byte	0x3
 9153 1ee8 9D010000 		.4byte	.LC82
 9154 1eec 00       		.byte	0
 9155 1eed 26       		.uleb128 0x26
 9156 1eee 88000000 		.4byte	.LVL199
 9157 1ef2 C6310000 		.4byte	0x31c6
 9158 1ef6 26       		.uleb128 0x26
 9159 1ef7 9C000000 		.4byte	.LVL202
 9160 1efb C6310000 		.4byte	0x31c6
 9161 1eff 24       		.uleb128 0x24
 9162 1f00 B6000000 		.4byte	.LVL207
 9163 1f04 AD310000 		.4byte	0x31ad
 9164 1f08 161F0000 		.4byte	0x1f16
 9165 1f0c 25       		.uleb128 0x25
 9166 1f0d 01       		.uleb128 0x1
 9167 1f0e 50       		.byte	0x50
 9168 1f0f 05       		.uleb128 0x5
 9169 1f10 03       		.byte	0x3
 9170 1f11 B1010000 		.4byte	.LC87
 9171 1f15 00       		.byte	0
 9172 1f16 24       		.uleb128 0x24
 9173 1f17 BC000000 		.4byte	.LVL208
 9174 1f1b AD310000 		.4byte	0x31ad
 9175 1f1f 2D1F0000 		.4byte	0x1f2d
 9176 1f23 25       		.uleb128 0x25
 9177 1f24 01       		.uleb128 0x1
 9178 1f25 50       		.byte	0x50
 9179 1f26 05       		.uleb128 0x5
 9180 1f27 03       		.byte	0x3
 9181 1f28 9D010000 		.4byte	.LC82
 9182 1f2c 00       		.byte	0
 9183 1f2d 26       		.uleb128 0x26
 9184 1f2e C0000000 		.4byte	.LVL209
 9185 1f32 C6310000 		.4byte	0x31c6
 9186 1f36 26       		.uleb128 0x26
 9187 1f37 D4000000 		.4byte	.LVL212
 9188 1f3b C6310000 		.4byte	0x31c6
 9189 1f3f 24       		.uleb128 0x24
 9190 1f40 E8000000 		.4byte	.LVL216
 9191 1f44 AD310000 		.4byte	0x31ad
 9192 1f48 561F0000 		.4byte	0x1f56
 9193 1f4c 25       		.uleb128 0x25
 9194 1f4d 01       		.uleb128 0x1
 9195 1f4e 50       		.byte	0x50
 9196 1f4f 05       		.uleb128 0x5
 9197 1f50 03       		.byte	0x3
 9198 1f51 D1010000 		.4byte	.LC91
 9199 1f55 00       		.byte	0
 9200 1f56 24       		.uleb128 0x24
 9201 1f57 EE000000 		.4byte	.LVL217
 9202 1f5b AD310000 		.4byte	0x31ad
 9203 1f5f 6A1F0000 		.4byte	0x1f6a
 9204 1f63 25       		.uleb128 0x25
 9205 1f64 01       		.uleb128 0x1
 9206 1f65 50       		.byte	0x50
ARM GAS  C:\Users\Helon\AppData\Local\Temp\ccKCxrf8.s 			page 231


 9207 1f66 02       		.uleb128 0x2
 9208 1f67 76       		.byte	0x76
 9209 1f68 00       		.sleb128 0
 9210 1f69 00       		.byte	0
 9211 1f6a 26       		.uleb128 0x26
 9212 1f6b F2000000 		.4byte	.LVL218
 9213 1f6f C6310000 		.4byte	0x31c6
 9214 1f73 24       		.uleb128 0x24
 9215 1f74 06010000 		.4byte	.LVL222
 9216 1f78 AD310000 		.4byte	0x31ad
 9217 1f7c 8A1F0000 		.4byte	0x1f8a
 9218 1f80 25       		.uleb128 0x25
 9219 1f81 01       		.uleb128 0x1
 9220 1f82 50       		.byte	0x50
 9221 1f83 05       		.uleb128 0x5
 9222 1f84 03       		.byte	0x3
 9223 1f85 E2010000 		.4byte	.LC93
 9224 1f89 00       		.byte	0
 9225 1f8a 24       		.uleb128 0x24
 9226 1f8b 0C010000 		.4byte	.LVL223
 9227 1f8f AD310000 		.4byte	0x31ad
 9228 1f93 9E1F0000 		.4byte	0x1f9e
 9229 1f97 25       		.uleb128 0x25
 9230 1f98 01       		.uleb128 0x1
 9231 1f99 50       		.byte	0x50
 9232 1f9a 02       		.uleb128 0x2
 9233 1f9b 76       		.byte	0x76
 9234 1f9c 00       		.sleb128 0
 9235 1f9d 00       		.byte	0
 9236 1f9e 26       		.uleb128 0x26
 9237 1f9f 10010000 		.4byte	.LVL224
 9238 1fa3 C6310000 		.4byte	0x31c6
 9239 1fa7 24       		.uleb128 0x24
 9240 1fa8 24010000 		.4byte	.LVL228
 9241 1fac AD310000 		.4byte	0x31ad
 9242 1fb0 BE1F0000 		.4byte	0x1fbe
 9243 1fb4 25       		.uleb128 0x25
 9244 1fb5 01       		.uleb128 0x1
 9245 1fb6 50       		.byte	0x50
 9246 1fb7 05       		.uleb128 0x5
 9247 1fb8 03       		.byte	0x3
 9248 1fb9 F3010000 		.4byte	.LC95
 9249 1fbd 00       		.byte	0
 9250 1fbe 24       		.uleb128 0x24
 9251 1fbf 2A010000 		.4byte	.LVL229
 9252 1fc3 AD310000 		.4byte	0x31ad
 9253 1fc7 D51F0000 		.4byte	0x1fd5
 9254 1fcb 25       		.uleb128 0x25
 9255 1fcc 01       		.uleb128 0x1
 9256 1fcd 50       		.byte	0x50
 9257 1fce 05       		.uleb128 0x5
 9258 1fcf 03       		.byte	0x3
 9259 1fd0 9D010000 		.4byte	.LC82
 9260 1fd4 00       		.byte	0
 9261 1fd5 26       		.uleb128 0x26
 9262 1fd6 2E010000 		.4byte	.LVL230
 9263 1fda C6310000 		.4byte	0x31c6
ARM GAS  C:\Users\Helon\AppData\Local\Temp\ccKCxrf8.s 			page 232


 9264 1fde 24       		.uleb128 0x24
 9265 1fdf 44010000 		.4byte	.LVL234
 9266 1fe3 AD310000 		.4byte	0x31ad
 9267 1fe7 F51F0000 		.4byte	0x1ff5
 9268 1feb 25       		.uleb128 0x25
 9269 1fec 01       		.uleb128 0x1
 9270 1fed 50       		.byte	0x50
 9271 1fee 05       		.uleb128 0x5
 9272 1fef 03       		.byte	0x3
 9273 1ff0 04020000 		.4byte	.LC97
 9274 1ff4 00       		.byte	0
 9275 1ff5 24       		.uleb128 0x24
 9276 1ff6 4A010000 		.4byte	.LVL235
 9277 1ffa AD310000 		.4byte	0x31ad
 9278 1ffe 0C200000 		.4byte	0x200c
 9279 2002 25       		.uleb128 0x25
 9280 2003 01       		.uleb128 0x1
 9281 2004 50       		.byte	0x50
 9282 2005 05       		.uleb128 0x5
 9283 2006 03       		.byte	0x3
 9284 2007 9D010000 		.4byte	.LC82
 9285 200b 00       		.byte	0
 9286 200c 26       		.uleb128 0x26
 9287 200d 4E010000 		.4byte	.LVL236
 9288 2011 C6310000 		.4byte	0x31c6
 9289 2015 26       		.uleb128 0x26
 9290 2016 62010000 		.4byte	.LVL239
 9291 201a C6310000 		.4byte	0x31c6
 9292 201e 24       		.uleb128 0x24
 9293 201f 78010000 		.4byte	.LVL243
 9294 2023 AD310000 		.4byte	0x31ad
 9295 2027 35200000 		.4byte	0x2035
 9296 202b 25       		.uleb128 0x25
 9297 202c 01       		.uleb128 0x1
 9298 202d 50       		.byte	0x50
 9299 202e 05       		.uleb128 0x5
 9300 202f 03       		.byte	0x3
 9301 2030 28020000 		.4byte	.LC101
 9302 2034 00       		.byte	0
 9303 2035 24       		.uleb128 0x24
 9304 2036 7E010000 		.4byte	.LVL244
 9305 203a AD310000 		.4byte	0x31ad
 9306 203e 4C200000 		.4byte	0x204c
 9307 2042 25       		.uleb128 0x25
 9308 2043 01       		.uleb128 0x1
 9309 2044 50       		.byte	0x50
 9310 2045 05       		.uleb128 0x5
 9311 2046 03       		.byte	0x3
 9312 2047 9D010000 		.4byte	.LC82
 9313 204b 00       		.byte	0
 9314 204c 26       		.uleb128 0x26
 9315 204d 82010000 		.4byte	.LVL245
 9316 2051 C6310000 		.4byte	0x31c6
 9317 2055 24       		.uleb128 0x24
 9318 2056 98010000 		.4byte	.LVL249
 9319 205a AD310000 		.4byte	0x31ad
 9320 205e 6C200000 		.4byte	0x206c
ARM GAS  C:\Users\Helon\AppData\Local\Temp\ccKCxrf8.s 			page 233


 9321 2062 25       		.uleb128 0x25
 9322 2063 01       		.uleb128 0x1
 9323 2064 50       		.byte	0x50
 9324 2065 05       		.uleb128 0x5
 9325 2066 03       		.byte	0x3
 9326 2067 3A020000 		.4byte	.LC103
 9327 206b 00       		.byte	0
 9328 206c 24       		.uleb128 0x24
 9329 206d 9E010000 		.4byte	.LVL250
 9330 2071 AD310000 		.4byte	0x31ad
 9331 2075 83200000 		.4byte	0x2083
 9332 2079 25       		.uleb128 0x25
 9333 207a 01       		.uleb128 0x1
 9334 207b 50       		.byte	0x50
 9335 207c 05       		.uleb128 0x5
 9336 207d 03       		.byte	0x3
 9337 207e 9D010000 		.4byte	.LC82
 9338 2082 00       		.byte	0
 9339 2083 26       		.uleb128 0x26
 9340 2084 A2010000 		.4byte	.LVL251
 9341 2088 C6310000 		.4byte	0x31c6
 9342 208c 24       		.uleb128 0x24
 9343 208d D4010000 		.4byte	.LVL255
 9344 2091 AD310000 		.4byte	0x31ad
 9345 2095 A3200000 		.4byte	0x20a3
 9346 2099 25       		.uleb128 0x25
 9347 209a 01       		.uleb128 0x1
 9348 209b 50       		.byte	0x50
 9349 209c 05       		.uleb128 0x5
 9350 209d 03       		.byte	0x3
 9351 209e 5A020000 		.4byte	.LC107
 9352 20a2 00       		.byte	0
 9353 20a3 24       		.uleb128 0x24
 9354 20a4 E6010000 		.4byte	.LVL258
 9355 20a8 AD310000 		.4byte	0x31ad
 9356 20ac BA200000 		.4byte	0x20ba
 9357 20b0 25       		.uleb128 0x25
 9358 20b1 01       		.uleb128 0x1
 9359 20b2 50       		.byte	0x50
 9360 20b3 05       		.uleb128 0x5
 9361 20b4 03       		.byte	0x3
 9362 20b5 84020000 		.4byte	.LC113
 9363 20b9 00       		.byte	0
 9364 20ba 24       		.uleb128 0x24
 9365 20bb FE010000 		.4byte	.LVL261
 9366 20bf AD310000 		.4byte	0x31ad
 9367 20c3 D1200000 		.4byte	0x20d1
 9368 20c7 25       		.uleb128 0x25
 9369 20c8 01       		.uleb128 0x1
 9370 20c9 50       		.byte	0x50
 9371 20ca 05       		.uleb128 0x5
 9372 20cb 03       		.byte	0x3
 9373 20cc B1020000 		.4byte	.LC119
 9374 20d0 00       		.byte	0
 9375 20d1 24       		.uleb128 0x24
 9376 20d2 18020000 		.4byte	.LVL264
 9377 20d6 AD310000 		.4byte	0x31ad
ARM GAS  C:\Users\Helon\AppData\Local\Temp\ccKCxrf8.s 			page 234


 9378 20da E8200000 		.4byte	0x20e8
 9379 20de 25       		.uleb128 0x25
 9380 20df 01       		.uleb128 0x1
 9381 20e0 50       		.byte	0x50
 9382 20e1 05       		.uleb128 0x5
 9383 20e2 03       		.byte	0x3
 9384 20e3 D1020000 		.4byte	.LC123
 9385 20e7 00       		.byte	0
 9386 20e8 24       		.uleb128 0x24
 9387 20e9 20020000 		.4byte	.LVL267
 9388 20ed AD310000 		.4byte	0x31ad
 9389 20f1 FF200000 		.4byte	0x20ff
 9390 20f5 25       		.uleb128 0x25
 9391 20f6 01       		.uleb128 0x1
 9392 20f7 50       		.byte	0x50
 9393 20f8 05       		.uleb128 0x5
 9394 20f9 03       		.byte	0x3
 9395 20fa 4C020000 		.4byte	.LC105
 9396 20fe 00       		.byte	0
 9397 20ff 26       		.uleb128 0x26
 9398 2100 24020000 		.4byte	.LVL268
 9399 2104 C6310000 		.4byte	0x31c6
 9400 2108 26       		.uleb128 0x26
 9401 2109 36020000 		.4byte	.LVL269
 9402 210d C6310000 		.4byte	0x31c6
 9403 2111 24       		.uleb128 0x24
 9404 2112 4A020000 		.4byte	.LVL272
 9405 2116 AD310000 		.4byte	0x31ad
 9406 211a 28210000 		.4byte	0x2128
 9407 211e 25       		.uleb128 0x25
 9408 211f 01       		.uleb128 0x1
 9409 2120 50       		.byte	0x50
 9410 2121 05       		.uleb128 0x5
 9411 2122 03       		.byte	0x3
 9412 2123 68020000 		.4byte	.LC109
 9413 2127 00       		.byte	0
 9414 2128 26       		.uleb128 0x26
 9415 2129 4E020000 		.4byte	.LVL273
 9416 212d C6310000 		.4byte	0x31c6
 9417 2131 24       		.uleb128 0x24
 9418 2132 62020000 		.4byte	.LVL276
 9419 2136 AD310000 		.4byte	0x31ad
 9420 213a 48210000 		.4byte	0x2148
 9421 213e 25       		.uleb128 0x25
 9422 213f 01       		.uleb128 0x1
 9423 2140 50       		.byte	0x50
 9424 2141 05       		.uleb128 0x5
 9425 2142 03       		.byte	0x3
 9426 2143 76020000 		.4byte	.LC111
 9427 2147 00       		.byte	0
 9428 2148 26       		.uleb128 0x26
 9429 2149 66020000 		.4byte	.LVL277
 9430 214d C6310000 		.4byte	0x31c6
 9431 2151 26       		.uleb128 0x26
 9432 2152 78020000 		.4byte	.LVL278
 9433 2156 C6310000 		.4byte	0x31c6
 9434 215a 24       		.uleb128 0x24
ARM GAS  C:\Users\Helon\AppData\Local\Temp\ccKCxrf8.s 			page 235


 9435 215b 8C020000 		.4byte	.LVL281
 9436 215f AD310000 		.4byte	0x31ad
 9437 2163 71210000 		.4byte	0x2171
 9438 2167 25       		.uleb128 0x25
 9439 2168 01       		.uleb128 0x1
 9440 2169 50       		.byte	0x50
 9441 216a 05       		.uleb128 0x5
 9442 216b 03       		.byte	0x3
 9443 216c 93020000 		.4byte	.LC115
 9444 2170 00       		.byte	0
 9445 2171 26       		.uleb128 0x26
 9446 2172 90020000 		.4byte	.LVL282
 9447 2176 C6310000 		.4byte	0x31c6
 9448 217a 24       		.uleb128 0x24
 9449 217b A4020000 		.4byte	.LVL285
 9450 217f AD310000 		.4byte	0x31ad
 9451 2183 91210000 		.4byte	0x2191
 9452 2187 25       		.uleb128 0x25
 9453 2188 01       		.uleb128 0x1
 9454 2189 50       		.byte	0x50
 9455 218a 05       		.uleb128 0x5
 9456 218b 03       		.byte	0x3
 9457 218c A2020000 		.4byte	.LC117
 9458 2190 00       		.byte	0
 9459 2191 26       		.uleb128 0x26
 9460 2192 A8020000 		.4byte	.LVL286
 9461 2196 C6310000 		.4byte	0x31c6
 9462 219a 26       		.uleb128 0x26
 9463 219b BA020000 		.4byte	.LVL287
 9464 219f C6310000 		.4byte	0x31c6
 9465 21a3 24       		.uleb128 0x24
 9466 21a4 CE020000 		.4byte	.LVL290
 9467 21a8 AD310000 		.4byte	0x31ad
 9468 21ac BA210000 		.4byte	0x21ba
 9469 21b0 25       		.uleb128 0x25
 9470 21b1 01       		.uleb128 0x1
 9471 21b2 50       		.byte	0x50
 9472 21b3 05       		.uleb128 0x5
 9473 21b4 03       		.byte	0x3
 9474 21b5 C1020000 		.4byte	.LC121
 9475 21b9 00       		.byte	0
 9476 21ba 26       		.uleb128 0x26
 9477 21bb D2020000 		.4byte	.LVL291
 9478 21bf C6310000 		.4byte	0x31c6
 9479 21c3 26       		.uleb128 0x26
 9480 21c4 E4020000 		.4byte	.LVL292
 9481 21c8 C6310000 		.4byte	0x31c6
 9482 21cc 24       		.uleb128 0x24
 9483 21cd 5A030000 		.4byte	.LVL295
 9484 21d1 AD310000 		.4byte	0x31ad
 9485 21d5 E3210000 		.4byte	0x21e3
 9486 21d9 25       		.uleb128 0x25
 9487 21da 01       		.uleb128 0x1
 9488 21db 50       		.byte	0x50
 9489 21dc 05       		.uleb128 0x5
 9490 21dd 03       		.byte	0x3
 9491 21de E1020000 		.4byte	.LC125
ARM GAS  C:\Users\Helon\AppData\Local\Temp\ccKCxrf8.s 			page 236


 9492 21e2 00       		.byte	0
 9493 21e3 26       		.uleb128 0x26
 9494 21e4 5E030000 		.4byte	.LVL296
 9495 21e8 C6310000 		.4byte	0x31c6
 9496 21ec 00       		.byte	0
 9497 21ed 2B       		.uleb128 0x2b
 9498 21ee 85310000 		.4byte	.LASF616
 9499 21f2 01       		.byte	0x1
 9500 21f3 220A     		.2byte	0xa22
 9501 21f5 00000000 		.4byte	.LFB51
 9502 21f9 E8000000 		.4byte	.LFE51-.LFB51
 9503 21fd 01       		.uleb128 0x1
 9504 21fe 9C       		.byte	0x9c
 9505 21ff 64220000 		.4byte	0x2264
 9506 2203 33       		.uleb128 0x33
 9507 2204 69647800 		.ascii	"idx\000"
 9508 2208 01       		.byte	0x1
 9509 2209 220A     		.2byte	0xa22
 9510 220b B4000000 		.4byte	0xb4
 9511 220f 380A0000 		.4byte	.LLST27
 9512 2213 35       		.uleb128 0x35
 9513 2214 FF210000 		.4byte	.LASF617
 9514 2218 01       		.byte	0x1
 9515 2219 240A     		.2byte	0xa24
 9516 221b CF040000 		.4byte	0x4cf
 9517 221f 02       		.uleb128 0x2
 9518 2220 91       		.byte	0x91
 9519 2221 74       		.sleb128 -12
 9520 2222 2C       		.uleb128 0x2c
 9521 2223 683B0000 		.4byte	.LASF592
 9522 2227 01       		.byte	0x1
 9523 2228 250A     		.2byte	0xa25
 9524 222a AF030000 		.4byte	0x3af
 9525 222e 8C0A0000 		.4byte	.LLST28
 9526 2232 24       		.uleb128 0x24
 9527 2233 3E000000 		.4byte	.LVL301
 9528 2237 2B350000 		.4byte	0x352b
 9529 223b 46220000 		.4byte	0x2246
 9530 223f 25       		.uleb128 0x25
 9531 2240 01       		.uleb128 0x1
 9532 2241 50       		.byte	0x50
 9533 2242 02       		.uleb128 0x2
 9534 2243 74       		.byte	0x74
 9535 2244 00       		.sleb128 0
 9536 2245 00       		.byte	0
 9537 2246 24       		.uleb128 0x24
 9538 2247 7C000000 		.4byte	.LVL303
 9539 224b 47350000 		.4byte	0x3547
 9540 224f 5A220000 		.4byte	0x225a
 9541 2253 25       		.uleb128 0x25
 9542 2254 01       		.uleb128 0x1
 9543 2255 50       		.byte	0x50
 9544 2256 02       		.uleb128 0x2
 9545 2257 91       		.byte	0x91
 9546 2258 74       		.sleb128 -12
 9547 2259 00       		.byte	0
 9548 225a 26       		.uleb128 0x26
ARM GAS  C:\Users\Helon\AppData\Local\Temp\ccKCxrf8.s 			page 237


 9549 225b B4000000 		.4byte	.LVL307
 9550 225f AD310000 		.4byte	0x31ad
 9551 2263 00       		.byte	0
 9552 2264 2B       		.uleb128 0x2b
 9553 2265 35100000 		.4byte	.LASF618
 9554 2269 01       		.byte	0x1
 9555 226a BE0A     		.2byte	0xabe
 9556 226c 00000000 		.4byte	.LFB52
 9557 2270 68000000 		.4byte	.LFE52-.LFB52
 9558 2274 01       		.uleb128 0x1
 9559 2275 9C       		.byte	0x9c
 9560 2276 27230000 		.4byte	0x2327
 9561 227a 37       		.uleb128 0x37
 9562 227b 58160000 		.4byte	.LASF619
 9563 227f 01       		.byte	0x1
 9564 2280 BE0A     		.2byte	0xabe
 9565 2282 62010000 		.4byte	0x162
 9566 2286 01       		.uleb128 0x1
 9567 2287 50       		.byte	0x50
 9568 2288 38       		.uleb128 0x38
 9569 2289 C7300000 		.4byte	.LASF620
 9570 228d 01       		.byte	0x1
 9571 228e BE0A     		.2byte	0xabe
 9572 2290 62010000 		.4byte	0x162
 9573 2294 B70A0000 		.4byte	.LLST29
 9574 2298 38       		.uleb128 0x38
 9575 2299 AC160000 		.4byte	.LASF621
 9576 229d 01       		.byte	0x1
 9577 229e BE0A     		.2byte	0xabe
 9578 22a0 2C000000 		.4byte	0x2c
 9579 22a4 D80A0000 		.4byte	.LLST30
 9580 22a8 39       		.uleb128 0x39
 9581 22a9 683100   		.ascii	"h1\000"
 9582 22ac 01       		.byte	0x1
 9583 22ad C00A     		.2byte	0xac0
 9584 22af 57000000 		.4byte	0x57
 9585 22b3 F70A0000 		.4byte	.LLST31
 9586 22b7 39       		.uleb128 0x39
 9587 22b8 683200   		.ascii	"h2\000"
 9588 22bb 01       		.byte	0x1
 9589 22bc C00A     		.2byte	0xac0
 9590 22be 57000000 		.4byte	0x57
 9591 22c2 160B0000 		.4byte	.LLST32
 9592 22c6 39       		.uleb128 0x39
 9593 22c7 733100   		.ascii	"s1\000"
 9594 22ca 01       		.byte	0x1
 9595 22cb C10A     		.2byte	0xac1
 9596 22cd 57000000 		.4byte	0x57
 9597 22d1 350B0000 		.4byte	.LLST33
 9598 22d5 39       		.uleb128 0x39
 9599 22d6 733200   		.ascii	"s2\000"
 9600 22d9 01       		.byte	0x1
 9601 22da C10A     		.2byte	0xac1
 9602 22dc 57000000 		.4byte	0x57
 9603 22e0 480B0000 		.4byte	.LLST34
 9604 22e4 39       		.uleb128 0x39
 9605 22e5 6900     		.ascii	"i\000"
ARM GAS  C:\Users\Helon\AppData\Local\Temp\ccKCxrf8.s 			page 238


 9606 22e7 01       		.byte	0x1
 9607 22e8 C20A     		.2byte	0xac2
 9608 22ea 2C000000 		.4byte	0x2c
 9609 22ee 5B0B0000 		.4byte	.LLST35
 9610 22f2 3A       		.uleb128 0x3a
 9611 22f3 00000000 		.4byte	.Ldebug_ranges0+0
 9612 22f7 0C230000 		.4byte	0x230c
 9613 22fb 39       		.uleb128 0x39
 9614 22fc 5F5F7800 		.ascii	"__x\000"
 9615 2300 01       		.byte	0x1
 9616 2301 C90A     		.2byte	0xac9
 9617 2303 57000000 		.4byte	0x57
 9618 2307 A10B0000 		.4byte	.LLST36
 9619 230b 00       		.byte	0
 9620 230c 32       		.uleb128 0x32
 9621 230d 38000000 		.4byte	.LBB39
 9622 2311 0E000000 		.4byte	.LBE39-.LBB39
 9623 2315 39       		.uleb128 0x39
 9624 2316 5F5F7800 		.ascii	"__x\000"
 9625 231a 01       		.byte	0x1
 9626 231b CD0A     		.2byte	0xacd
 9627 231d 57000000 		.4byte	0x57
 9628 2321 C00B0000 		.4byte	.LLST37
 9629 2325 00       		.byte	0
 9630 2326 00       		.byte	0
 9631 2327 3B       		.uleb128 0x3b
 9632 2328 FD430000 		.4byte	.LASF622
 9633 232c 01       		.byte	0x1
 9634 232d E902     		.2byte	0x2e9
 9635 232f 00000000 		.4byte	.LFB43
 9636 2333 E8090000 		.4byte	.LFE43-.LFB43
 9637 2337 01       		.uleb128 0x1
 9638 2338 9C       		.byte	0x9c
 9639 2339 932B0000 		.4byte	0x2b93
 9640 233d 38       		.uleb128 0x38
 9641 233e 2F060000 		.4byte	.LASF591
 9642 2342 01       		.byte	0x1
 9643 2343 E902     		.2byte	0x2e9
 9644 2345 68010000 		.4byte	0x168
 9645 2349 DF0B0000 		.4byte	.LLST38
 9646 234d 2C       		.uleb128 0x2c
 9647 234e DD440000 		.4byte	.LASF623
 9648 2352 01       		.byte	0x1
 9649 2353 ED02     		.2byte	0x2ed
 9650 2355 B4000000 		.4byte	0xb4
 9651 2359 8F0D0000 		.4byte	.LLST39
 9652 235d 39       		.uleb128 0x39
 9653 235e 6900     		.ascii	"i\000"
 9654 2360 01       		.byte	0x1
 9655 2361 ED02     		.2byte	0x2ed
 9656 2363 B4000000 		.4byte	0xb4
 9657 2367 3A0F0000 		.4byte	.LLST40
 9658 236b 39       		.uleb128 0x39
 9659 236c 69647800 		.ascii	"idx\000"
 9660 2370 01       		.byte	0x1
 9661 2371 EE02     		.2byte	0x2ee
 9662 2373 B4000000 		.4byte	0xb4
ARM GAS  C:\Users\Helon\AppData\Local\Temp\ccKCxrf8.s 			page 239


 9663 2377 FA0F0000 		.4byte	.LLST41
 9664 237b 2C       		.uleb128 0x2c
 9665 237c AB250000 		.4byte	.LASF624
 9666 2380 01       		.byte	0x1
 9667 2381 EF02     		.2byte	0x2ef
 9668 2383 BF000000 		.4byte	0xbf
 9669 2387 9B130000 		.4byte	.LLST42
 9670 238b 2C       		.uleb128 0x2c
 9671 238c CC010000 		.4byte	.LASF625
 9672 2390 01       		.byte	0x1
 9673 2391 EF02     		.2byte	0x2ef
 9674 2393 BF000000 		.4byte	0xbf
 9675 2397 CA130000 		.4byte	.LLST43
 9676 239b 35       		.uleb128 0x35
 9677 239c 9E1A0000 		.4byte	.LASF626
 9678 23a0 01       		.byte	0x1
 9679 23a1 F002     		.2byte	0x2f0
 9680 23a3 932B0000 		.4byte	0x2b93
 9681 23a7 03       		.uleb128 0x3
 9682 23a8 91       		.byte	0x91
 9683 23a9 CC7E     		.sleb128 -180
 9684 23ab 35       		.uleb128 0x35
 9685 23ac D4370000 		.4byte	.LASF627
 9686 23b0 01       		.byte	0x1
 9687 23b1 F102     		.2byte	0x2f1
 9688 23b3 A32B0000 		.4byte	0x2ba3
 9689 23b7 03       		.uleb128 0x3
 9690 23b8 91       		.byte	0x91
 9691 23b9 E87E     		.sleb128 -152
 9692 23bb 35       		.uleb128 0x35
 9693 23bc 8D030000 		.4byte	.LASF628
 9694 23c0 01       		.byte	0x1
 9695 23c1 F202     		.2byte	0x2f2
 9696 23c3 B32B0000 		.4byte	0x2bb3
 9697 23c7 03       		.uleb128 0x3
 9698 23c8 91       		.byte	0x91
 9699 23c9 A87F     		.sleb128 -88
 9700 23cb 35       		.uleb128 0x35
 9701 23cc 16420000 		.4byte	.LASF629
 9702 23d0 01       		.byte	0x1
 9703 23d1 F302     		.2byte	0x2f3
 9704 23d3 C32B0000 		.4byte	0x2bc3
 9705 23d7 03       		.uleb128 0x3
 9706 23d8 91       		.byte	0x91
 9707 23d9 C07E     		.sleb128 -192
 9708 23db 35       		.uleb128 0x35
 9709 23dc C31E0000 		.4byte	.LASF630
 9710 23e0 01       		.byte	0x1
 9711 23e1 F402     		.2byte	0x2f4
 9712 23e3 1E010000 		.4byte	0x11e
 9713 23e7 03       		.uleb128 0x3
 9714 23e8 91       		.byte	0x91
 9715 23e9 BE7E     		.sleb128 -194
 9716 23eb 35       		.uleb128 0x35
 9717 23ec 931E0000 		.4byte	.LASF631
 9718 23f0 01       		.byte	0x1
 9719 23f1 F502     		.2byte	0x2f5
ARM GAS  C:\Users\Helon\AppData\Local\Temp\ccKCxrf8.s 			page 240


 9720 23f3 C32B0000 		.4byte	0x2bc3
 9721 23f7 03       		.uleb128 0x3
 9722 23f8 91       		.byte	0x91
 9723 23f9 C47E     		.sleb128 -188
 9724 23fb 35       		.uleb128 0x35
 9725 23fc B82E0000 		.4byte	.LASF632
 9726 2400 01       		.byte	0x1
 9727 2401 F602     		.2byte	0x2f6
 9728 2403 1E010000 		.4byte	0x11e
 9729 2407 03       		.uleb128 0x3
 9730 2408 91       		.byte	0x91
 9731 2409 BF7E     		.sleb128 -193
 9732 240b 35       		.uleb128 0x35
 9733 240c B7120000 		.4byte	.LASF633
 9734 2410 01       		.byte	0x1
 9735 2411 F702     		.2byte	0x2f7
 9736 2413 D32B0000 		.4byte	0x2bd3
 9737 2417 03       		.uleb128 0x3
 9738 2418 91       		.byte	0x91
 9739 2419 BC7E     		.sleb128 -196
 9740 241b 35       		.uleb128 0x35
 9741 241c 94110000 		.4byte	.LASF634
 9742 2420 01       		.byte	0x1
 9743 2421 F802     		.2byte	0x2f8
 9744 2423 F6000000 		.4byte	0xf6
 9745 2427 03       		.uleb128 0x3
 9746 2428 91       		.byte	0x91
 9747 2429 C87E     		.sleb128 -184
 9748 242b 2C       		.uleb128 0x2c
 9749 242c 683B0000 		.4byte	.LASF592
 9750 2430 01       		.byte	0x1
 9751 2431 FC02     		.2byte	0x2fc
 9752 2433 AF030000 		.4byte	0x3af
 9753 2437 1E140000 		.4byte	.LLST44
 9754 243b 2C       		.uleb128 0x2c
 9755 243c CD1D0000 		.4byte	.LASF635
 9756 2440 01       		.byte	0x1
 9757 2441 FD02     		.2byte	0x2fd
 9758 2443 B4000000 		.4byte	0xb4
 9759 2447 F2150000 		.4byte	.LLST45
 9760 244b 35       		.uleb128 0x35
 9761 244c 5E010000 		.4byte	.LASF636
 9762 2450 01       		.byte	0x1
 9763 2451 FE02     		.2byte	0x2fe
 9764 2453 240A0000 		.4byte	0xa24
 9765 2457 03       		.uleb128 0x3
 9766 2458 91       		.byte	0x91
 9767 2459 887F     		.sleb128 -120
 9768 245b 35       		.uleb128 0x35
 9769 245c 5A230000 		.4byte	.LASF637
 9770 2460 01       		.byte	0x1
 9771 2461 FF02     		.2byte	0x2ff
 9772 2463 71070000 		.4byte	0x771
 9773 2467 03       		.uleb128 0x3
 9774 2468 91       		.byte	0x91
 9775 2469 887F     		.sleb128 -120
 9776 246b 35       		.uleb128 0x35
ARM GAS  C:\Users\Helon\AppData\Local\Temp\ccKCxrf8.s 			page 241


 9777 246c 66230000 		.4byte	.LASF638
 9778 2470 01       		.byte	0x1
 9779 2471 0003     		.2byte	0x300
 9780 2473 B3060000 		.4byte	0x6b3
 9781 2477 03       		.uleb128 0x3
 9782 2478 91       		.byte	0x91
 9783 2479 887F     		.sleb128 -120
 9784 247b 24       		.uleb128 0x24
 9785 247c 18000000 		.4byte	.LVL326
 9786 2480 5D350000 		.4byte	0x355d
 9787 2484 9A240000 		.4byte	0x249a
 9788 2488 25       		.uleb128 0x25
 9789 2489 01       		.uleb128 0x1
 9790 248a 52       		.byte	0x52
 9791 248b 01       		.uleb128 0x1
 9792 248c 4B       		.byte	0x4b
 9793 248d 25       		.uleb128 0x25
 9794 248e 01       		.uleb128 0x1
 9795 248f 51       		.byte	0x51
 9796 2490 01       		.uleb128 0x1
 9797 2491 30       		.byte	0x30
 9798 2492 25       		.uleb128 0x25
 9799 2493 01       		.uleb128 0x1
 9800 2494 50       		.byte	0x50
 9801 2495 03       		.uleb128 0x3
 9802 2496 91       		.byte	0x91
 9803 2497 CC7E     		.sleb128 -180
 9804 2499 00       		.byte	0
 9805 249a 24       		.uleb128 0x24
 9806 249b 22000000 		.4byte	.LVL327
 9807 249f 5D350000 		.4byte	0x355d
 9808 24a3 B9240000 		.4byte	0x24b9
 9809 24a7 25       		.uleb128 0x25
 9810 24a8 01       		.uleb128 0x1
 9811 24a9 52       		.byte	0x52
 9812 24aa 01       		.uleb128 0x1
 9813 24ab 4F       		.byte	0x4f
 9814 24ac 25       		.uleb128 0x25
 9815 24ad 01       		.uleb128 0x1
 9816 24ae 51       		.byte	0x51
 9817 24af 01       		.uleb128 0x1
 9818 24b0 30       		.byte	0x30
 9819 24b1 25       		.uleb128 0x25
 9820 24b2 01       		.uleb128 0x1
 9821 24b3 50       		.byte	0x50
 9822 24b4 03       		.uleb128 0x3
 9823 24b5 91       		.byte	0x91
 9824 24b6 E87E     		.sleb128 -152
 9825 24b8 00       		.byte	0
 9826 24b9 24       		.uleb128 0x24
 9827 24ba 2C000000 		.4byte	.LVL328
 9828 24be 5D350000 		.4byte	0x355d
 9829 24c2 D9240000 		.4byte	0x24d9
 9830 24c6 25       		.uleb128 0x25
 9831 24c7 01       		.uleb128 0x1
 9832 24c8 52       		.byte	0x52
 9833 24c9 02       		.uleb128 0x2
ARM GAS  C:\Users\Helon\AppData\Local\Temp\ccKCxrf8.s 			page 242


 9834 24ca 08       		.byte	0x8
 9835 24cb 3E       		.byte	0x3e
 9836 24cc 25       		.uleb128 0x25
 9837 24cd 01       		.uleb128 0x1
 9838 24ce 51       		.byte	0x51
 9839 24cf 01       		.uleb128 0x1
 9840 24d0 30       		.byte	0x30
 9841 24d1 25       		.uleb128 0x25
 9842 24d2 01       		.uleb128 0x1
 9843 24d3 50       		.byte	0x50
 9844 24d4 03       		.uleb128 0x3
 9845 24d5 91       		.byte	0x91
 9846 24d6 A87F     		.sleb128 -88
 9847 24d8 00       		.byte	0
 9848 24d9 24       		.uleb128 0x24
 9849 24da 4E000000 		.4byte	.LVL330
 9850 24de 5E150000 		.4byte	0x155e
 9851 24e2 ED240000 		.4byte	0x24ed
 9852 24e6 25       		.uleb128 0x25
 9853 24e7 01       		.uleb128 0x1
 9854 24e8 50       		.byte	0x50
 9855 24e9 02       		.uleb128 0x2
 9856 24ea 74       		.byte	0x74
 9857 24eb 00       		.sleb128 0
 9858 24ec 00       		.byte	0
 9859 24ed 24       		.uleb128 0x24
 9860 24ee A2000000 		.4byte	.LVL332
 9861 24f2 AD310000 		.4byte	0x31ad
 9862 24f6 04250000 		.4byte	0x2504
 9863 24fa 25       		.uleb128 0x25
 9864 24fb 01       		.uleb128 0x1
 9865 24fc 50       		.byte	0x50
 9866 24fd 05       		.uleb128 0x5
 9867 24fe 03       		.byte	0x3
 9868 24ff 4A010000 		.4byte	.LC67
 9869 2503 00       		.byte	0
 9870 2504 26       		.uleb128 0x26
 9871 2505 A6000000 		.4byte	.LVL333
 9872 2509 C6310000 		.4byte	0x31c6
 9873 250d 26       		.uleb128 0x26
 9874 250e B6000000 		.4byte	.LVL334
 9875 2512 7A350000 		.4byte	0x357a
 9876 2516 24       		.uleb128 0x24
 9877 2517 DC000000 		.4byte	.LVL340
 9878 251b 81350000 		.4byte	0x3581
 9879 251f 2A250000 		.4byte	0x252a
 9880 2523 25       		.uleb128 0x25
 9881 2524 01       		.uleb128 0x1
 9882 2525 50       		.byte	0x50
 9883 2526 02       		.uleb128 0x2
 9884 2527 74       		.byte	0x74
 9885 2528 00       		.sleb128 0
 9886 2529 00       		.byte	0
 9887 252a 24       		.uleb128 0x24
 9888 252b F4000000 		.4byte	.LVL341
 9889 252f 4C320000 		.4byte	0x324c
 9890 2533 41250000 		.4byte	0x2541
ARM GAS  C:\Users\Helon\AppData\Local\Temp\ccKCxrf8.s 			page 243


 9891 2537 25       		.uleb128 0x25
 9892 2538 01       		.uleb128 0x1
 9893 2539 50       		.byte	0x50
 9894 253a 05       		.uleb128 0x5
 9895 253b 03       		.byte	0x3
 9896 253c 5D030000 		.4byte	.LC158
 9897 2540 00       		.byte	0
 9898 2541 24       		.uleb128 0x24
 9899 2542 14010000 		.4byte	.LVL345
 9900 2546 9D350000 		.4byte	0x359d
 9901 254a 56250000 		.4byte	0x2556
 9902 254e 25       		.uleb128 0x25
 9903 254f 01       		.uleb128 0x1
 9904 2550 50       		.byte	0x50
 9905 2551 03       		.uleb128 0x3
 9906 2552 91       		.byte	0x91
 9907 2553 CC7E     		.sleb128 -180
 9908 2555 00       		.byte	0
 9909 2556 24       		.uleb128 0x24
 9910 2557 24010000 		.4byte	.LVL349
 9911 255b 31340000 		.4byte	0x3431
 9912 255f 70250000 		.4byte	0x2570
 9913 2563 25       		.uleb128 0x25
 9914 2564 01       		.uleb128 0x1
 9915 2565 51       		.byte	0x51
 9916 2566 02       		.uleb128 0x2
 9917 2567 08       		.byte	0x8
 9918 2568 3E       		.byte	0x3e
 9919 2569 25       		.uleb128 0x25
 9920 256a 01       		.uleb128 0x1
 9921 256b 50       		.byte	0x50
 9922 256c 02       		.uleb128 0x2
 9923 256d 74       		.byte	0x74
 9924 256e 00       		.sleb128 0
 9925 256f 00       		.byte	0
 9926 2570 26       		.uleb128 0x26
 9927 2571 3C010000 		.4byte	.LVL350
 9928 2575 B9350000 		.4byte	0x35b9
 9929 2579 24       		.uleb128 0x24
 9930 257a 46010000 		.4byte	.LVL351
 9931 257e 5D350000 		.4byte	0x355d
 9932 2582 99250000 		.4byte	0x2599
 9933 2586 25       		.uleb128 0x25
 9934 2587 01       		.uleb128 0x1
 9935 2588 52       		.byte	0x52
 9936 2589 01       		.uleb128 0x1
 9937 258a 4B       		.byte	0x4b
 9938 258b 25       		.uleb128 0x25
 9939 258c 01       		.uleb128 0x1
 9940 258d 51       		.byte	0x51
 9941 258e 02       		.uleb128 0x2
 9942 258f 76       		.byte	0x76
 9943 2590 00       		.sleb128 0
 9944 2591 25       		.uleb128 0x25
 9945 2592 01       		.uleb128 0x1
 9946 2593 50       		.byte	0x50
 9947 2594 03       		.uleb128 0x3
ARM GAS  C:\Users\Helon\AppData\Local\Temp\ccKCxrf8.s 			page 244


 9948 2595 91       		.byte	0x91
 9949 2596 CC7E     		.sleb128 -180
 9950 2598 00       		.byte	0
 9951 2599 24       		.uleb128 0x24
 9952 259a 58010000 		.4byte	.LVL352
 9953 259e 07320000 		.4byte	0x3207
 9954 25a2 B4250000 		.4byte	0x25b4
 9955 25a6 25       		.uleb128 0x25
 9956 25a7 01       		.uleb128 0x1
 9957 25a8 51       		.byte	0x51
 9958 25a9 02       		.uleb128 0x2
 9959 25aa 75       		.byte	0x75
 9960 25ab 27       		.sleb128 39
 9961 25ac 25       		.uleb128 0x25
 9962 25ad 01       		.uleb128 0x1
 9963 25ae 50       		.byte	0x50
 9964 25af 03       		.uleb128 0x3
 9965 25b0 91       		.byte	0x91
 9966 25b1 CC7E     		.sleb128 -180
 9967 25b3 00       		.byte	0
 9968 25b4 24       		.uleb128 0x24
 9969 25b5 64010000 		.4byte	.LVL353
 9970 25b9 C1350000 		.4byte	0x35c1
 9971 25bd D8250000 		.4byte	0x25d8
 9972 25c1 25       		.uleb128 0x25
 9973 25c2 01       		.uleb128 0x1
 9974 25c3 53       		.byte	0x53
 9975 25c4 02       		.uleb128 0x2
 9976 25c5 76       		.byte	0x76
 9977 25c6 00       		.sleb128 0
 9978 25c7 25       		.uleb128 0x25
 9979 25c8 01       		.uleb128 0x1
 9980 25c9 52       		.byte	0x52
 9981 25ca 01       		.uleb128 0x1
 9982 25cb 31       		.byte	0x31
 9983 25cc 25       		.uleb128 0x25
 9984 25cd 01       		.uleb128 0x1
 9985 25ce 51       		.byte	0x51
 9986 25cf 02       		.uleb128 0x2
 9987 25d0 77       		.byte	0x77
 9988 25d1 00       		.sleb128 0
 9989 25d2 25       		.uleb128 0x25
 9990 25d3 01       		.uleb128 0x1
 9991 25d4 50       		.byte	0x50
 9992 25d5 01       		.uleb128 0x1
 9993 25d6 31       		.byte	0x31
 9994 25d7 00       		.byte	0
 9995 25d8 24       		.uleb128 0x24
 9996 25d9 70010000 		.4byte	.LVL354
 9997 25dd C1350000 		.4byte	0x35c1
 9998 25e1 F8250000 		.4byte	0x25f8
 9999 25e5 25       		.uleb128 0x25
 10000 25e6 01       		.uleb128 0x1
 10001 25e7 53       		.byte	0x53
 10002 25e8 02       		.uleb128 0x2
 10003 25e9 76       		.byte	0x76
 10004 25ea 00       		.sleb128 0
ARM GAS  C:\Users\Helon\AppData\Local\Temp\ccKCxrf8.s 			page 245


 10005 25eb 25       		.uleb128 0x25
 10006 25ec 01       		.uleb128 0x1
 10007 25ed 51       		.byte	0x51
 10008 25ee 03       		.uleb128 0x3
 10009 25ef 91       		.byte	0x91
 10010 25f0 CC7E     		.sleb128 -180
 10011 25f2 25       		.uleb128 0x25
 10012 25f3 01       		.uleb128 0x1
 10013 25f4 50       		.byte	0x50
 10014 25f5 01       		.uleb128 0x1
 10015 25f6 32       		.byte	0x32
 10016 25f7 00       		.byte	0
 10017 25f8 24       		.uleb128 0x24
 10018 25f9 76010000 		.4byte	.LVL355
 10019 25fd EB350000 		.4byte	0x35eb
 10020 2601 0D260000 		.4byte	0x260d
 10021 2605 25       		.uleb128 0x25
 10022 2606 01       		.uleb128 0x1
 10023 2607 50       		.byte	0x50
 10024 2608 03       		.uleb128 0x3
 10025 2609 91       		.byte	0x91
 10026 260a CC7E     		.sleb128 -180
 10027 260c 00       		.byte	0
 10028 260d 26       		.uleb128 0x26
 10029 260e B8010000 		.4byte	.LVL365
 10030 2612 ED210000 		.4byte	0x21ed
 10031 2616 24       		.uleb128 0x24
 10032 2617 CC010000 		.4byte	.LVL369
 10033 261b 31340000 		.4byte	0x3431
 10034 261f 30260000 		.4byte	0x2630
 10035 2623 25       		.uleb128 0x25
 10036 2624 01       		.uleb128 0x1
 10037 2625 51       		.byte	0x51
 10038 2626 02       		.uleb128 0x2
 10039 2627 08       		.byte	0x8
 10040 2628 3E       		.byte	0x3e
 10041 2629 25       		.uleb128 0x25
 10042 262a 01       		.uleb128 0x1
 10043 262b 50       		.byte	0x50
 10044 262c 02       		.uleb128 0x2
 10045 262d 77       		.byte	0x77
 10046 262e 00       		.sleb128 0
 10047 262f 00       		.byte	0
 10048 2630 24       		.uleb128 0x24
 10049 2631 E2010000 		.4byte	.LVL370
 10050 2635 5D350000 		.4byte	0x355d
 10051 2639 4F260000 		.4byte	0x264f
 10052 263d 25       		.uleb128 0x25
 10053 263e 01       		.uleb128 0x1
 10054 263f 52       		.byte	0x52
 10055 2640 01       		.uleb128 0x1
 10056 2641 4F       		.byte	0x4f
 10057 2642 25       		.uleb128 0x25
 10058 2643 01       		.uleb128 0x1
 10059 2644 51       		.byte	0x51
 10060 2645 02       		.uleb128 0x2
 10061 2646 75       		.byte	0x75
ARM GAS  C:\Users\Helon\AppData\Local\Temp\ccKCxrf8.s 			page 246


 10062 2647 00       		.sleb128 0
 10063 2648 25       		.uleb128 0x25
 10064 2649 01       		.uleb128 0x1
 10065 264a 50       		.byte	0x50
 10066 264b 02       		.uleb128 0x2
 10067 264c 76       		.byte	0x76
 10068 264d 00       		.sleb128 0
 10069 264e 00       		.byte	0
 10070 264f 24       		.uleb128 0x24
 10071 2650 F0010000 		.4byte	.LVL371
 10072 2654 07320000 		.4byte	0x3207
 10073 2658 6F260000 		.4byte	0x266f
 10074 265c 25       		.uleb128 0x25
 10075 265d 01       		.uleb128 0x1
 10076 265e 52       		.byte	0x52
 10077 265f 01       		.uleb128 0x1
 10078 2660 32       		.byte	0x32
 10079 2661 25       		.uleb128 0x25
 10080 2662 01       		.uleb128 0x1
 10081 2663 51       		.byte	0x51
 10082 2664 02       		.uleb128 0x2
 10083 2665 74       		.byte	0x74
 10084 2666 09       		.sleb128 9
 10085 2667 25       		.uleb128 0x25
 10086 2668 01       		.uleb128 0x1
 10087 2669 50       		.byte	0x50
 10088 266a 03       		.uleb128 0x3
 10089 266b 91       		.byte	0x91
 10090 266c C07E     		.sleb128 -192
 10091 266e 00       		.byte	0
 10092 266f 24       		.uleb128 0x24
 10093 2670 FA010000 		.4byte	.LVL372
 10094 2674 64220000 		.4byte	0x2264
 10095 2678 8F260000 		.4byte	0x268f
 10096 267c 25       		.uleb128 0x25
 10097 267d 01       		.uleb128 0x1
 10098 267e 52       		.byte	0x52
 10099 267f 01       		.uleb128 0x1
 10100 2680 31       		.byte	0x31
 10101 2681 25       		.uleb128 0x25
 10102 2682 01       		.uleb128 0x1
 10103 2683 51       		.byte	0x51
 10104 2684 03       		.uleb128 0x3
 10105 2685 91       		.byte	0x91
 10106 2686 C07E     		.sleb128 -192
 10107 2688 25       		.uleb128 0x25
 10108 2689 01       		.uleb128 0x1
 10109 268a 50       		.byte	0x50
 10110 268b 02       		.uleb128 0x2
 10111 268c 77       		.byte	0x77
 10112 268d 00       		.sleb128 0
 10113 268e 00       		.byte	0
 10114 268f 24       		.uleb128 0x24
 10115 2690 0A020000 		.4byte	.LVL373
 10116 2694 07320000 		.4byte	0x3207
 10117 2698 AA260000 		.4byte	0x26aa
 10118 269c 25       		.uleb128 0x25
ARM GAS  C:\Users\Helon\AppData\Local\Temp\ccKCxrf8.s 			page 247


 10119 269d 01       		.uleb128 0x1
 10120 269e 51       		.byte	0x51
 10121 269f 02       		.uleb128 0x2
 10122 26a0 74       		.byte	0x74
 10123 26a1 0C       		.sleb128 12
 10124 26a2 25       		.uleb128 0x25
 10125 26a3 01       		.uleb128 0x1
 10126 26a4 50       		.byte	0x50
 10127 26a5 03       		.uleb128 0x3
 10128 26a6 91       		.byte	0x91
 10129 26a7 A87F     		.sleb128 -88
 10130 26a9 00       		.byte	0
 10131 26aa 24       		.uleb128 0x24
 10132 26ab 14020000 		.4byte	.LVL374
 10133 26af 64220000 		.4byte	0x2264
 10134 26b3 CB260000 		.4byte	0x26cb
 10135 26b7 25       		.uleb128 0x25
 10136 26b8 01       		.uleb128 0x1
 10137 26b9 52       		.byte	0x52
 10138 26ba 01       		.uleb128 0x1
 10139 26bb 4F       		.byte	0x4f
 10140 26bc 25       		.uleb128 0x25
 10141 26bd 01       		.uleb128 0x1
 10142 26be 51       		.byte	0x51
 10143 26bf 03       		.uleb128 0x3
 10144 26c0 91       		.byte	0x91
 10145 26c1 A87F     		.sleb128 -88
 10146 26c3 25       		.uleb128 0x25
 10147 26c4 01       		.uleb128 0x1
 10148 26c5 50       		.byte	0x50
 10149 26c6 03       		.uleb128 0x3
 10150 26c7 91       		.byte	0x91
 10151 26c8 E87E     		.sleb128 -152
 10152 26ca 00       		.byte	0
 10153 26cb 24       		.uleb128 0x24
 10154 26cc 1E020000 		.4byte	.LVL375
 10155 26d0 07320000 		.4byte	0x3207
 10156 26d4 E6260000 		.4byte	0x26e6
 10157 26d8 25       		.uleb128 0x25
 10158 26d9 01       		.uleb128 0x1
 10159 26da 51       		.byte	0x51
 10160 26db 03       		.uleb128 0x3
 10161 26dc 91       		.byte	0x91
 10162 26dd E87E     		.sleb128 -152
 10163 26df 25       		.uleb128 0x25
 10164 26e0 01       		.uleb128 0x1
 10165 26e1 50       		.byte	0x50
 10166 26e2 02       		.uleb128 0x2
 10167 26e3 76       		.byte	0x76
 10168 26e4 00       		.sleb128 0
 10169 26e5 00       		.byte	0
 10170 26e6 24       		.uleb128 0x24
 10171 26e7 26020000 		.4byte	.LVL376
 10172 26eb 0C360000 		.4byte	0x360c
 10173 26ef 00270000 		.4byte	0x2700
 10174 26f3 25       		.uleb128 0x25
 10175 26f4 01       		.uleb128 0x1
ARM GAS  C:\Users\Helon\AppData\Local\Temp\ccKCxrf8.s 			page 248


 10176 26f5 51       		.byte	0x51
 10177 26f6 02       		.uleb128 0x2
 10178 26f7 75       		.byte	0x75
 10179 26f8 00       		.sleb128 0
 10180 26f9 25       		.uleb128 0x25
 10181 26fa 01       		.uleb128 0x1
 10182 26fb 50       		.byte	0x50
 10183 26fc 02       		.uleb128 0x2
 10184 26fd 76       		.byte	0x76
 10185 26fe 00       		.sleb128 0
 10186 26ff 00       		.byte	0
 10187 2700 24       		.uleb128 0x24
 10188 2701 38020000 		.4byte	.LVL378
 10189 2705 07320000 		.4byte	0x3207
 10190 2709 15270000 		.4byte	0x2715
 10191 270d 25       		.uleb128 0x25
 10192 270e 01       		.uleb128 0x1
 10193 270f 51       		.byte	0x51
 10194 2710 03       		.uleb128 0x3
 10195 2711 91       		.byte	0x91
 10196 2712 E87E     		.sleb128 -152
 10197 2714 00       		.byte	0
 10198 2715 24       		.uleb128 0x24
 10199 2716 48020000 		.4byte	.LVL382
 10200 271a 4C320000 		.4byte	0x324c
 10201 271e 2C270000 		.4byte	0x272c
 10202 2722 25       		.uleb128 0x25
 10203 2723 01       		.uleb128 0x1
 10204 2724 50       		.byte	0x50
 10205 2725 05       		.uleb128 0x5
 10206 2726 03       		.byte	0x3
 10207 2727 A8030000 		.4byte	.LC173
 10208 272b 00       		.byte	0
 10209 272c 24       		.uleb128 0x24
 10210 272d 5C020000 		.4byte	.LVL384
 10211 2731 4C320000 		.4byte	0x324c
 10212 2735 43270000 		.4byte	0x2743
 10213 2739 25       		.uleb128 0x25
 10214 273a 01       		.uleb128 0x1
 10215 273b 50       		.byte	0x50
 10216 273c 05       		.uleb128 0x5
 10217 273d 03       		.byte	0x3
 10218 273e AF030000 		.4byte	.LC175
 10219 2742 00       		.byte	0
 10220 2743 24       		.uleb128 0x24
 10221 2744 AE020000 		.4byte	.LVL398
 10222 2748 4C320000 		.4byte	0x324c
 10223 274c 60270000 		.4byte	0x2760
 10224 2750 25       		.uleb128 0x25
 10225 2751 01       		.uleb128 0x1
 10226 2752 51       		.byte	0x51
 10227 2753 02       		.uleb128 0x2
 10228 2754 74       		.byte	0x74
 10229 2755 00       		.sleb128 0
 10230 2756 25       		.uleb128 0x25
 10231 2757 01       		.uleb128 0x1
 10232 2758 50       		.byte	0x50
ARM GAS  C:\Users\Helon\AppData\Local\Temp\ccKCxrf8.s 			page 249


 10233 2759 05       		.uleb128 0x5
 10234 275a 03       		.byte	0x3
 10235 275b B6030000 		.4byte	.LC179
 10236 275f 00       		.byte	0
 10237 2760 26       		.uleb128 0x26
 10238 2761 B2020000 		.4byte	.LVL399
 10239 2765 C6310000 		.4byte	0x31c6
 10240 2769 24       		.uleb128 0x24
 10241 276a D8020000 		.4byte	.LVL403
 10242 276e 64220000 		.4byte	0x2264
 10243 2772 88270000 		.4byte	0x2788
 10244 2776 25       		.uleb128 0x25
 10245 2777 01       		.uleb128 0x1
 10246 2778 52       		.byte	0x52
 10247 2779 01       		.uleb128 0x1
 10248 277a 31       		.byte	0x31
 10249 277b 25       		.uleb128 0x25
 10250 277c 01       		.uleb128 0x1
 10251 277d 51       		.byte	0x51
 10252 277e 02       		.uleb128 0x2
 10253 277f 75       		.byte	0x75
 10254 2780 00       		.sleb128 0
 10255 2781 25       		.uleb128 0x25
 10256 2782 01       		.uleb128 0x1
 10257 2783 50       		.byte	0x50
 10258 2784 02       		.uleb128 0x2
 10259 2785 76       		.byte	0x76
 10260 2786 00       		.sleb128 0
 10261 2787 00       		.byte	0
 10262 2788 24       		.uleb128 0x24
 10263 2789 F2020000 		.4byte	.LVL404
 10264 278d 64220000 		.4byte	0x2264
 10265 2791 A7270000 		.4byte	0x27a7
 10266 2795 25       		.uleb128 0x25
 10267 2796 01       		.uleb128 0x1
 10268 2797 52       		.byte	0x52
 10269 2798 01       		.uleb128 0x1
 10270 2799 31       		.byte	0x31
 10271 279a 25       		.uleb128 0x25
 10272 279b 01       		.uleb128 0x1
 10273 279c 51       		.byte	0x51
 10274 279d 02       		.uleb128 0x2
 10275 279e 75       		.byte	0x75
 10276 279f 00       		.sleb128 0
 10277 27a0 25       		.uleb128 0x25
 10278 27a1 01       		.uleb128 0x1
 10279 27a2 50       		.byte	0x50
 10280 27a3 02       		.uleb128 0x2
 10281 27a4 76       		.byte	0x76
 10282 27a5 00       		.sleb128 0
 10283 27a6 00       		.byte	0
 10284 27a7 24       		.uleb128 0x24
 10285 27a8 0A030000 		.4byte	.LVL405
 10286 27ac 64220000 		.4byte	0x2264
 10287 27b0 C6270000 		.4byte	0x27c6
 10288 27b4 25       		.uleb128 0x25
 10289 27b5 01       		.uleb128 0x1
ARM GAS  C:\Users\Helon\AppData\Local\Temp\ccKCxrf8.s 			page 250


 10290 27b6 52       		.byte	0x52
 10291 27b7 01       		.uleb128 0x1
 10292 27b8 31       		.byte	0x31
 10293 27b9 25       		.uleb128 0x25
 10294 27ba 01       		.uleb128 0x1
 10295 27bb 51       		.byte	0x51
 10296 27bc 02       		.uleb128 0x2
 10297 27bd 75       		.byte	0x75
 10298 27be 00       		.sleb128 0
 10299 27bf 25       		.uleb128 0x25
 10300 27c0 01       		.uleb128 0x1
 10301 27c1 50       		.byte	0x50
 10302 27c2 02       		.uleb128 0x2
 10303 27c3 76       		.byte	0x76
 10304 27c4 00       		.sleb128 0
 10305 27c5 00       		.byte	0
 10306 27c6 24       		.uleb128 0x24
 10307 27c7 34030000 		.4byte	.LVL408
 10308 27cb 4C320000 		.4byte	0x324c
 10309 27cf DD270000 		.4byte	0x27dd
 10310 27d3 25       		.uleb128 0x25
 10311 27d4 01       		.uleb128 0x1
 10312 27d5 50       		.byte	0x50
 10313 27d6 05       		.uleb128 0x5
 10314 27d7 03       		.byte	0x3
 10315 27d8 CF030000 		.4byte	.LC181
 10316 27dc 00       		.byte	0
 10317 27dd 24       		.uleb128 0x24
 10318 27de 5C030000 		.4byte	.LVL411
 10319 27e2 64220000 		.4byte	0x2264
 10320 27e6 FD270000 		.4byte	0x27fd
 10321 27ea 25       		.uleb128 0x25
 10322 27eb 01       		.uleb128 0x1
 10323 27ec 52       		.byte	0x52
 10324 27ed 02       		.uleb128 0x2
 10325 27ee 77       		.byte	0x77
 10326 27ef 00       		.sleb128 0
 10327 27f0 25       		.uleb128 0x25
 10328 27f1 01       		.uleb128 0x1
 10329 27f2 51       		.byte	0x51
 10330 27f3 02       		.uleb128 0x2
 10331 27f4 75       		.byte	0x75
 10332 27f5 00       		.sleb128 0
 10333 27f6 25       		.uleb128 0x25
 10334 27f7 01       		.uleb128 0x1
 10335 27f8 50       		.byte	0x50
 10336 27f9 02       		.uleb128 0x2
 10337 27fa 76       		.byte	0x76
 10338 27fb 00       		.sleb128 0
 10339 27fc 00       		.byte	0
 10340 27fd 24       		.uleb128 0x24
 10341 27fe 74030000 		.4byte	.LVL412
 10342 2802 64220000 		.4byte	0x2264
 10343 2806 1D280000 		.4byte	0x281d
 10344 280a 25       		.uleb128 0x25
 10345 280b 01       		.uleb128 0x1
 10346 280c 52       		.byte	0x52
ARM GAS  C:\Users\Helon\AppData\Local\Temp\ccKCxrf8.s 			page 251


 10347 280d 02       		.uleb128 0x2
 10348 280e 77       		.byte	0x77
 10349 280f 00       		.sleb128 0
 10350 2810 25       		.uleb128 0x25
 10351 2811 01       		.uleb128 0x1
 10352 2812 51       		.byte	0x51
 10353 2813 02       		.uleb128 0x2
 10354 2814 75       		.byte	0x75
 10355 2815 00       		.sleb128 0
 10356 2816 25       		.uleb128 0x25
 10357 2817 01       		.uleb128 0x1
 10358 2818 50       		.byte	0x50
 10359 2819 02       		.uleb128 0x2
 10360 281a 76       		.byte	0x76
 10361 281b 00       		.sleb128 0
 10362 281c 00       		.byte	0
 10363 281d 24       		.uleb128 0x24
 10364 281e 84030000 		.4byte	.LVL413
 10365 2822 62320000 		.4byte	0x3262
 10366 2826 34280000 		.4byte	0x2834
 10367 282a 25       		.uleb128 0x25
 10368 282b 01       		.uleb128 0x1
 10369 282c 51       		.byte	0x51
 10370 282d 05       		.uleb128 0x5
 10371 282e 03       		.byte	0x3
 10372 282f 00000000 		.4byte	.LANCHOR1
 10373 2833 00       		.byte	0
 10374 2834 24       		.uleb128 0x24
 10375 2835 C2030000 		.4byte	.LVL419
 10376 2839 C1350000 		.4byte	0x35c1
 10377 283d 59280000 		.4byte	0x2859
 10378 2841 25       		.uleb128 0x25
 10379 2842 01       		.uleb128 0x1
 10380 2843 53       		.byte	0x53
 10381 2844 01       		.uleb128 0x1
 10382 2845 36       		.byte	0x36
 10383 2846 25       		.uleb128 0x25
 10384 2847 01       		.uleb128 0x1
 10385 2848 52       		.byte	0x52
 10386 2849 01       		.uleb128 0x1
 10387 284a 31       		.byte	0x31
 10388 284b 25       		.uleb128 0x25
 10389 284c 01       		.uleb128 0x1
 10390 284d 51       		.byte	0x51
 10391 284e 03       		.uleb128 0x3
 10392 284f 91       		.byte	0x91
 10393 2850 C87E     		.sleb128 -184
 10394 2852 25       		.uleb128 0x25
 10395 2853 01       		.uleb128 0x1
 10396 2854 50       		.byte	0x50
 10397 2855 02       		.uleb128 0x2
 10398 2856 74       		.byte	0x74
 10399 2857 00       		.sleb128 0
 10400 2858 00       		.byte	0
 10401 2859 24       		.uleb128 0x24
 10402 285a D2030000 		.4byte	.LVL420
 10403 285e F1310000 		.4byte	0x31f1
ARM GAS  C:\Users\Helon\AppData\Local\Temp\ccKCxrf8.s 			page 252


 10404 2862 6D280000 		.4byte	0x286d
 10405 2866 25       		.uleb128 0x25
 10406 2867 01       		.uleb128 0x1
 10407 2868 50       		.byte	0x50
 10408 2869 02       		.uleb128 0x2
 10409 286a 74       		.byte	0x74
 10410 286b 00       		.sleb128 0
 10411 286c 00       		.byte	0
 10412 286d 24       		.uleb128 0x24
 10413 286e 52040000 		.4byte	.LVL424
 10414 2872 C1350000 		.4byte	0x35c1
 10415 2876 92280000 		.4byte	0x2892
 10416 287a 25       		.uleb128 0x25
 10417 287b 01       		.uleb128 0x1
 10418 287c 53       		.byte	0x53
 10419 287d 01       		.uleb128 0x1
 10420 287e 36       		.byte	0x36
 10421 287f 25       		.uleb128 0x25
 10422 2880 01       		.uleb128 0x1
 10423 2881 52       		.byte	0x52
 10424 2882 02       		.uleb128 0x2
 10425 2883 74       		.byte	0x74
 10426 2884 00       		.sleb128 0
 10427 2885 25       		.uleb128 0x25
 10428 2886 01       		.uleb128 0x1
 10429 2887 51       		.byte	0x51
 10430 2888 03       		.uleb128 0x3
 10431 2889 91       		.byte	0x91
 10432 288a C87E     		.sleb128 -184
 10433 288c 25       		.uleb128 0x25
 10434 288d 01       		.uleb128 0x1
 10435 288e 50       		.byte	0x50
 10436 288f 01       		.uleb128 0x1
 10437 2890 30       		.byte	0x30
 10438 2891 00       		.byte	0
 10439 2892 24       		.uleb128 0x24
 10440 2893 62040000 		.4byte	.LVL425
 10441 2897 98320000 		.4byte	0x3298
 10442 289b A5280000 		.4byte	0x28a5
 10443 289f 25       		.uleb128 0x25
 10444 28a0 01       		.uleb128 0x1
 10445 28a1 50       		.byte	0x50
 10446 28a2 01       		.uleb128 0x1
 10447 28a3 30       		.byte	0x30
 10448 28a4 00       		.byte	0
 10449 28a5 24       		.uleb128 0x24
 10450 28a6 88040000 		.4byte	.LVL428
 10451 28aa 27360000 		.4byte	0x3627
 10452 28ae BA280000 		.4byte	0x28ba
 10453 28b2 25       		.uleb128 0x25
 10454 28b3 01       		.uleb128 0x1
 10455 28b4 51       		.byte	0x51
 10456 28b5 03       		.uleb128 0x3
 10457 28b6 91       		.byte	0x91
 10458 28b7 887F     		.sleb128 -120
 10459 28b9 00       		.byte	0
 10460 28ba 26       		.uleb128 0x26
ARM GAS  C:\Users\Helon\AppData\Local\Temp\ccKCxrf8.s 			page 253


 10461 28bb A8040000 		.4byte	.LVL430
 10462 28bf 48360000 		.4byte	0x3648
 10463 28c3 24       		.uleb128 0x24
 10464 28c4 AE040000 		.4byte	.LVL431
 10465 28c8 98320000 		.4byte	0x3298
 10466 28cc D6280000 		.4byte	0x28d6
 10467 28d0 25       		.uleb128 0x25
 10468 28d1 01       		.uleb128 0x1
 10469 28d2 50       		.byte	0x50
 10470 28d3 01       		.uleb128 0x1
 10471 28d4 30       		.byte	0x30
 10472 28d5 00       		.byte	0
 10473 28d6 26       		.uleb128 0x26
 10474 28d7 C2040000 		.4byte	.LVL433
 10475 28db 48360000 		.4byte	0x3648
 10476 28df 26       		.uleb128 0x26
 10477 28e0 C6040000 		.4byte	.LVL434
 10478 28e4 E9310000 		.4byte	0x31e9
 10479 28e8 24       		.uleb128 0x24
 10480 28e9 10050000 		.4byte	.LVL440
 10481 28ed 4C320000 		.4byte	0x324c
 10482 28f1 06290000 		.4byte	0x2906
 10483 28f5 25       		.uleb128 0x25
 10484 28f6 01       		.uleb128 0x1
 10485 28f7 50       		.byte	0x50
 10486 28f8 05       		.uleb128 0x5
 10487 28f9 03       		.byte	0x3
 10488 28fa 04040000 		.4byte	.LC193
 10489 28fe 25       		.uleb128 0x25
 10490 28ff 02       		.uleb128 0x2
 10491 2900 7D       		.byte	0x7d
 10492 2901 04       		.sleb128 4
 10493 2902 02       		.uleb128 0x2
 10494 2903 77       		.byte	0x77
 10495 2904 00       		.sleb128 0
 10496 2905 00       		.byte	0
 10497 2906 26       		.uleb128 0x26
 10498 2907 22050000 		.4byte	.LVL444
 10499 290b AA150000 		.4byte	0x15aa
 10500 290f 26       		.uleb128 0x26
 10501 2910 52050000 		.4byte	.LVL449
 10502 2914 4F360000 		.4byte	0x364f
 10503 2918 24       		.uleb128 0x24
 10504 2919 88050000 		.4byte	.LVL456
 10505 291d 5D350000 		.4byte	0x355d
 10506 2921 3D290000 		.4byte	0x293d
 10507 2925 25       		.uleb128 0x25
 10508 2926 01       		.uleb128 0x1
 10509 2927 52       		.byte	0x52
 10510 2928 01       		.uleb128 0x1
 10511 2929 36       		.byte	0x36
 10512 292a 25       		.uleb128 0x25
 10513 292b 01       		.uleb128 0x1
 10514 292c 51       		.byte	0x51
 10515 292d 01       		.uleb128 0x1
 10516 292e 30       		.byte	0x30
 10517 292f 25       		.uleb128 0x25
ARM GAS  C:\Users\Helon\AppData\Local\Temp\ccKCxrf8.s 			page 254


 10518 2930 01       		.uleb128 0x1
 10519 2931 50       		.byte	0x50
 10520 2932 09       		.uleb128 0x9
 10521 2933 74       		.byte	0x74
 10522 2934 00       		.sleb128 0
 10523 2935 37       		.byte	0x37
 10524 2936 1E       		.byte	0x1e
 10525 2937 76       		.byte	0x76
 10526 2938 00       		.sleb128 0
 10527 2939 22       		.byte	0x22
 10528 293a 23       		.byte	0x23
 10529 293b 09       		.uleb128 0x9
 10530 293c 00       		.byte	0
 10531 293d 26       		.uleb128 0x26
 10532 293e 98050000 		.4byte	.LVL459
 10533 2942 4F360000 		.4byte	0x364f
 10534 2946 24       		.uleb128 0x24
 10535 2947 CE050000 		.4byte	.LVL466
 10536 294b 5D350000 		.4byte	0x355d
 10537 294f 6B290000 		.4byte	0x296b
 10538 2953 25       		.uleb128 0x25
 10539 2954 01       		.uleb128 0x1
 10540 2955 52       		.byte	0x52
 10541 2956 01       		.uleb128 0x1
 10542 2957 36       		.byte	0x36
 10543 2958 25       		.uleb128 0x25
 10544 2959 01       		.uleb128 0x1
 10545 295a 51       		.byte	0x51
 10546 295b 01       		.uleb128 0x1
 10547 295c 30       		.byte	0x30
 10548 295d 25       		.uleb128 0x25
 10549 295e 01       		.uleb128 0x1
 10550 295f 50       		.byte	0x50
 10551 2960 09       		.uleb128 0x9
 10552 2961 74       		.byte	0x74
 10553 2962 00       		.sleb128 0
 10554 2963 37       		.byte	0x37
 10555 2964 1E       		.byte	0x1e
 10556 2965 76       		.byte	0x76
 10557 2966 00       		.sleb128 0
 10558 2967 22       		.byte	0x22
 10559 2968 23       		.byte	0x23
 10560 2969 09       		.uleb128 0x9
 10561 296a 00       		.byte	0
 10562 296b 26       		.uleb128 0x26
 10563 296c DC050000 		.4byte	.LVL469
 10564 2970 4F360000 		.4byte	0x364f
 10565 2974 24       		.uleb128 0x24
 10566 2975 12060000 		.4byte	.LVL476
 10567 2979 5D350000 		.4byte	0x355d
 10568 297d 99290000 		.4byte	0x2999
 10569 2981 25       		.uleb128 0x25
 10570 2982 01       		.uleb128 0x1
 10571 2983 52       		.byte	0x52
 10572 2984 01       		.uleb128 0x1
 10573 2985 36       		.byte	0x36
 10574 2986 25       		.uleb128 0x25
ARM GAS  C:\Users\Helon\AppData\Local\Temp\ccKCxrf8.s 			page 255


 10575 2987 01       		.uleb128 0x1
 10576 2988 51       		.byte	0x51
 10577 2989 01       		.uleb128 0x1
 10578 298a 30       		.byte	0x30
 10579 298b 25       		.uleb128 0x25
 10580 298c 01       		.uleb128 0x1
 10581 298d 50       		.byte	0x50
 10582 298e 09       		.uleb128 0x9
 10583 298f 74       		.byte	0x74
 10584 2990 00       		.sleb128 0
 10585 2991 37       		.byte	0x37
 10586 2992 1E       		.byte	0x1e
 10587 2993 76       		.byte	0x76
 10588 2994 00       		.sleb128 0
 10589 2995 22       		.byte	0x22
 10590 2996 23       		.byte	0x23
 10591 2997 09       		.uleb128 0x9
 10592 2998 00       		.byte	0
 10593 2999 26       		.uleb128 0x26
 10594 299a 20060000 		.4byte	.LVL479
 10595 299e 4F360000 		.4byte	0x364f
 10596 29a2 26       		.uleb128 0x26
 10597 29a3 32060000 		.4byte	.LVL482
 10598 29a7 4C320000 		.4byte	0x324c
 10599 29ab 24       		.uleb128 0x24
 10600 29ac 5A060000 		.4byte	.LVL487
 10601 29b0 5D350000 		.4byte	0x355d
 10602 29b4 D0290000 		.4byte	0x29d0
 10603 29b8 25       		.uleb128 0x25
 10604 29b9 01       		.uleb128 0x1
 10605 29ba 52       		.byte	0x52
 10606 29bb 01       		.uleb128 0x1
 10607 29bc 36       		.byte	0x36
 10608 29bd 25       		.uleb128 0x25
 10609 29be 01       		.uleb128 0x1
 10610 29bf 51       		.byte	0x51
 10611 29c0 01       		.uleb128 0x1
 10612 29c1 30       		.byte	0x30
 10613 29c2 25       		.uleb128 0x25
 10614 29c3 01       		.uleb128 0x1
 10615 29c4 50       		.byte	0x50
 10616 29c5 09       		.uleb128 0x9
 10617 29c6 74       		.byte	0x74
 10618 29c7 00       		.sleb128 0
 10619 29c8 37       		.byte	0x37
 10620 29c9 1E       		.byte	0x1e
 10621 29ca 76       		.byte	0x76
 10622 29cb 00       		.sleb128 0
 10623 29cc 22       		.byte	0x22
 10624 29cd 23       		.byte	0x23
 10625 29ce 09       		.uleb128 0x9
 10626 29cf 00       		.byte	0
 10627 29d0 26       		.uleb128 0x26
 10628 29d1 74060000 		.4byte	.LVL490
 10629 29d5 4F360000 		.4byte	0x364f
 10630 29d9 26       		.uleb128 0x26
 10631 29da 80060000 		.4byte	.LVL493
ARM GAS  C:\Users\Helon\AppData\Local\Temp\ccKCxrf8.s 			page 256


 10632 29de 4C320000 		.4byte	0x324c
 10633 29e2 26       		.uleb128 0x26
 10634 29e3 98060000 		.4byte	.LVL496
 10635 29e7 65360000 		.4byte	0x3665
 10636 29eb 24       		.uleb128 0x24
 10637 29ec B0060000 		.4byte	.LVL500
 10638 29f0 4C320000 		.4byte	0x324c
 10639 29f4 022A0000 		.4byte	0x2a02
 10640 29f8 25       		.uleb128 0x25
 10641 29f9 01       		.uleb128 0x1
 10642 29fa 50       		.byte	0x50
 10643 29fb 05       		.uleb128 0x5
 10644 29fc 03       		.byte	0x3
 10645 29fd 4A040000 		.4byte	.LC201
 10646 2a01 00       		.byte	0
 10647 2a02 24       		.uleb128 0x24
 10648 2a03 DE060000 		.4byte	.LVL505
 10649 2a07 AE320000 		.4byte	0x32ae
 10650 2a0b 152A0000 		.4byte	0x2a15
 10651 2a0f 25       		.uleb128 0x25
 10652 2a10 01       		.uleb128 0x1
 10653 2a11 50       		.byte	0x50
 10654 2a12 01       		.uleb128 0x1
 10655 2a13 30       		.byte	0x30
 10656 2a14 00       		.byte	0
 10657 2a15 24       		.uleb128 0x24
 10658 2a16 FC060000 		.4byte	.LVL510
 10659 2a1a E9340000 		.4byte	0x34e9
 10660 2a1e 2C2A0000 		.4byte	0x2a2c
 10661 2a22 25       		.uleb128 0x25
 10662 2a23 01       		.uleb128 0x1
 10663 2a24 51       		.byte	0x51
 10664 2a25 05       		.uleb128 0x5
 10665 2a26 03       		.byte	0x3
 10666 2a27 00000000 		.4byte	writeRequestData
 10667 2a2b 00       		.byte	0
 10668 2a2c 24       		.uleb128 0x24
 10669 2a2d 24070000 		.4byte	.LVL514
 10670 2a31 AE320000 		.4byte	0x32ae
 10671 2a35 402A0000 		.4byte	0x2a40
 10672 2a39 25       		.uleb128 0x25
 10673 2a3a 01       		.uleb128 0x1
 10674 2a3b 50       		.byte	0x50
 10675 2a3c 02       		.uleb128 0x2
 10676 2a3d 74       		.byte	0x74
 10677 2a3e 00       		.sleb128 0
 10678 2a3f 00       		.byte	0
 10679 2a40 26       		.uleb128 0x26
 10680 2a41 2E070000 		.4byte	.LVL518
 10681 2a45 AE320000 		.4byte	0x32ae
 10682 2a49 26       		.uleb128 0x26
 10683 2a4a D0070000 		.4byte	.LVL527
 10684 2a4e F1310000 		.4byte	0x31f1
 10685 2a52 26       		.uleb128 0x26
 10686 2a53 E2070000 		.4byte	.LVL529
 10687 2a57 B9350000 		.4byte	0x35b9
 10688 2a5b 24       		.uleb128 0x24
ARM GAS  C:\Users\Helon\AppData\Local\Temp\ccKCxrf8.s 			page 257


 10689 2a5c 12080000 		.4byte	.LVL534
 10690 2a60 71360000 		.4byte	0x3671
 10691 2a64 6E2A0000 		.4byte	0x2a6e
 10692 2a68 25       		.uleb128 0x25
 10693 2a69 01       		.uleb128 0x1
 10694 2a6a 50       		.byte	0x50
 10695 2a6b 01       		.uleb128 0x1
 10696 2a6c 30       		.byte	0x30
 10697 2a6d 00       		.byte	0
 10698 2a6e 24       		.uleb128 0x24
 10699 2a6f 1E080000 		.4byte	.LVL537
 10700 2a73 AD310000 		.4byte	0x31ad
 10701 2a77 852A0000 		.4byte	0x2a85
 10702 2a7b 25       		.uleb128 0x25
 10703 2a7c 01       		.uleb128 0x1
 10704 2a7d 50       		.byte	0x50
 10705 2a7e 05       		.uleb128 0x5
 10706 2a7f 03       		.byte	0x3
 10707 2a80 4A010000 		.4byte	.LC67
 10708 2a84 00       		.byte	0
 10709 2a85 24       		.uleb128 0x24
 10710 2a86 2C080000 		.4byte	.LVL540
 10711 2a8a 71360000 		.4byte	0x3671
 10712 2a8e 982A0000 		.4byte	0x2a98
 10713 2a92 25       		.uleb128 0x25
 10714 2a93 01       		.uleb128 0x1
 10715 2a94 50       		.byte	0x50
 10716 2a95 01       		.uleb128 0x1
 10717 2a96 31       		.byte	0x31
 10718 2a97 00       		.byte	0
 10719 2a98 24       		.uleb128 0x24
 10720 2a99 38080000 		.4byte	.LVL542
 10721 2a9d AD310000 		.4byte	0x31ad
 10722 2aa1 AF2A0000 		.4byte	0x2aaf
 10723 2aa5 25       		.uleb128 0x25
 10724 2aa6 01       		.uleb128 0x1
 10725 2aa7 50       		.byte	0x50
 10726 2aa8 05       		.uleb128 0x5
 10727 2aa9 03       		.byte	0x3
 10728 2aaa 4A010000 		.4byte	.LC67
 10729 2aae 00       		.byte	0
 10730 2aaf 24       		.uleb128 0x24
 10731 2ab0 42080000 		.4byte	.LVL545
 10732 2ab4 71360000 		.4byte	0x3671
 10733 2ab8 C22A0000 		.4byte	0x2ac2
 10734 2abc 25       		.uleb128 0x25
 10735 2abd 01       		.uleb128 0x1
 10736 2abe 50       		.byte	0x50
 10737 2abf 01       		.uleb128 0x1
 10738 2ac0 32       		.byte	0x32
 10739 2ac1 00       		.byte	0
 10740 2ac2 24       		.uleb128 0x24
 10741 2ac3 4E080000 		.4byte	.LVL547
 10742 2ac7 AD310000 		.4byte	0x31ad
 10743 2acb D92A0000 		.4byte	0x2ad9
 10744 2acf 25       		.uleb128 0x25
 10745 2ad0 01       		.uleb128 0x1
ARM GAS  C:\Users\Helon\AppData\Local\Temp\ccKCxrf8.s 			page 258


 10746 2ad1 50       		.byte	0x50
 10747 2ad2 05       		.uleb128 0x5
 10748 2ad3 03       		.byte	0x3
 10749 2ad4 4A010000 		.4byte	.LC67
 10750 2ad8 00       		.byte	0
 10751 2ad9 24       		.uleb128 0x24
 10752 2ada 58080000 		.4byte	.LVL550
 10753 2ade 71360000 		.4byte	0x3671
 10754 2ae2 EC2A0000 		.4byte	0x2aec
 10755 2ae6 25       		.uleb128 0x25
 10756 2ae7 01       		.uleb128 0x1
 10757 2ae8 50       		.byte	0x50
 10758 2ae9 01       		.uleb128 0x1
 10759 2aea 33       		.byte	0x33
 10760 2aeb 00       		.byte	0
 10761 2aec 24       		.uleb128 0x24
 10762 2aed 64080000 		.4byte	.LVL552
 10763 2af1 AD310000 		.4byte	0x31ad
 10764 2af5 032B0000 		.4byte	0x2b03
 10765 2af9 25       		.uleb128 0x25
 10766 2afa 01       		.uleb128 0x1
 10767 2afb 50       		.byte	0x50
 10768 2afc 05       		.uleb128 0x5
 10769 2afd 03       		.byte	0x3
 10770 2afe 4A010000 		.4byte	.LC67
 10771 2b02 00       		.byte	0
 10772 2b03 24       		.uleb128 0x24
 10773 2b04 6E080000 		.4byte	.LVL555
 10774 2b08 71360000 		.4byte	0x3671
 10775 2b0c 162B0000 		.4byte	0x2b16
 10776 2b10 25       		.uleb128 0x25
 10777 2b11 01       		.uleb128 0x1
 10778 2b12 50       		.byte	0x50
 10779 2b13 01       		.uleb128 0x1
 10780 2b14 34       		.byte	0x34
 10781 2b15 00       		.byte	0
 10782 2b16 24       		.uleb128 0x24
 10783 2b17 7A080000 		.4byte	.LVL557
 10784 2b1b AD310000 		.4byte	0x31ad
 10785 2b1f 2D2B0000 		.4byte	0x2b2d
 10786 2b23 25       		.uleb128 0x25
 10787 2b24 01       		.uleb128 0x1
 10788 2b25 50       		.byte	0x50
 10789 2b26 05       		.uleb128 0x5
 10790 2b27 03       		.byte	0x3
 10791 2b28 4A010000 		.4byte	.LC67
 10792 2b2c 00       		.byte	0
 10793 2b2d 26       		.uleb128 0x26
 10794 2b2e D8080000 		.4byte	.LVL567
 10795 2b32 87360000 		.4byte	0x3687
 10796 2b36 24       		.uleb128 0x24
 10797 2b37 18090000 		.4byte	.LVL576
 10798 2b3b A2360000 		.4byte	0x36a2
 10799 2b3f 4A2B0000 		.4byte	0x2b4a
 10800 2b43 25       		.uleb128 0x25
 10801 2b44 01       		.uleb128 0x1
 10802 2b45 50       		.byte	0x50
ARM GAS  C:\Users\Helon\AppData\Local\Temp\ccKCxrf8.s 			page 259


 10803 2b46 02       		.uleb128 0x2
 10804 2b47 77       		.byte	0x77
 10805 2b48 00       		.sleb128 0
 10806 2b49 00       		.byte	0
 10807 2b4a 24       		.uleb128 0x24
 10808 2b4b 5A090000 		.4byte	.LVL577
 10809 2b4f BE360000 		.4byte	0x36be
 10810 2b53 5F2B0000 		.4byte	0x2b5f
 10811 2b57 25       		.uleb128 0x25
 10812 2b58 01       		.uleb128 0x1
 10813 2b59 50       		.byte	0x50
 10814 2b5a 03       		.uleb128 0x3
 10815 2b5b 75       		.byte	0x75
 10816 2b5c D000     		.sleb128 80
 10817 2b5e 00       		.byte	0
 10818 2b5f 24       		.uleb128 0x24
 10819 2b60 60090000 		.4byte	.LVL578
 10820 2b64 D4360000 		.4byte	0x36d4
 10821 2b68 722B0000 		.4byte	0x2b72
 10822 2b6c 25       		.uleb128 0x25
 10823 2b6d 01       		.uleb128 0x1
 10824 2b6e 50       		.byte	0x50
 10825 2b6f 01       		.uleb128 0x1
 10826 2b70 31       		.byte	0x31
 10827 2b71 00       		.byte	0
 10828 2b72 24       		.uleb128 0x24
 10829 2b73 6C090000 		.4byte	.LVL579
 10830 2b77 AD310000 		.4byte	0x31ad
 10831 2b7b 892B0000 		.4byte	0x2b89
 10832 2b7f 25       		.uleb128 0x25
 10833 2b80 01       		.uleb128 0x1
 10834 2b81 50       		.byte	0x50
 10835 2b82 05       		.uleb128 0x5
 10836 2b83 03       		.byte	0x3
 10837 2b84 F6040000 		.4byte	.LC239
 10838 2b88 00       		.byte	0
 10839 2b89 26       		.uleb128 0x26
 10840 2b8a 7A090000 		.4byte	.LVL582
 10841 2b8e AD310000 		.4byte	0x31ad
 10842 2b92 00       		.byte	0
 10843 2b93 10       		.uleb128 0x10
 10844 2b94 13010000 		.4byte	0x113
 10845 2b98 A32B0000 		.4byte	0x2ba3
 10846 2b9c 11       		.uleb128 0x11
 10847 2b9d 59010000 		.4byte	0x159
 10848 2ba1 1A       		.byte	0x1a
 10849 2ba2 00       		.byte	0
 10850 2ba3 10       		.uleb128 0x10
 10851 2ba4 1E010000 		.4byte	0x11e
 10852 2ba8 B32B0000 		.4byte	0x2bb3
 10853 2bac 11       		.uleb128 0x11
 10854 2bad 59010000 		.4byte	0x159
 10855 2bb1 1E       		.byte	0x1e
 10856 2bb2 00       		.byte	0
 10857 2bb3 10       		.uleb128 0x10
 10858 2bb4 1E010000 		.4byte	0x11e
 10859 2bb8 C32B0000 		.4byte	0x2bc3
ARM GAS  C:\Users\Helon\AppData\Local\Temp\ccKCxrf8.s 			page 260


 10860 2bbc 11       		.uleb128 0x11
 10861 2bbd 59010000 		.4byte	0x159
 10862 2bc1 3D       		.byte	0x3d
 10863 2bc2 00       		.byte	0
 10864 2bc3 10       		.uleb128 0x10
 10865 2bc4 1E010000 		.4byte	0x11e
 10866 2bc8 D32B0000 		.4byte	0x2bd3
 10867 2bcc 11       		.uleb128 0x11
 10868 2bcd 59010000 		.4byte	0x159
 10869 2bd1 01       		.byte	0x1
 10870 2bd2 00       		.byte	0
 10871 2bd3 10       		.uleb128 0x10
 10872 2bd4 E0000000 		.4byte	0xe0
 10873 2bd8 E32B0000 		.4byte	0x2be3
 10874 2bdc 11       		.uleb128 0x11
 10875 2bdd 59010000 		.4byte	0x159
 10876 2be1 00       		.byte	0
 10877 2be2 00       		.byte	0
 10878 2be3 3B       		.uleb128 0x3b
 10879 2be4 DE070000 		.4byte	.LASF639
 10880 2be8 01       		.byte	0x1
 10881 2be9 1708     		.2byte	0x817
 10882 2beb 00000000 		.4byte	.LFB48
 10883 2bef 98020000 		.4byte	.LFE48-.LFB48
 10884 2bf3 01       		.uleb128 0x1
 10885 2bf4 9C       		.byte	0x9c
 10886 2bf5 442E0000 		.4byte	0x2e44
 10887 2bf9 38       		.uleb128 0x38
 10888 2bfa 06200000 		.4byte	.LASF640
 10889 2bfe 01       		.byte	0x1
 10890 2bff 1708     		.2byte	0x817
 10891 2c01 B4000000 		.4byte	0xb4
 10892 2c05 1E160000 		.4byte	.LLST46
 10893 2c09 2C       		.uleb128 0x2c
 10894 2c0a 1E1E0000 		.4byte	.LASF641
 10895 2c0e 01       		.byte	0x1
 10896 2c0f 1908     		.2byte	0x819
 10897 2c11 B4000000 		.4byte	0xb4
 10898 2c15 3F160000 		.4byte	.LLST47
 10899 2c19 2C       		.uleb128 0x2c
 10900 2c1a 20450000 		.4byte	.LASF642
 10901 2c1e 01       		.byte	0x1
 10902 2c1f 1A08     		.2byte	0x81a
 10903 2c21 F6000000 		.4byte	0xf6
 10904 2c25 AA160000 		.4byte	.LLST48
 10905 2c29 39       		.uleb128 0x39
 10906 2c2a 706F7700 		.ascii	"pow\000"
 10907 2c2e 01       		.byte	0x1
 10908 2c2f 1B08     		.2byte	0x81b
 10909 2c31 F6000000 		.4byte	0xf6
 10910 2c35 D5160000 		.4byte	.LLST49
 10911 2c39 2C       		.uleb128 0x2c
 10912 2c3a DA1C0000 		.4byte	.LASF643
 10913 2c3e 01       		.byte	0x1
 10914 2c3f 1C08     		.2byte	0x81c
 10915 2c41 E0000000 		.4byte	0xe0
 10916 2c45 F8160000 		.4byte	.LLST50
ARM GAS  C:\Users\Helon\AppData\Local\Temp\ccKCxrf8.s 			page 261


 10917 2c49 3C       		.uleb128 0x3c
 10918 2c4a 572E0000 		.4byte	0x2e57
 10919 2c4e 2E170000 		.4byte	.LLST51
 10920 2c52 2C       		.uleb128 0x2c
 10921 2c53 E5220000 		.4byte	.LASF644
 10922 2c57 01       		.byte	0x1
 10923 2c58 1D08     		.2byte	0x81d
 10924 2c5a 442E0000 		.4byte	0x2e44
 10925 2c5e 4E170000 		.4byte	.LLST52
 10926 2c62 2C       		.uleb128 0x2c
 10927 2c63 683B0000 		.4byte	.LASF592
 10928 2c67 01       		.byte	0x1
 10929 2c68 1E08     		.2byte	0x81e
 10930 2c6a AF030000 		.4byte	0x3af
 10931 2c6e 88170000 		.4byte	.LLST53
 10932 2c72 2C       		.uleb128 0x2c
 10933 2c73 9F330000 		.4byte	.LASF645
 10934 2c77 01       		.byte	0x1
 10935 2c78 1F08     		.2byte	0x81f
 10936 2c7a CA000000 		.4byte	0xca
 10937 2c7e 02180000 		.4byte	.LLST54
 10938 2c82 35       		.uleb128 0x35
 10939 2c83 242C0000 		.4byte	.LASF646
 10940 2c87 01       		.byte	0x1
 10941 2c88 2008     		.2byte	0x820
 10942 2c8a EB000000 		.4byte	0xeb
 10943 2c8e 05       		.uleb128 0x5
 10944 2c8f 03       		.byte	0x3
 10945 2c90 88000000 		.4byte	uartIdleCount.7990
 10946 2c94 35       		.uleb128 0x35
 10947 2c95 7E2F0000 		.4byte	.LASF647
 10948 2c99 01       		.byte	0x1
 10949 2c9a 2208     		.2byte	0x822
 10950 2c9c ED090000 		.4byte	0x9ed
 10951 2ca0 02       		.uleb128 0x2
 10952 2ca1 91       		.byte	0x91
 10953 2ca2 5C       		.sleb128 -36
 10954 2ca3 26       		.uleb128 0x26
 10955 2ca4 22000000 		.4byte	.LVL586
 10956 2ca8 EA360000 		.4byte	0x36ea
 10957 2cac 26       		.uleb128 0x26
 10958 2cad 5A000000 		.4byte	.LVL588
 10959 2cb1 AE320000 		.4byte	0x32ae
 10960 2cb5 26       		.uleb128 0x26
 10961 2cb6 92000000 		.4byte	.LVL592
 10962 2cba F6360000 		.4byte	0x36f6
 10963 2cbe 24       		.uleb128 0x24
 10964 2cbf A6000000 		.4byte	.LVL595
 10965 2cc3 02370000 		.4byte	0x3702
 10966 2cc7 E12C0000 		.4byte	0x2ce1
 10967 2ccb 25       		.uleb128 0x25
 10968 2ccc 01       		.uleb128 0x1
 10969 2ccd 52       		.byte	0x52
 10970 2cce 01       		.uleb128 0x1
 10971 2ccf 3B       		.byte	0x3b
 10972 2cd0 25       		.uleb128 0x25
 10973 2cd1 01       		.uleb128 0x1
ARM GAS  C:\Users\Helon\AppData\Local\Temp\ccKCxrf8.s 			page 262


 10974 2cd2 51       		.byte	0x51
 10975 2cd3 03       		.uleb128 0x3
 10976 2cd4 77       		.byte	0x77
 10977 2cd5 38       		.sleb128 56
 10978 2cd6 06       		.byte	0x6
 10979 2cd7 25       		.uleb128 0x25
 10980 2cd8 01       		.uleb128 0x1
 10981 2cd9 50       		.byte	0x50
 10982 2cda 05       		.uleb128 0x5
 10983 2cdb 03       		.byte	0x3
 10984 2cdc 11050000 		.4byte	.LC254
 10985 2ce0 00       		.byte	0
 10986 2ce1 24       		.uleb128 0x24
 10987 2ce2 C8000000 		.4byte	.LVL596
 10988 2ce6 21370000 		.4byte	0x3721
 10989 2cea F82C0000 		.4byte	0x2cf8
 10990 2cee 25       		.uleb128 0x25
 10991 2cef 01       		.uleb128 0x1
 10992 2cf0 51       		.byte	0x51
 10993 2cf1 05       		.uleb128 0x5
 10994 2cf2 03       		.byte	0x3
 10995 2cf3 00000000 		.4byte	writeRequestData
 10996 2cf7 00       		.byte	0
 10997 2cf8 24       		.uleb128 0x24
 10998 2cf9 D8000000 		.4byte	.LVL598
 10999 2cfd AE320000 		.4byte	0x32ae
 11000 2d01 0C2D0000 		.4byte	0x2d0c
 11001 2d05 25       		.uleb128 0x25
 11002 2d06 01       		.uleb128 0x1
 11003 2d07 50       		.byte	0x50
 11004 2d08 02       		.uleb128 0x2
 11005 2d09 74       		.byte	0x74
 11006 2d0a 00       		.sleb128 0
 11007 2d0b 00       		.byte	0
 11008 2d0c 24       		.uleb128 0x24
 11009 2d0d E6000000 		.4byte	.LVL599
 11010 2d11 5D350000 		.4byte	0x355d
 11011 2d15 2C2D0000 		.4byte	0x2d2c
 11012 2d19 25       		.uleb128 0x25
 11013 2d1a 01       		.uleb128 0x1
 11014 2d1b 52       		.byte	0x52
 11015 2d1c 02       		.uleb128 0x2
 11016 2d1d 08       		.byte	0x8
 11017 2d1e 30       		.byte	0x30
 11018 2d1f 25       		.uleb128 0x25
 11019 2d20 01       		.uleb128 0x1
 11020 2d21 51       		.byte	0x51
 11021 2d22 02       		.uleb128 0x2
 11022 2d23 74       		.byte	0x74
 11023 2d24 00       		.sleb128 0
 11024 2d25 25       		.uleb128 0x25
 11025 2d26 01       		.uleb128 0x1
 11026 2d27 50       		.byte	0x50
 11027 2d28 02       		.uleb128 0x2
 11028 2d29 76       		.byte	0x76
 11029 2d2a 1E       		.sleb128 30
 11030 2d2b 00       		.byte	0
ARM GAS  C:\Users\Helon\AppData\Local\Temp\ccKCxrf8.s 			page 263


 11031 2d2c 24       		.uleb128 0x24
 11032 2d2d F4000000 		.4byte	.LVL601
 11033 2d31 02370000 		.4byte	0x3702
 11034 2d35 4F2D0000 		.4byte	0x2d4f
 11035 2d39 25       		.uleb128 0x25
 11036 2d3a 01       		.uleb128 0x1
 11037 2d3b 52       		.byte	0x52
 11038 2d3c 01       		.uleb128 0x1
 11039 2d3d 3B       		.byte	0x3b
 11040 2d3e 25       		.uleb128 0x25
 11041 2d3f 01       		.uleb128 0x1
 11042 2d40 51       		.byte	0x51
 11043 2d41 03       		.uleb128 0x3
 11044 2d42 77       		.byte	0x77
 11045 2d43 38       		.sleb128 56
 11046 2d44 06       		.byte	0x6
 11047 2d45 25       		.uleb128 0x25
 11048 2d46 01       		.uleb128 0x1
 11049 2d47 50       		.byte	0x50
 11050 2d48 05       		.uleb128 0x5
 11051 2d49 03       		.byte	0x3
 11052 2d4a 1D050000 		.4byte	.LC259
 11053 2d4e 00       		.byte	0
 11054 2d4f 24       		.uleb128 0x24
 11055 2d50 04010000 		.4byte	.LVL602
 11056 2d54 5D350000 		.4byte	0x355d
 11057 2d58 692D0000 		.4byte	0x2d69
 11058 2d5c 25       		.uleb128 0x25
 11059 2d5d 01       		.uleb128 0x1
 11060 2d5e 52       		.byte	0x52
 11061 2d5f 02       		.uleb128 0x2
 11062 2d60 08       		.byte	0x8
 11063 2d61 30       		.byte	0x30
 11064 2d62 25       		.uleb128 0x25
 11065 2d63 01       		.uleb128 0x1
 11066 2d64 50       		.byte	0x50
 11067 2d65 02       		.uleb128 0x2
 11068 2d66 76       		.byte	0x76
 11069 2d67 1E       		.sleb128 30
 11070 2d68 00       		.byte	0
 11071 2d69 24       		.uleb128 0x24
 11072 2d6a 34010000 		.4byte	.LVL604
 11073 2d6e C9340000 		.4byte	0x34c9
 11074 2d72 7E2D0000 		.4byte	0x2d7e
 11075 2d76 25       		.uleb128 0x25
 11076 2d77 01       		.uleb128 0x1
 11077 2d78 51       		.byte	0x51
 11078 2d79 03       		.uleb128 0x3
 11079 2d7a 77       		.byte	0x77
 11080 2d7b C400     		.sleb128 68
 11081 2d7d 00       		.byte	0
 11082 2d7e 26       		.uleb128 0x26
 11083 2d7f 3A010000 		.4byte	.LVL606
 11084 2d83 42370000 		.4byte	0x3742
 11085 2d87 24       		.uleb128 0x24
 11086 2d88 5E010000 		.4byte	.LVL608
 11087 2d8c AB1C0000 		.4byte	0x1cab
ARM GAS  C:\Users\Helon\AppData\Local\Temp\ccKCxrf8.s 			page 264


 11088 2d90 A42D0000 		.4byte	0x2da4
 11089 2d94 25       		.uleb128 0x25
 11090 2d95 01       		.uleb128 0x1
 11091 2d96 51       		.byte	0x51
 11092 2d97 04       		.uleb128 0x4
 11093 2d98 77       		.byte	0x77
 11094 2d99 3C       		.sleb128 60
 11095 2d9a 94       		.byte	0x94
 11096 2d9b 02       		.byte	0x2
 11097 2d9c 25       		.uleb128 0x25
 11098 2d9d 01       		.uleb128 0x1
 11099 2d9e 50       		.byte	0x50
 11100 2d9f 03       		.uleb128 0x3
 11101 2da0 77       		.byte	0x77
 11102 2da1 38       		.sleb128 56
 11103 2da2 06       		.byte	0x6
 11104 2da3 00       		.byte	0
 11105 2da4 26       		.uleb128 0x26
 11106 2da5 78010000 		.4byte	.LVL612
 11107 2da9 4A370000 		.4byte	0x374a
 11108 2dad 24       		.uleb128 0x24
 11109 2dae A4010000 		.4byte	.LVL619
 11110 2db2 AD310000 		.4byte	0x31ad
 11111 2db6 C42D0000 		.4byte	0x2dc4
 11112 2dba 25       		.uleb128 0x25
 11113 2dbb 01       		.uleb128 0x1
 11114 2dbc 50       		.byte	0x50
 11115 2dbd 05       		.uleb128 0x5
 11116 2dbe 03       		.byte	0x3
 11117 2dbf 29050000 		.4byte	.LC264
 11118 2dc3 00       		.byte	0
 11119 2dc4 24       		.uleb128 0x24
 11120 2dc5 B0010000 		.4byte	.LVL620
 11121 2dc9 56370000 		.4byte	0x3756
 11122 2dcd DD2D0000 		.4byte	0x2ddd
 11123 2dd1 25       		.uleb128 0x25
 11124 2dd2 01       		.uleb128 0x1
 11125 2dd3 52       		.byte	0x52
 11126 2dd4 01       		.uleb128 0x1
 11127 2dd5 31       		.byte	0x31
 11128 2dd6 25       		.uleb128 0x25
 11129 2dd7 01       		.uleb128 0x1
 11130 2dd8 51       		.byte	0x51
 11131 2dd9 02       		.uleb128 0x2
 11132 2dda 74       		.byte	0x74
 11133 2ddb 00       		.sleb128 0
 11134 2ddc 00       		.byte	0
 11135 2ddd 26       		.uleb128 0x26
 11136 2dde D4010000 		.4byte	.LVL629
 11137 2de2 F6360000 		.4byte	0x36f6
 11138 2de6 24       		.uleb128 0x24
 11139 2de7 F8010000 		.4byte	.LVL632
 11140 2deb 27230000 		.4byte	0x2327
 11141 2def FD2D0000 		.4byte	0x2dfd
 11142 2df3 25       		.uleb128 0x25
 11143 2df4 01       		.uleb128 0x1
 11144 2df5 50       		.byte	0x50
ARM GAS  C:\Users\Helon\AppData\Local\Temp\ccKCxrf8.s 			page 265


 11145 2df6 05       		.uleb128 0x5
 11146 2df7 03       		.byte	0x3
 11147 2df8 1E000000 		.4byte	.LANCHOR0+30
 11148 2dfc 00       		.byte	0
 11149 2dfd 24       		.uleb128 0x24
 11150 2dfe 04020000 		.4byte	.LVL633
 11151 2e02 5D350000 		.4byte	0x355d
 11152 2e06 202E0000 		.4byte	0x2e20
 11153 2e0a 25       		.uleb128 0x25
 11154 2e0b 01       		.uleb128 0x1
 11155 2e0c 52       		.byte	0x52
 11156 2e0d 02       		.uleb128 0x2
 11157 2e0e 08       		.byte	0x8
 11158 2e0f 30       		.byte	0x30
 11159 2e10 25       		.uleb128 0x25
 11160 2e11 01       		.uleb128 0x1
 11161 2e12 51       		.byte	0x51
 11162 2e13 02       		.uleb128 0x2
 11163 2e14 75       		.byte	0x75
 11164 2e15 00       		.sleb128 0
 11165 2e16 25       		.uleb128 0x25
 11166 2e17 01       		.uleb128 0x1
 11167 2e18 50       		.byte	0x50
 11168 2e19 05       		.uleb128 0x5
 11169 2e1a 03       		.byte	0x3
 11170 2e1b 1E000000 		.4byte	.LANCHOR0+30
 11171 2e1f 00       		.byte	0
 11172 2e20 24       		.uleb128 0x24
 11173 2e21 2E020000 		.4byte	.LVL635
 11174 2e25 5D350000 		.4byte	0x355d
 11175 2e29 3A2E0000 		.4byte	0x2e3a
 11176 2e2d 25       		.uleb128 0x25
 11177 2e2e 01       		.uleb128 0x1
 11178 2e2f 52       		.byte	0x52
 11179 2e30 02       		.uleb128 0x2
 11180 2e31 08       		.byte	0x8
 11181 2e32 30       		.byte	0x30
 11182 2e33 25       		.uleb128 0x25
 11183 2e34 01       		.uleb128 0x1
 11184 2e35 50       		.byte	0x50
 11185 2e36 02       		.uleb128 0x2
 11186 2e37 76       		.byte	0x76
 11187 2e38 1E       		.sleb128 30
 11188 2e39 00       		.byte	0
 11189 2e3a 26       		.uleb128 0x26
 11190 2e3b 34020000 		.4byte	.LVL637
 11191 2e3f AD310000 		.4byte	0x31ad
 11192 2e43 00       		.byte	0
 11193 2e44 10       		.uleb128 0x10
 11194 2e45 E0000000 		.4byte	0xe0
 11195 2e49 572E0000 		.4byte	0x2e57
 11196 2e4d 3D       		.uleb128 0x3d
 11197 2e4e 59010000 		.4byte	0x159
 11198 2e52 492C0000 		.4byte	0x2c49
 11199 2e56 00       		.byte	0
 11200 2e57 0A       		.uleb128 0xa
 11201 2e58 59010000 		.4byte	0x159
ARM GAS  C:\Users\Helon\AppData\Local\Temp\ccKCxrf8.s 			page 266


 11202 2e5c 3E       		.uleb128 0x3e
 11203 2e5d D3010000 		.4byte	.LASF765
 11204 2e61 01       		.byte	0x1
 11205 2e62 160B     		.2byte	0xb16
 11206 2e64 2C000000 		.4byte	0x2c
 11207 2e68 00000000 		.4byte	.LFB53
 11208 2e6c 1C000000 		.4byte	.LFE53-.LFB53
 11209 2e70 01       		.uleb128 0x1
 11210 2e71 9C       		.byte	0x9c
 11211 2e72 BE2E0000 		.4byte	0x2ebe
 11212 2e76 38       		.uleb128 0x38
 11213 2e77 09190000 		.4byte	.LASF648
 11214 2e7b 01       		.byte	0x1
 11215 2e7c 160B     		.2byte	0xb16
 11216 2e7e 2C000000 		.4byte	0x2c
 11217 2e82 22180000 		.4byte	.LLST55
 11218 2e86 33       		.uleb128 0x33
 11219 2e87 70747200 		.ascii	"ptr\000"
 11220 2e8b 01       		.byte	0x1
 11221 2e8c 160B     		.2byte	0xb16
 11222 2e8e 62010000 		.4byte	0x162
 11223 2e92 43180000 		.4byte	.LLST56
 11224 2e96 33       		.uleb128 0x33
 11225 2e97 6C656E00 		.ascii	"len\000"
 11226 2e9b 01       		.byte	0x1
 11227 2e9c 160B     		.2byte	0xb16
 11228 2e9e 2C000000 		.4byte	0x2c
 11229 2ea2 79180000 		.4byte	.LLST57
 11230 2ea6 39       		.uleb128 0x39
 11231 2ea7 6900     		.ascii	"i\000"
 11232 2ea9 01       		.byte	0x1
 11233 2eaa 180B     		.2byte	0xb18
 11234 2eac 2C000000 		.4byte	0x2c
 11235 2eb0 A2180000 		.4byte	.LLST58
 11236 2eb4 26       		.uleb128 0x26
 11237 2eb5 14000000 		.4byte	.LVL643
 11238 2eb9 DD320000 		.4byte	0x32dd
 11239 2ebd 00       		.byte	0
 11240 2ebe 3F       		.uleb128 0x3f
 11241 2ebf 08390000 		.4byte	.LASF649
 11242 2ec3 11       		.byte	0x11
 11243 2ec4 2D       		.byte	0x2d
 11244 2ec5 68010000 		.4byte	0x168
 11245 2ec9 40       		.uleb128 0x40
 11246 2eca 10020000 		.4byte	.LASF650
 11247 2ece 0C       		.byte	0xc
 11248 2ecf D601     		.2byte	0x1d6
 11249 2ed1 73060000 		.4byte	0x673
 11250 2ed5 40       		.uleb128 0x40
 11251 2ed6 CA3D0000 		.4byte	.LASF651
 11252 2eda 0C       		.byte	0xc
 11253 2edb EA01     		.2byte	0x1ea
 11254 2edd 0A080000 		.4byte	0x80a
 11255 2ee1 40       		.uleb128 0x40
 11256 2ee2 14280000 		.4byte	.LASF652
 11257 2ee6 0D       		.byte	0xd
 11258 2ee7 2C09     		.2byte	0x92c
ARM GAS  C:\Users\Helon\AppData\Local\Temp\ccKCxrf8.s 			page 267


 11259 2ee9 2B120000 		.4byte	0x122b
 11260 2eed 40       		.uleb128 0x40
 11261 2eee C83A0000 		.4byte	.LASF653
 11262 2ef2 0D       		.byte	0xd
 11263 2ef3 2D09     		.2byte	0x92d
 11264 2ef5 44090000 		.4byte	0x944
 11265 2ef9 40       		.uleb128 0x40
 11266 2efa 5A400000 		.4byte	.LASF654
 11267 2efe 0D       		.byte	0xd
 11268 2eff 2E09     		.2byte	0x92e
 11269 2f01 25010000 		.4byte	0x125
 11270 2f05 3F       		.uleb128 0x3f
 11271 2f06 95310000 		.4byte	.LASF655
 11272 2f0a 01       		.byte	0x1
 11273 2f0b 16       		.byte	0x16
 11274 2f0c B4000000 		.4byte	0xb4
 11275 2f10 10       		.uleb128 0x10
 11276 2f11 39150000 		.4byte	0x1539
 11277 2f15 202F0000 		.4byte	0x2f20
 11278 2f19 11       		.uleb128 0x11
 11279 2f1a 59010000 		.4byte	0x159
 11280 2f1e 09       		.byte	0x9
 11281 2f1f 00       		.byte	0
 11282 2f20 3F       		.uleb128 0x3f
 11283 2f21 4C470000 		.4byte	.LASF656
 11284 2f25 01       		.byte	0x1
 11285 2f26 17       		.byte	0x17
 11286 2f27 102F0000 		.4byte	0x2f10
 11287 2f2b 41       		.uleb128 0x41
 11288 2f2c 44390000 		.4byte	.LASF657
 11289 2f30 01       		.byte	0x1
 11290 2f31 1C       		.byte	0x1c
 11291 2f32 D4130000 		.4byte	0x13d4
 11292 2f36 05       		.uleb128 0x5
 11293 2f37 03       		.byte	0x3
 11294 2f38 00000000 		.4byte	configUart
 11295 2f3c 41       		.uleb128 0x41
 11296 2f3d 4A300000 		.4byte	.LASF658
 11297 2f41 01       		.byte	0x1
 11298 2f42 1D       		.byte	0x1d
 11299 2f43 B4000000 		.4byte	0xb4
 11300 2f47 05       		.uleb128 0x5
 11301 2f48 03       		.byte	0x3
 11302 2f49 00000000 		.4byte	LowPower_EN
 11303 2f4d 10       		.uleb128 0x10
 11304 2f4e B4000000 		.4byte	0xb4
 11305 2f52 5D2F0000 		.4byte	0x2f5d
 11306 2f56 11       		.uleb128 0x11
 11307 2f57 59010000 		.4byte	0x159
 11308 2f5b 2F       		.byte	0x2f
 11309 2f5c 00       		.byte	0
 11310 2f5d 41       		.uleb128 0x41
 11311 2f5e F4340000 		.4byte	.LASF659
 11312 2f62 01       		.byte	0x1
 11313 2f63 1E       		.byte	0x1e
 11314 2f64 4D2F0000 		.4byte	0x2f4d
 11315 2f68 05       		.uleb128 0x5
ARM GAS  C:\Users\Helon\AppData\Local\Temp\ccKCxrf8.s 			page 268


 11316 2f69 03       		.byte	0x3
 11317 2f6a 00000000 		.4byte	RX_BUFFER
 11318 2f6e 41       		.uleb128 0x41
 11319 2f6f D7180000 		.4byte	.LASF660
 11320 2f73 01       		.byte	0x1
 11321 2f74 1F       		.byte	0x1f
 11322 2f75 B4000000 		.4byte	0xb4
 11323 2f79 05       		.uleb128 0x5
 11324 2f7a 03       		.byte	0x3
 11325 2f7b 00000000 		.4byte	Buffer_Length
 11326 2f7f 41       		.uleb128 0x41
 11327 2f80 E70C0000 		.4byte	.LASF661
 11328 2f84 01       		.byte	0x1
 11329 2f85 20       		.byte	0x20
 11330 2f86 B4000000 		.4byte	0xb4
 11331 2f8a 05       		.uleb128 0x5
 11332 2f8b 03       		.byte	0x3
 11333 2f8c 00000000 		.4byte	rx_isover
 11334 2f90 41       		.uleb128 0x41
 11335 2f91 26000000 		.4byte	.LASF662
 11336 2f95 01       		.byte	0x1
 11337 2f96 21       		.byte	0x21
 11338 2f97 B4000000 		.4byte	0xb4
 11339 2f9b 05       		.uleb128 0x5
 11340 2f9c 03       		.byte	0x3
 11341 2f9d 00000000 		.4byte	RxFlag
 11342 2fa1 41       		.uleb128 0x41
 11343 2fa2 C6360000 		.4byte	.LASF663
 11344 2fa6 01       		.byte	0x1
 11345 2fa7 23       		.byte	0x23
 11346 2fa8 D9140000 		.4byte	0x14d9
 11347 2fac 05       		.uleb128 0x5
 11348 2fad 03       		.byte	0x3
 11349 2fae 00000000 		.4byte	Conn_Or_Disconn_Info
 11350 2fb2 41       		.uleb128 0x41
 11351 2fb3 54330000 		.4byte	.LASF664
 11352 2fb7 01       		.byte	0x1
 11353 2fb8 24       		.byte	0x24
 11354 2fb9 B4000000 		.4byte	0xb4
 11355 2fbd 05       		.uleb128 0x5
 11356 2fbe 03       		.byte	0x3
 11357 2fbf 00000000 		.4byte	Conn_or_Disconn_Idx
 11358 2fc3 41       		.uleb128 0x41
 11359 2fc4 ED160000 		.4byte	.LASF665
 11360 2fc8 01       		.byte	0x1
 11361 2fc9 27       		.byte	0x27
 11362 2fca B4000000 		.4byte	0xb4
 11363 2fce 05       		.uleb128 0x5
 11364 2fcf 03       		.byte	0x3
 11365 2fd0 00000000 		.4byte	MTU_REQ_FLAG
 11366 2fd4 41       		.uleb128 0x41
 11367 2fd5 D02C0000 		.4byte	.LASF666
 11368 2fd9 01       		.byte	0x1
 11369 2fda 28       		.byte	0x28
 11370 2fdb B4000000 		.4byte	0xb4
 11371 2fdf 05       		.uleb128 0x5
 11372 2fe0 03       		.byte	0x3
ARM GAS  C:\Users\Helon\AppData\Local\Temp\ccKCxrf8.s 			page 269


 11373 2fe1 00000000 		.4byte	TroughtTest_Flag
 11374 2fe5 41       		.uleb128 0x41
 11375 2fe6 D4430000 		.4byte	.LASF667
 11376 2fea 01       		.byte	0x1
 11377 2feb 29       		.byte	0x29
 11378 2fec B4000000 		.4byte	0xb4
 11379 2ff0 05       		.uleb128 0x5
 11380 2ff1 03       		.byte	0x3
 11381 2ff2 00000000 		.4byte	charNotificationEnabled
 11382 2ff6 41       		.uleb128 0x41
 11383 2ff7 8D1A0000 		.4byte	.LASF668
 11384 2ffb 01       		.byte	0x1
 11385 2ffc 2A       		.byte	0x2a
 11386 2ffd F6000000 		.4byte	0xf6
 11387 3001 05       		.uleb128 0x5
 11388 3002 03       		.byte	0x3
 11389 3003 00000000 		.4byte	totalByteCounter
 11390 3007 41       		.uleb128 0x41
 11391 3008 06200000 		.4byte	.LASF640
 11392 300c 01       		.byte	0x1
 11393 300d 2B       		.byte	0x2b
 11394 300e B4000000 		.4byte	0xb4
 11395 3012 05       		.uleb128 0x5
 11396 3013 03       		.byte	0x3
 11397 3014 00000000 		.4byte	Role
 11398 3018 10       		.uleb128 0x10
 11399 3019 E0000000 		.4byte	0xe0
 11400 301d 28300000 		.4byte	0x3028
 11401 3021 11       		.uleb128 0x11
 11402 3022 59010000 		.4byte	0x159
 11403 3026 13       		.byte	0x13
 11404 3027 00       		.byte	0
 11405 3028 41       		.uleb128 0x41
 11406 3029 BD1A0000 		.4byte	.LASF669
 11407 302d 01       		.byte	0x1
 11408 302e 2C       		.byte	0x2c
 11409 302f 18300000 		.4byte	0x3018
 11410 3033 05       		.uleb128 0x5
 11411 3034 03       		.byte	0x3
 11412 3035 00000000 		.4byte	buffer
 11413 3039 41       		.uleb128 0x41
 11414 303a 130C0000 		.4byte	.LASF670
 11415 303e 01       		.byte	0x1
 11416 303f 2D       		.byte	0x2d
 11417 3040 EB000000 		.4byte	0xeb
 11418 3044 05       		.uleb128 0x5
 11419 3045 03       		.byte	0x3
 11420 3046 00000000 		.4byte	negotiatedMtu
 11421 304a 41       		.uleb128 0x41
 11422 304b 77330000 		.4byte	.LASF671
 11423 304f 01       		.byte	0x1
 11424 3050 2E       		.byte	0x2e
 11425 3051 B4000000 		.4byte	0xb4
 11426 3055 05       		.uleb128 0x5
 11427 3056 03       		.byte	0x3
 11428 3057 00000000 		.4byte	CommandMode
 11429 305b 41       		.uleb128 0x41
ARM GAS  C:\Users\Helon\AppData\Local\Temp\ccKCxrf8.s 			page 270


 11430 305c 52220000 		.4byte	.LASF672
 11431 3060 01       		.byte	0x1
 11432 3061 2F       		.byte	0x2f
 11433 3062 F6000000 		.4byte	0xf6
 11434 3066 05       		.uleb128 0x5
 11435 3067 03       		.byte	0x3
 11436 3068 00000000 		.4byte	testCount
 11437 306c 41       		.uleb128 0x41
 11438 306d 783A0000 		.4byte	.LASF673
 11439 3071 01       		.byte	0x1
 11440 3072 30       		.byte	0x30
 11441 3073 B4000000 		.4byte	0xb4
 11442 3077 05       		.uleb128 0x5
 11443 3078 03       		.byte	0x3
 11444 3079 00000000 		.4byte	iocapability
 11445 307d 41       		.uleb128 0x41
 11446 307e B72B0000 		.4byte	.LASF674
 11447 3082 01       		.byte	0x1
 11448 3083 31       		.byte	0x31
 11449 3084 08090000 		.4byte	0x908
 11450 3088 05       		.uleb128 0x5
 11451 3089 03       		.byte	0x3
 11452 308a 00000000 		.4byte	ConnParam
 11453 308e 41       		.uleb128 0x41
 11454 308f 79050000 		.4byte	.LASF675
 11455 3093 01       		.byte	0x1
 11456 3094 32       		.byte	0x32
 11457 3095 B4000000 		.4byte	0xb4
 11458 3099 05       		.uleb128 0x5
 11459 309a 03       		.byte	0x3
 11460 309b 00000000 		.4byte	KEYBOARD
 11461 309f 41       		.uleb128 0x41
 11462 30a0 7C290000 		.4byte	.LASF676
 11463 30a4 01       		.byte	0x1
 11464 30a5 33       		.byte	0x33
 11465 30a6 B4000000 		.4byte	0xb4
 11466 30aa 05       		.uleb128 0x5
 11467 30ab 03       		.byte	0x3
 11468 30ac 00000000 		.4byte	AUTHFLAG
 11469 30b0 41       		.uleb128 0x41
 11470 30b1 C61C0000 		.4byte	.LASF677
 11471 30b5 01       		.byte	0x1
 11472 30b6 34       		.byte	0x34
 11473 30b7 B4000000 		.4byte	0xb4
 11474 30bb 05       		.uleb128 0x5
 11475 30bc 03       		.byte	0x3
 11476 30bd 00000000 		.4byte	SleepMode
 11477 30c1 41       		.uleb128 0x41
 11478 30c2 4F1F0000 		.4byte	.LASF678
 11479 30c6 01       		.byte	0x1
 11480 30c7 35       		.byte	0x35
 11481 30c8 B4000000 		.4byte	0xb4
 11482 30cc 05       		.uleb128 0x5
 11483 30cd 03       		.byte	0x3
 11484 30ce 00000000 		.4byte	Bond
 11485 30d2 41       		.uleb128 0x41
 11486 30d3 58180000 		.4byte	.LASF679
ARM GAS  C:\Users\Helon\AppData\Local\Temp\ccKCxrf8.s 			page 271


 11487 30d7 01       		.byte	0x1
 11488 30d8 38       		.byte	0x38
 11489 30d9 0F050000 		.4byte	0x50f
 11490 30dd 05       		.uleb128 0x5
 11491 30de 03       		.byte	0x3
 11492 30df 00000000 		.4byte	clearAllDevices
 11493 30e3 41       		.uleb128 0x41
 11494 30e4 4D2C0000 		.4byte	.LASF579
 11495 30e8 01       		.byte	0x1
 11496 30e9 41       		.byte	0x41
 11497 30ea 0F050000 		.4byte	0x50f
 11498 30ee 05       		.uleb128 0x5
 11499 30ef 03       		.byte	0x3
 11500 30f0 00000000 		.4byte	DeviceAddr
 11501 30f4 41       		.uleb128 0x41
 11502 30f5 CD0D0000 		.4byte	.LASF680
 11503 30f9 01       		.byte	0x1
 11504 30fa 42       		.byte	0x42
 11505 30fb B4000000 		.4byte	0xb4
 11506 30ff 05       		.uleb128 0x5
 11507 3100 03       		.byte	0x3
 11508 3101 00000000 		.4byte	_10sIsOver
 11509 3105 10       		.uleb128 0x10
 11510 3106 E0000000 		.4byte	0xe0
 11511 310a 15310000 		.4byte	0x3115
 11512 310e 11       		.uleb128 0x11
 11513 310f 59010000 		.4byte	0x159
 11514 3113 01       		.byte	0x1
 11515 3114 00       		.byte	0
 11516 3115 41       		.uleb128 0x41
 11517 3116 2E130000 		.4byte	.LASF681
 11518 311a 01       		.byte	0x1
 11519 311b 43       		.byte	0x43
 11520 311c 05310000 		.4byte	0x3105
 11521 3120 05       		.uleb128 0x5
 11522 3121 03       		.byte	0x3
 11523 3122 00000000 		.4byte	cccdNotifEnabledValue
 11524 3126 41       		.uleb128 0x41
 11525 3127 210C0000 		.4byte	.LASF682
 11526 312b 01       		.byte	0x1
 11527 312c 44       		.byte	0x44
 11528 312d 81090000 		.4byte	0x981
 11529 3131 05       		.uleb128 0x5
 11530 3132 03       		.byte	0x3
 11531 3133 00000000 		.4byte	cccdNotifFlagSetStruct
 11532 3137 41       		.uleb128 0x41
 11533 3138 D30F0000 		.4byte	.LASF683
 11534 313c 01       		.byte	0x1
 11535 313d 4B       		.byte	0x4b
 11536 313e BE080000 		.4byte	0x8be
 11537 3142 05       		.uleb128 0x5
 11538 3143 03       		.byte	0x3
 11539 3144 00000000 		.4byte	connParam
 11540 3148 41       		.uleb128 0x41
 11541 3149 ED120000 		.4byte	.LASF614
 11542 314d 01       		.byte	0x1
 11543 314e 51       		.byte	0x51
ARM GAS  C:\Users\Helon\AppData\Local\Temp\ccKCxrf8.s 			page 272


 11544 314f 450A0000 		.4byte	0xa45
 11545 3153 05       		.uleb128 0x5
 11546 3154 03       		.byte	0x3
 11547 3155 00000000 		.4byte	writeRequestData
 11548 3159 41       		.uleb128 0x41
 11549 315a 413E0000 		.4byte	.LASF684
 11550 315e 01       		.byte	0x1
 11551 315f 52       		.byte	0x52
 11552 3160 2F0A0000 		.4byte	0xa2f
 11553 3164 05       		.uleb128 0x5
 11554 3165 03       		.byte	0x3
 11555 3166 00000000 		.4byte	readRequestData
 11556 316a 10       		.uleb128 0x10
 11557 316b 62010000 		.4byte	0x162
 11558 316f 7A310000 		.4byte	0x317a
 11559 3173 11       		.uleb128 0x11
 11560 3174 59010000 		.4byte	0x159
 11561 3178 1B       		.byte	0x1b
 11562 3179 00       		.byte	0
 11563 317a 41       		.uleb128 0x41
 11564 317b DA330000 		.4byte	.LASF685
 11565 317f 01       		.byte	0x1
 11566 3180 54       		.byte	0x54
 11567 3181 6A310000 		.4byte	0x316a
 11568 3185 05       		.uleb128 0x5
 11569 3186 03       		.byte	0x3
 11570 3187 00000000 		.4byte	StringArry
 11571 318b 41       		.uleb128 0x41
 11572 318c 24320000 		.4byte	.LASF686
 11573 3190 01       		.byte	0x1
 11574 3191 5B       		.byte	0x5b
 11575 3192 B4000000 		.4byte	0xb4
 11576 3196 05       		.uleb128 0x5
 11577 3197 03       		.byte	0x3
 11578 3198 00000000 		.4byte	STOP_SCAN_FLAG
 11579 319c 41       		.uleb128 0x41
 11580 319d F11A0000 		.4byte	.LASF687
 11581 31a1 01       		.byte	0x1
 11582 31a2 5C       		.byte	0x5c
 11583 31a3 B4000000 		.4byte	0xb4
 11584 31a7 05       		.uleb128 0x5
 11585 31a8 03       		.byte	0x3
 11586 31a9 00000000 		.4byte	Baud_rate_idx
 11587 31ad 42       		.uleb128 0x42
 11588 31ae E82F0000 		.4byte	.LASF766
 11589 31b2 22       		.byte	0x22
 11590 31b3 00       		.byte	0
 11591 31b4 50060000 		.4byte	.LASF767
 11592 31b8 2C000000 		.4byte	0x2c
 11593 31bc C6310000 		.4byte	0x31c6
 11594 31c0 16       		.uleb128 0x16
 11595 31c1 68010000 		.4byte	0x168
 11596 31c5 00       		.byte	0
 11597 31c6 43       		.uleb128 0x43
 11598 31c7 4F0E0000 		.4byte	.LASF708
 11599 31cb 0E       		.byte	0xe
 11600 31cc 8E01     		.2byte	0x18e
ARM GAS  C:\Users\Helon\AppData\Local\Temp\ccKCxrf8.s 			page 273


 11601 31ce F6000000 		.4byte	0xf6
 11602 31d2 44       		.uleb128 0x44
 11603 31d3 0F0B0000 		.4byte	.LASF688
 11604 31d7 10       		.byte	0x10
 11605 31d8 1F       		.byte	0x1f
 11606 31d9 E3310000 		.4byte	0x31e3
 11607 31dd 16       		.uleb128 0x16
 11608 31de E3310000 		.4byte	0x31e3
 11609 31e2 00       		.byte	0
 11610 31e3 07       		.uleb128 0x7
 11611 31e4 04       		.byte	0x4
 11612 31e5 74080000 		.4byte	0x874
 11613 31e9 45       		.uleb128 0x45
 11614 31ea CA090000 		.4byte	.LASF698
 11615 31ee 0C       		.byte	0xc
 11616 31ef BE01     		.2byte	0x1be
 11617 31f1 46       		.uleb128 0x46
 11618 31f2 7F120000 		.4byte	.LASF690
 11619 31f6 0C       		.byte	0xc
 11620 31f7 B001     		.2byte	0x1b0
 11621 31f9 AF030000 		.4byte	0x3af
 11622 31fd 07320000 		.4byte	0x3207
 11623 3201 16       		.uleb128 0x16
 11624 3202 E0000000 		.4byte	0xe0
 11625 3206 00       		.byte	0
 11626 3207 47       		.uleb128 0x47
 11627 3208 AF3F0000 		.4byte	.LASF691
 11628 320c 60010000 		.4byte	0x160
 11629 3210 24320000 		.4byte	0x3224
 11630 3214 16       		.uleb128 0x16
 11631 3215 60010000 		.4byte	0x160
 11632 3219 16       		.uleb128 0x16
 11633 321a 24320000 		.4byte	0x3224
 11634 321e 16       		.uleb128 0x16
 11635 321f 59010000 		.4byte	0x159
 11636 3223 00       		.byte	0
 11637 3224 07       		.uleb128 0x7
 11638 3225 04       		.byte	0x4
 11639 3226 2A320000 		.4byte	0x322a
 11640 322a 48       		.uleb128 0x48
 11641 322b 46       		.uleb128 0x46
 11642 322c A10F0000 		.4byte	.LASF692
 11643 3230 12       		.byte	0x12
 11644 3231 8302     		.2byte	0x283
 11645 3233 AF030000 		.4byte	0x3af
 11646 3237 46320000 		.4byte	0x3246
 11647 323b 16       		.uleb128 0x16
 11648 323c E0000000 		.4byte	0xe0
 11649 3240 16       		.uleb128 0x16
 11650 3241 46320000 		.4byte	0x3246
 11651 3245 00       		.byte	0
 11652 3246 07       		.uleb128 0x7
 11653 3247 04       		.byte	0x4
 11654 3248 BE080000 		.4byte	0x8be
 11655 324c 49       		.uleb128 0x49
 11656 324d 7D1A0000 		.4byte	.LASF693
 11657 3251 13       		.byte	0x13
ARM GAS  C:\Users\Helon\AppData\Local\Temp\ccKCxrf8.s 			page 274


 11658 3252 B2       		.byte	0xb2
 11659 3253 2C000000 		.4byte	0x2c
 11660 3257 62320000 		.4byte	0x3262
 11661 325b 16       		.uleb128 0x16
 11662 325c 68010000 		.4byte	0x168
 11663 3260 4A       		.uleb128 0x4a
 11664 3261 00       		.byte	0
 11665 3262 46       		.uleb128 0x46
 11666 3263 FE340000 		.4byte	.LASF694
 11667 3267 08       		.byte	0x8
 11668 3268 1307     		.2byte	0x713
 11669 326a AF030000 		.4byte	0x3af
 11670 326e 7D320000 		.4byte	0x327d
 11671 3272 16       		.uleb128 0x16
 11672 3273 E0000000 		.4byte	0xe0
 11673 3277 16       		.uleb128 0x16
 11674 3278 46320000 		.4byte	0x3246
 11675 327c 00       		.byte	0
 11676 327d 46       		.uleb128 0x46
 11677 327e CB220000 		.4byte	.LASF695
 11678 3282 0B       		.byte	0xb
 11679 3283 5601     		.2byte	0x156
 11680 3285 AF030000 		.4byte	0x3af
 11681 3289 98320000 		.4byte	0x3298
 11682 328d 16       		.uleb128 0x16
 11683 328e 44090000 		.4byte	0x944
 11684 3292 16       		.uleb128 0x16
 11685 3293 EB000000 		.4byte	0xeb
 11686 3297 00       		.byte	0
 11687 3298 46       		.uleb128 0x46
 11688 3299 DB310000 		.4byte	.LASF696
 11689 329d 0C       		.byte	0xc
 11690 329e BD01     		.2byte	0x1bd
 11691 32a0 AF030000 		.4byte	0x3af
 11692 32a4 AE320000 		.4byte	0x32ae
 11693 32a8 16       		.uleb128 0x16
 11694 32a9 E0000000 		.4byte	0xe0
 11695 32ad 00       		.byte	0
 11696 32ae 44       		.uleb128 0x44
 11697 32af C6420000 		.4byte	.LASF697
 11698 32b3 14       		.byte	0x14
 11699 32b4 1D       		.byte	0x1d
 11700 32b5 BF320000 		.4byte	0x32bf
 11701 32b9 16       		.uleb128 0x16
 11702 32ba E0000000 		.4byte	0xe0
 11703 32be 00       		.byte	0
 11704 32bf 4B       		.uleb128 0x4b
 11705 32c0 66260000 		.4byte	.LASF699
 11706 32c4 15       		.byte	0x15
 11707 32c5 69       		.byte	0x69
 11708 32c6 45       		.uleb128 0x45
 11709 32c7 59320000 		.4byte	.LASF700
 11710 32cb 0E       		.byte	0xe
 11711 32cc 8F01     		.2byte	0x18f
 11712 32ce 45       		.uleb128 0x45
 11713 32cf 62100000 		.4byte	.LASF701
 11714 32d3 0E       		.byte	0xe
ARM GAS  C:\Users\Helon\AppData\Local\Temp\ccKCxrf8.s 			page 275


 11715 32d4 8701     		.2byte	0x187
 11716 32d6 4B       		.uleb128 0x4b
 11717 32d7 08120000 		.4byte	.LASF702
 11718 32db 15       		.byte	0x15
 11719 32dc 68       		.byte	0x68
 11720 32dd 4C       		.uleb128 0x4c
 11721 32de E5330000 		.4byte	.LASF703
 11722 32e2 0E       		.byte	0xe
 11723 32e3 8C01     		.2byte	0x18c
 11724 32e5 EF320000 		.4byte	0x32ef
 11725 32e9 16       		.uleb128 0x16
 11726 32ea F6000000 		.4byte	0xf6
 11727 32ee 00       		.byte	0
 11728 32ef 46       		.uleb128 0x46
 11729 32f0 0D230000 		.4byte	.LASF704
 11730 32f4 08       		.byte	0x8
 11731 32f5 3F06     		.2byte	0x63f
 11732 32f7 AF030000 		.4byte	0x3af
 11733 32fb 0A330000 		.4byte	0x330a
 11734 32ff 16       		.uleb128 0x16
 11735 3300 E0000000 		.4byte	0xe0
 11736 3304 16       		.uleb128 0x16
 11737 3305 0A330000 		.4byte	0x330a
 11738 3309 00       		.byte	0
 11739 330a 07       		.uleb128 0x7
 11740 330b 04       		.byte	0x4
 11741 330c 73060000 		.4byte	0x673
 11742 3310 45       		.uleb128 0x45
 11743 3311 3C240000 		.4byte	.LASF705
 11744 3315 16       		.byte	0x16
 11745 3316 3201     		.2byte	0x132
 11746 3318 4C       		.uleb128 0x4c
 11747 3319 DE290000 		.4byte	.LASF706
 11748 331d 16       		.byte	0x16
 11749 331e 4601     		.2byte	0x146
 11750 3320 2A330000 		.4byte	0x332a
 11751 3324 16       		.uleb128 0x16
 11752 3325 F6000000 		.4byte	0xf6
 11753 3329 00       		.byte	0
 11754 332a 46       		.uleb128 0x46
 11755 332b 68330000 		.4byte	.LASF707
 11756 332f 06       		.byte	0x6
 11757 3330 6B04     		.2byte	0x46b
 11758 3332 E4030000 		.4byte	0x3e4
 11759 3336 40330000 		.4byte	0x3340
 11760 333a 16       		.uleb128 0x16
 11761 333b E4030000 		.4byte	0x3e4
 11762 333f 00       		.byte	0
 11763 3340 43       		.uleb128 0x43
 11764 3341 44030000 		.4byte	.LASF709
 11765 3345 06       		.byte	0x6
 11766 3346 B906     		.2byte	0x6b9
 11767 3348 2B040000 		.4byte	0x42b
 11768 334c 44       		.uleb128 0x44
 11769 334d 4F210000 		.4byte	.LASF710
 11770 3351 17       		.byte	0x17
 11771 3352 1D       		.byte	0x1d
ARM GAS  C:\Users\Helon\AppData\Local\Temp\ccKCxrf8.s 			page 276


 11772 3353 5D330000 		.4byte	0x335d
 11773 3357 16       		.uleb128 0x16
 11774 3358 E0000000 		.4byte	0xe0
 11775 335c 00       		.byte	0
 11776 335d 4B       		.uleb128 0x4b
 11777 335e D40E0000 		.4byte	.LASF711
 11778 3362 15       		.byte	0x15
 11779 3363 6C       		.byte	0x6c
 11780 3364 4B       		.uleb128 0x4b
 11781 3365 4F390000 		.4byte	.LASF712
 11782 3369 18       		.byte	0x18
 11783 336a 1D       		.byte	0x1d
 11784 336b 4B       		.uleb128 0x4b
 11785 336c FD460000 		.4byte	.LASF713
 11786 3370 15       		.byte	0x15
 11787 3371 6D       		.byte	0x6d
 11788 3372 44       		.uleb128 0x44
 11789 3373 7A0A0000 		.4byte	.LASF714
 11790 3377 19       		.byte	0x19
 11791 3378 57       		.byte	0x57
 11792 3379 83330000 		.4byte	0x3383
 11793 337d 16       		.uleb128 0x16
 11794 337e F6000000 		.4byte	0xf6
 11795 3382 00       		.byte	0
 11796 3383 4B       		.uleb128 0x4b
 11797 3384 31120000 		.4byte	.LASF715
 11798 3388 1A       		.byte	0x1a
 11799 3389 28       		.byte	0x28
 11800 338a 4D       		.uleb128 0x4d
 11801 338b C6030000 		.4byte	.LASF716
 11802 338f 1B       		.byte	0x1b
 11803 3390 21       		.byte	0x21
 11804 3391 E0000000 		.4byte	0xe0
 11805 3395 4B       		.uleb128 0x4b
 11806 3396 DA0C0000 		.4byte	.LASF717
 11807 339a 18       		.byte	0x18
 11808 339b 1C       		.byte	0x1c
 11809 339c 44       		.uleb128 0x44
 11810 339d EB3E0000 		.4byte	.LASF718
 11811 33a1 17       		.byte	0x17
 11812 33a2 1E       		.byte	0x1e
 11813 33a3 AD330000 		.4byte	0x33ad
 11814 33a7 16       		.uleb128 0x16
 11815 33a8 E0000000 		.4byte	0xe0
 11816 33ac 00       		.byte	0
 11817 33ad 44       		.uleb128 0x44
 11818 33ae EF3D0000 		.4byte	.LASF719
 11819 33b2 1C       		.byte	0x1c
 11820 33b3 1E       		.byte	0x1e
 11821 33b4 BE330000 		.4byte	0x33be
 11822 33b8 16       		.uleb128 0x16
 11823 33b9 E0000000 		.4byte	0xe0
 11824 33bd 00       		.byte	0
 11825 33be 44       		.uleb128 0x44
 11826 33bf AE410000 		.4byte	.LASF720
 11827 33c3 1C       		.byte	0x1c
 11828 33c4 1D       		.byte	0x1d
ARM GAS  C:\Users\Helon\AppData\Local\Temp\ccKCxrf8.s 			page 277


 11829 33c5 CF330000 		.4byte	0x33cf
 11830 33c9 16       		.uleb128 0x16
 11831 33ca E0000000 		.4byte	0xe0
 11832 33ce 00       		.byte	0
 11833 33cf 44       		.uleb128 0x44
 11834 33d0 B52F0000 		.4byte	.LASF721
 11835 33d4 14       		.byte	0x14
 11836 33d5 1E       		.byte	0x1e
 11837 33d6 E0330000 		.4byte	0x33e0
 11838 33da 16       		.uleb128 0x16
 11839 33db E0000000 		.4byte	0xe0
 11840 33df 00       		.byte	0
 11841 33e0 44       		.uleb128 0x44
 11842 33e1 3E160000 		.4byte	.LASF722
 11843 33e5 1B       		.byte	0x1b
 11844 33e6 1E       		.byte	0x1e
 11845 33e7 F1330000 		.4byte	0x33f1
 11846 33eb 16       		.uleb128 0x16
 11847 33ec E0000000 		.4byte	0xe0
 11848 33f0 00       		.byte	0
 11849 33f1 44       		.uleb128 0x44
 11850 33f2 633A0000 		.4byte	.LASF723
 11851 33f6 1D       		.byte	0x1d
 11852 33f7 1E       		.byte	0x1e
 11853 33f8 02340000 		.4byte	0x3402
 11854 33fc 16       		.uleb128 0x16
 11855 33fd E0000000 		.4byte	0xe0
 11856 3401 00       		.byte	0
 11857 3402 45       		.uleb128 0x45
 11858 3403 3E100000 		.4byte	.LASF724
 11859 3407 16       		.byte	0x16
 11860 3408 2F01     		.2byte	0x12f
 11861 340a 44       		.uleb128 0x44
 11862 340b 2A010000 		.4byte	.LASF725
 11863 340f 1E       		.byte	0x1e
 11864 3410 18       		.byte	0x18
 11865 3411 1B340000 		.4byte	0x341b
 11866 3415 16       		.uleb128 0x16
 11867 3416 3B010000 		.4byte	0x13b
 11868 341a 00       		.byte	0
 11869 341b 46       		.uleb128 0x46
 11870 341c DE200000 		.4byte	.LASF726
 11871 3420 0C       		.byte	0xc
 11872 3421 A101     		.2byte	0x1a1
 11873 3423 AF030000 		.4byte	0x3af
 11874 3427 31340000 		.4byte	0x3431
 11875 342b 16       		.uleb128 0x16
 11876 342c E00A0000 		.4byte	0xae0
 11877 3430 00       		.byte	0
 11878 3431 49       		.uleb128 0x49
 11879 3432 BB380000 		.4byte	.LASF727
 11880 3436 1F       		.byte	0x1f
 11881 3437 1B       		.byte	0x1b
 11882 3438 62010000 		.4byte	0x162
 11883 343c 4B340000 		.4byte	0x344b
 11884 3440 16       		.uleb128 0x16
 11885 3441 68010000 		.4byte	0x168
ARM GAS  C:\Users\Helon\AppData\Local\Temp\ccKCxrf8.s 			page 278


 11886 3445 16       		.uleb128 0x16
 11887 3446 2C000000 		.4byte	0x2c
 11888 344a 00       		.byte	0
 11889 344b 49       		.uleb128 0x49
 11890 344c 82370000 		.4byte	.LASF728
 11891 3450 20       		.byte	0x20
 11892 3451 25       		.byte	0x25
 11893 3452 60010000 		.4byte	0x160
 11894 3456 60340000 		.4byte	0x3460
 11895 345a 16       		.uleb128 0x16
 11896 345b 4E010000 		.4byte	0x14e
 11897 345f 00       		.byte	0
 11898 3460 49       		.uleb128 0x49
 11899 3461 EA3C0000 		.4byte	.LASF729
 11900 3465 1F       		.byte	0x1f
 11901 3466 24       		.byte	0x24
 11902 3467 62010000 		.4byte	0x162
 11903 346b 7F340000 		.4byte	0x347f
 11904 346f 16       		.uleb128 0x16
 11905 3470 62010000 		.4byte	0x162
 11906 3474 16       		.uleb128 0x16
 11907 3475 68010000 		.4byte	0x168
 11908 3479 16       		.uleb128 0x16
 11909 347a 4E010000 		.4byte	0x14e
 11910 347e 00       		.byte	0
 11911 347f 49       		.uleb128 0x49
 11912 3480 0A2E0000 		.4byte	.LASF730
 11913 3484 1F       		.byte	0x1f
 11914 3485 23       		.byte	0x23
 11915 3486 2C000000 		.4byte	0x2c
 11916 348a 9E340000 		.4byte	0x349e
 11917 348e 16       		.uleb128 0x16
 11918 348f 68010000 		.4byte	0x168
 11919 3493 16       		.uleb128 0x16
 11920 3494 68010000 		.4byte	0x168
 11921 3498 16       		.uleb128 0x16
 11922 3499 4E010000 		.4byte	0x14e
 11923 349d 00       		.byte	0
 11924 349e 44       		.uleb128 0x44
 11925 349f 48430000 		.4byte	.LASF731
 11926 34a3 20       		.byte	0x20
 11927 34a4 2D       		.byte	0x2d
 11928 34a5 AF340000 		.4byte	0x34af
 11929 34a9 16       		.uleb128 0x16
 11930 34aa 60010000 		.4byte	0x160
 11931 34ae 00       		.byte	0
 11932 34af 49       		.uleb128 0x49
 11933 34b0 0E090000 		.4byte	.LASF732
 11934 34b4 1F       		.byte	0x1f
 11935 34b5 1C       		.byte	0x1c
 11936 34b6 2C000000 		.4byte	0x2c
 11937 34ba C9340000 		.4byte	0x34c9
 11938 34be 16       		.uleb128 0x16
 11939 34bf 68010000 		.4byte	0x168
 11940 34c3 16       		.uleb128 0x16
 11941 34c4 68010000 		.4byte	0x168
 11942 34c8 00       		.byte	0
ARM GAS  C:\Users\Helon\AppData\Local\Temp\ccKCxrf8.s 			page 279


 11943 34c9 49       		.uleb128 0x49
 11944 34ca 3D450000 		.4byte	.LASF733
 11945 34ce 0A       		.byte	0xa
 11946 34cf DF       		.byte	0xdf
 11947 34d0 AF030000 		.4byte	0x3af
 11948 34d4 E3340000 		.4byte	0x34e3
 11949 34d8 16       		.uleb128 0x16
 11950 34d9 44090000 		.4byte	0x944
 11951 34dd 16       		.uleb128 0x16
 11952 34de E3340000 		.4byte	0x34e3
 11953 34e2 00       		.byte	0
 11954 34e3 07       		.uleb128 0x7
 11955 34e4 04       		.byte	0x4
 11956 34e5 ED090000 		.4byte	0x9ed
 11957 34e9 46       		.uleb128 0x46
 11958 34ea DD060000 		.4byte	.LASF734
 11959 34ee 0B       		.byte	0xb
 11960 34ef 6003     		.2byte	0x360
 11961 34f1 AF030000 		.4byte	0x3af
 11962 34f5 04350000 		.4byte	0x3504
 11963 34f9 16       		.uleb128 0x16
 11964 34fa 44090000 		.4byte	0x944
 11965 34fe 16       		.uleb128 0x16
 11966 34ff 04350000 		.4byte	0x3504
 11967 3503 00       		.byte	0
 11968 3504 07       		.uleb128 0x7
 11969 3505 04       		.byte	0x4
 11970 3506 3A0A0000 		.4byte	0xa3a
 11971 350a 46       		.uleb128 0x46
 11972 350b 0E000000 		.4byte	.LASF735
 11973 350f 0C       		.byte	0xc
 11974 3510 C201     		.2byte	0x1c2
 11975 3512 AF030000 		.4byte	0x3af
 11976 3516 20350000 		.4byte	0x3520
 11977 351a 16       		.uleb128 0x16
 11978 351b 20350000 		.4byte	0x3520
 11979 351f 00       		.byte	0
 11980 3520 07       		.uleb128 0x7
 11981 3521 04       		.byte	0x4
 11982 3522 26350000 		.4byte	0x3526
 11983 3526 0A       		.uleb128 0xa
 11984 3527 0F050000 		.4byte	0x50f
 11985 352b 46       		.uleb128 0x46
 11986 352c 28160000 		.4byte	.LASF736
 11987 3530 06       		.byte	0x6
 11988 3531 1F05     		.2byte	0x51f
 11989 3533 AF030000 		.4byte	0x3af
 11990 3537 41350000 		.4byte	0x3541
 11991 353b 16       		.uleb128 0x16
 11992 353c 41350000 		.4byte	0x3541
 11993 3540 00       		.byte	0
 11994 3541 07       		.uleb128 0x7
 11995 3542 04       		.byte	0x4
 11996 3543 CF040000 		.4byte	0x4cf
 11997 3547 46       		.uleb128 0x46
 11998 3548 9E230000 		.4byte	.LASF737
 11999 354c 06       		.byte	0x6
ARM GAS  C:\Users\Helon\AppData\Local\Temp\ccKCxrf8.s 			page 280


 12000 354d 4105     		.2byte	0x541
 12001 354f AF030000 		.4byte	0x3af
 12002 3553 5D350000 		.4byte	0x355d
 12003 3557 16       		.uleb128 0x16
 12004 3558 41350000 		.4byte	0x3541
 12005 355c 00       		.byte	0
 12006 355d 47       		.uleb128 0x47
 12007 355e 25350000 		.4byte	.LASF738
 12008 3562 60010000 		.4byte	0x160
 12009 3566 7A350000 		.4byte	0x357a
 12010 356a 16       		.uleb128 0x16
 12011 356b 60010000 		.4byte	0x160
 12012 356f 16       		.uleb128 0x16
 12013 3570 2C000000 		.4byte	0x2c
 12014 3574 16       		.uleb128 0x16
 12015 3575 59010000 		.4byte	0x159
 12016 3579 00       		.byte	0
 12017 357a 4B       		.uleb128 0x4b
 12018 357b D6020000 		.4byte	.LASF739
 12019 357f 19       		.byte	0x19
 12020 3580 5D       		.byte	0x5d
 12021 3581 46       		.uleb128 0x46
 12022 3582 84190000 		.4byte	.LASF740
 12023 3586 06       		.byte	0x6
 12024 3587 E504     		.2byte	0x4e5
 12025 3589 AF030000 		.4byte	0x3af
 12026 358d 97350000 		.4byte	0x3597
 12027 3591 16       		.uleb128 0x16
 12028 3592 97350000 		.4byte	0x3597
 12029 3596 00       		.byte	0
 12030 3597 07       		.uleb128 0x7
 12031 3598 04       		.byte	0x4
 12032 3599 0F050000 		.4byte	0x50f
 12033 359d 46       		.uleb128 0x46
 12034 359e ED140000 		.4byte	.LASF741
 12035 35a2 0D       		.byte	0xd
 12036 35a3 6908     		.2byte	0x869
 12037 35a5 AF030000 		.4byte	0x3af
 12038 35a9 B3350000 		.4byte	0x35b3
 12039 35ad 16       		.uleb128 0x16
 12040 35ae B3350000 		.4byte	0x35b3
 12041 35b2 00       		.byte	0
 12042 35b3 07       		.uleb128 0x7
 12043 35b4 04       		.byte	0x4
 12044 35b5 13010000 		.4byte	0x113
 12045 35b9 45       		.uleb128 0x45
 12046 35ba 6A170000 		.4byte	.LASF742
 12047 35be 0C       		.byte	0xc
 12048 35bf B101     		.2byte	0x1b1
 12049 35c1 49       		.uleb128 0x49
 12050 35c2 E5250000 		.4byte	.LASF743
 12051 35c6 21       		.byte	0x21
 12052 35c7 33       		.byte	0x33
 12053 35c8 F6000000 		.4byte	0xf6
 12054 35cc E5350000 		.4byte	0x35e5
 12055 35d0 16       		.uleb128 0x16
 12056 35d1 E0000000 		.4byte	0xe0
ARM GAS  C:\Users\Helon\AppData\Local\Temp\ccKCxrf8.s 			page 281


 12057 35d5 16       		.uleb128 0x16
 12058 35d6 E5350000 		.4byte	0x35e5
 12059 35da 16       		.uleb128 0x16
 12060 35db B4000000 		.4byte	0xb4
 12061 35df 16       		.uleb128 0x16
 12062 35e0 B4000000 		.4byte	0xb4
 12063 35e4 00       		.byte	0
 12064 35e5 07       		.uleb128 0x7
 12065 35e6 04       		.byte	0x4
 12066 35e7 F6000000 		.4byte	0xf6
 12067 35eb 46       		.uleb128 0x46
 12068 35ec F03A0000 		.4byte	.LASF744
 12069 35f0 0D       		.byte	0xd
 12070 35f1 6808     		.2byte	0x868
 12071 35f3 AF030000 		.4byte	0x3af
 12072 35f7 01360000 		.4byte	0x3601
 12073 35fb 16       		.uleb128 0x16
 12074 35fc 01360000 		.4byte	0x3601
 12075 3600 00       		.byte	0
 12076 3601 07       		.uleb128 0x7
 12077 3602 04       		.byte	0x4
 12078 3603 07360000 		.4byte	0x3607
 12079 3607 0A       		.uleb128 0xa
 12080 3608 13010000 		.4byte	0x113
 12081 360c 46       		.uleb128 0x46
 12082 360d B2210000 		.4byte	.LASF745
 12083 3611 08       		.byte	0x8
 12084 3612 A107     		.2byte	0x7a1
 12085 3614 AF030000 		.4byte	0x3af
 12086 3618 27360000 		.4byte	0x3627
 12087 361c 16       		.uleb128 0x16
 12088 361d FE070000 		.4byte	0x7fe
 12089 3621 16       		.uleb128 0x16
 12090 3622 04080000 		.4byte	0x804
 12091 3626 00       		.byte	0
 12092 3627 46       		.uleb128 0x46
 12093 3628 6E0C0000 		.4byte	.LASF746
 12094 362c 0B       		.byte	0xb
 12095 362d 8002     		.2byte	0x280
 12096 362f AF030000 		.4byte	0x3af
 12097 3633 42360000 		.4byte	0x3642
 12098 3637 16       		.uleb128 0x16
 12099 3638 44090000 		.4byte	0x944
 12100 363c 16       		.uleb128 0x16
 12101 363d 42360000 		.4byte	0x3642
 12102 3641 00       		.byte	0
 12103 3642 07       		.uleb128 0x7
 12104 3643 04       		.byte	0x4
 12105 3644 240A0000 		.4byte	0xa24
 12106 3648 4B       		.uleb128 0x4b
 12107 3649 70340000 		.4byte	.LASF747
 12108 364d 10       		.byte	0x10
 12109 364e 21       		.byte	0x21
 12110 364f 46       		.uleb128 0x46
 12111 3650 4B200000 		.4byte	.LASF748
 12112 3654 08       		.byte	0x8
 12113 3655 DA04     		.2byte	0x4da
ARM GAS  C:\Users\Helon\AppData\Local\Temp\ccKCxrf8.s 			page 282


 12114 3657 AF030000 		.4byte	0x3af
 12115 365b 65360000 		.4byte	0x3665
 12116 365f 16       		.uleb128 0x16
 12117 3660 E0000000 		.4byte	0xe0
 12118 3664 00       		.byte	0
 12119 3665 43       		.uleb128 0x43
 12120 3666 BD280000 		.4byte	.LASF749
 12121 366a 06       		.byte	0x6
 12122 366b FA04     		.2byte	0x4fa
 12123 366d 01010000 		.4byte	0x101
 12124 3671 46       		.uleb128 0x46
 12125 3672 58030000 		.4byte	.LASF750
 12126 3676 08       		.byte	0x8
 12127 3677 1A03     		.2byte	0x31a
 12128 3679 AF030000 		.4byte	0x3af
 12129 367d 87360000 		.4byte	0x3687
 12130 3681 16       		.uleb128 0x16
 12131 3682 C7050000 		.4byte	0x5c7
 12132 3686 00       		.byte	0
 12133 3687 46       		.uleb128 0x46
 12134 3688 B02C0000 		.4byte	.LASF751
 12135 368c 08       		.byte	0x8
 12136 368d EE05     		.2byte	0x5ee
 12137 368f AF030000 		.4byte	0x3af
 12138 3693 A2360000 		.4byte	0x36a2
 12139 3697 16       		.uleb128 0x16
 12140 3698 E0000000 		.4byte	0xe0
 12141 369c 16       		.uleb128 0x16
 12142 369d 0A330000 		.4byte	0x330a
 12143 36a1 00       		.byte	0
 12144 36a2 46       		.uleb128 0x46
 12145 36a3 9D200000 		.4byte	.LASF752
 12146 36a7 08       		.byte	0x8
 12147 36a8 DA06     		.2byte	0x6da
 12148 36aa AF030000 		.4byte	0x3af
 12149 36ae B8360000 		.4byte	0x36b8
 12150 36b2 16       		.uleb128 0x16
 12151 36b3 B8360000 		.4byte	0x36b8
 12152 36b7 00       		.byte	0
 12153 36b8 07       		.uleb128 0x7
 12154 36b9 04       		.byte	0x4
 12155 36ba B3060000 		.4byte	0x6b3
 12156 36be 46       		.uleb128 0x46
 12157 36bf 6A030000 		.4byte	.LASF753
 12158 36c3 08       		.byte	0x8
 12159 36c4 8806     		.2byte	0x688
 12160 36c6 AF030000 		.4byte	0x3af
 12161 36ca D4360000 		.4byte	0x36d4
 12162 36ce 16       		.uleb128 0x16
 12163 36cf 97350000 		.4byte	0x3597
 12164 36d3 00       		.byte	0
 12165 36d4 46       		.uleb128 0x46
 12166 36d5 B33D0000 		.4byte	.LASF754
 12167 36d9 0C       		.byte	0xc
 12168 36da A501     		.2byte	0x1a5
 12169 36dc AF030000 		.4byte	0x3af
 12170 36e0 EA360000 		.4byte	0x36ea
ARM GAS  C:\Users\Helon\AppData\Local\Temp\ccKCxrf8.s 			page 283


 12171 36e4 16       		.uleb128 0x16
 12172 36e5 E0000000 		.4byte	0xe0
 12173 36e9 00       		.byte	0
 12174 36ea 43       		.uleb128 0x43
 12175 36eb 823B0000 		.4byte	.LASF755
 12176 36ef 0E       		.byte	0xe
 12177 36f0 8601     		.2byte	0x186
 12178 36f2 F6000000 		.4byte	0xf6
 12179 36f6 43       		.uleb128 0x43
 12180 36f7 F72F0000 		.4byte	.LASF756
 12181 36fb 0E       		.byte	0xe
 12182 36fc 6B01     		.2byte	0x16b
 12183 36fe F6000000 		.4byte	0xf6
 12184 3702 49       		.uleb128 0x49
 12185 3703 753C0000 		.4byte	.LASF757
 12186 3707 1F       		.byte	0x1f
 12187 3708 16       		.byte	0x16
 12188 3709 2C000000 		.4byte	0x2c
 12189 370d 21370000 		.4byte	0x3721
 12190 3711 16       		.uleb128 0x16
 12191 3712 24320000 		.4byte	0x3224
 12192 3716 16       		.uleb128 0x16
 12193 3717 24320000 		.4byte	0x3224
 12194 371b 16       		.uleb128 0x16
 12195 371c 4E010000 		.4byte	0x14e
 12196 3720 00       		.byte	0
 12197 3721 46       		.uleb128 0x46
 12198 3722 820A0000 		.4byte	.LASF758
 12199 3726 0B       		.byte	0xb
 12200 3727 BD03     		.2byte	0x3bd
 12201 3729 AF030000 		.4byte	0x3af
 12202 372d 3C370000 		.4byte	0x373c
 12203 3731 16       		.uleb128 0x16
 12204 3732 44090000 		.4byte	0x944
 12205 3736 16       		.uleb128 0x16
 12206 3737 3C370000 		.4byte	0x373c
 12207 373b 00       		.byte	0
 12208 373c 07       		.uleb128 0x7
 12209 373d 04       		.byte	0x4
 12210 373e 450A0000 		.4byte	0xa45
 12211 3742 45       		.uleb128 0x45
 12212 3743 C0370000 		.4byte	.LASF759
 12213 3747 06       		.byte	0x6
 12214 3748 A304     		.2byte	0x4a3
 12215 374a 43       		.uleb128 0x43
 12216 374b 070A0000 		.4byte	.LASF760
 12217 374f 0E       		.byte	0xe
 12218 3750 6A01     		.2byte	0x16a
 12219 3752 F6000000 		.4byte	0xf6
 12220 3756 4E       		.uleb128 0x4e
 12221 3757 61440000 		.4byte	.LASF761
 12222 375b 08       		.byte	0x8
 12223 375c 6B06     		.2byte	0x66b
 12224 375e AF030000 		.4byte	0x3af
 12225 3762 16       		.uleb128 0x16
 12226 3763 E0000000 		.4byte	0xe0
 12227 3767 16       		.uleb128 0x16
ARM GAS  C:\Users\Helon\AppData\Local\Temp\ccKCxrf8.s 			page 284


 12228 3768 F6000000 		.4byte	0xf6
 12229 376c 16       		.uleb128 0x16
 12230 376d E0000000 		.4byte	0xe0
 12231 3771 00       		.byte	0
 12232 3772 00       		.byte	0
 12233              		.section	.debug_abbrev,"",%progbits
 12234              	.Ldebug_abbrev0:
 12235 0000 01       		.uleb128 0x1
 12236 0001 11       		.uleb128 0x11
 12237 0002 01       		.byte	0x1
 12238 0003 25       		.uleb128 0x25
 12239 0004 0E       		.uleb128 0xe
 12240 0005 13       		.uleb128 0x13
 12241 0006 0B       		.uleb128 0xb
 12242 0007 03       		.uleb128 0x3
 12243 0008 0E       		.uleb128 0xe
 12244 0009 1B       		.uleb128 0x1b
 12245 000a 0E       		.uleb128 0xe
 12246 000b 55       		.uleb128 0x55
 12247 000c 17       		.uleb128 0x17
 12248 000d 11       		.uleb128 0x11
 12249 000e 01       		.uleb128 0x1
 12250 000f 10       		.uleb128 0x10
 12251 0010 17       		.uleb128 0x17
 12252 0011 00       		.byte	0
 12253 0012 00       		.byte	0
 12254 0013 02       		.uleb128 0x2
 12255 0014 24       		.uleb128 0x24
 12256 0015 00       		.byte	0
 12257 0016 0B       		.uleb128 0xb
 12258 0017 0B       		.uleb128 0xb
 12259 0018 3E       		.uleb128 0x3e
 12260 0019 0B       		.uleb128 0xb
 12261 001a 03       		.uleb128 0x3
 12262 001b 0E       		.uleb128 0xe
 12263 001c 00       		.byte	0
 12264 001d 00       		.byte	0
 12265 001e 03       		.uleb128 0x3
 12266 001f 24       		.uleb128 0x24
 12267 0020 00       		.byte	0
 12268 0021 0B       		.uleb128 0xb
 12269 0022 0B       		.uleb128 0xb
 12270 0023 3E       		.uleb128 0x3e
 12271 0024 0B       		.uleb128 0xb
 12272 0025 03       		.uleb128 0x3
 12273 0026 08       		.uleb128 0x8
 12274 0027 00       		.byte	0
 12275 0028 00       		.byte	0
 12276 0029 04       		.uleb128 0x4
 12277 002a 16       		.uleb128 0x16
 12278 002b 00       		.byte	0
 12279 002c 03       		.uleb128 0x3
 12280 002d 0E       		.uleb128 0xe
 12281 002e 3A       		.uleb128 0x3a
 12282 002f 0B       		.uleb128 0xb
 12283 0030 3B       		.uleb128 0x3b
 12284 0031 0B       		.uleb128 0xb
ARM GAS  C:\Users\Helon\AppData\Local\Temp\ccKCxrf8.s 			page 285


 12285 0032 49       		.uleb128 0x49
 12286 0033 13       		.uleb128 0x13
 12287 0034 00       		.byte	0
 12288 0035 00       		.byte	0
 12289 0036 05       		.uleb128 0x5
 12290 0037 35       		.uleb128 0x35
 12291 0038 00       		.byte	0
 12292 0039 49       		.uleb128 0x49
 12293 003a 13       		.uleb128 0x13
 12294 003b 00       		.byte	0
 12295 003c 00       		.byte	0
 12296 003d 06       		.uleb128 0x6
 12297 003e 16       		.uleb128 0x16
 12298 003f 00       		.byte	0
 12299 0040 03       		.uleb128 0x3
 12300 0041 0E       		.uleb128 0xe
 12301 0042 3A       		.uleb128 0x3a
 12302 0043 0B       		.uleb128 0xb
 12303 0044 3B       		.uleb128 0x3b
 12304 0045 05       		.uleb128 0x5
 12305 0046 49       		.uleb128 0x49
 12306 0047 13       		.uleb128 0x13
 12307 0048 00       		.byte	0
 12308 0049 00       		.byte	0
 12309 004a 07       		.uleb128 0x7
 12310 004b 0F       		.uleb128 0xf
 12311 004c 00       		.byte	0
 12312 004d 0B       		.uleb128 0xb
 12313 004e 0B       		.uleb128 0xb
 12314 004f 49       		.uleb128 0x49
 12315 0050 13       		.uleb128 0x13
 12316 0051 00       		.byte	0
 12317 0052 00       		.byte	0
 12318 0053 08       		.uleb128 0x8
 12319 0054 15       		.uleb128 0x15
 12320 0055 00       		.byte	0
 12321 0056 27       		.uleb128 0x27
 12322 0057 19       		.uleb128 0x19
 12323 0058 00       		.byte	0
 12324 0059 00       		.byte	0
 12325 005a 09       		.uleb128 0x9
 12326 005b 0F       		.uleb128 0xf
 12327 005c 00       		.byte	0
 12328 005d 0B       		.uleb128 0xb
 12329 005e 0B       		.uleb128 0xb
 12330 005f 00       		.byte	0
 12331 0060 00       		.byte	0
 12332 0061 0A       		.uleb128 0xa
 12333 0062 26       		.uleb128 0x26
 12334 0063 00       		.byte	0
 12335 0064 49       		.uleb128 0x49
 12336 0065 13       		.uleb128 0x13
 12337 0066 00       		.byte	0
 12338 0067 00       		.byte	0
 12339 0068 0B       		.uleb128 0xb
 12340 0069 04       		.uleb128 0x4
 12341 006a 01       		.byte	0x1
ARM GAS  C:\Users\Helon\AppData\Local\Temp\ccKCxrf8.s 			page 286


 12342 006b 0B       		.uleb128 0xb
 12343 006c 0B       		.uleb128 0xb
 12344 006d 3A       		.uleb128 0x3a
 12345 006e 0B       		.uleb128 0xb
 12346 006f 3B       		.uleb128 0x3b
 12347 0070 0B       		.uleb128 0xb
 12348 0071 01       		.uleb128 0x1
 12349 0072 13       		.uleb128 0x13
 12350 0073 00       		.byte	0
 12351 0074 00       		.byte	0
 12352 0075 0C       		.uleb128 0xc
 12353 0076 28       		.uleb128 0x28
 12354 0077 00       		.byte	0
 12355 0078 03       		.uleb128 0x3
 12356 0079 0E       		.uleb128 0xe
 12357 007a 1C       		.uleb128 0x1c
 12358 007b 0D       		.uleb128 0xd
 12359 007c 00       		.byte	0
 12360 007d 00       		.byte	0
 12361 007e 0D       		.uleb128 0xd
 12362 007f 04       		.uleb128 0x4
 12363 0080 01       		.byte	0x1
 12364 0081 0B       		.uleb128 0xb
 12365 0082 0B       		.uleb128 0xb
 12366 0083 3A       		.uleb128 0x3a
 12367 0084 0B       		.uleb128 0xb
 12368 0085 3B       		.uleb128 0x3b
 12369 0086 05       		.uleb128 0x5
 12370 0087 01       		.uleb128 0x1
 12371 0088 13       		.uleb128 0x13
 12372 0089 00       		.byte	0
 12373 008a 00       		.byte	0
 12374 008b 0E       		.uleb128 0xe
 12375 008c 13       		.uleb128 0x13
 12376 008d 01       		.byte	0x1
 12377 008e 0B       		.uleb128 0xb
 12378 008f 0B       		.uleb128 0xb
 12379 0090 3A       		.uleb128 0x3a
 12380 0091 0B       		.uleb128 0xb
 12381 0092 3B       		.uleb128 0x3b
 12382 0093 05       		.uleb128 0x5
 12383 0094 01       		.uleb128 0x1
 12384 0095 13       		.uleb128 0x13
 12385 0096 00       		.byte	0
 12386 0097 00       		.byte	0
 12387 0098 0F       		.uleb128 0xf
 12388 0099 0D       		.uleb128 0xd
 12389 009a 00       		.byte	0
 12390 009b 03       		.uleb128 0x3
 12391 009c 0E       		.uleb128 0xe
 12392 009d 3A       		.uleb128 0x3a
 12393 009e 0B       		.uleb128 0xb
 12394 009f 3B       		.uleb128 0x3b
 12395 00a0 05       		.uleb128 0x5
 12396 00a1 49       		.uleb128 0x49
 12397 00a2 13       		.uleb128 0x13
 12398 00a3 38       		.uleb128 0x38
ARM GAS  C:\Users\Helon\AppData\Local\Temp\ccKCxrf8.s 			page 287


 12399 00a4 0B       		.uleb128 0xb
 12400 00a5 00       		.byte	0
 12401 00a6 00       		.byte	0
 12402 00a7 10       		.uleb128 0x10
 12403 00a8 01       		.uleb128 0x1
 12404 00a9 01       		.byte	0x1
 12405 00aa 49       		.uleb128 0x49
 12406 00ab 13       		.uleb128 0x13
 12407 00ac 01       		.uleb128 0x1
 12408 00ad 13       		.uleb128 0x13
 12409 00ae 00       		.byte	0
 12410 00af 00       		.byte	0
 12411 00b0 11       		.uleb128 0x11
 12412 00b1 21       		.uleb128 0x21
 12413 00b2 00       		.byte	0
 12414 00b3 49       		.uleb128 0x49
 12415 00b4 13       		.uleb128 0x13
 12416 00b5 2F       		.uleb128 0x2f
 12417 00b6 0B       		.uleb128 0xb
 12418 00b7 00       		.byte	0
 12419 00b8 00       		.byte	0
 12420 00b9 12       		.uleb128 0x12
 12421 00ba 0D       		.uleb128 0xd
 12422 00bb 00       		.byte	0
 12423 00bc 03       		.uleb128 0x3
 12424 00bd 08       		.uleb128 0x8
 12425 00be 3A       		.uleb128 0x3a
 12426 00bf 0B       		.uleb128 0xb
 12427 00c0 3B       		.uleb128 0x3b
 12428 00c1 05       		.uleb128 0x5
 12429 00c2 49       		.uleb128 0x49
 12430 00c3 13       		.uleb128 0x13
 12431 00c4 38       		.uleb128 0x38
 12432 00c5 0B       		.uleb128 0xb
 12433 00c6 00       		.byte	0
 12434 00c7 00       		.byte	0
 12435 00c8 13       		.uleb128 0x13
 12436 00c9 13       		.uleb128 0x13
 12437 00ca 01       		.byte	0x1
 12438 00cb 0B       		.uleb128 0xb
 12439 00cc 0B       		.uleb128 0xb
 12440 00cd 3A       		.uleb128 0x3a
 12441 00ce 0B       		.uleb128 0xb
 12442 00cf 3B       		.uleb128 0x3b
 12443 00d0 0B       		.uleb128 0xb
 12444 00d1 01       		.uleb128 0x1
 12445 00d2 13       		.uleb128 0x13
 12446 00d3 00       		.byte	0
 12447 00d4 00       		.byte	0
 12448 00d5 14       		.uleb128 0x14
 12449 00d6 0D       		.uleb128 0xd
 12450 00d7 00       		.byte	0
 12451 00d8 03       		.uleb128 0x3
 12452 00d9 0E       		.uleb128 0xe
 12453 00da 3A       		.uleb128 0x3a
 12454 00db 0B       		.uleb128 0xb
 12455 00dc 3B       		.uleb128 0x3b
ARM GAS  C:\Users\Helon\AppData\Local\Temp\ccKCxrf8.s 			page 288


 12456 00dd 0B       		.uleb128 0xb
 12457 00de 49       		.uleb128 0x49
 12458 00df 13       		.uleb128 0x13
 12459 00e0 38       		.uleb128 0x38
 12460 00e1 0B       		.uleb128 0xb
 12461 00e2 00       		.byte	0
 12462 00e3 00       		.byte	0
 12463 00e4 15       		.uleb128 0x15
 12464 00e5 15       		.uleb128 0x15
 12465 00e6 01       		.byte	0x1
 12466 00e7 27       		.uleb128 0x27
 12467 00e8 19       		.uleb128 0x19
 12468 00e9 01       		.uleb128 0x1
 12469 00ea 13       		.uleb128 0x13
 12470 00eb 00       		.byte	0
 12471 00ec 00       		.byte	0
 12472 00ed 16       		.uleb128 0x16
 12473 00ee 05       		.uleb128 0x5
 12474 00ef 00       		.byte	0
 12475 00f0 49       		.uleb128 0x49
 12476 00f1 13       		.uleb128 0x13
 12477 00f2 00       		.byte	0
 12478 00f3 00       		.byte	0
 12479 00f4 17       		.uleb128 0x17
 12480 00f5 28       		.uleb128 0x28
 12481 00f6 00       		.byte	0
 12482 00f7 03       		.uleb128 0x3
 12483 00f8 08       		.uleb128 0x8
 12484 00f9 1C       		.uleb128 0x1c
 12485 00fa 0D       		.uleb128 0xd
 12486 00fb 00       		.byte	0
 12487 00fc 00       		.byte	0
 12488 00fd 18       		.uleb128 0x18
 12489 00fe 0D       		.uleb128 0xd
 12490 00ff 00       		.byte	0
 12491 0100 03       		.uleb128 0x3
 12492 0101 08       		.uleb128 0x8
 12493 0102 3A       		.uleb128 0x3a
 12494 0103 0B       		.uleb128 0xb
 12495 0104 3B       		.uleb128 0x3b
 12496 0105 0B       		.uleb128 0xb
 12497 0106 49       		.uleb128 0x49
 12498 0107 13       		.uleb128 0x13
 12499 0108 38       		.uleb128 0x38
 12500 0109 0B       		.uleb128 0xb
 12501 010a 00       		.byte	0
 12502 010b 00       		.byte	0
 12503 010c 19       		.uleb128 0x19
 12504 010d 2E       		.uleb128 0x2e
 12505 010e 01       		.byte	0x1
 12506 010f 3F       		.uleb128 0x3f
 12507 0110 19       		.uleb128 0x19
 12508 0111 03       		.uleb128 0x3
 12509 0112 0E       		.uleb128 0xe
 12510 0113 3A       		.uleb128 0x3a
 12511 0114 0B       		.uleb128 0xb
 12512 0115 3B       		.uleb128 0x3b
ARM GAS  C:\Users\Helon\AppData\Local\Temp\ccKCxrf8.s 			page 289


 12513 0116 05       		.uleb128 0x5
 12514 0117 27       		.uleb128 0x27
 12515 0118 19       		.uleb128 0x19
 12516 0119 20       		.uleb128 0x20
 12517 011a 0B       		.uleb128 0xb
 12518 011b 01       		.uleb128 0x1
 12519 011c 13       		.uleb128 0x13
 12520 011d 00       		.byte	0
 12521 011e 00       		.byte	0
 12522 011f 1A       		.uleb128 0x1a
 12523 0120 34       		.uleb128 0x34
 12524 0121 00       		.byte	0
 12525 0122 03       		.uleb128 0x3
 12526 0123 0E       		.uleb128 0xe
 12527 0124 3A       		.uleb128 0x3a
 12528 0125 0B       		.uleb128 0xb
 12529 0126 3B       		.uleb128 0x3b
 12530 0127 05       		.uleb128 0x5
 12531 0128 49       		.uleb128 0x49
 12532 0129 13       		.uleb128 0x13
 12533 012a 00       		.byte	0
 12534 012b 00       		.byte	0
 12535 012c 1B       		.uleb128 0x1b
 12536 012d 2E       		.uleb128 0x2e
 12537 012e 01       		.byte	0x1
 12538 012f 3F       		.uleb128 0x3f
 12539 0130 19       		.uleb128 0x19
 12540 0131 03       		.uleb128 0x3
 12541 0132 0E       		.uleb128 0xe
 12542 0133 3A       		.uleb128 0x3a
 12543 0134 0B       		.uleb128 0xb
 12544 0135 3B       		.uleb128 0x3b
 12545 0136 05       		.uleb128 0x5
 12546 0137 27       		.uleb128 0x27
 12547 0138 19       		.uleb128 0x19
 12548 0139 49       		.uleb128 0x49
 12549 013a 13       		.uleb128 0x13
 12550 013b 20       		.uleb128 0x20
 12551 013c 0B       		.uleb128 0xb
 12552 013d 01       		.uleb128 0x1
 12553 013e 13       		.uleb128 0x13
 12554 013f 00       		.byte	0
 12555 0140 00       		.byte	0
 12556 0141 1C       		.uleb128 0x1c
 12557 0142 05       		.uleb128 0x5
 12558 0143 00       		.byte	0
 12559 0144 03       		.uleb128 0x3
 12560 0145 0E       		.uleb128 0xe
 12561 0146 3A       		.uleb128 0x3a
 12562 0147 0B       		.uleb128 0xb
 12563 0148 3B       		.uleb128 0x3b
 12564 0149 05       		.uleb128 0x5
 12565 014a 49       		.uleb128 0x49
 12566 014b 13       		.uleb128 0x13
 12567 014c 00       		.byte	0
 12568 014d 00       		.byte	0
 12569 014e 1D       		.uleb128 0x1d
ARM GAS  C:\Users\Helon\AppData\Local\Temp\ccKCxrf8.s 			page 290


 12570 014f 34       		.uleb128 0x34
 12571 0150 00       		.byte	0
 12572 0151 03       		.uleb128 0x3
 12573 0152 08       		.uleb128 0x8
 12574 0153 3A       		.uleb128 0x3a
 12575 0154 0B       		.uleb128 0xb
 12576 0155 3B       		.uleb128 0x3b
 12577 0156 05       		.uleb128 0x5
 12578 0157 49       		.uleb128 0x49
 12579 0158 13       		.uleb128 0x13
 12580 0159 00       		.byte	0
 12581 015a 00       		.byte	0
 12582 015b 1E       		.uleb128 0x1e
 12583 015c 05       		.uleb128 0x5
 12584 015d 00       		.byte	0
 12585 015e 03       		.uleb128 0x3
 12586 015f 08       		.uleb128 0x8
 12587 0160 3A       		.uleb128 0x3a
 12588 0161 0B       		.uleb128 0xb
 12589 0162 3B       		.uleb128 0x3b
 12590 0163 05       		.uleb128 0x5
 12591 0164 49       		.uleb128 0x49
 12592 0165 13       		.uleb128 0x13
 12593 0166 00       		.byte	0
 12594 0167 00       		.byte	0
 12595 0168 1F       		.uleb128 0x1f
 12596 0169 2E       		.uleb128 0x2e
 12597 016a 01       		.byte	0x1
 12598 016b 3F       		.uleb128 0x3f
 12599 016c 19       		.uleb128 0x19
 12600 016d 03       		.uleb128 0x3
 12601 016e 0E       		.uleb128 0xe
 12602 016f 3A       		.uleb128 0x3a
 12603 0170 0B       		.uleb128 0xb
 12604 0171 3B       		.uleb128 0x3b
 12605 0172 0B       		.uleb128 0xb
 12606 0173 27       		.uleb128 0x27
 12607 0174 19       		.uleb128 0x19
 12608 0175 11       		.uleb128 0x11
 12609 0176 01       		.uleb128 0x1
 12610 0177 12       		.uleb128 0x12
 12611 0178 06       		.uleb128 0x6
 12612 0179 40       		.uleb128 0x40
 12613 017a 18       		.uleb128 0x18
 12614 017b 9742     		.uleb128 0x2117
 12615 017d 19       		.uleb128 0x19
 12616 017e 01       		.uleb128 0x1
 12617 017f 13       		.uleb128 0x13
 12618 0180 00       		.byte	0
 12619 0181 00       		.byte	0
 12620 0182 20       		.uleb128 0x20
 12621 0183 05       		.uleb128 0x5
 12622 0184 00       		.byte	0
 12623 0185 03       		.uleb128 0x3
 12624 0186 0E       		.uleb128 0xe
 12625 0187 3A       		.uleb128 0x3a
 12626 0188 0B       		.uleb128 0xb
ARM GAS  C:\Users\Helon\AppData\Local\Temp\ccKCxrf8.s 			page 291


 12627 0189 3B       		.uleb128 0x3b
 12628 018a 0B       		.uleb128 0xb
 12629 018b 49       		.uleb128 0x49
 12630 018c 13       		.uleb128 0x13
 12631 018d 02       		.uleb128 0x2
 12632 018e 17       		.uleb128 0x17
 12633 018f 00       		.byte	0
 12634 0190 00       		.byte	0
 12635 0191 21       		.uleb128 0x21
 12636 0192 34       		.uleb128 0x34
 12637 0193 00       		.byte	0
 12638 0194 03       		.uleb128 0x3
 12639 0195 0E       		.uleb128 0xe
 12640 0196 3A       		.uleb128 0x3a
 12641 0197 0B       		.uleb128 0xb
 12642 0198 3B       		.uleb128 0x3b
 12643 0199 0B       		.uleb128 0xb
 12644 019a 49       		.uleb128 0x49
 12645 019b 13       		.uleb128 0x13
 12646 019c 02       		.uleb128 0x2
 12647 019d 18       		.uleb128 0x18
 12648 019e 00       		.byte	0
 12649 019f 00       		.byte	0
 12650 01a0 22       		.uleb128 0x22
 12651 01a1 34       		.uleb128 0x34
 12652 01a2 00       		.byte	0
 12653 01a3 03       		.uleb128 0x3
 12654 01a4 0E       		.uleb128 0xe
 12655 01a5 3A       		.uleb128 0x3a
 12656 01a6 0B       		.uleb128 0xb
 12657 01a7 3B       		.uleb128 0x3b
 12658 01a8 0B       		.uleb128 0xb
 12659 01a9 49       		.uleb128 0x49
 12660 01aa 13       		.uleb128 0x13
 12661 01ab 02       		.uleb128 0x2
 12662 01ac 17       		.uleb128 0x17
 12663 01ad 00       		.byte	0
 12664 01ae 00       		.byte	0
 12665 01af 23       		.uleb128 0x23
 12666 01b0 34       		.uleb128 0x34
 12667 01b1 00       		.byte	0
 12668 01b2 03       		.uleb128 0x3
 12669 01b3 08       		.uleb128 0x8
 12670 01b4 3A       		.uleb128 0x3a
 12671 01b5 0B       		.uleb128 0xb
 12672 01b6 3B       		.uleb128 0x3b
 12673 01b7 0B       		.uleb128 0xb
 12674 01b8 49       		.uleb128 0x49
 12675 01b9 13       		.uleb128 0x13
 12676 01ba 02       		.uleb128 0x2
 12677 01bb 17       		.uleb128 0x17
 12678 01bc 00       		.byte	0
 12679 01bd 00       		.byte	0
 12680 01be 24       		.uleb128 0x24
 12681 01bf 898201   		.uleb128 0x4109
 12682 01c2 01       		.byte	0x1
 12683 01c3 11       		.uleb128 0x11
ARM GAS  C:\Users\Helon\AppData\Local\Temp\ccKCxrf8.s 			page 292


 12684 01c4 01       		.uleb128 0x1
 12685 01c5 31       		.uleb128 0x31
 12686 01c6 13       		.uleb128 0x13
 12687 01c7 01       		.uleb128 0x1
 12688 01c8 13       		.uleb128 0x13
 12689 01c9 00       		.byte	0
 12690 01ca 00       		.byte	0
 12691 01cb 25       		.uleb128 0x25
 12692 01cc 8A8201   		.uleb128 0x410a
 12693 01cf 00       		.byte	0
 12694 01d0 02       		.uleb128 0x2
 12695 01d1 18       		.uleb128 0x18
 12696 01d2 9142     		.uleb128 0x2111
 12697 01d4 18       		.uleb128 0x18
 12698 01d5 00       		.byte	0
 12699 01d6 00       		.byte	0
 12700 01d7 26       		.uleb128 0x26
 12701 01d8 898201   		.uleb128 0x4109
 12702 01db 00       		.byte	0
 12703 01dc 11       		.uleb128 0x11
 12704 01dd 01       		.uleb128 0x1
 12705 01de 31       		.uleb128 0x31
 12706 01df 13       		.uleb128 0x13
 12707 01e0 00       		.byte	0
 12708 01e1 00       		.byte	0
 12709 01e2 27       		.uleb128 0x27
 12710 01e3 898201   		.uleb128 0x4109
 12711 01e6 01       		.byte	0x1
 12712 01e7 11       		.uleb128 0x11
 12713 01e8 01       		.uleb128 0x1
 12714 01e9 31       		.uleb128 0x31
 12715 01ea 13       		.uleb128 0x13
 12716 01eb 00       		.byte	0
 12717 01ec 00       		.byte	0
 12718 01ed 28       		.uleb128 0x28
 12719 01ee 2E       		.uleb128 0x2e
 12720 01ef 01       		.byte	0x1
 12721 01f0 31       		.uleb128 0x31
 12722 01f1 13       		.uleb128 0x13
 12723 01f2 11       		.uleb128 0x11
 12724 01f3 01       		.uleb128 0x1
 12725 01f4 12       		.uleb128 0x12
 12726 01f5 06       		.uleb128 0x6
 12727 01f6 40       		.uleb128 0x40
 12728 01f7 18       		.uleb128 0x18
 12729 01f8 9742     		.uleb128 0x2117
 12730 01fa 19       		.uleb128 0x19
 12731 01fb 01       		.uleb128 0x1
 12732 01fc 13       		.uleb128 0x13
 12733 01fd 00       		.byte	0
 12734 01fe 00       		.byte	0
 12735 01ff 29       		.uleb128 0x29
 12736 0200 34       		.uleb128 0x34
 12737 0201 00       		.byte	0
 12738 0202 31       		.uleb128 0x31
 12739 0203 13       		.uleb128 0x13
 12740 0204 02       		.uleb128 0x2
ARM GAS  C:\Users\Helon\AppData\Local\Temp\ccKCxrf8.s 			page 293


 12741 0205 18       		.uleb128 0x18
 12742 0206 00       		.byte	0
 12743 0207 00       		.byte	0
 12744 0208 2A       		.uleb128 0x2a
 12745 0209 0B       		.uleb128 0xb
 12746 020a 01       		.byte	0x1
 12747 020b 11       		.uleb128 0x11
 12748 020c 01       		.uleb128 0x1
 12749 020d 12       		.uleb128 0x12
 12750 020e 06       		.uleb128 0x6
 12751 020f 01       		.uleb128 0x1
 12752 0210 13       		.uleb128 0x13
 12753 0211 00       		.byte	0
 12754 0212 00       		.byte	0
 12755 0213 2B       		.uleb128 0x2b
 12756 0214 2E       		.uleb128 0x2e
 12757 0215 01       		.byte	0x1
 12758 0216 3F       		.uleb128 0x3f
 12759 0217 19       		.uleb128 0x19
 12760 0218 03       		.uleb128 0x3
 12761 0219 0E       		.uleb128 0xe
 12762 021a 3A       		.uleb128 0x3a
 12763 021b 0B       		.uleb128 0xb
 12764 021c 3B       		.uleb128 0x3b
 12765 021d 05       		.uleb128 0x5
 12766 021e 27       		.uleb128 0x27
 12767 021f 19       		.uleb128 0x19
 12768 0220 11       		.uleb128 0x11
 12769 0221 01       		.uleb128 0x1
 12770 0222 12       		.uleb128 0x12
 12771 0223 06       		.uleb128 0x6
 12772 0224 40       		.uleb128 0x40
 12773 0225 18       		.uleb128 0x18
 12774 0226 9742     		.uleb128 0x2117
 12775 0228 19       		.uleb128 0x19
 12776 0229 01       		.uleb128 0x1
 12777 022a 13       		.uleb128 0x13
 12778 022b 00       		.byte	0
 12779 022c 00       		.byte	0
 12780 022d 2C       		.uleb128 0x2c
 12781 022e 34       		.uleb128 0x34
 12782 022f 00       		.byte	0
 12783 0230 03       		.uleb128 0x3
 12784 0231 0E       		.uleb128 0xe
 12785 0232 3A       		.uleb128 0x3a
 12786 0233 0B       		.uleb128 0xb
 12787 0234 3B       		.uleb128 0x3b
 12788 0235 05       		.uleb128 0x5
 12789 0236 49       		.uleb128 0x49
 12790 0237 13       		.uleb128 0x13
 12791 0238 02       		.uleb128 0x2
 12792 0239 17       		.uleb128 0x17
 12793 023a 00       		.byte	0
 12794 023b 00       		.byte	0
 12795 023c 2D       		.uleb128 0x2d
 12796 023d 2E       		.uleb128 0x2e
 12797 023e 00       		.byte	0
ARM GAS  C:\Users\Helon\AppData\Local\Temp\ccKCxrf8.s 			page 294


 12798 023f 3F       		.uleb128 0x3f
 12799 0240 19       		.uleb128 0x19
 12800 0241 03       		.uleb128 0x3
 12801 0242 0E       		.uleb128 0xe
 12802 0243 3A       		.uleb128 0x3a
 12803 0244 0B       		.uleb128 0xb
 12804 0245 3B       		.uleb128 0x3b
 12805 0246 05       		.uleb128 0x5
 12806 0247 27       		.uleb128 0x27
 12807 0248 19       		.uleb128 0x19
 12808 0249 11       		.uleb128 0x11
 12809 024a 01       		.uleb128 0x1
 12810 024b 12       		.uleb128 0x12
 12811 024c 06       		.uleb128 0x6
 12812 024d 40       		.uleb128 0x40
 12813 024e 18       		.uleb128 0x18
 12814 024f 9742     		.uleb128 0x2117
 12815 0251 19       		.uleb128 0x19
 12816 0252 00       		.byte	0
 12817 0253 00       		.byte	0
 12818 0254 2E       		.uleb128 0x2e
 12819 0255 05       		.uleb128 0x5
 12820 0256 00       		.byte	0
 12821 0257 31       		.uleb128 0x31
 12822 0258 13       		.uleb128 0x13
 12823 0259 02       		.uleb128 0x2
 12824 025a 18       		.uleb128 0x18
 12825 025b 00       		.byte	0
 12826 025c 00       		.byte	0
 12827 025d 2F       		.uleb128 0x2f
 12828 025e 05       		.uleb128 0x5
 12829 025f 00       		.byte	0
 12830 0260 31       		.uleb128 0x31
 12831 0261 13       		.uleb128 0x13
 12832 0262 02       		.uleb128 0x2
 12833 0263 17       		.uleb128 0x17
 12834 0264 00       		.byte	0
 12835 0265 00       		.byte	0
 12836 0266 30       		.uleb128 0x30
 12837 0267 34       		.uleb128 0x34
 12838 0268 00       		.byte	0
 12839 0269 31       		.uleb128 0x31
 12840 026a 13       		.uleb128 0x13
 12841 026b 02       		.uleb128 0x2
 12842 026c 17       		.uleb128 0x17
 12843 026d 00       		.byte	0
 12844 026e 00       		.byte	0
 12845 026f 31       		.uleb128 0x31
 12846 0270 34       		.uleb128 0x34
 12847 0271 00       		.byte	0
 12848 0272 31       		.uleb128 0x31
 12849 0273 13       		.uleb128 0x13
 12850 0274 00       		.byte	0
 12851 0275 00       		.byte	0
 12852 0276 32       		.uleb128 0x32
 12853 0277 0B       		.uleb128 0xb
 12854 0278 01       		.byte	0x1
ARM GAS  C:\Users\Helon\AppData\Local\Temp\ccKCxrf8.s 			page 295


 12855 0279 11       		.uleb128 0x11
 12856 027a 01       		.uleb128 0x1
 12857 027b 12       		.uleb128 0x12
 12858 027c 06       		.uleb128 0x6
 12859 027d 00       		.byte	0
 12860 027e 00       		.byte	0
 12861 027f 33       		.uleb128 0x33
 12862 0280 05       		.uleb128 0x5
 12863 0281 00       		.byte	0
 12864 0282 03       		.uleb128 0x3
 12865 0283 08       		.uleb128 0x8
 12866 0284 3A       		.uleb128 0x3a
 12867 0285 0B       		.uleb128 0xb
 12868 0286 3B       		.uleb128 0x3b
 12869 0287 05       		.uleb128 0x5
 12870 0288 49       		.uleb128 0x49
 12871 0289 13       		.uleb128 0x13
 12872 028a 02       		.uleb128 0x2
 12873 028b 17       		.uleb128 0x17
 12874 028c 00       		.byte	0
 12875 028d 00       		.byte	0
 12876 028e 34       		.uleb128 0x34
 12877 028f 34       		.uleb128 0x34
 12878 0290 00       		.byte	0
 12879 0291 03       		.uleb128 0x3
 12880 0292 0E       		.uleb128 0xe
 12881 0293 3A       		.uleb128 0x3a
 12882 0294 0B       		.uleb128 0xb
 12883 0295 3B       		.uleb128 0x3b
 12884 0296 05       		.uleb128 0x5
 12885 0297 49       		.uleb128 0x49
 12886 0298 13       		.uleb128 0x13
 12887 0299 1C       		.uleb128 0x1c
 12888 029a 0B       		.uleb128 0xb
 12889 029b 00       		.byte	0
 12890 029c 00       		.byte	0
 12891 029d 35       		.uleb128 0x35
 12892 029e 34       		.uleb128 0x34
 12893 029f 00       		.byte	0
 12894 02a0 03       		.uleb128 0x3
 12895 02a1 0E       		.uleb128 0xe
 12896 02a2 3A       		.uleb128 0x3a
 12897 02a3 0B       		.uleb128 0xb
 12898 02a4 3B       		.uleb128 0x3b
 12899 02a5 05       		.uleb128 0x5
 12900 02a6 49       		.uleb128 0x49
 12901 02a7 13       		.uleb128 0x13
 12902 02a8 02       		.uleb128 0x2
 12903 02a9 18       		.uleb128 0x18
 12904 02aa 00       		.byte	0
 12905 02ab 00       		.byte	0
 12906 02ac 36       		.uleb128 0x36
 12907 02ad 34       		.uleb128 0x34
 12908 02ae 00       		.byte	0
 12909 02af 31       		.uleb128 0x31
 12910 02b0 13       		.uleb128 0x13
 12911 02b1 1C       		.uleb128 0x1c
ARM GAS  C:\Users\Helon\AppData\Local\Temp\ccKCxrf8.s 			page 296


 12912 02b2 0B       		.uleb128 0xb
 12913 02b3 00       		.byte	0
 12914 02b4 00       		.byte	0
 12915 02b5 37       		.uleb128 0x37
 12916 02b6 05       		.uleb128 0x5
 12917 02b7 00       		.byte	0
 12918 02b8 03       		.uleb128 0x3
 12919 02b9 0E       		.uleb128 0xe
 12920 02ba 3A       		.uleb128 0x3a
 12921 02bb 0B       		.uleb128 0xb
 12922 02bc 3B       		.uleb128 0x3b
 12923 02bd 05       		.uleb128 0x5
 12924 02be 49       		.uleb128 0x49
 12925 02bf 13       		.uleb128 0x13
 12926 02c0 02       		.uleb128 0x2
 12927 02c1 18       		.uleb128 0x18
 12928 02c2 00       		.byte	0
 12929 02c3 00       		.byte	0
 12930 02c4 38       		.uleb128 0x38
 12931 02c5 05       		.uleb128 0x5
 12932 02c6 00       		.byte	0
 12933 02c7 03       		.uleb128 0x3
 12934 02c8 0E       		.uleb128 0xe
 12935 02c9 3A       		.uleb128 0x3a
 12936 02ca 0B       		.uleb128 0xb
 12937 02cb 3B       		.uleb128 0x3b
 12938 02cc 05       		.uleb128 0x5
 12939 02cd 49       		.uleb128 0x49
 12940 02ce 13       		.uleb128 0x13
 12941 02cf 02       		.uleb128 0x2
 12942 02d0 17       		.uleb128 0x17
 12943 02d1 00       		.byte	0
 12944 02d2 00       		.byte	0
 12945 02d3 39       		.uleb128 0x39
 12946 02d4 34       		.uleb128 0x34
 12947 02d5 00       		.byte	0
 12948 02d6 03       		.uleb128 0x3
 12949 02d7 08       		.uleb128 0x8
 12950 02d8 3A       		.uleb128 0x3a
 12951 02d9 0B       		.uleb128 0xb
 12952 02da 3B       		.uleb128 0x3b
 12953 02db 05       		.uleb128 0x5
 12954 02dc 49       		.uleb128 0x49
 12955 02dd 13       		.uleb128 0x13
 12956 02de 02       		.uleb128 0x2
 12957 02df 17       		.uleb128 0x17
 12958 02e0 00       		.byte	0
 12959 02e1 00       		.byte	0
 12960 02e2 3A       		.uleb128 0x3a
 12961 02e3 0B       		.uleb128 0xb
 12962 02e4 01       		.byte	0x1
 12963 02e5 55       		.uleb128 0x55
 12964 02e6 17       		.uleb128 0x17
 12965 02e7 01       		.uleb128 0x1
 12966 02e8 13       		.uleb128 0x13
 12967 02e9 00       		.byte	0
 12968 02ea 00       		.byte	0
ARM GAS  C:\Users\Helon\AppData\Local\Temp\ccKCxrf8.s 			page 297


 12969 02eb 3B       		.uleb128 0x3b
 12970 02ec 2E       		.uleb128 0x2e
 12971 02ed 01       		.byte	0x1
 12972 02ee 3F       		.uleb128 0x3f
 12973 02ef 19       		.uleb128 0x19
 12974 02f0 03       		.uleb128 0x3
 12975 02f1 0E       		.uleb128 0xe
 12976 02f2 3A       		.uleb128 0x3a
 12977 02f3 0B       		.uleb128 0xb
 12978 02f4 3B       		.uleb128 0x3b
 12979 02f5 05       		.uleb128 0x5
 12980 02f6 27       		.uleb128 0x27
 12981 02f7 19       		.uleb128 0x19
 12982 02f8 11       		.uleb128 0x11
 12983 02f9 01       		.uleb128 0x1
 12984 02fa 12       		.uleb128 0x12
 12985 02fb 06       		.uleb128 0x6
 12986 02fc 40       		.uleb128 0x40
 12987 02fd 18       		.uleb128 0x18
 12988 02fe 9642     		.uleb128 0x2116
 12989 0300 19       		.uleb128 0x19
 12990 0301 01       		.uleb128 0x1
 12991 0302 13       		.uleb128 0x13
 12992 0303 00       		.byte	0
 12993 0304 00       		.byte	0
 12994 0305 3C       		.uleb128 0x3c
 12995 0306 34       		.uleb128 0x34
 12996 0307 00       		.byte	0
 12997 0308 34       		.uleb128 0x34
 12998 0309 19       		.uleb128 0x19
 12999 030a 49       		.uleb128 0x49
 13000 030b 13       		.uleb128 0x13
 13001 030c 02       		.uleb128 0x2
 13002 030d 17       		.uleb128 0x17
 13003 030e 00       		.byte	0
 13004 030f 00       		.byte	0
 13005 0310 3D       		.uleb128 0x3d
 13006 0311 21       		.uleb128 0x21
 13007 0312 00       		.byte	0
 13008 0313 49       		.uleb128 0x49
 13009 0314 13       		.uleb128 0x13
 13010 0315 2F       		.uleb128 0x2f
 13011 0316 13       		.uleb128 0x13
 13012 0317 00       		.byte	0
 13013 0318 00       		.byte	0
 13014 0319 3E       		.uleb128 0x3e
 13015 031a 2E       		.uleb128 0x2e
 13016 031b 01       		.byte	0x1
 13017 031c 3F       		.uleb128 0x3f
 13018 031d 19       		.uleb128 0x19
 13019 031e 03       		.uleb128 0x3
 13020 031f 0E       		.uleb128 0xe
 13021 0320 3A       		.uleb128 0x3a
 13022 0321 0B       		.uleb128 0xb
 13023 0322 3B       		.uleb128 0x3b
 13024 0323 05       		.uleb128 0x5
 13025 0324 27       		.uleb128 0x27
ARM GAS  C:\Users\Helon\AppData\Local\Temp\ccKCxrf8.s 			page 298


 13026 0325 19       		.uleb128 0x19
 13027 0326 49       		.uleb128 0x49
 13028 0327 13       		.uleb128 0x13
 13029 0328 11       		.uleb128 0x11
 13030 0329 01       		.uleb128 0x1
 13031 032a 12       		.uleb128 0x12
 13032 032b 06       		.uleb128 0x6
 13033 032c 40       		.uleb128 0x40
 13034 032d 18       		.uleb128 0x18
 13035 032e 9742     		.uleb128 0x2117
 13036 0330 19       		.uleb128 0x19
 13037 0331 01       		.uleb128 0x1
 13038 0332 13       		.uleb128 0x13
 13039 0333 00       		.byte	0
 13040 0334 00       		.byte	0
 13041 0335 3F       		.uleb128 0x3f
 13042 0336 34       		.uleb128 0x34
 13043 0337 00       		.byte	0
 13044 0338 03       		.uleb128 0x3
 13045 0339 0E       		.uleb128 0xe
 13046 033a 3A       		.uleb128 0x3a
 13047 033b 0B       		.uleb128 0xb
 13048 033c 3B       		.uleb128 0x3b
 13049 033d 0B       		.uleb128 0xb
 13050 033e 49       		.uleb128 0x49
 13051 033f 13       		.uleb128 0x13
 13052 0340 3F       		.uleb128 0x3f
 13053 0341 19       		.uleb128 0x19
 13054 0342 3C       		.uleb128 0x3c
 13055 0343 19       		.uleb128 0x19
 13056 0344 00       		.byte	0
 13057 0345 00       		.byte	0
 13058 0346 40       		.uleb128 0x40
 13059 0347 34       		.uleb128 0x34
 13060 0348 00       		.byte	0
 13061 0349 03       		.uleb128 0x3
 13062 034a 0E       		.uleb128 0xe
 13063 034b 3A       		.uleb128 0x3a
 13064 034c 0B       		.uleb128 0xb
 13065 034d 3B       		.uleb128 0x3b
 13066 034e 05       		.uleb128 0x5
 13067 034f 49       		.uleb128 0x49
 13068 0350 13       		.uleb128 0x13
 13069 0351 3F       		.uleb128 0x3f
 13070 0352 19       		.uleb128 0x19
 13071 0353 3C       		.uleb128 0x3c
 13072 0354 19       		.uleb128 0x19
 13073 0355 00       		.byte	0
 13074 0356 00       		.byte	0
 13075 0357 41       		.uleb128 0x41
 13076 0358 34       		.uleb128 0x34
 13077 0359 00       		.byte	0
 13078 035a 03       		.uleb128 0x3
 13079 035b 0E       		.uleb128 0xe
 13080 035c 3A       		.uleb128 0x3a
 13081 035d 0B       		.uleb128 0xb
 13082 035e 3B       		.uleb128 0x3b
ARM GAS  C:\Users\Helon\AppData\Local\Temp\ccKCxrf8.s 			page 299


 13083 035f 0B       		.uleb128 0xb
 13084 0360 49       		.uleb128 0x49
 13085 0361 13       		.uleb128 0x13
 13086 0362 3F       		.uleb128 0x3f
 13087 0363 19       		.uleb128 0x19
 13088 0364 02       		.uleb128 0x2
 13089 0365 18       		.uleb128 0x18
 13090 0366 00       		.byte	0
 13091 0367 00       		.byte	0
 13092 0368 42       		.uleb128 0x42
 13093 0369 2E       		.uleb128 0x2e
 13094 036a 01       		.byte	0x1
 13095 036b 3F       		.uleb128 0x3f
 13096 036c 19       		.uleb128 0x19
 13097 036d 03       		.uleb128 0x3
 13098 036e 0E       		.uleb128 0xe
 13099 036f 3A       		.uleb128 0x3a
 13100 0370 0B       		.uleb128 0xb
 13101 0371 3B       		.uleb128 0x3b
 13102 0372 0B       		.uleb128 0xb
 13103 0373 6E       		.uleb128 0x6e
 13104 0374 0E       		.uleb128 0xe
 13105 0375 27       		.uleb128 0x27
 13106 0376 19       		.uleb128 0x19
 13107 0377 49       		.uleb128 0x49
 13108 0378 13       		.uleb128 0x13
 13109 0379 3C       		.uleb128 0x3c
 13110 037a 19       		.uleb128 0x19
 13111 037b 01       		.uleb128 0x1
 13112 037c 13       		.uleb128 0x13
 13113 037d 00       		.byte	0
 13114 037e 00       		.byte	0
 13115 037f 43       		.uleb128 0x43
 13116 0380 2E       		.uleb128 0x2e
 13117 0381 00       		.byte	0
 13118 0382 3F       		.uleb128 0x3f
 13119 0383 19       		.uleb128 0x19
 13120 0384 03       		.uleb128 0x3
 13121 0385 0E       		.uleb128 0xe
 13122 0386 3A       		.uleb128 0x3a
 13123 0387 0B       		.uleb128 0xb
 13124 0388 3B       		.uleb128 0x3b
 13125 0389 05       		.uleb128 0x5
 13126 038a 27       		.uleb128 0x27
 13127 038b 19       		.uleb128 0x19
 13128 038c 49       		.uleb128 0x49
 13129 038d 13       		.uleb128 0x13
 13130 038e 3C       		.uleb128 0x3c
 13131 038f 19       		.uleb128 0x19
 13132 0390 00       		.byte	0
 13133 0391 00       		.byte	0
 13134 0392 44       		.uleb128 0x44
 13135 0393 2E       		.uleb128 0x2e
 13136 0394 01       		.byte	0x1
 13137 0395 3F       		.uleb128 0x3f
 13138 0396 19       		.uleb128 0x19
 13139 0397 03       		.uleb128 0x3
ARM GAS  C:\Users\Helon\AppData\Local\Temp\ccKCxrf8.s 			page 300


 13140 0398 0E       		.uleb128 0xe
 13141 0399 3A       		.uleb128 0x3a
 13142 039a 0B       		.uleb128 0xb
 13143 039b 3B       		.uleb128 0x3b
 13144 039c 0B       		.uleb128 0xb
 13145 039d 27       		.uleb128 0x27
 13146 039e 19       		.uleb128 0x19
 13147 039f 3C       		.uleb128 0x3c
 13148 03a0 19       		.uleb128 0x19
 13149 03a1 01       		.uleb128 0x1
 13150 03a2 13       		.uleb128 0x13
 13151 03a3 00       		.byte	0
 13152 03a4 00       		.byte	0
 13153 03a5 45       		.uleb128 0x45
 13154 03a6 2E       		.uleb128 0x2e
 13155 03a7 00       		.byte	0
 13156 03a8 3F       		.uleb128 0x3f
 13157 03a9 19       		.uleb128 0x19
 13158 03aa 03       		.uleb128 0x3
 13159 03ab 0E       		.uleb128 0xe
 13160 03ac 3A       		.uleb128 0x3a
 13161 03ad 0B       		.uleb128 0xb
 13162 03ae 3B       		.uleb128 0x3b
 13163 03af 05       		.uleb128 0x5
 13164 03b0 27       		.uleb128 0x27
 13165 03b1 19       		.uleb128 0x19
 13166 03b2 3C       		.uleb128 0x3c
 13167 03b3 19       		.uleb128 0x19
 13168 03b4 00       		.byte	0
 13169 03b5 00       		.byte	0
 13170 03b6 46       		.uleb128 0x46
 13171 03b7 2E       		.uleb128 0x2e
 13172 03b8 01       		.byte	0x1
 13173 03b9 3F       		.uleb128 0x3f
 13174 03ba 19       		.uleb128 0x19
 13175 03bb 03       		.uleb128 0x3
 13176 03bc 0E       		.uleb128 0xe
 13177 03bd 3A       		.uleb128 0x3a
 13178 03be 0B       		.uleb128 0xb
 13179 03bf 3B       		.uleb128 0x3b
 13180 03c0 05       		.uleb128 0x5
 13181 03c1 27       		.uleb128 0x27
 13182 03c2 19       		.uleb128 0x19
 13183 03c3 49       		.uleb128 0x49
 13184 03c4 13       		.uleb128 0x13
 13185 03c5 3C       		.uleb128 0x3c
 13186 03c6 19       		.uleb128 0x19
 13187 03c7 01       		.uleb128 0x1
 13188 03c8 13       		.uleb128 0x13
 13189 03c9 00       		.byte	0
 13190 03ca 00       		.byte	0
 13191 03cb 47       		.uleb128 0x47
 13192 03cc 2E       		.uleb128 0x2e
 13193 03cd 01       		.byte	0x1
 13194 03ce 3F       		.uleb128 0x3f
 13195 03cf 19       		.uleb128 0x19
 13196 03d0 03       		.uleb128 0x3
ARM GAS  C:\Users\Helon\AppData\Local\Temp\ccKCxrf8.s 			page 301


 13197 03d1 0E       		.uleb128 0xe
 13198 03d2 27       		.uleb128 0x27
 13199 03d3 19       		.uleb128 0x19
 13200 03d4 49       		.uleb128 0x49
 13201 03d5 13       		.uleb128 0x13
 13202 03d6 34       		.uleb128 0x34
 13203 03d7 19       		.uleb128 0x19
 13204 03d8 3C       		.uleb128 0x3c
 13205 03d9 19       		.uleb128 0x19
 13206 03da 01       		.uleb128 0x1
 13207 03db 13       		.uleb128 0x13
 13208 03dc 00       		.byte	0
 13209 03dd 00       		.byte	0
 13210 03de 48       		.uleb128 0x48
 13211 03df 26       		.uleb128 0x26
 13212 03e0 00       		.byte	0
 13213 03e1 00       		.byte	0
 13214 03e2 00       		.byte	0
 13215 03e3 49       		.uleb128 0x49
 13216 03e4 2E       		.uleb128 0x2e
 13217 03e5 01       		.byte	0x1
 13218 03e6 3F       		.uleb128 0x3f
 13219 03e7 19       		.uleb128 0x19
 13220 03e8 03       		.uleb128 0x3
 13221 03e9 0E       		.uleb128 0xe
 13222 03ea 3A       		.uleb128 0x3a
 13223 03eb 0B       		.uleb128 0xb
 13224 03ec 3B       		.uleb128 0x3b
 13225 03ed 0B       		.uleb128 0xb
 13226 03ee 27       		.uleb128 0x27
 13227 03ef 19       		.uleb128 0x19
 13228 03f0 49       		.uleb128 0x49
 13229 03f1 13       		.uleb128 0x13
 13230 03f2 3C       		.uleb128 0x3c
 13231 03f3 19       		.uleb128 0x19
 13232 03f4 01       		.uleb128 0x1
 13233 03f5 13       		.uleb128 0x13
 13234 03f6 00       		.byte	0
 13235 03f7 00       		.byte	0
 13236 03f8 4A       		.uleb128 0x4a
 13237 03f9 18       		.uleb128 0x18
 13238 03fa 00       		.byte	0
 13239 03fb 00       		.byte	0
 13240 03fc 00       		.byte	0
 13241 03fd 4B       		.uleb128 0x4b
 13242 03fe 2E       		.uleb128 0x2e
 13243 03ff 00       		.byte	0
 13244 0400 3F       		.uleb128 0x3f
 13245 0401 19       		.uleb128 0x19
 13246 0402 03       		.uleb128 0x3
 13247 0403 0E       		.uleb128 0xe
 13248 0404 3A       		.uleb128 0x3a
 13249 0405 0B       		.uleb128 0xb
 13250 0406 3B       		.uleb128 0x3b
 13251 0407 0B       		.uleb128 0xb
 13252 0408 27       		.uleb128 0x27
 13253 0409 19       		.uleb128 0x19
ARM GAS  C:\Users\Helon\AppData\Local\Temp\ccKCxrf8.s 			page 302


 13254 040a 3C       		.uleb128 0x3c
 13255 040b 19       		.uleb128 0x19
 13256 040c 00       		.byte	0
 13257 040d 00       		.byte	0
 13258 040e 4C       		.uleb128 0x4c
 13259 040f 2E       		.uleb128 0x2e
 13260 0410 01       		.byte	0x1
 13261 0411 3F       		.uleb128 0x3f
 13262 0412 19       		.uleb128 0x19
 13263 0413 03       		.uleb128 0x3
 13264 0414 0E       		.uleb128 0xe
 13265 0415 3A       		.uleb128 0x3a
 13266 0416 0B       		.uleb128 0xb
 13267 0417 3B       		.uleb128 0x3b
 13268 0418 05       		.uleb128 0x5
 13269 0419 27       		.uleb128 0x27
 13270 041a 19       		.uleb128 0x19
 13271 041b 3C       		.uleb128 0x3c
 13272 041c 19       		.uleb128 0x19
 13273 041d 01       		.uleb128 0x1
 13274 041e 13       		.uleb128 0x13
 13275 041f 00       		.byte	0
 13276 0420 00       		.byte	0
 13277 0421 4D       		.uleb128 0x4d
 13278 0422 2E       		.uleb128 0x2e
 13279 0423 00       		.byte	0
 13280 0424 3F       		.uleb128 0x3f
 13281 0425 19       		.uleb128 0x19
 13282 0426 03       		.uleb128 0x3
 13283 0427 0E       		.uleb128 0xe
 13284 0428 3A       		.uleb128 0x3a
 13285 0429 0B       		.uleb128 0xb
 13286 042a 3B       		.uleb128 0x3b
 13287 042b 0B       		.uleb128 0xb
 13288 042c 27       		.uleb128 0x27
 13289 042d 19       		.uleb128 0x19
 13290 042e 49       		.uleb128 0x49
 13291 042f 13       		.uleb128 0x13
 13292 0430 3C       		.uleb128 0x3c
 13293 0431 19       		.uleb128 0x19
 13294 0432 00       		.byte	0
 13295 0433 00       		.byte	0
 13296 0434 4E       		.uleb128 0x4e
 13297 0435 2E       		.uleb128 0x2e
 13298 0436 01       		.byte	0x1
 13299 0437 3F       		.uleb128 0x3f
 13300 0438 19       		.uleb128 0x19
 13301 0439 03       		.uleb128 0x3
 13302 043a 0E       		.uleb128 0xe
 13303 043b 3A       		.uleb128 0x3a
 13304 043c 0B       		.uleb128 0xb
 13305 043d 3B       		.uleb128 0x3b
 13306 043e 05       		.uleb128 0x5
 13307 043f 27       		.uleb128 0x27
 13308 0440 19       		.uleb128 0x19
 13309 0441 49       		.uleb128 0x49
 13310 0442 13       		.uleb128 0x13
ARM GAS  C:\Users\Helon\AppData\Local\Temp\ccKCxrf8.s 			page 303


 13311 0443 3C       		.uleb128 0x3c
 13312 0444 19       		.uleb128 0x19
 13313 0445 00       		.byte	0
 13314 0446 00       		.byte	0
 13315 0447 00       		.byte	0
 13316              		.section	.debug_loc,"",%progbits
 13317              	.Ldebug_loc0:
 13318              	.LLST0:
 13319 0000 00000000 		.4byte	.LVL0
 13320 0004 26000000 		.4byte	.LVL1
 13321 0008 0100     		.2byte	0x1
 13322 000a 50       		.byte	0x50
 13323 000b 26000000 		.4byte	.LVL1
 13324 000f 2C000000 		.4byte	.LVL3
 13325 0013 0400     		.2byte	0x4
 13326 0015 F3       		.byte	0xf3
 13327 0016 01       		.uleb128 0x1
 13328 0017 50       		.byte	0x50
 13329 0018 9F       		.byte	0x9f
 13330 0019 2C000000 		.4byte	.LVL3
 13331 001d 40000000 		.4byte	.LVL4
 13332 0021 0100     		.2byte	0x1
 13333 0023 50       		.byte	0x50
 13334 0024 40000000 		.4byte	.LVL4
 13335 0028 42000000 		.4byte	.LVL5
 13336 002c 0400     		.2byte	0x4
 13337 002e F3       		.byte	0xf3
 13338 002f 01       		.uleb128 0x1
 13339 0030 50       		.byte	0x50
 13340 0031 9F       		.byte	0x9f
 13341 0032 42000000 		.4byte	.LVL5
 13342 0036 70000000 		.4byte	.LVL6
 13343 003a 0100     		.2byte	0x1
 13344 003c 50       		.byte	0x50
 13345 003d 70000000 		.4byte	.LVL6
 13346 0041 82000000 		.4byte	.LVL8
 13347 0045 0400     		.2byte	0x4
 13348 0047 F3       		.byte	0xf3
 13349 0048 01       		.uleb128 0x1
 13350 0049 50       		.byte	0x50
 13351 004a 9F       		.byte	0x9f
 13352 004b 82000000 		.4byte	.LVL8
 13353 004f 84000000 		.4byte	.LVL9
 13354 0053 0100     		.2byte	0x1
 13355 0055 50       		.byte	0x50
 13356 0056 84000000 		.4byte	.LVL9
 13357 005a 94000000 		.4byte	.LVL13
 13358 005e 0400     		.2byte	0x4
 13359 0060 F3       		.byte	0xf3
 13360 0061 01       		.uleb128 0x1
 13361 0062 50       		.byte	0x50
 13362 0063 9F       		.byte	0x9f
 13363 0064 94000000 		.4byte	.LVL13
 13364 0068 A2000000 		.4byte	.LVL14
 13365 006c 0100     		.2byte	0x1
 13366 006e 50       		.byte	0x50
 13367 006f A2000000 		.4byte	.LVL14
ARM GAS  C:\Users\Helon\AppData\Local\Temp\ccKCxrf8.s 			page 304


 13368 0073 A6000000 		.4byte	.LVL15
 13369 0077 0400     		.2byte	0x4
 13370 0079 F3       		.byte	0xf3
 13371 007a 01       		.uleb128 0x1
 13372 007b 50       		.byte	0x50
 13373 007c 9F       		.byte	0x9f
 13374 007d A6000000 		.4byte	.LVL15
 13375 0081 B1000000 		.4byte	.LVL16-1
 13376 0085 0100     		.2byte	0x1
 13377 0087 50       		.byte	0x50
 13378 0088 B1000000 		.4byte	.LVL16-1
 13379 008c B6000000 		.4byte	.LVL17
 13380 0090 0400     		.2byte	0x4
 13381 0092 F3       		.byte	0xf3
 13382 0093 01       		.uleb128 0x1
 13383 0094 50       		.byte	0x50
 13384 0095 9F       		.byte	0x9f
 13385 0096 B6000000 		.4byte	.LVL17
 13386 009a C2000000 		.4byte	.LVL18
 13387 009e 0100     		.2byte	0x1
 13388 00a0 50       		.byte	0x50
 13389 00a1 C2000000 		.4byte	.LVL18
 13390 00a5 C8000000 		.4byte	.LVL20
 13391 00a9 0400     		.2byte	0x4
 13392 00ab F3       		.byte	0xf3
 13393 00ac 01       		.uleb128 0x1
 13394 00ad 50       		.byte	0x50
 13395 00ae 9F       		.byte	0x9f
 13396 00af C8000000 		.4byte	.LVL20
 13397 00b3 CC000000 		.4byte	.LVL21
 13398 00b7 0100     		.2byte	0x1
 13399 00b9 50       		.byte	0x50
 13400 00ba CC000000 		.4byte	.LVL21
 13401 00be 0E010000 		.4byte	.LVL29
 13402 00c2 0400     		.2byte	0x4
 13403 00c4 F3       		.byte	0xf3
 13404 00c5 01       		.uleb128 0x1
 13405 00c6 50       		.byte	0x50
 13406 00c7 9F       		.byte	0x9f
 13407 00c8 0E010000 		.4byte	.LVL29
 13408 00cc 12010000 		.4byte	.LVL30
 13409 00d0 0100     		.2byte	0x1
 13410 00d2 50       		.byte	0x50
 13411 00d3 12010000 		.4byte	.LVL30
 13412 00d7 18010000 		.4byte	.LVL32
 13413 00db 0400     		.2byte	0x4
 13414 00dd F3       		.byte	0xf3
 13415 00de 01       		.uleb128 0x1
 13416 00df 50       		.byte	0x50
 13417 00e0 9F       		.byte	0x9f
 13418 00e1 18010000 		.4byte	.LVL32
 13419 00e5 34010000 		.4byte	.LVL33
 13420 00e9 0100     		.2byte	0x1
 13421 00eb 50       		.byte	0x50
 13422 00ec 34010000 		.4byte	.LVL33
 13423 00f0 4E010000 		.4byte	.LVL37
 13424 00f4 0400     		.2byte	0x4
ARM GAS  C:\Users\Helon\AppData\Local\Temp\ccKCxrf8.s 			page 305


 13425 00f6 F3       		.byte	0xf3
 13426 00f7 01       		.uleb128 0x1
 13427 00f8 50       		.byte	0x50
 13428 00f9 9F       		.byte	0x9f
 13429 00fa 4E010000 		.4byte	.LVL37
 13430 00fe 52010000 		.4byte	.LVL39
 13431 0102 0100     		.2byte	0x1
 13432 0104 50       		.byte	0x50
 13433 0105 52010000 		.4byte	.LVL39
 13434 0109 8E010000 		.4byte	.LVL48
 13435 010d 0400     		.2byte	0x4
 13436 010f F3       		.byte	0xf3
 13437 0110 01       		.uleb128 0x1
 13438 0111 50       		.byte	0x50
 13439 0112 9F       		.byte	0x9f
 13440 0113 8E010000 		.4byte	.LVL48
 13441 0117 A8010000 		.4byte	.LVL52
 13442 011b 0100     		.2byte	0x1
 13443 011d 50       		.byte	0x50
 13444 011e A8010000 		.4byte	.LVL52
 13445 0122 B8010000 		.4byte	.LVL56
 13446 0126 0400     		.2byte	0x4
 13447 0128 F3       		.byte	0xf3
 13448 0129 01       		.uleb128 0x1
 13449 012a 50       		.byte	0x50
 13450 012b 9F       		.byte	0x9f
 13451 012c B8010000 		.4byte	.LVL56
 13452 0130 C8010000 		.4byte	.LVL58
 13453 0134 0100     		.2byte	0x1
 13454 0136 50       		.byte	0x50
 13455 0137 C8010000 		.4byte	.LVL58
 13456 013b D2010000 		.4byte	.LVL60
 13457 013f 0400     		.2byte	0x4
 13458 0141 F3       		.byte	0xf3
 13459 0142 01       		.uleb128 0x1
 13460 0143 50       		.byte	0x50
 13461 0144 9F       		.byte	0x9f
 13462 0145 D2010000 		.4byte	.LVL60
 13463 0149 D4010000 		.4byte	.LVL61
 13464 014d 0100     		.2byte	0x1
 13465 014f 50       		.byte	0x50
 13466 0150 D4010000 		.4byte	.LVL61
 13467 0154 DE010000 		.4byte	.LVL63
 13468 0158 0400     		.2byte	0x4
 13469 015a F3       		.byte	0xf3
 13470 015b 01       		.uleb128 0x1
 13471 015c 50       		.byte	0x50
 13472 015d 9F       		.byte	0x9f
 13473 015e DE010000 		.4byte	.LVL63
 13474 0162 0E020000 		.4byte	.LVL68
 13475 0166 0100     		.2byte	0x1
 13476 0168 50       		.byte	0x50
 13477 0169 0E020000 		.4byte	.LVL68
 13478 016d 22020000 		.4byte	.LVL72
 13479 0171 0400     		.2byte	0x4
 13480 0173 F3       		.byte	0xf3
 13481 0174 01       		.uleb128 0x1
ARM GAS  C:\Users\Helon\AppData\Local\Temp\ccKCxrf8.s 			page 306


 13482 0175 50       		.byte	0x50
 13483 0176 9F       		.byte	0x9f
 13484 0177 22020000 		.4byte	.LVL72
 13485 017b 28020000 		.4byte	.LVL74
 13486 017f 0100     		.2byte	0x1
 13487 0181 50       		.byte	0x50
 13488 0182 28020000 		.4byte	.LVL74
 13489 0186 44020000 		.4byte	.LVL78
 13490 018a 0400     		.2byte	0x4
 13491 018c F3       		.byte	0xf3
 13492 018d 01       		.uleb128 0x1
 13493 018e 50       		.byte	0x50
 13494 018f 9F       		.byte	0x9f
 13495 0190 44020000 		.4byte	.LVL78
 13496 0194 52020000 		.4byte	.LVL80
 13497 0198 0100     		.2byte	0x1
 13498 019a 50       		.byte	0x50
 13499 019b 52020000 		.4byte	.LVL80
 13500 019f 58020000 		.4byte	.LVL82
 13501 01a3 0400     		.2byte	0x4
 13502 01a5 F3       		.byte	0xf3
 13503 01a6 01       		.uleb128 0x1
 13504 01a7 50       		.byte	0x50
 13505 01a8 9F       		.byte	0x9f
 13506 01a9 58020000 		.4byte	.LVL82
 13507 01ad 5E020000 		.4byte	.LVL84
 13508 01b1 0100     		.2byte	0x1
 13509 01b3 50       		.byte	0x50
 13510 01b4 5E020000 		.4byte	.LVL84
 13511 01b8 78020000 		.4byte	.LVL88
 13512 01bc 0400     		.2byte	0x4
 13513 01be F3       		.byte	0xf3
 13514 01bf 01       		.uleb128 0x1
 13515 01c0 50       		.byte	0x50
 13516 01c1 9F       		.byte	0x9f
 13517 01c2 78020000 		.4byte	.LVL88
 13518 01c6 7C020000 		.4byte	.LVL90
 13519 01ca 0100     		.2byte	0x1
 13520 01cc 50       		.byte	0x50
 13521 01cd 7C020000 		.4byte	.LVL90
 13522 01d1 EC020000 		.4byte	.LFE35
 13523 01d5 0400     		.2byte	0x4
 13524 01d7 F3       		.byte	0xf3
 13525 01d8 01       		.uleb128 0x1
 13526 01d9 50       		.byte	0x50
 13527 01da 9F       		.byte	0x9f
 13528 01db 00000000 		.4byte	0
 13529 01df 00000000 		.4byte	0
 13530              	.LLST1:
 13531 01e3 00000000 		.4byte	.LVL0
 13532 01e7 29000000 		.4byte	.LVL2-1
 13533 01eb 0100     		.2byte	0x1
 13534 01ed 51       		.byte	0x51
 13535 01ee 29000000 		.4byte	.LVL2-1
 13536 01f2 2C000000 		.4byte	.LVL3
 13537 01f6 0100     		.2byte	0x1
 13538 01f8 54       		.byte	0x54
ARM GAS  C:\Users\Helon\AppData\Local\Temp\ccKCxrf8.s 			page 307


 13539 01f9 2C000000 		.4byte	.LVL3
 13540 01fd 70000000 		.4byte	.LVL6
 13541 0201 0100     		.2byte	0x1
 13542 0203 51       		.byte	0x51
 13543 0204 70000000 		.4byte	.LVL6
 13544 0208 82000000 		.4byte	.LVL8
 13545 020c 0100     		.2byte	0x1
 13546 020e 54       		.byte	0x54
 13547 020f 82000000 		.4byte	.LVL8
 13548 0213 8A000000 		.4byte	.LVL10
 13549 0217 0100     		.2byte	0x1
 13550 0219 51       		.byte	0x51
 13551 021a 8A000000 		.4byte	.LVL10
 13552 021e 8E000000 		.4byte	.LVL11
 13553 0222 0300     		.2byte	0x3
 13554 0224 74       		.byte	0x74
 13555 0225 74       		.sleb128 -12
 13556 0226 9F       		.byte	0x9f
 13557 0227 8E000000 		.4byte	.LVL11
 13558 022b 94000000 		.4byte	.LVL13
 13559 022f 0300     		.2byte	0x3
 13560 0231 74       		.byte	0x74
 13561 0232 6C       		.sleb128 -20
 13562 0233 9F       		.byte	0x9f
 13563 0234 94000000 		.4byte	.LVL13
 13564 0238 B1000000 		.4byte	.LVL16-1
 13565 023c 0100     		.2byte	0x1
 13566 023e 51       		.byte	0x51
 13567 023f B1000000 		.4byte	.LVL16-1
 13568 0243 B6000000 		.4byte	.LVL17
 13569 0247 0100     		.2byte	0x1
 13570 0249 54       		.byte	0x54
 13571 024a B6000000 		.4byte	.LVL17
 13572 024e C5000000 		.4byte	.LVL19-1
 13573 0252 0100     		.2byte	0x1
 13574 0254 51       		.byte	0x51
 13575 0255 C5000000 		.4byte	.LVL19-1
 13576 0259 C8000000 		.4byte	.LVL20
 13577 025d 0100     		.2byte	0x1
 13578 025f 54       		.byte	0x54
 13579 0260 C8000000 		.4byte	.LVL20
 13580 0264 CF000000 		.4byte	.LVL22-1
 13581 0268 0100     		.2byte	0x1
 13582 026a 51       		.byte	0x51
 13583 026b CF000000 		.4byte	.LVL22-1
 13584 026f D4000000 		.4byte	.LVL23
 13585 0273 0100     		.2byte	0x1
 13586 0275 54       		.byte	0x54
 13587 0276 D4000000 		.4byte	.LVL23
 13588 027a 0E010000 		.4byte	.LVL29
 13589 027e 0400     		.2byte	0x4
 13590 0280 F3       		.byte	0xf3
 13591 0281 01       		.uleb128 0x1
 13592 0282 51       		.byte	0x51
 13593 0283 9F       		.byte	0x9f
 13594 0284 0E010000 		.4byte	.LVL29
 13595 0288 15010000 		.4byte	.LVL31-1
ARM GAS  C:\Users\Helon\AppData\Local\Temp\ccKCxrf8.s 			page 308


 13596 028c 0100     		.2byte	0x1
 13597 028e 51       		.byte	0x51
 13598 028f 15010000 		.4byte	.LVL31-1
 13599 0293 18010000 		.4byte	.LVL32
 13600 0297 0100     		.2byte	0x1
 13601 0299 54       		.byte	0x54
 13602 029a 18010000 		.4byte	.LVL32
 13603 029e 36010000 		.4byte	.LVL34
 13604 02a2 0100     		.2byte	0x1
 13605 02a4 51       		.byte	0x51
 13606 02a5 36010000 		.4byte	.LVL34
 13607 02a9 4E010000 		.4byte	.LVL37
 13608 02ad 0400     		.2byte	0x4
 13609 02af F3       		.byte	0xf3
 13610 02b0 01       		.uleb128 0x1
 13611 02b1 51       		.byte	0x51
 13612 02b2 9F       		.byte	0x9f
 13613 02b3 4E010000 		.4byte	.LVL37
 13614 02b7 50010000 		.4byte	.LVL38
 13615 02bb 0100     		.2byte	0x1
 13616 02bd 51       		.byte	0x51
 13617 02be 50010000 		.4byte	.LVL38
 13618 02c2 8E010000 		.4byte	.LVL48
 13619 02c6 0400     		.2byte	0x4
 13620 02c8 F3       		.byte	0xf3
 13621 02c9 01       		.uleb128 0x1
 13622 02ca 51       		.byte	0x51
 13623 02cb 9F       		.byte	0x9f
 13624 02cc 8E010000 		.4byte	.LVL48
 13625 02d0 A8010000 		.4byte	.LVL52
 13626 02d4 0100     		.2byte	0x1
 13627 02d6 51       		.byte	0x51
 13628 02d7 A8010000 		.4byte	.LVL52
 13629 02db B8010000 		.4byte	.LVL56
 13630 02df 0400     		.2byte	0x4
 13631 02e1 F3       		.byte	0xf3
 13632 02e2 01       		.uleb128 0x1
 13633 02e3 51       		.byte	0x51
 13634 02e4 9F       		.byte	0x9f
 13635 02e5 B8010000 		.4byte	.LVL56
 13636 02e9 CD010000 		.4byte	.LVL59-1
 13637 02ed 0100     		.2byte	0x1
 13638 02ef 51       		.byte	0x51
 13639 02f0 CD010000 		.4byte	.LVL59-1
 13640 02f4 D2010000 		.4byte	.LVL60
 13641 02f8 0100     		.2byte	0x1
 13642 02fa 54       		.byte	0x54
 13643 02fb D2010000 		.4byte	.LVL60
 13644 02ff D9010000 		.4byte	.LVL62-1
 13645 0303 0100     		.2byte	0x1
 13646 0305 51       		.byte	0x51
 13647 0306 D9010000 		.4byte	.LVL62-1
 13648 030a DE010000 		.4byte	.LVL63
 13649 030e 0100     		.2byte	0x1
 13650 0310 54       		.byte	0x54
 13651 0311 DE010000 		.4byte	.LVL63
 13652 0315 E2010000 		.4byte	.LVL64
ARM GAS  C:\Users\Helon\AppData\Local\Temp\ccKCxrf8.s 			page 309


 13653 0319 0100     		.2byte	0x1
 13654 031b 51       		.byte	0x51
 13655 031c E2010000 		.4byte	.LVL64
 13656 0320 22020000 		.4byte	.LVL72
 13657 0324 0100     		.2byte	0x1
 13658 0326 54       		.byte	0x54
 13659 0327 22020000 		.4byte	.LVL72
 13660 032b 28020000 		.4byte	.LVL74
 13661 032f 0100     		.2byte	0x1
 13662 0331 51       		.byte	0x51
 13663 0332 28020000 		.4byte	.LVL74
 13664 0336 44020000 		.4byte	.LVL78
 13665 033a 0400     		.2byte	0x4
 13666 033c F3       		.byte	0xf3
 13667 033d 01       		.uleb128 0x1
 13668 033e 51       		.byte	0x51
 13669 033f 9F       		.byte	0x9f
 13670 0340 44020000 		.4byte	.LVL78
 13671 0344 50020000 		.4byte	.LVL79
 13672 0348 0100     		.2byte	0x1
 13673 034a 51       		.byte	0x51
 13674 034b 50020000 		.4byte	.LVL79
 13675 034f 58020000 		.4byte	.LVL82
 13676 0353 0100     		.2byte	0x1
 13677 0355 54       		.byte	0x54
 13678 0356 58020000 		.4byte	.LVL82
 13679 035a 5A020000 		.4byte	.LVL83
 13680 035e 0100     		.2byte	0x1
 13681 0360 51       		.byte	0x51
 13682 0361 5A020000 		.4byte	.LVL83
 13683 0365 78020000 		.4byte	.LVL88
 13684 0369 0100     		.2byte	0x1
 13685 036b 54       		.byte	0x54
 13686 036c 78020000 		.4byte	.LVL88
 13687 0370 7A020000 		.4byte	.LVL89
 13688 0374 0100     		.2byte	0x1
 13689 0376 51       		.byte	0x51
 13690 0377 7A020000 		.4byte	.LVL89
 13691 037b 86020000 		.4byte	.LVL92
 13692 037f 0100     		.2byte	0x1
 13693 0381 54       		.byte	0x54
 13694 0382 86020000 		.4byte	.LVL92
 13695 0386 EC020000 		.4byte	.LFE35
 13696 038a 0400     		.2byte	0x4
 13697 038c F3       		.byte	0xf3
 13698 038d 01       		.uleb128 0x1
 13699 038e 51       		.byte	0x51
 13700 038f 9F       		.byte	0x9f
 13701 0390 00000000 		.4byte	0
 13702 0394 00000000 		.4byte	0
 13703              	.LLST2:
 13704 0398 26020000 		.4byte	.LVL73
 13705 039c 28020000 		.4byte	.LVL74
 13706 03a0 0700     		.2byte	0x7
 13707 03a2 93       		.byte	0x93
 13708 03a3 04       		.uleb128 0x4
 13709 03a4 55       		.byte	0x55
ARM GAS  C:\Users\Helon\AppData\Local\Temp\ccKCxrf8.s 			page 310


 13710 03a5 93       		.byte	0x93
 13711 03a6 04       		.uleb128 0x4
 13712 03a7 93       		.byte	0x93
 13713 03a8 08       		.uleb128 0x8
 13714 03a9 28020000 		.4byte	.LVL74
 13715 03ad 44020000 		.4byte	.LVL78
 13716 03b1 0A00     		.2byte	0xa
 13717 03b3 93       		.byte	0x93
 13718 03b4 04       		.uleb128 0x4
 13719 03b5 55       		.byte	0x55
 13720 03b6 93       		.byte	0x93
 13721 03b7 04       		.uleb128 0x4
 13722 03b8 56       		.byte	0x56
 13723 03b9 93       		.byte	0x93
 13724 03ba 02       		.uleb128 0x2
 13725 03bb 93       		.byte	0x93
 13726 03bc 06       		.uleb128 0x6
 13727 03bd 00000000 		.4byte	0
 13728 03c1 00000000 		.4byte	0
 13729              	.LLST3:
 13730 03c5 00000000 		.4byte	.LVL0
 13731 03c9 A8010000 		.4byte	.LVL52
 13732 03cd 0200     		.2byte	0x2
 13733 03cf 30       		.byte	0x30
 13734 03d0 9F       		.byte	0x9f
 13735 03d1 A8010000 		.4byte	.LVL52
 13736 03d5 B0010000 		.4byte	.LVL53
 13737 03d9 0100     		.2byte	0x1
 13738 03db 54       		.byte	0x54
 13739 03dc B6010000 		.4byte	.LVL55
 13740 03e0 B8010000 		.4byte	.LVL56
 13741 03e4 0100     		.2byte	0x1
 13742 03e6 54       		.byte	0x54
 13743 03e7 B8010000 		.4byte	.LVL56
 13744 03eb 0E020000 		.4byte	.LVL68
 13745 03ef 0200     		.2byte	0x2
 13746 03f1 30       		.byte	0x30
 13747 03f2 9F       		.byte	0x9f
 13748 03f3 0E020000 		.4byte	.LVL68
 13749 03f7 1A020000 		.4byte	.LVL69
 13750 03fb 0100     		.2byte	0x1
 13751 03fd 55       		.byte	0x55
 13752 03fe 20020000 		.4byte	.LVL71
 13753 0402 22020000 		.4byte	.LVL72
 13754 0406 0100     		.2byte	0x1
 13755 0408 55       		.byte	0x55
 13756 0409 22020000 		.4byte	.LVL72
 13757 040d 28020000 		.4byte	.LVL74
 13758 0411 0200     		.2byte	0x2
 13759 0413 30       		.byte	0x30
 13760 0414 9F       		.byte	0x9f
 13761 0415 28020000 		.4byte	.LVL74
 13762 0419 3A020000 		.4byte	.LVL75
 13763 041d 0100     		.2byte	0x1
 13764 041f 54       		.byte	0x54
 13765 0420 42020000 		.4byte	.LVL77
 13766 0424 44020000 		.4byte	.LVL78
ARM GAS  C:\Users\Helon\AppData\Local\Temp\ccKCxrf8.s 			page 311


 13767 0428 0100     		.2byte	0x1
 13768 042a 54       		.byte	0x54
 13769 042b 44020000 		.4byte	.LVL78
 13770 042f 86020000 		.4byte	.LVL92
 13771 0433 0200     		.2byte	0x2
 13772 0435 30       		.byte	0x30
 13773 0436 9F       		.byte	0x9f
 13774 0437 00000000 		.4byte	0
 13775 043b 00000000 		.4byte	0
 13776              	.LLST4:
 13777 043f EC010000 		.4byte	.LVL65
 13778 0443 FC010000 		.4byte	.LVL66
 13779 0447 0100     		.2byte	0x1
 13780 0449 54       		.byte	0x54
 13781 044a 00020000 		.4byte	.LVL67
 13782 044e 22020000 		.4byte	.LVL72
 13783 0452 0100     		.2byte	0x1
 13784 0454 54       		.byte	0x54
 13785 0455 00000000 		.4byte	0
 13786 0459 00000000 		.4byte	0
 13787              	.LLST5:
 13788 045d 92010000 		.4byte	.LVL49
 13789 0461 94010000 		.4byte	.LVL50
 13790 0465 0700     		.2byte	0x7
 13791 0467 93       		.byte	0x93
 13792 0468 04       		.uleb128 0x4
 13793 0469 55       		.byte	0x55
 13794 046a 93       		.byte	0x93
 13795 046b 04       		.uleb128 0x4
 13796 046c 93       		.byte	0x93
 13797 046d 08       		.uleb128 0x8
 13798 046e 94010000 		.4byte	.LVL50
 13799 0472 9A010000 		.4byte	.LVL51
 13800 0476 0F00     		.2byte	0xf
 13801 0478 93       		.byte	0x93
 13802 0479 04       		.uleb128 0x4
 13803 047a 55       		.byte	0x55
 13804 047b 93       		.byte	0x93
 13805 047c 04       		.uleb128 0x4
 13806 047d 56       		.byte	0x56
 13807 047e 93       		.byte	0x93
 13808 047f 02       		.uleb128 0x2
 13809 0480 93       		.byte	0x93
 13810 0481 02       		.uleb128 0x2
 13811 0482 53       		.byte	0x53
 13812 0483 93       		.byte	0x93
 13813 0484 02       		.uleb128 0x2
 13814 0485 93       		.byte	0x93
 13815 0486 02       		.uleb128 0x2
 13816 0487 9A010000 		.4byte	.LVL51
 13817 048b A8010000 		.4byte	.LVL52
 13818 048f 1000     		.2byte	0x10
 13819 0491 93       		.byte	0x93
 13820 0492 04       		.uleb128 0x4
 13821 0493 55       		.byte	0x55
 13822 0494 93       		.byte	0x93
 13823 0495 04       		.uleb128 0x4
ARM GAS  C:\Users\Helon\AppData\Local\Temp\ccKCxrf8.s 			page 312


 13824 0496 56       		.byte	0x56
 13825 0497 93       		.byte	0x93
 13826 0498 02       		.uleb128 0x2
 13827 0499 93       		.byte	0x93
 13828 049a 02       		.uleb128 0x2
 13829 049b 71       		.byte	0x71
 13830 049c 0C       		.sleb128 12
 13831 049d 93       		.byte	0x93
 13832 049e 02       		.uleb128 0x2
 13833 049f 93       		.byte	0x93
 13834 04a0 02       		.uleb128 0x2
 13835 04a1 A8010000 		.4byte	.LVL52
 13836 04a5 B8010000 		.4byte	.LVL56
 13837 04a9 0A00     		.2byte	0xa
 13838 04ab 93       		.byte	0x93
 13839 04ac 04       		.uleb128 0x4
 13840 04ad 55       		.byte	0x55
 13841 04ae 93       		.byte	0x93
 13842 04af 04       		.uleb128 0x4
 13843 04b0 56       		.byte	0x56
 13844 04b1 93       		.byte	0x93
 13845 04b2 02       		.uleb128 0x2
 13846 04b3 93       		.byte	0x93
 13847 04b4 06       		.uleb128 0x6
 13848 04b5 B8010000 		.4byte	.LVL56
 13849 04b9 C0010000 		.4byte	.LVL57
 13850 04bd 0F00     		.2byte	0xf
 13851 04bf 93       		.byte	0x93
 13852 04c0 04       		.uleb128 0x4
 13853 04c1 55       		.byte	0x55
 13854 04c2 93       		.byte	0x93
 13855 04c3 04       		.uleb128 0x4
 13856 04c4 56       		.byte	0x56
 13857 04c5 93       		.byte	0x93
 13858 04c6 02       		.uleb128 0x2
 13859 04c7 93       		.byte	0x93
 13860 04c8 02       		.uleb128 0x2
 13861 04c9 53       		.byte	0x53
 13862 04ca 93       		.byte	0x93
 13863 04cb 02       		.uleb128 0x2
 13864 04cc 93       		.byte	0x93
 13865 04cd 02       		.uleb128 0x2
 13866 04ce C0010000 		.4byte	.LVL57
 13867 04d2 CD010000 		.4byte	.LVL59-1
 13868 04d6 1000     		.2byte	0x10
 13869 04d8 93       		.byte	0x93
 13870 04d9 04       		.uleb128 0x4
 13871 04da 55       		.byte	0x55
 13872 04db 93       		.byte	0x93
 13873 04dc 04       		.uleb128 0x4
 13874 04dd 56       		.byte	0x56
 13875 04de 93       		.byte	0x93
 13876 04df 02       		.uleb128 0x2
 13877 04e0 93       		.byte	0x93
 13878 04e1 02       		.uleb128 0x2
 13879 04e2 71       		.byte	0x71
 13880 04e3 0C       		.sleb128 12
ARM GAS  C:\Users\Helon\AppData\Local\Temp\ccKCxrf8.s 			page 313


 13881 04e4 93       		.byte	0x93
 13882 04e5 02       		.uleb128 0x2
 13883 04e6 93       		.byte	0x93
 13884 04e7 02       		.uleb128 0x2
 13885 04e8 CD010000 		.4byte	.LVL59-1
 13886 04ec D2010000 		.4byte	.LVL60
 13887 04f0 0A00     		.2byte	0xa
 13888 04f2 93       		.byte	0x93
 13889 04f3 04       		.uleb128 0x4
 13890 04f4 55       		.byte	0x55
 13891 04f5 93       		.byte	0x93
 13892 04f6 04       		.uleb128 0x4
 13893 04f7 56       		.byte	0x56
 13894 04f8 93       		.byte	0x93
 13895 04f9 02       		.uleb128 0x2
 13896 04fa 93       		.byte	0x93
 13897 04fb 06       		.uleb128 0x6
 13898 04fc D2010000 		.4byte	.LVL60
 13899 0500 D9010000 		.4byte	.LVL62-1
 13900 0504 1000     		.2byte	0x10
 13901 0506 93       		.byte	0x93
 13902 0507 04       		.uleb128 0x4
 13903 0508 55       		.byte	0x55
 13904 0509 93       		.byte	0x93
 13905 050a 04       		.uleb128 0x4
 13906 050b 56       		.byte	0x56
 13907 050c 93       		.byte	0x93
 13908 050d 02       		.uleb128 0x2
 13909 050e 93       		.byte	0x93
 13910 050f 02       		.uleb128 0x2
 13911 0510 71       		.byte	0x71
 13912 0511 0C       		.sleb128 12
 13913 0512 93       		.byte	0x93
 13914 0513 02       		.uleb128 0x2
 13915 0514 93       		.byte	0x93
 13916 0515 02       		.uleb128 0x2
 13917 0516 D9010000 		.4byte	.LVL62-1
 13918 051a DE010000 		.4byte	.LVL63
 13919 051e 0A00     		.2byte	0xa
 13920 0520 93       		.byte	0x93
 13921 0521 04       		.uleb128 0x4
 13922 0522 55       		.byte	0x55
 13923 0523 93       		.byte	0x93
 13924 0524 04       		.uleb128 0x4
 13925 0525 56       		.byte	0x56
 13926 0526 93       		.byte	0x93
 13927 0527 02       		.uleb128 0x2
 13928 0528 93       		.byte	0x93
 13929 0529 06       		.uleb128 0x6
 13930 052a 00000000 		.4byte	0
 13931 052e 00000000 		.4byte	0
 13932              	.LLST6:
 13933 0532 0A000000 		.4byte	.LVL97
 13934 0536 22000000 		.4byte	.LVL100
 13935 053a 0100     		.2byte	0x1
 13936 053c 54       		.byte	0x54
 13937 053d 60000000 		.4byte	.LVL110
ARM GAS  C:\Users\Helon\AppData\Local\Temp\ccKCxrf8.s 			page 314


 13938 0541 6C000000 		.4byte	.LVL111
 13939 0545 0100     		.2byte	0x1
 13940 0547 54       		.byte	0x54
 13941 0548 00000000 		.4byte	0
 13942 054c 00000000 		.4byte	0
 13943              	.LLST7:
 13944 0550 10000000 		.4byte	.LVL98
 13945 0554 18000000 		.4byte	.LVL99
 13946 0558 0100     		.2byte	0x1
 13947 055a 50       		.byte	0x50
 13948 055b 60000000 		.4byte	.LVL110
 13949 055f 6B000000 		.4byte	.LVL111-1
 13950 0563 0100     		.2byte	0x1
 13951 0565 50       		.byte	0x50
 13952 0566 00000000 		.4byte	0
 13953 056a 00000000 		.4byte	0
 13954              	.LLST8:
 13955 056e 00000000 		.4byte	.LVL126
 13956 0572 0D000000 		.4byte	.LVL128-1
 13957 0576 0100     		.2byte	0x1
 13958 0578 50       		.byte	0x50
 13959 0579 0D000000 		.4byte	.LVL128-1
 13960 057d 3C000000 		.4byte	.LVL135
 13961 0581 0100     		.2byte	0x1
 13962 0583 54       		.byte	0x54
 13963 0584 3C000000 		.4byte	.LVL135
 13964 0588 70000000 		.4byte	.LFE44
 13965 058c 0400     		.2byte	0x4
 13966 058e F3       		.byte	0xf3
 13967 058f 01       		.uleb128 0x1
 13968 0590 50       		.byte	0x50
 13969 0591 9F       		.byte	0x9f
 13970 0592 00000000 		.4byte	0
 13971 0596 00000000 		.4byte	0
 13972              	.LLST9:
 13973 059a 0A000000 		.4byte	.LVL127
 13974 059e 62000000 		.4byte	.LVL142
 13975 05a2 0200     		.2byte	0x2
 13976 05a4 30       		.byte	0x30
 13977 05a5 9F       		.byte	0x9f
 13978 05a6 00000000 		.4byte	0
 13979 05aa 00000000 		.4byte	0
 13980              	.LLST11:
 13981 05ae 14000000 		.4byte	.LVL129
 13982 05b2 3C000000 		.4byte	.LVL135
 13983 05b6 0100     		.2byte	0x1
 13984 05b8 54       		.byte	0x54
 13985 05b9 3C000000 		.4byte	.LVL135
 13986 05bd 62000000 		.4byte	.LVL142
 13987 05c1 0400     		.2byte	0x4
 13988 05c3 F3       		.byte	0xf3
 13989 05c4 01       		.uleb128 0x1
 13990 05c5 50       		.byte	0x50
 13991 05c6 9F       		.byte	0x9f
 13992 05c7 00000000 		.4byte	0
 13993 05cb 00000000 		.4byte	0
 13994              	.LLST12:
ARM GAS  C:\Users\Helon\AppData\Local\Temp\ccKCxrf8.s 			page 315


 13995 05cf 3C000000 		.4byte	.LVL135
 13996 05d3 62000000 		.4byte	.LVL142
 13997 05d7 0200     		.2byte	0x2
 13998 05d9 4C       		.byte	0x4c
 13999 05da 9F       		.byte	0x9f
 14000 05db 00000000 		.4byte	0
 14001 05df 00000000 		.4byte	0
 14002              	.LLST13:
 14003 05e3 4A000000 		.4byte	.LVL136
 14004 05e7 52000000 		.4byte	.LVL138
 14005 05eb 0100     		.2byte	0x1
 14006 05ed 54       		.byte	0x54
 14007 05ee 52000000 		.4byte	.LVL138
 14008 05f2 54000000 		.4byte	.LVL139
 14009 05f6 0300     		.2byte	0x3
 14010 05f8 77       		.byte	0x77
 14011 05f9 01       		.sleb128 1
 14012 05fa 9F       		.byte	0x9f
 14013 05fb 54000000 		.4byte	.LVL139
 14014 05ff 5A000000 		.4byte	.LVL140
 14015 0603 0300     		.2byte	0x3
 14016 0605 74       		.byte	0x74
 14017 0606 01       		.sleb128 1
 14018 0607 9F       		.byte	0x9f
 14019 0608 00000000 		.4byte	0
 14020 060c 00000000 		.4byte	0
 14021              	.LLST14:
 14022 0610 20000000 		.4byte	.LVL131
 14023 0614 2C000000 		.4byte	.LVL132
 14024 0618 0100     		.2byte	0x1
 14025 061a 50       		.byte	0x50
 14026 061b 2C000000 		.4byte	.LVL132
 14027 061f 2F000000 		.4byte	.LVL133-1
 14028 0623 0100     		.2byte	0x1
 14029 0625 52       		.byte	0x52
 14030 0626 00000000 		.4byte	0
 14031 062a 00000000 		.4byte	0
 14032              	.LLST15:
 14033 062e 36000000 		.4byte	.LVL134
 14034 0632 3B000000 		.4byte	.LVL135-1
 14035 0636 0100     		.2byte	0x1
 14036 0638 50       		.byte	0x50
 14037 0639 3B000000 		.4byte	.LVL135-1
 14038 063d 62000000 		.4byte	.LVL142
 14039 0641 0100     		.2byte	0x1
 14040 0643 56       		.byte	0x56
 14041 0644 00000000 		.4byte	0
 14042 0648 00000000 		.4byte	0
 14043              	.LLST16:
 14044 064c 00000000 		.4byte	.LVL143
 14045 0650 10000000 		.4byte	.LVL145
 14046 0654 0100     		.2byte	0x1
 14047 0656 50       		.byte	0x50
 14048 0657 10000000 		.4byte	.LVL145
 14049 065b 1D000000 		.4byte	.LVL146-1
 14050 065f 0200     		.2byte	0x2
 14051 0661 73       		.byte	0x73
ARM GAS  C:\Users\Helon\AppData\Local\Temp\ccKCxrf8.s 			page 316


 14052 0662 00       		.sleb128 0
 14053 0663 1D000000 		.4byte	.LVL146-1
 14054 0667 34000000 		.4byte	.LFE46
 14055 066b 0400     		.2byte	0x4
 14056 066d F3       		.byte	0xf3
 14057 066e 01       		.uleb128 0x1
 14058 066f 50       		.byte	0x50
 14059 0670 9F       		.byte	0x9f
 14060 0671 00000000 		.4byte	0
 14061 0675 00000000 		.4byte	0
 14062              	.LLST17:
 14063 0679 00000000 		.4byte	.LVL143
 14064 067d 08000000 		.4byte	.LVL144
 14065 0681 0100     		.2byte	0x1
 14066 0683 51       		.byte	0x51
 14067 0684 08000000 		.4byte	.LVL144
 14068 0688 34000000 		.4byte	.LFE46
 14069 068c 0400     		.2byte	0x4
 14070 068e F3       		.byte	0xf3
 14071 068f 01       		.uleb128 0x1
 14072 0690 51       		.byte	0x51
 14073 0691 9F       		.byte	0x9f
 14074 0692 00000000 		.4byte	0
 14075 0696 00000000 		.4byte	0
 14076              	.LLST18:
 14077 069a 00000000 		.4byte	.LVL148
 14078 069e 10000000 		.4byte	.LVL149
 14079 06a2 0100     		.2byte	0x1
 14080 06a4 50       		.byte	0x50
 14081 06a5 10000000 		.4byte	.LVL149
 14082 06a9 38000000 		.4byte	.LFE47
 14083 06ad 0400     		.2byte	0x4
 14084 06af F3       		.byte	0xf3
 14085 06b0 01       		.uleb128 0x1
 14086 06b1 50       		.byte	0x50
 14087 06b2 9F       		.byte	0x9f
 14088 06b3 00000000 		.4byte	0
 14089 06b7 00000000 		.4byte	0
 14090              	.LLST19:
 14091 06bb 00000000 		.4byte	.LVL148
 14092 06bf 10000000 		.4byte	.LVL149
 14093 06c3 0100     		.2byte	0x1
 14094 06c5 51       		.byte	0x51
 14095 06c6 10000000 		.4byte	.LVL149
 14096 06ca 38000000 		.4byte	.LFE47
 14097 06ce 0400     		.2byte	0x4
 14098 06d0 F3       		.byte	0xf3
 14099 06d1 01       		.uleb128 0x1
 14100 06d2 51       		.byte	0x51
 14101 06d3 9F       		.byte	0x9f
 14102 06d4 00000000 		.4byte	0
 14103 06d8 00000000 		.4byte	0
 14104              	.LLST20:
 14105 06dc 00000000 		.4byte	.LVL148
 14106 06e0 10000000 		.4byte	.LVL149
 14107 06e4 0200     		.2byte	0x2
 14108 06e6 30       		.byte	0x30
ARM GAS  C:\Users\Helon\AppData\Local\Temp\ccKCxrf8.s 			page 317


 14109 06e7 9F       		.byte	0x9f
 14110 06e8 20000000 		.4byte	.LVL150
 14111 06ec 38000000 		.4byte	.LFE47
 14112 06f0 0100     		.2byte	0x1
 14113 06f2 50       		.byte	0x50
 14114 06f3 00000000 		.4byte	0
 14115 06f7 00000000 		.4byte	0
 14116              	.LLST21:
 14117 06fb 00000000 		.4byte	.LVL148
 14118 06ff 10000000 		.4byte	.LVL149
 14119 0703 0A00     		.2byte	0xa
 14120 0705 50       		.byte	0x50
 14121 0706 93       		.byte	0x93
 14122 0707 04       		.uleb128 0x4
 14123 0708 51       		.byte	0x51
 14124 0709 93       		.byte	0x93
 14125 070a 02       		.uleb128 0x2
 14126 070b 30       		.byte	0x30
 14127 070c 9F       		.byte	0x9f
 14128 070d 93       		.byte	0x93
 14129 070e 02       		.uleb128 0x2
 14130 070f 10000000 		.4byte	.LVL149
 14131 0713 38000000 		.4byte	.LFE47
 14132 0717 1000     		.2byte	0x10
 14133 0719 F3       		.byte	0xf3
 14134 071a 01       		.uleb128 0x1
 14135 071b 50       		.byte	0x50
 14136 071c 9F       		.byte	0x9f
 14137 071d 93       		.byte	0x93
 14138 071e 04       		.uleb128 0x4
 14139 071f F3       		.byte	0xf3
 14140 0720 01       		.uleb128 0x1
 14141 0721 51       		.byte	0x51
 14142 0722 9F       		.byte	0x9f
 14143 0723 93       		.byte	0x93
 14144 0724 02       		.uleb128 0x2
 14145 0725 30       		.byte	0x30
 14146 0726 9F       		.byte	0x9f
 14147 0727 93       		.byte	0x93
 14148 0728 02       		.uleb128 0x2
 14149 0729 00000000 		.4byte	0
 14150 072d 00000000 		.4byte	0
 14151              	.LLST22:
 14152 0731 00000000 		.4byte	.LVL151
 14153 0735 10000000 		.4byte	.LVL153
 14154 0739 0100     		.2byte	0x1
 14155 073b 50       		.byte	0x50
 14156 073c 10000000 		.4byte	.LVL153
 14157 0740 0A010000 		.4byte	.LVL180
 14158 0744 0400     		.2byte	0x4
 14159 0746 F3       		.byte	0xf3
 14160 0747 01       		.uleb128 0x1
 14161 0748 50       		.byte	0x50
 14162 0749 9F       		.byte	0x9f
 14163 074a 0A010000 		.4byte	.LVL180
 14164 074e 0C010000 		.4byte	.LVL181
 14165 0752 0100     		.2byte	0x1
ARM GAS  C:\Users\Helon\AppData\Local\Temp\ccKCxrf8.s 			page 318


 14166 0754 50       		.byte	0x50
 14167 0755 0C010000 		.4byte	.LVL181
 14168 0759 44010000 		.4byte	.LFE49
 14169 075d 0400     		.2byte	0x4
 14170 075f F3       		.byte	0xf3
 14171 0760 01       		.uleb128 0x1
 14172 0761 50       		.byte	0x50
 14173 0762 9F       		.byte	0x9f
 14174 0763 00000000 		.4byte	0
 14175 0767 00000000 		.4byte	0
 14176              	.LLST23:
 14177 076b 0E000000 		.4byte	.LVL152
 14178 076f 10000000 		.4byte	.LVL153
 14179 0773 0100     		.2byte	0x1
 14180 0775 50       		.byte	0x50
 14181 0776 10000000 		.4byte	.LVL153
 14182 077a 0A010000 		.4byte	.LVL180
 14183 077e 0400     		.2byte	0x4
 14184 0780 F3       		.byte	0xf3
 14185 0781 01       		.uleb128 0x1
 14186 0782 50       		.byte	0x50
 14187 0783 9F       		.byte	0x9f
 14188 0784 00000000 		.4byte	0
 14189 0788 00000000 		.4byte	0
 14190              	.LLST24:
 14191 078c 34000000 		.4byte	.LVL155
 14192 0790 38000000 		.4byte	.LVL156
 14193 0794 0100     		.2byte	0x1
 14194 0796 50       		.byte	0x50
 14195 0797 3C000000 		.4byte	.LVL157
 14196 079b 4C000000 		.4byte	.LVL158
 14197 079f 0100     		.2byte	0x1
 14198 07a1 50       		.byte	0x50
 14199 07a2 56000000 		.4byte	.LVL160
 14200 07a6 5C000000 		.4byte	.LVL161
 14201 07aa 0100     		.2byte	0x1
 14202 07ac 50       		.byte	0x50
 14203 07ad 62000000 		.4byte	.LVL163
 14204 07b1 72000000 		.4byte	.LVL164
 14205 07b5 0100     		.2byte	0x1
 14206 07b7 50       		.byte	0x50
 14207 07b8 7C000000 		.4byte	.LVL166
 14208 07bc 80000000 		.4byte	.LVL167
 14209 07c0 0100     		.2byte	0x1
 14210 07c2 50       		.byte	0x50
 14211 07c3 84000000 		.4byte	.LVL168
 14212 07c7 94000000 		.4byte	.LVL169
 14213 07cb 0100     		.2byte	0x1
 14214 07cd 50       		.byte	0x50
 14215 07ce 9E000000 		.4byte	.LVL171
 14216 07d2 A2000000 		.4byte	.LVL172
 14217 07d6 0100     		.2byte	0x1
 14218 07d8 50       		.byte	0x50
 14219 07d9 A6000000 		.4byte	.LVL173
 14220 07dd B6000000 		.4byte	.LVL174
 14221 07e1 0100     		.2byte	0x1
 14222 07e3 50       		.byte	0x50
ARM GAS  C:\Users\Helon\AppData\Local\Temp\ccKCxrf8.s 			page 319


 14223 07e4 00000000 		.4byte	0
 14224 07e8 00000000 		.4byte	0
 14225              	.LLST25:
 14226 07ec D6000000 		.4byte	.LVL176
 14227 07f0 F2000000 		.4byte	.LVL177
 14228 07f4 0100     		.2byte	0x1
 14229 07f6 54       		.byte	0x54
 14230 07f7 04010000 		.4byte	.LVL178
 14231 07fb 06010000 		.4byte	.LVL179
 14232 07ff 0100     		.2byte	0x1
 14233 0801 54       		.byte	0x54
 14234 0802 00000000 		.4byte	0
 14235 0806 00000000 		.4byte	0
 14236              	.LLST26:
 14237 080a 00000000 		.4byte	.LVL183
 14238 080e 20000000 		.4byte	.LVL184
 14239 0812 0100     		.2byte	0x1
 14240 0814 50       		.byte	0x50
 14241 0815 20000000 		.4byte	.LVL184
 14242 0819 2C000000 		.4byte	.LVL187
 14243 081d 0400     		.2byte	0x4
 14244 081f F3       		.byte	0xf3
 14245 0820 01       		.uleb128 0x1
 14246 0821 50       		.byte	0x50
 14247 0822 9F       		.byte	0x9f
 14248 0823 2C000000 		.4byte	.LVL187
 14249 0827 38000000 		.4byte	.LVL188
 14250 082b 0100     		.2byte	0x1
 14251 082d 50       		.byte	0x50
 14252 082e 38000000 		.4byte	.LVL188
 14253 0832 44000000 		.4byte	.LVL191
 14254 0836 0400     		.2byte	0x4
 14255 0838 F3       		.byte	0xf3
 14256 0839 01       		.uleb128 0x1
 14257 083a 50       		.byte	0x50
 14258 083b 9F       		.byte	0x9f
 14259 083c 44000000 		.4byte	.LVL191
 14260 0840 58000000 		.4byte	.LVL192
 14261 0844 0100     		.2byte	0x1
 14262 0846 50       		.byte	0x50
 14263 0847 58000000 		.4byte	.LVL192
 14264 084b 64000000 		.4byte	.LVL195
 14265 084f 0400     		.2byte	0x4
 14266 0851 F3       		.byte	0xf3
 14267 0852 01       		.uleb128 0x1
 14268 0853 50       		.byte	0x50
 14269 0854 9F       		.byte	0x9f
 14270 0855 64000000 		.4byte	.LVL195
 14271 0859 7A000000 		.4byte	.LVL196
 14272 085d 0100     		.2byte	0x1
 14273 085f 50       		.byte	0x50
 14274 0860 7A000000 		.4byte	.LVL196
 14275 0864 B0000000 		.4byte	.LVL205
 14276 0868 0400     		.2byte	0x4
 14277 086a F3       		.byte	0xf3
 14278 086b 01       		.uleb128 0x1
 14279 086c 50       		.byte	0x50
ARM GAS  C:\Users\Helon\AppData\Local\Temp\ccKCxrf8.s 			page 320


 14280 086d 9F       		.byte	0x9f
 14281 086e B0000000 		.4byte	.LVL205
 14282 0872 B2000000 		.4byte	.LVL206
 14283 0876 0100     		.2byte	0x1
 14284 0878 50       		.byte	0x50
 14285 0879 B2000000 		.4byte	.LVL206
 14286 087d E2000000 		.4byte	.LVL214
 14287 0881 0400     		.2byte	0x4
 14288 0883 F3       		.byte	0xf3
 14289 0884 01       		.uleb128 0x1
 14290 0885 50       		.byte	0x50
 14291 0886 9F       		.byte	0x9f
 14292 0887 E2000000 		.4byte	.LVL214
 14293 088b E4000000 		.4byte	.LVL215
 14294 088f 0100     		.2byte	0x1
 14295 0891 50       		.byte	0x50
 14296 0892 E4000000 		.4byte	.LVL215
 14297 0896 00010000 		.4byte	.LVL220
 14298 089a 0400     		.2byte	0x4
 14299 089c F3       		.byte	0xf3
 14300 089d 01       		.uleb128 0x1
 14301 089e 50       		.byte	0x50
 14302 089f 9F       		.byte	0x9f
 14303 08a0 00010000 		.4byte	.LVL220
 14304 08a4 02010000 		.4byte	.LVL221
 14305 08a8 0100     		.2byte	0x1
 14306 08aa 50       		.byte	0x50
 14307 08ab 02010000 		.4byte	.LVL221
 14308 08af 1E010000 		.4byte	.LVL226
 14309 08b3 0400     		.2byte	0x4
 14310 08b5 F3       		.byte	0xf3
 14311 08b6 01       		.uleb128 0x1
 14312 08b7 50       		.byte	0x50
 14313 08b8 9F       		.byte	0x9f
 14314 08b9 1E010000 		.4byte	.LVL226
 14315 08bd 20010000 		.4byte	.LVL227
 14316 08c1 0100     		.2byte	0x1
 14317 08c3 50       		.byte	0x50
 14318 08c4 20010000 		.4byte	.LVL227
 14319 08c8 3E010000 		.4byte	.LVL232
 14320 08cc 0400     		.2byte	0x4
 14321 08ce F3       		.byte	0xf3
 14322 08cf 01       		.uleb128 0x1
 14323 08d0 50       		.byte	0x50
 14324 08d1 9F       		.byte	0x9f
 14325 08d2 3E010000 		.4byte	.LVL232
 14326 08d6 40010000 		.4byte	.LVL233
 14327 08da 0100     		.2byte	0x1
 14328 08dc 50       		.byte	0x50
 14329 08dd 40010000 		.4byte	.LVL233
 14330 08e1 72010000 		.4byte	.LVL241
 14331 08e5 0400     		.2byte	0x4
 14332 08e7 F3       		.byte	0xf3
 14333 08e8 01       		.uleb128 0x1
 14334 08e9 50       		.byte	0x50
 14335 08ea 9F       		.byte	0x9f
 14336 08eb 72010000 		.4byte	.LVL241
ARM GAS  C:\Users\Helon\AppData\Local\Temp\ccKCxrf8.s 			page 321


 14337 08ef 74010000 		.4byte	.LVL242
 14338 08f3 0100     		.2byte	0x1
 14339 08f5 50       		.byte	0x50
 14340 08f6 74010000 		.4byte	.LVL242
 14341 08fa 92010000 		.4byte	.LVL247
 14342 08fe 0400     		.2byte	0x4
 14343 0900 F3       		.byte	0xf3
 14344 0901 01       		.uleb128 0x1
 14345 0902 50       		.byte	0x50
 14346 0903 9F       		.byte	0x9f
 14347 0904 92010000 		.4byte	.LVL247
 14348 0908 94010000 		.4byte	.LVL248
 14349 090c 0100     		.2byte	0x1
 14350 090e 50       		.byte	0x50
 14351 090f 94010000 		.4byte	.LVL248
 14352 0913 B4010000 		.4byte	.LVL253
 14353 0917 0400     		.2byte	0x4
 14354 0919 F3       		.byte	0xf3
 14355 091a 01       		.uleb128 0x1
 14356 091b 50       		.byte	0x50
 14357 091c 9F       		.byte	0x9f
 14358 091d B4010000 		.4byte	.LVL253
 14359 0921 D0010000 		.4byte	.LVL254
 14360 0925 0100     		.2byte	0x1
 14361 0927 50       		.byte	0x50
 14362 0928 D0010000 		.4byte	.LVL254
 14363 092c D6010000 		.4byte	.LVL256
 14364 0930 0400     		.2byte	0x4
 14365 0932 F3       		.byte	0xf3
 14366 0933 01       		.uleb128 0x1
 14367 0934 50       		.byte	0x50
 14368 0935 9F       		.byte	0x9f
 14369 0936 D6010000 		.4byte	.LVL256
 14370 093a E2010000 		.4byte	.LVL257
 14371 093e 0100     		.2byte	0x1
 14372 0940 50       		.byte	0x50
 14373 0941 E2010000 		.4byte	.LVL257
 14374 0945 E8010000 		.4byte	.LVL259
 14375 0949 0400     		.2byte	0x4
 14376 094b F3       		.byte	0xf3
 14377 094c 01       		.uleb128 0x1
 14378 094d 50       		.byte	0x50
 14379 094e 9F       		.byte	0x9f
 14380 094f E8010000 		.4byte	.LVL259
 14381 0953 FA010000 		.4byte	.LVL260
 14382 0957 0100     		.2byte	0x1
 14383 0959 50       		.byte	0x50
 14384 095a FA010000 		.4byte	.LVL260
 14385 095e 00020000 		.4byte	.LVL262
 14386 0962 0400     		.2byte	0x4
 14387 0964 F3       		.byte	0xf3
 14388 0965 01       		.uleb128 0x1
 14389 0966 50       		.byte	0x50
 14390 0967 9F       		.byte	0x9f
 14391 0968 00020000 		.4byte	.LVL262
 14392 096c 14020000 		.4byte	.LVL263
 14393 0970 0100     		.2byte	0x1
ARM GAS  C:\Users\Helon\AppData\Local\Temp\ccKCxrf8.s 			page 322


 14394 0972 50       		.byte	0x50
 14395 0973 14020000 		.4byte	.LVL263
 14396 0977 1A020000 		.4byte	.LVL265
 14397 097b 0400     		.2byte	0x4
 14398 097d F3       		.byte	0xf3
 14399 097e 01       		.uleb128 0x1
 14400 097f 50       		.byte	0x50
 14401 0980 9F       		.byte	0x9f
 14402 0981 1A020000 		.4byte	.LVL265
 14403 0985 1C020000 		.4byte	.LVL266
 14404 0989 0100     		.2byte	0x1
 14405 098b 50       		.byte	0x50
 14406 098c 1C020000 		.4byte	.LVL266
 14407 0990 44020000 		.4byte	.LVL270
 14408 0994 0400     		.2byte	0x4
 14409 0996 F3       		.byte	0xf3
 14410 0997 01       		.uleb128 0x1
 14411 0998 50       		.byte	0x50
 14412 0999 9F       		.byte	0x9f
 14413 099a 44020000 		.4byte	.LVL270
 14414 099e 46020000 		.4byte	.LVL271
 14415 09a2 0100     		.2byte	0x1
 14416 09a4 50       		.byte	0x50
 14417 09a5 46020000 		.4byte	.LVL271
 14418 09a9 5C020000 		.4byte	.LVL274
 14419 09ad 0400     		.2byte	0x4
 14420 09af F3       		.byte	0xf3
 14421 09b0 01       		.uleb128 0x1
 14422 09b1 50       		.byte	0x50
 14423 09b2 9F       		.byte	0x9f
 14424 09b3 5C020000 		.4byte	.LVL274
 14425 09b7 5E020000 		.4byte	.LVL275
 14426 09bb 0100     		.2byte	0x1
 14427 09bd 50       		.byte	0x50
 14428 09be 5E020000 		.4byte	.LVL275
 14429 09c2 86020000 		.4byte	.LVL279
 14430 09c6 0400     		.2byte	0x4
 14431 09c8 F3       		.byte	0xf3
 14432 09c9 01       		.uleb128 0x1
 14433 09ca 50       		.byte	0x50
 14434 09cb 9F       		.byte	0x9f
 14435 09cc 86020000 		.4byte	.LVL279
 14436 09d0 88020000 		.4byte	.LVL280
 14437 09d4 0100     		.2byte	0x1
 14438 09d6 50       		.byte	0x50
 14439 09d7 88020000 		.4byte	.LVL280
 14440 09db 9E020000 		.4byte	.LVL283
 14441 09df 0400     		.2byte	0x4
 14442 09e1 F3       		.byte	0xf3
 14443 09e2 01       		.uleb128 0x1
 14444 09e3 50       		.byte	0x50
 14445 09e4 9F       		.byte	0x9f
 14446 09e5 9E020000 		.4byte	.LVL283
 14447 09e9 A0020000 		.4byte	.LVL284
 14448 09ed 0100     		.2byte	0x1
 14449 09ef 50       		.byte	0x50
 14450 09f0 A0020000 		.4byte	.LVL284
ARM GAS  C:\Users\Helon\AppData\Local\Temp\ccKCxrf8.s 			page 323


 14451 09f4 C8020000 		.4byte	.LVL288
 14452 09f8 0400     		.2byte	0x4
 14453 09fa F3       		.byte	0xf3
 14454 09fb 01       		.uleb128 0x1
 14455 09fc 50       		.byte	0x50
 14456 09fd 9F       		.byte	0x9f
 14457 09fe C8020000 		.4byte	.LVL288
 14458 0a02 CA020000 		.4byte	.LVL289
 14459 0a06 0100     		.2byte	0x1
 14460 0a08 50       		.byte	0x50
 14461 0a09 CA020000 		.4byte	.LVL289
 14462 0a0d 54030000 		.4byte	.LVL293
 14463 0a11 0400     		.2byte	0x4
 14464 0a13 F3       		.byte	0xf3
 14465 0a14 01       		.uleb128 0x1
 14466 0a15 50       		.byte	0x50
 14467 0a16 9F       		.byte	0x9f
 14468 0a17 54030000 		.4byte	.LVL293
 14469 0a1b 56030000 		.4byte	.LVL294
 14470 0a1f 0100     		.2byte	0x1
 14471 0a21 50       		.byte	0x50
 14472 0a22 56030000 		.4byte	.LVL294
 14473 0a26 74030000 		.4byte	.LFE50
 14474 0a2a 0400     		.2byte	0x4
 14475 0a2c F3       		.byte	0xf3
 14476 0a2d 01       		.uleb128 0x1
 14477 0a2e 50       		.byte	0x50
 14478 0a2f 9F       		.byte	0x9f
 14479 0a30 00000000 		.4byte	0
 14480 0a34 00000000 		.4byte	0
 14481              	.LLST27:
 14482 0a38 00000000 		.4byte	.LVL297
 14483 0a3c 16000000 		.4byte	.LVL298
 14484 0a40 0100     		.2byte	0x1
 14485 0a42 50       		.byte	0x50
 14486 0a43 16000000 		.4byte	.LVL298
 14487 0a47 1E000000 		.4byte	.LVL299
 14488 0a4b 0400     		.2byte	0x4
 14489 0a4d F3       		.byte	0xf3
 14490 0a4e 01       		.uleb128 0x1
 14491 0a4f 50       		.byte	0x50
 14492 0a50 9F       		.byte	0x9f
 14493 0a51 1E000000 		.4byte	.LVL299
 14494 0a55 20000000 		.4byte	.LVL300
 14495 0a59 0100     		.2byte	0x1
 14496 0a5b 50       		.byte	0x50
 14497 0a5c 20000000 		.4byte	.LVL300
 14498 0a60 3E000000 		.4byte	.LVL301
 14499 0a64 0400     		.2byte	0x4
 14500 0a66 F3       		.byte	0xf3
 14501 0a67 01       		.uleb128 0x1
 14502 0a68 50       		.byte	0x50
 14503 0a69 9F       		.byte	0x9f
 14504 0a6a 3E000000 		.4byte	.LVL301
 14505 0a6e 72000000 		.4byte	.LVL302
 14506 0a72 0200     		.2byte	0x2
 14507 0a74 74       		.byte	0x74
ARM GAS  C:\Users\Helon\AppData\Local\Temp\ccKCxrf8.s 			page 324


 14508 0a75 00       		.sleb128 0
 14509 0a76 72000000 		.4byte	.LVL302
 14510 0a7a B0000000 		.4byte	.LVL306
 14511 0a7e 0400     		.2byte	0x4
 14512 0a80 F3       		.byte	0xf3
 14513 0a81 01       		.uleb128 0x1
 14514 0a82 50       		.byte	0x50
 14515 0a83 9F       		.byte	0x9f
 14516 0a84 00000000 		.4byte	0
 14517 0a88 00000000 		.4byte	0
 14518              	.LLST28:
 14519 0a8c 00000000 		.4byte	.LVL297
 14520 0a90 7C000000 		.4byte	.LVL303
 14521 0a94 0200     		.2byte	0x2
 14522 0a96 30       		.byte	0x30
 14523 0a97 9F       		.byte	0x9f
 14524 0a98 7C000000 		.4byte	.LVL303
 14525 0a9c 82000000 		.4byte	.LVL304
 14526 0aa0 0100     		.2byte	0x1
 14527 0aa2 50       		.byte	0x50
 14528 0aa3 84000000 		.4byte	.LVL305
 14529 0aa7 B0000000 		.4byte	.LVL306
 14530 0aab 0200     		.2byte	0x2
 14531 0aad 30       		.byte	0x30
 14532 0aae 9F       		.byte	0x9f
 14533 0aaf 00000000 		.4byte	0
 14534 0ab3 00000000 		.4byte	0
 14535              	.LLST29:
 14536 0ab7 00000000 		.4byte	.LVL308
 14537 0abb 06000000 		.4byte	.LVL309
 14538 0abf 0100     		.2byte	0x1
 14539 0ac1 51       		.byte	0x51
 14540 0ac2 06000000 		.4byte	.LVL309
 14541 0ac6 68000000 		.4byte	.LFE52
 14542 0aca 0400     		.2byte	0x4
 14543 0acc F3       		.byte	0xf3
 14544 0acd 01       		.uleb128 0x1
 14545 0ace 51       		.byte	0x51
 14546 0acf 9F       		.byte	0x9f
 14547 0ad0 00000000 		.4byte	0
 14548 0ad4 00000000 		.4byte	0
 14549              	.LLST30:
 14550 0ad8 00000000 		.4byte	.LVL308
 14551 0adc 06000000 		.4byte	.LVL309
 14552 0ae0 0100     		.2byte	0x1
 14553 0ae2 52       		.byte	0x52
 14554 0ae3 06000000 		.4byte	.LVL309
 14555 0ae7 68000000 		.4byte	.LFE52
 14556 0aeb 0200     		.2byte	0x2
 14557 0aed 91       		.byte	0x91
 14558 0aee 64       		.sleb128 -28
 14559 0aef 00000000 		.4byte	0
 14560 0af3 00000000 		.4byte	0
 14561              	.LLST31:
 14562 0af7 12000000 		.4byte	.LVL310
 14563 0afb 28000000 		.4byte	.LVL312
 14564 0aff 0100     		.2byte	0x1
ARM GAS  C:\Users\Helon\AppData\Local\Temp\ccKCxrf8.s 			page 325


 14565 0b01 54       		.byte	0x54
 14566 0b02 28000000 		.4byte	.LVL312
 14567 0b06 5C000000 		.4byte	.LVL319
 14568 0b0a 0200     		.2byte	0x2
 14569 0b0c 71       		.byte	0x71
 14570 0b0d 00       		.sleb128 0
 14571 0b0e 00000000 		.4byte	0
 14572 0b12 00000000 		.4byte	0
 14573              	.LLST32:
 14574 0b16 16000000 		.4byte	.LVL311
 14575 0b1a 46000000 		.4byte	.LVL315
 14576 0b1e 0100     		.2byte	0x1
 14577 0b20 53       		.byte	0x53
 14578 0b21 46000000 		.4byte	.LVL315
 14579 0b25 5C000000 		.4byte	.LVL319
 14580 0b29 0200     		.2byte	0x2
 14581 0b2b 71       		.byte	0x71
 14582 0b2c 01       		.sleb128 1
 14583 0b2d 00000000 		.4byte	0
 14584 0b31 00000000 		.4byte	0
 14585              	.LLST33:
 14586 0b35 30000000 		.4byte	.LVL313
 14587 0b39 58000000 		.4byte	.LVL318
 14588 0b3d 0100     		.2byte	0x1
 14589 0b3f 56       		.byte	0x56
 14590 0b40 00000000 		.4byte	0
 14591 0b44 00000000 		.4byte	0
 14592              	.LLST34:
 14593 0b48 4E000000 		.4byte	.LVL316
 14594 0b4c 62000000 		.4byte	.LVL321
 14595 0b50 0100     		.2byte	0x1
 14596 0b52 54       		.byte	0x54
 14597 0b53 00000000 		.4byte	0
 14598 0b57 00000000 		.4byte	0
 14599              	.LLST35:
 14600 0b5b 00000000 		.4byte	.LVL308
 14601 0b5f 06000000 		.4byte	.LVL309
 14602 0b63 0200     		.2byte	0x2
 14603 0b65 30       		.byte	0x30
 14604 0b66 9F       		.byte	0x9f
 14605 0b67 06000000 		.4byte	.LVL309
 14606 0b6b 5C000000 		.4byte	.LVL319
 14607 0b6f 0600     		.2byte	0x6
 14608 0b71 75       		.byte	0x75
 14609 0b72 00       		.sleb128 0
 14610 0b73 70       		.byte	0x70
 14611 0b74 00       		.sleb128 0
 14612 0b75 1C       		.byte	0x1c
 14613 0b76 9F       		.byte	0x9f
 14614 0b77 5C000000 		.4byte	.LVL319
 14615 0b7b 60000000 		.4byte	.LVL320
 14616 0b7f 0800     		.2byte	0x8
 14617 0b81 75       		.byte	0x75
 14618 0b82 00       		.sleb128 0
 14619 0b83 70       		.byte	0x70
 14620 0b84 00       		.sleb128 0
 14621 0b85 1C       		.byte	0x1c
ARM GAS  C:\Users\Helon\AppData\Local\Temp\ccKCxrf8.s 			page 326


 14622 0b86 23       		.byte	0x23
 14623 0b87 01       		.uleb128 0x1
 14624 0b88 9F       		.byte	0x9f
 14625 0b89 60000000 		.4byte	.LVL320
 14626 0b8d 62000000 		.4byte	.LVL322
 14627 0b91 0600     		.2byte	0x6
 14628 0b93 75       		.byte	0x75
 14629 0b94 00       		.sleb128 0
 14630 0b95 70       		.byte	0x70
 14631 0b96 00       		.sleb128 0
 14632 0b97 1C       		.byte	0x1c
 14633 0b98 9F       		.byte	0x9f
 14634 0b99 00000000 		.4byte	0
 14635 0b9d 00000000 		.4byte	0
 14636              	.LLST36:
 14637 0ba1 16000000 		.4byte	.LVL311
 14638 0ba5 28000000 		.4byte	.LVL312
 14639 0ba9 0100     		.2byte	0x1
 14640 0bab 54       		.byte	0x54
 14641 0bac 28000000 		.4byte	.LVL312
 14642 0bb0 5C000000 		.4byte	.LVL319
 14643 0bb4 0200     		.2byte	0x2
 14644 0bb6 71       		.byte	0x71
 14645 0bb7 00       		.sleb128 0
 14646 0bb8 00000000 		.4byte	0
 14647 0bbc 00000000 		.4byte	0
 14648              	.LLST37:
 14649 0bc0 38000000 		.4byte	.LVL314
 14650 0bc4 46000000 		.4byte	.LVL315
 14651 0bc8 0100     		.2byte	0x1
 14652 0bca 53       		.byte	0x53
 14653 0bcb 46000000 		.4byte	.LVL315
 14654 0bcf 5C000000 		.4byte	.LVL319
 14655 0bd3 0200     		.2byte	0x2
 14656 0bd5 71       		.byte	0x71
 14657 0bd6 01       		.sleb128 1
 14658 0bd7 00000000 		.4byte	0
 14659 0bdb 00000000 		.4byte	0
 14660              	.LLST38:
 14661 0bdf 00000000 		.4byte	.LVL323
 14662 0be3 14000000 		.4byte	.LVL325
 14663 0be7 0100     		.2byte	0x1
 14664 0be9 50       		.byte	0x50
 14665 0bea 14000000 		.4byte	.LVL325
 14666 0bee D6000000 		.4byte	.LVL338
 14667 0bf2 0100     		.2byte	0x1
 14668 0bf4 54       		.byte	0x54
 14669 0bf5 D6000000 		.4byte	.LVL338
 14670 0bf9 F8000000 		.4byte	.LVL342
 14671 0bfd 0400     		.2byte	0x4
 14672 0bff F3       		.byte	0xf3
 14673 0c00 01       		.uleb128 0x1
 14674 0c01 50       		.byte	0x50
 14675 0c02 9F       		.byte	0x9f
 14676 0c03 F8000000 		.4byte	.LVL342
 14677 0c07 1C010000 		.4byte	.LVL347
 14678 0c0b 0100     		.2byte	0x1
ARM GAS  C:\Users\Helon\AppData\Local\Temp\ccKCxrf8.s 			page 327


 14679 0c0d 54       		.byte	0x54
 14680 0c0e 1C010000 		.4byte	.LVL347
 14681 0c12 76010000 		.4byte	.LVL355
 14682 0c16 0300     		.2byte	0x3
 14683 0c18 74       		.byte	0x74
 14684 0c19 77       		.sleb128 -9
 14685 0c1a 9F       		.byte	0x9f
 14686 0c1b 76010000 		.4byte	.LVL355
 14687 0c1f 82010000 		.4byte	.LVL357
 14688 0c23 0400     		.2byte	0x4
 14689 0c25 F3       		.byte	0xf3
 14690 0c26 01       		.uleb128 0x1
 14691 0c27 50       		.byte	0x50
 14692 0c28 9F       		.byte	0x9f
 14693 0c29 82010000 		.4byte	.LVL357
 14694 0c2d 98010000 		.4byte	.LVL360
 14695 0c31 0100     		.2byte	0x1
 14696 0c33 54       		.byte	0x54
 14697 0c34 98010000 		.4byte	.LVL360
 14698 0c38 9E010000 		.4byte	.LVL361
 14699 0c3c 0400     		.2byte	0x4
 14700 0c3e F3       		.byte	0xf3
 14701 0c3f 01       		.uleb128 0x1
 14702 0c40 50       		.byte	0x50
 14703 0c41 9F       		.byte	0x9f
 14704 0c42 9E010000 		.4byte	.LVL361
 14705 0c46 90020000 		.4byte	.LVL393
 14706 0c4a 0100     		.2byte	0x1
 14707 0c4c 54       		.byte	0x54
 14708 0c4d 90020000 		.4byte	.LVL393
 14709 0c51 C0020000 		.4byte	.LVL400
 14710 0c55 0400     		.2byte	0x4
 14711 0c57 F3       		.byte	0xf3
 14712 0c58 01       		.uleb128 0x1
 14713 0c59 50       		.byte	0x50
 14714 0c5a 9F       		.byte	0x9f
 14715 0c5b C0020000 		.4byte	.LVL400
 14716 0c5f B4030000 		.4byte	.LVL417
 14717 0c63 0100     		.2byte	0x1
 14718 0c65 54       		.byte	0x54
 14719 0c66 B4030000 		.4byte	.LVL417
 14720 0c6a 38040000 		.4byte	.LVL421
 14721 0c6e 0400     		.2byte	0x4
 14722 0c70 F3       		.byte	0xf3
 14723 0c71 01       		.uleb128 0x1
 14724 0c72 50       		.byte	0x50
 14725 0c73 9F       		.byte	0x9f
 14726 0c74 38040000 		.4byte	.LVL421
 14727 0c78 44040000 		.4byte	.LVL422
 14728 0c7c 0100     		.2byte	0x1
 14729 0c7e 54       		.byte	0x54
 14730 0c7f 44040000 		.4byte	.LVL422
 14731 0c83 68040000 		.4byte	.LVL426
 14732 0c87 0400     		.2byte	0x4
 14733 0c89 F3       		.byte	0xf3
 14734 0c8a 01       		.uleb128 0x1
 14735 0c8b 50       		.byte	0x50
ARM GAS  C:\Users\Helon\AppData\Local\Temp\ccKCxrf8.s 			page 328


 14736 0c8c 9F       		.byte	0x9f
 14737 0c8d 68040000 		.4byte	.LVL426
 14738 0c91 D2040000 		.4byte	.LVL436
 14739 0c95 0100     		.2byte	0x1
 14740 0c97 54       		.byte	0x54
 14741 0c98 D2040000 		.4byte	.LVL436
 14742 0c9c 12050000 		.4byte	.LVL441
 14743 0ca0 0400     		.2byte	0x4
 14744 0ca2 F3       		.byte	0xf3
 14745 0ca3 01       		.uleb128 0x1
 14746 0ca4 50       		.byte	0x50
 14747 0ca5 9F       		.byte	0x9f
 14748 0ca6 12050000 		.4byte	.LVL441
 14749 0caa 62050000 		.4byte	.LVL452
 14750 0cae 0100     		.2byte	0x1
 14751 0cb0 54       		.byte	0x54
 14752 0cb1 62050000 		.4byte	.LVL452
 14753 0cb5 92050000 		.4byte	.LVL457
 14754 0cb9 0400     		.2byte	0x4
 14755 0cbb F3       		.byte	0xf3
 14756 0cbc 01       		.uleb128 0x1
 14757 0cbd 50       		.byte	0x50
 14758 0cbe 9F       		.byte	0x9f
 14759 0cbf 92050000 		.4byte	.LVL457
 14760 0cc3 A8050000 		.4byte	.LVL462
 14761 0cc7 0100     		.2byte	0x1
 14762 0cc9 54       		.byte	0x54
 14763 0cca A8050000 		.4byte	.LVL462
 14764 0cce D6050000 		.4byte	.LVL467
 14765 0cd2 0400     		.2byte	0x4
 14766 0cd4 F3       		.byte	0xf3
 14767 0cd5 01       		.uleb128 0x1
 14768 0cd6 50       		.byte	0x50
 14769 0cd7 9F       		.byte	0x9f
 14770 0cd8 D6050000 		.4byte	.LVL467
 14771 0cdc EC050000 		.4byte	.LVL472
 14772 0ce0 0100     		.2byte	0x1
 14773 0ce2 54       		.byte	0x54
 14774 0ce3 EC050000 		.4byte	.LVL472
 14775 0ce7 1A060000 		.4byte	.LVL477
 14776 0ceb 0400     		.2byte	0x4
 14777 0ced F3       		.byte	0xf3
 14778 0cee 01       		.uleb128 0x1
 14779 0cef 50       		.byte	0x50
 14780 0cf0 9F       		.byte	0x9f
 14781 0cf1 1A060000 		.4byte	.LVL477
 14782 0cf5 34060000 		.4byte	.LVL483
 14783 0cf9 0100     		.2byte	0x1
 14784 0cfb 54       		.byte	0x54
 14785 0cfc 34060000 		.4byte	.LVL483
 14786 0d00 66060000 		.4byte	.LVL488
 14787 0d04 0400     		.2byte	0x4
 14788 0d06 F3       		.byte	0xf3
 14789 0d07 01       		.uleb128 0x1
 14790 0d08 50       		.byte	0x50
 14791 0d09 9F       		.byte	0x9f
 14792 0d0a 66060000 		.4byte	.LVL488
ARM GAS  C:\Users\Helon\AppData\Local\Temp\ccKCxrf8.s 			page 329


 14793 0d0e A8060000 		.4byte	.LVL498
 14794 0d12 0100     		.2byte	0x1
 14795 0d14 54       		.byte	0x54
 14796 0d15 A8060000 		.4byte	.LVL498
 14797 0d19 B6060000 		.4byte	.LVL501
 14798 0d1d 0400     		.2byte	0x4
 14799 0d1f F3       		.byte	0xf3
 14800 0d20 01       		.uleb128 0x1
 14801 0d21 50       		.byte	0x50
 14802 0d22 9F       		.byte	0x9f
 14803 0d23 B6060000 		.4byte	.LVL501
 14804 0d27 C6060000 		.4byte	.LVL503
 14805 0d2b 0100     		.2byte	0x1
 14806 0d2d 54       		.byte	0x54
 14807 0d2e C6060000 		.4byte	.LVL503
 14808 0d32 36070000 		.4byte	.LVL520
 14809 0d36 0400     		.2byte	0x4
 14810 0d38 F3       		.byte	0xf3
 14811 0d39 01       		.uleb128 0x1
 14812 0d3a 50       		.byte	0x50
 14813 0d3b 9F       		.byte	0x9f
 14814 0d3c 36070000 		.4byte	.LVL520
 14815 0d40 14080000 		.4byte	.LVL535
 14816 0d44 0100     		.2byte	0x1
 14817 0d46 54       		.byte	0x54
 14818 0d47 14080000 		.4byte	.LVL535
 14819 0d4b 26080000 		.4byte	.LVL538
 14820 0d4f 0400     		.2byte	0x4
 14821 0d51 F3       		.byte	0xf3
 14822 0d52 01       		.uleb128 0x1
 14823 0d53 50       		.byte	0x50
 14824 0d54 9F       		.byte	0x9f
 14825 0d55 26080000 		.4byte	.LVL538
 14826 0d59 F2080000 		.4byte	.LVL569
 14827 0d5d 0100     		.2byte	0x1
 14828 0d5f 54       		.byte	0x54
 14829 0d60 F2080000 		.4byte	.LVL569
 14830 0d64 F6080000 		.4byte	.LVL570
 14831 0d68 0400     		.2byte	0x4
 14832 0d6a F3       		.byte	0xf3
 14833 0d6b 01       		.uleb128 0x1
 14834 0d6c 50       		.byte	0x50
 14835 0d6d 9F       		.byte	0x9f
 14836 0d6e F6080000 		.4byte	.LVL570
 14837 0d72 08090000 		.4byte	.LVL574
 14838 0d76 0100     		.2byte	0x1
 14839 0d78 54       		.byte	0x54
 14840 0d79 08090000 		.4byte	.LVL574
 14841 0d7d E8090000 		.4byte	.LFE43
 14842 0d81 0400     		.2byte	0x4
 14843 0d83 F3       		.byte	0xf3
 14844 0d84 01       		.uleb128 0x1
 14845 0d85 50       		.byte	0x50
 14846 0d86 9F       		.byte	0x9f
 14847 0d87 00000000 		.4byte	0
 14848 0d8b 00000000 		.4byte	0
 14849              	.LLST39:
ARM GAS  C:\Users\Helon\AppData\Local\Temp\ccKCxrf8.s 			page 330


 14850 0d8f 0E000000 		.4byte	.LVL324
 14851 0d93 4E000000 		.4byte	.LVL330
 14852 0d97 0200     		.2byte	0x2
 14853 0d99 30       		.byte	0x30
 14854 0d9a 9F       		.byte	0x9f
 14855 0d9b 4E000000 		.4byte	.LVL330
 14856 0d9f 9E000000 		.4byte	.LVL331
 14857 0da3 0100     		.2byte	0x1
 14858 0da5 50       		.byte	0x50
 14859 0da6 BA000000 		.4byte	.LVL335
 14860 0daa BE000000 		.4byte	.LVL336
 14861 0dae 0100     		.2byte	0x1
 14862 0db0 50       		.byte	0x50
 14863 0db1 CA000000 		.4byte	.LVL337
 14864 0db5 D8000000 		.4byte	.LVL339
 14865 0db9 0100     		.2byte	0x1
 14866 0dbb 50       		.byte	0x50
 14867 0dbc F8000000 		.4byte	.LVL342
 14868 0dc0 10010000 		.4byte	.LVL344
 14869 0dc4 0100     		.2byte	0x1
 14870 0dc6 50       		.byte	0x50
 14871 0dc7 1A010000 		.4byte	.LVL346
 14872 0dcb 1E010000 		.4byte	.LVL348
 14873 0dcf 0100     		.2byte	0x1
 14874 0dd1 50       		.byte	0x50
 14875 0dd2 82010000 		.4byte	.LVL357
 14876 0dd6 98010000 		.4byte	.LVL360
 14877 0dda 0100     		.2byte	0x1
 14878 0ddc 50       		.byte	0x50
 14879 0ddd 9E010000 		.4byte	.LVL361
 14880 0de1 A6010000 		.4byte	.LVL362
 14881 0de5 0100     		.2byte	0x1
 14882 0de7 50       		.byte	0x50
 14883 0de8 AA010000 		.4byte	.LVL363
 14884 0dec AE010000 		.4byte	.LVL364
 14885 0df0 0100     		.2byte	0x1
 14886 0df2 50       		.byte	0x50
 14887 0df3 BA010000 		.4byte	.LVL366
 14888 0df7 C6010000 		.4byte	.LVL368
 14889 0dfb 0100     		.2byte	0x1
 14890 0dfd 50       		.byte	0x50
 14891 0dfe 3A020000 		.4byte	.LVL379
 14892 0e02 44020000 		.4byte	.LVL381
 14893 0e06 0100     		.2byte	0x1
 14894 0e08 50       		.byte	0x50
 14895 0e09 64020000 		.4byte	.LVL386
 14896 0e0d 7E020000 		.4byte	.LVL389
 14897 0e11 0100     		.2byte	0x1
 14898 0e13 50       		.byte	0x50
 14899 0e14 C0020000 		.4byte	.LVL400
 14900 0e18 CA020000 		.4byte	.LVL401
 14901 0e1c 0100     		.2byte	0x1
 14902 0e1e 50       		.byte	0x50
 14903 0e1f 10030000 		.4byte	.LVL406
 14904 0e23 2A030000 		.4byte	.LVL407
 14905 0e27 0100     		.2byte	0x1
 14906 0e29 50       		.byte	0x50
ARM GAS  C:\Users\Helon\AppData\Local\Temp\ccKCxrf8.s 			page 331


 14907 0e2a 36030000 		.4byte	.LVL409
 14908 0e2e 4E030000 		.4byte	.LVL410
 14909 0e32 0100     		.2byte	0x1
 14910 0e34 50       		.byte	0x50
 14911 0e35 86030000 		.4byte	.LVL414
 14912 0e39 9C030000 		.4byte	.LVL415
 14913 0e3d 0100     		.2byte	0x1
 14914 0e3f 50       		.byte	0x50
 14915 0e40 A8030000 		.4byte	.LVL416
 14916 0e44 B8030000 		.4byte	.LVL418
 14917 0e48 0100     		.2byte	0x1
 14918 0e4a 50       		.byte	0x50
 14919 0e4b 38040000 		.4byte	.LVL421
 14920 0e4f 48040000 		.4byte	.LVL423
 14921 0e53 0100     		.2byte	0x1
 14922 0e55 50       		.byte	0x50
 14923 0e56 68040000 		.4byte	.LVL426
 14924 0e5a 7A040000 		.4byte	.LVL427
 14925 0e5e 0100     		.2byte	0x1
 14926 0e60 50       		.byte	0x50
 14927 0e61 8A040000 		.4byte	.LVL429
 14928 0e65 A7040000 		.4byte	.LVL430-1
 14929 0e69 0100     		.2byte	0x1
 14930 0e6b 50       		.byte	0x50
 14931 0e6c B0040000 		.4byte	.LVL432
 14932 0e70 C1040000 		.4byte	.LVL433-1
 14933 0e74 0100     		.2byte	0x1
 14934 0e76 50       		.byte	0x50
 14935 0e77 CA040000 		.4byte	.LVL435
 14936 0e7b D6040000 		.4byte	.LVL437
 14937 0e7f 0100     		.2byte	0x1
 14938 0e81 50       		.byte	0x50
 14939 0e82 12050000 		.4byte	.LVL441
 14940 0e86 1E050000 		.4byte	.LVL443
 14941 0e8a 0100     		.2byte	0x1
 14942 0e8c 50       		.byte	0x50
 14943 0e8d 24050000 		.4byte	.LVL445
 14944 0e91 32050000 		.4byte	.LVL446
 14945 0e95 0100     		.2byte	0x1
 14946 0e97 50       		.byte	0x50
 14947 0e98 82060000 		.4byte	.LVL494
 14948 0e9c 97060000 		.4byte	.LVL496-1
 14949 0ea0 0100     		.2byte	0x1
 14950 0ea2 50       		.byte	0x50
 14951 0ea3 9E060000 		.4byte	.LVL497
 14952 0ea7 AA060000 		.4byte	.LVL499
 14953 0eab 0100     		.2byte	0x1
 14954 0ead 50       		.byte	0x50
 14955 0eae B6060000 		.4byte	.LVL501
 14956 0eb2 DA060000 		.4byte	.LVL504
 14957 0eb6 0100     		.2byte	0x1
 14958 0eb8 50       		.byte	0x50
 14959 0eb9 E4060000 		.4byte	.LVL506
 14960 0ebd F0060000 		.4byte	.LVL509
 14961 0ec1 0100     		.2byte	0x1
 14962 0ec3 50       		.byte	0x50
 14963 0ec4 08070000 		.4byte	.LVL512
ARM GAS  C:\Users\Helon\AppData\Local\Temp\ccKCxrf8.s 			page 332


 14964 0ec8 1E070000 		.4byte	.LVL513
 14965 0ecc 0100     		.2byte	0x1
 14966 0ece 50       		.byte	0x50
 14967 0ecf 26070000 		.4byte	.LVL515
 14968 0ed3 28070000 		.4byte	.LVL516
 14969 0ed7 0100     		.2byte	0x1
 14970 0ed9 50       		.byte	0x50
 14971 0eda 36070000 		.4byte	.LVL520
 14972 0ede 42070000 		.4byte	.LVL523
 14973 0ee2 0100     		.2byte	0x1
 14974 0ee4 50       		.byte	0x50
 14975 0ee5 AC070000 		.4byte	.LVL524
 14976 0ee9 B2070000 		.4byte	.LVL526
 14977 0eed 0100     		.2byte	0x1
 14978 0eef 50       		.byte	0x50
 14979 0ef0 E4070000 		.4byte	.LVL530
 14980 0ef4 E8070000 		.4byte	.LVL531
 14981 0ef8 0100     		.2byte	0x1
 14982 0efa 50       		.byte	0x50
 14983 0efb AC080000 		.4byte	.LVL560
 14984 0eff B6080000 		.4byte	.LVL563
 14985 0f03 0100     		.2byte	0x1
 14986 0f05 50       		.byte	0x50
 14987 0f06 C0080000 		.4byte	.LVL564
 14988 0f0a D4080000 		.4byte	.LVL566
 14989 0f0e 0100     		.2byte	0x1
 14990 0f10 50       		.byte	0x50
 14991 0f11 DA080000 		.4byte	.LVL568
 14992 0f15 F2080000 		.4byte	.LVL569
 14993 0f19 0100     		.2byte	0x1
 14994 0f1b 50       		.byte	0x50
 14995 0f1c F6080000 		.4byte	.LVL570
 14996 0f20 FA080000 		.4byte	.LVL571
 14997 0f24 0100     		.2byte	0x1
 14998 0f26 50       		.byte	0x50
 14999 0f27 04090000 		.4byte	.LVL572
 15000 0f2b 14090000 		.4byte	.LVL575
 15001 0f2f 0100     		.2byte	0x1
 15002 0f31 50       		.byte	0x50
 15003 0f32 00000000 		.4byte	0
 15004 0f36 00000000 		.4byte	0
 15005              	.LLST40:
 15006 0f3a 0E000000 		.4byte	.LVL324
 15007 0f3e 48020000 		.4byte	.LVL382
 15008 0f42 0200     		.2byte	0x2
 15009 0f44 30       		.byte	0x30
 15010 0f45 9F       		.byte	0x9f
 15011 0f46 48020000 		.4byte	.LVL382
 15012 0f4a 58020000 		.4byte	.LVL383
 15013 0f4e 0100     		.2byte	0x1
 15014 0f50 55       		.byte	0x55
 15015 0f51 5E020000 		.4byte	.LVL385
 15016 0f55 64020000 		.4byte	.LVL386
 15017 0f59 0100     		.2byte	0x1
 15018 0f5b 55       		.byte	0x55
 15019 0f5c 64020000 		.4byte	.LVL386
 15020 0f60 DE040000 		.4byte	.LVL438
ARM GAS  C:\Users\Helon\AppData\Local\Temp\ccKCxrf8.s 			page 333


 15021 0f64 0200     		.2byte	0x2
 15022 0f66 30       		.byte	0x30
 15023 0f67 9F       		.byte	0x9f
 15024 0f68 DE040000 		.4byte	.LVL438
 15025 0f6c F0040000 		.4byte	.LVL439
 15026 0f70 0100     		.2byte	0x1
 15027 0f72 54       		.byte	0x54
 15028 0f73 10050000 		.4byte	.LVL440
 15029 0f77 12050000 		.4byte	.LVL441
 15030 0f7b 0100     		.2byte	0x1
 15031 0f7d 54       		.byte	0x54
 15032 0f7e 12050000 		.4byte	.LVL441
 15033 0f82 62050000 		.4byte	.LVL452
 15034 0f86 0200     		.2byte	0x2
 15035 0f88 30       		.byte	0x30
 15036 0f89 9F       		.byte	0x9f
 15037 0f8a 64050000 		.4byte	.LVL453
 15038 0f8e 70050000 		.4byte	.LVL454
 15039 0f92 0100     		.2byte	0x1
 15040 0f94 52       		.byte	0x52
 15041 0f95 92050000 		.4byte	.LVL457
 15042 0f99 A8050000 		.4byte	.LVL462
 15043 0f9d 0200     		.2byte	0x2
 15044 0f9f 30       		.byte	0x30
 15045 0fa0 9F       		.byte	0x9f
 15046 0fa1 AA050000 		.4byte	.LVL463
 15047 0fa5 B6050000 		.4byte	.LVL464
 15048 0fa9 0100     		.2byte	0x1
 15049 0fab 52       		.byte	0x52
 15050 0fac D6050000 		.4byte	.LVL467
 15051 0fb0 EC050000 		.4byte	.LVL472
 15052 0fb4 0200     		.2byte	0x2
 15053 0fb6 30       		.byte	0x30
 15054 0fb7 9F       		.byte	0x9f
 15055 0fb8 EE050000 		.4byte	.LVL473
 15056 0fbc FA050000 		.4byte	.LVL474
 15057 0fc0 0100     		.2byte	0x1
 15058 0fc2 52       		.byte	0x52
 15059 0fc3 1A060000 		.4byte	.LVL477
 15060 0fc7 34060000 		.4byte	.LVL483
 15061 0fcb 0200     		.2byte	0x2
 15062 0fcd 30       		.byte	0x30
 15063 0fce 9F       		.byte	0x9f
 15064 0fcf 36060000 		.4byte	.LVL484
 15065 0fd3 42060000 		.4byte	.LVL485
 15066 0fd7 0100     		.2byte	0x1
 15067 0fd9 52       		.byte	0x52
 15068 0fda 66060000 		.4byte	.LVL488
 15069 0fde F2080000 		.4byte	.LVL569
 15070 0fe2 0200     		.2byte	0x2
 15071 0fe4 30       		.byte	0x30
 15072 0fe5 9F       		.byte	0x9f
 15073 0fe6 F6080000 		.4byte	.LVL570
 15074 0fea 76090000 		.4byte	.LVL581
 15075 0fee 0200     		.2byte	0x2
 15076 0ff0 30       		.byte	0x30
 15077 0ff1 9F       		.byte	0x9f
ARM GAS  C:\Users\Helon\AppData\Local\Temp\ccKCxrf8.s 			page 334


 15078 0ff2 00000000 		.4byte	0
 15079 0ff6 00000000 		.4byte	0
 15080              	.LLST41:
 15081 0ffa 0E000000 		.4byte	.LVL324
 15082 0ffe CA000000 		.4byte	.LVL337
 15083 1002 0200     		.2byte	0x2
 15084 1004 30       		.byte	0x30
 15085 1005 9F       		.byte	0x9f
 15086 1006 CA000000 		.4byte	.LVL337
 15087 100a D6000000 		.4byte	.LVL338
 15088 100e 0200     		.2byte	0x2
 15089 1010 74       		.byte	0x74
 15090 1011 09       		.sleb128 9
 15091 1012 D6000000 		.4byte	.LVL338
 15092 1016 DB000000 		.4byte	.LVL340-1
 15093 101a 0100     		.2byte	0x1
 15094 101c 53       		.byte	0x53
 15095 101d F8000000 		.4byte	.LVL342
 15096 1021 FC000000 		.4byte	.LVL343
 15097 1025 0200     		.2byte	0x2
 15098 1027 30       		.byte	0x30
 15099 1028 9F       		.byte	0x9f
 15100 1029 FC000000 		.4byte	.LVL343
 15101 102d 13010000 		.4byte	.LVL345-1
 15102 1031 0100     		.2byte	0x1
 15103 1033 53       		.byte	0x53
 15104 1034 1A010000 		.4byte	.LVL346
 15105 1038 23010000 		.4byte	.LVL349-1
 15106 103c 0100     		.2byte	0x1
 15107 103e 53       		.byte	0x53
 15108 103f 82010000 		.4byte	.LVL357
 15109 1043 86010000 		.4byte	.LVL358
 15110 1047 0200     		.2byte	0x2
 15111 1049 30       		.byte	0x30
 15112 104a 9F       		.byte	0x9f
 15113 104b 86010000 		.4byte	.LVL358
 15114 104f 92010000 		.4byte	.LVL359
 15115 1053 0100     		.2byte	0x1
 15116 1055 53       		.byte	0x53
 15117 1056 92010000 		.4byte	.LVL359
 15118 105a 98010000 		.4byte	.LVL360
 15119 105e 0200     		.2byte	0x2
 15120 1060 74       		.byte	0x74
 15121 1061 08       		.sleb128 8
 15122 1062 9E010000 		.4byte	.LVL361
 15123 1066 A6010000 		.4byte	.LVL362
 15124 106a 0200     		.2byte	0x2
 15125 106c 30       		.byte	0x30
 15126 106d 9F       		.byte	0x9f
 15127 106e AA010000 		.4byte	.LVL363
 15128 1072 AE010000 		.4byte	.LVL364
 15129 1076 0200     		.2byte	0x2
 15130 1078 30       		.byte	0x30
 15131 1079 9F       		.byte	0x9f
 15132 107a AE010000 		.4byte	.LVL364
 15133 107e B7010000 		.4byte	.LVL365-1
 15134 1082 0100     		.2byte	0x1
ARM GAS  C:\Users\Helon\AppData\Local\Temp\ccKCxrf8.s 			page 335


 15135 1084 50       		.byte	0x50
 15136 1085 BA010000 		.4byte	.LVL366
 15137 1089 C0010000 		.4byte	.LVL367
 15138 108d 0100     		.2byte	0x1
 15139 108f 53       		.byte	0x53
 15140 1090 C0010000 		.4byte	.LVL367
 15141 1094 CB010000 		.4byte	.LVL369-1
 15142 1098 0200     		.2byte	0x2
 15143 109a 74       		.byte	0x74
 15144 109b 08       		.sleb128 8
 15145 109c 3A020000 		.4byte	.LVL379
 15146 10a0 3C020000 		.4byte	.LVL380
 15147 10a4 0100     		.2byte	0x1
 15148 10a6 53       		.byte	0x53
 15149 10a7 3C020000 		.4byte	.LVL380
 15150 10ab 47020000 		.4byte	.LVL382-1
 15151 10af 0200     		.2byte	0x2
 15152 10b1 74       		.byte	0x74
 15153 10b2 08       		.sleb128 8
 15154 10b3 64020000 		.4byte	.LVL386
 15155 10b7 68020000 		.4byte	.LVL387
 15156 10bb 0200     		.2byte	0x2
 15157 10bd 30       		.byte	0x30
 15158 10be 9F       		.byte	0x9f
 15159 10bf 68020000 		.4byte	.LVL387
 15160 10c3 81020000 		.4byte	.LVL390-1
 15161 10c7 0100     		.2byte	0x1
 15162 10c9 52       		.byte	0x52
 15163 10ca C0020000 		.4byte	.LVL400
 15164 10ce D2020000 		.4byte	.LVL402
 15165 10d2 0100     		.2byte	0x1
 15166 10d4 52       		.byte	0x52
 15167 10d5 D2020000 		.4byte	.LVL402
 15168 10d9 D7020000 		.4byte	.LVL403-1
 15169 10dd 0200     		.2byte	0x2
 15170 10df 74       		.byte	0x74
 15171 10e0 08       		.sleb128 8
 15172 10e1 10030000 		.4byte	.LVL406
 15173 10e5 33030000 		.4byte	.LVL408-1
 15174 10e9 0200     		.2byte	0x2
 15175 10eb 74       		.byte	0x74
 15176 10ec 09       		.sleb128 9
 15177 10ed 36030000 		.4byte	.LVL409
 15178 10f1 5B030000 		.4byte	.LVL411-1
 15179 10f5 0200     		.2byte	0x2
 15180 10f7 74       		.byte	0x74
 15181 10f8 09       		.sleb128 9
 15182 10f9 86030000 		.4byte	.LVL414
 15183 10fd B4030000 		.4byte	.LVL417
 15184 1101 0200     		.2byte	0x2
 15185 1103 74       		.byte	0x74
 15186 1104 08       		.sleb128 8
 15187 1105 B4030000 		.4byte	.LVL417
 15188 1109 C1030000 		.4byte	.LVL419-1
 15189 110d 0500     		.2byte	0x5
 15190 110f F3       		.byte	0xf3
 15191 1110 01       		.uleb128 0x1
ARM GAS  C:\Users\Helon\AppData\Local\Temp\ccKCxrf8.s 			page 336


 15192 1111 50       		.byte	0x50
 15193 1112 23       		.byte	0x23
 15194 1113 08       		.uleb128 0x8
 15195 1114 38040000 		.4byte	.LVL421
 15196 1118 44040000 		.4byte	.LVL422
 15197 111c 0200     		.2byte	0x2
 15198 111e 74       		.byte	0x74
 15199 111f 08       		.sleb128 8
 15200 1120 44040000 		.4byte	.LVL422
 15201 1124 51040000 		.4byte	.LVL424-1
 15202 1128 0500     		.2byte	0x5
 15203 112a F3       		.byte	0xf3
 15204 112b 01       		.uleb128 0x1
 15205 112c 50       		.byte	0x50
 15206 112d 23       		.byte	0x23
 15207 112e 08       		.uleb128 0x8
 15208 112f 68040000 		.4byte	.LVL426
 15209 1133 1C050000 		.4byte	.LVL442
 15210 1137 0200     		.2byte	0x2
 15211 1139 30       		.byte	0x30
 15212 113a 9F       		.byte	0x9f
 15213 113b 1C050000 		.4byte	.LVL442
 15214 113f 21050000 		.4byte	.LVL444-1
 15215 1143 0200     		.2byte	0x2
 15216 1145 74       		.byte	0x74
 15217 1146 09       		.sleb128 9
 15218 1147 24050000 		.4byte	.LVL445
 15219 114b 32050000 		.4byte	.LVL446
 15220 114f 0200     		.2byte	0x2
 15221 1151 30       		.byte	0x30
 15222 1152 9F       		.byte	0x9f
 15223 1153 32050000 		.4byte	.LVL446
 15224 1157 3C050000 		.4byte	.LVL447
 15225 115b 0100     		.2byte	0x1
 15226 115d 50       		.byte	0x50
 15227 115e 3C050000 		.4byte	.LVL447
 15228 1162 4E050000 		.4byte	.LVL448
 15229 1166 0300     		.2byte	0x3
 15230 1168 70       		.byte	0x70
 15231 1169 31       		.sleb128 49
 15232 116a 9F       		.byte	0x9f
 15233 116b 4E050000 		.4byte	.LVL448
 15234 116f 51050000 		.4byte	.LVL449-1
 15235 1173 0200     		.2byte	0x2
 15236 1175 74       		.byte	0x74
 15237 1176 0B       		.sleb128 11
 15238 1177 92050000 		.4byte	.LVL457
 15239 117b 94050000 		.4byte	.LVL458
 15240 117f 0300     		.2byte	0x3
 15241 1181 70       		.byte	0x70
 15242 1182 31       		.sleb128 49
 15243 1183 9F       		.byte	0x9f
 15244 1184 94050000 		.4byte	.LVL458
 15245 1188 97050000 		.4byte	.LVL459-1
 15246 118c 0200     		.2byte	0x2
 15247 118e 74       		.byte	0x74
 15248 118f 0B       		.sleb128 11
ARM GAS  C:\Users\Helon\AppData\Local\Temp\ccKCxrf8.s 			page 337


 15249 1190 D6050000 		.4byte	.LVL467
 15250 1194 D8050000 		.4byte	.LVL468
 15251 1198 0300     		.2byte	0x3
 15252 119a 70       		.byte	0x70
 15253 119b 31       		.sleb128 49
 15254 119c 9F       		.byte	0x9f
 15255 119d D8050000 		.4byte	.LVL468
 15256 11a1 DB050000 		.4byte	.LVL469-1
 15257 11a5 0200     		.2byte	0x2
 15258 11a7 74       		.byte	0x74
 15259 11a8 0B       		.sleb128 11
 15260 11a9 1A060000 		.4byte	.LVL477
 15261 11ad 1C060000 		.4byte	.LVL478
 15262 11b1 0300     		.2byte	0x3
 15263 11b3 70       		.byte	0x70
 15264 11b4 31       		.sleb128 49
 15265 11b5 9F       		.byte	0x9f
 15266 11b6 1C060000 		.4byte	.LVL478
 15267 11ba 1F060000 		.4byte	.LVL479-1
 15268 11be 0200     		.2byte	0x2
 15269 11c0 74       		.byte	0x74
 15270 11c1 0B       		.sleb128 11
 15271 11c2 66060000 		.4byte	.LVL488
 15272 11c6 70060000 		.4byte	.LVL489
 15273 11ca 0100     		.2byte	0x1
 15274 11cc 50       		.byte	0x50
 15275 11cd 70060000 		.4byte	.LVL489
 15276 11d1 73060000 		.4byte	.LVL490-1
 15277 11d5 0200     		.2byte	0x2
 15278 11d7 74       		.byte	0x74
 15279 11d8 0B       		.sleb128 11
 15280 11d9 82060000 		.4byte	.LVL494
 15281 11dd 8C060000 		.4byte	.LVL495
 15282 11e1 0200     		.2byte	0x2
 15283 11e3 30       		.byte	0x30
 15284 11e4 9F       		.byte	0x9f
 15285 11e5 8C060000 		.4byte	.LVL495
 15286 11e9 97060000 		.4byte	.LVL496-1
 15287 11ed 0200     		.2byte	0x2
 15288 11ef 74       		.byte	0x74
 15289 11f0 08       		.sleb128 8
 15290 11f1 9E060000 		.4byte	.LVL497
 15291 11f5 A8060000 		.4byte	.LVL498
 15292 11f9 0200     		.2byte	0x2
 15293 11fb 74       		.byte	0x74
 15294 11fc 09       		.sleb128 9
 15295 11fd A8060000 		.4byte	.LVL498
 15296 1201 AF060000 		.4byte	.LVL500-1
 15297 1205 0100     		.2byte	0x1
 15298 1207 53       		.byte	0x53
 15299 1208 B6060000 		.4byte	.LVL501
 15300 120c BA060000 		.4byte	.LVL502
 15301 1210 0200     		.2byte	0x2
 15302 1212 30       		.byte	0x30
 15303 1213 9F       		.byte	0x9f
 15304 1214 BA060000 		.4byte	.LVL502
 15305 1218 DD060000 		.4byte	.LVL505-1
ARM GAS  C:\Users\Helon\AppData\Local\Temp\ccKCxrf8.s 			page 338


 15306 121c 0100     		.2byte	0x1
 15307 121e 53       		.byte	0x53
 15308 121f E4060000 		.4byte	.LVL506
 15309 1223 EA060000 		.4byte	.LVL507
 15310 1227 0100     		.2byte	0x1
 15311 1229 53       		.byte	0x53
 15312 122a EA060000 		.4byte	.LVL507
 15313 122e EC060000 		.4byte	.LVL508
 15314 1232 0500     		.2byte	0x5
 15315 1234 F3       		.byte	0xf3
 15316 1235 01       		.uleb128 0x1
 15317 1236 50       		.byte	0x50
 15318 1237 23       		.byte	0x23
 15319 1238 0A       		.uleb128 0xa
 15320 1239 08070000 		.4byte	.LVL512
 15321 123d 23070000 		.4byte	.LVL514-1
 15322 1241 0100     		.2byte	0x1
 15323 1243 53       		.byte	0x53
 15324 1244 26070000 		.4byte	.LVL515
 15325 1248 2A070000 		.4byte	.LVL517
 15326 124c 0100     		.2byte	0x1
 15327 124e 53       		.byte	0x53
 15328 124f 36070000 		.4byte	.LVL520
 15329 1253 AC070000 		.4byte	.LVL524
 15330 1257 0200     		.2byte	0x2
 15331 1259 74       		.byte	0x74
 15332 125a 09       		.sleb128 9
 15333 125b AC070000 		.4byte	.LVL524
 15334 125f B0070000 		.4byte	.LVL525
 15335 1263 0200     		.2byte	0x2
 15336 1265 30       		.byte	0x30
 15337 1266 9F       		.byte	0x9f
 15338 1267 B0070000 		.4byte	.LVL525
 15339 126b CF070000 		.4byte	.LVL527-1
 15340 126f 0100     		.2byte	0x1
 15341 1271 52       		.byte	0x52
 15342 1272 D2070000 		.4byte	.LVL528
 15343 1276 E1070000 		.4byte	.LVL529-1
 15344 127a 0100     		.2byte	0x1
 15345 127c 52       		.byte	0x52
 15346 127d E4070000 		.4byte	.LVL530
 15347 1281 E8070000 		.4byte	.LVL531
 15348 1285 0200     		.2byte	0x2
 15349 1287 30       		.byte	0x30
 15350 1288 9F       		.byte	0x9f
 15351 1289 E8070000 		.4byte	.LVL531
 15352 128d F2070000 		.4byte	.LVL532
 15353 1291 0100     		.2byte	0x1
 15354 1293 50       		.byte	0x50
 15355 1294 F2070000 		.4byte	.LVL532
 15356 1298 0E080000 		.4byte	.LVL533
 15357 129c 0300     		.2byte	0x3
 15358 129e 70       		.byte	0x70
 15359 129f 30       		.sleb128 48
 15360 12a0 9F       		.byte	0x9f
 15361 12a1 0E080000 		.4byte	.LVL533
 15362 12a5 11080000 		.4byte	.LVL534-1
ARM GAS  C:\Users\Helon\AppData\Local\Temp\ccKCxrf8.s 			page 339


 15363 12a9 0200     		.2byte	0x2
 15364 12ab 74       		.byte	0x74
 15365 12ac 09       		.sleb128 9
 15366 12ad 26080000 		.4byte	.LVL538
 15367 12b1 28080000 		.4byte	.LVL539
 15368 12b5 0300     		.2byte	0x3
 15369 12b7 70       		.byte	0x70
 15370 12b8 30       		.sleb128 48
 15371 12b9 9F       		.byte	0x9f
 15372 12ba 28080000 		.4byte	.LVL539
 15373 12be 2B080000 		.4byte	.LVL540-1
 15374 12c2 0200     		.2byte	0x2
 15375 12c4 74       		.byte	0x74
 15376 12c5 09       		.sleb128 9
 15377 12c6 3C080000 		.4byte	.LVL543
 15378 12ca 3E080000 		.4byte	.LVL544
 15379 12ce 0300     		.2byte	0x3
 15380 12d0 70       		.byte	0x70
 15381 12d1 30       		.sleb128 48
 15382 12d2 9F       		.byte	0x9f
 15383 12d3 3E080000 		.4byte	.LVL544
 15384 12d7 41080000 		.4byte	.LVL545-1
 15385 12db 0200     		.2byte	0x2
 15386 12dd 74       		.byte	0x74
 15387 12de 09       		.sleb128 9
 15388 12df 52080000 		.4byte	.LVL548
 15389 12e3 54080000 		.4byte	.LVL549
 15390 12e7 0300     		.2byte	0x3
 15391 12e9 70       		.byte	0x70
 15392 12ea 30       		.sleb128 48
 15393 12eb 9F       		.byte	0x9f
 15394 12ec 54080000 		.4byte	.LVL549
 15395 12f0 57080000 		.4byte	.LVL550-1
 15396 12f4 0200     		.2byte	0x2
 15397 12f6 74       		.byte	0x74
 15398 12f7 09       		.sleb128 9
 15399 12f8 68080000 		.4byte	.LVL553
 15400 12fc 6A080000 		.4byte	.LVL554
 15401 1300 0300     		.2byte	0x3
 15402 1302 70       		.byte	0x70
 15403 1303 30       		.sleb128 48
 15404 1304 9F       		.byte	0x9f
 15405 1305 6A080000 		.4byte	.LVL554
 15406 1309 6D080000 		.4byte	.LVL555-1
 15407 130d 0200     		.2byte	0x2
 15408 130f 74       		.byte	0x74
 15409 1310 09       		.sleb128 9
 15410 1311 84080000 		.4byte	.LVL558
 15411 1315 8A080000 		.4byte	.LVL559
 15412 1319 0300     		.2byte	0x3
 15413 131b 70       		.byte	0x70
 15414 131c 30       		.sleb128 48
 15415 131d 9F       		.byte	0x9f
 15416 131e 8A080000 		.4byte	.LVL559
 15417 1322 AC080000 		.4byte	.LVL560
 15418 1326 0200     		.2byte	0x2
 15419 1328 74       		.byte	0x74
ARM GAS  C:\Users\Helon\AppData\Local\Temp\ccKCxrf8.s 			page 340


 15420 1329 09       		.sleb128 9
 15421 132a AC080000 		.4byte	.LVL560
 15422 132e AE080000 		.4byte	.LVL561
 15423 1332 0200     		.2byte	0x2
 15424 1334 30       		.byte	0x30
 15425 1335 9F       		.byte	0x9f
 15426 1336 AE080000 		.4byte	.LVL561
 15427 133a B4080000 		.4byte	.LVL562
 15428 133e 0100     		.2byte	0x1
 15429 1340 53       		.byte	0x53
 15430 1341 B4080000 		.4byte	.LVL562
 15431 1345 C0080000 		.4byte	.LVL564
 15432 1349 0200     		.2byte	0x2
 15433 134b 74       		.byte	0x74
 15434 134c 08       		.sleb128 8
 15435 134d C0080000 		.4byte	.LVL564
 15436 1351 C6080000 		.4byte	.LVL565
 15437 1355 0100     		.2byte	0x1
 15438 1357 53       		.byte	0x53
 15439 1358 C6080000 		.4byte	.LVL565
 15440 135c D7080000 		.4byte	.LVL567-1
 15441 1360 0200     		.2byte	0x2
 15442 1362 74       		.byte	0x74
 15443 1363 08       		.sleb128 8
 15444 1364 DA080000 		.4byte	.LVL568
 15445 1368 F2080000 		.4byte	.LVL569
 15446 136c 0200     		.2byte	0x2
 15447 136e 74       		.byte	0x74
 15448 136f 09       		.sleb128 9
 15449 1370 F6080000 		.4byte	.LVL570
 15450 1374 04090000 		.4byte	.LVL572
 15451 1378 0200     		.2byte	0x2
 15452 137a 74       		.byte	0x74
 15453 137b 09       		.sleb128 9
 15454 137c 04090000 		.4byte	.LVL572
 15455 1380 06090000 		.4byte	.LVL573
 15456 1384 0200     		.2byte	0x2
 15457 1386 30       		.byte	0x30
 15458 1387 9F       		.byte	0x9f
 15459 1388 06090000 		.4byte	.LVL573
 15460 138c 74090000 		.4byte	.LVL580
 15461 1390 0100     		.2byte	0x1
 15462 1392 56       		.byte	0x56
 15463 1393 00000000 		.4byte	0
 15464 1397 00000000 		.4byte	0
 15465              	.LLST42:
 15466 139b 7C020000 		.4byte	.LVL388
 15467 139f 81020000 		.4byte	.LVL390-1
 15468 13a3 1D00     		.2byte	0x1d
 15469 13a5 76       		.byte	0x76
 15470 13a6 00       		.sleb128 0
 15471 13a7 94       		.byte	0x94
 15472 13a8 02       		.byte	0x2
 15473 13a9 0A       		.byte	0xa
 15474 13aa FFFF     		.2byte	0xffff
 15475 13ac 1A       		.byte	0x1a
 15476 13ad F7       		.byte	0xf7
ARM GAS  C:\Users\Helon\AppData\Local\Temp\ccKCxrf8.s 			page 341


 15477 13ae 2C       		.uleb128 0x2c
 15478 13af F7       		.byte	0xf7
 15479 13b0 25       		.uleb128 0x25
 15480 13b1 F4       		.byte	0xf4
 15481 13b2 25       		.uleb128 0x25
 15482 13b3 08       		.byte	0x8
 15483 13b4 00000000 		.4byte	0
 15484 13b8 0000E43F 		.4byte	0x3fe40000
 15485 13bc 1E       		.byte	0x1e
 15486 13bd F7       		.byte	0xf7
 15487 13be 33       		.uleb128 0x33
 15488 13bf F7       		.byte	0xf7
 15489 13c0 00       		.uleb128 0
 15490 13c1 9F       		.byte	0x9f
 15491 13c2 00000000 		.4byte	0
 15492 13c6 00000000 		.4byte	0
 15493              	.LLST43:
 15494 13ca 7C020000 		.4byte	.LVL388
 15495 13ce 81020000 		.4byte	.LVL390-1
 15496 13d2 1D00     		.2byte	0x1d
 15497 13d4 76       		.byte	0x76
 15498 13d5 02       		.sleb128 2
 15499 13d6 94       		.byte	0x94
 15500 13d7 02       		.byte	0x2
 15501 13d8 0A       		.byte	0xa
 15502 13d9 FFFF     		.2byte	0xffff
 15503 13db 1A       		.byte	0x1a
 15504 13dc F7       		.byte	0xf7
 15505 13dd 2C       		.uleb128 0x2c
 15506 13de F7       		.byte	0xf7
 15507 13df 25       		.uleb128 0x25
 15508 13e0 F4       		.byte	0xf4
 15509 13e1 25       		.uleb128 0x25
 15510 13e2 08       		.byte	0x8
 15511 13e3 00000000 		.4byte	0
 15512 13e7 0000E43F 		.4byte	0x3fe40000
 15513 13eb 1E       		.byte	0x1e
 15514 13ec F7       		.byte	0xf7
 15515 13ed 33       		.uleb128 0x33
 15516 13ee F7       		.byte	0xf7
 15517 13ef 00       		.uleb128 0
 15518 13f0 9F       		.byte	0x9f
 15519 13f1 92020000 		.4byte	.LVL394
 15520 13f5 95020000 		.4byte	.LVL395-1
 15521 13f9 1B00     		.2byte	0x1b
 15522 13fb 70       		.byte	0x70
 15523 13fc 00       		.sleb128 0
 15524 13fd 0A       		.byte	0xa
 15525 13fe FFFF     		.2byte	0xffff
 15526 1400 1A       		.byte	0x1a
 15527 1401 F7       		.byte	0xf7
 15528 1402 2C       		.uleb128 0x2c
 15529 1403 F7       		.byte	0xf7
 15530 1404 25       		.uleb128 0x25
 15531 1405 F4       		.byte	0xf4
 15532 1406 25       		.uleb128 0x25
 15533 1407 08       		.byte	0x8
ARM GAS  C:\Users\Helon\AppData\Local\Temp\ccKCxrf8.s 			page 342


 15534 1408 00000000 		.4byte	0
 15535 140c 0000E43F 		.4byte	0x3fe40000
 15536 1410 1E       		.byte	0x1e
 15537 1411 F7       		.byte	0xf7
 15538 1412 33       		.uleb128 0x33
 15539 1413 F7       		.byte	0xf7
 15540 1414 00       		.uleb128 0
 15541 1415 9F       		.byte	0x9f
 15542 1416 00000000 		.4byte	0
 15543 141a 00000000 		.4byte	0
 15544              	.LLST44:
 15545 141e 4A000000 		.4byte	.LVL329
 15546 1422 76010000 		.4byte	.LVL355
 15547 1426 0200     		.2byte	0x2
 15548 1428 30       		.byte	0x30
 15549 1429 9F       		.byte	0x9f
 15550 142a 76010000 		.4byte	.LVL355
 15551 142e 7E010000 		.4byte	.LVL356
 15552 1432 0100     		.2byte	0x1
 15553 1434 50       		.byte	0x50
 15554 1435 82010000 		.4byte	.LVL357
 15555 1439 26020000 		.4byte	.LVL376
 15556 143d 0200     		.2byte	0x2
 15557 143f 30       		.byte	0x30
 15558 1440 9F       		.byte	0x9f
 15559 1441 26020000 		.4byte	.LVL376
 15560 1445 30020000 		.4byte	.LVL377
 15561 1449 0100     		.2byte	0x1
 15562 144b 50       		.byte	0x50
 15563 144c 3A020000 		.4byte	.LVL379
 15564 1450 84030000 		.4byte	.LVL413
 15565 1454 0200     		.2byte	0x2
 15566 1456 30       		.byte	0x30
 15567 1457 9F       		.byte	0x9f
 15568 1458 84030000 		.4byte	.LVL413
 15569 145c 86030000 		.4byte	.LVL414
 15570 1460 0100     		.2byte	0x1
 15571 1462 50       		.byte	0x50
 15572 1463 86030000 		.4byte	.LVL414
 15573 1467 88040000 		.4byte	.LVL428
 15574 146b 0200     		.2byte	0x2
 15575 146d 30       		.byte	0x30
 15576 146e 9F       		.byte	0x9f
 15577 146f 8A040000 		.4byte	.LVL429
 15578 1473 54050000 		.4byte	.LVL450
 15579 1477 0200     		.2byte	0x2
 15580 1479 30       		.byte	0x30
 15581 147a 9F       		.byte	0x9f
 15582 147b 54050000 		.4byte	.LVL450
 15583 147f 5E050000 		.4byte	.LVL451
 15584 1483 0100     		.2byte	0x1
 15585 1485 50       		.byte	0x50
 15586 1486 62050000 		.4byte	.LVL452
 15587 148a 76050000 		.4byte	.LVL455
 15588 148e 0100     		.2byte	0x1
 15589 1490 50       		.byte	0x50
 15590 1491 92050000 		.4byte	.LVL457
ARM GAS  C:\Users\Helon\AppData\Local\Temp\ccKCxrf8.s 			page 343


 15591 1495 9A050000 		.4byte	.LVL460
 15592 1499 0200     		.2byte	0x2
 15593 149b 30       		.byte	0x30
 15594 149c 9F       		.byte	0x9f
 15595 149d 9A050000 		.4byte	.LVL460
 15596 14a1 A4050000 		.4byte	.LVL461
 15597 14a5 0100     		.2byte	0x1
 15598 14a7 50       		.byte	0x50
 15599 14a8 A8050000 		.4byte	.LVL462
 15600 14ac BC050000 		.4byte	.LVL465
 15601 14b0 0100     		.2byte	0x1
 15602 14b2 50       		.byte	0x50
 15603 14b3 D6050000 		.4byte	.LVL467
 15604 14b7 DE050000 		.4byte	.LVL470
 15605 14bb 0200     		.2byte	0x2
 15606 14bd 30       		.byte	0x30
 15607 14be 9F       		.byte	0x9f
 15608 14bf DE050000 		.4byte	.LVL470
 15609 14c3 E8050000 		.4byte	.LVL471
 15610 14c7 0100     		.2byte	0x1
 15611 14c9 50       		.byte	0x50
 15612 14ca EC050000 		.4byte	.LVL472
 15613 14ce 00060000 		.4byte	.LVL475
 15614 14d2 0100     		.2byte	0x1
 15615 14d4 50       		.byte	0x50
 15616 14d5 1A060000 		.4byte	.LVL477
 15617 14d9 22060000 		.4byte	.LVL480
 15618 14dd 0200     		.2byte	0x2
 15619 14df 30       		.byte	0x30
 15620 14e0 9F       		.byte	0x9f
 15621 14e1 22060000 		.4byte	.LVL480
 15622 14e5 2E060000 		.4byte	.LVL481
 15623 14e9 0100     		.2byte	0x1
 15624 14eb 50       		.byte	0x50
 15625 14ec 34060000 		.4byte	.LVL483
 15626 14f0 48060000 		.4byte	.LVL486
 15627 14f4 0100     		.2byte	0x1
 15628 14f6 50       		.byte	0x50
 15629 14f7 66060000 		.4byte	.LVL488
 15630 14fb 76060000 		.4byte	.LVL491
 15631 14ff 0200     		.2byte	0x2
 15632 1501 30       		.byte	0x30
 15633 1502 9F       		.byte	0x9f
 15634 1503 76060000 		.4byte	.LVL491
 15635 1507 7C060000 		.4byte	.LVL492
 15636 150b 0100     		.2byte	0x1
 15637 150d 50       		.byte	0x50
 15638 150e 82060000 		.4byte	.LVL494
 15639 1512 FC060000 		.4byte	.LVL510
 15640 1516 0200     		.2byte	0x2
 15641 1518 30       		.byte	0x30
 15642 1519 9F       		.byte	0x9f
 15643 151a FC060000 		.4byte	.LVL510
 15644 151e 06070000 		.4byte	.LVL511
 15645 1522 0100     		.2byte	0x1
 15646 1524 50       		.byte	0x50
 15647 1525 08070000 		.4byte	.LVL512
ARM GAS  C:\Users\Helon\AppData\Local\Temp\ccKCxrf8.s 			page 344


 15648 1529 2A070000 		.4byte	.LVL517
 15649 152d 0200     		.2byte	0x2
 15650 152f 30       		.byte	0x30
 15651 1530 9F       		.byte	0x9f
 15652 1531 32070000 		.4byte	.LVL519
 15653 1535 D0070000 		.4byte	.LVL527
 15654 1539 0200     		.2byte	0x2
 15655 153b 30       		.byte	0x30
 15656 153c 9F       		.byte	0x9f
 15657 153d D0070000 		.4byte	.LVL527
 15658 1541 D2070000 		.4byte	.LVL528
 15659 1545 0100     		.2byte	0x1
 15660 1547 50       		.byte	0x50
 15661 1548 D2070000 		.4byte	.LVL528
 15662 154c 14080000 		.4byte	.LVL535
 15663 1550 0200     		.2byte	0x2
 15664 1552 30       		.byte	0x30
 15665 1553 9F       		.byte	0x9f
 15666 1554 14080000 		.4byte	.LVL535
 15667 1558 1A080000 		.4byte	.LVL536
 15668 155c 0100     		.2byte	0x1
 15669 155e 50       		.byte	0x50
 15670 155f 26080000 		.4byte	.LVL538
 15671 1563 2C080000 		.4byte	.LVL540
 15672 1567 0200     		.2byte	0x2
 15673 1569 30       		.byte	0x30
 15674 156a 9F       		.byte	0x9f
 15675 156b 2C080000 		.4byte	.LVL540
 15676 156f 34080000 		.4byte	.LVL541
 15677 1573 0100     		.2byte	0x1
 15678 1575 50       		.byte	0x50
 15679 1576 3C080000 		.4byte	.LVL543
 15680 157a 42080000 		.4byte	.LVL545
 15681 157e 0200     		.2byte	0x2
 15682 1580 30       		.byte	0x30
 15683 1581 9F       		.byte	0x9f
 15684 1582 42080000 		.4byte	.LVL545
 15685 1586 4A080000 		.4byte	.LVL546
 15686 158a 0100     		.2byte	0x1
 15687 158c 50       		.byte	0x50
 15688 158d 52080000 		.4byte	.LVL548
 15689 1591 58080000 		.4byte	.LVL550
 15690 1595 0200     		.2byte	0x2
 15691 1597 30       		.byte	0x30
 15692 1598 9F       		.byte	0x9f
 15693 1599 58080000 		.4byte	.LVL550
 15694 159d 60080000 		.4byte	.LVL551
 15695 15a1 0100     		.2byte	0x1
 15696 15a3 50       		.byte	0x50
 15697 15a4 68080000 		.4byte	.LVL553
 15698 15a8 6E080000 		.4byte	.LVL555
 15699 15ac 0200     		.2byte	0x2
 15700 15ae 30       		.byte	0x30
 15701 15af 9F       		.byte	0x9f
 15702 15b0 6E080000 		.4byte	.LVL555
 15703 15b4 76080000 		.4byte	.LVL556
 15704 15b8 0100     		.2byte	0x1
ARM GAS  C:\Users\Helon\AppData\Local\Temp\ccKCxrf8.s 			page 345


 15705 15ba 50       		.byte	0x50
 15706 15bb 84080000 		.4byte	.LVL558
 15707 15bf D8080000 		.4byte	.LVL567
 15708 15c3 0200     		.2byte	0x2
 15709 15c5 30       		.byte	0x30
 15710 15c6 9F       		.byte	0x9f
 15711 15c7 D8080000 		.4byte	.LVL567
 15712 15cb DA080000 		.4byte	.LVL568
 15713 15cf 0100     		.2byte	0x1
 15714 15d1 50       		.byte	0x50
 15715 15d2 DA080000 		.4byte	.LVL568
 15716 15d6 F2080000 		.4byte	.LVL569
 15717 15da 0200     		.2byte	0x2
 15718 15dc 30       		.byte	0x30
 15719 15dd 9F       		.byte	0x9f
 15720 15de F6080000 		.4byte	.LVL570
 15721 15e2 76090000 		.4byte	.LVL581
 15722 15e6 0200     		.2byte	0x2
 15723 15e8 30       		.byte	0x30
 15724 15e9 9F       		.byte	0x9f
 15725 15ea 00000000 		.4byte	0
 15726 15ee 00000000 		.4byte	0
 15727              	.LLST45:
 15728 15f2 4A000000 		.4byte	.LVL329
 15729 15f6 3E070000 		.4byte	.LVL521
 15730 15fa 0200     		.2byte	0x2
 15731 15fc 30       		.byte	0x30
 15732 15fd 9F       		.byte	0x9f
 15733 15fe 40070000 		.4byte	.LVL522
 15734 1602 AC070000 		.4byte	.LVL524
 15735 1606 0200     		.2byte	0x2
 15736 1608 73       		.byte	0x73
 15737 1609 00       		.sleb128 0
 15738 160a AC070000 		.4byte	.LVL524
 15739 160e 76090000 		.4byte	.LVL581
 15740 1612 0200     		.2byte	0x2
 15741 1614 30       		.byte	0x30
 15742 1615 9F       		.byte	0x9f
 15743 1616 00000000 		.4byte	0
 15744 161a 00000000 		.4byte	0
 15745              	.LLST46:
 15746 161e 00000000 		.4byte	.LVL583
 15747 1622 21000000 		.4byte	.LVL586-1
 15748 1626 0100     		.2byte	0x1
 15749 1628 50       		.byte	0x50
 15750 1629 21000000 		.4byte	.LVL586-1
 15751 162d 98020000 		.4byte	.LFE48
 15752 1631 0400     		.2byte	0x4
 15753 1633 F3       		.byte	0xf3
 15754 1634 01       		.uleb128 0x1
 15755 1635 50       		.byte	0x50
 15756 1636 9F       		.byte	0x9f
 15757 1637 00000000 		.4byte	0
 15758 163b 00000000 		.4byte	0
 15759              	.LLST47:
 15760 163f 0E000000 		.4byte	.LVL584
 15761 1643 74010000 		.4byte	.LVL611
ARM GAS  C:\Users\Helon\AppData\Local\Temp\ccKCxrf8.s 			page 346


 15762 1647 0200     		.2byte	0x2
 15763 1649 30       		.byte	0x30
 15764 164a 9F       		.byte	0x9f
 15765 164b 7A010000 		.4byte	.LVL613
 15766 164f 80010000 		.4byte	.LVL614
 15767 1653 0100     		.2byte	0x1
 15768 1655 53       		.byte	0x53
 15769 1656 80010000 		.4byte	.LVL614
 15770 165a 91010000 		.4byte	.LVL616-1
 15771 165e 0300     		.2byte	0x3
 15772 1660 73       		.byte	0x73
 15773 1661 30       		.sleb128 48
 15774 1662 9F       		.byte	0x9f
 15775 1663 9E010000 		.4byte	.LVL618
 15776 1667 A3010000 		.4byte	.LVL619-1
 15777 166b 0300     		.2byte	0x3
 15778 166d 73       		.byte	0x73
 15779 166e 30       		.sleb128 48
 15780 166f 9F       		.byte	0x9f
 15781 1670 D0010000 		.4byte	.LVL628
 15782 1674 D6010000 		.4byte	.LVL630
 15783 1678 0200     		.2byte	0x2
 15784 167a 30       		.byte	0x30
 15785 167b 9F       		.byte	0x9f
 15786 167c D6010000 		.4byte	.LVL630
 15787 1680 F4010000 		.4byte	.LVL631
 15788 1684 0100     		.2byte	0x1
 15789 1686 50       		.byte	0x50
 15790 1687 F4010000 		.4byte	.LVL631
 15791 168b F7010000 		.4byte	.LVL632-1
 15792 168f 0500     		.2byte	0x5
 15793 1691 70       		.byte	0x70
 15794 1692 00       		.sleb128 0
 15795 1693 73       		.byte	0x73
 15796 1694 00       		.sleb128 0
 15797 1695 22       		.byte	0x22
 15798 1696 06020000 		.4byte	.LVL634
 15799 169a 30020000 		.4byte	.LVL636
 15800 169e 0200     		.2byte	0x2
 15801 16a0 30       		.byte	0x30
 15802 16a1 9F       		.byte	0x9f
 15803 16a2 00000000 		.4byte	0
 15804 16a6 00000000 		.4byte	0
 15805              	.LLST48:
 15806 16aa 0E000000 		.4byte	.LVL584
 15807 16ae 74010000 		.4byte	.LVL611
 15808 16b2 0200     		.2byte	0x2
 15809 16b4 30       		.byte	0x30
 15810 16b5 9F       		.byte	0x9f
 15811 16b6 8C010000 		.4byte	.LVL615
 15812 16ba 9E010000 		.4byte	.LVL618
 15813 16be 0100     		.2byte	0x1
 15814 16c0 54       		.byte	0x54
 15815 16c1 D0010000 		.4byte	.LVL628
 15816 16c5 30020000 		.4byte	.LVL636
 15817 16c9 0200     		.2byte	0x2
 15818 16cb 30       		.byte	0x30
ARM GAS  C:\Users\Helon\AppData\Local\Temp\ccKCxrf8.s 			page 347


 15819 16cc 9F       		.byte	0x9f
 15820 16cd 00000000 		.4byte	0
 15821 16d1 00000000 		.4byte	0
 15822              	.LLST49:
 15823 16d5 72010000 		.4byte	.LVL610
 15824 16d9 74010000 		.4byte	.LVL611
 15825 16dd 0600     		.2byte	0x6
 15826 16df 0C       		.byte	0xc
 15827 16e0 A0860100 		.4byte	0x186a0
 15828 16e4 9F       		.byte	0x9f
 15829 16e5 98010000 		.4byte	.LVL617
 15830 16e9 9E010000 		.4byte	.LVL618
 15831 16ed 0100     		.2byte	0x1
 15832 16ef 50       		.byte	0x50
 15833 16f0 00000000 		.4byte	0
 15834 16f4 00000000 		.4byte	0
 15835              	.LLST50:
 15836 16f8 86000000 		.4byte	.LVL590
 15837 16fc 88000000 		.4byte	.LVL591
 15838 1700 0200     		.2byte	0x2
 15839 1702 30       		.byte	0x30
 15840 1703 9F       		.byte	0x9f
 15841 1704 88000000 		.4byte	.LVL591
 15842 1708 98000000 		.4byte	.LVL593
 15843 170c 0100     		.2byte	0x1
 15844 170e 55       		.byte	0x55
 15845 170f 9A000000 		.4byte	.LVL594
 15846 1713 60010000 		.4byte	.LVL609
 15847 1717 0100     		.2byte	0x1
 15848 1719 55       		.byte	0x55
 15849 171a 72010000 		.4byte	.LVL610
 15850 171e 74010000 		.4byte	.LVL611
 15851 1722 0200     		.2byte	0x2
 15852 1724 30       		.byte	0x30
 15853 1725 9F       		.byte	0x9f
 15854 1726 00000000 		.4byte	0
 15855 172a 00000000 		.4byte	0
 15856              	.LLST51:
 15857 172e 0E000000 		.4byte	.LVL584
 15858 1732 21000000 		.4byte	.LVL586-1
 15859 1736 0E00     		.2byte	0xe
 15860 1738 03       		.byte	0x3
 15861 1739 00000000 		.4byte	negotiatedMtu
 15862 173d 94       		.byte	0x94
 15863 173e 02       		.byte	0x2
 15864 173f 0A       		.byte	0xa
 15865 1740 FFFF     		.2byte	0xffff
 15866 1742 1A       		.byte	0x1a
 15867 1743 34       		.byte	0x34
 15868 1744 1C       		.byte	0x1c
 15869 1745 9F       		.byte	0x9f
 15870 1746 00000000 		.4byte	0
 15871 174a 00000000 		.4byte	0
 15872              	.LLST52:
 15873 174e 1E000000 		.4byte	.LVL585
 15874 1752 21000000 		.4byte	.LVL586-1
 15875 1756 0200     		.2byte	0x2
ARM GAS  C:\Users\Helon\AppData\Local\Temp\ccKCxrf8.s 			page 348


 15876 1758 73       		.byte	0x73
 15877 1759 00       		.sleb128 0
 15878 175a 21000000 		.4byte	.LVL586-1
 15879 175e 38020000 		.4byte	.LVL638
 15880 1762 0200     		.2byte	0x2
 15881 1764 7D       		.byte	0x7d
 15882 1765 00       		.sleb128 0
 15883 1766 38020000 		.4byte	.LVL638
 15884 176a 3C020000 		.4byte	.LVL639
 15885 176e 0300     		.2byte	0x3
 15886 1770 77       		.byte	0x77
 15887 1771 38       		.sleb128 56
 15888 1772 06       		.byte	0x6
 15889 1773 3C020000 		.4byte	.LVL639
 15890 1777 98020000 		.4byte	.LFE48
 15891 177b 0300     		.2byte	0x3
 15892 177d 91       		.byte	0x91
 15893 177e 78       		.sleb128 -8
 15894 177f 06       		.byte	0x6
 15895 1780 00000000 		.4byte	0
 15896 1784 00000000 		.4byte	0
 15897              	.LLST53:
 15898 1788 1E000000 		.4byte	.LVL585
 15899 178c C8000000 		.4byte	.LVL596
 15900 1790 0200     		.2byte	0x2
 15901 1792 30       		.byte	0x30
 15902 1793 9F       		.byte	0x9f
 15903 1794 C8000000 		.4byte	.LVL596
 15904 1798 CE000000 		.4byte	.LVL597
 15905 179c 0100     		.2byte	0x1
 15906 179e 50       		.byte	0x50
 15907 179f EA000000 		.4byte	.LVL600
 15908 17a3 22010000 		.4byte	.LVL603
 15909 17a7 0200     		.2byte	0x2
 15910 17a9 30       		.byte	0x30
 15911 17aa 9F       		.byte	0x9f
 15912 17ab 36010000 		.4byte	.LVL605
 15913 17af 48010000 		.4byte	.LVL607
 15914 17b3 0100     		.2byte	0x1
 15915 17b5 54       		.byte	0x54
 15916 17b6 48010000 		.4byte	.LVL607
 15917 17ba B0010000 		.4byte	.LVL620
 15918 17be 0200     		.2byte	0x2
 15919 17c0 30       		.byte	0x30
 15920 17c1 9F       		.byte	0x9f
 15921 17c2 B0010000 		.4byte	.LVL620
 15922 17c6 B6010000 		.4byte	.LVL621
 15923 17ca 0100     		.2byte	0x1
 15924 17cc 50       		.byte	0x50
 15925 17cd B8010000 		.4byte	.LVL622
 15926 17d1 BE010000 		.4byte	.LVL623
 15927 17d5 0100     		.2byte	0x1
 15928 17d7 50       		.byte	0x50
 15929 17d8 C0010000 		.4byte	.LVL624
 15930 17dc C6010000 		.4byte	.LVL625
 15931 17e0 0100     		.2byte	0x1
 15932 17e2 50       		.byte	0x50
ARM GAS  C:\Users\Helon\AppData\Local\Temp\ccKCxrf8.s 			page 349


 15933 17e3 C8010000 		.4byte	.LVL626
 15934 17e7 CE010000 		.4byte	.LVL627
 15935 17eb 0100     		.2byte	0x1
 15936 17ed 50       		.byte	0x50
 15937 17ee D0010000 		.4byte	.LVL628
 15938 17f2 30020000 		.4byte	.LVL636
 15939 17f6 0200     		.2byte	0x2
 15940 17f8 30       		.byte	0x30
 15941 17f9 9F       		.byte	0x9f
 15942 17fa 00000000 		.4byte	0
 15943 17fe 00000000 		.4byte	0
 15944              	.LLST54:
 15945 1802 2A000000 		.4byte	.LVL587
 15946 1806 3C020000 		.4byte	.LVL639
 15947 180a 0200     		.2byte	0x2
 15948 180c 77       		.byte	0x77
 15949 180d 3C       		.sleb128 60
 15950 180e 3C020000 		.4byte	.LVL639
 15951 1812 98020000 		.4byte	.LFE48
 15952 1816 0200     		.2byte	0x2
 15953 1818 91       		.byte	0x91
 15954 1819 7C       		.sleb128 -4
 15955 181a 00000000 		.4byte	0
 15956 181e 00000000 		.4byte	0
 15957              	.LLST55:
 15958 1822 00000000 		.4byte	.LVL640
 15959 1826 08000000 		.4byte	.LVL641
 15960 182a 0100     		.2byte	0x1
 15961 182c 50       		.byte	0x50
 15962 182d 08000000 		.4byte	.LVL641
 15963 1831 1C000000 		.4byte	.LFE53
 15964 1835 0400     		.2byte	0x4
 15965 1837 F3       		.byte	0xf3
 15966 1838 01       		.uleb128 0x1
 15967 1839 50       		.byte	0x50
 15968 183a 9F       		.byte	0x9f
 15969 183b 00000000 		.4byte	0
 15970 183f 00000000 		.4byte	0
 15971              	.LLST56:
 15972 1843 00000000 		.4byte	.LVL640
 15973 1847 08000000 		.4byte	.LVL641
 15974 184b 0100     		.2byte	0x1
 15975 184d 51       		.byte	0x51
 15976 184e 08000000 		.4byte	.LVL641
 15977 1852 0E000000 		.4byte	.LVL642
 15978 1856 0100     		.2byte	0x1
 15979 1858 54       		.byte	0x54
 15980 1859 0E000000 		.4byte	.LVL642
 15981 185d 16000000 		.4byte	.LVL644
 15982 1861 0300     		.2byte	0x3
 15983 1863 74       		.byte	0x74
 15984 1864 01       		.sleb128 1
 15985 1865 9F       		.byte	0x9f
 15986 1866 16000000 		.4byte	.LVL644
 15987 186a 1A000000 		.4byte	.LVL645
 15988 186e 0100     		.2byte	0x1
 15989 1870 54       		.byte	0x54
ARM GAS  C:\Users\Helon\AppData\Local\Temp\ccKCxrf8.s 			page 350


 15990 1871 00000000 		.4byte	0
 15991 1875 00000000 		.4byte	0
 15992              	.LLST57:
 15993 1879 00000000 		.4byte	.LVL640
 15994 187d 08000000 		.4byte	.LVL641
 15995 1881 0100     		.2byte	0x1
 15996 1883 52       		.byte	0x52
 15997 1884 08000000 		.4byte	.LVL641
 15998 1888 1A000000 		.4byte	.LVL646
 15999 188c 0100     		.2byte	0x1
 16000 188e 55       		.byte	0x55
 16001 188f 1A000000 		.4byte	.LVL646
 16002 1893 1C000000 		.4byte	.LFE53
 16003 1897 0100     		.2byte	0x1
 16004 1899 50       		.byte	0x50
 16005 189a 00000000 		.4byte	0
 16006 189e 00000000 		.4byte	0
 16007              	.LLST58:
 16008 18a2 00000000 		.4byte	.LVL640
 16009 18a6 08000000 		.4byte	.LVL641
 16010 18aa 0200     		.2byte	0x2
 16011 18ac 30       		.byte	0x30
 16012 18ad 9F       		.byte	0x9f
 16013 18ae 08000000 		.4byte	.LVL641
 16014 18b2 14000000 		.4byte	.LVL643
 16015 18b6 0600     		.2byte	0x6
 16016 18b8 74       		.byte	0x74
 16017 18b9 00       		.sleb128 0
 16018 18ba 76       		.byte	0x76
 16019 18bb 00       		.sleb128 0
 16020 18bc 1C       		.byte	0x1c
 16021 18bd 9F       		.byte	0x9f
 16022 18be 14000000 		.4byte	.LVL643
 16023 18c2 16000000 		.4byte	.LVL644
 16024 18c6 0800     		.2byte	0x8
 16025 18c8 74       		.byte	0x74
 16026 18c9 00       		.sleb128 0
 16027 18ca 76       		.byte	0x76
 16028 18cb 00       		.sleb128 0
 16029 18cc 1C       		.byte	0x1c
 16030 18cd 23       		.byte	0x23
 16031 18ce 01       		.uleb128 0x1
 16032 18cf 9F       		.byte	0x9f
 16033 18d0 16000000 		.4byte	.LVL644
 16034 18d4 1A000000 		.4byte	.LVL645
 16035 18d8 0600     		.2byte	0x6
 16036 18da 74       		.byte	0x74
 16037 18db 00       		.sleb128 0
 16038 18dc 76       		.byte	0x76
 16039 18dd 00       		.sleb128 0
 16040 18de 1C       		.byte	0x1c
 16041 18df 9F       		.byte	0x9f
 16042 18e0 00000000 		.4byte	0
 16043 18e4 00000000 		.4byte	0
 16044              		.section	.debug_aranges,"",%progbits
 16045 0000 AC000000 		.4byte	0xac
 16046 0004 0200     		.2byte	0x2
ARM GAS  C:\Users\Helon\AppData\Local\Temp\ccKCxrf8.s 			page 351


 16047 0006 00000000 		.4byte	.Ldebug_info0
 16048 000a 04       		.byte	0x4
 16049 000b 00       		.byte	0
 16050 000c 0000     		.2byte	0
 16051 000e 0000     		.2byte	0
 16052 0010 00000000 		.4byte	.LFB35
 16053 0014 EC020000 		.4byte	.LFE35-.LFB35
 16054 0018 00000000 		.4byte	.LFB45
 16055 001c 38000000 		.4byte	.LFE45-.LFB45
 16056 0020 00000000 		.4byte	.LFB36
 16057 0024 78000000 		.4byte	.LFE36-.LFB36
 16058 0028 00000000 		.4byte	.LFB37
 16059 002c 02000000 		.4byte	.LFE37-.LFB37
 16060 0030 00000000 		.4byte	.LFB38
 16061 0034 24000000 		.4byte	.LFE38-.LFB38
 16062 0038 00000000 		.4byte	.LFB40
 16063 003c 02000000 		.4byte	.LFE40-.LFB40
 16064 0040 00000000 		.4byte	.LFB41
 16065 0044 02000000 		.4byte	.LFE41-.LFB41
 16066 0048 00000000 		.4byte	.LFB42
 16067 004c 1C000000 		.4byte	.LFE42-.LFB42
 16068 0050 00000000 		.4byte	.LFB39
 16069 0054 54000000 		.4byte	.LFE39-.LFB39
 16070 0058 00000000 		.4byte	.LFB44
 16071 005c 70000000 		.4byte	.LFE44-.LFB44
 16072 0060 00000000 		.4byte	.LFB46
 16073 0064 34000000 		.4byte	.LFE46-.LFB46
 16074 0068 00000000 		.4byte	.LFB47
 16075 006c 38000000 		.4byte	.LFE47-.LFB47
 16076 0070 00000000 		.4byte	.LFB49
 16077 0074 44010000 		.4byte	.LFE49-.LFB49
 16078 0078 00000000 		.4byte	.LFB50
 16079 007c 74030000 		.4byte	.LFE50-.LFB50
 16080 0080 00000000 		.4byte	.LFB51
 16081 0084 E8000000 		.4byte	.LFE51-.LFB51
 16082 0088 00000000 		.4byte	.LFB52
 16083 008c 68000000 		.4byte	.LFE52-.LFB52
 16084 0090 00000000 		.4byte	.LFB43
 16085 0094 E8090000 		.4byte	.LFE43-.LFB43
 16086 0098 00000000 		.4byte	.LFB48
 16087 009c 98020000 		.4byte	.LFE48-.LFB48
 16088 00a0 00000000 		.4byte	.LFB53
 16089 00a4 1C000000 		.4byte	.LFE53-.LFB53
 16090 00a8 00000000 		.4byte	0
 16091 00ac 00000000 		.4byte	0
 16092              		.section	.debug_ranges,"",%progbits
 16093              	.Ldebug_ranges0:
 16094 0000 0E000000 		.4byte	.LBB36
 16095 0004 10000000 		.4byte	.LBE36
 16096 0008 12000000 		.4byte	.LBB37
 16097 000c 14000000 		.4byte	.LBE37
 16098 0010 16000000 		.4byte	.LBB38
 16099 0014 28000000 		.4byte	.LBE38
 16100 0018 00000000 		.4byte	0
 16101 001c 00000000 		.4byte	0
 16102 0020 00000000 		.4byte	.LFB35
 16103 0024 EC020000 		.4byte	.LFE35
ARM GAS  C:\Users\Helon\AppData\Local\Temp\ccKCxrf8.s 			page 352


 16104 0028 00000000 		.4byte	.LFB45
 16105 002c 38000000 		.4byte	.LFE45
 16106 0030 00000000 		.4byte	.LFB36
 16107 0034 78000000 		.4byte	.LFE36
 16108 0038 00000000 		.4byte	.LFB37
 16109 003c 02000000 		.4byte	.LFE37
 16110 0040 00000000 		.4byte	.LFB38
 16111 0044 24000000 		.4byte	.LFE38
 16112 0048 00000000 		.4byte	.LFB40
 16113 004c 02000000 		.4byte	.LFE40
 16114 0050 00000000 		.4byte	.LFB41
 16115 0054 02000000 		.4byte	.LFE41
 16116 0058 00000000 		.4byte	.LFB42
 16117 005c 1C000000 		.4byte	.LFE42
 16118 0060 00000000 		.4byte	.LFB39
 16119 0064 54000000 		.4byte	.LFE39
 16120 0068 00000000 		.4byte	.LFB44
 16121 006c 70000000 		.4byte	.LFE44
 16122 0070 00000000 		.4byte	.LFB46
 16123 0074 34000000 		.4byte	.LFE46
 16124 0078 00000000 		.4byte	.LFB47
 16125 007c 38000000 		.4byte	.LFE47
 16126 0080 00000000 		.4byte	.LFB49
 16127 0084 44010000 		.4byte	.LFE49
 16128 0088 00000000 		.4byte	.LFB50
 16129 008c 74030000 		.4byte	.LFE50
 16130 0090 00000000 		.4byte	.LFB51
 16131 0094 E8000000 		.4byte	.LFE51
 16132 0098 00000000 		.4byte	.LFB52
 16133 009c 68000000 		.4byte	.LFE52
 16134 00a0 00000000 		.4byte	.LFB43
 16135 00a4 E8090000 		.4byte	.LFE43
 16136 00a8 00000000 		.4byte	.LFB48
 16137 00ac 98020000 		.4byte	.LFE48
 16138 00b0 00000000 		.4byte	.LFB53
 16139 00b4 1C000000 		.4byte	.LFE53
 16140 00b8 00000000 		.4byte	0
 16141 00bc 00000000 		.4byte	0
 16142              		.section	.debug_line,"",%progbits
 16143              	.Ldebug_line0:
 16144 0000 7B0A0000 		.section	.debug_str,"MS",%progbits,1
 16144      0200A503 
 16144      00000201 
 16144      FB0E0D00 
 16144      01010101 
 16145              	.LASF535:
 16146 0000 74784275 		.ascii	"txBuffer\000"
 16146      66666572 
 16146      00
 16147              	.LASF558:
 16148 0009 41445644 		.ascii	"ADVD\000"
 16148      00
 16149              	.LASF735:
 16150 000e 4379426C 		.ascii	"CyBle_GapcConnectDevice\000"
 16150      655F4761 
 16150      7063436F 
 16150      6E6E6563 
ARM GAS  C:\Users\Helon\AppData\Local\Temp\ccKCxrf8.s 			page 353


 16150      74446576 
 16151              	.LASF662:
 16152 0026 5278466C 		.ascii	"RxFlag\000"
 16152      616700
 16153              	.LASF15:
 16154 002d 696E7438 		.ascii	"int8_t\000"
 16154      5F7400
 16155              	.LASF545:
 16156 0034 656E6162 		.ascii	"enableByteMode\000"
 16156      6C654279 
 16156      74654D6F 
 16156      646500
 16157              	.LASF194:
 16158 0043 62644164 		.ascii	"bdAddrList\000"
 16158      64724C69 
 16158      737400
 16159              	.LASF166:
 16160 004e 4359424C 		.ascii	"CYBLE_GAPC_SCAN_RSP\000"
 16160      455F4741 
 16160      50435F53 
 16160      43414E5F 
 16160      52535000 
 16161              	.LASF208:
 16162 0062 7363616E 		.ascii	"scanRspData\000"
 16162      52737044 
 16162      61746100 
 16163              	.LASF29:
 16164 006e 73697A65 		.ascii	"size_t\000"
 16164      5F7400
 16165              	.LASF30:
 16166 0075 73697A65 		.ascii	"sizetype\000"
 16166      74797065 
 16166      00
 16167              	.LASF303:
 16168 007e 4359424C 		.ascii	"CYBLE_EVT_BCSC_READ_CHAR_RESPONSE\000"
 16168      455F4556 
 16168      545F4243 
 16168      53435F52 
 16168      4541445F 
 16169              	.LASF242:
 16170 00a0 4359424C 		.ascii	"CYBLE_GATTS_HANDLE_VALUE_NTF_T\000"
 16170      455F4741 
 16170      5454535F 
 16170      48414E44 
 16170      4C455F56 
 16171              	.LASF571:
 16172 00bf 41445653 		.ascii	"ADVS\000"
 16172      00
 16173              	.LASF326:
 16174 00c4 4359424C 		.ascii	"CYBLE_EVT_CGMSC_INDICATION\000"
 16174      455F4556 
 16174      545F4347 
 16174      4D53435F 
 16174      494E4449 
 16175              	.LASF344:
 16176 00df 4359424C 		.ascii	"CYBLE_EVT_CPSC_READ_DESCR_RESPONSE\000"
 16176      455F4556 
ARM GAS  C:\Users\Helon\AppData\Local\Temp\ccKCxrf8.s 			page 354


 16176      545F4350 
 16176      53435F52 
 16176      4541445F 
 16177              	.LASF190:
 16178 0102 656B6579 		.ascii	"ekeySize\000"
 16178      53697A65 
 16178      00
 16179              	.LASF463:
 16180 010b 4359424C 		.ascii	"CYBLE_EVT_RTUSS_WRITE_CHAR_CMD\000"
 16180      455F4556 
 16180      545F5254 
 16180      5553535F 
 16180      57524954 
 16181              	.LASF725:
 16182 012a 54696D65 		.ascii	"TimerInterrupt_StartEx\000"
 16182      72496E74 
 16182      65727275 
 16182      70745F53 
 16182      74617274 
 16183              	.LASF497:
 16184 0141 4359424C 		.ascii	"CYBLE_EVT_WPTSC_NOTIFICATION\000"
 16184      455F4556 
 16184      545F5750 
 16184      5453435F 
 16184      4E4F5449 
 16185              	.LASF636:
 16186 015e 72616E67 		.ascii	"range\000"
 16186      6500
 16187              	.LASF503:
 16188 0164 4359424C 		.ascii	"CYBLE_EVT_WSSS_INDICATION_ENABLED\000"
 16188      455F4556 
 16188      545F5753 
 16188      53535F49 
 16188      4E444943 
 16189              	.LASF342:
 16190 0186 4359424C 		.ascii	"CYBLE_EVT_CPSC_READ_CHAR_RESPONSE\000"
 16190      455F4556 
 16190      545F4350 
 16190      53435F52 
 16190      4541445F 
 16191              	.LASF308:
 16192 01a8 4359424C 		.ascii	"CYBLE_EVT_BLSS_INDICATION_CONFIRMED\000"
 16192      455F4556 
 16192      545F424C 
 16192      53535F49 
 16192      4E444943 
 16193              	.LASF625:
 16194 01cc 4164764D 		.ascii	"AdvMax\000"
 16194      617800
 16195              	.LASF765:
 16196 01d3 5F777269 		.ascii	"_write\000"
 16196      746500
 16197              	.LASF355:
 16198 01da 4359424C 		.ascii	"CYBLE_EVT_CSCSC_READ_CHAR_RESPONSE\000"
 16198      455F4556 
 16198      545F4353 
 16198      4353435F 
ARM GAS  C:\Users\Helon\AppData\Local\Temp\ccKCxrf8.s 			page 355


 16198      52454144 
 16199              	.LASF602:
 16200 01fd 4C6F7750 		.ascii	"LowPowerManagement\000"
 16200      6F776572 
 16200      4D616E61 
 16200      67656D65 
 16200      6E7400
 16201              	.LASF650:
 16202 0210 6379426C 		.ascii	"cyBle_authInfo\000"
 16202      655F6175 
 16202      7468496E 
 16202      666F00
 16203              	.LASF331:
 16204 021f 4359424C 		.ascii	"CYBLE_EVT_CGMSC_WRITE_DESCR_RESPONSE\000"
 16204      455F4556 
 16204      545F4347 
 16204      4D53435F 
 16204      57524954 
 16205              	.LASF386:
 16206 0244 4359424C 		.ascii	"CYBLE_EVT_GLSS_NOTIFICATION_DISABLED\000"
 16206      455F4556 
 16206      545F474C 
 16206      53535F4E 
 16206      4F544946 
 16207              	.LASF596:
 16208 0269 6576656E 		.ascii	"eventParam\000"
 16208      74506172 
 16208      616D00
 16209              	.LASF313:
 16210 0274 4359424C 		.ascii	"CYBLE_EVT_BLSC_READ_CHAR_RESPONSE\000"
 16210      455F4556 
 16210      545F424C 
 16210      53435F52 
 16210      4541445F 
 16211              	.LASF44:
 16212 0296 4359424C 		.ascii	"CYBLE_EVT_GAP_DEVICE_CONNECTED\000"
 16212      455F4556 
 16212      545F4741 
 16212      505F4445 
 16212      56494345 
 16213              	.LASF171:
 16214 02b5 4359424C 		.ascii	"CYBLE_GAP_IOCAP_NOINPUT_NOOUTPUT\000"
 16214      455F4741 
 16214      505F494F 
 16214      4341505F 
 16214      4E4F494E 
 16215              	.LASF739:
 16216 02d6 4379536F 		.ascii	"CySoftwareReset\000"
 16216      66747761 
 16216      72655265 
 16216      73657400 
 16217              	.LASF51:
 16218 02e6 4359424C 		.ascii	"CYBLE_EVT_GATT_CONNECT_IND\000"
 16218      455F4556 
 16218      545F4741 
 16218      54545F43 
 16218      4F4E4E45 
ARM GAS  C:\Users\Helon\AppData\Local\Temp\ccKCxrf8.s 			page 356


 16219              	.LASF391:
 16220 0301 4359424C 		.ascii	"CYBLE_EVT_GLSC_WRITE_CHAR_RESPONSE\000"
 16220      455F4556 
 16220      545F474C 
 16220      53435F57 
 16220      52495445 
 16221              	.LASF126:
 16222 0324 4359424C 		.ascii	"CYBLE_BLESS_STATE_ECO_ON\000"
 16222      455F424C 
 16222      4553535F 
 16222      53544154 
 16222      455F4543 
 16223              	.LASF22:
 16224 033d 75696E74 		.ascii	"uint32\000"
 16224      333200
 16225              	.LASF709:
 16226 0344 4379426C 		.ascii	"CyBle_GetBleSsState\000"
 16226      655F4765 
 16226      74426C65 
 16226      53735374 
 16226      61746500 
 16227              	.LASF750:
 16228 0358 4379426C 		.ascii	"CyBle_GapSetIoCap\000"
 16228      655F4761 
 16228      70536574 
 16228      496F4361 
 16228      7000
 16229              	.LASF753:
 16230 036a 4379426C 		.ascii	"CyBle_GapRemoveDeviceFromWhiteList\000"
 16230      655F4761 
 16230      7052656D 
 16230      6F766544 
 16230      65766963 
 16231              	.LASF628:
 16232 038d 53747241 		.ascii	"StrAdvData\000"
 16232      64764461 
 16232      746100
 16233              	.LASF173:
 16234 0398 4359424C 		.ascii	"CYBLE_GAP_IOCAP_T\000"
 16234      455F4741 
 16234      505F494F 
 16234      4341505F 
 16234      5400
 16235              	.LASF129:
 16236 03aa 4359424C 		.ascii	"CYBLE_BLESS_STATE_HIBERNATE\000"
 16236      455F424C 
 16236      4553535F 
 16236      53544154 
 16236      455F4849 
 16237              	.LASF716:
 16238 03c6 55415254 		.ascii	"UART_rx_wake_ClearInterrupt\000"
 16238      5F72785F 
 16238      77616B65 
 16238      5F436C65 
 16238      6172496E 
 16239              	.LASF462:
 16240 03e2 4359424C 		.ascii	"CYBLE_EVT_RSCSC_WRITE_DESCR_RESPONSE\000"
ARM GAS  C:\Users\Helon\AppData\Local\Temp\ccKCxrf8.s 			page 357


 16240      455F4556 
 16240      545F5253 
 16240      4353435F 
 16240      57524954 
 16241              	.LASF301:
 16242 0407 4359424C 		.ascii	"CYBLE_EVT_BCSS_INDICATION_CONFIRMED\000"
 16242      455F4556 
 16242      545F4243 
 16242      53535F49 
 16242      4E444943 
 16243              	.LASF302:
 16244 042b 4359424C 		.ascii	"CYBLE_EVT_BCSC_INDICATION\000"
 16244      455F4556 
 16244      545F4243 
 16244      53435F49 
 16244      4E444943 
 16245              	.LASF146:
 16246 0445 626C6550 		.ascii	"blePwrLevelInDbm\000"
 16246      77724C65 
 16246      76656C49 
 16246      6E44626D 
 16246      00
 16247              	.LASF431:
 16248 0456 4359424C 		.ascii	"CYBLE_EVT_LNSS_INDICATION_DISABLED\000"
 16248      455F4556 
 16248      545F4C4E 
 16248      53535F49 
 16248      4E444943 
 16249              	.LASF363:
 16250 0479 4359424C 		.ascii	"CYBLE_EVT_CTSC_READ_CHAR_RESPONSE\000"
 16250      455F4556 
 16250      545F4354 
 16250      53435F52 
 16250      4541445F 
 16251              	.LASF272:
 16252 049b 4359424C 		.ascii	"CYBLE_EVT_GATTC_SRVC_DISCOVERY_COMPLETE\000"
 16252      455F4556 
 16252      545F4741 
 16252      5454435F 
 16252      53525643 
 16253              	.LASF268:
 16254 04c3 4359424C 		.ascii	"CYBLE_EVT_GATTC_DESCR_DISCOVERY_FAILED\000"
 16254      455F4556 
 16254      545F4741 
 16254      5454435F 
 16254      44455343 
 16255              	.LASF456:
 16256 04ea 4359424C 		.ascii	"CYBLE_EVT_RSCSS_CHAR_WRITE\000"
 16256      455F4556 
 16256      545F5253 
 16256      4353535F 
 16256      43484152 
 16257              	.LASF489:
 16258 0505 4359424C 		.ascii	"CYBLE_EVT_UDSC_WRITE_DESCR_RESPONSE\000"
 16258      455F4556 
 16258      545F5544 
 16258      53435F57 
ARM GAS  C:\Users\Helon\AppData\Local\Temp\ccKCxrf8.s 			page 358


 16258      52495445 
 16259              	.LASF211:
 16260 0529 64697363 		.ascii	"discMode\000"
 16260      4D6F6465 
 16260      00
 16261              	.LASF471:
 16262 0532 4359424C 		.ascii	"CYBLE_EVT_TPSS_NOTIFICATION_ENABLED\000"
 16262      455F4556 
 16262      545F5450 
 16262      53535F4E 
 16262      4F544946 
 16263              	.LASF291:
 16264 0556 4359424C 		.ascii	"CYBLE_EVT_ANSC_READ_DESCR_RESPONSE\000"
 16264      455F4556 
 16264      545F414E 
 16264      53435F52 
 16264      4541445F 
 16265              	.LASF675:
 16266 0579 4B455942 		.ascii	"KEYBOARD\000"
 16266      4F415244 
 16266      00
 16267              	.LASF570:
 16268 0582 53544155 		.ascii	"STAUS\000"
 16268      5300
 16269              	.LASF299:
 16270 0588 4359424C 		.ascii	"CYBLE_EVT_BCSS_INDICATION_ENABLED\000"
 16270      455F4556 
 16270      545F4243 
 16270      53535F49 
 16270      4E444943 
 16271              	.LASF104:
 16272 05aa 4359424C 		.ascii	"CYBLE_ERROR_L2CAP_CONNECTION_ENTITY_NOT_FOUND\000"
 16272      455F4552 
 16272      524F525F 
 16272      4C324341 
 16272      505F434F 
 16273              	.LASF110:
 16274 05d8 4359424C 		.ascii	"CYBLE_ERROR_MIC_AUTH_FAILED\000"
 16274      455F4552 
 16274      524F525F 
 16274      4D49435F 
 16274      41555448 
 16275              	.LASF515:
 16276 05f4 4359424C 		.ascii	"CYBLE_STATE_SCANNING\000"
 16276      455F5354 
 16276      4154455F 
 16276      5343414E 
 16276      4E494E47 
 16277              	.LASF267:
 16278 0609 4359424C 		.ascii	"CYBLE_EVT_GATTC_CHAR_DISCOVERY_FAILED\000"
 16278      455F4556 
 16278      545F4741 
 16278      5454435F 
 16278      43484152 
 16279              	.LASF591:
 16280 062f 53657269 		.ascii	"SerialData\000"
 16280      616C4461 
ARM GAS  C:\Users\Helon\AppData\Local\Temp\ccKCxrf8.s 			page 359


 16280      746100
 16281              	.LASF583:
 16282 063a 5363616E 		.ascii	"ScanName\000"
 16282      4E616D65 
 16282      00
 16283              	.LASF532:
 16284 0643 72784275 		.ascii	"rxBufferSize\000"
 16284      66666572 
 16284      53697A65 
 16284      00
 16285              	.LASF767:
 16286 0650 70757473 		.ascii	"puts\000"
 16286      00
 16287              	.LASF25:
 16288 0655 63686172 		.ascii	"char8\000"
 16288      3800
 16289              	.LASF82:
 16290 065b 4359424C 		.ascii	"CYBLE_EVT_L2CAP_CBFC_RX_CREDIT_IND\000"
 16290      455F4556 
 16290      545F4C32 
 16290      4341505F 
 16290      43424643 
 16291              	.LASF520:
 16292 067e 64697265 		.ascii	"direction\000"
 16292      6374696F 
 16292      6E00
 16293              	.LASF235:
 16294 0688 4359424C 		.ascii	"CYBLE_GATT_VALUE_T\000"
 16294      455F4741 
 16294      54545F56 
 16294      414C5545 
 16294      5F5400
 16295              	.LASF349:
 16296 069b 4359424C 		.ascii	"CYBLE_EVT_CSCSS_INDICATION_ENABLED\000"
 16296      455F4556 
 16296      545F4353 
 16296      4353535F 
 16296      494E4449 
 16297              	.LASF436:
 16298 06be 4359424C 		.ascii	"CYBLE_EVT_LNSC_INDICATION\000"
 16298      455F4556 
 16298      545F4C4E 
 16298      53435F49 
 16298      4E444943 
 16299              	.LASF150:
 16300 06d8 74797065 		.ascii	"type\000"
 16300      00
 16301              	.LASF734:
 16302 06dd 4379426C 		.ascii	"CyBle_GattcWriteWithoutResponse\000"
 16302      655F4761 
 16302      74746357 
 16302      72697465 
 16302      57697468 
 16303              	.LASF447:
 16304 06fd 4359424C 		.ascii	"CYBLE_EVT_PASSC_READ_CHAR_RESPONSE\000"
 16304      455F4556 
 16304      545F5041 
ARM GAS  C:\Users\Helon\AppData\Local\Temp\ccKCxrf8.s 			page 360


 16304      5353435F 
 16304      52454144 
 16305              	.LASF185:
 16306 0720 4359424C 		.ascii	"CYBLE_GAP_AUTH_ERROR_AUTHENTICATION_TIMEOUT\000"
 16306      455F4741 
 16306      505F4155 
 16306      54485F45 
 16306      52524F52 
 16307              	.LASF306:
 16308 074c 4359424C 		.ascii	"CYBLE_EVT_BLSS_INDICATION_ENABLED\000"
 16308      455F4556 
 16308      545F424C 
 16308      53535F49 
 16308      4E444943 
 16309              	.LASF182:
 16310 076e 4359424C 		.ascii	"CYBLE_GAP_AUTH_ERROR_UNSPECIFIED_REASON\000"
 16310      455F4741 
 16310      505F4155 
 16310      54485F45 
 16310      52524F52 
 16311              	.LASF312:
 16312 0796 4359424C 		.ascii	"CYBLE_EVT_BLSC_NOTIFICATION\000"
 16312      455F4556 
 16312      545F424C 
 16312      53435F4E 
 16312      4F544946 
 16313              	.LASF257:
 16314 07b2 4359424C 		.ascii	"CYBLE_CALLBACK_T\000"
 16314      455F4341 
 16314      4C4C4241 
 16314      434B5F54 
 16314      00
 16315              	.LASF354:
 16316 07c3 4359424C 		.ascii	"CYBLE_EVT_CSCSC_INDICATION\000"
 16316      455F4556 
 16316      545F4353 
 16316      4353435F 
 16316      494E4449 
 16317              	.LASF639:
 16318 07de 4D617374 		.ascii	"Master_Slave_UartHandler\000"
 16318      65725F53 
 16318      6C617665 
 16318      5F556172 
 16318      7448616E 
 16319              	.LASF541:
 16320 07f7 7278496E 		.ascii	"rxInterruptMask\000"
 16320      74657272 
 16320      7570744D 
 16320      61736B00 
 16321              	.LASF68:
 16322 0807 4359424C 		.ascii	"CYBLE_EVT_GATTC_HANDLE_VALUE_NTF\000"
 16322      455F4556 
 16322      545F4741 
 16322      5454435F 
 16322      48414E44 
 16323              	.LASF38:
 16324 0828 4359424C 		.ascii	"CYBLE_EVT_GAP_AUTH_REQ\000"
ARM GAS  C:\Users\Helon\AppData\Local\Temp\ccKCxrf8.s 			page 361


 16324      455F4556 
 16324      545F4741 
 16324      505F4155 
 16324      54485F52 
 16325              	.LASF23:
 16326 083f 696E7438 		.ascii	"int8\000"
 16326      00
 16327              	.LASF274:
 16328 0844 4359424C 		.ascii	"CYBLE_EVT_GATTC_CHAR_DISCOVERY_COMPLETE\000"
 16328      455F4556 
 16328      545F4741 
 16328      5454435F 
 16328      43484152 
 16329              	.LASF233:
 16330 086c 4359424C 		.ascii	"CYBLE_CONN_HANDLE_T\000"
 16330      455F434F 
 16330      4E4E5F48 
 16330      414E444C 
 16330      455F5400 
 16331              	.LASF341:
 16332 0880 4359424C 		.ascii	"CYBLE_EVT_CPSC_INDICATION\000"
 16332      455F4556 
 16332      545F4350 
 16332      53435F49 
 16332      4E444943 
 16333              	.LASF99:
 16334 089a 4359424C 		.ascii	"CYBLE_ERROR_BT_ON_NOT_COMPLETED\000"
 16334      455F4552 
 16334      524F525F 
 16334      42545F4F 
 16334      4E5F4E4F 
 16335              	.LASF353:
 16336 08ba 4359424C 		.ascii	"CYBLE_EVT_CSCSC_NOTIFICATION\000"
 16336      455F4556 
 16336      545F4353 
 16336      4353435F 
 16336      4E4F5449 
 16337              	.LASF484:
 16338 08d7 4359424C 		.ascii	"CYBLE_EVT_UDSC_INDICATION\000"
 16338      455F4556 
 16338      545F5544 
 16338      53435F49 
 16338      4E444943 
 16339              	.LASF168:
 16340 08f1 4359424C 		.ascii	"CYBLE_GAP_IOCAP_DISPLAY_ONLY\000"
 16340      455F4741 
 16340      505F494F 
 16340      4341505F 
 16340      44495350 
 16341              	.LASF732:
 16342 090e 73747263 		.ascii	"strcmp\000"
 16342      6D7000
 16343              	.LASF559:
 16344 0915 41445649 		.ascii	"ADVI\000"
 16344      00
 16345              	.LASF317:
 16346 091a 4359424C 		.ascii	"CYBLE_EVT_BMSC_READ_CHAR_RESPONSE\000"
ARM GAS  C:\Users\Helon\AppData\Local\Temp\ccKCxrf8.s 			page 362


 16346      455F4556 
 16346      545F424D 
 16346      53435F52 
 16346      4541445F 
 16347              	.LASF526:
 16348 093c 656E6162 		.ascii	"enableMedianFilter\000"
 16348      6C654D65 
 16348      6469616E 
 16348      46696C74 
 16348      657200
 16349              	.LASF135:
 16350 094f 4359424C 		.ascii	"CYBLE_LL_PWR_LVL_NEG_3_DBM\000"
 16350      455F4C4C 
 16350      5F505752 
 16350      5F4C564C 
 16350      5F4E4547 
 16351              	.LASF582:
 16352 096a 44657669 		.ascii	"DeviceName\000"
 16352      63654E61 
 16352      6D6500
 16353              	.LASF514:
 16354 0975 4359424C 		.ascii	"CYBLE_STATE_ADVERTISING\000"
 16354      455F5354 
 16354      4154455F 
 16354      41445645 
 16354      52544953 
 16355              	.LASF231:
 16356 098d 62644861 		.ascii	"bdHandle\000"
 16356      6E646C65 
 16356      00
 16357              	.LASF556:
 16358 0996 4E414D45 		.ascii	"NAME\000"
 16358      00
 16359              	.LASF322:
 16360 099b 4359424C 		.ascii	"CYBLE_EVT_CGMSS_INDICATION_CONFIRMED\000"
 16360      455F4556 
 16360      545F4347 
 16360      4D53535F 
 16360      494E4449 
 16361              	.LASF4:
 16362 09c0 5F5F7569 		.ascii	"__uint8_t\000"
 16362      6E74385F 
 16362      7400
 16363              	.LASF698:
 16364 09ca 4379426C 		.ascii	"CyBle_GapcStopScan\000"
 16364      655F4761 
 16364      70635374 
 16364      6F705363 
 16364      616E00
 16365              	.LASF175:
 16366 09dd 4359424C 		.ascii	"CYBLE_GAP_AUTH_ERROR_PASSKEY_ENTRY_FAILED\000"
 16366      455F4741 
 16366      505F4155 
 16366      54485F45 
 16366      52524F52 
 16367              	.LASF760:
 16368 0a07 55415254 		.ascii	"UART_UartGetChar\000"
ARM GAS  C:\Users\Helon\AppData\Local\Temp\ccKCxrf8.s 			page 363


 16368      5F556172 
 16368      74476574 
 16368      43686172 
 16368      00
 16369              	.LASF165:
 16370 0a18 4359424C 		.ascii	"CYBLE_GAPC_NON_CONN_UNDIRECTED_ADV\000"
 16370      455F4741 
 16370      50435F4E 
 16370      4F4E5F43 
 16370      4F4E4E5F 
 16371              	.LASF314:
 16372 0a3b 4359424C 		.ascii	"CYBLE_EVT_BLSC_READ_DESCR_RESPONSE\000"
 16372      455F4556 
 16372      545F424C 
 16372      53435F52 
 16372      4541445F 
 16373              	.LASF133:
 16374 0a5e 4359424C 		.ascii	"CYBLE_LL_PWR_LVL_NEG_12_DBM\000"
 16374      455F4C4C 
 16374      5F505752 
 16374      5F4C564C 
 16374      5F4E4547 
 16375              	.LASF714:
 16376 0a7a 43794465 		.ascii	"CyDelay\000"
 16376      6C617900 
 16377              	.LASF758:
 16378 0a82 4379426C 		.ascii	"CyBle_GattcWriteCharacteristicValue\000"
 16378      655F4761 
 16378      74746357 
 16378      72697465 
 16378      43686172 
 16379              	.LASF335:
 16380 0aa6 4359424C 		.ascii	"CYBLE_EVT_CPSS_INDICATION_DISABLED\000"
 16380      455F4556 
 16380      545F4350 
 16380      53535F49 
 16380      4E444943 
 16381              	.LASF334:
 16382 0ac9 4359424C 		.ascii	"CYBLE_EVT_CPSS_INDICATION_ENABLED\000"
 16382      455F4556 
 16382      545F4350 
 16382      53535F49 
 16382      4E444943 
 16383              	.LASF433:
 16384 0aeb 4359424C 		.ascii	"CYBLE_EVT_LNSS_NOTIFICATION_ENABLED\000"
 16384      455F4556 
 16384      545F4C4E 
 16384      53535F4E 
 16384      4F544946 
 16385              	.LASF688:
 16386 0b0f 48616E64 		.ascii	"HandleScanDevices\000"
 16386      6C655363 
 16386      616E4465 
 16386      76696365 
 16386      7300
 16387              	.LASF247:
 16388 0b21 4359424C 		.ascii	"CYBLE_GATTC_READ_REQ_T\000"
ARM GAS  C:\Users\Helon\AppData\Local\Temp\ccKCxrf8.s 			page 364


 16388      455F4741 
 16388      5454435F 
 16388      52454144 
 16388      5F524551 
 16389              	.LASF64:
 16390 0b38 4359424C 		.ascii	"CYBLE_EVT_GATTS_WRITE_CMD_REQ\000"
 16390      455F4556 
 16390      545F4741 
 16390      5454535F 
 16390      57524954 
 16391              	.LASF345:
 16392 0b56 4359424C 		.ascii	"CYBLE_EVT_CPSC_WRITE_DESCR_RESPONSE\000"
 16392      455F4556 
 16392      545F4350 
 16392      53435F57 
 16392      52495445 
 16393              	.LASF162:
 16394 0b7a 4359424C 		.ascii	"CYBLE_GAPC_CONN_UNDIRECTED_ADV\000"
 16394      455F4741 
 16394      50435F43 
 16394      4F4E4E5F 
 16394      554E4449 
 16395              	.LASF9:
 16396 0b99 6C6F6E67 		.ascii	"long int\000"
 16396      20696E74 
 16396      00
 16397              	.LASF280:
 16398 0ba2 4359424C 		.ascii	"CYBLE_EVT_ANCSC_READ_CHAR_RESPONSE\000"
 16398      455F4556 
 16398      545F414E 
 16398      4353435F 
 16398      52454144 
 16399              	.LASF448:
 16400 0bc5 4359424C 		.ascii	"CYBLE_EVT_PASSC_WRITE_CHAR_RESPONSE\000"
 16400      455F4556 
 16400      545F5041 
 16400      5353435F 
 16400      57524954 
 16401              	.LASF218:
 16402 0be9 64617461 		.ascii	"dataLen\000"
 16402      4C656E00 
 16403              	.LASF260:
 16404 0bf1 4359424C 		.ascii	"CYBLE_LONG_TERM_KEY_REQUEST_REPLY\000"
 16404      455F4C4F 
 16404      4E475F54 
 16404      45524D5F 
 16404      4B45595F 
 16405              	.LASF670:
 16406 0c13 6E65676F 		.ascii	"negotiatedMtu\000"
 16406      74696174 
 16406      65644D74 
 16406      7500
 16407              	.LASF682:
 16408 0c21 63636364 		.ascii	"cccdNotifFlagSetStruct\000"
 16408      4E6F7469 
 16408      66466C61 
 16408      67536574 
ARM GAS  C:\Users\Helon\AppData\Local\Temp\ccKCxrf8.s 			page 365


 16408      53747275 
 16409              	.LASF32:
 16410 0c38 4359424C 		.ascii	"CYBLE_EVT_STACK_ON\000"
 16410      455F4556 
 16410      545F5354 
 16410      41434B5F 
 16410      4F4E00
 16411              	.LASF106:
 16412 0c4b 4359424C 		.ascii	"CYBLE_ERROR_L2CAP_PSM_NOT_IN_RANGE\000"
 16412      455F4552 
 16412      524F525F 
 16412      4C324341 
 16412      505F5053 
 16413              	.LASF746:
 16414 0c6e 4379426C 		.ascii	"CyBle_GattcDiscoverAllCharacteristicDescriptors\000"
 16414      655F4761 
 16414      74746344 
 16414      6973636F 
 16414      76657241 
 16415              	.LASF125:
 16416 0c9e 4359424C 		.ascii	"CYBLE_BLESS_STATE_SLEEP\000"
 16416      455F424C 
 16416      4553535F 
 16416      53544154 
 16416      455F534C 
 16417              	.LASF381:
 16418 0cb6 4359424C 		.ascii	"CYBLE_EVT_ESSC_WRITE_DESCR_RESPONSE\000"
 16418      455F4556 
 16418      545F4553 
 16418      53435F57 
 16418      52495445 
 16419              	.LASF717:
 16420 0cda 43795379 		.ascii	"CySysPmSleep\000"
 16420      73506D53 
 16420      6C656570 
 16420      00
 16421              	.LASF661:
 16422 0ce7 72785F69 		.ascii	"rx_isover\000"
 16422      736F7665 
 16422      7200
 16423              	.LASF414:
 16424 0cf1 4359424C 		.ascii	"CYBLE_EVT_HTSS_NOTIFICATION_ENABLED\000"
 16424      455F4556 
 16424      545F4854 
 16424      53535F4E 
 16424      4F544946 
 16425              	.LASF178:
 16426 0d15 4359424C 		.ascii	"CYBLE_GAP_AUTH_ERROR_CONFIRM_VALUE_NOT_MATCH\000"
 16426      455F4741 
 16426      505F4155 
 16426      54485F45 
 16426      52524F52 
 16427              	.LASF764:
 16428 0d42 473A5C43 		.ascii	"G:\\Company\\Jetronic\\CYPRESS\\Customer\\Troughpur"
 16428      6F6D7061 
 16428      6E795C4A 
 16428      6574726F 
ARM GAS  C:\Users\Helon\AppData\Local\Temp\ccKCxrf8.s 			page 366


 16428      6E69635C 
 16429 0d70 5F43656E 		.ascii	"_Central_Peripheral(c)\\Troughput_Central_Periphera"
 16429      7472616C 
 16429      5F506572 
 16429      69706865 
 16429      72616C28 
 16430 0da2 6C2E6379 		.ascii	"l.cydsn\000"
 16430      64736E00 
 16431              	.LASF114:
 16432 0daa 4359424C 		.ascii	"CYBLE_ERROR_CHAR_IS_NOT_DISCOVERED\000"
 16432      455F4552 
 16432      524F525F 
 16432      43484152 
 16432      5F49535F 
 16433              	.LASF680:
 16434 0dcd 5F313073 		.ascii	"_10sIsOver\000"
 16434      49734F76 
 16434      657200
 16435              	.LASF222:
 16436 0dd8 636F6E6E 		.ascii	"connIntvMin\000"
 16436      496E7476 
 16436      4D696E00 
 16437              	.LASF124:
 16438 0de4 4359424C 		.ascii	"CYBLE_BLESS_STATE_EVENT_CLOSE\000"
 16438      455F424C 
 16438      4553535F 
 16438      53544154 
 16438      455F4556 
 16439              	.LASF238:
 16440 0e02 4359424C 		.ascii	"CYBLE_GATT_HANDLE_VALUE_PAIR_T\000"
 16440      455F4741 
 16440      54545F48 
 16440      414E444C 
 16440      455F5641 
 16441              	.LASF298:
 16442 0e21 4359424C 		.ascii	"CYBLE_EVT_BASC_WRITE_DESCR_RESPONSE\000"
 16442      455F4556 
 16442      545F4241 
 16442      53435F57 
 16442      52495445 
 16443              	.LASF147:
 16444 0e45 626C6553 		.ascii	"bleSsChId\000"
 16444      73436849 
 16444      6400
 16445              	.LASF708:
 16446 0e4f 55415254 		.ascii	"UART_SpiUartGetTxBufferSize\000"
 16446      5F537069 
 16446      55617274 
 16446      47657454 
 16446      78427566 
 16447              	.LASF378:
 16448 0e6b 4359424C 		.ascii	"CYBLE_EVT_ESSC_READ_CHAR_RESPONSE\000"
 16448      455F4556 
 16448      545F4553 
 16448      53435F52 
 16448      4541445F 
 16449              	.LASF401:
ARM GAS  C:\Users\Helon\AppData\Local\Temp\ccKCxrf8.s 			page 367


 16450 0e8d 4359424C 		.ascii	"CYBLE_EVT_HIDSC_NOTIFICATION\000"
 16450      455F4556 
 16450      545F4849 
 16450      4453435F 
 16450      4E4F5449 
 16451              	.LASF159:
 16452 0eaa 4359424C 		.ascii	"CYBLE_GAPP_NON_CONNECTABLE_UNDIRECTED_ADV\000"
 16452      455F4741 
 16452      50505F4E 
 16452      4F4E5F43 
 16452      4F4E4E45 
 16453              	.LASF711:
 16454 0ed4 55415254 		.ascii	"UART_Sleep\000"
 16454      5F536C65 
 16454      657000
 16455              	.LASF76:
 16456 0edf 4359424C 		.ascii	"CYBLE_EVT_L2CAP_COMMAND_REJ\000"
 16456      455F4556 
 16456      545F4C32 
 16456      4341505F 
 16456      434F4D4D 
 16457              	.LASF249:
 16458 0efb 4359424C 		.ascii	"CYBLE_GATTC_WRITE_REQ_T\000"
 16458      455F4741 
 16458      5454435F 
 16458      57524954 
 16458      455F5245 
 16459              	.LASF265:
 16460 0f13 4359424C 		.ascii	"CYBLE_EVT_GATTC_SRVC_DISCOVERY_FAILED\000"
 16460      455F4556 
 16460      545F4741 
 16460      5454435F 
 16460      53525643 
 16461              	.LASF398:
 16462 0f39 4359424C 		.ascii	"CYBLE_EVT_HIDSS_SUSPEND\000"
 16462      455F4556 
 16462      545F4849 
 16462      4453535F 
 16462      53555350 
 16463              	.LASF107:
 16464 0f51 4359424C 		.ascii	"CYBLE_ERROR_GATT_DB_INVALID_ATTR_HANDLE\000"
 16464      455F4552 
 16464      524F525F 
 16464      47415454 
 16464      5F44425F 
 16465              	.LASF2:
 16466 0f79 7369676E 		.ascii	"signed char\000"
 16466      65642063 
 16466      68617200 
 16467              	.LASF132:
 16468 0f85 4359424C 		.ascii	"CYBLE_LL_PWR_LVL_NEG_18_DBM\000"
 16468      455F4C4C 
 16468      5F505752 
 16468      5F4C564C 
 16468      5F4E4547 
 16469              	.LASF692:
 16470 0fa1 4379426C 		.ascii	"CyBle_L2capLeConnectionParamUpdateRequest\000"
ARM GAS  C:\Users\Helon\AppData\Local\Temp\ccKCxrf8.s 			page 368


 16470      655F4C32 
 16470      6361704C 
 16470      65436F6E 
 16470      6E656374 
 16471              	.LASF16:
 16472 0fcb 75696E74 		.ascii	"uint8_t\000"
 16472      385F7400 
 16473              	.LASF683:
 16474 0fd3 636F6E6E 		.ascii	"connParam\000"
 16474      50617261 
 16474      6D00
 16475              	.LASF509:
 16476 0fdd 4359424C 		.ascii	"CYBLE_EVT_WSSC_WRITE_DESCR_RESPONSE\000"
 16476      455F4556 
 16476      545F5753 
 16476      53435F57 
 16476      52495445 
 16477              	.LASF297:
 16478 1001 4359424C 		.ascii	"CYBLE_EVT_BASC_READ_DESCR_RESPONSE\000"
 16478      455F4556 
 16478      545F4241 
 16478      53435F52 
 16478      4541445F 
 16479              	.LASF689:
 16480 1024 436F6D6D 		.ascii	"Command_Identify\000"
 16480      616E645F 
 16480      4964656E 
 16480      74696679 
 16480      00
 16481              	.LASF618:
 16482 1035 53747254 		.ascii	"StrToHex\000"
 16482      6F486578 
 16482      00
 16483              	.LASF724:
 16484 103e 54696D65 		.ascii	"Timer_Init\000"
 16484      725F496E 
 16484      697400
 16485              	.LASF34:
 16486 1049 4359424C 		.ascii	"CYBLE_EVT_HARDWARE_ERROR\000"
 16486      455F4556 
 16486      545F4841 
 16486      52445741 
 16486      52455F45 
 16487              	.LASF701:
 16488 1062 55415254 		.ascii	"UART_SpiUartClearRxBuffer\000"
 16488      5F537069 
 16488      55617274 
 16488      436C6561 
 16488      72527842 
 16489              	.LASF88:
 16490 107c 4359424C 		.ascii	"CYBLE_ERROR_OK\000"
 16490      455F4552 
 16490      524F525F 
 16490      4F4B00
 16491              	.LASF145:
 16492 108b 4359424C 		.ascii	"CYBLE_BLESS_PHY_CH_GRP_ID_T\000"
 16492      455F424C 
ARM GAS  C:\Users\Helon\AppData\Local\Temp\ccKCxrf8.s 			page 369


 16492      4553535F 
 16492      5048595F 
 16492      43485F47 
 16493              	.LASF544:
 16494 10a7 74785472 		.ascii	"txTriggerLevel\000"
 16494      69676765 
 16494      724C6576 
 16494      656C00
 16495              	.LASF217:
 16496 10b6 70656572 		.ascii	"peerBdAddr\000"
 16496      42644164 
 16496      647200
 16497              	.LASF55:
 16498 10c1 4359424C 		.ascii	"CYBLE_EVT_GATTC_READ_BY_GROUP_TYPE_RSP\000"
 16498      455F4556 
 16498      545F4741 
 16498      5454435F 
 16498      52454144 
 16499              	.LASF511:
 16500 10e8 4359424C 		.ascii	"CYBLE_STATE_STOPPED\000"
 16500      455F5354 
 16500      4154455F 
 16500      53544F50 
 16500      50454400 
 16501              	.LASF453:
 16502 10fc 4359424C 		.ascii	"CYBLE_EVT_RSCSS_INDICATION_ENABLED\000"
 16502      455F4556 
 16502      545F5253 
 16502      4353535F 
 16502      494E4449 
 16503              	.LASF5:
 16504 111f 756E7369 		.ascii	"unsigned char\000"
 16504      676E6564 
 16504      20636861 
 16504      7200
 16505              	.LASF54:
 16506 112d 4359424C 		.ascii	"CYBLE_EVT_GATTC_XCHNG_MTU_RSP\000"
 16506      455F4556 
 16506      545F4741 
 16506      5454435F 
 16506      5843484E 
 16507              	.LASF336:
 16508 114b 4359424C 		.ascii	"CYBLE_EVT_CPSS_INDICATION_CONFIRMED\000"
 16508      455F4556 
 16508      545F4350 
 16508      53535F49 
 16508      4E444943 
 16509              	.LASF333:
 16510 116f 4359424C 		.ascii	"CYBLE_EVT_CPSS_NOTIFICATION_DISABLED\000"
 16510      455F4556 
 16510      545F4350 
 16510      53535F4E 
 16510      4F544946 
 16511              	.LASF634:
 16512 1194 57726974 		.ascii	"WriteDataToFlash\000"
 16512      65446174 
 16512      61546F46 
ARM GAS  C:\Users\Helon\AppData\Local\Temp\ccKCxrf8.s 			page 370


 16512      6C617368 
 16512      00
 16513              	.LASF458:
 16514 11a5 4359424C 		.ascii	"CYBLE_EVT_RSCSC_INDICATION\000"
 16514      455F4556 
 16514      545F5253 
 16514      4353435F 
 16514      494E4449 
 16515              	.LASF253:
 16516 11c0 4359424C 		.ascii	"CYBLE_GATTC_HANDLE_UUID_LIST_PARAM_T\000"
 16516      455F4741 
 16516      5454435F 
 16516      48414E44 
 16516      4C455F55 
 16517              	.LASF508:
 16518 11e5 4359424C 		.ascii	"CYBLE_EVT_WSSC_READ_DESCR_RESPONSE\000"
 16518      455F4556 
 16518      545F5753 
 16518      53435F52 
 16518      4541445F 
 16519              	.LASF702:
 16520 1208 55415254 		.ascii	"UART_Start\000"
 16520      5F537461 
 16520      727400
 16521              	.LASF549:
 16522 1213 72747350 		.ascii	"rtsPolarity\000"
 16522      6F6C6172 
 16522      69747900 
 16523              	.LASF118:
 16524 121f 4359424C 		.ascii	"CYBLE_BLESS_SLEEP\000"
 16524      455F424C 
 16524      4553535F 
 16524      534C4545 
 16524      5000
 16525              	.LASF715:
 16526 1231 55415254 		.ascii	"UART_RX_WAKEUP_IRQ_ClearPending\000"
 16526      5F52585F 
 16526      57414B45 
 16526      55505F49 
 16526      52515F43 
 16527              	.LASF83:
 16528 1251 4359424C 		.ascii	"CYBLE_EVT_L2CAP_CBFC_TX_CREDIT_IND\000"
 16528      455F4556 
 16528      545F4C32 
 16528      4341505F 
 16528      43424643 
 16529              	.LASF196:
 16530 1274 61647649 		.ascii	"advIntvMin\000"
 16530      6E74764D 
 16530      696E00
 16531              	.LASF690:
 16532 127f 4379426C 		.ascii	"CyBle_GappStartAdvertisement\000"
 16532      655F4761 
 16532      70705374 
 16532      61727441 
 16532      64766572 
 16533              	.LASF264:
ARM GAS  C:\Users\Helon\AppData\Local\Temp\ccKCxrf8.s 			page 371


 16534 129c 4359424C 		.ascii	"CYBLE_EVT_GATTC_INDICATION\000"
 16534      455F4556 
 16534      545F4741 
 16534      5454435F 
 16534      494E4449 
 16535              	.LASF633:
 16536 12b7 44657669 		.ascii	"DeviceNameLen\000"
 16536      63654E61 
 16536      6D654C65 
 16536      6E00
 16537              	.LASF184:
 16538 12c5 4359424C 		.ascii	"CYBLE_GAP_AUTH_ERROR_INVALID_PARAMETERS\000"
 16538      455F4741 
 16538      505F4155 
 16538      54485F45 
 16538      52524F52 
 16539              	.LASF614:
 16540 12ed 77726974 		.ascii	"writeRequestData\000"
 16540      65526571 
 16540      75657374 
 16540      44617461 
 16540      00
 16541              	.LASF123:
 16542 12fe 4359424C 		.ascii	"CYBLE_BLESS_STATE_ACTIVE\000"
 16542      455F424C 
 16542      4553535F 
 16542      53544154 
 16542      455F4143 
 16543              	.LASF207:
 16544 1317 4359424C 		.ascii	"CYBLE_GAPP_DISC_DATA_T\000"
 16544      455F4741 
 16544      50505F44 
 16544      4953435F 
 16544      44415441 
 16545              	.LASF681:
 16546 132e 63636364 		.ascii	"cccdNotifEnabledValue\000"
 16546      4E6F7469 
 16546      66456E61 
 16546      626C6564 
 16546      56616C75 
 16547              	.LASF465:
 16548 1344 4359424C 		.ascii	"CYBLE_EVT_SCPSS_NOTIFICATION_ENABLED\000"
 16548      455F4556 
 16548      545F5343 
 16548      5053535F 
 16548      4E4F5449 
 16549              	.LASF615:
 16550 1369 55617274 		.ascii	"UartBuadRate_Handler\000"
 16550      42756164 
 16550      52617465 
 16550      5F48616E 
 16550      646C6572 
 16551              	.LASF80:
 16552 137e 4359424C 		.ascii	"CYBLE_EVT_L2CAP_CBFC_DISCONN_CNF\000"
 16552      455F4556 
 16552      545F4C32 
 16552      4341505F 
ARM GAS  C:\Users\Helon\AppData\Local\Temp\ccKCxrf8.s 			page 372


 16552      43424643 
 16553              	.LASF58:
 16554 139f 4359424C 		.ascii	"CYBLE_EVT_GATTC_FIND_BY_TYPE_VALUE_RSP\000"
 16554      455F4556 
 16554      545F4741 
 16554      5454435F 
 16554      46494E44 
 16555              	.LASF276:
 16556 13c6 4359424C 		.ascii	"CYBLE_EVT_ANCSS_NOTIFICATION_ENABLED\000"
 16556      455F4556 
 16556      545F414E 
 16556      4353535F 
 16556      4E4F5449 
 16557              	.LASF527:
 16558 13eb 656E6162 		.ascii	"enableRetryNack\000"
 16558      6C655265 
 16558      7472794E 
 16558      61636B00 
 16559              	.LASF122:
 16560 13fb 4359424C 		.ascii	"CYBLE_LP_MODE_T\000"
 16560      455F4C50 
 16560      5F4D4F44 
 16560      455F5400 
 16561              	.LASF470:
 16562 140b 4359424C 		.ascii	"CYBLE_EVT_SCPSC_WRITE_DESCR_RESPONSE\000"
 16562      455F4556 
 16562      545F5343 
 16562      5053435F 
 16562      57524954 
 16563              	.LASF26:
 16564 1430 63686172 		.ascii	"char\000"
 16564      00
 16565              	.LASF136:
 16566 1435 4359424C 		.ascii	"CYBLE_LL_PWR_LVL_NEG_2_DBM\000"
 16566      455F4C4C 
 16566      5F505752 
 16566      5F4C564C 
 16566      5F4E4547 
 16567              	.LASF473:
 16568 1450 4359424C 		.ascii	"CYBLE_EVT_TPSC_NOTIFICATION\000"
 16568      455F4556 
 16568      545F5450 
 16568      53435F4E 
 16568      4F544946 
 16569              	.LASF61:
 16570 146c 4359424C 		.ascii	"CYBLE_EVT_GATTC_READ_MULTI_RSP\000"
 16570      455F4556 
 16570      545F4741 
 16570      5454435F 
 16570      52454144 
 16571              	.LASF192:
 16572 148b 4359424C 		.ascii	"CYBLE_GAP_AUTH_INFO_T\000"
 16572      455F4741 
 16572      505F4155 
 16572      54485F49 
 16572      4E464F5F 
 16573              	.LASF170:
ARM GAS  C:\Users\Helon\AppData\Local\Temp\ccKCxrf8.s 			page 373


 16574 14a1 4359424C 		.ascii	"CYBLE_GAP_IOCAP_KEYBOARD_ONLY\000"
 16574      455F4741 
 16574      505F494F 
 16574      4341505F 
 16574      4B455942 
 16575              	.LASF516:
 16576 14bf 4359424C 		.ascii	"CYBLE_STATE_CONNECTING\000"
 16576      455F5354 
 16576      4154455F 
 16576      434F4E4E 
 16576      45435449 
 16577              	.LASF31:
 16578 14d6 4359424C 		.ascii	"CYBLE_EVT_HOST_INVALID\000"
 16578      455F4556 
 16578      545F484F 
 16578      53545F49 
 16578      4E56414C 
 16579              	.LASF741:
 16580 14ed 4379426C 		.ascii	"CyBle_GapGetLocalName\000"
 16580      655F4761 
 16580      70476574 
 16580      4C6F6361 
 16580      6C4E616D 
 16581              	.LASF392:
 16582 1503 4359424C 		.ascii	"CYBLE_EVT_GLSC_READ_DESCR_RESPONSE\000"
 16582      455F4556 
 16582      545F474C 
 16582      53435F52 
 16582      4541445F 
 16583              	.LASF7:
 16584 1526 5F5F7569 		.ascii	"__uint16_t\000"
 16584      6E743136 
 16584      5F7400
 16585              	.LASF95:
 16586 1531 4359424C 		.ascii	"CYBLE_ERROR_NO_DEVICE_ENTITY\000"
 16586      455F4552 
 16586      524F525F 
 16586      4E4F5F44 
 16586      45564943 
 16587              	.LASF538:
 16588 154e 6D756C74 		.ascii	"multiprocAddr\000"
 16588      6970726F 
 16588      63416464 
 16588      7200
 16589              	.LASF60:
 16590 155c 4359424C 		.ascii	"CYBLE_EVT_GATTC_READ_BLOB_RSP\000"
 16590      455F4556 
 16590      545F4741 
 16590      5454435F 
 16590      52454144 
 16591              	.LASF417:
 16592 157a 4359424C 		.ascii	"CYBLE_EVT_HTSS_INDICATION_DISABLED\000"
 16592      455F4556 
 16592      545F4854 
 16592      53535F49 
 16592      4E444943 
 16593              	.LASF464:
ARM GAS  C:\Users\Helon\AppData\Local\Temp\ccKCxrf8.s 			page 374


 16594 159d 4359424C 		.ascii	"CYBLE_EVT_RTUSC_READ_CHAR_RESPONSE\000"
 16594      455F4556 
 16594      545F5254 
 16594      5553435F 
 16594      52454144 
 16595              	.LASF67:
 16596 15c0 4359424C 		.ascii	"CYBLE_EVT_GATTC_EXEC_WRITE_RSP\000"
 16596      455F4556 
 16596      545F4741 
 16596      5454435F 
 16596      45584543 
 16597              	.LASF505:
 16598 15df 4359424C 		.ascii	"CYBLE_EVT_WSSS_INDICATION_CONFIRMED\000"
 16598      455F4556 
 16598      545F5753 
 16598      53535F49 
 16598      4E444943 
 16599              	.LASF250:
 16600 1603 4359424C 		.ascii	"CYBLE_GATTC_HANDLE_VALUE_NTF_PARAM_T\000"
 16600      455F4741 
 16600      5454435F 
 16600      48414E44 
 16600      4C455F56 
 16601              	.LASF736:
 16602 1628 4379426C 		.ascii	"CyBle_GetTxPowerLevel\000"
 16602      655F4765 
 16602      74547850 
 16602      6F776572 
 16602      4C657665 
 16603              	.LASF722:
 16604 163e 55415254 		.ascii	"UART_rx_wake_SetDriveMode\000"
 16604      5F72785F 
 16604      77616B65 
 16604      5F536574 
 16604      44726976 
 16605              	.LASF619:
 16606 1658 70624465 		.ascii	"pbDest\000"
 16606      737400
 16607              	.LASF478:
 16608 165f 4359424C 		.ascii	"CYBLE_EVT_UDSS_INDICATION_DISABLED\000"
 16608      455F4556 
 16608      545F5544 
 16608      53535F49 
 16608      4E444943 
 16609              	.LASF449:
 16610 1682 4359424C 		.ascii	"CYBLE_EVT_PASSC_READ_DESCR_RESPONSE\000"
 16610      455F4556 
 16610      545F5041 
 16610      5353435F 
 16610      52454144 
 16611              	.LASF574:
 16612 16a6 534C4545 		.ascii	"SLEEP\000"
 16612      5000
 16613              	.LASF621:
 16614 16ac 6E4C656E 		.ascii	"nLen\000"
 16614      00
 16615              	.LASF72:
ARM GAS  C:\Users\Helon\AppData\Local\Temp\ccKCxrf8.s 			page 375


 16616 16b1 4359424C 		.ascii	"CYBLE_EVT_GATTC_STOP_CMD_COMPLETE\000"
 16616      455F4556 
 16616      545F4741 
 16616      5454435F 
 16616      53544F50 
 16617              	.LASF339:
 16618 16d3 4359424C 		.ascii	"CYBLE_EVT_CPSS_CHAR_WRITE\000"
 16618      455F4556 
 16618      545F4350 
 16618      53535F43 
 16618      4841525F 
 16619              	.LASF665:
 16620 16ed 4D54555F 		.ascii	"MTU_REQ_FLAG\000"
 16620      5245515F 
 16620      464C4147 
 16620      00
 16621              	.LASF406:
 16622 16fa 4359424C 		.ascii	"CYBLE_EVT_HRSS_ENERGY_EXPENDED_RESET\000"
 16622      455F4556 
 16622      545F4852 
 16622      53535F45 
 16622      4E455247 
 16623              	.LASF369:
 16624 171f 4359424C 		.ascii	"CYBLE_EVT_ESSS_NOTIFICATION_DISABLED\000"
 16624      455F4556 
 16624      545F4553 
 16624      53535F4E 
 16624      4F544946 
 16625              	.LASF492:
 16626 1744 4359424C 		.ascii	"CYBLE_EVT_WPTSS_NOTIFICATION_DISABLED\000"
 16626      455F4556 
 16626      545F5750 
 16626      5453535F 
 16626      4E4F5449 
 16627              	.LASF742:
 16628 176a 4379426C 		.ascii	"CyBle_GappStopAdvertisement\000"
 16628      655F4761 
 16628      70705374 
 16628      6F704164 
 16628      76657274 
 16629              	.LASF554:
 16630 1786 42415544 		.ascii	"BAUD\000"
 16630      00
 16631              	.LASF543:
 16632 178b 7478496E 		.ascii	"txInterruptMask\000"
 16632      74657272 
 16632      7570744D 
 16632      61736B00 
 16633              	.LASF568:
 16634 179b 53504545 		.ascii	"SPEED\000"
 16634      4400
 16635              	.LASF309:
 16636 17a1 4359424C 		.ascii	"CYBLE_EVT_BLSS_NOTIFICATION_ENABLED\000"
 16636      455F4556 
 16636      545F424C 
 16636      53535F4E 
 16636      4F544946 
ARM GAS  C:\Users\Helon\AppData\Local\Temp\ccKCxrf8.s 			page 376


 16637              	.LASF506:
 16638 17c5 4359424C 		.ascii	"CYBLE_EVT_WSSC_INDICATION\000"
 16638      455F4556 
 16638      545F5753 
 16638      53435F49 
 16638      4E444943 
 16639              	.LASF89:
 16640 17df 4359424C 		.ascii	"CYBLE_ERROR_INVALID_PARAMETER\000"
 16640      455F4552 
 16640      524F525F 
 16640      494E5641 
 16640      4C49445F 
 16641              	.LASF604:
 16642 17fd 626C6573 		.ascii	"blessState\000"
 16642      73537461 
 16642      746500
 16643              	.LASF547:
 16644 1808 63747350 		.ascii	"ctsPolarity\000"
 16644      6F6C6172 
 16644      69747900 
 16645              	.LASF377:
 16646 1814 4359424C 		.ascii	"CYBLE_EVT_ESSC_INDICATION\000"
 16646      455F4556 
 16646      545F4553 
 16646      53435F49 
 16646      4E444943 
 16647              	.LASF283:
 16648 182e 4359424C 		.ascii	"CYBLE_EVT_ANCSC_WRITE_DESCR_RESPONSE\000"
 16648      455F4556 
 16648      545F414E 
 16648      4353435F 
 16648      57524954 
 16649              	.LASF557:
 16650 1853 4350494E 		.ascii	"CPIN\000"
 16650      00
 16651              	.LASF679:
 16652 1858 636C6561 		.ascii	"clearAllDevices\000"
 16652      72416C6C 
 16652      44657669 
 16652      63657300 
 16653              	.LASF577:
 16654 1868 44697363 		.ascii	"Disconn_Idx\000"
 16654      6F6E6E5F 
 16654      49647800 
 16655              	.LASF460:
 16656 1874 4359424C 		.ascii	"CYBLE_EVT_RSCSC_WRITE_CHAR_RESPONSE\000"
 16656      455F4556 
 16656      545F5253 
 16656      4353435F 
 16656      57524954 
 16657              	.LASF580:
 16658 1898 4359424C 		.ascii	"CYBLE_CONN_OR_DISCONN_INFO\000"
 16658      455F434F 
 16658      4E4E5F4F 
 16658      525F4449 
 16658      53434F4E 
 16659              	.LASF407:
ARM GAS  C:\Users\Helon\AppData\Local\Temp\ccKCxrf8.s 			page 377


 16660 18b3 4359424C 		.ascii	"CYBLE_EVT_HRSS_NOTIFICATION_ENABLED\000"
 16660      455F4556 
 16660      545F4852 
 16660      53535F4E 
 16660      4F544946 
 16661              	.LASF660:
 16662 18d7 42756666 		.ascii	"Buffer_Length\000"
 16662      65725F4C 
 16662      656E6774 
 16662      6800
 16663              	.LASF476:
 16664 18e5 4359424C 		.ascii	"CYBLE_EVT_TPSC_WRITE_DESCR_RESPONSE\000"
 16664      455F4556 
 16664      545F5450 
 16664      53435F57 
 16664      52495445 
 16665              	.LASF648:
 16666 1909 66696C65 		.ascii	"file\000"
 16666      00
 16667              	.LASF348:
 16668 190e 4359424C 		.ascii	"CYBLE_EVT_CSCSS_NOTIFICATION_DISABLED\000"
 16668      455F4556 
 16668      545F4353 
 16668      4353535F 
 16668      4E4F5449 
 16669              	.LASF359:
 16670 1934 4359424C 		.ascii	"CYBLE_EVT_CTSS_NOTIFICATION_ENABLED\000"
 16670      455F4556 
 16670      545F4354 
 16670      53535F4E 
 16670      4F544946 
 16671              	.LASF454:
 16672 1958 4359424C 		.ascii	"CYBLE_EVT_RSCSS_INDICATION_DISABLED\000"
 16672      455F4556 
 16672      545F5253 
 16672      4353535F 
 16672      494E4449 
 16673              	.LASF564:
 16674 197c 44495343 		.ascii	"DISCONN\000"
 16674      4F4E4E00 
 16675              	.LASF740:
 16676 1984 4379426C 		.ascii	"CyBle_GetDeviceAddress\000"
 16676      655F4765 
 16676      74446576 
 16676      69636541 
 16676      64647265 
 16677              	.LASF160:
 16678 199b 4359424C 		.ascii	"CYBLE_GAPP_CONNECTABLE_LOW_DC_DIRECTED_ADV\000"
 16678      455F4741 
 16678      50505F43 
 16678      4F4E4E45 
 16678      43544142 
 16679              	.LASF496:
 16680 19c6 4359424C 		.ascii	"CYBLE_EVT_WPTSS_WRITE_CHAR\000"
 16680      455F4556 
 16680      545F5750 
 16680      5453535F 
ARM GAS  C:\Users\Helon\AppData\Local\Temp\ccKCxrf8.s 			page 378


 16680      57524954 
 16681              	.LASF427:
 16682 19e1 4359424C 		.ascii	"CYBLE_EVT_LLSS_WRITE_CHAR_REQ\000"
 16682      455F4556 
 16682      545F4C4C 
 16682      53535F57 
 16682      52495445 
 16683              	.LASF91:
 16684 19ff 4359424C 		.ascii	"CYBLE_ERROR_MEMORY_ALLOCATION_FAILED\000"
 16684      455F4552 
 16684      524F525F 
 16684      4D454D4F 
 16684      52595F41 
 16685              	.LASF412:
 16686 1a24 4359424C 		.ascii	"CYBLE_EVT_HRSC_READ_DESCR_RESPONSE\000"
 16686      455F4556 
 16686      545F4852 
 16686      53435F52 
 16686      4541445F 
 16687              	.LASF598:
 16688 1a47 44697341 		.ascii	"DisAllCharResult\000"
 16688      6C6C4368 
 16688      61725265 
 16688      73756C74 
 16688      00
 16689              	.LASF347:
 16690 1a58 4359424C 		.ascii	"CYBLE_EVT_CSCSS_NOTIFICATION_ENABLED\000"
 16690      455F4556 
 16690      545F4353 
 16690      4353535F 
 16690      4E4F5449 
 16691              	.LASF693:
 16692 1a7d 7072696E 		.ascii	"printf\000"
 16692      746600
 16693              	.LASF521:
 16694 1a84 64617461 		.ascii	"dataBits\000"
 16694      42697473 
 16694      00
 16695              	.LASF668:
 16696 1a8d 746F7461 		.ascii	"totalByteCounter\000"
 16696      6C427974 
 16696      65436F75 
 16696      6E746572 
 16696      00
 16697              	.LASF626:
 16698 1a9e 4E616D65 		.ascii	"Name\000"
 16698      00
 16699              	.LASF311:
 16700 1aa3 4359424C 		.ascii	"CYBLE_EVT_BLSC_INDICATION\000"
 16700      455F4556 
 16700      545F424C 
 16700      53435F49 
 16700      4E444943 
 16701              	.LASF669:
 16702 1abd 62756666 		.ascii	"buffer\000"
 16702      657200
 16703              	.LASF589:
ARM GAS  C:\Users\Helon\AppData\Local\Temp\ccKCxrf8.s 			page 379


 16704 1ac4 4D795469 		.ascii	"MyTimerIsr\000"
 16704      6D657249 
 16704      737200
 16705              	.LASF400:
 16706 1acf 4359424C 		.ascii	"CYBLE_EVT_HIDSS_REPORT_CHAR_WRITE\000"
 16706      455F4556 
 16706      545F4849 
 16706      4453535F 
 16706      5245504F 
 16707              	.LASF687:
 16708 1af1 42617564 		.ascii	"Baud_rate_idx\000"
 16708      5F726174 
 16708      655F6964 
 16708      7800
 16709              	.LASF601:
 16710 1aff 53746163 		.ascii	"StackEventHandler\000"
 16710      6B457665 
 16710      6E744861 
 16710      6E646C65 
 16710      7200
 16711              	.LASF500:
 16712 1b11 4359424C 		.ascii	"CYBLE_EVT_WPTSC_READ_CHAR_RESPONSE\000"
 16712      455F4556 
 16712      545F5750 
 16712      5453435F 
 16712      52454144 
 16713              	.LASF111:
 16714 1b34 4359424C 		.ascii	"CYBLE_ERROR_MAX\000"
 16714      455F4552 
 16714      524F525F 
 16714      4D415800 
 16715              	.LASF439:
 16716 1b44 4359424C 		.ascii	"CYBLE_EVT_LNSC_WRITE_CHAR_RESPONSE\000"
 16716      455F4556 
 16716      545F4C4E 
 16716      53435F57 
 16716      52495445 
 16717              	.LASF75:
 16718 1b67 4359424C 		.ascii	"CYBLE_EVT_L2CAP_CONN_PARAM_UPDATE_RSP\000"
 16718      455F4556 
 16718      545F4C32 
 16718      4341505F 
 16718      434F4E4E 
 16719              	.LASF186:
 16720 1b8d 4359424C 		.ascii	"CYBLE_GAP_AUTH_ERROR_LINK_DISCONNECTED\000"
 16720      455F4741 
 16720      505F4155 
 16720      54485F45 
 16720      52524F52 
 16721              	.LASF562:
 16722 1bb4 5343414E 		.ascii	"SCAN\000"
 16722      00
 16723              	.LASF290:
 16724 1bb9 4359424C 		.ascii	"CYBLE_EVT_ANSC_WRITE_CHAR_RESPONSE\000"
 16724      455F4556 
 16724      545F414E 
 16724      53435F57 
ARM GAS  C:\Users\Helon\AppData\Local\Temp\ccKCxrf8.s 			page 380


 16724      52495445 
 16725              	.LASF481:
 16726 1bdc 4359424C 		.ascii	"CYBLE_EVT_UDSS_NOTIFICATION_DISABLED\000"
 16726      455F4556 
 16726      545F5544 
 16726      53535F4E 
 16726      4F544946 
 16727              	.LASF550:
 16728 1c01 55415254 		.ascii	"UART_UART_INIT_STRUCT\000"
 16728      5F554152 
 16728      545F494E 
 16728      49545F53 
 16728      54525543 
 16729              	.LASF358:
 16730 1c17 4359424C 		.ascii	"CYBLE_EVT_CSCSC_WRITE_DESCR_RESPONSE\000"
 16730      455F4556 
 16730      545F4353 
 16730      4353435F 
 16730      57524954 
 16731              	.LASF578:
 16732 1c3c 436F6E6E 		.ascii	"Connected_Count\000"
 16732      65637465 
 16732      645F436F 
 16732      756E7400 
 16733              	.LASF374:
 16734 1c4c 4359424C 		.ascii	"CYBLE_EVT_ESSS_EXEC_WRITE_REQ\000"
 16734      455F4556 
 16734      545F4553 
 16734      53535F45 
 16734      5845435F 
 16735              	.LASF482:
 16736 1c6a 4359424C 		.ascii	"CYBLE_EVT_UDSS_READ_CHAR\000"
 16736      455F4556 
 16736      545F5544 
 16736      53535F52 
 16736      4541445F 
 16737              	.LASF585:
 16738 1c83 74696D65 		.ascii	"timercount\000"
 16738      72636F75 
 16738      6E7400
 16739              	.LASF121:
 16740 1c8e 4359424C 		.ascii	"CYBLE_BLESS_INVALID\000"
 16740      455F424C 
 16740      4553535F 
 16740      494E5641 
 16740      4C494400 
 16741              	.LASF204:
 16742 1ca2 4359424C 		.ascii	"CYBLE_GAPP_DISC_PARAM_T\000"
 16742      455F4741 
 16742      50505F44 
 16742      4953435F 
 16742      50415241 
 16743              	.LASF239:
 16744 1cba 73746172 		.ascii	"startHandle\000"
 16744      7448616E 
 16744      646C6500 
 16745              	.LASF677:
ARM GAS  C:\Users\Helon\AppData\Local\Temp\ccKCxrf8.s 			page 381


 16746 1cc6 536C6565 		.ascii	"SleepMode\000"
 16746      704D6F64 
 16746      6500
 16747              	.LASF252:
 16748 1cd0 62797465 		.ascii	"byteCount\000"
 16748      436F756E 
 16748      7400
 16749              	.LASF643:
 16750 1cda 696E6465 		.ascii	"index\000"
 16750      7800
 16751              	.LASF41:
 16752 1ce0 4359424C 		.ascii	"CYBLE_EVT_GAP_AUTH_COMPLETE\000"
 16752      455F4556 
 16752      545F4741 
 16752      505F4155 
 16752      54485F43 
 16753              	.LASF203:
 16754 1cfc 61647646 		.ascii	"advFilterPolicy\000"
 16754      696C7465 
 16754      72506F6C 
 16754      69637900 
 16755              	.LASF380:
 16756 1d0c 4359424C 		.ascii	"CYBLE_EVT_ESSC_READ_DESCR_RESPONSE\000"
 16756      455F4556 
 16756      545F4553 
 16756      53435F52 
 16756      4541445F 
 16757              	.LASF42:
 16758 1d2f 4359424C 		.ascii	"CYBLE_EVT_GAP_AUTH_FAILED\000"
 16758      455F4556 
 16758      545F4741 
 16758      505F4155 
 16758      54485F46 
 16759              	.LASF399:
 16760 1d49 4359424C 		.ascii	"CYBLE_EVT_HIDSS_EXIT_SUSPEND\000"
 16760      455F4556 
 16760      545F4849 
 16760      4453535F 
 16760      45584954 
 16761              	.LASF131:
 16762 1d66 4359424C 		.ascii	"CYBLE_BLESS_STATE_T\000"
 16762      455F424C 
 16762      4553535F 
 16762      53544154 
 16762      455F5400 
 16763              	.LASF226:
 16764 1d7a 4359424C 		.ascii	"CYBLE_GAP_CONN_UPDATE_PARAM_T\000"
 16764      455F4741 
 16764      505F434F 
 16764      4E4E5F55 
 16764      50444154 
 16765              	.LASF533:
 16766 1d98 72784275 		.ascii	"rxBuffer\000"
 16766      66666572 
 16766      00
 16767              	.LASF198:
 16768 1da1 61647654 		.ascii	"advType\000"
ARM GAS  C:\Users\Helon\AppData\Local\Temp\ccKCxrf8.s 			page 382


 16768      79706500 
 16769              	.LASF365:
 16770 1da9 4359424C 		.ascii	"CYBLE_EVT_CTSC_WRITE_DESCR_RESPONSE\000"
 16770      455F4556 
 16770      545F4354 
 16770      53435F57 
 16770      52495445 
 16771              	.LASF635:
 16772 1dcd 53544155 		.ascii	"STAUS_T\000"
 16772      535F5400 
 16773              	.LASF92:
 16774 1dd5 4359424C 		.ascii	"CYBLE_ERROR_INSUFFICIENT_RESOURCES\000"
 16774      455F4552 
 16774      524F525F 
 16774      494E5355 
 16774      46464943 
 16775              	.LASF452:
 16776 1df8 4359424C 		.ascii	"CYBLE_EVT_RSCSS_NOTIFICATION_DISABLED\000"
 16776      455F4556 
 16776      545F5253 
 16776      4353535F 
 16776      4E4F5449 
 16777              	.LASF641:
 16778 1e1e 55617274 		.ascii	"Uart_Char\000"
 16778      5F436861 
 16778      7200
 16779              	.LASF403:
 16780 1e28 4359424C 		.ascii	"CYBLE_EVT_HIDSC_WRITE_CHAR_RESPONSE\000"
 16780      455F4556 
 16780      545F4849 
 16780      4453435F 
 16780      57524954 
 16781              	.LASF139:
 16782 1e4c 4359424C 		.ascii	"CYBLE_LL_PWR_LVL_3_DBM\000"
 16782      455F4C4C 
 16782      5F505752 
 16782      5F4C564C 
 16782      5F335F44 
 16783              	.LASF11:
 16784 1e63 6C6F6E67 		.ascii	"long unsigned int\000"
 16784      20756E73 
 16784      69676E65 
 16784      6420696E 
 16784      7400
 16785              	.LASF426:
 16786 1e75 4359424C 		.ascii	"CYBLE_EVT_IASS_WRITE_CHAR_CMD\000"
 16786      455F4556 
 16786      545F4941 
 16786      53535F57 
 16786      52495445 
 16787              	.LASF631:
 16788 1e93 41647650 		.ascii	"AdvParamArray\000"
 16788      6172616D 
 16788      41727261 
 16788      7900
 16789              	.LASF227:
 16790 1ea1 73746174 		.ascii	"status\000"
ARM GAS  C:\Users\Helon\AppData\Local\Temp\ccKCxrf8.s 			page 383


 16790      757300
 16791              	.LASF137:
 16792 1ea8 4359424C 		.ascii	"CYBLE_LL_PWR_LVL_NEG_1_DBM\000"
 16792      455F4C4C 
 16792      5F505752 
 16792      5F4C564C 
 16792      5F4E4547 
 16793              	.LASF630:
 16794 1ec3 41647644 		.ascii	"AdvDataLength\000"
 16794      6174614C 
 16794      656E6774 
 16794      6800
 16795              	.LASF493:
 16796 1ed1 4359424C 		.ascii	"CYBLE_EVT_WPTSS_INDICATION_ENABLED\000"
 16796      455F4556 
 16796      545F5750 
 16796      5453535F 
 16796      494E4449 
 16797              	.LASF181:
 16798 1ef4 4359424C 		.ascii	"CYBLE_GAP_AUTH_ERROR_COMMAND_NOT_SUPPORTED\000"
 16798      455F4741 
 16798      505F4155 
 16798      54485F45 
 16798      52524F52 
 16799              	.LASF177:
 16800 1f1f 4359424C 		.ascii	"CYBLE_GAP_AUTH_ERROR_AUTHENTICATION_REQ_NOT_MET\000"
 16800      455F4741 
 16800      505F4155 
 16800      54485F45 
 16800      52524F52 
 16801              	.LASF678:
 16802 1f4f 426F6E64 		.ascii	"Bond\000"
 16802      00
 16803              	.LASF546:
 16804 1f54 656E6162 		.ascii	"enableCts\000"
 16804      6C654374 
 16804      7300
 16805              	.LASF605:
 16806 1f5e 4D595F49 		.ascii	"MY_ISR_USERBUTTON\000"
 16806      53525F55 
 16806      53455242 
 16806      5554544F 
 16806      4E00
 16807              	.LASF289:
 16808 1f70 4359424C 		.ascii	"CYBLE_EVT_ANSC_READ_CHAR_RESPONSE\000"
 16808      455F4556 
 16808      545F414E 
 16808      53435F52 
 16808      4541445F 
 16809              	.LASF440:
 16810 1f92 4359424C 		.ascii	"CYBLE_EVT_LNSC_READ_DESCR_RESPONSE\000"
 16810      455F4556 
 16810      545F4C4E 
 16810      53435F52 
 16810      4541445F 
 16811              	.LASF102:
 16812 1fb5 4359424C 		.ascii	"CYBLE_ERROR_L2CAP_PSM_ALREADY_REGISTERED\000"
ARM GAS  C:\Users\Helon\AppData\Local\Temp\ccKCxrf8.s 			page 384


 16812      455F4552 
 16812      524F525F 
 16812      4C324341 
 16812      505F5053 
 16813              	.LASF565:
 16814 1fde 4C4F4749 		.ascii	"LOGIN\000"
 16814      4E00
 16815              	.LASF419:
 16816 1fe4 4359424C 		.ascii	"CYBLE_EVT_HTSS_CHAR_WRITE\000"
 16816      455F4556 
 16816      545F4854 
 16816      53535F43 
 16816      4841525F 
 16817              	.LASF608:
 16818 1ffe 4C656449 		.ascii	"LedInit\000"
 16818      6E697400 
 16819              	.LASF640:
 16820 2006 526F6C65 		.ascii	"Role\000"
 16820      00
 16821              	.LASF36:
 16822 200b 4359424C 		.ascii	"CYBLE_EVT_STACK_BUSY_STATUS\000"
 16822      455F4556 
 16822      545F5354 
 16822      41434B5F 
 16822      42555359 
 16823              	.LASF293:
 16824 2027 4359424C 		.ascii	"CYBLE_EVT_BASS_NOTIFICATION_ENABLED\000"
 16824      455F4556 
 16824      545F4241 
 16824      53535F4E 
 16824      4F544946 
 16825              	.LASF748:
 16826 204b 4379426C 		.ascii	"CyBle_GapDisconnect\000"
 16826      655F4761 
 16826      70446973 
 16826      636F6E6E 
 16826      65637400 
 16827              	.LASF366:
 16828 205f 4359424C 		.ascii	"CYBLE_EVT_CTSC_WRITE_CHAR_RESPONSE\000"
 16828      455F4556 
 16828      545F4354 
 16828      53435F57 
 16828      52495445 
 16829              	.LASF445:
 16830 2082 4359424C 		.ascii	"CYBLE_EVT_PASSS_WRITE_CHAR\000"
 16830      455F4556 
 16830      545F5041 
 16830      5353535F 
 16830      57524954 
 16831              	.LASF752:
 16832 209d 4379426C 		.ascii	"CyBle_GapGetBondedDevicesList\000"
 16832      655F4761 
 16832      70476574 
 16832      426F6E64 
 16832      65644465 
 16833              	.LASF343:
 16834 20bb 4359424C 		.ascii	"CYBLE_EVT_CPSC_WRITE_CHAR_RESPONSE\000"
ARM GAS  C:\Users\Helon\AppData\Local\Temp\ccKCxrf8.s 			page 385


 16834      455F4556 
 16834      545F4350 
 16834      53435F57 
 16834      52495445 
 16835              	.LASF726:
 16836 20de 4379426C 		.ascii	"CyBle_Start\000"
 16836      655F5374 
 16836      61727400 
 16837              	.LASF47:
 16838 20ea 4359424C 		.ascii	"CYBLE_EVT_GAP_CONNECTION_UPDATE_COMPLETE\000"
 16838      455F4556 
 16838      545F4741 
 16838      505F434F 
 16838      4E4E4543 
 16839              	.LASF328:
 16840 2113 4359424C 		.ascii	"CYBLE_EVT_CGMSC_READ_CHAR_RESPONSE\000"
 16840      455F4556 
 16840      545F4347 
 16840      4D53435F 
 16840      52454144 
 16841              	.LASF512:
 16842 2136 4359424C 		.ascii	"CYBLE_STATE_INITIALIZING\000"
 16842      455F5354 
 16842      4154455F 
 16842      494E4954 
 16842      49414C49 
 16843              	.LASF710:
 16844 214f 53746174 		.ascii	"Status_LED_Write\000"
 16844      75735F4C 
 16844      45445F57 
 16844      72697465 
 16844      00
 16845              	.LASF603:
 16846 2160 736C6565 		.ascii	"sleepMode\000"
 16846      704D6F64 
 16846      6500
 16847              	.LASF183:
 16848 216a 4359424C 		.ascii	"CYBLE_GAP_AUTH_ERROR_REPEATED_ATTEMPTS\000"
 16848      455F4741 
 16848      505F4155 
 16848      54485F45 
 16848      52524F52 
 16849              	.LASF79:
 16850 2191 4359424C 		.ascii	"CYBLE_EVT_L2CAP_CBFC_DISCONN_IND\000"
 16850      455F4556 
 16850      545F4C32 
 16850      4341505F 
 16850      43424643 
 16851              	.LASF745:
 16852 21b2 4379426C 		.ascii	"CyBle_GapUpdateAdvData\000"
 16852      655F4761 
 16852      70557064 
 16852      61746541 
 16852      64764461 
 16853              	.LASF352:
 16854 21c9 4359424C 		.ascii	"CYBLE_EVT_CSCSS_CHAR_WRITE\000"
 16854      455F4556 
ARM GAS  C:\Users\Helon\AppData\Local\Temp\ccKCxrf8.s 			page 386


 16854      545F4353 
 16854      4353535F 
 16854      43484152 
 16855              	.LASF584:
 16856 21e4 4359424C 		.ascii	"CYBLE_DEVICE_INFO\000"
 16856      455F4445 
 16856      56494345 
 16856      5F494E46 
 16856      4F00
 16857              	.LASF587:
 16858 21f6 6C6F6361 		.ascii	"location\000"
 16858      74696F6E 
 16858      00
 16859              	.LASF617:
 16860 21ff 626C6553 		.ascii	"bleSsPwrLvl\000"
 16860      73507772 
 16860      4C766C00 
 16861              	.LASF459:
 16862 220b 4359424C 		.ascii	"CYBLE_EVT_RSCSC_READ_CHAR_RESPONSE\000"
 16862      455F4556 
 16862      545F5253 
 16862      4353435F 
 16862      52454144 
 16863              	.LASF39:
 16864 222e 4359424C 		.ascii	"CYBLE_EVT_GAP_PASSKEY_ENTRY_REQUEST\000"
 16864      455F4556 
 16864      545F4741 
 16864      505F5041 
 16864      53534B45 
 16865              	.LASF672:
 16866 2252 74657374 		.ascii	"testCount\000"
 16866      436F756E 
 16866      7400
 16867              	.LASF141:
 16868 225c 4359424C 		.ascii	"CYBLE_BLESS_PWR_LVL_T\000"
 16868      455F424C 
 16868      4553535F 
 16868      5057525F 
 16868      4C564C5F 
 16869              	.LASF611:
 16870 2272 6E6F7469 		.ascii	"notificationPacket\000"
 16870      66696361 
 16870      74696F6E 
 16870      5061636B 
 16870      657400
 16871              	.LASF434:
 16872 2285 4359424C 		.ascii	"CYBLE_EVT_LNSS_NOTIFICATION_DISABLED\000"
 16872      455F4556 
 16872      545F4C4E 
 16872      53535F4E 
 16872      4F544946 
 16873              	.LASF337:
 16874 22aa 4359424C 		.ascii	"CYBLE_EVT_CPSS_BROADCAST_ENABLED\000"
 16874      455F4556 
 16874      545F4350 
 16874      53535F42 
 16874      524F4144 
ARM GAS  C:\Users\Helon\AppData\Local\Temp\ccKCxrf8.s 			page 387


 16875              	.LASF695:
 16876 22cb 4379426C 		.ascii	"CyBle_GattcExchangeMtuReq\000"
 16876      655F4761 
 16876      74746345 
 16876      78636861 
 16876      6E67654D 
 16877              	.LASF644:
 16878 22e5 75617274 		.ascii	"uartTxData\000"
 16878      54784461 
 16878      746100
 16879              	.LASF539:
 16880 22f0 6D756C74 		.ascii	"multiprocAddrMask\000"
 16880      6970726F 
 16880      63416464 
 16880      724D6173 
 16880      6B00
 16881              	.LASF10:
 16882 2302 5F5F7569 		.ascii	"__uint32_t\000"
 16882      6E743332 
 16882      5F7400
 16883              	.LASF704:
 16884 230d 4379426C 		.ascii	"CyBle_GappAuthReqReply\000"
 16884      655F4761 
 16884      70704175 
 16884      74685265 
 16884      71526570 
 16885              	.LASF180:
 16886 2324 4359424C 		.ascii	"CYBLE_GAP_AUTH_ERROR_INSUFFICIENT_ENCRYPTION_KEY_SI"
 16886      455F4741 
 16886      505F4155 
 16886      54485F45 
 16886      52524F52 
 16887 2357 5A4500   		.ascii	"ZE\000"
 16888              	.LASF637:
 16889 235a 61647644 		.ascii	"advDiscData\000"
 16889      69736344 
 16889      61746100 
 16890              	.LASF638:
 16891 2366 626F6E64 		.ascii	"bondedDevList\000"
 16891      65644465 
 16891      764C6973 
 16891      7400
 16892              	.LASF420:
 16893 2374 4359424C 		.ascii	"CYBLE_EVT_HTSC_NOTIFICATION\000"
 16893      455F4556 
 16893      545F4854 
 16893      53435F4E 
 16893      4F544946 
 16894              	.LASF12:
 16895 2390 6C6F6E67 		.ascii	"long long int\000"
 16895      206C6F6E 
 16895      6720696E 
 16895      7400
 16896              	.LASF737:
 16897 239e 4379426C 		.ascii	"CyBle_SetTxPowerLevel\000"
 16897      655F5365 
 16897      74547850 
ARM GAS  C:\Users\Helon\AppData\Local\Temp\ccKCxrf8.s 			page 388


 16897      6F776572 
 16897      4C657665 
 16898              	.LASF531:
 16899 23b4 656E6162 		.ascii	"enableWake\000"
 16899      6C655761 
 16899      6B6500
 16900              	.LASF119:
 16901 23bf 4359424C 		.ascii	"CYBLE_BLESS_DEEPSLEEP\000"
 16901      455F424C 
 16901      4553535F 
 16901      44454550 
 16901      534C4545 
 16902              	.LASF474:
 16903 23d5 4359424C 		.ascii	"CYBLE_EVT_TPSC_READ_CHAR_RESPONSE\000"
 16903      455F4556 
 16903      545F5450 
 16903      53435F52 
 16903      4541445F 
 16904              	.LASF270:
 16905 23f7 4359424C 		.ascii	"CYBLE_EVT_GATTC_CHAR_DUPLICATION\000"
 16905      455F4556 
 16905      545F4741 
 16905      5454435F 
 16905      43484152 
 16906              	.LASF385:
 16907 2418 4359424C 		.ascii	"CYBLE_EVT_GLSS_NOTIFICATION_ENABLED\000"
 16907      455F4556 
 16907      545F474C 
 16907      53535F4E 
 16907      4F544946 
 16908              	.LASF705:
 16909 243c 54696D65 		.ascii	"Timer_Stop\000"
 16909      725F5374 
 16909      6F7000
 16910              	.LASF212:
 16911 2447 61647650 		.ascii	"advParam\000"
 16911      6172616D 
 16911      00
 16912              	.LASF103:
 16913 2450 4359424C 		.ascii	"CYBLE_ERROR_L2CAP_PSM_NOT_REGISTERED\000"
 16913      455F4552 
 16913      524F525F 
 16913      4C324341 
 16913      505F5053 
 16914              	.LASF93:
 16915 2475 4359424C 		.ascii	"CYBLE_ERROR_OOB_NOT_AVAILABLE\000"
 16915      455F4552 
 16915      524F525F 
 16915      4F4F425F 
 16915      4E4F545F 
 16916              	.LASF320:
 16917 2493 4359424C 		.ascii	"CYBLE_EVT_CGMSS_INDICATION_ENABLED\000"
 16917      455F4556 
 16917      545F4347 
 16917      4D53535F 
 16917      494E4449 
 16918              	.LASF292:
ARM GAS  C:\Users\Helon\AppData\Local\Temp\ccKCxrf8.s 			page 389


 16919 24b6 4359424C 		.ascii	"CYBLE_EVT_ANSC_WRITE_DESCR_RESPONSE\000"
 16919      455F4556 
 16919      545F414E 
 16919      53435F57 
 16919      52495445 
 16920              	.LASF0:
 16921 24da 646F7562 		.ascii	"double\000"
 16921      6C6500
 16922              	.LASF108:
 16923 24e1 4359424C 		.ascii	"CYBLE_ERROR_DEVICE_ALREADY_EXISTS\000"
 16923      455F4552 
 16923      524F525F 
 16923      44455649 
 16923      43455F41 
 16924              	.LASF371:
 16925 2503 4359424C 		.ascii	"CYBLE_EVT_ESSS_INDICATION_DISABLED\000"
 16925      455F4556 
 16925      545F4553 
 16925      53535F49 
 16925      4E444943 
 16926              	.LASF85:
 16927 2526 4359424C 		.ascii	"CYBLE_EVT_PENDING_FLASH_WRITE\000"
 16927      455F4556 
 16927      545F5045 
 16927      4E44494E 
 16927      475F464C 
 16928              	.LASF273:
 16929 2544 4359424C 		.ascii	"CYBLE_EVT_GATTC_INCL_DISCOVERY_COMPLETE\000"
 16929      455F4556 
 16929      545F4741 
 16929      5454435F 
 16929      494E434C 
 16930              	.LASF140:
 16931 256c 4359424C 		.ascii	"CYBLE_LL_PWR_LVL_MAX\000"
 16931      455F4C4C 
 16931      5F505752 
 16931      5F4C564C 
 16931      5F4D4158 
 16932              	.LASF491:
 16933 2581 4359424C 		.ascii	"CYBLE_EVT_WPTSS_NOTIFICATION_ENABLED\000"
 16933      455F4556 
 16933      545F5750 
 16933      5453535F 
 16933      4E4F5449 
 16934              	.LASF566:
 16935 25a6 52535349 		.ascii	"RSSI\000"
 16935      00
 16936              	.LASF624:
 16937 25ab 4164764D 		.ascii	"AdvMin\000"
 16937      696E00
 16938              	.LASF441:
 16939 25b2 4359424C 		.ascii	"CYBLE_EVT_LNSC_WRITE_DESCR_RESPONSE\000"
 16939      455F4556 
 16939      545F4C4E 
 16939      53435F57 
 16939      52495445 
 16940              	.LASF200:
ARM GAS  C:\Users\Helon\AppData\Local\Temp\ccKCxrf8.s 			page 390


 16941 25d6 64697265 		.ascii	"directAddrType\000"
 16941      63744164 
 16941      64725479 
 16941      706500
 16942              	.LASF743:
 16943 25e5 57726974 		.ascii	"WriteUserSFlashRow\000"
 16943      65557365 
 16943      7253466C 
 16943      61736852 
 16943      6F7700
 16944              	.LASF428:
 16945 25f8 4359424C 		.ascii	"CYBLE_EVT_LLSC_READ_CHAR_RESPONSE\000"
 16945      455F4556 
 16945      545F4C4C 
 16945      53435F52 
 16945      4541445F 
 16946              	.LASF351:
 16947 261a 4359424C 		.ascii	"CYBLE_EVT_CSCSS_INDICATION_CONFIRMATION\000"
 16947      455F4556 
 16947      545F4353 
 16947      4353535F 
 16947      494E4449 
 16948              	.LASF105:
 16949 2642 4359424C 		.ascii	"CYBLE_ERROR_L2CAP_CHANNEL_NOT_FOUND\000"
 16949      455F4552 
 16949      524F525F 
 16949      4C324341 
 16949      505F4348 
 16950              	.LASF699:
 16951 2666 55415254 		.ascii	"UART_Stop\000"
 16951      5F53746F 
 16951      7000
 16952              	.LASF612:
 16953 2670 53656E64 		.ascii	"SendData_toSlave\000"
 16953      44617461 
 16953      5F746F53 
 16953      6C617665 
 16953      00
 16954              	.LASF96:
 16955 2681 4359424C 		.ascii	"CYBLE_ERROR_REPEATED_ATTEMPTS\000"
 16955      455F4552 
 16955      524F525F 
 16955      52455045 
 16955      41544544 
 16956              	.LASF375:
 16957 269f 4359424C 		.ascii	"CYBLE_EVT_ESSS_DESCR_WRITE\000"
 16957      455F4556 
 16957      545F4553 
 16957      53535F44 
 16957      45534352 
 16958              	.LASF370:
 16959 26ba 4359424C 		.ascii	"CYBLE_EVT_ESSS_INDICATION_ENABLED\000"
 16959      455F4556 
 16959      545F4553 
 16959      53535F49 
 16959      4E444943 
 16960              	.LASF356:
ARM GAS  C:\Users\Helon\AppData\Local\Temp\ccKCxrf8.s 			page 391


 16961 26dc 4359424C 		.ascii	"CYBLE_EVT_CSCSC_WRITE_CHAR_RESPONSE\000"
 16961      455F4556 
 16961      545F4353 
 16961      4353435F 
 16961      57524954 
 16962              	.LASF24:
 16963 2700 666C6F61 		.ascii	"float\000"
 16963      7400
 16964              	.LASF468:
 16965 2706 4359424C 		.ascii	"CYBLE_EVT_SCPSC_NOTIFICATION\000"
 16965      455F4556 
 16965      545F5343 
 16965      5053435F 
 16965      4E4F5449 
 16966              	.LASF397:
 16967 2723 4359424C 		.ascii	"CYBLE_EVT_HIDSS_REPORT_MODE_ENTER\000"
 16967      455F4556 
 16967      545F4849 
 16967      4453535F 
 16967      5245504F 
 16968              	.LASF376:
 16969 2745 4359424C 		.ascii	"CYBLE_EVT_ESSC_NOTIFICATION\000"
 16969      455F4556 
 16969      545F4553 
 16969      53435F4E 
 16969      4F544946 
 16970              	.LASF109:
 16971 2761 4359424C 		.ascii	"CYBLE_ERROR_FLASH_WRITE_NOT_PERMITED\000"
 16971      455F4552 
 16971      524F525F 
 16971      464C4153 
 16971      485F5752 
 16972              	.LASF395:
 16973 2786 4359424C 		.ascii	"CYBLE_EVT_HIDSS_NOTIFICATION_DISABLED\000"
 16973      455F4556 
 16973      545F4849 
 16973      4453535F 
 16973      4E4F5449 
 16974              	.LASF193:
 16975 27ac 636F756E 		.ascii	"count\000"
 16975      7400
 16976              	.LASF73:
 16977 27b2 4359424C 		.ascii	"CYBLE_EVT_GATTS_READ_CHAR_VAL_ACCESS_REQ\000"
 16977      455F4556 
 16977      545F4741 
 16977      5454535F 
 16977      52454144 
 16978              	.LASF282:
 16979 27db 4359424C 		.ascii	"CYBLE_EVT_ANCSC_READ_DESCR_RESPONSE\000"
 16979      455F4556 
 16979      545F414E 
 16979      4353435F 
 16979      52454144 
 16980              	.LASF609:
 16981 27ff 53797374 		.ascii	"SystemInitialization\000"
 16981      656D496E 
 16981      69746961 
ARM GAS  C:\Users\Helon\AppData\Local\Temp\ccKCxrf8.s 			page 392


 16981      6C697A61 
 16981      74696F6E 
 16982              	.LASF652:
 16983 2814 6379426C 		.ascii	"cyBle_state\000"
 16983      655F7374 
 16983      61746500 
 16984              	.LASF237:
 16985 2820 61747472 		.ascii	"attrHandle\000"
 16985      48616E64 
 16985      6C6500
 16986              	.LASF485:
 16987 282b 4359424C 		.ascii	"CYBLE_EVT_UDSC_NOTIFICATION\000"
 16987      455F4556 
 16987      545F5544 
 16987      53435F4E 
 16987      4F544946 
 16988              	.LASF499:
 16989 2847 4359424C 		.ascii	"CYBLE_EVT_WPTSC_WRITE_CHAR_RESPONSE\000"
 16989      455F4556 
 16989      545F5750 
 16989      5453435F 
 16989      57524954 
 16990              	.LASF189:
 16991 286b 626F6E64 		.ascii	"bonding\000"
 16991      696E6700 
 16992              	.LASF245:
 16993 2873 4359424C 		.ascii	"CYBLE_GATTS_WRITE_REQ_PARAM_T\000"
 16993      455F4741 
 16993      5454535F 
 16993      57524954 
 16993      455F5245 
 16994              	.LASF14:
 16995 2891 756E7369 		.ascii	"unsigned int\000"
 16995      676E6564 
 16995      20696E74 
 16995      00
 16996              	.LASF65:
 16997 289e 4359424C 		.ascii	"CYBLE_EVT_GATTS_PREP_WRITE_REQ\000"
 16997      455F4556 
 16997      545F4741 
 16997      5454535F 
 16997      50524550 
 16998              	.LASF749:
 16999 28bd 4379426C 		.ascii	"CyBle_GetRssi\000"
 16999      655F4765 
 16999      74527373 
 16999      6900
 17000              	.LASF360:
 17001 28cb 4359424C 		.ascii	"CYBLE_EVT_CTSS_NOTIFICATION_DISABLED\000"
 17001      455F4556 
 17001      545F4354 
 17001      53535F4E 
 17001      4F544946 
 17002              	.LASF486:
 17003 28f0 4359424C 		.ascii	"CYBLE_EVT_UDSC_READ_CHAR_RESPONSE\000"
 17003      455F4556 
 17003      545F5544 
ARM GAS  C:\Users\Helon\AppData\Local\Temp\ccKCxrf8.s 			page 393


 17003      53435F52 
 17003      4541445F 
 17004              	.LASF307:
 17005 2912 4359424C 		.ascii	"CYBLE_EVT_BLSS_INDICATION_DISABLED\000"
 17005      455F4556 
 17005      545F424C 
 17005      53535F49 
 17005      4E444943 
 17006              	.LASF600:
 17007 2935 77726974 		.ascii	"writeParam\000"
 17007      65506172 
 17007      616D00
 17008              	.LASF143:
 17009 2940 4359424C 		.ascii	"CYBLE_LL_CONN_CH_TYPE\000"
 17009      455F4C4C 
 17009      5F434F4E 
 17009      4E5F4348 
 17009      5F545950 
 17010              	.LASF466:
 17011 2956 4359424C 		.ascii	"CYBLE_EVT_SCPSS_NOTIFICATION_DISABLED\000"
 17011      455F4556 
 17011      545F5343 
 17011      5053535F 
 17011      4E4F5449 
 17012              	.LASF676:
 17013 297c 41555448 		.ascii	"AUTHFLAG\000"
 17013      464C4147 
 17013      00
 17014              	.LASF542:
 17015 2985 72785472 		.ascii	"rxTriggerLevel\000"
 17015      69676765 
 17015      724C6576 
 17015      656C00
 17016              	.LASF372:
 17017 2994 4359424C 		.ascii	"CYBLE_EVT_ESSS_INDICATION_CONFIRMATION\000"
 17017      455F4556 
 17017      545F4553 
 17017      53535F49 
 17017      4E444943 
 17018              	.LASF258:
 17019 29bb 4359424C 		.ascii	"CYBLE_AUTHENTICATION_REQUEST_REPLY\000"
 17019      455F4155 
 17019      5448454E 
 17019      54494341 
 17019      54494F4E 
 17020              	.LASF706:
 17021 29de 54696D65 		.ascii	"Timer_ClearInterrupt\000"
 17021      725F436C 
 17021      65617249 
 17021      6E746572 
 17021      72757074 
 17022              	.LASF101:
 17023 29f3 4359424C 		.ascii	"CYBLE_ERROR_L2CAP_PSM_WRONG_ENCODING\000"
 17023      455F4552 
 17023      524F525F 
 17023      4C324341 
 17023      505F5053 
ARM GAS  C:\Users\Helon\AppData\Local\Temp\ccKCxrf8.s 			page 394


 17024              	.LASF446:
 17025 2a18 4359424C 		.ascii	"CYBLE_EVT_PASSC_NOTIFICATION\000"
 17025      455F4556 
 17025      545F5041 
 17025      5353435F 
 17025      4E4F5449 
 17026              	.LASF762:
 17027 2a35 474E5520 		.ascii	"GNU C 4.9.3 20150303 (release) [ARM/embedded-4_9-br"
 17027      4320342E 
 17027      392E3320 
 17027      32303135 
 17027      30333033 
 17028 2a68 616E6368 		.ascii	"anch revision 221220] -mcpu=cortex-m0 -mthumb -g -O"
 17028      20726576 
 17028      6973696F 
 17028      6E203232 
 17028      31323230 
 17029 2a9b 73202D66 		.ascii	"s -ffunction-sections -ffat-lto-objects\000"
 17029      66756E63 
 17029      74696F6E 
 17029      2D736563 
 17029      74696F6E 
 17030              	.LASF310:
 17031 2ac3 4359424C 		.ascii	"CYBLE_EVT_BLSS_NOTIFICATION_DISABLED\000"
 17031      455F4556 
 17031      545F424C 
 17031      53535F4E 
 17031      4F544946 
 17032              	.LASF555:
 17033 2ae8 4C414444 		.ascii	"LADDR\000"
 17033      5200
 17034              	.LASF423:
 17035 2aee 4359424C 		.ascii	"CYBLE_EVT_HTSC_WRITE_CHAR_RESPONSE\000"
 17035      455F4556 
 17035      545F4854 
 17035      53435F57 
 17035      52495445 
 17036              	.LASF251:
 17037 2b11 6C697374 		.ascii	"list\000"
 17037      00
 17038              	.LASF87:
 17039 2b16 4359424C 		.ascii	"CYBLE_EVT_MAX\000"
 17039      455F4556 
 17039      545F4D41 
 17039      5800
 17040              	.LASF48:
 17041 2b24 4359424C 		.ascii	"CYBLE_EVT_GAPC_SCAN_START_STOP\000"
 17041      455F4556 
 17041      545F4741 
 17041      50435F53 
 17041      43414E5F 
 17042              	.LASF560:
 17043 2b43 434F4E4E 		.ascii	"CONNI\000"
 17043      4900
 17044              	.LASF285:
 17045 2b49 4359424C 		.ascii	"CYBLE_EVT_ANSS_NOTIFICATION_ENABLED\000"
 17045      455F4556 
ARM GAS  C:\Users\Helon\AppData\Local\Temp\ccKCxrf8.s 			page 395


 17045      545F414E 
 17045      53535F4E 
 17045      4F544946 
 17046              	.LASF161:
 17047 2b6d 4359424C 		.ascii	"CYBLE_GAPP_ADV_T\000"
 17047      455F4741 
 17047      50505F41 
 17047      44565F54 
 17047      00
 17048              	.LASF187:
 17049 2b7e 4359424C 		.ascii	"CYBLE_GAP_AUTH_FAILED_REASON_T\000"
 17049      455F4741 
 17049      505F4155 
 17049      54485F46 
 17049      41494C45 
 17050              	.LASF62:
 17051 2b9d 4359424C 		.ascii	"CYBLE_EVT_GATTS_WRITE_REQ\000"
 17051      455F4556 
 17051      545F4741 
 17051      5454535F 
 17051      57524954 
 17052              	.LASF674:
 17053 2bb7 436F6E6E 		.ascii	"ConnParam\000"
 17053      50617261 
 17053      6D00
 17054              	.LASF205:
 17055 2bc1 61647644 		.ascii	"advData\000"
 17055      61746100 
 17056              	.LASF588:
 17057 2bc9 53747269 		.ascii	"String\000"
 17057      6E6700
 17058              	.LASF71:
 17059 2bd0 4359424C 		.ascii	"CYBLE_EVT_GATTS_DATA_SIGNED_CMD_REQ\000"
 17059      455F4556 
 17059      545F4741 
 17059      5454535F 
 17059      44415441 
 17060              	.LASF534:
 17061 2bf4 74784275 		.ascii	"txBufferSize\000"
 17061      66666572 
 17061      53697A65 
 17061      00
 17062              	.LASF487:
 17063 2c01 4359424C 		.ascii	"CYBLE_EVT_UDSC_WRITE_CHAR_RESPONSE\000"
 17063      455F4556 
 17063      545F5544 
 17063      53435F57 
 17063      52495445 
 17064              	.LASF646:
 17065 2c24 75617274 		.ascii	"uartIdleCount\000"
 17065      49646C65 
 17065      436F756E 
 17065      7400
 17066              	.LASF498:
 17067 2c32 4359424C 		.ascii	"CYBLE_EVT_WPTSC_INDICATION\000"
 17067      455F4556 
 17067      545F5750 
ARM GAS  C:\Users\Helon\AppData\Local\Temp\ccKCxrf8.s 			page 396


 17067      5453435F 
 17067      494E4449 
 17068              	.LASF579:
 17069 2c4d 44657669 		.ascii	"DeviceAddr\000"
 17069      63654164 
 17069      647200
 17070              	.LASF40:
 17071 2c58 4359424C 		.ascii	"CYBLE_EVT_GAP_PASSKEY_DISPLAY_REQUEST\000"
 17071      455F4556 
 17071      545F4741 
 17071      505F5041 
 17071      53534B45 
 17072              	.LASF113:
 17073 2c7e 4359424C 		.ascii	"CYBLE_ERROR_IND_DISABLED\000"
 17073      455F4552 
 17073      524F525F 
 17073      494E445F 
 17073      44495341 
 17074              	.LASF112:
 17075 2c97 4359424C 		.ascii	"CYBLE_ERROR_NTF_DISABLED\000"
 17075      455F4552 
 17075      524F525F 
 17075      4E54465F 
 17075      44495341 
 17076              	.LASF751:
 17077 2cb0 4379426C 		.ascii	"CyBle_GapAuthReq\000"
 17077      655F4761 
 17077      70417574 
 17077      68526571 
 17077      00
 17078              	.LASF590:
 17079 2cc1 436F6E6E 		.ascii	"Connect_Device\000"
 17079      6563745F 
 17079      44657669 
 17079      636500
 17080              	.LASF666:
 17081 2cd0 54726F75 		.ascii	"TroughtTest_Flag\000"
 17081      67687454 
 17081      6573745F 
 17081      466C6167 
 17081      00
 17082              	.LASF59:
 17083 2ce1 4359424C 		.ascii	"CYBLE_EVT_GATTC_READ_RSP\000"
 17083      455F4556 
 17083      545F4741 
 17083      5454435F 
 17083      52454144 
 17084              	.LASF157:
 17085 2cfa 4359424C 		.ascii	"CYBLE_GAPP_CONNECTABLE_HIGH_DC_DIRECTED_ADV\000"
 17085      455F4741 
 17085      50505F43 
 17085      4F4E4E45 
 17085      43544142 
 17086              	.LASF367:
 17087 2d26 4359424C 		.ascii	"CYBLE_EVT_DISC_READ_CHAR_RESPONSE\000"
 17087      455F4556 
 17087      545F4449 
ARM GAS  C:\Users\Helon\AppData\Local\Temp\ccKCxrf8.s 			page 397


 17087      53435F52 
 17087      4541445F 
 17088              	.LASF78:
 17089 2d48 4359424C 		.ascii	"CYBLE_EVT_L2CAP_CBFC_CONN_CNF\000"
 17089      455F4556 
 17089      545F4C32 
 17089      4341505F 
 17089      43424643 
 17090              	.LASF318:
 17091 2d66 4359424C 		.ascii	"CYBLE_EVT_BMSC_WRITE_CHAR_RESPONSE\000"
 17091      455F4556 
 17091      545F424D 
 17091      53435F57 
 17091      52495445 
 17092              	.LASF424:
 17093 2d89 4359424C 		.ascii	"CYBLE_EVT_HTSC_READ_DESCR_RESPONSE\000"
 17093      455F4556 
 17093      545F4854 
 17093      53435F52 
 17093      4541445F 
 17094              	.LASF510:
 17095 2dac 4359424C 		.ascii	"CYBLE_DEBUG_EVT_BLESS_INT\000"
 17095      455F4445 
 17095      4255475F 
 17095      4556545F 
 17095      424C4553 
 17096              	.LASF387:
 17097 2dc6 4359424C 		.ascii	"CYBLE_EVT_GLSS_WRITE_CHAR\000"
 17097      455F4556 
 17097      545F474C 
 17097      53535F57 
 17097      52495445 
 17098              	.LASF494:
 17099 2de0 4359424C 		.ascii	"CYBLE_EVT_WPTSS_INDICATION_DISABLED\000"
 17099      455F4556 
 17099      545F5750 
 17099      5453535F 
 17099      494E4449 
 17100              	.LASF213:
 17101 2e04 61647654 		.ascii	"advTo\000"
 17101      6F00
 17102              	.LASF730:
 17103 2e0a 7374726E 		.ascii	"strncmp\000"
 17103      636D7000 
 17104              	.LASF323:
 17105 2e12 4359424C 		.ascii	"CYBLE_EVT_CGMSS_NOTIFICATION_ENABLED\000"
 17105      455F4556 
 17105      545F4347 
 17105      4D53535F 
 17105      4E4F5449 
 17106              	.LASF134:
 17107 2e37 4359424C 		.ascii	"CYBLE_LL_PWR_LVL_NEG_6_DBM\000"
 17107      455F4C4C 
 17107      5F505752 
 17107      5F4C564C 
 17107      5F4E4547 
 17108              	.LASF256:
ARM GAS  C:\Users\Helon\AppData\Local\Temp\ccKCxrf8.s 			page 398


 17109 2e52 4359424C 		.ascii	"CYBLE_GATTC_FIND_INFO_RSP_PARAM_T\000"
 17109      455F4741 
 17109      5454435F 
 17109      46494E44 
 17109      5F494E46 
 17110              	.LASF409:
 17111 2e74 4359424C 		.ascii	"CYBLE_EVT_HRSC_NOTIFICATION\000"
 17111      455F4556 
 17111      545F4852 
 17111      53435F4E 
 17111      4F544946 
 17112              	.LASF455:
 17113 2e90 4359424C 		.ascii	"CYBLE_EVT_RSCSS_INDICATION_CONFIRMATION\000"
 17113      455F4556 
 17113      545F5253 
 17113      4353535F 
 17113      494E4449 
 17114              	.LASF632:
 17115 2eb8 41647650 		.ascii	"AdvParam\000"
 17115      6172616D 
 17115      00
 17116              	.LASF404:
 17117 2ec1 4359424C 		.ascii	"CYBLE_EVT_HIDSC_READ_DESCR_RESPONSE\000"
 17117      455F4556 
 17117      545F4849 
 17117      4453435F 
 17117      52454144 
 17118              	.LASF410:
 17119 2ee5 4359424C 		.ascii	"CYBLE_EVT_HRSC_READ_CHAR_RESPONSE\000"
 17119      455F4556 
 17119      545F4852 
 17119      53435F52 
 17119      4541445F 
 17120              	.LASF295:
 17121 2f07 4359424C 		.ascii	"CYBLE_EVT_BASC_NOTIFICATION\000"
 17121      455F4556 
 17121      545F4241 
 17121      53435F4E 
 17121      4F544946 
 17122              	.LASF174:
 17123 2f23 4359424C 		.ascii	"CYBLE_GAP_AUTH_ERROR_NONE\000"
 17123      455F4741 
 17123      505F4155 
 17123      54485F45 
 17123      52524F52 
 17124              	.LASF46:
 17125 2f3d 4359424C 		.ascii	"CYBLE_EVT_GAP_ENCRYPT_CHANGE\000"
 17125      455F4556 
 17125      545F4741 
 17125      505F454E 
 17125      43525950 
 17126              	.LASF479:
 17127 2f5a 4359424C 		.ascii	"CYBLE_EVT_UDSS_INDICATION_CONFIRMED\000"
 17127      455F4556 
 17127      545F5544 
 17127      53535F49 
 17127      4E444943 
ARM GAS  C:\Users\Helon\AppData\Local\Temp\ccKCxrf8.s 			page 399


 17128              	.LASF647:
 17129 2f7e 75617274 		.ascii	"uartTxDataNtf\000"
 17129      54784461 
 17129      74614E74 
 17129      6600
 17130              	.LASF573:
 17131 2f8c 494F4341 		.ascii	"IOCAP\000"
 17131      5000
 17132              	.LASF442:
 17133 2f92 4359424C 		.ascii	"CYBLE_EVT_NDCSC_READ_CHAR_RESPONSE\000"
 17133      455F4556 
 17133      545F4E44 
 17133      4353435F 
 17133      52454144 
 17134              	.LASF721:
 17135 2fb5 4354535F 		.ascii	"CTS_SetDriveMode\000"
 17135      53657444 
 17135      72697665 
 17135      4D6F6465 
 17135      00
 17136              	.LASF271:
 17137 2fc6 4359424C 		.ascii	"CYBLE_EVT_GATTC_DESCR_DUPLICATION\000"
 17137      455F4556 
 17137      545F4741 
 17137      5454435F 
 17137      44455343 
 17138              	.LASF766:
 17139 2fe8 5F5F6275 		.ascii	"__builtin_puts\000"
 17139      696C7469 
 17139      6E5F7075 
 17139      747300
 17140              	.LASF756:
 17141 2ff7 55415254 		.ascii	"UART_UartGetByte\000"
 17141      5F556172 
 17141      74476574 
 17141      42797465 
 17141      00
 17142              	.LASF53:
 17143 3008 4359424C 		.ascii	"CYBLE_EVT_GATTS_XCNHG_MTU_REQ\000"
 17143      455F4556 
 17143      545F4741 
 17143      5454535F 
 17143      58434E48 
 17144              	.LASF480:
 17145 3026 4359424C 		.ascii	"CYBLE_EVT_UDSS_NOTIFICATION_ENABLED\000"
 17145      455F4556 
 17145      545F5544 
 17145      53535F4E 
 17145      4F544946 
 17146              	.LASF658:
 17147 304a 4C6F7750 		.ascii	"LowPower_EN\000"
 17147      6F776572 
 17147      5F454E00 
 17148              	.LASF176:
 17149 3056 4359424C 		.ascii	"CYBLE_GAP_AUTH_ERROR_OOB_DATA_NOT_AVAILABLE\000"
 17149      455F4741 
 17149      505F4155 
ARM GAS  C:\Users\Helon\AppData\Local\Temp\ccKCxrf8.s 			page 400


 17149      54485F45 
 17149      52524F52 
 17150              	.LASF537:
 17151 3082 6D756C74 		.ascii	"multiprocAcceptAddr\000"
 17151      6970726F 
 17151      63416363 
 17151      65707441 
 17151      64647200 
 17152              	.LASF28:
 17153 3096 63796973 		.ascii	"cyisraddress\000"
 17153      72616464 
 17153      72657373 
 17153      00
 17154              	.LASF432:
 17155 30a3 4359424C 		.ascii	"CYBLE_EVT_LNSS_INDICATION_CONFIRMED\000"
 17155      455F4556 
 17155      545F4C4E 
 17155      53535F49 
 17155      4E444943 
 17156              	.LASF620:
 17157 30c7 70625372 		.ascii	"pbSrc\000"
 17157      6300
 17158              	.LASF504:
 17159 30cd 4359424C 		.ascii	"CYBLE_EVT_WSSS_INDICATION_DISABLED\000"
 17159      455F4556 
 17159      545F5753 
 17159      53535F49 
 17159      4E444943 
 17160              	.LASF248:
 17161 30f0 4359424C 		.ascii	"CYBLE_GATTC_WRITE_CMD_REQ_T\000"
 17161      455F4741 
 17161      5454435F 
 17161      57524954 
 17161      455F434D 
 17162              	.LASF438:
 17163 310c 4359424C 		.ascii	"CYBLE_EVT_LNSC_READ_CHAR_RESPONSE\000"
 17163      455F4556 
 17163      545F4C4E 
 17163      53435F52 
 17163      4541445F 
 17164              	.LASF3:
 17165 312e 5F5F696E 		.ascii	"__int8_t\000"
 17165      74385F74 
 17165      00
 17166              	.LASF117:
 17167 3137 4359424C 		.ascii	"CYBLE_BLESS_ACTIVE\000"
 17167      455F424C 
 17167      4553535F 
 17167      41435449 
 17167      564500
 17168              	.LASF229:
 17169 314a 4359424C 		.ascii	"CYBLE_GAP_CONN_PARAM_UPDATED_IN_CONTROLLER_T\000"
 17169      455F4741 
 17169      505F434F 
 17169      4E4E5F50 
 17169      4152414D 
 17170              	.LASF518:
ARM GAS  C:\Users\Helon\AppData\Local\Temp\ccKCxrf8.s 			page 401


 17171 3177 4359424C 		.ascii	"CYBLE_STATE_T\000"
 17171      455F5354 
 17171      4154455F 
 17171      5400
 17172              	.LASF616:
 17173 3185 5478506F 		.ascii	"TxPower_Handler\000"
 17173      7765725F 
 17173      48616E64 
 17173      6C657200 
 17174              	.LASF655:
 17175 3195 44657669 		.ascii	"DeviceCount\000"
 17175      6365436F 
 17175      756E7400 
 17176              	.LASF262:
 17177 31a1 4359424C 		.ascii	"CYBLE_EVT_GATTS_INDICATION_ENABLED\000"
 17177      455F4556 
 17177      545F4741 
 17177      5454535F 
 17177      494E4449 
 17178              	.LASF13:
 17179 31c4 6C6F6E67 		.ascii	"long long unsigned int\000"
 17179      206C6F6E 
 17179      6720756E 
 17179      7369676E 
 17179      65642069 
 17180              	.LASF696:
 17181 31db 4379426C 		.ascii	"CyBle_GapcStartScan\000"
 17181      655F4761 
 17181      70635374 
 17181      61727453 
 17181      63616E00 
 17182              	.LASF33:
 17183 31ef 4359424C 		.ascii	"CYBLE_EVT_TIMEOUT\000"
 17183      455F4556 
 17183      545F5449 
 17183      4D454F55 
 17183      5400
 17184              	.LASF364:
 17185 3201 4359424C 		.ascii	"CYBLE_EVT_CTSC_READ_DESCR_RESPONSE\000"
 17185      455F4556 
 17185      545F4354 
 17185      53435F52 
 17185      4541445F 
 17186              	.LASF686:
 17187 3224 53544F50 		.ascii	"STOP_SCAN_FLAG\000"
 17187      5F534341 
 17187      4E5F464C 
 17187      414700
 17188              	.LASF18:
 17189 3233 75696E74 		.ascii	"uint16_t\000"
 17189      31365F74 
 17189      00
 17190              	.LASF27:
 17191 323c 72656733 		.ascii	"reg32\000"
 17191      3200
 17192              	.LASF569:
 17193 3242 4E4F5449 		.ascii	"NOTIFY\000"
ARM GAS  C:\Users\Helon\AppData\Local\Temp\ccKCxrf8.s 			page 402


 17193      465900
 17194              	.LASF254:
 17195 3249 68616E64 		.ascii	"handleValueList\000"
 17195      6C655661 
 17195      6C75654C 
 17195      69737400 
 17196              	.LASF700:
 17197 3259 55415254 		.ascii	"UART_SpiUartClearTxBuffer\000"
 17197      5F537069 
 17197      55617274 
 17197      436C6561 
 17197      72547842 
 17198              	.LASF529:
 17199 3273 64726F70 		.ascii	"dropOnParityErr\000"
 17199      4F6E5061 
 17199      72697479 
 17199      45727200 
 17200              	.LASF115:
 17201 3283 4359424C 		.ascii	"CYBLE_ERROR_INVALID_STATE\000"
 17201      455F4552 
 17201      524F525F 
 17201      494E5641 
 17201      4C49445F 
 17202              	.LASF230:
 17203 329d 4359424C 		.ascii	"CYBLE_GATT_DB_ATTR_HANDLE_T\000"
 17203      455F4741 
 17203      54545F44 
 17203      425F4154 
 17203      54525F48 
 17204              	.LASF525:
 17205 32b9 656E6162 		.ascii	"enableIrdaLowPower\000"
 17205      6C654972 
 17205      64614C6F 
 17205      77506F77 
 17205      657200
 17206              	.LASF81:
 17207 32cc 4359424C 		.ascii	"CYBLE_EVT_L2CAP_CBFC_DATA_READ\000"
 17207      455F4556 
 17207      545F4C32 
 17207      4341505F 
 17207      43424643 
 17208              	.LASF304:
 17209 32eb 4359424C 		.ascii	"CYBLE_EVT_BCSC_READ_DESCR_RESPONSE\000"
 17209      455F4556 
 17209      545F4243 
 17209      53435F52 
 17209      4541445F 
 17210              	.LASF236:
 17211 330e 76616C75 		.ascii	"value\000"
 17211      6500
 17212              	.LASF340:
 17213 3314 4359424C 		.ascii	"CYBLE_EVT_CPSC_NOTIFICATION\000"
 17213      455F4556 
 17213      545F4350 
 17213      53435F4E 
 17213      4F544946 
 17214              	.LASF315:
ARM GAS  C:\Users\Helon\AppData\Local\Temp\ccKCxrf8.s 			page 403


 17215 3330 4359424C 		.ascii	"CYBLE_EVT_BLSC_WRITE_DESCR_RESPONSE\000"
 17215      455F4556 
 17215      545F424C 
 17215      53435F57 
 17215      52495445 
 17216              	.LASF664:
 17217 3354 436F6E6E 		.ascii	"Conn_or_Disconn_Idx\000"
 17217      5F6F725F 
 17217      44697363 
 17217      6F6E6E5F 
 17217      49647800 
 17218              	.LASF707:
 17219 3368 4379426C 		.ascii	"CyBle_EnterLPM\000"
 17219      655F456E 
 17219      7465724C 
 17219      504D00
 17220              	.LASF671:
 17221 3377 436F6D6D 		.ascii	"CommandMode\000"
 17221      616E644D 
 17221      6F646500 
 17222              	.LASF437:
 17223 3383 4359424C 		.ascii	"CYBLE_EVT_LNSC_NOTIFICATION\000"
 17223      455F4556 
 17223      545F4C4E 
 17223      53435F4E 
 17223      4F544946 
 17224              	.LASF645:
 17225 339f 75617274 		.ascii	"uartTxDataLength\000"
 17225      54784461 
 17225      74614C65 
 17225      6E677468 
 17225      00
 17226              	.LASF594:
 17227 33b0 44495649 		.ascii	"DIVIDER_CLOCK\000"
 17227      4445525F 
 17227      434C4F43 
 17227      4B00
 17228              	.LASF362:
 17229 33be 4359424C 		.ascii	"CYBLE_EVT_CTSC_NOTIFICATION\000"
 17229      455F4556 
 17229      545F4354 
 17229      53435F4E 
 17229      4F544946 
 17230              	.LASF685:
 17231 33da 53747269 		.ascii	"StringArry\000"
 17231      6E674172 
 17231      727900
 17232              	.LASF703:
 17233 33e5 55415254 		.ascii	"UART_SpiUartWriteTxData\000"
 17233      5F537069 
 17233      55617274 
 17233      57726974 
 17233      65547844 
 17234              	.LASF383:
 17235 33fd 4359424C 		.ascii	"CYBLE_EVT_GLSS_INDICATION_DISABLED\000"
 17235      455F4556 
 17235      545F474C 
ARM GAS  C:\Users\Helon\AppData\Local\Temp\ccKCxrf8.s 			page 404


 17235      53535F49 
 17235      4E444943 
 17236              	.LASF153:
 17237 3420 4359424C 		.ascii	"CYBLE_GAP_SCAN_TO\000"
 17237      455F4741 
 17237      505F5343 
 17237      414E5F54 
 17237      4F00
 17238              	.LASF163:
 17239 3432 4359424C 		.ascii	"CYBLE_GAPC_CONN_DIRECTED_ADV\000"
 17239      455F4741 
 17239      50435F43 
 17239      4F4E4E5F 
 17239      44495245 
 17240              	.LASF269:
 17241 344f 4359424C 		.ascii	"CYBLE_EVT_GATTC_SRVC_DUPLICATION\000"
 17241      455F4556 
 17241      545F4741 
 17241      5454435F 
 17241      53525643 
 17242              	.LASF747:
 17243 3470 5363616E 		.ascii	"ScanDeviceInfoInit\000"
 17243      44657669 
 17243      6365496E 
 17243      666F496E 
 17243      697400
 17244              	.LASF430:
 17245 3483 4359424C 		.ascii	"CYBLE_EVT_LNSS_INDICATION_ENABLED\000"
 17245      455F4556 
 17245      545F4C4E 
 17245      53535F49 
 17245      4E444943 
 17246              	.LASF151:
 17247 34a5 4359424C 		.ascii	"CYBLE_GAP_BD_ADDR_T\000"
 17247      455F4741 
 17247      505F4244 
 17247      5F414444 
 17247      525F5400 
 17248              	.LASF411:
 17249 34b9 4359424C 		.ascii	"CYBLE_EVT_HRSC_WRITE_CHAR_RESPONSE\000"
 17249      455F4556 
 17249      545F4852 
 17249      53435F57 
 17249      52495445 
 17250              	.LASF599:
 17251 34dc 68616E64 		.ascii	"handleValueNotification\000"
 17251      6C655661 
 17251      6C75654E 
 17251      6F746966 
 17251      69636174 
 17252              	.LASF659:
 17253 34f4 52585F42 		.ascii	"RX_BUFFER\000"
 17253      55464645 
 17253      5200
 17254              	.LASF694:
 17255 34fe 4379426C 		.ascii	"CyBle_GapcConnectionParamUpdateRequest\000"
 17255      655F4761 
ARM GAS  C:\Users\Helon\AppData\Local\Temp\ccKCxrf8.s 			page 405


 17255      7063436F 
 17255      6E6E6563 
 17255      74696F6E 
 17256              	.LASF738:
 17257 3525 6D656D73 		.ascii	"memset\000"
 17257      657400
 17258              	.LASF152:
 17259 352c 4359424C 		.ascii	"CYBLE_GAP_ADV_MODE_TO\000"
 17259      455F4741 
 17259      505F4144 
 17259      565F4D4F 
 17259      44455F54 
 17260              	.LASF443:
 17261 3542 4359424C 		.ascii	"CYBLE_EVT_PASSS_NOTIFICATION_ENABLED\000"
 17261      455F4556 
 17261      545F5041 
 17261      5353535F 
 17261      4E4F5449 
 17262              	.LASF244:
 17263 3567 68616E64 		.ascii	"handleValPair\000"
 17263      6C655661 
 17263      6C506169 
 17263      7200
 17264              	.LASF277:
 17265 3575 4359424C 		.ascii	"CYBLE_EVT_ANCSS_NOTIFICATION_DISABLED\000"
 17265      455F4556 
 17265      545F414E 
 17265      4353535F 
 17265      4E4F5449 
 17266              	.LASF597:
 17267 359b 5363616E 		.ascii	"Scan_Result\000"
 17267      5F526573 
 17267      756C7400 
 17268              	.LASF243:
 17269 35a7 636F6E6E 		.ascii	"connHandle\000"
 17269      48616E64 
 17269      6C6500
 17270              	.LASF6:
 17271 35b2 5F5F696E 		.ascii	"__int16_t\000"
 17271      7431365F 
 17271      7400
 17272              	.LASF551:
 17273 35bc 52455345 		.ascii	"RESET\000"
 17273      5400
 17274              	.LASF294:
 17275 35c2 4359424C 		.ascii	"CYBLE_EVT_BASS_NOTIFICATION_DISABLED\000"
 17275      455F4556 
 17275      545F4241 
 17275      53535F4E 
 17275      4F544946 
 17276              	.LASF206:
 17277 35e7 61647644 		.ascii	"advDataLen\000"
 17277      6174614C 
 17277      656E00
 17278              	.LASF405:
 17279 35f2 4359424C 		.ascii	"CYBLE_EVT_HIDSC_WRITE_DESCR_RESPONSE\000"
 17279      455F4556 
ARM GAS  C:\Users\Helon\AppData\Local\Temp\ccKCxrf8.s 			page 406


 17279      545F4849 
 17279      4453435F 
 17279      57524954 
 17280              	.LASF332:
 17281 3617 4359424C 		.ascii	"CYBLE_EVT_CPSS_NOTIFICATION_ENABLED\000"
 17281      455F4556 
 17281      545F4350 
 17281      53535F4E 
 17281      4F544946 
 17282              	.LASF179:
 17283 363b 4359424C 		.ascii	"CYBLE_GAP_AUTH_ERROR_PAIRING_NOT_SUPPORTED\000"
 17283      455F4741 
 17283      505F4155 
 17283      54485F45 
 17283      52524F52 
 17284              	.LASF540:
 17285 3666 656E6162 		.ascii	"enableInterrupt\000"
 17285      6C65496E 
 17285      74657272 
 17285      75707400 
 17286              	.LASF475:
 17287 3676 4359424C 		.ascii	"CYBLE_EVT_TPSC_READ_DESCR_RESPONSE\000"
 17287      455F4556 
 17287      545F5450 
 17287      53435F52 
 17287      4541445F 
 17288              	.LASF155:
 17289 3699 4359424C 		.ascii	"CYBLE_GENERIC_TO\000"
 17289      455F4745 
 17289      4E455249 
 17289      435F544F 
 17289      00
 17290              	.LASF214:
 17291 36aa 4359424C 		.ascii	"CYBLE_GAPP_DISC_MODE_INFO_T\000"
 17291      455F4741 
 17291      50505F44 
 17291      4953435F 
 17291      4D4F4445 
 17292              	.LASF663:
 17293 36c6 436F6E6E 		.ascii	"Conn_Or_Disconn_Info\000"
 17293      5F4F725F 
 17293      44697363 
 17293      6F6E6E5F 
 17293      496E666F 
 17294              	.LASF490:
 17295 36db 4359424C 		.ascii	"CYBLE_EVT_UDSC_ERROR_RESPONSE\000"
 17295      455F4556 
 17295      545F5544 
 17295      53435F45 
 17295      52524F52 
 17296              	.LASF57:
 17297 36f9 4359424C 		.ascii	"CYBLE_EVT_GATTC_FIND_INFO_RSP\000"
 17297      455F4556 
 17297      545F4741 
 17297      5454435F 
 17297      46494E44 
 17298              	.LASF56:
ARM GAS  C:\Users\Helon\AppData\Local\Temp\ccKCxrf8.s 			page 407


 17299 3717 4359424C 		.ascii	"CYBLE_EVT_GATTC_READ_BY_TYPE_RSP\000"
 17299      455F4556 
 17299      545F4741 
 17299      5454435F 
 17299      52454144 
 17300              	.LASF444:
 17301 3738 4359424C 		.ascii	"CYBLE_EVT_PASSS_NOTIFICATION_DISABLED\000"
 17301      455F4556 
 17301      545F5041 
 17301      5353535F 
 17301      4E4F5449 
 17302              	.LASF330:
 17303 375e 4359424C 		.ascii	"CYBLE_EVT_CGMSC_READ_DESCR_RESPONSE\000"
 17303      455F4556 
 17303      545F4347 
 17303      4D53435F 
 17303      52454144 
 17304              	.LASF728:
 17305 3782 6D616C6C 		.ascii	"malloc\000"
 17305      6F6300
 17306              	.LASF402:
 17307 3789 4359424C 		.ascii	"CYBLE_EVT_HIDSC_READ_CHAR_RESPONSE\000"
 17307      455F4556 
 17307      545F4849 
 17307      4453435F 
 17307      52454144 
 17308              	.LASF524:
 17309 37ac 6F766572 		.ascii	"oversample\000"
 17309      73616D70 
 17309      6C6500
 17310              	.LASF523:
 17311 37b7 73746F70 		.ascii	"stopBits\000"
 17311      42697473 
 17311      00
 17312              	.LASF759:
 17313 37c0 4379426C 		.ascii	"CyBle_ProcessEvents\000"
 17313      655F5072 
 17313      6F636573 
 17313      73457665 
 17313      6E747300 
 17314              	.LASF627:
 17315 37d4 41647644 		.ascii	"AdvData\000"
 17315      61746100 
 17316              	.LASF472:
 17317 37dc 4359424C 		.ascii	"CYBLE_EVT_TPSS_NOTIFICATION_DISABLED\000"
 17317      455F4556 
 17317      545F5450 
 17317      53535F4E 
 17317      4F544946 
 17318              	.LASF469:
 17319 3801 4359424C 		.ascii	"CYBLE_EVT_SCPSC_READ_DESCR_RESPONSE\000"
 17319      455F4556 
 17319      545F5343 
 17319      5053435F 
 17319      52454144 
 17320              	.LASF413:
 17321 3825 4359424C 		.ascii	"CYBLE_EVT_HRSC_WRITE_DESCR_RESPONSE\000"
ARM GAS  C:\Users\Helon\AppData\Local\Temp\ccKCxrf8.s 			page 408


 17321      455F4556 
 17321      545F4852 
 17321      53435F57 
 17321      52495445 
 17322              	.LASF435:
 17323 3849 4359424C 		.ascii	"CYBLE_EVT_LNSS_WRITE_CHAR\000"
 17323      455F4556 
 17323      545F4C4E 
 17323      53535F57 
 17323      52495445 
 17324              	.LASF373:
 17325 3863 4359424C 		.ascii	"CYBLE_EVT_ESSS_CHAR_WRITE\000"
 17325      455F4556 
 17325      545F4553 
 17325      53535F43 
 17325      4841525F 
 17326              	.LASF63:
 17327 387d 4359424C 		.ascii	"CYBLE_EVT_GATTC_WRITE_RSP\000"
 17327      455F4556 
 17327      545F4741 
 17327      5454435F 
 17327      57524954 
 17328              	.LASF368:
 17329 3897 4359424C 		.ascii	"CYBLE_EVT_ESSS_NOTIFICATION_ENABLED\000"
 17329      455F4556 
 17329      545F4553 
 17329      53535F4E 
 17329      4F544946 
 17330              	.LASF727:
 17331 38bb 73747263 		.ascii	"strchr\000"
 17331      687200
 17332              	.LASF517:
 17333 38c2 4359424C 		.ascii	"CYBLE_STATE_DISCONNECTED\000"
 17333      455F5354 
 17333      4154455F 
 17333      44495343 
 17333      4F4E4E45 
 17334              	.LASF390:
 17335 38db 4359424C 		.ascii	"CYBLE_EVT_GLSC_READ_CHAR_RESPONSE\000"
 17335      455F4556 
 17335      545F474C 
 17335      53435F52 
 17335      4541445F 
 17336              	.LASF567:
 17337 38fd 44495341 		.ascii	"DISALLCHAR\000"
 17337      4C4C4348 
 17337      415200
 17338              	.LASF649:
 17339 3908 5F5F6374 		.ascii	"__ctype_ptr__\000"
 17339      7970655F 
 17339      7074725F 
 17339      5F00
 17340              	.LASF610:
 17341 3916 53656E64 		.ascii	"SendNotification\000"
 17341      4E6F7469 
 17341      66696361 
 17341      74696F6E 
ARM GAS  C:\Users\Helon\AppData\Local\Temp\ccKCxrf8.s 			page 409


 17341      00
 17342              	.LASF457:
 17343 3927 4359424C 		.ascii	"CYBLE_EVT_RSCSC_NOTIFICATION\000"
 17343      455F4556 
 17343      545F5253 
 17343      4353435F 
 17343      4E4F5449 
 17344              	.LASF657:
 17345 3944 636F6E66 		.ascii	"configUart\000"
 17345      69675561 
 17345      727400
 17346              	.LASF712:
 17347 394f 43795379 		.ascii	"CySysPmDeepSleep\000"
 17347      73506D44 
 17347      65657053 
 17347      6C656570 
 17347      00
 17348              	.LASF43:
 17349 3960 4359424C 		.ascii	"CYBLE_EVT_GAPP_ADVERTISEMENT_START_STOP\000"
 17349      455F4556 
 17349      545F4741 
 17349      50505F41 
 17349      44564552 
 17350              	.LASF210:
 17351 3988 4359424C 		.ascii	"CYBLE_GAPP_SCAN_RSP_DATA_T\000"
 17351      455F4741 
 17351      50505F53 
 17351      43414E5F 
 17351      5253505F 
 17352              	.LASF501:
 17353 39a3 4359424C 		.ascii	"CYBLE_EVT_WPTSC_READ_DESCR_RESPONSE\000"
 17353      455F4556 
 17353      545F5750 
 17353      5453435F 
 17353      52454144 
 17354              	.LASF279:
 17355 39c7 4359424C 		.ascii	"CYBLE_EVT_ANCSC_NOTIFICATION\000"
 17355      455F4556 
 17355      545F414E 
 17355      4353435F 
 17355      4E4F5449 
 17356              	.LASF329:
 17357 39e4 4359424C 		.ascii	"CYBLE_EVT_CGMSC_WRITE_CHAR_RESPONSE\000"
 17357      455F4556 
 17357      545F4347 
 17357      4D53435F 
 17357      57524954 
 17358              	.LASF384:
 17359 3a08 4359424C 		.ascii	"CYBLE_EVT_GLSS_INDICATION_CONFIRMED\000"
 17359      455F4556 
 17359      545F474C 
 17359      53535F49 
 17359      4E444943 
 17360              	.LASF20:
 17361 3a2c 75696E74 		.ascii	"uint8\000"
 17361      3800
 17362              	.LASF422:
ARM GAS  C:\Users\Helon\AppData\Local\Temp\ccKCxrf8.s 			page 410


 17363 3a32 4359424C 		.ascii	"CYBLE_EVT_HTSC_READ_CHAR_RESPONSE\000"
 17363      455F4556 
 17363      545F4854 
 17363      53435F52 
 17363      4541445F 
 17364              	.LASF613:
 17365 3a54 53656E64 		.ascii	"SendDataStruct\000"
 17365      44617461 
 17365      53747275 
 17365      637400
 17366              	.LASF723:
 17367 3a63 55415254 		.ascii	"UART_tx_SetDriveMode\000"
 17367      5F74785F 
 17367      53657444 
 17367      72697665 
 17367      4D6F6465 
 17368              	.LASF673:
 17369 3a78 696F6361 		.ascii	"iocapability\000"
 17369      70616269 
 17369      6C697479 
 17369      00
 17370              	.LASF593:
 17371 3a85 53657455 		.ascii	"SetUartConfiguration\000"
 17371      61727443 
 17371      6F6E6669 
 17371      67757261 
 17371      74696F6E 
 17372              	.LASF188:
 17373 3a9a 73656375 		.ascii	"security\000"
 17373      72697479 
 17373      00
 17374              	.LASF450:
 17375 3aa3 4359424C 		.ascii	"CYBLE_EVT_PASSC_WRITE_DESCR_RESPONSE\000"
 17375      455F4556 
 17375      545F5041 
 17375      5353435F 
 17375      57524954 
 17376              	.LASF653:
 17377 3ac8 6379426C 		.ascii	"cyBle_connHandle\000"
 17377      655F636F 
 17377      6E6E4861 
 17377      6E646C65 
 17377      00
 17378              	.LASF572:
 17379 3ad9 41555448 		.ascii	"AUTH\000"
 17379      00
 17380              	.LASF1:
 17381 3ade 73686F72 		.ascii	"short int\000"
 17381      7420696E 
 17381      7400
 17382              	.LASF191:
 17383 3ae8 61757468 		.ascii	"authErr\000"
 17383      45727200 
 17384              	.LASF744:
 17385 3af0 4379426C 		.ascii	"CyBle_GapSetLocalName\000"
 17385      655F4761 
 17385      70536574 
ARM GAS  C:\Users\Helon\AppData\Local\Temp\ccKCxrf8.s 			page 411


 17385      4C6F6361 
 17385      6C4E616D 
 17386              	.LASF316:
 17387 3b06 4359424C 		.ascii	"CYBLE_EVT_BMSS_WRITE_CHAR\000"
 17387      455F4556 
 17387      545F424D 
 17387      53535F57 
 17387      52495445 
 17388              	.LASF519:
 17389 3b20 6D6F6465 		.ascii	"mode\000"
 17389      00
 17390              	.LASF263:
 17391 3b25 4359424C 		.ascii	"CYBLE_EVT_GATTS_INDICATION_DISABLED\000"
 17391      455F4556 
 17391      545F4741 
 17391      5454535F 
 17391      494E4449 
 17392              	.LASF164:
 17393 3b49 4359424C 		.ascii	"CYBLE_GAPC_SCAN_UNDIRECTED_ADV\000"
 17393      455F4741 
 17393      50435F53 
 17393      43414E5F 
 17393      554E4449 
 17394              	.LASF592:
 17395 3b68 4150495F 		.ascii	"API_RESULT\000"
 17395      52455355 
 17395      4C5400
 17396              	.LASF209:
 17397 3b73 7363616E 		.ascii	"scanRspDataLen\000"
 17397      52737044 
 17397      6174614C 
 17397      656E00
 17398              	.LASF755:
 17399 3b82 55415254 		.ascii	"UART_SpiUartGetRxBufferSize\000"
 17399      5F537069 
 17399      55617274 
 17399      47657452 
 17399      78427566 
 17400              	.LASF606:
 17401 3b9e 4D795F49 		.ascii	"My_ISR_UART\000"
 17401      53525F55 
 17401      41525400 
 17402              	.LASF563:
 17403 3baa 434F4E4E 		.ascii	"CONNT\000"
 17403      5400
 17404              	.LASF300:
 17405 3bb0 4359424C 		.ascii	"CYBLE_EVT_BCSS_INDICATION_DISABLED\000"
 17405      455F4556 
 17405      545F4243 
 17405      53535F49 
 17405      4E444943 
 17406              	.LASF327:
 17407 3bd3 4359424C 		.ascii	"CYBLE_EVT_CGMSC_NOTIFICATION\000"
 17407      455F4556 
 17407      545F4347 
 17407      4D53435F 
 17407      4E4F5449 
ARM GAS  C:\Users\Helon\AppData\Local\Temp\ccKCxrf8.s 			page 412


 17408              	.LASF17:
 17409 3bf0 696E7431 		.ascii	"int16_t\000"
 17409      365F7400 
 17410              	.LASF50:
 17411 3bf8 4359424C 		.ascii	"CYBLE_EVT_GATTC_ERROR_RSP\000"
 17411      455F4556 
 17411      545F4741 
 17411      5454435F 
 17411      4552524F 
 17412              	.LASF172:
 17413 3c12 4359424C 		.ascii	"CYBLE_GAP_IOCAP_KEYBOARD_DISPLAY\000"
 17413      455F4741 
 17413      505F494F 
 17413      4341505F 
 17413      4B455942 
 17414              	.LASF241:
 17415 3c33 4359424C 		.ascii	"CYBLE_GATT_ATTR_HANDLE_RANGE_T\000"
 17415      455F4741 
 17415      54545F41 
 17415      5454525F 
 17415      48414E44 
 17416              	.LASF379:
 17417 3c52 4359424C 		.ascii	"CYBLE_EVT_ESSC_WRITE_CHAR_RESPONSE\000"
 17417      455F4556 
 17417      545F4553 
 17417      53435F57 
 17417      52495445 
 17418              	.LASF757:
 17419 3c75 6D656D63 		.ascii	"memcmp\000"
 17419      6D7000
 17420              	.LASF553:
 17421 3c7c 56455253 		.ascii	"VERSION\000"
 17421      494F4E00 
 17422              	.LASF284:
 17423 3c84 4359424C 		.ascii	"CYBLE_EVT_ANCSC_ERROR_RESPONSE\000"
 17423      455F4556 
 17423      545F414E 
 17423      4353435F 
 17423      4552524F 
 17424              	.LASF255:
 17425 3ca3 75756964 		.ascii	"uuidFormat\000"
 17425      466F726D 
 17425      617400
 17426              	.LASF382:
 17427 3cae 4359424C 		.ascii	"CYBLE_EVT_GLSS_INDICATION_ENABLED\000"
 17427      455F4556 
 17427      545F474C 
 17427      53535F49 
 17427      4E444943 
 17428              	.LASF287:
 17429 3cd0 4359424C 		.ascii	"CYBLE_EVT_ANSS_CHAR_WRITE\000"
 17429      455F4556 
 17429      545F414E 
 17429      53535F43 
 17429      4841525F 
 17430              	.LASF729:
 17431 3cea 7374726E 		.ascii	"strncpy\000"
ARM GAS  C:\Users\Helon\AppData\Local\Temp\ccKCxrf8.s 			page 413


 17431      63707900 
 17432              	.LASF158:
 17433 3cf2 4359424C 		.ascii	"CYBLE_GAPP_SCANNABLE_UNDIRECTED_ADV\000"
 17433      455F4741 
 17433      50505F53 
 17433      43414E4E 
 17433      41424C45 
 17434              	.LASF77:
 17435 3d16 4359424C 		.ascii	"CYBLE_EVT_L2CAP_CBFC_CONN_IND\000"
 17435      455F4556 
 17435      545F4C32 
 17435      4341505F 
 17435      43424643 
 17436              	.LASF66:
 17437 3d34 4359424C 		.ascii	"CYBLE_EVT_GATTS_EXEC_WRITE_REQ\000"
 17437      455F4556 
 17437      545F4741 
 17437      5454535F 
 17437      45584543 
 17438              	.LASF37:
 17439 3d53 4359424C 		.ascii	"CYBLE_EVT_GAPC_SCAN_PROGRESS_RESULT\000"
 17439      455F4556 
 17439      545F4741 
 17439      50435F53 
 17439      43414E5F 
 17440              	.LASF361:
 17441 3d77 4359424C 		.ascii	"CYBLE_EVT_CTSS_CHAR_WRITE\000"
 17441      455F4556 
 17441      545F4354 
 17441      53535F43 
 17441      4841525F 
 17442              	.LASF477:
 17443 3d91 4359424C 		.ascii	"CYBLE_EVT_UDSS_INDICATION_ENABLED\000"
 17443      455F4556 
 17443      545F5544 
 17443      53535F49 
 17443      4E444943 
 17444              	.LASF754:
 17445 3db3 4379426C 		.ascii	"CyBle_StoreBondingData\000"
 17445      655F5374 
 17445      6F726542 
 17445      6F6E6469 
 17445      6E674461 
 17446              	.LASF651:
 17447 3dca 6379426C 		.ascii	"cyBle_discoveryModeInfo\000"
 17447      655F6469 
 17447      73636F76 
 17447      6572794D 
 17447      6F646549 
 17448              	.LASF216:
 17449 3de2 70656572 		.ascii	"peerAddrType\000"
 17449      41646472 
 17449      54797065 
 17449      00
 17450              	.LASF719:
 17451 3def 436F6E6E 		.ascii	"Connected_LED_SetDriveMode\000"
 17451      65637465 
ARM GAS  C:\Users\Helon\AppData\Local\Temp\ccKCxrf8.s 			page 414


 17451      645F4C45 
 17451      445F5365 
 17451      74447269 
 17452              	.LASF97:
 17453 3e0a 4359424C 		.ascii	"CYBLE_ERROR_GAP_ROLE\000"
 17453      455F4552 
 17453      524F525F 
 17453      4741505F 
 17453      524F4C45 
 17454              	.LASF416:
 17455 3e1f 4359424C 		.ascii	"CYBLE_EVT_HTSS_INDICATION_ENABLED\000"
 17455      455F4556 
 17455      545F4854 
 17455      53535F49 
 17455      4E444943 
 17456              	.LASF684:
 17457 3e41 72656164 		.ascii	"readRequestData\000"
 17457      52657175 
 17457      65737444 
 17457      61746100 
 17458              	.LASF488:
 17459 3e51 4359424C 		.ascii	"CYBLE_EVT_UDSC_READ_DESCR_RESPONSE\000"
 17459      455F4556 
 17459      545F5544 
 17459      53435F52 
 17459      4541445F 
 17460              	.LASF240:
 17461 3e74 656E6448 		.ascii	"endHandle\000"
 17461      616E646C 
 17461      6500
 17462              	.LASF296:
 17463 3e7e 4359424C 		.ascii	"CYBLE_EVT_BASC_READ_CHAR_RESPONSE\000"
 17463      455F4556 
 17463      545F4241 
 17463      53435F52 
 17463      4541445F 
 17464              	.LASF389:
 17465 3ea0 4359424C 		.ascii	"CYBLE_EVT_GLSC_NOTIFICATION\000"
 17465      455F4556 
 17465      545F474C 
 17465      53435F4E 
 17465      4F544946 
 17466              	.LASF149:
 17467 3ebc 62644164 		.ascii	"bdAddr\000"
 17467      647200
 17468              	.LASF467:
 17469 3ec3 4359424C 		.ascii	"CYBLE_EVT_SCPSS_SCAN_INT_WIN_CHAR_WRITE\000"
 17469      455F4556 
 17469      545F5343 
 17469      5053535F 
 17469      5343414E 
 17470              	.LASF718:
 17471 3eeb 53746174 		.ascii	"Status_LED_SetDriveMode\000"
 17471      75735F4C 
 17471      45445F53 
 17471      65744472 
 17471      6976654D 
ARM GAS  C:\Users\Helon\AppData\Local\Temp\ccKCxrf8.s 			page 415


 17472              	.LASF429:
 17473 3f03 4359424C 		.ascii	"CYBLE_EVT_LLSC_WRITE_CHAR_RESPONSE\000"
 17473      455F4556 
 17473      545F4C4C 
 17473      53435F57 
 17473      52495445 
 17474              	.LASF127:
 17475 3f26 4359424C 		.ascii	"CYBLE_BLESS_STATE_ECO_STABLE\000"
 17475      455F424C 
 17475      4553535F 
 17475      53544154 
 17475      455F4543 
 17476              	.LASF167:
 17477 3f43 4359424C 		.ascii	"CYBLE_GAPC_ADV_EVENT_T\000"
 17477      455F4741 
 17477      50435F41 
 17477      44565F45 
 17477      56454E54 
 17478              	.LASF94:
 17479 3f5a 4359424C 		.ascii	"CYBLE_ERROR_NO_CONNECTION\000"
 17479      455F4552 
 17479      524F525F 
 17479      4E4F5F43 
 17479      4F4E4E45 
 17480              	.LASF138:
 17481 3f74 4359424C 		.ascii	"CYBLE_LL_PWR_LVL_0_DBM\000"
 17481      455F4C4C 
 17481      5F505752 
 17481      5F4C564C 
 17481      5F305F44 
 17482              	.LASF350:
 17483 3f8b 4359424C 		.ascii	"CYBLE_EVT_CSCSS_INDICATION_DISABLED\000"
 17483      455F4556 
 17483      545F4353 
 17483      4353535F 
 17483      494E4449 
 17484              	.LASF691:
 17485 3faf 6D656D63 		.ascii	"memcpy\000"
 17485      707900
 17486              	.LASF120:
 17487 3fb6 4359424C 		.ascii	"CYBLE_BLESS_HIBERNATE\000"
 17487      455F424C 
 17487      4553535F 
 17487      48494245 
 17487      524E4154 
 17488              	.LASF142:
 17489 3fcc 4359424C 		.ascii	"CYBLE_LL_ADV_CH_TYPE\000"
 17489      455F4C4C 
 17489      5F414456 
 17489      5F43485F 
 17489      54595045 
 17490              	.LASF319:
 17491 3fe1 4359424C 		.ascii	"CYBLE_EVT_BMSC_READ_DESCR_RESPONSE\000"
 17491      455F4556 
 17491      545F424D 
 17491      53435F52 
 17491      4541445F 
ARM GAS  C:\Users\Helon\AppData\Local\Temp\ccKCxrf8.s 			page 416


 17492              	.LASF86:
 17493 4004 4359424C 		.ascii	"CYBLE_EVT_LE_PING_AUTH_TIMEOUT\000"
 17493      455F4556 
 17493      545F4C45 
 17493      5F50494E 
 17493      475F4155 
 17494              	.LASF116:
 17495 4023 4359424C 		.ascii	"CYBLE_API_RESULT_T\000"
 17495      455F4150 
 17495      495F5245 
 17495      53554C54 
 17495      5F5400
 17496              	.LASF321:
 17497 4036 4359424C 		.ascii	"CYBLE_EVT_CGMSS_INDICATION_DISABLED\000"
 17497      455F4556 
 17497      545F4347 
 17497      4D53535F 
 17497      494E4449 
 17498              	.LASF654:
 17499 405a 6379426C 		.ascii	"cyBle_busyStatus\000"
 17499      655F6275 
 17499      73795374 
 17499      61747573 
 17499      00
 17500              	.LASF130:
 17501 406b 4359424C 		.ascii	"CYBLE_BLESS_STATE_INVALID\000"
 17501      455F424C 
 17501      4553535F 
 17501      53544154 
 17501      455F494E 
 17502              	.LASF286:
 17503 4085 4359424C 		.ascii	"CYBLE_EVT_ANSS_NOTIFICATION_DISABLED\000"
 17503      455F4556 
 17503      545F414E 
 17503      53535F4E 
 17503      4F544946 
 17504              	.LASF763:
 17505 40aa 2E5C424C 		.ascii	".\\BLEApplication.c\000"
 17505      45417070 
 17505      6C696361 
 17505      74696F6E 
 17505      2E6300
 17506              	.LASF275:
 17507 40bd 4359424C 		.ascii	"CYBLE_EVT_GATTC_DISCOVERY_COMPLETE\000"
 17507      455F4556 
 17507      545F4741 
 17507      5454435F 
 17507      44495343 
 17508              	.LASF246:
 17509 40e0 4359424C 		.ascii	"CYBLE_GATTC_FIND_INFO_REQ_T\000"
 17509      455F4741 
 17509      5454435F 
 17509      46494E44 
 17509      5F494E46 
 17510              	.LASF325:
 17511 40fc 4359424C 		.ascii	"CYBLE_EVT_CGMSS_WRITE_CHAR\000"
 17511      455F4556 
ARM GAS  C:\Users\Helon\AppData\Local\Temp\ccKCxrf8.s 			page 417


 17511      545F4347 
 17511      4D53535F 
 17511      57524954 
 17512              	.LASF393:
 17513 4117 4359424C 		.ascii	"CYBLE_EVT_GLSC_WRITE_DESCR_RESPONSE\000"
 17513      455F4556 
 17513      545F474C 
 17513      53435F57 
 17513      52495445 
 17514              	.LASF215:
 17515 413b 6576656E 		.ascii	"eventType\000"
 17515      74547970 
 17515      6500
 17516              	.LASF69:
 17517 4145 4359424C 		.ascii	"CYBLE_EVT_GATTC_HANDLE_VALUE_IND\000"
 17517      455F4556 
 17517      545F4741 
 17517      5454435F 
 17517      48414E44 
 17518              	.LASF346:
 17519 4166 4359424C 		.ascii	"CYBLE_EVT_CPSC_SCAN_PROGRESS_RESULT\000"
 17519      455F4556 
 17519      545F4350 
 17519      53435F53 
 17519      43414E5F 
 17520              	.LASF461:
 17521 418a 4359424C 		.ascii	"CYBLE_EVT_RSCSC_READ_DESCR_RESPONSE\000"
 17521      455F4556 
 17521      545F5253 
 17521      4353435F 
 17521      52454144 
 17522              	.LASF720:
 17523 41ae 436F6E6E 		.ascii	"Connected_LED_Write\000"
 17523      65637465 
 17523      645F4C45 
 17523      445F5772 
 17523      69746500 
 17524              	.LASF595:
 17525 41c2 6576656E 		.ascii	"eventCode\000"
 17525      74436F64 
 17525      6500
 17526              	.LASF100:
 17527 41cc 4359424C 		.ascii	"CYBLE_ERROR_SEC_FAILED\000"
 17527      455F4552 
 17527      524F525F 
 17527      5345435F 
 17527      4641494C 
 17528              	.LASF19:
 17529 41e3 75696E74 		.ascii	"uint32_t\000"
 17529      33325F74 
 17529      00
 17530              	.LASF224:
 17531 41ec 636F6E6E 		.ascii	"connLatency\000"
 17531      4C617465 
 17531      6E637900 
 17532              	.LASF169:
 17533 41f8 4359424C 		.ascii	"CYBLE_GAP_IOCAP_DISPLAY_YESNO\000"
ARM GAS  C:\Users\Helon\AppData\Local\Temp\ccKCxrf8.s 			page 418


 17533      455F4741 
 17533      505F494F 
 17533      4341505F 
 17533      44495350 
 17534              	.LASF629:
 17535 4216 53747241 		.ascii	"StrAdvDataLength\000"
 17535      64764461 
 17535      74614C65 
 17535      6E677468 
 17535      00
 17536              	.LASF425:
 17537 4227 4359424C 		.ascii	"CYBLE_EVT_HTSC_WRITE_DESCR_RESPONSE\000"
 17537      455F4556 
 17537      545F4854 
 17537      53435F57 
 17537      52495445 
 17538              	.LASF575:
 17539 424b 424F4E44 		.ascii	"BOND\000"
 17539      00
 17540              	.LASF49:
 17541 4250 4359424C 		.ascii	"CYBLE_EVT_GAP_KEYINFO_EXCHNGE_CMPLT\000"
 17541      455F4556 
 17541      545F4741 
 17541      505F4B45 
 17541      59494E46 
 17542              	.LASF502:
 17543 4274 4359424C 		.ascii	"CYBLE_EVT_WPTSC_WRITE_DESCR_RESPONSE\000"
 17543      455F4556 
 17543      545F5750 
 17543      5453435F 
 17543      57524954 
 17544              	.LASF148:
 17545 4299 4359424C 		.ascii	"CYBLE_BLESS_PWR_IN_DB_T\000"
 17545      455F424C 
 17545      4553535F 
 17545      5057525F 
 17545      494E5F44 
 17546              	.LASF144:
 17547 42b1 4359424C 		.ascii	"CYBLE_LL_MAX_CH_TYPE\000"
 17547      455F4C4C 
 17547      5F4D4158 
 17547      5F43485F 
 17547      54595045 
 17548              	.LASF697:
 17549 42c6 4354535F 		.ascii	"CTS_Write\000"
 17549      57726974 
 17549      6500
 17550              	.LASF74:
 17551 42d0 4359424C 		.ascii	"CYBLE_EVT_L2CAP_CONN_PARAM_UPDATE_REQ\000"
 17551      455F4556 
 17551      545F4C32 
 17551      4341505F 
 17551      434F4E4E 
 17552              	.LASF324:
 17553 42f6 4359424C 		.ascii	"CYBLE_EVT_CGMSS_NOTIFICATION_DISABLED\000"
 17553      455F4556 
 17553      545F4347 
ARM GAS  C:\Users\Helon\AppData\Local\Temp\ccKCxrf8.s 			page 419


 17553      4D53535F 
 17553      4E4F5449 
 17554              	.LASF195:
 17555 431c 4359424C 		.ascii	"CYBLE_GAP_BONDED_DEV_ADDR_LIST_T\000"
 17555      455F4741 
 17555      505F424F 
 17555      4E444544 
 17555      5F444556 
 17556              	.LASF581:
 17557 433d 44657669 		.ascii	"DeviceList\000"
 17557      63654C69 
 17557      737400
 17558              	.LASF731:
 17559 4348 66726565 		.ascii	"free\000"
 17559      00
 17560              	.LASF223:
 17561 434d 636F6E6E 		.ascii	"connIntvMax\000"
 17561      496E7476 
 17561      4D617800 
 17562              	.LASF607:
 17563 4359 436F6E66 		.ascii	"ConfigUartInit\000"
 17563      69675561 
 17563      7274496E 
 17563      697400
 17564              	.LASF415:
 17565 4368 4359424C 		.ascii	"CYBLE_EVT_HTSS_NOTIFICATION_DISABLED\000"
 17565      455F4556 
 17565      545F4854 
 17565      53535F4E 
 17565      4F544946 
 17566              	.LASF266:
 17567 438d 4359424C 		.ascii	"CYBLE_EVT_GATTC_INCL_DISCOVERY_FAILED\000"
 17567      455F4556 
 17567      545F4741 
 17567      5454435F 
 17567      494E434C 
 17568              	.LASF561:
 17569 43b3 524F4C45 		.ascii	"ROLE\000"
 17569      00
 17570              	.LASF228:
 17571 43b8 636F6E6E 		.ascii	"connIntv\000"
 17571      496E7476 
 17571      00
 17572              	.LASF8:
 17573 43c1 73686F72 		.ascii	"short unsigned int\000"
 17573      7420756E 
 17573      7369676E 
 17573      65642069 
 17573      6E7400
 17574              	.LASF667:
 17575 43d4 63686172 		.ascii	"charNotificationEnabled\000"
 17575      4E6F7469 
 17575      66696361 
 17575      74696F6E 
 17575      456E6162 
 17576              	.LASF586:
 17577 43ec 53657269 		.ascii	"SerialArryLength\000"
ARM GAS  C:\Users\Helon\AppData\Local\Temp\ccKCxrf8.s 			page 420


 17577      616C4172 
 17577      72794C65 
 17577      6E677468 
 17577      00
 17578              	.LASF622:
 17579 43fd 50617273 		.ascii	"Parser_UartData\000"
 17579      65725F55 
 17579      61727444 
 17579      61746100 
 17580              	.LASF201:
 17581 440d 64697265 		.ascii	"directAddr\000"
 17581      63744164 
 17581      647200
 17582              	.LASF513:
 17583 4418 4359424C 		.ascii	"CYBLE_STATE_CONNECTED\000"
 17583      455F5354 
 17583      4154455F 
 17583      434F4E4E 
 17583      45435445 
 17584              	.LASF234:
 17585 442e 61637475 		.ascii	"actualLen\000"
 17585      616C4C65 
 17585      6E00
 17586              	.LASF202:
 17587 4438 61647643 		.ascii	"advChannelMap\000"
 17587      68616E6E 
 17587      656C4D61 
 17587      7000
 17588              	.LASF278:
 17589 4446 4359424C 		.ascii	"CYBLE_EVT_ANCSS_WRITE_CHAR\000"
 17589      455F4556 
 17589      545F414E 
 17589      4353535F 
 17589      57524954 
 17590              	.LASF761:
 17591 4461 4379426C 		.ascii	"CyBle_GapAuthPassKeyReply\000"
 17591      655F4761 
 17591      70417574 
 17591      68506173 
 17591      734B6579 
 17592              	.LASF388:
 17593 447b 4359424C 		.ascii	"CYBLE_EVT_GLSC_INDICATION\000"
 17593      455F4556 
 17593      545F474C 
 17593      53435F49 
 17593      4E444943 
 17594              	.LASF156:
 17595 4495 4359424C 		.ascii	"CYBLE_GAPP_CONNECTABLE_UNDIRECTED_ADV\000"
 17595      455F4741 
 17595      50505F43 
 17595      4F4E4E45 
 17595      43544142 
 17596              	.LASF338:
 17597 44bb 4359424C 		.ascii	"CYBLE_EVT_CPSS_BROADCAST_DISABLED\000"
 17597      455F4556 
 17597      545F4350 
 17597      53535F42 
ARM GAS  C:\Users\Helon\AppData\Local\Temp\ccKCxrf8.s 			page 421


 17597      524F4144 
 17598              	.LASF623:
 17599 44dd 41745F43 		.ascii	"At_Command_Idex\000"
 17599      6F6D6D61 
 17599      6E645F49 
 17599      64657800 
 17600              	.LASF548:
 17601 44ed 72747352 		.ascii	"rtsRxFifoLevel\000"
 17601      78466966 
 17601      6F4C6576 
 17601      656C00
 17602              	.LASF232:
 17603 44fc 61747449 		.ascii	"attId\000"
 17603      6400
 17604              	.LASF90:
 17605 4502 4359424C 		.ascii	"CYBLE_ERROR_INVALID_OPERATION\000"
 17605      455F4552 
 17605      524F525F 
 17605      494E5641 
 17605      4C49445F 
 17606              	.LASF642:
 17607 4520 70617373 		.ascii	"passkey\000"
 17607      6B657900 
 17608              	.LASF35:
 17609 4528 4359424C 		.ascii	"CYBLE_EVT_HCI_STATUS\000"
 17609      455F4556 
 17609      545F4843 
 17609      495F5354 
 17609      41545553 
 17610              	.LASF733:
 17611 453d 4379426C 		.ascii	"CyBle_GattsNotification\000"
 17611      655F4761 
 17611      7474734E 
 17611      6F746966 
 17611      69636174 
 17612              	.LASF52:
 17613 4555 4359424C 		.ascii	"CYBLE_EVT_GATT_DISCONNECT_IND\000"
 17613      455F4556 
 17613      545F4741 
 17613      54545F44 
 17613      4953434F 
 17614              	.LASF225:
 17615 4573 73757065 		.ascii	"supervisionTO\000"
 17615      72766973 
 17615      696F6E54 
 17615      4F00
 17616              	.LASF154:
 17617 4581 4359424C 		.ascii	"CYBLE_GATT_RSP_TO\000"
 17617      455F4741 
 17617      54545F52 
 17617      53505F54 
 17617      4F00
 17618              	.LASF261:
 17619 4593 4359424C 		.ascii	"CYBLE_KEY_EXCHANGE_INFO_REQUEST_REPLY\000"
 17619      455F4B45 
 17619      595F4558 
 17619      4348414E 
ARM GAS  C:\Users\Helon\AppData\Local\Temp\ccKCxrf8.s 			page 422


 17619      47455F49 
 17620              	.LASF84:
 17621 45b9 4359424C 		.ascii	"CYBLE_EVT_L2CAP_CBFC_DATA_WRITE_IND\000"
 17621      455F4556 
 17621      545F4C32 
 17621      4341505F 
 17621      43424643 
 17622              	.LASF530:
 17623 45dd 64726F70 		.ascii	"dropOnFrameErr\000"
 17623      4F6E4672 
 17623      616D6545 
 17623      727200
 17624              	.LASF259:
 17625 45ec 4359424C 		.ascii	"CYBLE_PASSKEY_ENTRY_REQUEST_REPLY\000"
 17625      455F5041 
 17625      53534B45 
 17625      595F454E 
 17625      5452595F 
 17626              	.LASF536:
 17627 460e 656E6162 		.ascii	"enableMultiproc\000"
 17627      6C654D75 
 17627      6C746970 
 17627      726F6300 
 17628              	.LASF220:
 17629 461e 72737369 		.ascii	"rssi\000"
 17629      00
 17630              	.LASF305:
 17631 4623 4359424C 		.ascii	"CYBLE_EVT_BCSC_WRITE_DESCR_RESPONSE\000"
 17631      455F4556 
 17631      545F4243 
 17631      53435F57 
 17631      52495445 
 17632              	.LASF528:
 17633 4647 656E6162 		.ascii	"enableInvertedRx\000"
 17633      6C65496E 
 17633      76657274 
 17633      65645278 
 17633      00
 17634              	.LASF483:
 17635 4658 4359424C 		.ascii	"CYBLE_EVT_UDSS_WRITE_CHAR\000"
 17635      455F4556 
 17635      545F5544 
 17635      53535F57 
 17635      52495445 
 17636              	.LASF522:
 17637 4672 70617269 		.ascii	"parity\000"
 17637      747900
 17638              	.LASF219:
 17639 4679 64617461 		.ascii	"data\000"
 17639      00
 17640              	.LASF288:
 17641 467e 4359424C 		.ascii	"CYBLE_EVT_ANSC_NOTIFICATION\000"
 17641      455F4556 
 17641      545F414E 
 17641      53435F4E 
 17641      4F544946 
 17642              	.LASF45:
ARM GAS  C:\Users\Helon\AppData\Local\Temp\ccKCxrf8.s 			page 423


 17643 469a 4359424C 		.ascii	"CYBLE_EVT_GAP_DEVICE_DISCONNECTED\000"
 17643      455F4556 
 17643      545F4741 
 17643      505F4445 
 17643      56494345 
 17644              	.LASF396:
 17645 46bc 4359424C 		.ascii	"CYBLE_EVT_HIDSS_BOOT_MODE_ENTER\000"
 17645      455F4556 
 17645      545F4849 
 17645      4453535F 
 17645      424F4F54 
 17646              	.LASF70:
 17647 46dc 4359424C 		.ascii	"CYBLE_EVT_GATTS_HANDLE_VALUE_CNF\000"
 17647      455F4556 
 17647      545F4741 
 17647      5454535F 
 17647      48414E44 
 17648              	.LASF713:
 17649 46fd 55415254 		.ascii	"UART_Wakeup\000"
 17649      5F57616B 
 17649      65757000 
 17650              	.LASF357:
 17651 4709 4359424C 		.ascii	"CYBLE_EVT_CSCSC_READ_DESCR_RESPONSE\000"
 17651      455F4556 
 17651      545F4353 
 17651      4353435F 
 17651      52454144 
 17652              	.LASF221:
 17653 472d 4359424C 		.ascii	"CYBLE_GAPC_ADV_REPORT_T\000"
 17653      455F4741 
 17653      50435F41 
 17653      44565F52 
 17653      45504F52 
 17654              	.LASF21:
 17655 4745 75696E74 		.ascii	"uint16\000"
 17655      313600
 17656              	.LASF656:
 17657 474c 44657669 		.ascii	"DeviceInfo\000"
 17657      6365496E 
 17657      666F00
 17658              	.LASF281:
 17659 4757 4359424C 		.ascii	"CYBLE_EVT_ANCSC_WRITE_CHAR_RESPONSE\000"
 17659      455F4556 
 17659      545F414E 
 17659      4353435F 
 17659      57524954 
 17660              	.LASF199:
 17661 477b 6F776E41 		.ascii	"ownAddrType\000"
 17661      64647254 
 17661      79706500 
 17662              	.LASF98:
 17663 4787 4359424C 		.ascii	"CYBLE_ERROR_TX_POWER_READ\000"
 17663      455F4552 
 17663      524F525F 
 17663      54585F50 
 17663      4F574552 
 17664              	.LASF451:
ARM GAS  C:\Users\Helon\AppData\Local\Temp\ccKCxrf8.s 			page 424


 17665 47a1 4359424C 		.ascii	"CYBLE_EVT_RSCSS_NOTIFICATION_ENABLED\000"
 17665      455F4556 
 17665      545F5253 
 17665      4353535F 
 17665      4E4F5449 
 17666              	.LASF507:
 17667 47c6 4359424C 		.ascii	"CYBLE_EVT_WSSC_READ_CHAR_RESPONSE\000"
 17667      455F4556 
 17667      545F5753 
 17667      53435F52 
 17667      4541445F 
 17668              	.LASF552:
 17669 47e8 52454641 		.ascii	"REFAC\000"
 17669      4300
 17670              	.LASF576:
 17671 47ee 436F6E6E 		.ascii	"Connect_Idx\000"
 17671      6563745F 
 17671      49647800 
 17672              	.LASF128:
 17673 47fa 4359424C 		.ascii	"CYBLE_BLESS_STATE_DEEPSLEEP\000"
 17673      455F424C 
 17673      4553535F 
 17673      53544154 
 17673      455F4445 
 17674              	.LASF421:
 17675 4816 4359424C 		.ascii	"CYBLE_EVT_HTSC_INDICATION\000"
 17675      455F4556 
 17675      545F4854 
 17675      53435F49 
 17675      4E444943 
 17676              	.LASF394:
 17677 4830 4359424C 		.ascii	"CYBLE_EVT_HIDSS_NOTIFICATION_ENABLED\000"
 17677      455F4556 
 17677      545F4849 
 17677      4453535F 
 17677      4E4F5449 
 17678              	.LASF418:
 17679 4855 4359424C 		.ascii	"CYBLE_EVT_HTSS_INDICATION_CONFIRMED\000"
 17679      455F4556 
 17679      545F4854 
 17679      53535F49 
 17679      4E444943 
 17680              	.LASF197:
 17681 4879 61647649 		.ascii	"advIntvMax\000"
 17681      6E74764D 
 17681      617800
 17682              	.LASF495:
 17683 4884 4359424C 		.ascii	"CYBLE_EVT_WPTSS_INDICATION_CONFIRMED\000"
 17683      455F4556 
 17683      545F5750 
 17683      5453535F 
 17683      494E4449 
 17684              	.LASF408:
 17685 48a9 4359424C 		.ascii	"CYBLE_EVT_HRSS_NOTIFICATION_DISABLED\000"
 17685      455F4556 
 17685      545F4852 
 17685      53535F4E 
ARM GAS  C:\Users\Helon\AppData\Local\Temp\ccKCxrf8.s 			page 425


 17685      4F544946 
 17686              		.ident	"GCC: (GNU Tools for ARM Embedded Processors) 4.9.3 20150303 (release) [ARM/embedded-4_9-br
