ARM GAS  C:\Users\Helon\AppData\Local\Temp\ccKCxrf8.s 			page 1


   1              		.cpu cortex-m0
   2              		.fpu softvfp
   3              		.eabi_attribute 20, 1
   4              		.eabi_attribute 21, 1
   5              		.eabi_attribute 23, 3
   6              		.eabi_attribute 24, 1
   7              		.eabi_attribute 25, 1
   8              		.eabi_attribute 26, 1
   9              		.eabi_attribute 30, 4
  10              		.eabi_attribute 34, 0
  11              		.eabi_attribute 18, 4
  12              		.code	16
  13              		.file	"BLEApplication.c"
  14              		.text
  15              	.Ltext0:
  16              		.cfi_sections	.debug_frame
  17              		.section	.text.StackEventHandler,"ax",%progbits
  18              		.align	1
  19              		.global	StackEventHandler
  20              		.code	16
  21              		.thumb_func
  22              		.type	StackEventHandler, %function
  23              	StackEventHandler:
  24              	.LFB35:
  25              		.file 1 ".\\BLEApplication.c"
   1:.\BLEApplication.c **** /* ========================================
   2:.\BLEApplication.c ****  *
   3:.\BLEApplication.c ****  * Copyright YOUR COMPANY, THE YEAR
   4:.\BLEApplication.c ****  * All Rights Reserved
   5:.\BLEApplication.c ****  * UNPUBLISHED, LICENSED SOFTWARE.
   6:.\BLEApplication.c ****  *
   7:.\BLEApplication.c ****  * CONFIDENTIAL AND PROPRIETARY INFORMATION
   8:.\BLEApplication.c ****  * WHICH IS THE PROPERTY OF your company.
   9:.\BLEApplication.c ****  *
  10:.\BLEApplication.c ****  * ========================================
  11:.\BLEApplication.c **** */
  12:.\BLEApplication.c **** #include<project.h>
  13:.\BLEApplication.c **** #include "BLEApplication.h"
  14:.\BLEApplication.c **** #include<stdio.h>
  15:.\BLEApplication.c **** #include "BLEClient.h"
  16:.\BLEApplication.c **** #include <malloc.h>
  17:.\BLEApplication.c **** #include "WriteUserSFlash.h"
  18:.\BLEApplication.c **** /***************************************
  19:.\BLEApplication.c **** * Â§ñÈÉ®ÂÖ®Â±ÄÂèòÈáèÂ£∞Êòé
  20:.\BLEApplication.c **** ***************************************/
  21:.\BLEApplication.c **** extern uint8_t StartScan;
  22:.\BLEApplication.c **** extern uint8_t DeviceCount;
  23:.\BLEApplication.c **** extern CYBLE_DEVICE_INFO DeviceInfo[DeviceListCount];
  24:.\BLEApplication.c **** //extern uint8_t DeviceList[DeviceListCount];
  25:.\BLEApplication.c **** /***************************************
  26:.\BLEApplication.c **** * ÂÖ®Â±ÄÂèòÈáè
  27:.\BLEApplication.c **** ***************************************/
  28:.\BLEApplication.c **** UART_UART_INIT_STRUCT configUart;
  29:.\BLEApplication.c **** uint8_t LowPower_EN=TURE;
  30:.\BLEApplication.c **** uint8_t RX_BUFFER[BUFFER_LENGHTH]={0};
  31:.\BLEApplication.c **** uint8_t Buffer_Length=0;
  32:.\BLEApplication.c **** uint8_t rx_isover=FALSE;
ARM GAS  C:\Users\Helon\AppData\Local\Temp\ccKCxrf8.s 			page 2


  33:.\BLEApplication.c **** uint8_t RxFlag=OVER;
  34:.\BLEApplication.c **** //uint8_t SleepMode=TURE;
  35:.\BLEApplication.c **** CYBLE_CONN_OR_DISCONN_INFO Conn_Or_Disconn_Info;
  36:.\BLEApplication.c **** uint8_t Conn_or_Disconn_Idx=0;
  37:.\BLEApplication.c **** //uint8 bufferRx[UART_RX_BUFFER + 1u];     /* RX software buffer requires one extra entry for corre
  38:.\BLEApplication.c **** //uint8 bufferTx[UART_TX_BUFFER];           /* TX software buffer */ 
  39:.\BLEApplication.c **** uint8_t MTU_REQ_FLAG=TURE;
  40:.\BLEApplication.c **** uint8_t TroughtTest_Flag=FALSE;
  41:.\BLEApplication.c **** uint8_t charNotificationEnabled = FALSE;
  42:.\BLEApplication.c **** uint32 totalByteCounter = 0;
  43:.\BLEApplication.c **** uint8_t Role=Peripheral;//ÈªòËÆ§ÊòØPeripheral
  44:.\BLEApplication.c **** uint8 buffer[20];
  45:.\BLEApplication.c **** uint16 negotiatedMtu = DEFAULT_MTU_SIZE;
  46:.\BLEApplication.c **** uint8_t CommandMode=AT_COMMAND_MODE;
  47:.\BLEApplication.c **** uint32 testCount=0;
  48:.\BLEApplication.c **** uint8_t iocapability=CYBLE_GAP_IOCAP_DISPLAY_ONLY;
  49:.\BLEApplication.c **** CYBLE_GAP_CONN_PARAM_UPDATED_IN_CONTROLLER_T ConnParam;
  50:.\BLEApplication.c **** uint8_t KEYBOARD=FALSE;
  51:.\BLEApplication.c **** uint8_t AUTHFLAG=FALSE;
  52:.\BLEApplication.c **** uint8_t SleepMode=TURE;
  53:.\BLEApplication.c **** uint8_t Bond=FALSE;
  54:.\BLEApplication.c **** /* All zeros passed as  argument passed to CyBle_GapRemoveDeviceFromWhiteList for 
  55:.\BLEApplication.c **** removing all the bonding data stored */
  56:.\BLEApplication.c **** CYBLE_GAP_BD_ADDR_T clearAllDevices = {{0,0,0,0,0,0},0};
  57:.\BLEApplication.c **** //CYBLE_GAPP_DISC_MODE_INFO_T updateadvparam;
  58:.\BLEApplication.c **** //uint8_t ExitThrought[]={
  59:.\BLEApplication.c **** //    0x11,0x24,0xFB,0x1E,0x1F,0x24,0x19,0x16,0x29};
  60:.\BLEApplication.c **** //CYBLE_CONN_HANDLE_T	connHandle=
  61:.\BLEApplication.c **** //{
  62:.\BLEApplication.c **** //    CYBLE_TROUGHPUT_SERVICE_CUSTOM_CHARACTERISTIC_CLIENT_CHARACTERISTIC_CONFIGURATION_DESC_HANDLE
  63:.\BLEApplication.c **** //    0x00
  64:.\BLEApplication.c **** //};
  65:.\BLEApplication.c **** CYBLE_GAP_BD_ADDR_T DeviceAddr;//Â≠òÊîæÊú¨Êú∫ÁöÑMACÂú∞ÂùÄ,‰∏çËÉΩÂÅö‰∏∫Â±ÄÈÉ®ÂèòÈáèÂê¶ÂàôËé∑ÂèñÁöÑÂú
  66:.\BLEApplication.c **** uint8_t _10sIsOver=FALSE;
  67:.\BLEApplication.c **** uint8 cccdNotifEnabledValue[] = {0x01, 0x00};
  68:.\BLEApplication.c **** CYBLE_GATT_VALUE_T cccdNotifFlagSetStruct =
  69:.\BLEApplication.c **** {
  70:.\BLEApplication.c ****     cccdNotifEnabledValue,
  71:.\BLEApplication.c ****     2,
  72:.\BLEApplication.c ****     0
  73:.\BLEApplication.c **** };
  74:.\BLEApplication.c **** //    Êõ¥Êñ∞ËøûÊé•Èó¥ÈöîÂèÇÊï∞ÔºåÊèêÈ´òÈÄè‰º†ÈÄüÁéáÔºå‰ΩÜ‰ºöÂ¢ûÂä†ÂäüËÄó
  75:.\BLEApplication.c **** CYBLE_GAP_CONN_UPDATE_PARAM_T connParam={
  76:.\BLEApplication.c ****     0x10,
  77:.\BLEApplication.c ****     0x10,
  78:.\BLEApplication.c ****     0,
  79:.\BLEApplication.c ****     1000
  80:.\BLEApplication.c **** };
  81:.\BLEApplication.c **** CYBLE_GATTC_WRITE_REQ_T writeRequestData;
  82:.\BLEApplication.c **** CYBLE_GATTC_READ_REQ_T readRequestData=CYBLE_TROUGHPUT_SERVICE_CUSTOM_CHARACTERISTIC_CLIENT_CHARACT
  83:.\BLEApplication.c **** //ATÂëΩ‰ª§ÂàóË°®
  84:.\BLEApplication.c **** char * StringArry[]={
  85:.\BLEApplication.c ****                      AT_RESET,AT_REFAC,AT_VERSION,AT_BAUD,AT_LADDR,AT_NAME,
  86:.\BLEApplication.c ****                      AT_CPIN,AT_TXP,AT_ADVD,AT_ADVI,AT_CONNI,AT_ROLE,AT_SCAN,
  87:.\BLEApplication.c ****                      AT_CONNT,AT_DISCONN,AT_LOGIN,AT_TX,AT_RSSI,AT_DISALLCHAR,
  88:.\BLEApplication.c ****                      AT,AT_SPEED,AT_NOTIFY,AT_STAUS,AT_ADVS,AT_AUTH,AT_IOCAP,
  89:.\BLEApplication.c ****                     AT_SLEEP,AT_BOND
ARM GAS  C:\Users\Helon\AppData\Local\Temp\ccKCxrf8.s 			page 3


  90:.\BLEApplication.c ****                     };
  91:.\BLEApplication.c **** uint8_t STOP_SCAN_FLAG=FALSE;
  92:.\BLEApplication.c **** uint8_t Baud_rate_idx='7';//ÈªòËÆ§ÊòØ115200
  93:.\BLEApplication.c **** /******************************************************************************
  94:.\BLEApplication.c **** * Function Name: StackEventHandler
  95:.\BLEApplication.c **** ***************************************************************************//**
  96:.\BLEApplication.c **** * 
  97:.\BLEApplication.c **** *  Â§ÑÁêÜËìùÁâôÂçèËÆÆÊ†à‰∫ã‰ª∂
  98:.\BLEApplication.c **** * 
  99:.\BLEApplication.c **** * \return
 100:.\BLEApplication.c **** *  None
 101:.\BLEApplication.c **** * 
 102:.\BLEApplication.c **** ******************************************************************************/
 103:.\BLEApplication.c **** void StackEventHandler(uint32 eventCode, void *eventParam)
 104:.\BLEApplication.c **** {
  26              		.loc 1 104 0
  27              		.cfi_startproc
  28              	.LVL0:
  29 0000 70B5     		push	{r4, r5, r6, lr}
  30              		.cfi_def_cfa_offset 16
  31              		.cfi_offset 4, -16
  32              		.cfi_offset 5, -12
  33              		.cfi_offset 6, -8
  34              		.cfi_offset 14, -4
  35 0002 0C1C     		mov	r4, r1
  36 0004 88B0     		sub	sp, sp, #32
  37              		.cfi_def_cfa_offset 48
 105:.\BLEApplication.c ****     CYBLE_GAPC_ADV_REPORT_T	Scan_Result;
 106:.\BLEApplication.c **** //    CYBLE_API_RESULT_T API_RESULT=0;
 107:.\BLEApplication.c ****     CYBLE_GATTC_FIND_INFO_RSP_PARAM_T DisAllCharResult;  
 108:.\BLEApplication.c ****     uint8_t i=0;
 109:.\BLEApplication.c ****     CYBLE_GATTC_HANDLE_VALUE_NTF_PARAM_T * handleValueNotification;
 110:.\BLEApplication.c ****     CYBLE_GATTS_WRITE_REQ_PARAM_T writeParam;  
 111:.\BLEApplication.c **** //    CYBLE_GATT_HANDLE_VALUE_PAIR_T handleValuePair;
 112:.\BLEApplication.c **** //    uint32 PassKey=0;
 113:.\BLEApplication.c **** //    CYBLE_GATTC_READ_RSP_PARAM_T readParam;
 114:.\BLEApplication.c ****     switch(eventCode)
  38              		.loc 1 114 0
  39 0006 2528     		cmp	r0, #37
  40 0008 00D1     		bne	.LCB17
  41 000a 35E1     		b	.L3	@long jump
  42              	.LCB17:
  43 000c 19D8     		bhi	.L4
  44 000e 2128     		cmp	r0, #33
  45 0010 00D1     		bne	.LCB21
  46 0012 17E1     		b	.L5	@long jump
  47              	.LCB21:
  48 0014 0AD8     		bhi	.L6
  49 0016 0228     		cmp	r0, #2
  50 0018 45D0     		beq	.L7
  51 001a 2028     		cmp	r0, #32
  52 001c 31D0     		beq	.L8
  53 001e 0128     		cmp	r0, #1
  54 0020 00D0     		beq	.LCB29
  55 0022 30E1     		b	.L1	@long jump
  56              	.LCB29:
 115:.\BLEApplication.c ****     {
ARM GAS  C:\Users\Helon\AppData\Local\Temp\ccKCxrf8.s 			page 4


 116:.\BLEApplication.c ****         case CYBLE_EVT_STACK_ON:
 117:.\BLEApplication.c ****             printf("BLE is Ready\r\n");
  57              		.loc 1 117 0
  58 0024 9948     		ldr	r0, .L53
  59              	.LVL1:
  60 0026 FFF7FEFF 		bl	puts
  61              	.LVL2:
 118:.\BLEApplication.c ****             while((UART_SpiUartGetTxBufferSize() + UART_GET_TX_FIFO_SR_VALID) != 0);//Á≠âÂæÖ‰∏≤Âè£Á
  62              		.loc 1 118 0
  63 002a 21E0     		b	.L23
  64              	.LVL3:
  65              	.L6:
 114:.\BLEApplication.c ****     {
  66              		.loc 1 114 0
  67 002c 2328     		cmp	r0, #35
  68 002e 00D1     		bne	.LCB42
  69 0030 12E1     		b	.L10	@long jump
  70              	.LCB42:
  71 0032 0122     		mov	r2, #1
  72 0034 964B     		ldr	r3, .L53+4
  73 0036 2328     		cmp	r0, #35
  74 0038 00D9     		bls	.LCB46
  75 003a 23E1     		b	.L50	@long jump
  76              	.LCB46:
 119:.\BLEApplication.c **** //            StartScan=TRUE;     
 120:.\BLEApplication.c **** //            CyBle_GappStartAdvertisement(CYBLE_ADVERTISING_SLOW);
 121:.\BLEApplication.c ****         break;
 122:.\BLEApplication.c ****         case CYBLE_EVT_GAPC_SCAN_PROGRESS_RESULT:
 123:.\BLEApplication.c ****             Scan_Result=*(CYBLE_GAPC_ADV_REPORT_T *)eventParam;
 124:.\BLEApplication.c ****             HandleScanDevices(&Scan_Result);               
 125:.\BLEApplication.c **** //            CyBle_GapcStopScan();
 126:.\BLEApplication.c ****         break;
 127:.\BLEApplication.c ****         case CYBLE_EVT_GAPC_SCAN_START_STOP:
 128:.\BLEApplication.c ****             if(STOP_SCAN_FLAG)
 129:.\BLEApplication.c ****             {
 130:.\BLEApplication.c ****                 STOP_SCAN_FLAG=FALSE;             
 131:.\BLEApplication.c ****                 printf("+SCAN_STOP\r\n");
 132:.\BLEApplication.c ****             }
 133:.\BLEApplication.c ****             
 134:.\BLEApplication.c ****         break;
 135:.\BLEApplication.c ****         //ÂΩìClientÊâ´ÊèèÂà∞ServerÁöÑDB‰πãÂêéÊâç‰ºöËß¶ÂèëËØ•‰∫ã‰ª∂ÔºåÂâçÊèêÊòØclientÂíåserverËøûÊé•
 136:.\BLEApplication.c ****         case CYBLE_EVT_GATTC_DISCOVERY_COMPLETE:
 137:.\BLEApplication.c ****             
 138:.\BLEApplication.c ****         break;        
 139:.\BLEApplication.c ****         case CYBLE_EVT_TIMEOUT:                         
 140:.\BLEApplication.c ****             if(*(uint8_t*)eventParam==CYBLE_GAP_SCAN_TO)
 141:.\BLEApplication.c ****             {   
 142:.\BLEApplication.c ****                 CyBle_GapcStopScan();
 143:.\BLEApplication.c ****                 printf("+SCAN_CMP\r\n");                    
 144:.\BLEApplication.c ****             }
 145:.\BLEApplication.c ****             //ÂπøÊí≠Ë∂ÖÊó∂
 146:.\BLEApplication.c **** //            if(*(uint8_t*)eventParam==CYBLE_GAP_ADV_MODE_TO)
 147:.\BLEApplication.c **** //            {
 148:.\BLEApplication.c **** //               printf("+ADV_TO\r\n");  
 149:.\BLEApplication.c **** ////                CyBle_GappStartAdvertisement(CYBLE_ADVERTISING_SLOW);
 150:.\BLEApplication.c **** //            }
 151:.\BLEApplication.c ****         break;
ARM GAS  C:\Users\Helon\AppData\Local\Temp\ccKCxrf8.s 			page 5


 152:.\BLEApplication.c ****         case CYBLE_EVT_GAPP_ADVERTISEMENT_START_STOP:
 153:.\BLEApplication.c ****             if(CYBLE_STATE_ADVERTISING!=CyBle_GetState())
 154:.\BLEApplication.c ****             {
 155:.\BLEApplication.c ****                 CyBle_GappStartAdvertisement(CYBLE_ADVERTISING_SLOW);
 156:.\BLEApplication.c ****             }
 157:.\BLEApplication.c ****         break;
 158:.\BLEApplication.c ****         case CYBLE_EVT_GAP_DEVICE_CONNECTED:
 159:.\BLEApplication.c **** //            Ëé∑ÂèñËøûÊé•ÂèÇÊï∞‰ø°ÊÅØ
 160:.\BLEApplication.c ****             ConnParam=*(CYBLE_GAP_CONN_PARAM_UPDATED_IN_CONTROLLER_T *)eventParam;            
 161:.\BLEApplication.c ****             if(Role==Peripheral)
 162:.\BLEApplication.c ****             {
 163:.\BLEApplication.c ****                 printf("+CONN_EVT=OK\r\n");
 164:.\BLEApplication.c **** //                handleValuePair.value.val[0]=0x01;
 165:.\BLEApplication.c **** //                handleValuePair.value.val[1]=0x00;
 166:.\BLEApplication.c **** //                handleValuePair.value.len=2;
 167:.\BLEApplication.c **** //                handleValuePair.attrHandle=CYBLE_TROUGHPUT_SERVICE_CUSTOM_CHARACTERISTIC_CLIENT_C
 168:.\BLEApplication.c **** //                 printf("+WRITE=%d\r\n",CyBle_GattsWriteAttributeValue(&handleValuePair,0,&cyBle_
 169:.\BLEApplication.c **** //                CommandMode=THROUGHT_MODE;
 170:.\BLEApplication.c ****                 CyBle_L2capLeConnectionParamUpdateRequest(cyBle_connHandle.bdHandle,&connParam);
 171:.\BLEApplication.c ****                 #ifdef RELEASE
 172:.\BLEApplication.c ****                 CyBle_GapAuthReq(cyBle_connHandle.bdHandle,&cyBle_authInfo);
 173:.\BLEApplication.c ****                 #endif
 174:.\BLEApplication.c ****             }
 175:.\BLEApplication.c ****             else
 176:.\BLEApplication.c ****             {
 177:.\BLEApplication.c **** //                CommandMode=THROUGHT_MODE;
 178:.\BLEApplication.c ****                 printf("+CONN_EVT=%d,OK\r\n",Conn_or_Disconn_Idx);   
 179:.\BLEApplication.c **** //                ‰∏é‰ªéÊú∫ËøûÊé•ÊàêÂäüÂêéÔºå‰∏ªÊú∫ÂèëËµ∑ËøûÊé•Èó¥ÈöîÊõ¥Êñ∞ËØ∑Ê±Ç
 180:.\BLEApplication.c ****                 CyBle_GapcConnectionParamUpdateRequest(cyBle_connHandle.bdHandle,&connParam);
 181:.\BLEApplication.c ****                 /* Initiate an MTU exchange request CYBLE_GATT_MTU*/
 182:.\BLEApplication.c ****                 CyBle_GattcExchangeMtuReq(cyBle_connHandle,CYBLE_GATT_MTU);
 183:.\BLEApplication.c ****             }
 184:.\BLEApplication.c **** //            //‰∏ªÊú∫ÂèëÈÄÅÁöÑMTU exchange request
 185:.\BLEApplication.c **** //            if(MTU_REQ_FLAG)
 186:.\BLEApplication.c **** //            {
 187:.\BLEApplication.c **** //                MTU_REQ_FLAG=FALSE;
 188:.\BLEApplication.c **** //                /* Initiate an MTU exchange request */
 189:.\BLEApplication.c **** //                CyBle_GattcExchangeMtuReq(cyBle_connHandle, CYBLE_GATT_MTU);
 190:.\BLEApplication.c **** //            }
 191:.\BLEApplication.c ****         break;
 192:.\BLEApplication.c ****         case CYBLE_EVT_GAP_CONNECTION_UPDATE_COMPLETE: 
 193:.\BLEApplication.c **** //            Ëé∑ÂèñËøûÊé•ÂèÇÊï∞‰ø°ÊÅØ
 194:.\BLEApplication.c ****             ConnParam=*(CYBLE_GAP_CONN_PARAM_UPDATED_IN_CONTROLLER_T *)eventParam;
 195:.\BLEApplication.c **** //            printf("+UPDATECONN_EVT=OK\r\n");
 196:.\BLEApplication.c **** //            if(Role==Central)
 197:.\BLEApplication.c **** //                Timer_Enable();
 198:.\BLEApplication.c ****         break;
 199:.\BLEApplication.c **** //            ‰∏ªÊú∫Êé•Êî∂‰ªéÊú∫ÁöÑMTU‰∫§Êç¢ÂìçÂ∫î
 200:.\BLEApplication.c ****         case CYBLE_EVT_GATTC_XCHNG_MTU_RSP:            
 201:.\BLEApplication.c **** //            negotiatedMtu=((CYBLE_GATT_XCHG_MTU_PARAM_T *)eventParam)->mtu;
 202:.\BLEApplication.c **** //            printf("mtu is %d\r\n",negotiatedMtu);
 203:.\BLEApplication.c ****             /* Enable notifications on the characteristic to get data from the 
 204:.\BLEApplication.c ****              * Server.
 205:.\BLEApplication.c ****              */
 206:.\BLEApplication.c **** //            TroughtTest_Flag=TURE;  
 207:.\BLEApplication.c **** //            UART_UartPutString("Calculating throughput. Please wait...\n\r");
 208:.\BLEApplication.c **** //            Timer_Enable();
ARM GAS  C:\Users\Helon\AppData\Local\Temp\ccKCxrf8.s 			page 6


 209:.\BLEApplication.c **** //            printf("'MTU Exchange Response' received from server device\r\n");
 210:.\BLEApplication.c **** //            if(0x00==writeRequestData.value.val[0])
 211:.\BLEApplication.c **** //                writeRequestData.value.val[0]=0x01;
 212:.\BLEApplication.c **** //            writeRequestData.attrHandle=CYBLE_TROUGHPUT_SERVICE_SPEEDTEST_CHAR_HANDLE;
 213:.\BLEApplication.c **** //            CyBle_GattcWriteCharacteristicValue(cyBle_connHandle, &writeRequestData);   
 214:.\BLEApplication.c **** //            printf("Notify slave is %d",API_RESULT);
 215:.\BLEApplication.c **** //            while((UART_SpiUartGetTxBufferSize() + UART_GET_TX_FIFO_SR_VALID) != 0);//Á≠âÂæÖ‰∏≤Âè
 216:.\BLEApplication.c ****             break;
 217:.\BLEApplication.c ****         /* GATT MTU exchange request - Update the negotiated MTU value */
 218:.\BLEApplication.c **** //            ÂÅö‰∏∫‰ªéÊú∫Êó∂Êé•Êî∂‰∏ªÊú∫ÂèëÈÄÅËøáÊù•ÁöÑMTU‰∫§Êç¢ËØ∑Ê±Ç
 219:.\BLEApplication.c ****         case CYBLE_EVT_GATTS_XCNHG_MTU_REQ:            
 220:.\BLEApplication.c **** //            negotiatedMtu = (((CYBLE_GATT_XCHG_MTU_PARAM_T *)eventParam)->mtu < CYBLE_GATT_MTU) ?
 221:.\BLEApplication.c **** //                            ((CYBLE_GATT_XCHG_MTU_PARAM_T *)eventParam)->mtu : CYBLE_GATT_MTU;
 222:.\BLEApplication.c **** //            CyBle_GattsExchangeMtuRsp(cyBle_connHandle,negotiatedMtu);                           
 223:.\BLEApplication.c **** //                            printf("mtu is %d\r\n",negotiatedMtu);
 224:.\BLEApplication.c **** //            printf("'MTU Exchange Request' received from GATT client device\r\n");
 225:.\BLEApplication.c ****         break;
 226:.\BLEApplication.c ****         case CYBLE_EVT_GAP_DEVICE_DISCONNECTED:   
 227:.\BLEApplication.c ****             cyBle_discoveryModeInfo.advTo = CYBLE_FAST_ADV_TIMEOUT;
 228:.\BLEApplication.c ****             cyBle_discoveryModeInfo.advParam->advIntvMin = CYBLE_FAST_ADV_INT_MIN;
 229:.\BLEApplication.c ****             cyBle_discoveryModeInfo.advParam->advIntvMax = CYBLE_FAST_ADV_INT_MAX;                 
 230:.\BLEApplication.c ****             if(Role==Peripheral)
 231:.\BLEApplication.c ****             {
 232:.\BLEApplication.c ****                printf("+DISCONN_EVT=0x%02X\r\n",*(uint8_t*)eventParam);
 233:.\BLEApplication.c ****                if(!SleepMode)
 234:.\BLEApplication.c ****                {
 235:.\BLEApplication.c ****                    CyBle_GappStartAdvertisement(CYBLE_ADVERTISING_SLOW);
 236:.\BLEApplication.c ****                }
 237:.\BLEApplication.c ****                else
 238:.\BLEApplication.c ****                {
 239:.\BLEApplication.c ****                    LowPower_EN=TURE;
 240:.\BLEApplication.c ****                }
 241:.\BLEApplication.c ****             }
 242:.\BLEApplication.c ****             else
 243:.\BLEApplication.c ****             {
 244:.\BLEApplication.c ****                printf("+DISCONN_EVT=%d,0x%02X\r\n",Conn_or_Disconn_Idx,*(uint8_t*)eventParam);
 245:.\BLEApplication.c ****                if(!SleepMode)
 246:.\BLEApplication.c ****                {
 247:.\BLEApplication.c ****                    CyBle_GapcStartScan(CYBLE_SCANNING_SLOW);
 248:.\BLEApplication.c ****                }
 249:.\BLEApplication.c ****                else
 250:.\BLEApplication.c ****                {
 251:.\BLEApplication.c ****                    LowPower_EN=TURE;
 252:.\BLEApplication.c ****                }
 253:.\BLEApplication.c ****             }
 254:.\BLEApplication.c ****             while((UART_SpiUartGetTxBufferSize() + UART_GET_TX_FIFO_SR_VALID) != 0);//Á≠âÂæÖ‰∏≤Âè£Á
 255:.\BLEApplication.c **** //            LowPower_EN=TURE;
 256:.\BLEApplication.c ****             AUTHFLAG=FALSE;         
 257:.\BLEApplication.c ****             CommandMode=AT_COMMAND_MODE;
 258:.\BLEApplication.c ****             CTS_Write(CTS_OFF);
 259:.\BLEApplication.c ****             /* RESET Uart and flush all buffers */
 260:.\BLEApplication.c ****             UART_Stop();
 261:.\BLEApplication.c ****             UART_SpiUartClearTxBuffer();
 262:.\BLEApplication.c ****             UART_SpiUartClearRxBuffer();
 263:.\BLEApplication.c ****             UART_Start();
 264:.\BLEApplication.c ****         break;
 265:.\BLEApplication.c **** //            ‰ªéÊú∫Êé•Êî∂‰∏ªÊú∫ÁöÑÂÜôËØ∑Ê±ÇÔºåÂπ∂‰∏î‰ªéÊú∫‰∏çÈúÄË¶ÅÂÜôÂìçÂ∫î
ARM GAS  C:\Users\Helon\AppData\Local\Temp\ccKCxrf8.s 			page 7


 266:.\BLEApplication.c ****         case CYBLE_EVT_GATTS_WRITE_CMD_REQ:
 267:.\BLEApplication.c ****             writeParam = *(CYBLE_GATTS_WRITE_REQ_PARAM_T *)eventParam;
 268:.\BLEApplication.c ****             //Ëá™ÂÆö‰πâÊúçÂä°ÁöÑCUSTOM Characteristic
 269:.\BLEApplication.c ****             if(writeParam.handleValPair.attrHandle == 
 270:.\BLEApplication.c ****                CYBLE_TROUGHPUT_SERVICE_CUSTOM_CHARACTERISTIC_CHAR_HANDLE)
 271:.\BLEApplication.c ****             {
 272:.\BLEApplication.c ****                 if(CommandMode==THROUGHT_MODE)
 273:.\BLEApplication.c ****                 {
 274:.\BLEApplication.c ****                     testCount+=writeParam.handleValPair.value.len;    
 275:.\BLEApplication.c **** //                printf("0x");
 276:.\BLEApplication.c **** //                UART_UartPutString("0x");
 277:.\BLEApplication.c ****                     for(i=0;i<writeParam.handleValPair.value.len;i++)
 278:.\BLEApplication.c ****                     {                    
 279:.\BLEApplication.c ****     //                    printf("%02X",writeParam.handleValPair.value.val[i]);
 280:.\BLEApplication.c ****                         UART_UartPutChar(writeParam.handleValPair.value.val[i]);
 281:.\BLEApplication.c ****                     }  
 282:.\BLEApplication.c ****                 }
 283:.\BLEApplication.c **** //                UART_UartPutString("\r\n");
 284:.\BLEApplication.c **** //                printf("\r\n");
 285:.\BLEApplication.c **** //                UART_SpiUartWriteTxData(testCount);
 286:.\BLEApplication.c **** //                printf("%ld\r\n",testCount);
 287:.\BLEApplication.c **** //                printf("+RX=<0x");
 288:.\BLEApplication.c **** //                for(i=0;i<writeParam.handleValPair.value.len;i++)
 289:.\BLEApplication.c **** //                {
 290:.\BLEApplication.c **** //                    printf("%02X",writeParam.handleValPair.value.val[i]);
 291:.\BLEApplication.c **** //                }
 292:.\BLEApplication.c **** //                printf(">\r\n");
 293:.\BLEApplication.c ****             } 
 294:.\BLEApplication.c ****              //Ëá™ÂÆö‰πâÊúçÂä°ÁöÑClient Characteristic
 295:.\BLEApplication.c ****             if(writeParam.handleValPair.attrHandle == 
 296:.\BLEApplication.c ****                CYBLE_TROUGHPUT_SERVICE_CUSTOM_CHARACTERISTIC_CLIENT_CHARACTERISTIC_CONFIGURATION_DE
 297:.\BLEApplication.c ****             {
 298:.\BLEApplication.c ****                 charNotificationEnabled = writeParam.handleValPair.value.val[0];  
 299:.\BLEApplication.c ****                 if(charNotificationEnabled)
 300:.\BLEApplication.c ****                 {               
 301:.\BLEApplication.c ****                     CommandMode=THROUGHT_MODE;
 302:.\BLEApplication.c ****                     CTS_Write(CTS_ON);
 303:.\BLEApplication.c ****                     printf("+MODE=THROUGHT_MODE\r\n");
 304:.\BLEApplication.c ****                 }
 305:.\BLEApplication.c ****                 else
 306:.\BLEApplication.c ****                 {
 307:.\BLEApplication.c ****                     CommandMode=AT_COMMAND_MODE;
 308:.\BLEApplication.c ****                     CTS_Write(CTS_OFF);
 309:.\BLEApplication.c ****                     printf("+MODE=AT_COMMAND_MODE\r\n");
 310:.\BLEApplication.c ****                 }
 311:.\BLEApplication.c ****             }   
 312:.\BLEApplication.c ****         break;
 313:.\BLEApplication.c ****         /* Check if the Client Characteristic Configuration Descriptor is
 314:.\BLEApplication.c ****          * written to. Notification is enabled or disabled accordingly.
 315:.\BLEApplication.c ****         */
 316:.\BLEApplication.c **** //            ‰ªéÊú∫Êé•Êî∂‰∏ªÊú∫ÁöÑÂÜôËØ∑Ê±ÇÔºåÂπ∂‰∏î‰ªéÊú∫Ë¶ÅÊúâÂÜôÂìçÂ∫î
 317:.\BLEApplication.c ****         case CYBLE_EVT_GATTS_WRITE_REQ:
 318:.\BLEApplication.c **** //            writeParam = *(CYBLE_GATTS_WRITE_REQ_PARAM_T *)eventParam;
 319:.\BLEApplication.c **** //            //Ëá™ÂÆö‰πâÊúçÂä°ÁöÑCUSTOM Characteristic
 320:.\BLEApplication.c **** //            if(writeParam.handleValPair.attrHandle == 
 321:.\BLEApplication.c **** //               CYBLE_TROUGHPUT_SERVICE_CUSTOM_CHARACTERISTIC_CHAR_HANDLE)
 322:.\BLEApplication.c **** //            {
ARM GAS  C:\Users\Helon\AppData\Local\Temp\ccKCxrf8.s 			page 8


 323:.\BLEApplication.c **** //                testCount+=writeParam.handleValPair.value.len;
 324:.\BLEApplication.c **** ////                UART_SpiUartWriteTxData(testCount);
 325:.\BLEApplication.c **** ////                printf("%ld\r\n",testCount);
 326:.\BLEApplication.c **** ////                printf("+RX=<0x");
 327:.\BLEApplication.c **** ////                for(i=0;i<writeParam.handleValPair.value.len;i++)
 328:.\BLEApplication.c **** ////                {
 329:.\BLEApplication.c **** ////                    printf("%02X",writeParam.handleValPair.value.val[i]);
 330:.\BLEApplication.c **** ////                }
 331:.\BLEApplication.c **** ////                printf(">\r\n");
 332:.\BLEApplication.c **** //            } 
 333:.\BLEApplication.c **** //            //Ëá™ÂÆö‰πâÊúçÂä°ÁöÑClient Characteristic
 334:.\BLEApplication.c **** //            if(writeParam.handleValPair.attrHandle == 
 335:.\BLEApplication.c **** //               CYBLE_TROUGHPUT_SERVICE_CUSTOM_CHARACTERISTIC_CLIENT_CHARACTERISTIC_CONFIGURATION_
 336:.\BLEApplication.c **** //            {
 337:.\BLEApplication.c **** //                charNotificationEnabled = writeParam.handleValPair.value.val[0];  
 338:.\BLEApplication.c **** //                if(charNotificationEnabled)
 339:.\BLEApplication.c **** //                {               
 340:.\BLEApplication.c **** //                    CommandMode=THROUGHT_MODE;
 341:.\BLEApplication.c **** //                    printf("+MODE=<THROUGHT_MODE>\r\n");
 342:.\BLEApplication.c **** //                }
 343:.\BLEApplication.c **** //                else
 344:.\BLEApplication.c **** //                {
 345:.\BLEApplication.c **** //                    CommandMode=AT_COMMAND_MODE;
 346:.\BLEApplication.c **** //                    printf("+MODE=<AT_COMMAND_MODE>\r\n");
 347:.\BLEApplication.c **** //                }
 348:.\BLEApplication.c **** //            }   
 349:.\BLEApplication.c **** //            //Ëá™ÂÆö‰πâÊúçÂä°ÁöÑSPEEDTEST Characteristic
 350:.\BLEApplication.c **** //            if(writeParam.handleValPair.attrHandle == 
 351:.\BLEApplication.c **** //               CYBLE_TROUGHPUT_SERVICE_SPEEDTEST_CHAR_HANDLE)
 352:.\BLEApplication.c **** //            {
 353:.\BLEApplication.c **** //                TroughtTest_Flag = writeParam.handleValPair.value.val[0];                
 354:.\BLEApplication.c **** //            }               
 355:.\BLEApplication.c **** //            CyBle_GattsWriteRsp(cyBle_connHandle);
 356:.\BLEApplication.c ****         break;
 357:.\BLEApplication.c **** //        ÂÅö‰∏∫‰∏ªÊú∫Êó∂ÔºåÊé•Êî∂Âà∞‰ªéÊú∫ÁöÑÂÜôÂìçÂ∫î
 358:.\BLEApplication.c ****         case CYBLE_EVT_GATTC_WRITE_RSP:
 359:.\BLEApplication.c ****             /* Write response for the CCCD write; this means that the
 360:.\BLEApplication.c ****              * notifications are now enabled.
 361:.\BLEApplication.c ****              * Start timing measurements to calculate throughput.
 362:.\BLEApplication.c ****              */
 363:.\BLEApplication.c **** //            if(TroughtTest_Flag)//‰ªÖ‰ªÖÂìçÂ∫îÊµãËØïÈÄè‰º†ÈÄüÁéáÊåá‰ª§,ÂÖ∂‰ªñÂÜôËØ∑Ê±Ç‰∏çÂìçÂ∫î
 364:.\BLEApplication.c **** //            {                
 365:.\BLEApplication.c **** ////                TroughtTest_Flag=FALSE;
 366:.\BLEApplication.c **** //                UART_UartPutString("Calculating throughput. Please wait...\n\r");
 367:.\BLEApplication.c **** //                Timer_Enable();
 368:.\BLEApplication.c **** //            }
 369:.\BLEApplication.c ****         break;
 370:.\BLEApplication.c **** //        case CYBLE_EVT_GATTC_READ_RSP:
 371:.\BLEApplication.c **** //            readParam=*(CYBLE_GATTC_READ_RSP_PARAM_T*)eventParam;
 372:.\BLEApplication.c **** //            if((readParam.value.val[0]))
 373:.\BLEApplication.c **** //                printf("+NOTIFY=<ENABLE>\r\n");
 374:.\BLEApplication.c **** //            else
 375:.\BLEApplication.c **** //                printf("+NOTIFY=<DISABLE>\r\n");
 376:.\BLEApplication.c **** //        break;
 377:.\BLEApplication.c **** //        Êé•Êî∂‰ªéÊú∫ÂèëÈÄÅËøáÊù•ÁöÑÈÄè‰º†Êï∞ÊçÆ            
 378:.\BLEApplication.c ****         case CYBLE_EVT_GATTC_HANDLE_VALUE_NTF:
 379:.\BLEApplication.c ****             if(TroughtTest_Flag==TRUE)
ARM GAS  C:\Users\Helon\AppData\Local\Temp\ccKCxrf8.s 			page 9


 380:.\BLEApplication.c ****             {
 381:.\BLEApplication.c ****                 if(Central==Role)//‰ªÖÊµãËØïÈÄè‰º†ÈÄüÁéáÊó∂ÊúâÊïà
 382:.\BLEApplication.c ****                 {
 383:.\BLEApplication.c ****                     handleValueNotification = (CYBLE_GATTC_HANDLE_VALUE_NTF_PARAM_T *)eventParam;
 384:.\BLEApplication.c ****                     if(handleValueNotification->handleValPair.attrHandle == 0x000E)//NotifyÊùÉÈôêÁö
 385:.\BLEApplication.c ****                     {
 386:.\BLEApplication.c ****         //                printf("Len is %d",handleValueNotification->handleValPair.value.len);
 387:.\BLEApplication.c ****                         totalByteCounter += handleValueNotification->handleValPair.value.len;
 388:.\BLEApplication.c ****                     }
 389:.\BLEApplication.c ****     //                printf("ReceviceNotification\r\n");
 390:.\BLEApplication.c ****                 }
 391:.\BLEApplication.c ****             }
 392:.\BLEApplication.c ****             else
 393:.\BLEApplication.c ****             {
 394:.\BLEApplication.c ****                 if(Central==Role)//Êé•Êî∂‰ªéÊú∫ÂèëÈÄÅËøáÊù•ÁöÑÈÄè‰º†Êï∞ÊçÆ
 395:.\BLEApplication.c ****                 {
 396:.\BLEApplication.c ****                     handleValueNotification = (CYBLE_GATTC_HANDLE_VALUE_NTF_PARAM_T *)eventParam;
 397:.\BLEApplication.c ****                     if(handleValueNotification->handleValPair.attrHandle == 0x000E)//NotifyÊùÉÈôêÁö
 398:.\BLEApplication.c ****                     {
 399:.\BLEApplication.c ****         //                printf("Len is %d",handleValueNotification->handleValPair.value.len);
 400:.\BLEApplication.c ****     //                    totalByteCounter += handleValueNotification->handleValPair.value.len;
 401:.\BLEApplication.c ****     //                    printf("%ld\r\n",totalByteCounter);
 402:.\BLEApplication.c **** //                        printf("+RX=<0x");
 403:.\BLEApplication.c ****                           if(CommandMode==THROUGHT_MODE)
 404:.\BLEApplication.c ****                           {
 405:.\BLEApplication.c ****                             for(i=0;i<handleValueNotification->handleValPair.value.len;i++)
 406:.\BLEApplication.c ****                             {
 407:.\BLEApplication.c ****     //                            printf("%02X",handleValueNotification->handleValPair.value.val[i]
 408:.\BLEApplication.c ****                                 UART_UartPutChar(handleValueNotification->handleValPair.value.val[i
 409:.\BLEApplication.c ****                             }
 410:.\BLEApplication.c ****                           }
 411:.\BLEApplication.c **** //                        printf("\r\n");
 412:.\BLEApplication.c ****                     }
 413:.\BLEApplication.c ****                 }
 414:.\BLEApplication.c ****             }
 415:.\BLEApplication.c ****             break;
 416:.\BLEApplication.c **** //        case CYBLE_EVT_GATTC_READ_BY_TYPE_RSP:
 417:.\BLEApplication.c **** //            DisAllCharResult=*((CYBLE_GATTC_READ_BY_TYPE_RSP_PARAM_T*)eventParam);
 418:.\BLEApplication.c **** //            printf("characteristic declaration is 0x%04X\r\n",DisAllCharResult.connHandle.bdHandl
 419:.\BLEApplication.c **** //            printf("attrLen is %d\r\n",DisAllCharResult.attrData.attrLen);   
 420:.\BLEApplication.c **** //            for(i=0;i<DisAllCharResult.attrData.attrLen;)
 421:.\BLEApplication.c **** //            {
 422:.\BLEApplication.c **** //                printf("Attribute Handle is 0x%02X%02X\r\n",DisAllCharResult.attrData.attrValue[i
 423:.\BLEApplication.c **** //                printf("Properties is 0x%02X\r\n",DisAllCharResult.attrData.attrValue[i+2]); 
 424:.\BLEApplication.c **** //                printf("Pointer Handle is 0x%02X%02X\r\n",DisAllCharResult.attrData.attrValue[i+4
 425:.\BLEApplication.c **** //                printf("UUID is 0x%02X%02X\r\n",DisAllCharResult.attrData.attrValue[i+6],DisAllCh
 426:.\BLEApplication.c **** //                i+=7;
 427:.\BLEApplication.c **** //            }
 428:.\BLEApplication.c **** ////            printf("uuid16 is 0x%04X\r\n",DisAllCharResult.uuid.uuid16); 
 429:.\BLEApplication.c **** ////            printf("uuidFormat is 0x%04X\r\n",DisAllCharResult.uuidFormat); 
 430:.\BLEApplication.c **** ////            printf("valueHandle is 0x%04X\r\n",DisAllCharResult.valueHandle);            
 431:.\BLEApplication.c **** //        break;
 432:.\BLEApplication.c **** //        Êü•ÊâæServerÁöÑÊâÄÊúâÁâπÂæÅÂÄº
 433:.\BLEApplication.c ****         case CYBLE_EVT_GATTC_FIND_INFO_RSP:
 434:.\BLEApplication.c ****             DisAllCharResult=*((CYBLE_GATTC_FIND_INFO_RSP_PARAM_T *)eventParam);
 435:.\BLEApplication.c **** //            printf("+DISALLCHAR=<0x%02X%02X,",);
 436:.\BLEApplication.c **** //            printf("connHandle is 0x%04X\r\n",DisAllCharResult.connHandle.bdHandle);
ARM GAS  C:\Users\Helon\AppData\Local\Temp\ccKCxrf8.s 			page 10


 437:.\BLEApplication.c **** //            printf("uuidFormat is %d\r\n",DisAllCharResult.uuidFormat);
 438:.\BLEApplication.c **** //            printf("byteCount is %d\r\n",DisAllCharResult.handleValueList.byteCount);
 439:.\BLEApplication.c ****             for(i=0;i<DisAllCharResult.handleValueList.byteCount;)
 440:.\BLEApplication.c ****             {                
 441:.\BLEApplication.c ****                 printf("+DIS_EVT=0x%02X%02X,0x%02X%02X\r\n",
 442:.\BLEApplication.c ****                     DisAllCharResult.handleValueList.list[i+1],DisAllCharResult.handleValueList.lis
 443:.\BLEApplication.c ****                     DisAllCharResult.handleValueList.list[i+3],DisAllCharResult.handleValueList.lis
 444:.\BLEApplication.c ****                 i=i+4;
 445:.\BLEApplication.c ****             }
 446:.\BLEApplication.c ****         break;
 447:.\BLEApplication.c ****         case CYBLE_EVT_GAP_AUTH_REQ:
 448:.\BLEApplication.c ****             if(Role==Peripheral)//‰ªéÊú∫Êé•Êî∂‰∏ªÊú∫ÂèëËµ∑ËÆ§ËØÅËØ∑Ê±Ç
 449:.\BLEApplication.c ****             {
 450:.\BLEApplication.c ****                 CyBle_GappAuthReqReply(cyBle_connHandle.bdHandle,&cyBle_authInfo);
 451:.\BLEApplication.c ****             }
 452:.\BLEApplication.c ****             else
 453:.\BLEApplication.c ****             {
 454:.\BLEApplication.c **** //                CyBle_GappAuthReq();
 455:.\BLEApplication.c ****             }
 456:.\BLEApplication.c ****         break;    
 457:.\BLEApplication.c ****         case CYBLE_EVT_GAP_PASSKEY_DISPLAY_REQUEST://ÊòæÁ§∫ÈöèÊú∫‰∫ßÁîüÁöÑÈÖçÂØπÁ†Å
 458:.\BLEApplication.c **** //            PassKey=*(uint32*)eventParam;   
 459:.\BLEApplication.c ****             if((*(uint32 *)eventParam)<100000)//Ëß£ÂÜ≥ÈöèÊú∫ÈÖçÂØπÁ†ÅÊúÄÈ´ò‰ΩçÊòØ0Êó∂ÁöÑÊÉÖÂÜµ
 460:.\BLEApplication.c ****             {
 461:.\BLEApplication.c ****                 printf("+AUTHKEY=0");
 462:.\BLEApplication.c ****                 printf("%lu\r\n",*(uint32 *)eventParam);                
 463:.\BLEApplication.c ****             }
 464:.\BLEApplication.c ****             else
 465:.\BLEApplication.c ****                 printf("+AUTHKEY=%lu\r\n",*(uint32 *)eventParam);
 466:.\BLEApplication.c ****         break;
 467:.\BLEApplication.c ****         case CYBLE_EVT_GAP_PASSKEY_ENTRY_REQUEST:
 468:.\BLEApplication.c ****             KEYBOARD=TURE;//Ê†áËÆ∞Ê≠§Êó∂Ê≠§ËÆæÂ§áÂÖ∑ÊúâËæìÂÖ•ËÉΩÂäõ
  77              		.loc 1 468 0
  78 003c 1A75     		strb	r2, [r3, #20]
 469:.\BLEApplication.c ****             printf("Please Input PassKey:\r\n");            
  79              		.loc 1 469 0
  80 003e 9548     		ldr	r0, .L53+8
  81              	.LVL4:
  82 0040 17E1     		b	.L49
  83              	.LVL5:
  84              	.L4:
 114:.\BLEApplication.c ****     {
  85              		.loc 1 114 0
  86 0042 2A28     		cmp	r0, #42
  87 0044 63D0     		beq	.L13
  88 0046 05D8     		bhi	.L14
  89 0048 2728     		cmp	r0, #39
  90 004a 3DD0     		beq	.L15
  91 004c 33D3     		bcc	.L16
  92 004e 2828     		cmp	r0, #40
  93 0050 62D0     		beq	.L17
  94 0052 18E1     		b	.L1
  95              	.L14:
  96 0054 4728     		cmp	r0, #71
  97 0056 00D1     		bne	.LCB70
  98 0058 E3E0     		b	.L18	@long jump
  99              	.LCB70:
ARM GAS  C:\Users\Helon\AppData\Local\Temp\ccKCxrf8.s 			page 11


 100 005a 02D8     		bhi	.L19
 101 005c 2B28     		cmp	r0, #43
 102 005e 19D0     		beq	.L20
 103 0060 11E1     		b	.L1
 104              	.L19:
 105 0062 4E28     		cmp	r0, #78
 106 0064 00D1     		bne	.LCB80
 107 0066 92E0     		b	.L21	@long jump
 108              	.LCB80:
 109 0068 5228     		cmp	r0, #82
 110 006a 00D1     		bne	.LCB82
 111 006c B7E0     		b	.L22	@long jump
 112              	.LCB82:
 113 006e 0AE1     		b	.L1
 114              	.LVL6:
 115              	.L23:
 118:.\BLEApplication.c **** //            StartScan=TRUE;     
 116              		.loc 1 118 0 discriminator 5
 117 0070 FFF7FEFF 		bl	UART_SpiUartGetTxBufferSize
 118              	.LVL7:
 119 0074 884B     		ldr	r3, .L53+12
 120 0076 1B68     		ldr	r3, [r3]
 121 0078 1B04     		lsl	r3, r3, #16
 122 007a DB17     		asr	r3, r3, #31
 123 007c 8342     		cmp	r3, r0
 124 007e F7D1     		bne	.L23
 125 0080 01E1     		b	.L1
 126              	.LVL8:
 127              	.L8:
 123:.\BLEApplication.c ****             HandleScanDevices(&Scan_Result);               
 128              		.loc 1 123 0
 129 0082 03A8     		add	r0, sp, #12
 130              	.LVL9:
 131 0084 031C     		mov	r3, r0
 132 0086 26CC     		ldmia	r4!, {r1, r2, r5}
 133 0088 26C3     		stmia	r3!, {r1, r2, r5}
 134              	.LVL10:
 135 008a 06CC     		ldmia	r4!, {r1, r2}
 136 008c 06C3     		stmia	r3!, {r1, r2}
 137              	.LVL11:
 124:.\BLEApplication.c **** //            CyBle_GapcStopScan();
 138              		.loc 1 124 0
 139 008e FFF7FEFF 		bl	HandleScanDevices
 140              	.LVL12:
 126:.\BLEApplication.c ****         case CYBLE_EVT_GAPC_SCAN_START_STOP:
 141              		.loc 1 126 0
 142 0092 F8E0     		b	.L1
 143              	.LVL13:
 144              	.L20:
 128:.\BLEApplication.c ****             {
 145              		.loc 1 128 0
 146 0094 7E4B     		ldr	r3, .L53+4
 147 0096 1A78     		ldrb	r2, [r3]
 148 0098 002A     		cmp	r2, #0
 149 009a 00D1     		bne	.LCB124
 150 009c F3E0     		b	.L1	@long jump
 151              	.LCB124:
ARM GAS  C:\Users\Helon\AppData\Local\Temp\ccKCxrf8.s 			page 12


 130:.\BLEApplication.c ****                 printf("+SCAN_STOP\r\n");
 152              		.loc 1 130 0
 153 009e 0022     		mov	r2, #0
 131:.\BLEApplication.c ****             }
 154              		.loc 1 131 0
 155 00a0 7E48     		ldr	r0, .L53+16
 156              	.LVL14:
 130:.\BLEApplication.c ****                 printf("+SCAN_STOP\r\n");
 157              		.loc 1 130 0
 158 00a2 1A70     		strb	r2, [r3]
 159 00a4 E5E0     		b	.L49
 160              	.LVL15:
 161              	.L7:
 140:.\BLEApplication.c ****             {   
 162              		.loc 1 140 0
 163 00a6 0B78     		ldrb	r3, [r1]
 164 00a8 022B     		cmp	r3, #2
 165 00aa 00D0     		beq	.LCB136
 166 00ac EBE0     		b	.L1	@long jump
 167              	.LCB136:
 142:.\BLEApplication.c ****                 printf("+SCAN_CMP\r\n");                    
 168              		.loc 1 142 0
 169 00ae FFF7FEFF 		bl	CyBle_GapcStopScan
 170              	.LVL16:
 143:.\BLEApplication.c ****             }
 171              		.loc 1 143 0
 172 00b2 7B48     		ldr	r0, .L53+20
 173 00b4 DDE0     		b	.L49
 174              	.LVL17:
 175              	.L16:
 153:.\BLEApplication.c ****             {
 176              		.loc 1 153 0
 177 00b6 7B4B     		ldr	r3, .L53+24
 178 00b8 1B78     		ldrb	r3, [r3]
 179 00ba 032B     		cmp	r3, #3
 180 00bc 00D1     		bne	.LCB151
 181 00be E2E0     		b	.L1	@long jump
 182              	.LCB151:
 155:.\BLEApplication.c ****             }
 183              		.loc 1 155 0
 184 00c0 0120     		mov	r0, #1
 185              	.LVL18:
 186 00c2 FFF7FEFF 		bl	CyBle_GappStartAdvertisement
 187              	.LVL19:
 188 00c6 DEE0     		b	.L1
 189              	.LVL20:
 190              	.L15:
 160:.\BLEApplication.c ****             if(Role==Peripheral)
 191              		.loc 1 160 0
 192 00c8 0822     		mov	r2, #8
 193 00ca 7748     		ldr	r0, .L53+28
 194              	.LVL21:
 195 00cc FFF7FEFF 		bl	memcpy
 196              	.LVL22:
 161:.\BLEApplication.c ****             {
 197              		.loc 1 161 0
 198 00d0 6F4B     		ldr	r3, .L53+4
ARM GAS  C:\Users\Helon\AppData\Local\Temp\ccKCxrf8.s 			page 13


 199 00d2 764C     		ldr	r4, .L53+32
 200              	.LVL23:
 201 00d4 5A78     		ldrb	r2, [r3, #1]
 202 00d6 764D     		ldr	r5, .L53+36
 203 00d8 002A     		cmp	r2, #0
 204 00da 07D1     		bne	.L25
 163:.\BLEApplication.c **** //                handleValuePair.value.val[0]=0x01;
 205              		.loc 1 163 0
 206 00dc 7548     		ldr	r0, .L53+40
 207 00de FFF7FEFF 		bl	puts
 208              	.LVL24:
 170:.\BLEApplication.c ****                 #ifdef RELEASE
 209              		.loc 1 170 0
 210 00e2 2078     		ldrb	r0, [r4]
 211 00e4 291C     		mov	r1, r5
 212 00e6 FFF7FEFF 		bl	CyBle_L2capLeConnectionParamUpdateRequest
 213              	.LVL25:
 214 00ea CCE0     		b	.L1
 215              	.L25:
 178:.\BLEApplication.c **** //                ‰∏é‰ªéÊú∫ËøûÊé•ÊàêÂäüÂêéÔºå‰∏ªÊú∫ÂèëËµ∑ËøûÊé•Èó¥ÈöîÊõ¥Êñ∞ËØ∑Ê±Ç
 216              		.loc 1 178 0
 217 00ec 9978     		ldrb	r1, [r3, #2]
 218 00ee 7248     		ldr	r0, .L53+44
 219 00f0 FFF7FEFF 		bl	printf
 220              	.LVL26:
 180:.\BLEApplication.c ****                 /* Initiate an MTU exchange request CYBLE_GATT_MTU*/
 221              		.loc 1 180 0
 222 00f4 291C     		mov	r1, r5
 223 00f6 2078     		ldrb	r0, [r4]
 224 00f8 FFF7FEFF 		bl	CyBle_GapcConnectionParamUpdateRequest
 225              	.LVL27:
 182:.\BLEApplication.c ****             }
 226              		.loc 1 182 0
 227 00fc 8021     		mov	r1, #128
 228 00fe 6078     		ldrb	r0, [r4, #1]
 229 0100 2378     		ldrb	r3, [r4]
 230 0102 0002     		lsl	r0, r0, #8
 231 0104 1843     		orr	r0, r3
 232 0106 8900     		lsl	r1, r1, #2
 233 0108 FFF7FEFF 		bl	CyBle_GattcExchangeMtuReq
 234              	.LVL28:
 235 010c BBE0     		b	.L1
 236              	.LVL29:
 237              	.L13:
 194:.\BLEApplication.c **** //            printf("+UPDATECONN_EVT=OK\r\n");
 238              		.loc 1 194 0
 239 010e 0822     		mov	r2, #8
 240 0110 6548     		ldr	r0, .L53+28
 241              	.LVL30:
 242 0112 FFF7FEFF 		bl	memcpy
 243              	.LVL31:
 198:.\BLEApplication.c **** //            ‰∏ªÊú∫Êé•Êî∂‰ªéÊú∫ÁöÑMTU‰∫§Êç¢ÂìçÂ∫î
 244              		.loc 1 198 0
 245 0116 B6E0     		b	.L1
 246              	.LVL32:
 247              	.L17:
 227:.\BLEApplication.c ****             cyBle_discoveryModeInfo.advParam->advIntvMin = CYBLE_FAST_ADV_INT_MIN;
ARM GAS  C:\Users\Helon\AppData\Local\Temp\ccKCxrf8.s 			page 14


 248              		.loc 1 227 0
 249 0118 1E22     		mov	r2, #30
 250 011a 684B     		ldr	r3, .L53+48
 230:.\BLEApplication.c ****             {
 251              		.loc 1 230 0
 252 011c 5C4D     		ldr	r5, .L53+4
 227:.\BLEApplication.c ****             cyBle_discoveryModeInfo.advParam->advIntvMin = CYBLE_FAST_ADV_INT_MIN;
 253              		.loc 1 227 0
 254 011e 1A82     		strh	r2, [r3, #16]
 228:.\BLEApplication.c ****             cyBle_discoveryModeInfo.advParam->advIntvMax = CYBLE_FAST_ADV_INT_MAX;                 
 255              		.loc 1 228 0
 256 0120 5B68     		ldr	r3, [r3, #4]
 257 0122 0232     		add	r2, r2, #2
 258 0124 1A80     		strh	r2, [r3]
 229:.\BLEApplication.c ****             if(Role==Peripheral)
 259              		.loc 1 229 0
 260 0126 5A80     		strh	r2, [r3, #2]
 230:.\BLEApplication.c ****             {
 261              		.loc 1 230 0
 262 0128 6B78     		ldrb	r3, [r5, #1]
 263 012a 0A78     		ldrb	r2, [r1]
 264 012c 604C     		ldr	r4, .L53+36
 265 012e 002B     		cmp	r3, #0
 266 0130 0DD1     		bne	.L26
 232:.\BLEApplication.c ****                if(!SleepMode)
 267              		.loc 1 232 0
 268 0132 6348     		ldr	r0, .L53+52
 269              	.LVL33:
 270 0134 111C     		mov	r1, r2
 271              	.LVL34:
 272 0136 FFF7FEFF 		bl	printf
 273              	.LVL35:
 233:.\BLEApplication.c ****                {
 274              		.loc 1 233 0
 275 013a 237A     		ldrb	r3, [r4, #8]
 276 013c 002B     		cmp	r3, #0
 277 013e 03D1     		bne	.L27
 235:.\BLEApplication.c ****                }
 278              		.loc 1 235 0
 279 0140 0120     		mov	r0, #1
 280 0142 FFF7FEFF 		bl	CyBle_GappStartAdvertisement
 281              	.LVL36:
 282 0146 0CE0     		b	.L29
 283              	.L27:
 239:.\BLEApplication.c ****                }
 284              		.loc 1 239 0
 285 0148 0123     		mov	r3, #1
 286 014a 6372     		strb	r3, [r4, #9]
 287 014c 09E0     		b	.L29
 288              	.LVL37:
 289              	.L26:
 244:.\BLEApplication.c ****                if(!SleepMode)
 290              		.loc 1 244 0
 291 014e A978     		ldrb	r1, [r5, #2]
 292              	.LVL38:
 293 0150 5C48     		ldr	r0, .L53+56
 294              	.LVL39:
ARM GAS  C:\Users\Helon\AppData\Local\Temp\ccKCxrf8.s 			page 15


 295 0152 FFF7FEFF 		bl	printf
 296              	.LVL40:
 245:.\BLEApplication.c ****                {
 297              		.loc 1 245 0
 298 0156 237A     		ldrb	r3, [r4, #8]
 299 0158 002B     		cmp	r3, #0
 300 015a F5D1     		bne	.L27
 247:.\BLEApplication.c ****                }
 301              		.loc 1 247 0
 302 015c 0120     		mov	r0, #1
 303 015e FFF7FEFF 		bl	CyBle_GapcStartScan
 304              	.LVL41:
 305              	.L29:
 254:.\BLEApplication.c **** //            LowPower_EN=TURE;
 306              		.loc 1 254 0 discriminator 5
 307 0162 FFF7FEFF 		bl	UART_SpiUartGetTxBufferSize
 308              	.LVL42:
 309 0166 4C4B     		ldr	r3, .L53+12
 310 0168 1B68     		ldr	r3, [r3]
 311 016a 1B04     		lsl	r3, r3, #16
 312 016c DB0F     		lsr	r3, r3, #31
 313 016e C018     		add	r0, r0, r3
 314 0170 0028     		cmp	r0, #0
 315 0172 F6D1     		bne	.L29
 256:.\BLEApplication.c ****             CommandMode=AT_COMMAND_MODE;
 316              		.loc 1 256 0
 317 0174 E870     		strb	r0, [r5, #3]
 257:.\BLEApplication.c ****             CTS_Write(CTS_OFF);
 318              		.loc 1 257 0
 319 0176 2871     		strb	r0, [r5, #4]
 258:.\BLEApplication.c ****             /* RESET Uart and flush all buffers */
 320              		.loc 1 258 0
 321 0178 FFF7FEFF 		bl	CTS_Write
 322              	.LVL43:
 260:.\BLEApplication.c ****             UART_SpiUartClearTxBuffer();
 323              		.loc 1 260 0
 324 017c FFF7FEFF 		bl	UART_Stop
 325              	.LVL44:
 261:.\BLEApplication.c ****             UART_SpiUartClearRxBuffer();
 326              		.loc 1 261 0
 327 0180 FFF7FEFF 		bl	UART_SpiUartClearTxBuffer
 328              	.LVL45:
 262:.\BLEApplication.c ****             UART_Start();
 329              		.loc 1 262 0
 330 0184 FFF7FEFF 		bl	UART_SpiUartClearRxBuffer
 331              	.LVL46:
 263:.\BLEApplication.c ****         break;
 332              		.loc 1 263 0
 333 0188 FFF7FEFF 		bl	UART_Start
 334              	.LVL47:
 264:.\BLEApplication.c **** //            ‰ªéÊú∫Êé•Êî∂‰∏ªÊú∫ÁöÑÂÜôËØ∑Ê±ÇÔºåÂπ∂‰∏î‰ªéÊú∫‰∏çÈúÄË¶ÅÂÜôÂìçÂ∫î
 335              		.loc 1 264 0
 336 018c 7BE0     		b	.L1
 337              	.LVL48:
 338              	.L21:
 267:.\BLEApplication.c ****             //Ëá™ÂÆö‰πâÊúçÂä°ÁöÑCUSTOM Characteristic
 339              		.loc 1 267 0
ARM GAS  C:\Users\Helon\AppData\Local\Temp\ccKCxrf8.s 			page 16


 340 018e 8B89     		ldrh	r3, [r1, #12]
 341 0190 4D68     		ldr	r5, [r1, #4]
 342              	.LVL49:
 343 0192 0E89     		ldrh	r6, [r1, #8]
 344              	.LVL50:
 269:.\BLEApplication.c ****                CYBLE_TROUGHPUT_SERVICE_CUSTOM_CHARACTERISTIC_CHAR_HANDLE)
 345              		.loc 1 269 0
 346 0194 0E2B     		cmp	r3, #14
 347 0196 0FD1     		bne	.L30
 272:.\BLEApplication.c ****                 {
 348              		.loc 1 272 0
 349 0198 3D4B     		ldr	r3, .L53+4
 350              	.LVL51:
 351 019a 1A79     		ldrb	r2, [r3, #4]
 352 019c 012A     		cmp	r2, #1
 353 019e 72D1     		bne	.L1
 277:.\BLEApplication.c ****                     {                    
 354              		.loc 1 277 0
 355 01a0 0024     		mov	r4, #0
 274:.\BLEApplication.c **** //                printf("0x");
 356              		.loc 1 274 0
 357 01a2 9A68     		ldr	r2, [r3, #8]
 358 01a4 B218     		add	r2, r6, r2
 359 01a6 9A60     		str	r2, [r3, #8]
 360              	.LVL52:
 361              	.L32:
 277:.\BLEApplication.c ****                     {                    
 362              		.loc 1 277 0 discriminator 1
 363 01a8 B442     		cmp	r4, r6
 364 01aa 6CD2     		bcs	.L1
 280:.\BLEApplication.c ****                     }  
 365              		.loc 1 280 0 discriminator 3
 366 01ac 285D     		ldrb	r0, [r5, r4]
 277:.\BLEApplication.c ****                     {                    
 367              		.loc 1 277 0 discriminator 3
 368 01ae 0134     		add	r4, r4, #1
 369              	.LVL53:
 280:.\BLEApplication.c ****                     }  
 370              		.loc 1 280 0 discriminator 3
 371 01b0 FFF7FEFF 		bl	UART_SpiUartWriteTxData
 372              	.LVL54:
 277:.\BLEApplication.c ****                     {                    
 373              		.loc 1 277 0 discriminator 3
 374 01b4 E4B2     		uxtb	r4, r4
 375              	.LVL55:
 376 01b6 F7E7     		b	.L32
 377              	.LVL56:
 378              	.L30:
 295:.\BLEApplication.c ****                CYBLE_TROUGHPUT_SERVICE_CUSTOM_CHARACTERISTIC_CLIENT_CHARACTERISTIC_CONFIGURATION_DE
 379              		.loc 1 295 0
 380 01b8 0F2B     		cmp	r3, #15
 381 01ba 64D1     		bne	.L1
 298:.\BLEApplication.c ****                 if(charNotificationEnabled)
 382              		.loc 1 298 0
 383 01bc 2A78     		ldrb	r2, [r5]
 384 01be 344B     		ldr	r3, .L53+4
 385              	.LVL57:
ARM GAS  C:\Users\Helon\AppData\Local\Temp\ccKCxrf8.s 			page 17


 386 01c0 1A73     		strb	r2, [r3, #12]
 299:.\BLEApplication.c ****                 {               
 387              		.loc 1 299 0
 388 01c2 002A     		cmp	r2, #0
 389 01c4 05D0     		beq	.L34
 301:.\BLEApplication.c ****                     CTS_Write(CTS_ON);
 390              		.loc 1 301 0
 391 01c6 0120     		mov	r0, #1
 392              	.LVL58:
 393 01c8 1871     		strb	r0, [r3, #4]
 302:.\BLEApplication.c ****                     printf("+MODE=THROUGHT_MODE\r\n");
 394              		.loc 1 302 0
 395 01ca FFF7FEFF 		bl	CTS_Write
 396              	.LVL59:
 303:.\BLEApplication.c ****                 }
 397              		.loc 1 303 0
 398 01ce 3E48     		ldr	r0, .L53+60
 399 01d0 4FE0     		b	.L49
 400              	.LVL60:
 401              	.L34:
 307:.\BLEApplication.c ****                     CTS_Write(CTS_OFF);
 402              		.loc 1 307 0
 403 01d2 0020     		mov	r0, #0
 404              	.LVL61:
 405 01d4 1871     		strb	r0, [r3, #4]
 308:.\BLEApplication.c ****                     printf("+MODE=AT_COMMAND_MODE\r\n");
 406              		.loc 1 308 0
 407 01d6 FFF7FEFF 		bl	CTS_Write
 408              	.LVL62:
 309:.\BLEApplication.c ****                 }
 409              		.loc 1 309 0
 410 01da 3C48     		ldr	r0, .L53+64
 411 01dc 49E0     		b	.L49
 412              	.LVL63:
 413              	.L22:
 379:.\BLEApplication.c ****             {
 414              		.loc 1 379 0
 415 01de 2C4B     		ldr	r3, .L53+4
 416 01e0 597B     		ldrb	r1, [r3, #13]
 417              	.LVL64:
 418 01e2 5A78     		ldrb	r2, [r3, #1]
 419 01e4 0129     		cmp	r1, #1
 420 01e6 09D1     		bne	.L35
 381:.\BLEApplication.c ****                 {
 421              		.loc 1 381 0
 422 01e8 012A     		cmp	r2, #1
 423 01ea 4CD1     		bne	.L1
 424              	.LVL65:
 384:.\BLEApplication.c ****                     {
 425              		.loc 1 384 0
 426 01ec A289     		ldrh	r2, [r4, #12]
 427 01ee 0E2A     		cmp	r2, #14
 428 01f0 49D1     		bne	.L1
 387:.\BLEApplication.c ****                     }
 429              		.loc 1 387 0
 430 01f2 2289     		ldrh	r2, [r4, #8]
 431 01f4 1969     		ldr	r1, [r3, #16]
ARM GAS  C:\Users\Helon\AppData\Local\Temp\ccKCxrf8.s 			page 18


 432 01f6 5218     		add	r2, r2, r1
 433 01f8 1A61     		str	r2, [r3, #16]
 434 01fa 44E0     		b	.L1
 435              	.LVL66:
 436              	.L35:
 394:.\BLEApplication.c ****                 {
 437              		.loc 1 394 0
 438 01fc 012A     		cmp	r2, #1
 439 01fe 42D1     		bne	.L1
 440              	.LVL67:
 397:.\BLEApplication.c ****                     {
 441              		.loc 1 397 0
 442 0200 A289     		ldrh	r2, [r4, #12]
 443 0202 0E2A     		cmp	r2, #14
 444 0204 3FD1     		bne	.L1
 403:.\BLEApplication.c ****                           {
 445              		.loc 1 403 0
 446 0206 1B79     		ldrb	r3, [r3, #4]
 447 0208 012B     		cmp	r3, #1
 448 020a 3CD1     		bne	.L1
 449 020c 0025     		mov	r5, #0
 450              	.LVL68:
 451              	.L36:
 405:.\BLEApplication.c ****                             {
 452              		.loc 1 405 0 discriminator 1
 453 020e 2389     		ldrh	r3, [r4, #8]
 454 0210 AB42     		cmp	r3, r5
 455 0212 38D9     		bls	.L1
 408:.\BLEApplication.c ****                             }
 456              		.loc 1 408 0 discriminator 3
 457 0214 6368     		ldr	r3, [r4, #4]
 458 0216 585D     		ldrb	r0, [r3, r5]
 405:.\BLEApplication.c ****                             {
 459              		.loc 1 405 0 discriminator 3
 460 0218 0135     		add	r5, r5, #1
 461              	.LVL69:
 408:.\BLEApplication.c ****                             }
 462              		.loc 1 408 0 discriminator 3
 463 021a FFF7FEFF 		bl	UART_SpiUartWriteTxData
 464              	.LVL70:
 405:.\BLEApplication.c ****                             {
 465              		.loc 1 405 0 discriminator 3
 466 021e EDB2     		uxtb	r5, r5
 467              	.LVL71:
 468 0220 F5E7     		b	.L36
 469              	.LVL72:
 470              	.L18:
 439:.\BLEApplication.c ****             {                
 471              		.loc 1 439 0
 472 0222 0024     		mov	r4, #0
 434:.\BLEApplication.c **** //            printf("+DISALLCHAR=<0x%02X%02X,",);
 473              		.loc 1 434 0
 474 0224 4D68     		ldr	r5, [r1, #4]
 475              	.LVL73:
 476 0226 0E89     		ldrh	r6, [r1, #8]
 477              	.LVL74:
 478              	.L38:
ARM GAS  C:\Users\Helon\AppData\Local\Temp\ccKCxrf8.s 			page 19


 439:.\BLEApplication.c ****             {                
 479              		.loc 1 439 0 discriminator 1
 480 0228 B442     		cmp	r4, r6
 481 022a 2CD2     		bcs	.L1
 442:.\BLEApplication.c ****                     DisAllCharResult.handleValueList.list[i+3],DisAllCharResult.handleValueList.lis
 482              		.loc 1 442 0
 483 022c 2819     		add	r0, r5, r4
 441:.\BLEApplication.c ****                     DisAllCharResult.handleValueList.list[i+1],DisAllCharResult.handleValueList.lis
 484              		.loc 1 441 0
 485 022e 4178     		ldrb	r1, [r0, #1]
 486 0230 C378     		ldrb	r3, [r0, #3]
 487 0232 8078     		ldrb	r0, [r0, #2]
 488 0234 2A5D     		ldrb	r2, [r5, r4]
 489 0236 0090     		str	r0, [sp]
 444:.\BLEApplication.c ****             }
 490              		.loc 1 444 0
 491 0238 0434     		add	r4, r4, #4
 492              	.LVL75:
 441:.\BLEApplication.c ****                     DisAllCharResult.handleValueList.list[i+1],DisAllCharResult.handleValueList.lis
 493              		.loc 1 441 0
 494 023a 2548     		ldr	r0, .L53+68
 495 023c FFF7FEFF 		bl	printf
 496              	.LVL76:
 444:.\BLEApplication.c ****             }
 497              		.loc 1 444 0
 498 0240 E4B2     		uxtb	r4, r4
 499              	.LVL77:
 500 0242 F1E7     		b	.L38
 501              	.LVL78:
 502              	.L5:
 448:.\BLEApplication.c ****             {
 503              		.loc 1 448 0
 504 0244 124B     		ldr	r3, .L53+4
 505 0246 5B78     		ldrb	r3, [r3, #1]
 506 0248 002B     		cmp	r3, #0
 507 024a 1CD1     		bne	.L1
 450:.\BLEApplication.c ****             }
 508              		.loc 1 450 0
 509 024c 174B     		ldr	r3, .L53+32
 510 024e 2149     		ldr	r1, .L53+72
 511              	.LVL79:
 512 0250 1878     		ldrb	r0, [r3]
 513              	.LVL80:
 514 0252 FFF7FEFF 		bl	CyBle_GappAuthReqReply
 515              	.LVL81:
 516 0256 16E0     		b	.L1
 517              	.LVL82:
 518              	.L10:
 459:.\BLEApplication.c ****             {
 519              		.loc 1 459 0
 520 0258 0968     		ldr	r1, [r1]
 521              	.LVL83:
 522 025a 1F4B     		ldr	r3, .L53+76
 465:.\BLEApplication.c ****         break;
 523              		.loc 1 465 0
 524 025c 1F48     		ldr	r0, .L53+80
 525              	.LVL84:
ARM GAS  C:\Users\Helon\AppData\Local\Temp\ccKCxrf8.s 			page 20


 459:.\BLEApplication.c ****             {
 526              		.loc 1 459 0
 527 025e 9942     		cmp	r1, r3
 528 0260 04D8     		bhi	.L51
 461:.\BLEApplication.c ****                 printf("%lu\r\n",*(uint32 *)eventParam);                
 529              		.loc 1 461 0
 530 0262 1F48     		ldr	r0, .L53+84
 531 0264 FFF7FEFF 		bl	printf
 532              	.LVL85:
 462:.\BLEApplication.c ****             }
 533              		.loc 1 462 0
 534 0268 1E48     		ldr	r0, .L53+88
 535 026a 2168     		ldr	r1, [r4]
 536              	.L51:
 465:.\BLEApplication.c ****         break;
 537              		.loc 1 465 0
 538 026c FFF7FEFF 		bl	printf
 539              	.LVL86:
 540 0270 09E0     		b	.L1
 541              	.L49:
 542              		.loc 1 469 0
 543 0272 FFF7FEFF 		bl	puts
 544              	.LVL87:
 470:.\BLEApplication.c ****         break;
 545              		.loc 1 470 0
 546 0276 06E0     		b	.L1
 547              	.LVL88:
 548              	.L3:
 471:.\BLEApplication.c ****         case CYBLE_EVT_GAP_AUTH_COMPLETE:
 472:.\BLEApplication.c **** //             printf("+AUTH=OK\r\n");
 473:.\BLEApplication.c ****              AUTHFLAG=TURE;
 474:.\BLEApplication.c ****         break;
 475:.\BLEApplication.c ****         case CYBLE_EVT_GAP_AUTH_FAILED:            
 476:.\BLEApplication.c ****             printf("AT+AUTHERR=%d\r\n",*(CYBLE_GAP_AUTH_FAILED_REASON_T*)eventParam);
 549              		.loc 1 476 0
 550 0278 0978     		ldrb	r1, [r1]
 551              	.LVL89:
 552 027a 1B48     		ldr	r0, .L53+92
 553              	.LVL90:
 554 027c FFF7FEFF 		bl	printf
 555              	.LVL91:
 477:.\BLEApplication.c ****             AUTHFLAG=FALSE;
 556              		.loc 1 477 0
 557 0280 0022     		mov	r2, #0
 558 0282 034B     		ldr	r3, .L53+4
 559              	.L50:
 560 0284 DA70     		strb	r2, [r3, #3]
 561              	.LVL92:
 562              	.L1:
 478:.\BLEApplication.c ****         break;
 479:.\BLEApplication.c ****         default:
 480:.\BLEApplication.c ****         break;
 481:.\BLEApplication.c ****     
 482:.\BLEApplication.c ****     }
 483:.\BLEApplication.c **** }
 563              		.loc 1 483 0
 564 0286 08B0     		add	sp, sp, #32
ARM GAS  C:\Users\Helon\AppData\Local\Temp\ccKCxrf8.s 			page 21


 565              		@ sp needed
 566 0288 70BD     		pop	{r4, r5, r6, pc}
 567              	.L54:
 568 028a C046     		.align	2
 569              	.L53:
 570 028c 00000000 		.word	.LC0
 571 0290 00000000 		.word	.LANCHOR0
 572 0294 E1000000 		.word	.LC33
 573 0298 08022440 		.word	1076101640
 574 029c 0E000000 		.word	.LC3
 575 02a0 1A000000 		.word	.LC5
 576 02a4 00000000 		.word	cyBle_state
 577 02a8 00000000 		.word	ConnParam
 578 02ac 00000000 		.word	cyBle_connHandle
 579 02b0 00000000 		.word	.LANCHOR1
 580 02b4 25000000 		.word	.LC9
 581 02b8 33000000 		.word	.LC13
 582 02bc 00000000 		.word	cyBle_discoveryModeInfo
 583 02c0 45000000 		.word	.LC16
 584 02c4 5B000000 		.word	.LC18
 585 02c8 74000000 		.word	.LC20
 586 02cc 89000000 		.word	.LC22
 587 02d0 A0000000 		.word	.LC24
 588 02d4 00000000 		.word	cyBle_authInfo
 589 02d8 9F860100 		.word	99999
 590 02dc D2000000 		.word	.LC31
 591 02e0 C1000000 		.word	.LC27
 592 02e4 CC000000 		.word	.LC29
 593 02e8 F8000000 		.word	.LC35
 594              		.cfi_endproc
 595              	.LFE35:
 596              		.size	StackEventHandler, .-StackEventHandler
 597              		.section	.text.MyTimerIsr,"ax",%progbits
 598              		.align	1
 599              		.global	MyTimerIsr
 600              		.code	16
 601              		.thumb_func
 602              		.type	MyTimerIsr, %function
 603              	MyTimerIsr:
 604              	.LFB45:
 484:.\BLEApplication.c **** 
 485:.\BLEApplication.c **** 
 486:.\BLEApplication.c **** /******************************************************************************
 487:.\BLEApplication.c **** * Function Name: LowPowerManagement
 488:.\BLEApplication.c **** ***************************************************************************//**
 489:.\BLEApplication.c **** * 
 490:.\BLEApplication.c **** *  BLE‰ΩéÂäüËÄóÁÆ°ÁêÜ
 491:.\BLEApplication.c **** * 
 492:.\BLEApplication.c **** * \return
 493:.\BLEApplication.c **** *  None
 494:.\BLEApplication.c **** * 
 495:.\BLEApplication.c **** ******************************************************************************/
 496:.\BLEApplication.c **** //uint8_t size=0,ch[10]={0},i=0;
 497:.\BLEApplication.c **** void LowPowerManagement(void)
 498:.\BLEApplication.c **** {
 499:.\BLEApplication.c ****     /* Local variable to store the status of BLESS Hardware block */
 500:.\BLEApplication.c **** 		CYBLE_LP_MODE_T sleepMode;
ARM GAS  C:\Users\Helon\AppData\Local\Temp\ccKCxrf8.s 			page 22


 501:.\BLEApplication.c **** 		CYBLE_BLESS_STATE_T blessState;
 502:.\BLEApplication.c **** 	
 503:.\BLEApplication.c **** 		/* Put BLESS into Deep Sleep and check the return status */
 504:.\BLEApplication.c **** 		sleepMode = CyBle_EnterLPM(CYBLE_BLESS_DEEPSLEEP);
 505:.\BLEApplication.c **** 		
 506:.\BLEApplication.c **** 		/* Disable global interrupt to prevent changes from any other interrupt ISR */
 507:.\BLEApplication.c **** 		CyGlobalIntDisable;
 508:.\BLEApplication.c **** 	
 509:.\BLEApplication.c **** 		/* Check the Status of BLESS */
 510:.\BLEApplication.c **** 		blessState = CyBle_GetBleSsState();
 511:.\BLEApplication.c **** 
 512:.\BLEApplication.c **** 		if(sleepMode == CYBLE_BLESS_DEEPSLEEP)
 513:.\BLEApplication.c **** 		{
 514:.\BLEApplication.c **** 		    /* If the ECO has started or the BLESS can go to Deep Sleep, then place CPU 
 515:.\BLEApplication.c **** 			* to Deep Sleep */
 516:.\BLEApplication.c **** 			if(blessState == CYBLE_BLESS_STATE_ECO_ON || blessState == CYBLE_BLESS_STATE_DEEPSLEEP)
 517:.\BLEApplication.c **** 		    {
 518:.\BLEApplication.c **** //                printf("Device is going into DeepSleep!\r\n");
 519:.\BLEApplication.c ****                 Status_LED_Write(LED_ON);             
 520:.\BLEApplication.c ****                 while((UART_SpiUartGetTxBufferSize() + UART_GET_TX_FIFO_SR_VALID) != 0);//Á≠âÂæÖ‰∏≤
 521:.\BLEApplication.c ****                 UART_Sleep();
 522:.\BLEApplication.c **** 		        CySysPmDeepSleep();
 523:.\BLEApplication.c ****                 UART_Wakeup();
 524:.\BLEApplication.c ****                 CyDelay(5);
 525:.\BLEApplication.c ****                 UART_SpiUartClearRxBuffer();//Ê∏ÖÈô§‰∏≤Âè£Êé•Êî∂ÁºìÂÜ≤Âå∫
 526:.\BLEApplication.c ****                 UART_RX_WAKEUP_IRQ_ClearPending();
 527:.\BLEApplication.c **** //                UART_SCB_IRQ_ClearPending();
 528:.\BLEApplication.c ****                 UART_rx_wake_ClearInterrupt();                
 529:.\BLEApplication.c **** //                UART_RX_WAKEUP_IRQ_Disable();
 530:.\BLEApplication.c **** //                UART_UartPutString("Device is WakeUp!\r\n");                
 531:.\BLEApplication.c **** //                Âî§ÈÜíÂêé‰ΩøËÉΩ‰∏≤Âè£Êé•Êî∂‰∏≠Êñ≠
 532:.\BLEApplication.c **** //                  UART_SetCustomInterruptHandler(My_ISR_UART);            
 533:.\BLEApplication.c ****                 LowPower_EN=FALSE;
 534:.\BLEApplication.c ****                 Status_LED_Write(LED_OFF);  
 535:.\BLEApplication.c **** 
 536:.\BLEApplication.c **** 		 	}
 537:.\BLEApplication.c **** 		}
 538:.\BLEApplication.c **** 		else if(sleepMode == CYBLE_BLESS_SLEEP)
 539:.\BLEApplication.c **** 		{
 540:.\BLEApplication.c **** 		    if(blessState != CYBLE_BLESS_STATE_EVENT_CLOSE)
 541:.\BLEApplication.c **** 		    {
 542:.\BLEApplication.c **** 				/* If the BLESS hardware block cannot go to Deep Sleep and BLE Event has not 
 543:.\BLEApplication.c **** 				* closed yet, then place CPU to Sleep */ 
 544:.\BLEApplication.c **** 		        CySysPmSleep();  
 545:.\BLEApplication.c **** 		    }
 546:.\BLEApplication.c **** 		}
 547:.\BLEApplication.c **** 		/* Re-enable global interrupt mask after wakeup */
 548:.\BLEApplication.c **** 		CyGlobalIntEnable;           
 549:.\BLEApplication.c ****         
 550:.\BLEApplication.c **** }
 551:.\BLEApplication.c **** 
 552:.\BLEApplication.c **** /******************************************************************************
 553:.\BLEApplication.c **** * Function Name: MY_ISR_USERBUTTON
 554:.\BLEApplication.c **** ***************************************************************************//**
 555:.\BLEApplication.c **** * 
 556:.\BLEApplication.c **** *  Âî§ÈÜíÊåâÈîÆ‰∏≠Êñ≠Â§ÑÁêÜÂáΩÊï∞
 557:.\BLEApplication.c **** * 
ARM GAS  C:\Users\Helon\AppData\Local\Temp\ccKCxrf8.s 			page 23


 558:.\BLEApplication.c **** * \return
 559:.\BLEApplication.c **** *  None
 560:.\BLEApplication.c **** * 
 561:.\BLEApplication.c **** ******************************************************************************/
 562:.\BLEApplication.c **** CY_ISR(MY_ISR_USERBUTTON)
 563:.\BLEApplication.c **** {
 564:.\BLEApplication.c **** //    isr_UserButton_ClearPending();
 565:.\BLEApplication.c **** //    UserButton_ClearInterrupt();
 566:.\BLEApplication.c **** ////    Ê∏ÖÈô§‰∏≤Âè£Êé•Êî∂ÁºìÂÜ≤Âå∫,Èò≤Ê≠¢‰øÆÊîπ‰∫Ü‰∏≤Âè£Ê≥¢ÁâπÁéá‰πãÂêé,ÂèëÈÄÅÁ´ØÊú™ÂèäÊó∂Áõ∏Â∫îÁö
 567:.\BLEApplication.c **** //    memset(RX_BUFFER,0,sizeof(RX_BUFFER));
 568:.\BLEApplication.c **** //    Buffer_Length=0;
 569:.\BLEApplication.c **** //    if(Peripheral==Role)
 570:.\BLEApplication.c **** //    {
 571:.\BLEApplication.c **** //        CyBle_GappStartAdvertisement(CYBLE_ADVERTISING_FAST);
 572:.\BLEApplication.c **** //    }
 573:.\BLEApplication.c **** //    StartScan=TRUE;
 574:.\BLEApplication.c **** //    printf("test!\r\n");
 575:.\BLEApplication.c **** }
 576:.\BLEApplication.c **** /******************************************************************************
 577:.\BLEApplication.c **** * Function Name: My_ISR_UART
 578:.\BLEApplication.c **** ***************************************************************************//**
 579:.\BLEApplication.c **** * 
 580:.\BLEApplication.c **** *  ‰∏≤Âè£Êé•Êî∂‰∏≠Êñ≠Â§ÑÁêÜÂáΩÊï∞
 581:.\BLEApplication.c **** * 
 582:.\BLEApplication.c **** * \return
 583:.\BLEApplication.c **** *  None
 584:.\BLEApplication.c **** * 
 585:.\BLEApplication.c **** ******************************************************************************/
 586:.\BLEApplication.c **** CY_ISR(My_ISR_UART)
 587:.\BLEApplication.c **** {
 588:.\BLEApplication.c **** //    uint8_t rxdata;
 589:.\BLEApplication.c ****     if(UART_GetRxInterruptSourceMasked()&UART_INTR_RX_NOT_EMPTY)//Âà§Êñ≠Êé•Êî∂‰∏≠Êñ≠ÁöÑÁ±ªÂûã
 590:.\BLEApplication.c ****     {
 591:.\BLEApplication.c ****         rx_isover=TURE;
 592:.\BLEApplication.c ****         //ËØªÂèñ‰∏≤Âè£Êï∞ÊçÆ
 593:.\BLEApplication.c **** //        rxdata=UART_UartGetByte();
 594:.\BLEApplication.c **** //        if(rxdata!='\n')
 595:.\BLEApplication.c **** //        {
 596:.\BLEApplication.c **** //          RX_BUFFER[Buffer_Length]=rxdata;//ËØªÂèñ‰∏≤Âè£Êé•Êî∂ÁºìÂÜ≤Âå∫ÁöÑÊï∞ÊçÆ
 597:.\BLEApplication.c **** //          Buffer_Length++;
 598:.\BLEApplication.c **** //        }
 599:.\BLEApplication.c **** //        else
 600:.\BLEApplication.c **** //        {          
 601:.\BLEApplication.c **** //          RX_BUFFER[Buffer_Length]=rxdata;//ËØªÂèñ‰∏≤Âè£Êé•Êî∂ÁºìÂÜ≤Âå∫ÁöÑÊï∞ÊçÆ
 602:.\BLEApplication.c **** //          rx_isover=TURE;
 603:.\BLEApplication.c **** //        }
 604:.\BLEApplication.c ****     }
 605:.\BLEApplication.c **** //    UART_SpiUartClearRxBuffer();//Ê∏ÖÈô§‰∏≤Âè£Êé•Êî∂ÁºìÂÜ≤Âå∫
 606:.\BLEApplication.c **** //    UART_RX_WAKEUP_IRQ_ClearPending();
 607:.\BLEApplication.c **** //    UART_SCB_IRQ_ClearPending();
 608:.\BLEApplication.c **** //    UART_rx_wake_ClearInterrupt();    
 609:.\BLEApplication.c ****     UART_ClearRxInterruptSource(UART_INTR_RX_NOT_EMPTY);
 610:.\BLEApplication.c ****   
 611:.\BLEApplication.c **** }
 612:.\BLEApplication.c **** 
 613:.\BLEApplication.c **** /******************************************************************************
 614:.\BLEApplication.c **** * Function Name: SystemInitialization
ARM GAS  C:\Users\Helon\AppData\Local\Temp\ccKCxrf8.s 			page 24


 615:.\BLEApplication.c **** ***************************************************************************//**
 616:.\BLEApplication.c **** * 
 617:.\BLEApplication.c **** *  BLEÂçèËÆÆÊ†à„ÄÅÂ§ñËÆæÂàùÂßãÂåñ
 618:.\BLEApplication.c **** * 
 619:.\BLEApplication.c **** * \return
 620:.\BLEApplication.c **** *  None
 621:.\BLEApplication.c **** * 
 622:.\BLEApplication.c **** ******************************************************************************/
 623:.\BLEApplication.c **** void SystemInitialization(void)
 624:.\BLEApplication.c **** {
 625:.\BLEApplication.c **** //    ÊµÅÊéßÂºïËÑöÁöÑÂàùÂßãÂåñ
 626:.\BLEApplication.c ****     CTS_SetDriveMode(CTS_DM_STRONG);//ÊµÅÊéßÂºïËÑöËÆæÁΩÆ‰∏∫Êé®ÊåΩËæìÂá∫
 627:.\BLEApplication.c ****     CTS_Write(CTS_OFF);//ÊµÅÊéßÊòØÈ´òÁîµÂπ≥ÊúâÊïà
 628:.\BLEApplication.c ****     UART_rx_wake_SetDriveMode(UART_rx_wake_DM_RES_UP);//ËÆæÁΩÆRXËÑö‰∏∫ÂÜÖÈÉ®‰∏äÊãâ
 629:.\BLEApplication.c ****     UART_tx_SetDriveMode(UART_tx_DM_RES_UP);//ËÆæÁΩÆTX‰∏∫ÂÜÖÈÉ®‰∏äÊãâ
 630:.\BLEApplication.c **** //    uint16_t counter;
 631:.\BLEApplication.c ****     //Â≠òÊîæNotifyÂÄºÁöÑÊï∞ÁªÑÂàùÂßãÂåñ
 632:.\BLEApplication.c **** //    for(counter = 0; counter < 20; counter++)
 633:.\BLEApplication.c **** //    {
 634:.\BLEApplication.c **** //        buffer[counter] = counter;
 635:.\BLEApplication.c **** //    }
 636:.\BLEApplication.c **** //    ÂàùÂßãÂåñÂÜôËØ∑Ê±ÇÊï∞ÊçÆ
 637:.\BLEApplication.c ****     writeRequestData.attrHandle=CYBLE_TROUGHPUT_SERVICE_CUSTOM_CHARACTERISTIC_CLIENT_CHARACTERISTIC
 638:.\BLEApplication.c ****     writeRequestData.value=cccdNotifFlagSetStruct;
 639:.\BLEApplication.c **** //    ÂàùÂßãÂåñÂπøÊí≠Èó¥ÈöîÂíåÂπøÂëäË∂ÖÊó∂Êó∂Èó¥
 640:.\BLEApplication.c **** //    updateadvparam.advParam->advIntvMin=CYBLE_FAST_ADV_INT_MIN;
 641:.\BLEApplication.c **** //    updateadvparam.advParam->advIntvMax=CYBLE_FAST_ADV_INT_MAX;
 642:.\BLEApplication.c **** //    updateadvparam.advTo=CYBLE_FAST_ADV_TIMEOUT;
 643:.\BLEApplication.c **** //    ConfigUartInit();
 644:.\BLEApplication.c **** //    SetUartConfiguration(BAUD_9600);    
 645:.\BLEApplication.c ****     Timer_Init();
 646:.\BLEApplication.c ****     TimerInterrupt_StartEx(MyTimerIsr);
 647:.\BLEApplication.c ****     UART_Start();
 648:.\BLEApplication.c ****   //    UART_SCB_IRQ_StartEx(My_ISR_UART);   
 649:.\BLEApplication.c **** //    isr_UserButton_StartEx(MY_ISR_USERBUTTON);
 650:.\BLEApplication.c ****     LedInit();
 651:.\BLEApplication.c ****     CyBle_Start(StackEventHandler);
 652:.\BLEApplication.c ****     
 653:.\BLEApplication.c **** }
 654:.\BLEApplication.c **** 
 655:.\BLEApplication.c **** /******************************************************************************
 656:.\BLEApplication.c **** * Function Name: ConfigUartInit
 657:.\BLEApplication.c **** ***************************************************************************//**
 658:.\BLEApplication.c **** * 
 659:.\BLEApplication.c **** *  UARTÈÖçÁΩÆÂàùÂßãÂåñ
 660:.\BLEApplication.c **** * 
 661:.\BLEApplication.c **** * \return
 662:.\BLEApplication.c **** *  None   
 663:.\BLEApplication.c **** * 
 664:.\BLEApplication.c **** ******************************************************************************/
 665:.\BLEApplication.c **** void ConfigUartInit(void)
 666:.\BLEApplication.c **** {   
 667:.\BLEApplication.c **** //    configUart.mode=UART_UART_MODE_STD;         /* mode: Standard */ 
 668:.\BLEApplication.c **** //    configUart.direction=UART_UART_TX_RX;       /* direction: RX + TX */ 
 669:.\BLEApplication.c **** //    configUart.dataBits=8;                      /* dataBits: 8 bits */
 670:.\BLEApplication.c **** //    configUart.parity=UART_UART_PARITY_NONE;    /* parity: None */
 671:.\BLEApplication.c **** //    configUart.stopBits=UART_UART_STOP_BITS_1;  /* stopBits: 1 bit */ 
ARM GAS  C:\Users\Helon\AppData\Local\Temp\ccKCxrf8.s 			page 25


 672:.\BLEApplication.c **** //    configUart.oversample=16;                   /* oversample: 16u */
 673:.\BLEApplication.c **** //    configUart.enableIrdaLowPower=0;            /* enableIrdaLowPower: disable */
 674:.\BLEApplication.c **** //    configUart.enableMedianFilter=1;            /* enableMedianFilter: enable */
 675:.\BLEApplication.c **** //    configUart.enableRetryNack=0;               /* enableRetryNack: disable */
 676:.\BLEApplication.c **** //    configUart.enableInvertedRx=0;              /* enableInvertedRx: disable */
 677:.\BLEApplication.c **** //    configUart.dropOnParityErr=0;               /* dropOnParityErr: disable */
 678:.\BLEApplication.c **** //    configUart.dropOnFrameErr=0;                /* dropOnFrameErr: disable */
 679:.\BLEApplication.c **** //    configUart.enableWake=0;                    /* enableWake: disable */
 680:.\BLEApplication.c **** //    configUart.rxBufferSize=UART_RX_BUFFER;   /* rxBufferSize: software buffer 10 bytes */
 681:.\BLEApplication.c **** //    configUart.rxBuffer=bufferRx;               /* rxBuffer: RX software buffer enable */ 
 682:.\BLEApplication.c **** //    configUart.txBufferSize=UART_TX_BUFFER;   /* txBufferSize: software buffer 10 bytes */
 683:.\BLEApplication.c **** //    configUart.txBuffer=bufferTx;               /* txBuffer: TX software buffer enable */
 684:.\BLEApplication.c **** //    configUart.enableMultiproc=0;               /* enableMultiproc: disable */
 685:.\BLEApplication.c **** //    configUart.multiprocAcceptAddr=0;           /* multiprocAcceptAddr: disable */ 
 686:.\BLEApplication.c **** //    configUart.multiprocAddr=0;                 /* multiprocAddr: N/A for this configuration */ 
 687:.\BLEApplication.c **** //    configUart.multiprocAddrMask=0;             /* multiprocAddrMask: N/A for this configuration 
 688:.\BLEApplication.c **** //    configUart.enableInterrupt=1;               /* enableInterrupt: enable to process software bu
 689:.\BLEApplication.c **** //    configUart.rxInterruptMask=UART_INTR_RX_NOT_EMPTY; /* rxInterruptMask: enable NOT_EMPTY for R
 690:.\BLEApplication.c **** //    configUart.rxTriggerLevel=0;               /* rxTriggerLevel: N/A for this configuration */ 
 691:.\BLEApplication.c **** //    configUart.txInterruptMask=0;              /* txInterruptMask: NOT_FULL is enabled when there
 692:.\BLEApplication.c **** //    configUart.txTriggerLevel=0;               /* txTriggerLevel: N/A for this configuration */ 
 693:.\BLEApplication.c **** }
 694:.\BLEApplication.c **** /******************************************************************************
 695:.\BLEApplication.c **** * Function Name: SetUartConfiguration
 696:.\BLEApplication.c **** ***************************************************************************//**
 697:.\BLEApplication.c **** * 
 698:.\BLEApplication.c **** *  ËÆæÁΩÆ‰∏≤Âè£ÈÖçÁΩÆ
 699:.\BLEApplication.c **** * \param  DIVIDER_CLOCK:ÈÖçÁΩÆÊ≥¢ÁâπÁéáÁöÑÊó∂ÈíüÂàÜÈ¢ëÔºå‰∏çÂêåÁöÑÈ¢ëÁéáÂàÜÈ¢ëÁ≥ªÁªü‰∏çÂêå„ÄÇ
 700:.\BLEApplication.c **** * \return
 701:.\BLEApplication.c **** *   CYRET_SUCCESS    //Successful
 702:.\BLEApplication.c **** *   CYRET_BAD_PARAM  //Uknowns operation mode - no actions 
 703:.\BLEApplication.c **** ******************************************************************************/
 704:.\BLEApplication.c **** void SetUartConfiguration(uint32_t DIVIDER_CLOCK) 
 705:.\BLEApplication.c **** {
 706:.\BLEApplication.c **** //    cystatus status = CYRET_SUCCESS; 
 707:.\BLEApplication.c **** //    UART_Stop();                    /* Disable component before configuration change */ 
 708:.\BLEApplication.c **** //    /* Change clock divider */
 709:.\BLEApplication.c **** //    UART_CLOCK_Stop();
 710:.\BLEApplication.c **** //    UART_CLOCK_SetFractionalDividerRegister(DIVIDER_CLOCK, 0u); 
 711:.\BLEApplication.c **** //    UART_CLOCK_Start();
 712:.\BLEApplication.c **** //    /* Configure to UART operation */ 
 713:.\BLEApplication.c **** //    UART_UartInit(&configUart);          
 714:.\BLEApplication.c **** //    UART_Start();                       /* Enable component after configuration change */     
 715:.\BLEApplication.c **** }
 716:.\BLEApplication.c **** 
 717:.\BLEApplication.c **** /******************************************************************************
 718:.\BLEApplication.c **** * Function Name: LedInit
 719:.\BLEApplication.c **** ***************************************************************************//**
 720:.\BLEApplication.c **** * 
 721:.\BLEApplication.c **** *  Áä∂ÊÄÅÁÅØÂàùÂßãÂåñ
 722:.\BLEApplication.c **** * 
 723:.\BLEApplication.c **** * \return
 724:.\BLEApplication.c **** *  None
 725:.\BLEApplication.c **** * 
 726:.\BLEApplication.c **** ******************************************************************************/
 727:.\BLEApplication.c **** void LedInit(void)
 728:.\BLEApplication.c **** {
ARM GAS  C:\Users\Helon\AppData\Local\Temp\ccKCxrf8.s 			page 26


 729:.\BLEApplication.c ****     Status_LED_SetDriveMode(Status_LED_DM_STRONG);
 730:.\BLEApplication.c ****     Connected_LED_SetDriveMode(Connected_LED_DM_STRONG);
 731:.\BLEApplication.c ****     Status_LED_Write(LED_OFF);
 732:.\BLEApplication.c ****     Connected_LED_Write(LED_OFF);
 733:.\BLEApplication.c **** }
 734:.\BLEApplication.c **** 
 735:.\BLEApplication.c **** /******************************************************************************
 736:.\BLEApplication.c **** * Function Name: Parser_UartData
 737:.\BLEApplication.c **** ***************************************************************************//**
 738:.\BLEApplication.c **** * 
 739:.\BLEApplication.c **** *  Ëß£ÊûêÊé•Êî∂Âà∞ÁöÑ‰∏≤Âè£Êï∞ÊçÆ
 740:.\BLEApplication.c **** * \param  SerialData:ÊåáÂêëcharÂûãÁöÑÊåáÈíà
 741:.\BLEApplication.c **** * \return
 742:.\BLEApplication.c **** *  None
 743:.\BLEApplication.c **** * 
 744:.\BLEApplication.c **** ******************************************************************************/
 745:.\BLEApplication.c **** void Parser_UartData(const char* SerialData)
 746:.\BLEApplication.c **** {
 747:.\BLEApplication.c ****     if(NULL==SerialData)
 748:.\BLEApplication.c ****         return;
 749:.\BLEApplication.c ****     uint8_t At_Command_Idex=0,i=0;
 750:.\BLEApplication.c ****     uint8_t idx=0;    
 751:.\BLEApplication.c ****     int16_t AdvMin,AdvMax;
 752:.\BLEApplication.c ****     char8 Name[27]={0};
 753:.\BLEApplication.c ****     char AdvData[31]={0};
 754:.\BLEApplication.c ****     char StrAdvData[62]={0};
 755:.\BLEApplication.c ****     char StrAdvDataLength[2]={0};
 756:.\BLEApplication.c ****     char AdvDataLength=0;
 757:.\BLEApplication.c ****     char AdvParamArray[2]={0};
 758:.\BLEApplication.c ****     char AdvParam=0;
 759:.\BLEApplication.c ****     uint8 DeviceNameLen[1]={0};
 760:.\BLEApplication.c ****     uint32 WriteDataToFlash=0;
 761:.\BLEApplication.c **** //    volatile uint8_t test=0;
 762:.\BLEApplication.c **** //    double connintv=0;
 763:.\BLEApplication.c **** //    uint16 supervisionTO=0;
 764:.\BLEApplication.c ****     CYBLE_API_RESULT_T API_RESULT=0;
 765:.\BLEApplication.c ****     uint8_t STAUS_T=0;
 766:.\BLEApplication.c ****     CYBLE_GATTC_FIND_INFO_REQ_T range;    
 767:.\BLEApplication.c ****     CYBLE_GAPP_DISC_DATA_T advDiscData;
 768:.\BLEApplication.c ****     CYBLE_GAP_BONDED_DEV_ADDR_LIST_T bondedDevList;
 769:.\BLEApplication.c **** //    CYBLE_CONN_HANDLE_T  connHandle; 
 770:.\BLEApplication.c **** //     uint8 bdHandle=0;
 771:.\BLEApplication.c ****     At_Command_Idex=Command_Identify(SerialData);
 772:.\BLEApplication.c ****     switch(At_Command_Idex)
 773:.\BLEApplication.c ****     {
 774:.\BLEApplication.c **** //        ÊµãËØï‰∏≤Âè£ÊòØÂê¶Ê≠£Â∏∏----‰∏ª‰ªéÊúâÊïà
 775:.\BLEApplication.c ****         case _AT:
 776:.\BLEApplication.c **** //            printf("OK\r\n");
 777:.\BLEApplication.c ****             printf("AT+OK\r\n");
 778:.\BLEApplication.c ****         break;
 779:.\BLEApplication.c **** //        ËΩØÂ§ç‰Ωç----‰∏ª‰ªéÊúâÊïà
 780:.\BLEApplication.c ****         case RESET:
 781:.\BLEApplication.c ****             if(SerialData[9]=='1')
 782:.\BLEApplication.c ****             {
 783:.\BLEApplication.c ****                 printf("AT+OK\r\n");
 784:.\BLEApplication.c ****                 while((UART_SpiUartGetTxBufferSize() + UART_GET_TX_FIFO_SR_VALID) != 0);//Á≠âÂæÖ‰∏≤
 785:.\BLEApplication.c ****                 CySoftwareReset();
ARM GAS  C:\Users\Helon\AppData\Local\Temp\ccKCxrf8.s 			page 27


 786:.\BLEApplication.c ****             }
 787:.\BLEApplication.c ****             else
 788:.\BLEApplication.c ****             {
 789:.\BLEApplication.c ****                 printf("AT+ERR=5\r\n");//Ë°®Á§∫Ê≤°ÊúâËØ•ATÂëΩ‰ª§     
 790:.\BLEApplication.c ****             }
 791:.\BLEApplication.c ****         break;
 792:.\BLEApplication.c ****         case REFAC:
 793:.\BLEApplication.c ****         break;
 794:.\BLEApplication.c **** //         ÂΩìÂâçÂõ∫‰ª∂ÁâàÊú¨ÁöÑÊü•ËØ¢
 795:.\BLEApplication.c ****         case VERSION:
 796:.\BLEApplication.c ****             if(SerialData[11]=='?')
 797:.\BLEApplication.c ****             #ifdef RELEASE
 798:.\BLEApplication.c ****                 printf("+VERSION=CY-B01_V2.0.4\r\n");
 799:.\BLEApplication.c ****             #else
 800:.\BLEApplication.c ****                 printf("+VERSION=CY-B01_V1.1.1\r\n");
 801:.\BLEApplication.c ****             #endif
 802:.\BLEApplication.c ****             else
 803:.\BLEApplication.c ****             {
 804:.\BLEApplication.c ****                 printf("AT+ERR=5\r\n");//Ë°®Á§∫Ê≤°ÊúâËØ•ATÂëΩ‰ª§     
 805:.\BLEApplication.c ****             }
 806:.\BLEApplication.c ****         break;
 807:.\BLEApplication.c **** //            ÊöÇÊó∂Êó†ÊïàÔºåÂõ∫ÂÆö‰∏∫9600ÁöÑÊ≥¢ÁâπÁéá
 808:.\BLEApplication.c ****         case BAUD:
 809:.\BLEApplication.c ****             printf("AT+ERR=5\r\n");//Ë°®Á§∫Ê≤°ÊúâËØ•ATÂëΩ‰ª§ 
 810:.\BLEApplication.c **** //            idx=SerialData[8];             
 811:.\BLEApplication.c **** //            UartBuadRate_Handler(idx);
 812:.\BLEApplication.c ****         break;
 813:.\BLEApplication.c **** //            MACÂú∞ÂùÄÊü•ËØ¢----‰∏ª‰ªéÊúâÊïà
 814:.\BLEApplication.c ****         case LADDR:
 815:.\BLEApplication.c ****             idx=SerialData[9]; 
 816:.\BLEApplication.c ****             if('?'==idx)
 817:.\BLEApplication.c ****             {
 818:.\BLEApplication.c ****                 CyBle_GetDeviceAddress(&DeviceAddr);
 819:.\BLEApplication.c ****                 printf("+LADDR=%02X%02X%02X%02X%02X%02X\r\n",                  
 820:.\BLEApplication.c ****                     DeviceAddr.bdAddr[5],
 821:.\BLEApplication.c ****                     DeviceAddr.bdAddr[4],
 822:.\BLEApplication.c ****                     DeviceAddr.bdAddr[3],
 823:.\BLEApplication.c ****                     DeviceAddr.bdAddr[2],
 824:.\BLEApplication.c ****                     DeviceAddr.bdAddr[1],
 825:.\BLEApplication.c ****                     DeviceAddr.bdAddr[0]                             
 826:.\BLEApplication.c ****                   );
 827:.\BLEApplication.c ****             }
 828:.\BLEApplication.c ****             else
 829:.\BLEApplication.c ****             {
 830:.\BLEApplication.c ****                 printf("AT+ERR=5\r\n");//Ë°®Á§∫Ê≤°ÊúâËØ•ATÂëΩ‰ª§ 
 831:.\BLEApplication.c ****             }
 832:.\BLEApplication.c ****         break;
 833:.\BLEApplication.c **** //                ËÆæÂ§áÂêçÊü•ËØ¢Âèä‰øÆÊîπ---‰ªéÊú∫ÊúâÊïà
 834:.\BLEApplication.c ****         case NAME:
 835:.\BLEApplication.c ****              idx=SerialData[8];
 836:.\BLEApplication.c ****              if(Peripheral==Role)
 837:.\BLEApplication.c ****              {
 838:.\BLEApplication.c ****                 switch(idx)
 839:.\BLEApplication.c ****                 {
 840:.\BLEApplication.c ****                     case '?':
 841:.\BLEApplication.c ****                         CyBle_GapGetLocalName(Name);
 842:.\BLEApplication.c ****                         printf("+NAME=%s\r\n",Name);
ARM GAS  C:\Users\Helon\AppData\Local\Temp\ccKCxrf8.s 			page 28


 843:.\BLEApplication.c **** //                        free(Name);
 844:.\BLEApplication.c ****                     break;
 845:.\BLEApplication.c ****                     case '<':
 846:.\BLEApplication.c ****                         if((strchr((char*)(SerialData+9),'>')-(SerialData+9))>23)
 847:.\BLEApplication.c ****                         {
 848:.\BLEApplication.c ****                             printf("AT+ERR=6\r\n");//Ë°®Á§∫ËÆæÁΩÆÁöÑËÆæÂ§áÂêçÂ≠óËøáÈïø
 849:.\BLEApplication.c ****                             return;
 850:.\BLEApplication.c ****                         }
 851:.\BLEApplication.c ****                         if((CYBLE_STATE_CONNECTED!=CyBle_GetState()))
 852:.\BLEApplication.c ****                         {
 853:.\BLEApplication.c ****                             CyBle_GappStopAdvertisement();
 854:.\BLEApplication.c ****                             memset(Name,0,sizeof(char8)*27);
 855:.\BLEApplication.c ****                             DeviceNameLen[0]=Buffer_Length-11;
 856:.\BLEApplication.c ****                             memcpy(Name,RX_BUFFER+9,DeviceNameLen[0]);
 857:.\BLEApplication.c ****                             WriteUserSFlashRow(1,DeviceNameLen,1,0x00);//Â∞ÜËÆæÂ§áÂêçÂ≠óÈïøÂ∫¶ÂÜôÂÖ
 858:.\BLEApplication.c ****                             WriteUserSFlashRow(2,Name,DeviceNameLen[0],0x00);//Â∞ÜËÆæÂ§áÂêçÂÜôÂÖ•SF
 859:.\BLEApplication.c ****                             API_RESULT=CyBle_GapSetLocalName(Name);                            
 860:.\BLEApplication.c ****                             if(API_RESULT==CYBLE_ERROR_OK)
 861:.\BLEApplication.c ****                             {
 862:.\BLEApplication.c ****                                 printf("AT+OK\r\n");
 863:.\BLEApplication.c **** //                                printf("AT+ NAME=<%s>\r\n",Name);
 864:.\BLEApplication.c **** //                                printf("OK\r\n");
 865:.\BLEApplication.c ****                             }
 866:.\BLEApplication.c ****                             else
 867:.\BLEApplication.c ****                             {
 868:.\BLEApplication.c ****                                 printf("AT+ERR=2\r\n");//Ë°®Á§∫ÂëΩ‰ª§ËÆæÁΩÆÂ§±Ë¥•
 869:.\BLEApplication.c ****                             }
 870:.\BLEApplication.c **** //                            free(Name);
 871:.\BLEApplication.c **** //                            CyBle_GappStartAdvertisement(CYBLE_ADVERTISING_FAST);
 872:.\BLEApplication.c ****                         }
 873:.\BLEApplication.c ****                         else
 874:.\BLEApplication.c ****                         {
 875:.\BLEApplication.c ****                                 printf("AT+ERR=3\r\n");//Ë°®Á§∫ÂΩìÂâçÁä∂ÊÄÅ‰∏çÊîØÊåÅËØ•ÂëΩ‰ª§
 876:.\BLEApplication.c **** //                            printf("+NAME=<INVALID>\r\n"); 
 877:.\BLEApplication.c ****                         }
 878:.\BLEApplication.c ****                     break;
 879:.\BLEApplication.c ****                     default:
 880:.\BLEApplication.c ****                         printf("AT+ERR=5\r\n");//Ë°®Á§∫Ê≤°ÊúâËØ•ATÂëΩ‰ª§ 
 881:.\BLEApplication.c ****                     break;
 882:.\BLEApplication.c ****                 }                   
 883:.\BLEApplication.c ****              }
 884:.\BLEApplication.c ****              else
 885:.\BLEApplication.c ****              {
 886:.\BLEApplication.c **** //                printf("+NAME=<INVALID>\r\n"); 
 887:.\BLEApplication.c ****                 printf("AT+ERR=4\r\n");//Ë°®Á§∫ÂΩìÂâçËßíËâ≤‰∏çÊîØÊåÅËØ•ÂëΩ‰ª§ 
 888:.\BLEApplication.c ****              }
 889:.\BLEApplication.c ****                 
 890:.\BLEApplication.c ****         break;
 891:.\BLEApplication.c ****         case CPIN:
 892:.\BLEApplication.c ****         break;
 893:.\BLEApplication.c **** //            ÂèëÂ∞ÑÂäüÁéáÊü•ËØ¢Âèä‰øÆÊîπ----‰ªéÊú∫ÊúâÊïà
 894:.\BLEApplication.c ****         case TXP:
 895:.\BLEApplication.c ****             idx=SerialData[7];
 896:.\BLEApplication.c ****             if(Role==Peripheral)
 897:.\BLEApplication.c ****                 TxPower_Handler(idx);
 898:.\BLEApplication.c ****              else
 899:.\BLEApplication.c ****             {
ARM GAS  C:\Users\Helon\AppData\Local\Temp\ccKCxrf8.s 			page 29


 900:.\BLEApplication.c **** //                printf("+TXP=<INVALID>\r\n"); 
 901:.\BLEApplication.c ****                 printf("AT+ERR=4\r\n");//Ë°®Á§∫ÂΩìÂâçËßíËâ≤‰∏çÊîØÊåÅËØ•ÂëΩ‰ª§ 
 902:.\BLEApplication.c ****             }
 903:.\BLEApplication.c ****         break;
 904:.\BLEApplication.c **** //            ÂπøÊí≠Êï∞ÊçÆÁöÑ‰øÆÊîπÂèäÊü•ËØ¢----‰ªéÊú∫ÊúâÊïà
 905:.\BLEApplication.c ****         case ADVD:
 906:.\BLEApplication.c ****             idx=SerialData[8];
 907:.\BLEApplication.c ****             if(Peripheral==Role)
 908:.\BLEApplication.c ****             {
 909:.\BLEApplication.c ****                 switch(idx)
 910:.\BLEApplication.c ****                 {
 911:.\BLEApplication.c ****                     case '<':
 912:.\BLEApplication.c ****                         if(CYBLE_STATE_ADVERTISING!=CyBle_GetState())
 913:.\BLEApplication.c ****                         {
 914:.\BLEApplication.c ****                             if((strchr((char*)(SerialData+9),'>')-(SerialData+9))>31)
 915:.\BLEApplication.c ****                             {
 916:.\BLEApplication.c ****                                 printf("AT+ERR=9\r\n");//Ë°®Á§∫ËÆæÁΩÆÁöÑÂπøÊí≠Êï∞ÊçÆÈïøÂ∫¶ËøáÈïø
 917:.\BLEApplication.c ****                                 return;
 918:.\BLEApplication.c ****                             }
 919:.\BLEApplication.c ****                             memset(advDiscData.advData,0,CYBLE_GAP_MAX_ADV_DATA_LEN);
 920:.\BLEApplication.c ****                             memcpy(StrAdvDataLength,SerialData+9,2);
 921:.\BLEApplication.c ****                             StrToHex(&AdvDataLength,StrAdvDataLength,1);
 922:.\BLEApplication.c ****                             advDiscData.advDataLen=AdvDataLength;
 923:.\BLEApplication.c ****                             memcpy(StrAdvData,SerialData+12,AdvDataLength*2);
 924:.\BLEApplication.c ****                             StrToHex(AdvData,StrAdvData,sizeof(StrAdvData)/sizeof(char)/2);
 925:.\BLEApplication.c ****                             memcpy(advDiscData.advData,AdvData,advDiscData.advDataLen);
 926:.\BLEApplication.c ****                             API_RESULT=CyBle_GapUpdateAdvData(&advDiscData,NULL);
 927:.\BLEApplication.c ****                             if(CYBLE_ERROR_OK==API_RESULT)
 928:.\BLEApplication.c ****                             {
 929:.\BLEApplication.c ****     //                            printf("+ADVD=<SUCCESS>\r\n");
 930:.\BLEApplication.c ****                                 cyBle_discoveryModeInfo.advData->advDataLen=AdvDataLength;
 931:.\BLEApplication.c ****                                 memcpy(cyBle_discoveryModeInfo.advData->advData,AdvData,AdvDataLeng
 932:.\BLEApplication.c ****                                 printf("AT+OK\r\n");
 933:.\BLEApplication.c ****                             }
 934:.\BLEApplication.c ****                             else
 935:.\BLEApplication.c ****                             {
 936:.\BLEApplication.c ****                                 printf("AT+ERR=2\r\n");//Ë°®Á§∫ÂëΩ‰ª§ËÆæÁΩÆÂ§±Ë¥•
 937:.\BLEApplication.c ****                             }
 938:.\BLEApplication.c ****                         }
 939:.\BLEApplication.c ****                         else
 940:.\BLEApplication.c ****                         {
 941:.\BLEApplication.c ****                             printf("AT+ERR=3\r\n");//Ë°®Á§∫ÂΩìÂâçÁä∂ÊÄÅ‰∏çÊîØÊåÅËØ•ÂëΩ‰ª§
 942:.\BLEApplication.c ****                         }
 943:.\BLEApplication.c ****                     break;                        
 944:.\BLEApplication.c ****                     case '?':
 945:.\BLEApplication.c ****                         if(CYBLE_STATE_ADVERTISING==CyBle_GetState())
 946:.\BLEApplication.c ****                         {
 947:.\BLEApplication.c ****                             printf("+ADVD=");
 948:.\BLEApplication.c ****                             for(i=0;i<cyBle_discoveryModeInfo.advData->advDataLen;i++)
 949:.\BLEApplication.c ****                             {
 950:.\BLEApplication.c ****                                 printf("%02X",cyBle_discoveryModeInfo.advData->advData[i]);
 951:.\BLEApplication.c ****                             }
 952:.\BLEApplication.c ****                             printf("\r\n");
 953:.\BLEApplication.c ****                         }
 954:.\BLEApplication.c ****                         else
 955:.\BLEApplication.c ****                         {
 956:.\BLEApplication.c ****                             printf("AT+ERR=3\r\n");//Ë°®Á§∫ÂΩìÂâçÁä∂ÊÄÅ‰∏çÊîØÊåÅËØ•ÂëΩ‰ª§
ARM GAS  C:\Users\Helon\AppData\Local\Temp\ccKCxrf8.s 			page 30


 957:.\BLEApplication.c ****                         }
 958:.\BLEApplication.c ****                         
 959:.\BLEApplication.c ****                     break;
 960:.\BLEApplication.c ****                     default:
 961:.\BLEApplication.c ****                         printf("AT+ERR=5\r\n");//Ë°®Á§∫Ê≤°ÊúâËØ•ATÂëΩ‰ª§ 
 962:.\BLEApplication.c ****                     break;
 963:.\BLEApplication.c ****                 }                
 964:.\BLEApplication.c ****             }                
 965:.\BLEApplication.c ****             else
 966:.\BLEApplication.c ****             {
 967:.\BLEApplication.c **** //                printf("+ADVD=<INVALID>\r\n");
 968:.\BLEApplication.c ****                 printf("AT+ERR=4\r\n");//Ë°®Á§∫ÂΩìÂâçËßíËâ≤‰∏çÊîØÊåÅËØ•ÂëΩ‰ª§
 969:.\BLEApplication.c ****             }
 970:.\BLEApplication.c ****         break;
 971:.\BLEApplication.c **** //            ÂπøÊí≠Èó¥ÈöîÁöÑ‰øÆÊîπÂèäÊü•ËØ¢----‰ªéÊú∫ÊúâÊïà
 972:.\BLEApplication.c ****         case ADVI:            
 973:.\BLEApplication.c ****             if(Role==Peripheral)
 974:.\BLEApplication.c ****             {
 975:.\BLEApplication.c ****                 idx=SerialData[8];  
 976:.\BLEApplication.c ****                 if((CYBLE_STATE_CONNECTED!=CyBle_GetState()))
 977:.\BLEApplication.c ****                 {
 978:.\BLEApplication.c ****                     switch(idx)
 979:.\BLEApplication.c ****                     {
 980:.\BLEApplication.c ****                         case '?':
 981:.\BLEApplication.c ****                         AdvMin=(cyBle_discoveryModeInfo.advParam->advIntvMin)*0.625;
 982:.\BLEApplication.c ****                         AdvMax=(cyBle_discoveryModeInfo.advParam->advIntvMax)*0.625;               
 983:.\BLEApplication.c ****                         printf("+ADVI=%hdms,%hdms,%hus\r\n",AdvMin,
 984:.\BLEApplication.c ****                         AdvMax,cyBle_discoveryModeInfo.advTo);
 985:.\BLEApplication.c ****                         while((UART_SpiUartGetTxBufferSize() + UART_GET_TX_FIFO_SR_VALID) != 0);//Á
 986:.\BLEApplication.c ****                         break;
 987:.\BLEApplication.c ****                         case '<':
 988:.\BLEApplication.c ****     //                    Âè™ÊúâÂÅúÊ≠¢ÂπøÊí≠‰∫Ü‰øÆÊîπÊâçÊúâÊïà
 989:.\BLEApplication.c ****                         if(CYBLE_STATE_ADVERTISING!=CyBle_GetState())
 990:.\BLEApplication.c ****                         {
 991:.\BLEApplication.c ****              //              Ëé∑ÂèñAdvMinÂÄº
 992:.\BLEApplication.c ****                             AdvParamArray[0]=SerialData[9];
 993:.\BLEApplication.c ****                             AdvParamArray[1]=SerialData[10];
 994:.\BLEApplication.c ****                             StrToHex(&AdvParam,AdvParamArray,1);
 995:.\BLEApplication.c ****                             cyBle_discoveryModeInfo.advParam->advIntvMin=AdvParam;
 996:.\BLEApplication.c ****         //                    Ëé∑ÂèñAdvMaxÂÄº
 997:.\BLEApplication.c ****                             AdvParamArray[0]=SerialData[12];
 998:.\BLEApplication.c ****                             AdvParamArray[1]=SerialData[13];
 999:.\BLEApplication.c ****                             StrToHex(&AdvParam,AdvParamArray,1);
1000:.\BLEApplication.c ****                             cyBle_discoveryModeInfo.advParam->advIntvMax=AdvParam;
1001:.\BLEApplication.c ****         //                      Ëé∑ÂèñAdvToÂÄº
1002:.\BLEApplication.c ****                             AdvParamArray[0]=SerialData[15];
1003:.\BLEApplication.c ****                             AdvParamArray[1]=SerialData[16];
1004:.\BLEApplication.c ****                             StrToHex(&AdvParam,AdvParamArray,1);
1005:.\BLEApplication.c ****                             cyBle_discoveryModeInfo.advTo=AdvParam;
1006:.\BLEApplication.c ****                             printf("AT+OK\r\n");
1007:.\BLEApplication.c **** //                            printf("%s",SerialData);
1008:.\BLEApplication.c **** //                            printf("OK\r\n");
1009:.\BLEApplication.c ****                         }
1010:.\BLEApplication.c ****                         else
1011:.\BLEApplication.c ****                         {
1012:.\BLEApplication.c **** //                             printf("+ADVI=<INVALID>\r\n");
1013:.\BLEApplication.c ****                             printf("AT+ERR=3\r\n");//Ë°®Á§∫ÂΩìÂâçÁä∂ÊÄÅ‰∏çÊîØÊåÅËØ•ÂëΩ‰ª§
ARM GAS  C:\Users\Helon\AppData\Local\Temp\ccKCxrf8.s 			page 31


1014:.\BLEApplication.c ****                         }
1015:.\BLEApplication.c ****                         break;
1016:.\BLEApplication.c ****                         default:
1017:.\BLEApplication.c ****                             printf("AT+ERR=5\r\n");//Ë°®Á§∫Ê≤°ÊúâËØ•ATÂëΩ‰ª§ 
1018:.\BLEApplication.c ****                         break;
1019:.\BLEApplication.c ****                     }  
1020:.\BLEApplication.c ****                 }
1021:.\BLEApplication.c ****                 else
1022:.\BLEApplication.c ****                 {
1023:.\BLEApplication.c ****                     printf("AT+ERR=3\r\n");//Ë°®Á§∫ÂΩìÂâçÁä∂ÊÄÅ‰∏çÊîØÊåÅËØ•ÂëΩ‰ª§
1024:.\BLEApplication.c ****                 }
1025:.\BLEApplication.c ****                                             
1026:.\BLEApplication.c ****             }
1027:.\BLEApplication.c ****             else
1028:.\BLEApplication.c ****             {
1029:.\BLEApplication.c **** //                printf("+ADVI=<INVALID>\r\n");
1030:.\BLEApplication.c ****                 printf("AT+ERR=4\r\n");//Ë°®Á§∫ÂΩìÂâçËßíËâ≤‰∏çÊîØÊåÅËØ•ÂëΩ‰ª§
1031:.\BLEApplication.c ****             }
1032:.\BLEApplication.c ****             
1033:.\BLEApplication.c ****         break;
1034:.\BLEApplication.c **** //            ËøûÊé•Èó¥ÈöîÁöÑ‰øÆÊîπÂèäÊü•ËØ¢----‰∏ªÊú∫ÊúâÊïàÔºåÊü•ËØ¢Âàô‰∏ª‰ªéÊúâÊïà
1035:.\BLEApplication.c ****         case CONNI:  
1036:.\BLEApplication.c ****             idx=SerialData[9];
1037:.\BLEApplication.c ****             switch(idx)
1038:.\BLEApplication.c ****             {
1039:.\BLEApplication.c ****                 case '?':
1040:.\BLEApplication.c ****                 if(CYBLE_STATE_CONNECTED==CyBle_GetState())
1041:.\BLEApplication.c ****                 {
1042:.\BLEApplication.c **** //                    connintv=(ConnParam.connIntv)*1.25;
1043:.\BLEApplication.c **** //                    supervisionTO=(ConnParam.supervisionTO)*10;
1044:.\BLEApplication.c ****                     printf("+CONNI=%04X,%04X,%04X\r\n",ConnParam.connIntv,
1045:.\BLEApplication.c ****                     ConnParam.supervisionTO,ConnParam.connLatency);
1046:.\BLEApplication.c ****                 }
1047:.\BLEApplication.c ****                 else
1048:.\BLEApplication.c ****                 {
1049:.\BLEApplication.c **** //                    printf("+CONNI=<INVALID>\r\n");
1050:.\BLEApplication.c ****                     printf("AT+ERR=3\r\n");//Ë°®Á§∫ÂΩìÂâçÁä∂ÊÄÅ‰∏çÊîØÊåÅËØ•ÂëΩ‰ª§
1051:.\BLEApplication.c ****                 }
1052:.\BLEApplication.c ****                 break;
1053:.\BLEApplication.c ****                 case '<':
1054:.\BLEApplication.c **** //                Âè™Êúâ‰∏ªÊú∫ÂèØ‰ª•Êõ¥ÊîπËøûÊé•ÂèÇÊï∞
1055:.\BLEApplication.c ****                 if(Role==Central)
1056:.\BLEApplication.c ****                 {
1057:.\BLEApplication.c ****                     if(CYBLE_STATE_CONNECTED==CyBle_GetState())
1058:.\BLEApplication.c ****                     {
1059:.\BLEApplication.c ****                         //                    Ëé∑ÂèñÊúÄÂ∞èËøûÊé•Èó¥Èöî
1060:.\BLEApplication.c ****                         AdvParamArray[0]=SerialData[10];
1061:.\BLEApplication.c ****                         AdvParamArray[1]=SerialData[11];
1062:.\BLEApplication.c ****                         StrToHex(&AdvParam,AdvParamArray,1);
1063:.\BLEApplication.c ****                         connParam.connIntvMin=AdvParam;
1064:.\BLEApplication.c ****     //                    Ëé∑ÂèñÊúÄÂ§ßËøûÊé•Èó¥Èöî                    
1065:.\BLEApplication.c ****                         AdvParamArray[0]=SerialData[13];
1066:.\BLEApplication.c ****                         AdvParamArray[1]=SerialData[14];
1067:.\BLEApplication.c ****                         StrToHex(&AdvParam,AdvParamArray,1);
1068:.\BLEApplication.c ****                         connParam.connIntvMax=AdvParam;
1069:.\BLEApplication.c ****     //                    ÂèëËµ∑ËøûÊé•Èó¥ÈöîÊõ¥Êñ∞ËØ∑Ê±Ç
1070:.\BLEApplication.c ****                         API_RESULT=CyBle_GapcConnectionParamUpdateRequest(cyBle_connHandle.bdHandle
ARM GAS  C:\Users\Helon\AppData\Local\Temp\ccKCxrf8.s 			page 32


1071:.\BLEApplication.c ****                         if(CYBLE_ERROR_OK==API_RESULT)
1072:.\BLEApplication.c ****                         {
1073:.\BLEApplication.c ****                             printf("AT+OK\r\n");
1074:.\BLEApplication.c ****     //                        printf("%s",SerialData);
1075:.\BLEApplication.c ****     //                        printf("OK\r\n");
1076:.\BLEApplication.c ****                         }
1077:.\BLEApplication.c ****                         else
1078:.\BLEApplication.c ****                         {
1079:.\BLEApplication.c ****     //                        printf("+CONNI=<FAIL>\r\n");
1080:.\BLEApplication.c ****                             printf("AT+ERR=2\r\n");//Ë°®Á§∫ÂëΩ‰ª§ËÆæÁΩÆÂ§±Ë¥•
1081:.\BLEApplication.c ****                         }
1082:.\BLEApplication.c ****                         
1083:.\BLEApplication.c ****                     }
1084:.\BLEApplication.c ****                     else
1085:.\BLEApplication.c ****                     {
1086:.\BLEApplication.c ****                         printf("AT+ERR=3\r\n");//Ë°®Á§∫ÂΩìÂâçÁä∂ÊÄÅ‰∏çÊîØÊåÅËØ•ÂëΩ‰ª§
1087:.\BLEApplication.c ****                     }
1088:.\BLEApplication.c **** 
1089:.\BLEApplication.c ****                 }
1090:.\BLEApplication.c ****                 else
1091:.\BLEApplication.c ****                 {
1092:.\BLEApplication.c **** //                    printf("+CONNI=<INVALID>\r\n");
1093:.\BLEApplication.c ****                     printf("AT+ERR=4\r\n");//Ë°®Á§∫ÂΩìÂâçËßíËâ≤‰∏çÊîØÊåÅËØ•ÂëΩ‰ª§
1094:.\BLEApplication.c ****                 }
1095:.\BLEApplication.c ****                 break;
1096:.\BLEApplication.c ****                 default:
1097:.\BLEApplication.c ****                     printf("AT+ERR=5\r\n");//Ë°®Á§∫Ê≤°ÊúâËØ•ATÂëΩ‰ª§ 
1098:.\BLEApplication.c ****                 break;
1099:.\BLEApplication.c ****             }
1100:.\BLEApplication.c ****             
1101:.\BLEApplication.c ****         break;
1102:.\BLEApplication.c **** //              ‰∏ª‰ªé‰∏Ä‰ΩìÂàáÊç¢ÂëΩ‰ª§-----‰∏ª‰ªéÊúâÊïà
1103:.\BLEApplication.c ****         case ROLE:
1104:.\BLEApplication.c ****             idx=SerialData[8];
1105:.\BLEApplication.c ****             switch(idx)
1106:.\BLEApplication.c ****             {
1107:.\BLEApplication.c ****                 case '?':
1108:.\BLEApplication.c ****                     if(Peripheral==Role)
1109:.\BLEApplication.c ****                     {
1110:.\BLEApplication.c ****                         printf("+ROLE=0\r\n");
1111:.\BLEApplication.c **** //                        printf("+ROLE=<Peripheral>\r\n");
1112:.\BLEApplication.c ****                     }
1113:.\BLEApplication.c ****                     else
1114:.\BLEApplication.c ****                     {   
1115:.\BLEApplication.c ****                         printf("+ROLE=1\r\n");
1116:.\BLEApplication.c **** //                        printf("+ROLE=<Central>\r\n");
1117:.\BLEApplication.c ****                     }
1118:.\BLEApplication.c ****                 break;
1119:.\BLEApplication.c **** //                    0Ôºö‰ªéÊú∫(Slave)
1120:.\BLEApplication.c ****                 case '0':
1121:.\BLEApplication.c ****                     if(CYBLE_STATE_CONNECTED!=CyBle_GetState())
1122:.\BLEApplication.c ****                     {
1123:.\BLEApplication.c ****                         WriteDataToFlash=Peripheral;//ÊääÂΩìÂâçÁöÑÂÄºÂÜôÂÖ•Flash‰∏≠,Áî®‰∫éÂ§ç‰ΩçÊó∂
1124:.\BLEApplication.c ****                         if(USER_SFLASH_WRITE_SUCCESSFUL==WriteUserSFlashRow(0,&WriteDataToFlash,1,0
1125:.\BLEApplication.c ****                         {
1126:.\BLEApplication.c ****                             //ÂÅúÊ≠¢Êâ´Êèè,Ê≥®ÈáäÊéâÂπøÊí≠ÊâçÊ≠£Â∏∏ÔºåÂê¶ÂàôÂè™ÊúâÂø´ÂπøÊí≠Ê≤°ÊúâÊÖ
1127:.\BLEApplication.c **** //                            CyBle_GapcStopScan();
ARM GAS  C:\Users\Helon\AppData\Local\Temp\ccKCxrf8.s 			page 33


1128:.\BLEApplication.c ****                             //ÂºÄÂßãÂπøÊí≠
1129:.\BLEApplication.c ****                             CyBle_GappStartAdvertisement(CYBLE_ADVERTISING_FAST);
1130:.\BLEApplication.c ****                             Role=Peripheral;
1131:.\BLEApplication.c ****                             printf("AT+OK\r\n");
1132:.\BLEApplication.c **** //                            printf("+ROLE:<Peripheral>\r\n");
1133:.\BLEApplication.c **** //                            printf("OK\r\n");
1134:.\BLEApplication.c ****                         }  
1135:.\BLEApplication.c ****                         
1136:.\BLEApplication.c ****                     } 
1137:.\BLEApplication.c ****                     else
1138:.\BLEApplication.c ****                     {
1139:.\BLEApplication.c ****                         printf("AT+ERR=3\r\n");//Ë°®Á§∫ÂΩìÂâçÁä∂ÊÄÅ‰∏çÊîØÊåÅËØ•ÂëΩ‰ª§
1140:.\BLEApplication.c ****                     }
1141:.\BLEApplication.c ****                 break;
1142:.\BLEApplication.c **** //                     1Ôºö‰∏ªÊú∫(Master)
1143:.\BLEApplication.c ****                 case '1':
1144:.\BLEApplication.c ****                     if(CYBLE_STATE_CONNECTED!=CyBle_GetState())
1145:.\BLEApplication.c ****                     {
1146:.\BLEApplication.c ****                         WriteDataToFlash=Central;
1147:.\BLEApplication.c ****                         if(USER_SFLASH_WRITE_SUCCESSFUL==WriteUserSFlashRow(0,&WriteDataToFlash,1,0
1148:.\BLEApplication.c ****                         {
1149:.\BLEApplication.c **** //                        ÂÅúÊ≠¢ÂπøÊí≠
1150:.\BLEApplication.c **** //                            CyBle_GappStopAdvertisement();
1151:.\BLEApplication.c **** //                        ÂºÄÂßãÊâ´Êèè
1152:.\BLEApplication.c ****                             CyBle_GapcStartScan(CYBLE_SCANNING_FAST);
1153:.\BLEApplication.c ****                             Role=Central;
1154:.\BLEApplication.c ****                             printf("AT+OK\r\n");
1155:.\BLEApplication.c **** //                            printf("+ROLE:<Central>\r\n");
1156:.\BLEApplication.c **** //                            printf("OK\r\n");
1157:.\BLEApplication.c ****                         }
1158:.\BLEApplication.c **** 
1159:.\BLEApplication.c ****                     }
1160:.\BLEApplication.c ****                     else
1161:.\BLEApplication.c ****                     {
1162:.\BLEApplication.c ****                         printf("AT+ERR=3\r\n");//Ë°®Á§∫ÂΩìÂâçÁä∂ÊÄÅ‰∏çÊîØÊåÅËØ•ÂëΩ‰ª§
1163:.\BLEApplication.c ****                     }
1164:.\BLEApplication.c ****                     
1165:.\BLEApplication.c ****                 break;
1166:.\BLEApplication.c ****                 default:
1167:.\BLEApplication.c ****                     printf("AT+ERR=5\r\n");//Ë°®Á§∫Ê≤°ÊúâËØ•ATÂëΩ‰ª§ 
1168:.\BLEApplication.c ****                 break;                    
1169:.\BLEApplication.c ****             }
1170:.\BLEApplication.c ****         break;
1171:.\BLEApplication.c **** ////            Êü•ËØ¢ÊâÄÊúâÁöÑÁâπÂæÅÊèèËø∞Á¨¶----‰∏ªÊú∫ÊúâÊïà
1172:.\BLEApplication.c ****         case DISALLCHAR:
1173:.\BLEApplication.c ****             if(Role==Central)
1174:.\BLEApplication.c ****             {
1175:.\BLEApplication.c ****                 range.startHandle=0x0001;
1176:.\BLEApplication.c ****                 range.endHandle=0xFFFF;       
1177:.\BLEApplication.c ****                 API_RESULT=CyBle_GattcDiscoverAllCharacteristicDescriptors(cyBle_connHandle,&range)
1178:.\BLEApplication.c ****             }
1179:.\BLEApplication.c ****             else
1180:.\BLEApplication.c ****             {
1181:.\BLEApplication.c ****                 printf("AT+ERR=4\r\n");//Ë°®Á§∫ÂΩìÂâçËßíËâ≤‰∏çÊîØÊåÅËØ•ÂëΩ‰ª§
1182:.\BLEApplication.c **** //                printf("+DISALLCHAR=<INVALID>\r\n");
1183:.\BLEApplication.c ****             }
1184:.\BLEApplication.c ****         break;
ARM GAS  C:\Users\Helon\AppData\Local\Temp\ccKCxrf8.s 			page 34


1185:.\BLEApplication.c **** //            Êâ´ÊèèÂë®Âõ¥ÁöÑBLEËÆæÂ§á----‰∏ªÊú∫ÊúâÊïà
1186:.\BLEApplication.c ****         case SCAN:
1187:.\BLEApplication.c ****             if(Role==Central)
1188:.\BLEApplication.c ****             {
1189:.\BLEApplication.c ****                 if(SerialData[8]=='1')
1190:.\BLEApplication.c ****                 {
1191:.\BLEApplication.c ****                     if(CYBLE_STATE_CONNECTED!=CyBle_GetState())
1192:.\BLEApplication.c ****                     {
1193:.\BLEApplication.c ****                         ScanDeviceInfoInit();
1194:.\BLEApplication.c ****                         if(CYBLE_ERROR_OK==CyBle_GapcStartScan(CYBLE_SCANNING_FAST))
1195:.\BLEApplication.c ****                         {
1196:.\BLEApplication.c ****                             printf("AT+OK\r\n");  
1197:.\BLEApplication.c ****                         }
1198:.\BLEApplication.c ****                         else
1199:.\BLEApplication.c ****                         {
1200:.\BLEApplication.c ****                             printf("AT+ERR=2\r\n");//Ë°®Á§∫ÂëΩ‰ª§ËÆæÁΩÆÂ§±Ë¥•
1201:.\BLEApplication.c ****                         }
1202:.\BLEApplication.c ****                     }
1203:.\BLEApplication.c ****                     else
1204:.\BLEApplication.c ****                     {
1205:.\BLEApplication.c ****                         printf("AT+ERR=3\r\n");//Ë°®Á§∫ÂΩìÂâçÁä∂ÊÄÅ‰∏çÊîØÊåÅËØ•ÂëΩ‰ª§
1206:.\BLEApplication.c ****                     }
1207:.\BLEApplication.c ****                     
1208:.\BLEApplication.c ****                 }
1209:.\BLEApplication.c ****                 else if(SerialData[8]=='0')
1210:.\BLEApplication.c ****                 {
1211:.\BLEApplication.c ****                     if(CYBLE_STATE_SCANNING==CyBle_GetState())
1212:.\BLEApplication.c ****                     {
1213:.\BLEApplication.c ****                         ScanDeviceInfoInit();
1214:.\BLEApplication.c ****                         CyBle_GapcStopScan();                                   
1215:.\BLEApplication.c ****                         STOP_SCAN_FLAG=TRUE;
1216:.\BLEApplication.c ****                         printf("AT+OK\r\n"); 
1217:.\BLEApplication.c ****                     }
1218:.\BLEApplication.c ****                     else
1219:.\BLEApplication.c ****                     {
1220:.\BLEApplication.c ****                         printf("AT+ERR=3\r\n");//Ë°®Á§∫ÂΩìÂâçÁä∂ÊÄÅ‰∏çÊîØÊåÅËØ•ÂëΩ‰ª§
1221:.\BLEApplication.c ****                     }
1222:.\BLEApplication.c ****                 }
1223:.\BLEApplication.c ****                 else if(SerialData[8]=='?')
1224:.\BLEApplication.c ****                 {
1225:.\BLEApplication.c ****                     if(0==DeviceCount)
1226:.\BLEApplication.c ****                     {
1227:.\BLEApplication.c ****                         printf("AT+ERR=10\r\n");//Ë°®Á§∫ÂΩìÂâçËøòÊ≤°ÊúâÊâ´ÊèèÂà∞Âë®ËæπÁöÑBLEËÆæÂ§á
1228:.\BLEApplication.c ****                         return;
1229:.\BLEApplication.c ****                     }
1230:.\BLEApplication.c ****                     for(i=0;i<DeviceCount;i++)
1231:.\BLEApplication.c ****                     {
1232:.\BLEApplication.c ****                         printf("+INQ_SCAN=%d,%02X%02X%02X%02X%02X%02X\r\n",
1233:.\BLEApplication.c ****                         DeviceInfo[i].idx,
1234:.\BLEApplication.c ****                         DeviceInfo[i].DeviceList.bdAddr[5],
1235:.\BLEApplication.c ****                         DeviceInfo[i].DeviceList.bdAddr[4],
1236:.\BLEApplication.c ****                         DeviceInfo[i].DeviceList.bdAddr[3],
1237:.\BLEApplication.c ****                         DeviceInfo[i].DeviceList.bdAddr[2],
1238:.\BLEApplication.c ****                         DeviceInfo[i].DeviceList.bdAddr[1],
1239:.\BLEApplication.c ****                         DeviceInfo[i].DeviceList.bdAddr[0]                             
1240:.\BLEApplication.c ****                       );
1241:.\BLEApplication.c ****     //                  while((UART_SpiUartGetTxBufferSize() + UART_GET_TX_FIFO_SR_VALID) != 0);//Á
ARM GAS  C:\Users\Helon\AppData\Local\Temp\ccKCxrf8.s 			page 35


1242:.\BLEApplication.c ****                     }
1243:.\BLEApplication.c ****                 }
1244:.\BLEApplication.c ****                 else
1245:.\BLEApplication.c ****                 {
1246:.\BLEApplication.c ****                     printf("AT+ERR=5\r\n");//Ë°®Á§∫Ê≤°ÊúâËØ•ATÂëΩ‰ª§ 
1247:.\BLEApplication.c ****                 }
1248:.\BLEApplication.c ****             }
1249:.\BLEApplication.c ****             else
1250:.\BLEApplication.c ****             {
1251:.\BLEApplication.c **** //                printf("+SCAN=<INVALID>\r\n");
1252:.\BLEApplication.c ****                 printf("AT+ERR=4\r\n");//Ë°®Á§∫ÂΩìÂâçËßíËâ≤‰∏çÊîØÊåÅËØ•ÂëΩ‰ª§
1253:.\BLEApplication.c ****             }
1254:.\BLEApplication.c ****         break;
1255:.\BLEApplication.c **** //            ËøûÊé•ÈÄâ‰∏≠ÁöÑBLEËÆæÂ§á-----‰∏ªÊú∫ÊúâÊïà
1256:.\BLEApplication.c ****         case CONNT:
1257:.\BLEApplication.c ****             if(Role==Central)
1258:.\BLEApplication.c ****             {
1259:.\BLEApplication.c ****                 idx=SerialData[9];
1260:.\BLEApplication.c ****                 Connect_Device(idx);      
1261:.\BLEApplication.c ****             }
1262:.\BLEApplication.c ****             else
1263:.\BLEApplication.c ****             {
1264:.\BLEApplication.c **** //                printf("+CONNT=<INVALID>\r\n");
1265:.\BLEApplication.c ****                 printf("AT+ERR=4\r\n");//Ë°®Á§∫ÂΩìÂâçËßíËâ≤‰∏çÊîØÊåÅËØ•ÂëΩ‰ª§
1266:.\BLEApplication.c ****             }
1267:.\BLEApplication.c ****         break;
1268:.\BLEApplication.c **** //            Êñ≠ÂºÄËøûÊé•----‰∏ª‰ªéÊúâÊïà
1269:.\BLEApplication.c ****         case DISCONN:
1270:.\BLEApplication.c ****             if(CYBLE_STATE_CONNECTED==CyBle_GetState())
1271:.\BLEApplication.c ****             {
1272:.\BLEApplication.c ****                 idx=SerialData[11];
1273:.\BLEApplication.c ****                 if(Role==Central)
1274:.\BLEApplication.c ****                 {
1275:.\BLEApplication.c ****                     switch(idx)
1276:.\BLEApplication.c ****                     {
1277:.\BLEApplication.c ****                         case '1':
1278:.\BLEApplication.c ****                             API_RESULT=CyBle_GapDisconnect(cyBle_connHandle.bdHandle);
1279:.\BLEApplication.c ****                             if(CYBLE_ERROR_OK!=API_RESULT)  
1280:.\BLEApplication.c ****                             {
1281:.\BLEApplication.c ****                                 printf("AT+ERR=%d,0x%02X\r\n",idx-0x30,API_RESULT);                
1282:.\BLEApplication.c ****                             }
1283:.\BLEApplication.c ****                             else
1284:.\BLEApplication.c ****                             {
1285:.\BLEApplication.c ****                                 //Êñ≠ÂºÄËøûÊé•ÂêéÔºåÂ∫îËØ•Ê∏ÖÁ©∫ËøûÊé•ÂàóË°®ÂØπÂ∫îÁöÑÂÜÖÂÆπ
1286:.\BLEApplication.c ****                                 for(i=0;i<Conn_Or_Disconn_Info.Connected_Count;i++)
1287:.\BLEApplication.c ****                                 {
1288:.\BLEApplication.c ****                                     if(1==Conn_Or_Disconn_Info.Connect_Idx[i])
1289:.\BLEApplication.c ****                                     {
1290:.\BLEApplication.c ****                                         Conn_Or_Disconn_Info.Connected_Count--;
1291:.\BLEApplication.c ****                                         memset(Conn_Or_Disconn_Info.DeviceAddr[i].bdAddr,0,6);
1292:.\BLEApplication.c ****                                         Conn_Or_Disconn_Info.Connect_Idx[i]=0;
1293:.\BLEApplication.c ****                                         Conn_Or_Disconn_Info.Disconn_Idx[0]=idx-0x30;
1294:.\BLEApplication.c ****                                         Conn_or_Disconn_Idx=idx-0x30;
1295:.\BLEApplication.c ****                                         break;
1296:.\BLEApplication.c ****                                     }
1297:.\BLEApplication.c ****                                 }
1298:.\BLEApplication.c ****                                 printf("AT+OK\r\n");
ARM GAS  C:\Users\Helon\AppData\Local\Temp\ccKCxrf8.s 			page 36


1299:.\BLEApplication.c ****                             }
1300:.\BLEApplication.c ****                         break;
1301:.\BLEApplication.c ****                         case '2':
1302:.\BLEApplication.c ****                             API_RESULT=CyBle_GapDisconnect(cyBle_connHandle.bdHandle);
1303:.\BLEApplication.c ****                             if(CYBLE_ERROR_OK!=API_RESULT)  
1304:.\BLEApplication.c ****                             {
1305:.\BLEApplication.c ****                                 printf("AT+ERR=%d,0x%02X\r\n",idx-0x30,API_RESULT);                
1306:.\BLEApplication.c ****                             }
1307:.\BLEApplication.c ****                             else
1308:.\BLEApplication.c ****                             {
1309:.\BLEApplication.c ****                                 //Êñ≠ÂºÄËøûÊé•ÂêéÔºåÂ∫îËØ•Ê∏ÖÁ©∫ËøûÊé•ÂàóË°®ÂØπÂ∫îÁöÑÂÜÖÂÆπ
1310:.\BLEApplication.c ****                                 for(i=0;i<Conn_Or_Disconn_Info.Connected_Count;i++)
1311:.\BLEApplication.c ****                                 {
1312:.\BLEApplication.c ****                                     if(1==Conn_Or_Disconn_Info.Connect_Idx[i])
1313:.\BLEApplication.c ****                                     {
1314:.\BLEApplication.c ****                                         Conn_Or_Disconn_Info.Connected_Count--;
1315:.\BLEApplication.c ****                                         memset(Conn_Or_Disconn_Info.DeviceAddr[i].bdAddr,0,6);
1316:.\BLEApplication.c ****                                         Conn_Or_Disconn_Info.Connect_Idx[i]=0;
1317:.\BLEApplication.c ****                                         Conn_Or_Disconn_Info.Disconn_Idx[0]=idx-0x30;
1318:.\BLEApplication.c ****                                         Conn_or_Disconn_Idx=idx-0x30;
1319:.\BLEApplication.c ****                                         break;
1320:.\BLEApplication.c ****                                     }
1321:.\BLEApplication.c ****                                 }
1322:.\BLEApplication.c ****                                 printf("AT+OK\r\n");
1323:.\BLEApplication.c ****                             }
1324:.\BLEApplication.c ****                         break;
1325:.\BLEApplication.c ****                         case '3':
1326:.\BLEApplication.c ****                             API_RESULT=CyBle_GapDisconnect(cyBle_connHandle.bdHandle);
1327:.\BLEApplication.c ****                             if(CYBLE_ERROR_OK!=API_RESULT)  
1328:.\BLEApplication.c ****                             {
1329:.\BLEApplication.c ****                                 printf("AT+ERR=%d,0x%02X\r\n",idx-0x30,API_RESULT);                
1330:.\BLEApplication.c ****                             }
1331:.\BLEApplication.c ****                             else
1332:.\BLEApplication.c ****                             {
1333:.\BLEApplication.c ****                                 //Êñ≠ÂºÄËøûÊé•ÂêéÔºåÂ∫îËØ•Ê∏ÖÁ©∫ËøûÊé•ÂàóË°®ÂØπÂ∫îÁöÑÂÜÖÂÆπ
1334:.\BLEApplication.c ****                                 for(i=0;i<Conn_Or_Disconn_Info.Connected_Count;i++)
1335:.\BLEApplication.c ****                                 {
1336:.\BLEApplication.c ****                                     if(1==Conn_Or_Disconn_Info.Connect_Idx[i])
1337:.\BLEApplication.c ****                                     {
1338:.\BLEApplication.c ****                                         Conn_Or_Disconn_Info.Connected_Count--;
1339:.\BLEApplication.c ****                                         memset(Conn_Or_Disconn_Info.DeviceAddr[i].bdAddr,0,6);
1340:.\BLEApplication.c ****                                         Conn_Or_Disconn_Info.Connect_Idx[i]=0;
1341:.\BLEApplication.c ****                                         Conn_Or_Disconn_Info.Disconn_Idx[0]=idx-0x30;
1342:.\BLEApplication.c ****                                         Conn_or_Disconn_Idx=idx-0x30;
1343:.\BLEApplication.c ****                                         break;
1344:.\BLEApplication.c ****                                     }
1345:.\BLEApplication.c ****                                 }
1346:.\BLEApplication.c ****                                 printf("AT+OK\r\n");
1347:.\BLEApplication.c ****                             }
1348:.\BLEApplication.c ****                         break;
1349:.\BLEApplication.c ****                         case '4':
1350:.\BLEApplication.c ****                             API_RESULT=CyBle_GapDisconnect(cyBle_connHandle.bdHandle);
1351:.\BLEApplication.c ****                             if(CYBLE_ERROR_OK!=API_RESULT)  
1352:.\BLEApplication.c ****                             {
1353:.\BLEApplication.c ****                                 printf("AT+ERR=%d,0x%02X\r\n",idx-0x30,API_RESULT);                
1354:.\BLEApplication.c ****                             }
1355:.\BLEApplication.c ****                             else
ARM GAS  C:\Users\Helon\AppData\Local\Temp\ccKCxrf8.s 			page 37


1356:.\BLEApplication.c ****                             {
1357:.\BLEApplication.c ****                                 //Êñ≠ÂºÄËøûÊé•ÂêéÔºåÂ∫îËØ•Ê∏ÖÁ©∫ËøûÊé•ÂàóË°®ÂØπÂ∫îÁöÑÂÜÖÂÆπ
1358:.\BLEApplication.c ****                                 for(i=0;i<Conn_Or_Disconn_Info.Connected_Count;i++)
1359:.\BLEApplication.c ****                                 {
1360:.\BLEApplication.c ****                                     if(1==Conn_Or_Disconn_Info.Connect_Idx[i])
1361:.\BLEApplication.c ****                                     {
1362:.\BLEApplication.c ****                                         Conn_Or_Disconn_Info.Connected_Count--;
1363:.\BLEApplication.c ****                                         memset(Conn_Or_Disconn_Info.DeviceAddr[i].bdAddr,0,6);
1364:.\BLEApplication.c ****                                         Conn_Or_Disconn_Info.Connect_Idx[i]=0;
1365:.\BLEApplication.c ****                                         Conn_Or_Disconn_Info.Disconn_Idx[0]=idx-0x30;
1366:.\BLEApplication.c ****                                         Conn_or_Disconn_Idx=idx-0x30;
1367:.\BLEApplication.c ****                                         break;
1368:.\BLEApplication.c ****                                     }
1369:.\BLEApplication.c ****                                 }
1370:.\BLEApplication.c ****                                 printf("AT+OK\r\n");
1371:.\BLEApplication.c ****                             }
1372:.\BLEApplication.c ****                         break;  
1373:.\BLEApplication.c ****                         default:
1374:.\BLEApplication.c ****                             printf("AT+ERR=5\r\n");//Ë°®Á§∫Ê≤°ÊúâËØ•ATÂëΩ‰ª§ 
1375:.\BLEApplication.c ****                         break;
1376:.\BLEApplication.c ****                     }
1377:.\BLEApplication.c ****                 }
1378:.\BLEApplication.c ****                 else
1379:.\BLEApplication.c ****                 {
1380:.\BLEApplication.c ****                     if(idx=='1')
1381:.\BLEApplication.c ****                     {                        
1382:.\BLEApplication.c ****                         API_RESULT=CyBle_GapDisconnect(cyBle_connHandle.bdHandle);
1383:.\BLEApplication.c ****                         if(CYBLE_ERROR_OK!=API_RESULT)  
1384:.\BLEApplication.c ****                         {
1385:.\BLEApplication.c ****                             printf("AT+ERR=0x%02X\r\n",API_RESULT);                    
1386:.\BLEApplication.c ****                         }
1387:.\BLEApplication.c ****                     }
1388:.\BLEApplication.c ****                     else
1389:.\BLEApplication.c ****                     {
1390:.\BLEApplication.c ****                         printf("AT+ERR=5\r\n");//Ë°®Á§∫Ê≤°ÊúâËØ•ATÂëΩ‰ª§
1391:.\BLEApplication.c ****                     }
1392:.\BLEApplication.c ****                 }
1393:.\BLEApplication.c ****             }
1394:.\BLEApplication.c ****             else
1395:.\BLEApplication.c ****             {
1396:.\BLEApplication.c ****                 printf("AT+ERR=3\r\n");//Ë°®Á§∫ÂΩìÂâçÁä∂ÊÄÅ‰∏çÊîØÊåÅËØ•ÂëΩ‰ª§
1397:.\BLEApplication.c ****             }
1398:.\BLEApplication.c ****             
1399:.\BLEApplication.c ****         break;
1400:.\BLEApplication.c ****         case LOGIN:
1401:.\BLEApplication.c ****         break;
1402:.\BLEApplication.c ****         case TX:
1403:.\BLEApplication.c ****         break;
1404:.\BLEApplication.c **** //            ‰∏ªÊú∫Êåá‰ª§ËØªÂèñ‰ªéÊú∫ÁöÑRSSI----‰∏ª‰ªéÊú∫ÊúâÊïà
1405:.\BLEApplication.c ****         case RSSI:
1406:.\BLEApplication.c ****             if(CYBLE_STATE_CONNECTED==CyBle_GetState())
1407:.\BLEApplication.c ****             {
1408:.\BLEApplication.c ****                 idx=SerialData[8];
1409:.\BLEApplication.c ****                 if(idx=='?')
1410:.\BLEApplication.c ****                 {                    
1411:.\BLEApplication.c ****                      printf("+RSSI=%ddbm\r\n",CyBle_GetRssi());
1412:.\BLEApplication.c ****                 }                    
ARM GAS  C:\Users\Helon\AppData\Local\Temp\ccKCxrf8.s 			page 38


1413:.\BLEApplication.c ****                 else
1414:.\BLEApplication.c ****                 {
1415:.\BLEApplication.c ****                     printf("AT+ERR=5\r\n");//Ë°®Á§∫Ê≤°ÊúâËØ•ATÂëΩ‰ª§
1416:.\BLEApplication.c ****                 }
1417:.\BLEApplication.c ****             }
1418:.\BLEApplication.c ****             else
1419:.\BLEApplication.c ****             {
1420:.\BLEApplication.c ****                printf("AT+ERR=3\r\n");//Ë°®Á§∫ÂΩìÂâçÁä∂ÊÄÅ‰∏çÊîØÊåÅËØ•ÂëΩ‰ª§ 
1421:.\BLEApplication.c ****             }
1422:.\BLEApplication.c ****         break;     
1423:.\BLEApplication.c **** //            ÈÄè‰º†ÈÄüÁéáÊµãËØï----‰∏ªÊúâÊïà
1424:.\BLEApplication.c ****         case SPEED:
1425:.\BLEApplication.c ****             idx=SerialData[9];
1426:.\BLEApplication.c ****             if('?'==idx)
1427:.\BLEApplication.c ****             {
1428:.\BLEApplication.c ****                 printf("%ld\r\n",testCount);
1429:.\BLEApplication.c ****                 testCount=0;
1430:.\BLEApplication.c ****             }
1431:.\BLEApplication.c ****             else
1432:.\BLEApplication.c ****             {
1433:.\BLEApplication.c ****                printf("AT+ERR=5\r\n");//Ë°®Á§∫Ê≤°ÊúâËØ•ATÂëΩ‰ª§ 
1434:.\BLEApplication.c ****             }
1435:.\BLEApplication.c **** //            if(CYBLE_STATE_CONNECTED==CyBle_GetState()&&(Central==Role))//ÂΩì‰∏î‰ªÖÂΩìÊòØËøûÊé•Áä
1436:.\BLEApplication.c **** //            {
1437:.\BLEApplication.c **** //                idx=SerialData[9];
1438:.\BLEApplication.c **** ////                MTU_REQ_FLAG=TRUE;                
1439:.\BLEApplication.c **** //                if('?'==idx)
1440:.\BLEApplication.c **** //                {                           
1441:.\BLEApplication.c **** //                    printf("Test Start\r\n");
1442:.\BLEApplication.c **** //                    Timer_Enable();
1443:.\BLEApplication.c **** //                    //‰∏ªÊú∫ÂèëÈÄÅÁöÑMTU exchange request
1444:.\BLEApplication.c **** ////                    if(MTU_REQ_FLAG^FALSE)
1445:.\BLEApplication.c **** ////                    {
1446:.\BLEApplication.c **** ////                        TroughtTest_Flag=TURE;                        
1447:.\BLEApplication.c **** ////                        MTU_REQ_FLAG=FALSE;
1448:.\BLEApplication.c **** ////                        API_RESULT=CyBle_GattcExchangeMtuReq(cyBle_connHandle, CYBLE_GATT_MTU);
1449:.\BLEApplication.c **** //////                        printf("GattcExchangeMtuReq is %d\r\n",API_RESULT);
1450:.\BLEApplication.c **** ////                        break;
1451:.\BLEApplication.c **** ////                    }
1452:.\BLEApplication.c **** ////                    else
1453:.\BLEApplication.c **** ////                    {
1454:.\BLEApplication.c **** //////                        TroughtTest_Flag=TURE;
1455:.\BLEApplication.c **** //////                        charNotificationEnabled = TURE;
1456:.\BLEApplication.c **** ////                        totalByteCounter=0;
1457:.\BLEApplication.c **** //////                        UART_UartPutString("Calculating throughput. Please wait...\n\r");
1458:.\BLEApplication.c **** //////                        Timer_Enable();
1459:.\BLEApplication.c **** ////                        writeRequestData.value.val[0]=0x01;
1460:.\BLEApplication.c **** ////                        writeRequestData.attrHandle=CYBLE_TROUGHPUT_SERVICE_SPEEDTEST_CHAR_HAND
1461:.\BLEApplication.c **** ////                        API_RESULT=CyBle_GattcWriteCharacteristicValue(cyBle_connHandle, &write
1462:.\BLEApplication.c **** ////                        if(CYBLE_ERROR_OK==API_RESULT)
1463:.\BLEApplication.c **** ////                        {
1464:.\BLEApplication.c **** ////                            CyBle_ProcessEvents();
1465:.\BLEApplication.c **** ////                        }                       
1466:.\BLEApplication.c **** ////                        printf("CyBle_GattcWriteCharacteristicDescriptors is %d\r\n",API_RESULT
1467:.\BLEApplication.c **** ////                    }
1468:.\BLEApplication.c **** //                }    
1469:.\BLEApplication.c **** ////            break;
ARM GAS  C:\Users\Helon\AppData\Local\Temp\ccKCxrf8.s 			page 39


1470:.\BLEApplication.c **** //            }
1471:.\BLEApplication.c **** //            else
1472:.\BLEApplication.c **** //            {                
1473:.\BLEApplication.c **** //            }
1474:.\BLEApplication.c ****         break;
1475:.\BLEApplication.c **** //            ‰ΩøËÉΩNotifyÂ±ûÊÄßÁöÑÁâπÂæÅÂÄº-----‰∏ªÊú∫ÊúâÊïàÔºå‰ΩÜÊòØ‰ªéÊú∫‰πüÂèØ‰ª•ÊúâÊïàÂè™ÊòØ‰∏
1476:.\BLEApplication.c ****         case NOTIFY:
1477:.\BLEApplication.c ****             idx=SerialData[10];
1478:.\BLEApplication.c ****             if((CYBLE_STATE_CONNECTED==CyBle_GetState())&&(Central==Role))//‰∏ªÊú∫Ê®°Âºè‰∏ã‰∏îÊòØAT
1479:.\BLEApplication.c ****              {                  
1480:.\BLEApplication.c ****                 switch(idx)
1481:.\BLEApplication.c ****                 {
1482:.\BLEApplication.c **** //                    //ÂÖ≥Èó≠ÈÄè‰º†ÈÄöÈÅì,Âú®ÈÄè‰º†Ê®°Âºè‰∏ã‰∏ç‰ºöËøõÊù•ËøôÈáå
1483:.\BLEApplication.c ****                     case '0':
1484:.\BLEApplication.c **** //                        writeRequestData.value.val[0]=0x00;
1485:.\BLEApplication.c **** //                        writeRequestData.attrHandle=CYBLE_TROUGHPUT_SERVICE_CUSTOM_CHARACTERISTIC
1486:.\BLEApplication.c **** //                        API_RESULT=CyBle_GattcWriteCharacteristicValue(cyBle_connHandle, &writeRe
1487:.\BLEApplication.c **** //                        if(CYBLE_ERROR_OK==API_RESULT)
1488:.\BLEApplication.c **** //                        {
1489:.\BLEApplication.c ****                         CTS_Write(CTS_OFF);
1490:.\BLEApplication.c ****                         CommandMode=AT_COMMAND_MODE;
1491:.\BLEApplication.c ****                         printf("+MODE=AT_COMMAND_MODE\r\n");
1492:.\BLEApplication.c **** //                        }
1493:.\BLEApplication.c **** ////                        printf("CyBle_GattcWriteCharacteristicValue is %d\r\n",API_RESULT);
1494:.\BLEApplication.c ****                     break;
1495:.\BLEApplication.c **** //                    ÊâìÂºÄÈÄè‰º†ÈÄöÈÅì
1496:.\BLEApplication.c ****                     case '1':
1497:.\BLEApplication.c ****                         writeRequestData.value.val[0]=0x01;
1498:.\BLEApplication.c ****                         writeRequestData.attrHandle=CYBLE_TROUGHPUT_SERVICE_CUSTOM_CHARACTERISTIC_C
1499:.\BLEApplication.c ****                         API_RESULT=CyBle_GattcWriteWithoutResponse(cyBle_connHandle, &writeRequestD
1500:.\BLEApplication.c ****                         if(CYBLE_ERROR_OK==API_RESULT)
1501:.\BLEApplication.c ****                         {
1502:.\BLEApplication.c ****                             CommandMode=THROUGHT_MODE;
1503:.\BLEApplication.c ****                             CTS_Write(CTS_ON);
1504:.\BLEApplication.c ****                             printf("+MODE=THROUGHT_MODE\r\n");
1505:.\BLEApplication.c ****                         }
1506:.\BLEApplication.c **** //                        printf("CyBle_GattcWriteCharacteristicValue is %d\r\n",API_RESULT);
1507:.\BLEApplication.c ****                     break;
1508:.\BLEApplication.c ****                     case '?'://‰∏ªÊú∫Ê®°Âºè‰∏ãÔºåËÉΩÊé•Êî∂Âà∞ËØ•ÂëΩ‰ª§Âàô‰∏ÄÂÆöÊòØATÂëΩ‰ª§Ê®°Âºè
1509:.\BLEApplication.c ****                         printf("+MODE=AT_COMMAND_MODE\r\n");                       
1510:.\BLEApplication.c ****                     break;
1511:.\BLEApplication.c ****                     default:
1512:.\BLEApplication.c ****                         printf("AT+ERR=5\r\n");//Ë°®Á§∫Ê≤°ÊúâËØ•ATÂëΩ‰ª§
1513:.\BLEApplication.c ****                     break;
1514:.\BLEApplication.c **** //                        API_RESULT=CyBle_GattcReadCharacteristicValue(cyBle_connHandle,readReques
1515:.\BLEApplication.c **** //                        printf("CyBle_GattcReadCharacteristicDescriptors is %d\r\n",API_RESULT); 
1516:.\BLEApplication.c ****                         
1517:.\BLEApplication.c **** //                    break;
1518:.\BLEApplication.c ****                 }
1519:.\BLEApplication.c ****             }
1520:.\BLEApplication.c ****             else if((CYBLE_STATE_CONNECTED==CyBle_GetState())&&(Peripheral==Role))//‰ªéÊú∫Ê®°Âºè‰∏ã
1521:.\BLEApplication.c ****             {
1522:.\BLEApplication.c ****                 switch(idx)
1523:.\BLEApplication.c ****                 {
1524:.\BLEApplication.c ****                     case '0':
1525:.\BLEApplication.c ****                         CommandMode=AT_COMMAND_MODE;
1526:.\BLEApplication.c ****                         CTS_Write(CTS_OFF);
ARM GAS  C:\Users\Helon\AppData\Local\Temp\ccKCxrf8.s 			page 40


1527:.\BLEApplication.c ****                         printf("+MODE=AT_COMMAND_MODE\r\n");
1528:.\BLEApplication.c ****                     break;
1529:.\BLEApplication.c ****                     case '1'://‰ªéÊú∫Ê®°Âºè‰∏îATÂëΩ‰ª§Ê®°Âºè‰∏ãÔºåÊâìÂºÄ‰ªéÊú∫Áªô‰∏ªÊú∫ÁöÑÈÄè‰º†ÈÄö
1530:.\BLEApplication.c ****                         CommandMode=THROUGHT_MODE;
1531:.\BLEApplication.c ****                         CTS_Write(CTS_ON);
1532:.\BLEApplication.c ****                         printf("+MODE=THROUGHT_MODE\r\n");
1533:.\BLEApplication.c ****                     break;
1534:.\BLEApplication.c ****                     case '?'://‰ªéÊú∫Ê®°Âºè‰∏ãÔºåËÉΩÊé•Êî∂Âà∞ËØ•ÂëΩ‰ª§Âàô‰∏ÄÂÆöÊòØATÂëΩ‰ª§Ê®°Âºè
1535:.\BLEApplication.c ****                         printf("+MODE=AT_COMMAND_MODE\r\n");                       
1536:.\BLEApplication.c ****                     break;
1537:.\BLEApplication.c ****                     default:
1538:.\BLEApplication.c ****                         printf("AT+ERR=5\r\n");//Ë°®Á§∫Ê≤°ÊúâËØ•ATÂëΩ‰ª§
1539:.\BLEApplication.c ****                     break;
1540:.\BLEApplication.c **** 
1541:.\BLEApplication.c ****                 }
1542:.\BLEApplication.c **** //                printf("+NOTIFY=<INVALID>\r\n");
1543:.\BLEApplication.c ****             }
1544:.\BLEApplication.c ****             else
1545:.\BLEApplication.c ****             {
1546:.\BLEApplication.c **** //                printf("+NOTIFY=<INVALID>\r\n");
1547:.\BLEApplication.c ****                 printf("AT+ERR=3\r\n");//Ë°®Á§∫ÂΩìÂâçÁä∂ÊÄÅ‰∏çÊîØÊåÅËØ•ÂëΩ‰ª§
1548:.\BLEApplication.c ****             }
1549:.\BLEApplication.c ****         break;
1550:.\BLEApplication.c **** //            ÂΩìÂâçBLEËÆæÂ§áÁä∂ÊÄÅÊü•ËØ¢----‰∏ª‰ªéÊúâÊïà
1551:.\BLEApplication.c ****         case STAUS:
1552:.\BLEApplication.c ****             idx=SerialData[9];            
1553:.\BLEApplication.c ****             if(idx=='?')
1554:.\BLEApplication.c ****             {
1555:.\BLEApplication.c ****                 STAUS_T=CyBle_GetState();
1556:.\BLEApplication.c ****                 switch(STAUS_T)
1557:.\BLEApplication.c ****                 {
1558:.\BLEApplication.c ****                     case 0:
1559:.\BLEApplication.c ****                             printf("+STAUS=0\r\n");
1560:.\BLEApplication.c **** //                        printf("+STAUS=<STATE_STOPPED>\r\n");
1561:.\BLEApplication.c ****                     break;
1562:.\BLEApplication.c ****                     case 1:
1563:.\BLEApplication.c ****                             printf("+STAUS=1\r\n");
1564:.\BLEApplication.c **** //                        printf("+STAUS=<STATE_INITIALIZING>\r\n");
1565:.\BLEApplication.c ****                     break;
1566:.\BLEApplication.c ****                     case 2:
1567:.\BLEApplication.c ****                             printf("+STAUS=2\r\n");
1568:.\BLEApplication.c **** //                        printf("+STAUS=<STATE_CONNECTED>\r\n");
1569:.\BLEApplication.c ****                     break;
1570:.\BLEApplication.c ****                     case 3:
1571:.\BLEApplication.c ****                             printf("+STAUS=3\r\n");
1572:.\BLEApplication.c **** //                        printf("+STAUS=<STATE_ADVERTISING>\r\n");
1573:.\BLEApplication.c ****                     break;
1574:.\BLEApplication.c ****                     case 4:
1575:.\BLEApplication.c ****                             printf("+STAUS=4\r\n");
1576:.\BLEApplication.c **** //                        printf("+STAUS=<STATE_SCANNING>\r\n");
1577:.\BLEApplication.c ****                     break;
1578:.\BLEApplication.c ****                     case 5:
1579:.\BLEApplication.c ****                             printf("+STAUS=5\r\n");
1580:.\BLEApplication.c **** //                        printf("+STAUS=<STATE_CONNECTING>\r\n");
1581:.\BLEApplication.c ****                     break;
1582:.\BLEApplication.c ****                     case 6:
1583:.\BLEApplication.c ****                             printf("+STAUS=6\r\n");
ARM GAS  C:\Users\Helon\AppData\Local\Temp\ccKCxrf8.s 			page 41


1584:.\BLEApplication.c **** //                        printf("+STAUS=<STATE_DISCONNECTED>\r\n");
1585:.\BLEApplication.c ****                     break;
1586:.\BLEApplication.c ****                     default:
1587:.\BLEApplication.c ****                     break;
1588:.\BLEApplication.c ****                 }
1589:.\BLEApplication.c ****             }
1590:.\BLEApplication.c ****             else
1591:.\BLEApplication.c ****             {
1592:.\BLEApplication.c ****                 printf("AT+ERR=5\r\n");//Ë°®Á§∫Ê≤°ÊúâËØ•ATÂëΩ‰ª§
1593:.\BLEApplication.c ****             }
1594:.\BLEApplication.c ****         break;
1595:.\BLEApplication.c **** //            ÂπøÊí≠ÁöÑÊâìÂºÄ‰∏éÂÖ≥Èó≠-----‰ªéÊú∫ÊúâÊïà
1596:.\BLEApplication.c ****         case ADVS:            
1597:.\BLEApplication.c ****             idx=SerialData[8];            
1598:.\BLEApplication.c ****             if(Role==Peripheral)
1599:.\BLEApplication.c ****             {
1600:.\BLEApplication.c ****                 if(CYBLE_STATE_CONNECTED!=CyBle_GetState())
1601:.\BLEApplication.c ****                 {
1602:.\BLEApplication.c ****                     if(idx=='1')//ÂºÄÂßãÂπøÊí≠
1603:.\BLEApplication.c ****                     {
1604:.\BLEApplication.c ****                         if(CYBLE_STATE_ADVERTISING!=CyBle_GetState())
1605:.\BLEApplication.c ****                         {
1606:.\BLEApplication.c ****                             API_RESULT=CyBle_GappStartAdvertisement(CYBLE_ADVERTISING_FAST);
1607:.\BLEApplication.c ****                             if(CYBLE_ERROR_OK==API_RESULT)
1608:.\BLEApplication.c ****                             {
1609:.\BLEApplication.c ****     //                           printf("+ADV=<ENABLE>\r\n");
1610:.\BLEApplication.c ****                                 printf("AT+OK\r\n");
1611:.\BLEApplication.c ****                             }
1612:.\BLEApplication.c ****                             else
1613:.\BLEApplication.c ****                             {
1614:.\BLEApplication.c ****                                 printf("AT+ERR=2\r\n");//Ë°®Á§∫ÂëΩ‰ª§ËÆæÁΩÆÂ§±Ë¥•
1615:.\BLEApplication.c ****                             }
1616:.\BLEApplication.c ****                         }
1617:.\BLEApplication.c ****                         else
1618:.\BLEApplication.c ****                         {
1619:.\BLEApplication.c ****     //                        printf("+ADV=<ENABLE>\r\n");
1620:.\BLEApplication.c ****                             printf("AT+ERR=3\r\n");//Ë°®Á§∫ÂΩìÂâçÁä∂ÊÄÅ‰∏çÊîØÊåÅËØ•ÂëΩ‰ª§
1621:.\BLEApplication.c ****                         }
1622:.\BLEApplication.c ****                     }
1623:.\BLEApplication.c ****                     else if(idx=='0')//ÂÖ≥Èó≠ÂπøÊí≠
1624:.\BLEApplication.c ****                     {
1625:.\BLEApplication.c ****                         if(CYBLE_STATE_ADVERTISING==CyBle_GetState())
1626:.\BLEApplication.c ****                         {
1627:.\BLEApplication.c ****                             CyBle_GappStopAdvertisement();
1628:.\BLEApplication.c ****                             printf("AT+OK\r\n");
1629:.\BLEApplication.c ****     //                        printf("+ADV=<DISABLE>\r\n");                        
1630:.\BLEApplication.c ****                         }
1631:.\BLEApplication.c ****                         else
1632:.\BLEApplication.c ****                         {
1633:.\BLEApplication.c ****     //                        printf("+ADV=<DISABLE>\r\n");  
1634:.\BLEApplication.c ****                             printf("AT+ERR=3\r\n");//Ë°®Á§∫ÂΩìÂâçÁä∂ÊÄÅ‰∏çÊîØÊåÅËØ•ÂëΩ‰ª§
1635:.\BLEApplication.c ****                         }
1636:.\BLEApplication.c ****                     }
1637:.\BLEApplication.c ****                     else
1638:.\BLEApplication.c ****                     {
1639:.\BLEApplication.c ****                         printf("AT+ERR=5\r\n");//Ë°®Á§∫Ê≤°ÊúâËØ•ATÂëΩ‰ª§
1640:.\BLEApplication.c ****                     }
ARM GAS  C:\Users\Helon\AppData\Local\Temp\ccKCxrf8.s 			page 42


1641:.\BLEApplication.c ****                 }
1642:.\BLEApplication.c ****                 else
1643:.\BLEApplication.c ****                 {
1644:.\BLEApplication.c ****     //                printf("+ADV=<INVALID>\r\n"); 
1645:.\BLEApplication.c ****                     printf("AT+ERR=3\r\n");//Ë°®Á§∫ÂΩìÂâçÁä∂ÊÄÅ‰∏çÊîØÊåÅËØ•ÂëΩ‰ª§
1646:.\BLEApplication.c ****                 }
1647:.\BLEApplication.c ****             }
1648:.\BLEApplication.c ****             else
1649:.\BLEApplication.c ****             {
1650:.\BLEApplication.c **** //                printf("+CONNT=<INVALID>\r\n");
1651:.\BLEApplication.c ****                 printf("AT+ERR=4\r\n");//Ë°®Á§∫ÂΩìÂâçËßíËâ≤‰∏çÊîØÊåÅËØ•ÂëΩ‰ª§
1652:.\BLEApplication.c ****             }
1653:.\BLEApplication.c ****         break;
1654:.\BLEApplication.c **** //            ËÆæÁΩÆËÆæÂ§áIOÁöÑËÉΩÂäõ-----‰∏ª‰ªéÊúâÊïà
1655:.\BLEApplication.c ****         case IOCAP:
1656:.\BLEApplication.c ****             idx=SerialData[9];
1657:.\BLEApplication.c ****             if(CYBLE_STATE_CONNECTED!=CyBle_GetState())
1658:.\BLEApplication.c ****             {                
1659:.\BLEApplication.c ****                 switch(idx)
1660:.\BLEApplication.c ****                 {
1661:.\BLEApplication.c ****                     case '0':
1662:.\BLEApplication.c ****                     API_RESULT=CyBle_GapSetIoCap(CYBLE_GAP_IOCAP_DISPLAY_ONLY);
1663:.\BLEApplication.c ****                     if(API_RESULT==CYBLE_ERROR_OK)
1664:.\BLEApplication.c ****                     {
1665:.\BLEApplication.c **** //                        printf("+IOCAP=<DISPLAY_ONLY>\r\n");
1666:.\BLEApplication.c ****                         printf("AT+OK\r\n");
1667:.\BLEApplication.c ****                         iocapability=CYBLE_GAP_IOCAP_DISPLAY_ONLY;
1668:.\BLEApplication.c ****                     }
1669:.\BLEApplication.c ****                     else
1670:.\BLEApplication.c ****                     {
1671:.\BLEApplication.c ****                         printf("AT+ERR=2\r\n");//Ë°®Á§∫ÂëΩ‰ª§ËÆæÁΩÆÂ§±Ë¥•
1672:.\BLEApplication.c ****                     }
1673:.\BLEApplication.c ****                     break;
1674:.\BLEApplication.c ****                     case '1':
1675:.\BLEApplication.c ****                     API_RESULT=CyBle_GapSetIoCap(CYBLE_GAP_IOCAP_DISPLAY_YESNO);
1676:.\BLEApplication.c ****                     if(API_RESULT==CYBLE_ERROR_OK)
1677:.\BLEApplication.c ****                     {
1678:.\BLEApplication.c **** //                        printf("+IOCAP=<DISPLAY_YESNO>\r\n");
1679:.\BLEApplication.c ****                         printf("AT+OK\r\n");
1680:.\BLEApplication.c ****                         iocapability=CYBLE_GAP_IOCAP_DISPLAY_YESNO;
1681:.\BLEApplication.c ****                     }
1682:.\BLEApplication.c ****                     else
1683:.\BLEApplication.c ****                     {
1684:.\BLEApplication.c ****                         printf("AT+ERR=2\r\n");//Ë°®Á§∫ÂëΩ‰ª§ËÆæÁΩÆÂ§±Ë¥•
1685:.\BLEApplication.c ****                     }
1686:.\BLEApplication.c ****                     break;
1687:.\BLEApplication.c ****                     case '2':
1688:.\BLEApplication.c ****                     API_RESULT=CyBle_GapSetIoCap(CYBLE_GAP_IOCAP_KEYBOARD_ONLY);
1689:.\BLEApplication.c ****                     if(API_RESULT==CYBLE_ERROR_OK)
1690:.\BLEApplication.c ****                     {
1691:.\BLEApplication.c **** //                        printf("+IOCAP=<KEYBOARD_ONLY>\r\n");
1692:.\BLEApplication.c ****                         printf("AT+OK\r\n");
1693:.\BLEApplication.c ****                         iocapability=CYBLE_GAP_IOCAP_KEYBOARD_ONLY;
1694:.\BLEApplication.c ****                     }
1695:.\BLEApplication.c ****                     else
1696:.\BLEApplication.c ****                     {
1697:.\BLEApplication.c ****                         printf("AT+ERR=2\r\n");//Ë°®Á§∫ÂëΩ‰ª§ËÆæÁΩÆÂ§±Ë¥•
ARM GAS  C:\Users\Helon\AppData\Local\Temp\ccKCxrf8.s 			page 43


1698:.\BLEApplication.c ****                     }
1699:.\BLEApplication.c ****                     break;
1700:.\BLEApplication.c ****                     case '3':
1701:.\BLEApplication.c ****                     API_RESULT=CyBle_GapSetIoCap(CYBLE_GAP_IOCAP_NOINPUT_NOOUTPUT);
1702:.\BLEApplication.c ****                     if(API_RESULT==CYBLE_ERROR_OK)
1703:.\BLEApplication.c ****                     {
1704:.\BLEApplication.c **** //                        printf("+IOCAP=<NOINPUT_NOOUTPUT>\r\n");
1705:.\BLEApplication.c ****                         printf("AT+OK\r\n");
1706:.\BLEApplication.c ****                         iocapability=CYBLE_GAP_IOCAP_NOINPUT_NOOUTPUT;
1707:.\BLEApplication.c ****                     }
1708:.\BLEApplication.c ****                     else
1709:.\BLEApplication.c ****                     {
1710:.\BLEApplication.c ****                         printf("AT+ERR=2\r\n");//Ë°®Á§∫ÂëΩ‰ª§ËÆæÁΩÆÂ§±Ë¥•
1711:.\BLEApplication.c ****                     }
1712:.\BLEApplication.c ****                     break;
1713:.\BLEApplication.c ****                     case '4':
1714:.\BLEApplication.c ****                     API_RESULT=CyBle_GapSetIoCap(CYBLE_GAP_IOCAP_KEYBOARD_DISPLAY);
1715:.\BLEApplication.c ****                     if(API_RESULT==CYBLE_ERROR_OK)
1716:.\BLEApplication.c ****                     {
1717:.\BLEApplication.c **** //                        printf("+IOCAP=<KEYBOARD_DISPLAY>\r\n");
1718:.\BLEApplication.c ****                         printf("AT+OK\r\n");
1719:.\BLEApplication.c ****                         iocapability=CYBLE_GAP_IOCAP_KEYBOARD_DISPLAY;
1720:.\BLEApplication.c ****                     }
1721:.\BLEApplication.c ****                     else
1722:.\BLEApplication.c ****                     {
1723:.\BLEApplication.c ****                         printf("AT+ERR=2\r\n");//Ë°®Á§∫ÂëΩ‰ª§ËÆæÁΩÆÂ§±Ë¥•
1724:.\BLEApplication.c ****                     }
1725:.\BLEApplication.c ****                     break;
1726:.\BLEApplication.c ****                     case '?':
1727:.\BLEApplication.c ****                         switch(iocapability)
1728:.\BLEApplication.c ****                         {
1729:.\BLEApplication.c ****                             case 0:
1730:.\BLEApplication.c ****                                     printf("+IOCAP=0\r\n");
1731:.\BLEApplication.c **** //                                printf("+IOCAP=<DISPLAY_ONLY>\r\n");
1732:.\BLEApplication.c ****                             break;
1733:.\BLEApplication.c ****                             case 1:
1734:.\BLEApplication.c ****                                     printf("+IOCAP=1\r\n");
1735:.\BLEApplication.c **** //                                printf("+IOCAP=<DISPLAY_YESNO>\r\n");
1736:.\BLEApplication.c ****                             break;
1737:.\BLEApplication.c ****                             case 2:
1738:.\BLEApplication.c ****                                     printf("+IOCAP=2\r\n");
1739:.\BLEApplication.c **** //                                printf("+IOCAP=<KEYBOARD_ONLY>\r\n");
1740:.\BLEApplication.c ****                             break;
1741:.\BLEApplication.c ****                             case 3:
1742:.\BLEApplication.c ****                                     printf("+IOCAP=3\r\n");
1743:.\BLEApplication.c **** //                                printf("+IOCAP=<NOINPUT_NOOUTPUT>\r\n");
1744:.\BLEApplication.c ****                             break;
1745:.\BLEApplication.c ****                             case 4:
1746:.\BLEApplication.c ****                                     printf("+IOCAP=4\r\n");
1747:.\BLEApplication.c **** //                                printf("+IOCAP=<KEYBOARD_DISPLAY>\r\n");
1748:.\BLEApplication.c ****                             break;
1749:.\BLEApplication.c ****                         }
1750:.\BLEApplication.c ****                     break;
1751:.\BLEApplication.c ****                     default:
1752:.\BLEApplication.c ****                         printf("AT+ERR=5\r\n");//Ë°®Á§∫Ê≤°ÊúâËØ•ATÂëΩ‰ª§
1753:.\BLEApplication.c ****                     break;
1754:.\BLEApplication.c ****                 }   
ARM GAS  C:\Users\Helon\AppData\Local\Temp\ccKCxrf8.s 			page 44


1755:.\BLEApplication.c ****             }            
1756:.\BLEApplication.c ****             else
1757:.\BLEApplication.c ****             {
1758:.\BLEApplication.c **** //                printf("+IOCAP=<INVALID>\r\n");
1759:.\BLEApplication.c ****                 printf("AT+ERR=3\r\n");//Ë°®Á§∫ÂΩìÂâçÁä∂ÊÄÅ‰∏çÊîØÊåÅËØ•ÂëΩ‰ª§
1760:.\BLEApplication.c ****             }
1761:.\BLEApplication.c ****         break;
1762:.\BLEApplication.c **** //            ÂèëËµ∑ÈÖçÂØπËØ∑Ê±Ç-----‰∏ª‰ªéÊúâÊïà            
1763:.\BLEApplication.c ****         case AUTH:
1764:.\BLEApplication.c ****             idx=SerialData[8];
1765:.\BLEApplication.c ****             if(idx=='?')
1766:.\BLEApplication.c ****             {
1767:.\BLEApplication.c ****                 if(AUTHFLAG)
1768:.\BLEApplication.c ****                         printf("+AUTH=1\r\n");
1769:.\BLEApplication.c **** //                    printf("+AUTH=<ENABLE>\r\n");
1770:.\BLEApplication.c ****                 else
1771:.\BLEApplication.c ****                         printf("+AUTH=0\r\n");
1772:.\BLEApplication.c **** //                    printf("+AUTH=<DISABLE>\r\n");
1773:.\BLEApplication.c ****             }
1774:.\BLEApplication.c ****             else if(idx=='1')
1775:.\BLEApplication.c ****             {
1776:.\BLEApplication.c ****                 if(!AUTHFLAG)
1777:.\BLEApplication.c ****                 {
1778:.\BLEApplication.c **** //                  ÂèëÈÄÅËÆ§ËØÅËØ∑Ê±Ç  
1779:.\BLEApplication.c ****                     API_RESULT=CyBle_GapAuthReq(cyBle_connHandle.bdHandle,&cyBle_authInfo); 
1780:.\BLEApplication.c ****                     if(API_RESULT==CYBLE_ERROR_OK)
1781:.\BLEApplication.c ****                     {
1782:.\BLEApplication.c ****                         printf("AT+OK\r\n");
1783:.\BLEApplication.c ****                     }
1784:.\BLEApplication.c ****                     else
1785:.\BLEApplication.c ****                     {
1786:.\BLEApplication.c ****                         printf("AT+ERR=2\r\n");//Ë°®Á§∫ÂëΩ‰ª§ËÆæÁΩÆÂ§±Ë¥•
1787:.\BLEApplication.c ****                     }
1788:.\BLEApplication.c ****                 }                                  
1789:.\BLEApplication.c ****                 else
1790:.\BLEApplication.c ****                 {
1791:.\BLEApplication.c ****                     printf("AT+ERR=3\r\n");//Ë°®Á§∫ÂΩìÂâçÁä∂ÊÄÅ‰∏çÊîØÊåÅËØ•ÂëΩ‰ª§
1792:.\BLEApplication.c ****                 }
1793:.\BLEApplication.c ****                     
1794:.\BLEApplication.c **** //                    printf("+AUTH=<INVALID>\r\n");
1795:.\BLEApplication.c ****             }
1796:.\BLEApplication.c ****             else
1797:.\BLEApplication.c ****             {
1798:.\BLEApplication.c ****                 printf("AT+ERR=5\r\n");//Ë°®Á§∫Ê≤°ÊúâËØ•ATÂëΩ‰ª§
1799:.\BLEApplication.c ****             }
1800:.\BLEApplication.c ****         break;
1801:.\BLEApplication.c **** //            ËÆæÁΩÆ‰ΩéÂäüËÄóËÉΩÂäõ-----‰∏ª‰ªéÊúâÊïà            
1802:.\BLEApplication.c ****         case SLEEP:
1803:.\BLEApplication.c ****             idx=SerialData[9];
1804:.\BLEApplication.c ****             switch(idx)
1805:.\BLEApplication.c ****             {
1806:.\BLEApplication.c ****                 case '0':
1807:.\BLEApplication.c **** //                    LowPower_EN=FALSE;
1808:.\BLEApplication.c ****                     SleepMode=FALSE;
1809:.\BLEApplication.c ****                     printf("AT+OK\r\n");
1810:.\BLEApplication.c ****                 break;
1811:.\BLEApplication.c ****                 case '1':
ARM GAS  C:\Users\Helon\AppData\Local\Temp\ccKCxrf8.s 			page 45


1812:.\BLEApplication.c **** //                    LowPower_EN=TURE;
1813:.\BLEApplication.c ****                     SleepMode=TURE;
1814:.\BLEApplication.c ****                     printf("AT+OK\r\n");
1815:.\BLEApplication.c ****                 break;
1816:.\BLEApplication.c ****                 case '?':
1817:.\BLEApplication.c ****                     if(SleepMode)
1818:.\BLEApplication.c ****                             printf("+SLEEPMODE=1\r\n");
1819:.\BLEApplication.c **** //                        printf("+SLEEPMODE=<ENABLE>\r\n");
1820:.\BLEApplication.c ****                     else
1821:.\BLEApplication.c ****                             printf("+SLEEPMODE=0\r\n");
1822:.\BLEApplication.c **** //                        printf("+SLEEPMODE=<DISABLE>\r\n");
1823:.\BLEApplication.c ****                 break;
1824:.\BLEApplication.c ****                 default:
1825:.\BLEApplication.c ****                     printf("AT+ERR=5\r\n");//Ë°®Á§∫Ê≤°ÊúâËØ•ATÂëΩ‰ª§
1826:.\BLEApplication.c ****                 break;
1827:.\BLEApplication.c ****             }
1828:.\BLEApplication.c ****         break;
1829:.\BLEApplication.c ****         case BOND:
1830:.\BLEApplication.c ****             idx=SerialData[8];
1831:.\BLEApplication.c ****             if(Role==Peripheral)
1832:.\BLEApplication.c ****             {
1833:.\BLEApplication.c ****                 CyBle_GapGetBondedDevicesList(&bondedDevList);//Èò≤Ê≠¢Âç≥‰ΩøÊéâÁîµÂêéÔºåÂÜçÊ¨°ÂèëËµ
1834:.\BLEApplication.c ****                 if(bondedDevList.count)
1835:.\BLEApplication.c ****                     Bond=TURE;
1836:.\BLEApplication.c ****                 else
1837:.\BLEApplication.c ****                     Bond=FALSE;
1838:.\BLEApplication.c ****                 switch(idx)
1839:.\BLEApplication.c ****                 {
1840:.\BLEApplication.c ****                     case '0':
1841:.\BLEApplication.c ****                         if(CYBLE_STATE_CONNECTED!=CyBle_GetState())//ÈùûËøûÊé•Áä∂ÊÄÅÊó∂ÔºåËß£Èô§Áªë
1842:.\BLEApplication.c ****                         {                                                        
1843:.\BLEApplication.c ****                             if(Bond)
1844:.\BLEApplication.c ****                             {
1845:.\BLEApplication.c ****                                 CyBle_GapRemoveDeviceFromWhiteList(&clearAllDevices);//Ê∏ÖÈô§ÁªëÂÆö
1846:.\BLEApplication.c ****                                 while(CYBLE_ERROR_OK != CyBle_StoreBondingData(1));
1847:.\BLEApplication.c ****                                 printf("+BOND=0\r\n");//Ê∏ÖÈô§ÁªëÂÆöÊàêÂäü
1848:.\BLEApplication.c ****                                 Bond=FALSE;
1849:.\BLEApplication.c ****                             }                                             
1850:.\BLEApplication.c ****                             else
1851:.\BLEApplication.c ****                             {
1852:.\BLEApplication.c ****                                 printf("+BOND=2\r\n");//Ê∏ÖÈô§ÁªëÂÆöÂ§±Ë¥• 
1853:.\BLEApplication.c ****                             }
1854:.\BLEApplication.c ****                         }
1855:.\BLEApplication.c ****                         else
1856:.\BLEApplication.c ****                         {
1857:.\BLEApplication.c ****                             printf("AT+ERR=3\r\n");//ÂΩìÂâçÁöÑ BLE Áä∂ÊÄÅ‰∏ã‰∏çÊîØÊåÅËØ•ÂëΩ‰ª§
1858:.\BLEApplication.c ****                         }
1859:.\BLEApplication.c ****                     break;
1860:.\BLEApplication.c ****                     case '?':
1861:.\BLEApplication.c ****                         if(Bond)
1862:.\BLEApplication.c ****                            printf("+BOND=1\r\n");//ÁªëÂÆöÊàêÂäü 
1863:.\BLEApplication.c ****                         else
1864:.\BLEApplication.c ****                             printf("+BOND=0\r\n");//Ê∏ÖÈô§ÁªëÂÆöÊàêÂäü
1865:.\BLEApplication.c ****                     break;                        
1866:.\BLEApplication.c ****                     default:
1867:.\BLEApplication.c ****                         printf("AT+ERR=5\r\n");//Ë°®Á§∫Ê≤°ÊúâËØ•ATÂëΩ‰ª§
1868:.\BLEApplication.c ****                     break;                        
ARM GAS  C:\Users\Helon\AppData\Local\Temp\ccKCxrf8.s 			page 46


1869:.\BLEApplication.c ****                 }                                                  
1870:.\BLEApplication.c ****             }
1871:.\BLEApplication.c ****             else
1872:.\BLEApplication.c ****             {
1873:.\BLEApplication.c ****                 if(CYBLE_STATE_CONNECTED!=CyBle_GetState())
1874:.\BLEApplication.c ****                 {
1875:.\BLEApplication.c ****                     
1876:.\BLEApplication.c ****                 }
1877:.\BLEApplication.c ****             }
1878:.\BLEApplication.c ****         break;
1879:.\BLEApplication.c ****         default:
1880:.\BLEApplication.c ****             printf("AT+ERR=5\r\n");//Ë°®Á§∫Ê≤°ÊúâËØ•ATÂëΩ‰ª§
1881:.\BLEApplication.c ****         break;
1882:.\BLEApplication.c ****     }
1883:.\BLEApplication.c ****         
1884:.\BLEApplication.c **** }
1885:.\BLEApplication.c **** 
1886:.\BLEApplication.c **** /******************************************************************************
1887:.\BLEApplication.c **** * Function Name: Command_Identify
1888:.\BLEApplication.c **** ***************************************************************************//**
1889:.\BLEApplication.c **** * 
1890:.\BLEApplication.c **** *  ËØÜÂà´ATÂëΩ‰ª§
1891:.\BLEApplication.c **** * \param  SerialData:ÊåáÂêëcharÂûãÁöÑÊåáÈíà
1892:.\BLEApplication.c **** * \return ËøîÂõûATÂëΩ‰ª§Âú®ATÂëΩ‰ª§ÂàóË°®‰∏≠ÁöÑÁ¥¢ÂºïÂÄº
1893:.\BLEApplication.c **** *  
1894:.\BLEApplication.c **** * 
1895:.\BLEApplication.c **** ******************************************************************************/
1896:.\BLEApplication.c **** uint8_t Command_Identify(const char* SerialData)
1897:.\BLEApplication.c **** {
1898:.\BLEApplication.c ****     if(NULL==SerialData)
1899:.\BLEApplication.c ****         return FALSE;
1900:.\BLEApplication.c ****     uint8_t SerialArryLength=0,i=0,location;    
1901:.\BLEApplication.c **** //    char String[20]={0};
1902:.\BLEApplication.c ****     if(0==strcmp(SerialData,"AT\r\n"))
1903:.\BLEApplication.c ****     {
1904:.\BLEApplication.c **** //        printf("OK\r\n");
1905:.\BLEApplication.c ****         return _AT;
1906:.\BLEApplication.c ****     }
1907:.\BLEApplication.c ****     //Ëé∑ÂèñATÂëΩ‰ª§Á≠âÂè∑ÁöÑ‰ΩçÁΩÆÔºåÂ¶Ç‚ÄúAT+RESET=1‚Äù‰∏≠‚Äú=‚ÄùÂè∑ÁöÑ‰ΩçÁΩÆÊòØ8.
1908:.\BLEApplication.c ****     location=strchr((char*)SerialData,'=')-SerialData;
1909:.\BLEApplication.c ****     if(location>11)
1910:.\BLEApplication.c ****     {
1911:.\BLEApplication.c ****         return 0xff;
1912:.\BLEApplication.c ****     }
1913:.\BLEApplication.c **** //    Âä®ÊÄÅÂàÜÈÖçÂ†ÜÁ©∫Èó¥
1914:.\BLEApplication.c ****     char* String=malloc(sizeof(char)*location);
1915:.\BLEApplication.c ****     //‰øùÂ≠òATÂëΩ‰ª§Á≠âÂè∑ÂâçÁöÑÊï∞ÊçÆ.
1916:.\BLEApplication.c ****     strncpy(String,SerialData,location);
1917:.\BLEApplication.c ****     SerialArryLength=sizeof(StringArry)/sizeof(StringArry[0]);   
1918:.\BLEApplication.c **** //    ÂåπÈÖçATÂëΩ‰ª§ÂàóË°®‰∏≠ATÂëΩ‰ª§ÁöÑ‰ΩçÁΩÆ
1919:.\BLEApplication.c ****     for(i=0;i<SerialArryLength;i++)
1920:.\BLEApplication.c ****     {
1921:.\BLEApplication.c ****         if(strncmp((char*)String,StringArry[i],location)==0)
1922:.\BLEApplication.c ****         {
1923:.\BLEApplication.c ****             break;
1924:.\BLEApplication.c ****         }
1925:.\BLEApplication.c **** //        printf("%s\r\n",StringArry[i]);
ARM GAS  C:\Users\Helon\AppData\Local\Temp\ccKCxrf8.s 			page 47


1926:.\BLEApplication.c **** //        printf("%d\r\n",strcmp((char*)String,StringArry[i]));
1927:.\BLEApplication.c ****     }
1928:.\BLEApplication.c **** //    ÈáäÊîæ‰πãÂâçÂàÜÈÖçÁöÑÂ†ÜÁ©∫Èó¥
1929:.\BLEApplication.c ****     free(String);
1930:.\BLEApplication.c ****     return i;
1931:.\BLEApplication.c **** }
1932:.\BLEApplication.c **** 
1933:.\BLEApplication.c **** /*******************************************************************************
1934:.\BLEApplication.c **** * Function Name: MyTimerIsr()
1935:.\BLEApplication.c **** ********************************************************************************
1936:.\BLEApplication.c **** * Summary:
1937:.\BLEApplication.c **** * Interrupt service routine for the timer block.
1938:.\BLEApplication.c **** *
1939:.\BLEApplication.c **** * Parameters:
1940:.\BLEApplication.c **** * None
1941:.\BLEApplication.c **** *
1942:.\BLEApplication.c **** * Return:
1943:.\BLEApplication.c **** * None
1944:.\BLEApplication.c **** *
1945:.\BLEApplication.c **** * Theory:
1946:.\BLEApplication.c **** * The ISR is fired when the timer reaches terminal count. In the ISR, the total
1947:.\BLEApplication.c **** * number of bytes received until now is cached locally (to avoid any potential 
1948:.\BLEApplication.c **** * race conditions) and then the throughput is calculated from it.
1949:.\BLEApplication.c **** * Since the ISR fires 10 seconds after the timer is started, the total number
1950:.\BLEApplication.c **** * of bytes is divided by 10. The bytes are converted to kilobytes by dividing 
1951:.\BLEApplication.c **** * by 1024. It is then converted to kilo bits by multiplying the result by 8.
1952:.\BLEApplication.c **** *
1953:.\BLEApplication.c **** * Side Effects:
1954:.\BLEApplication.c **** * None
1955:.\BLEApplication.c **** *
1956:.\BLEApplication.c **** *******************************************************************************/
1957:.\BLEApplication.c **** CY_ISR(MyTimerIsr)
1958:.\BLEApplication.c **** {
 605              		.loc 1 1958 0
 606              		.cfi_startproc
 607 0000 38B5     		push	{r3, r4, r5, lr}
 608              		.cfi_def_cfa_offset 16
 609              		.cfi_offset 3, -16
 610              		.cfi_offset 4, -12
 611              		.cfi_offset 5, -8
 612              		.cfi_offset 14, -4
1959:.\BLEApplication.c **** //    uint32 cachedTotalByteCounter = totalByteCounter;
1960:.\BLEApplication.c **** //    uint32 throughput;
1961:.\BLEApplication.c ****     static uint32 timercount=0;
1962:.\BLEApplication.c ****     Timer_ClearInterrupt(Timer_INTR_MASK_TC);
 613              		.loc 1 1962 0
 614 0002 0120     		mov	r0, #1
 615 0004 FFF7FEFF 		bl	Timer_ClearInterrupt
 616              	.LVL93:
1963:.\BLEApplication.c ****     _10sIsOver=TURE;
 617              		.loc 1 1963 0
 618 0008 0123     		mov	r3, #1
 619 000a 084C     		ldr	r4, .L57
1964:.\BLEApplication.c ****     timercount++;
1965:.\BLEApplication.c ****     if(timercount==10001)
 620              		.loc 1 1965 0
 621 000c 084A     		ldr	r2, .L57+4
ARM GAS  C:\Users\Helon\AppData\Local\Temp\ccKCxrf8.s 			page 48


1963:.\BLEApplication.c ****     _10sIsOver=TURE;
 622              		.loc 1 1963 0
 623 000e 6375     		strb	r3, [r4, #21]
1964:.\BLEApplication.c ****     timercount++;
 624              		.loc 1 1964 0
 625 0010 A369     		ldr	r3, [r4, #24]
 626 0012 0133     		add	r3, r3, #1
 627 0014 A361     		str	r3, [r4, #24]
 628              		.loc 1 1965 0
 629 0016 9342     		cmp	r3, r2
 630 0018 07D1     		bne	.L55
 631              	.LBB26:
 632              	.LBB27:
1966:.\BLEApplication.c ****     {
1967:.\BLEApplication.c ****         _10sIsOver=FALSE;
 633              		.loc 1 1967 0
 634 001a 0025     		mov	r5, #0
 635 001c 6575     		strb	r5, [r4, #21]
1968:.\BLEApplication.c ****         Timer_Stop();
 636              		.loc 1 1968 0
 637 001e FFF7FEFF 		bl	Timer_Stop
 638              	.LVL94:
1969:.\BLEApplication.c ****         timercount=0;
1970:.\BLEApplication.c ****         printf("Send Compelete!\r\n");
 639              		.loc 1 1970 0
 640 0022 0448     		ldr	r0, .L57+8
1969:.\BLEApplication.c ****         timercount=0;
 641              		.loc 1 1969 0
 642 0024 A561     		str	r5, [r4, #24]
 643              		.loc 1 1970 0
 644 0026 FFF7FEFF 		bl	puts
 645              	.LVL95:
 646              	.L55:
 647              	.LBE27:
 648              	.LBE26:
1971:.\BLEApplication.c ****         
1972:.\BLEApplication.c ****     }
1973:.\BLEApplication.c **** //    charNotificationEnabled=FALSE;
1974:.\BLEApplication.c **** //    TroughtTest_Flag=FALSE;
1975:.\BLEApplication.c **** //    TroughtTest_Flag=FALSE;
1976:.\BLEApplication.c ****     /* Total bytes received in 10 seconds converted to Kilo bits per second */
1977:.\BLEApplication.c **** //    printf("totalByteCounter is %ld",totalByteCounter);
1978:.\BLEApplication.c **** //    while((UART_SpiUartGetTxBufferSize() + UART_GET_TX_FIFO_SR_VALID) != 0);//Á≠âÂæÖ‰∏≤Âè£ÁºìÂÜ≤Â
1979:.\BLEApplication.c **** //    throughput = (cachedTotalByteCounter >> 7) / 10;
1980:.\BLEApplication.c **** //    printf("\r\n+SPEED=<%ldkbps>\r\n",throughput);      
1981:.\BLEApplication.c **** //    CyBle_GattcWriteCharacteristicDescriptors(cyBle_connHandle, &writeRequestData);
1982:.\BLEApplication.c **** }
 649              		.loc 1 1982 0
 650              		@ sp needed
 651 002a 38BD     		pop	{r3, r4, r5, pc}
 652              	.L58:
 653              		.align	2
 654              	.L57:
 655 002c 00000000 		.word	.LANCHOR0
 656 0030 11270000 		.word	10001
 657 0034 08010000 		.word	.LC43
 658              		.cfi_endproc
ARM GAS  C:\Users\Helon\AppData\Local\Temp\ccKCxrf8.s 			page 49


 659              	.LFE45:
 660              		.size	MyTimerIsr, .-MyTimerIsr
 661              		.section	.text.LowPowerManagement,"ax",%progbits
 662              		.align	1
 663              		.global	LowPowerManagement
 664              		.code	16
 665              		.thumb_func
 666              		.type	LowPowerManagement, %function
 667              	LowPowerManagement:
 668              	.LFB36:
 498:.\BLEApplication.c ****     /* Local variable to store the status of BLESS Hardware block */
 669              		.loc 1 498 0
 670              		.cfi_startproc
 671 0000 38B5     		push	{r3, r4, r5, lr}
 672              		.cfi_def_cfa_offset 16
 673              		.cfi_offset 3, -16
 674              		.cfi_offset 4, -12
 675              		.cfi_offset 5, -8
 676              		.cfi_offset 14, -4
 504:.\BLEApplication.c **** 		
 677              		.loc 1 504 0
 678 0002 0320     		mov	r0, #3
 679 0004 FFF7FEFF 		bl	CyBle_EnterLPM
 680              	.LVL96:
 681 0008 041C     		mov	r4, r0
 682              	.LVL97:
 507:.\BLEApplication.c **** 	
 683              		.loc 1 507 0
 684              	@ 507 ".\BLEApplication.c" 1
 685 000a 72B6     		CPSID   i
 686              	@ 0 "" 2
 510:.\BLEApplication.c **** 
 687              		.loc 1 510 0
 688              		.code	16
 689 000c FFF7FEFF 		bl	CyBle_GetBleSsState
 690              	.LVL98:
 512:.\BLEApplication.c **** 		{
 691              		.loc 1 512 0
 692 0010 032C     		cmp	r4, #3
 693 0012 25D1     		bne	.L60
 516:.\BLEApplication.c **** 		    {
 694              		.loc 1 516 0
 695 0014 FD23     		mov	r3, #253
 696 0016 1840     		and	r0, r3
 697              	.LVL99:
 698 0018 0428     		cmp	r0, #4
 699 001a 27D1     		bne	.L61
 519:.\BLEApplication.c ****                 while((UART_SpiUartGetTxBufferSize() + UART_GET_TX_FIFO_SR_VALID) != 0);//Á≠âÂæÖ‰∏≤
 700              		.loc 1 519 0
 701 001c 0020     		mov	r0, #0
 702 001e FFF7FEFF 		bl	Status_LED_Write
 703              	.LVL100:
 704              	.L62:
 520:.\BLEApplication.c ****                 UART_Sleep();
 705              		.loc 1 520 0 discriminator 5
 706 0022 0125     		mov	r5, #1
 707 0024 FFF7FEFF 		bl	UART_SpiUartGetTxBufferSize
ARM GAS  C:\Users\Helon\AppData\Local\Temp\ccKCxrf8.s 			page 50


 708              	.LVL101:
 709 0028 114B     		ldr	r3, .L66
 710 002a 1C68     		ldr	r4, [r3]
 711 002c E40B     		lsr	r4, r4, #15
 712 002e 2C40     		and	r4, r5
 713 0030 0419     		add	r4, r0, r4
 714 0032 002C     		cmp	r4, #0
 715 0034 F5D1     		bne	.L62
 521:.\BLEApplication.c **** 		        CySysPmDeepSleep();
 716              		.loc 1 521 0
 717 0036 FFF7FEFF 		bl	UART_Sleep
 718              	.LVL102:
 522:.\BLEApplication.c ****                 UART_Wakeup();
 719              		.loc 1 522 0
 720 003a FFF7FEFF 		bl	CySysPmDeepSleep
 721              	.LVL103:
 523:.\BLEApplication.c ****                 CyDelay(5);
 722              		.loc 1 523 0
 723 003e FFF7FEFF 		bl	UART_Wakeup
 724              	.LVL104:
 524:.\BLEApplication.c ****                 UART_SpiUartClearRxBuffer();//Ê∏ÖÈô§‰∏≤Âè£Êé•Êî∂ÁºìÂÜ≤Âå∫
 725              		.loc 1 524 0
 726 0042 0520     		mov	r0, #5
 727 0044 FFF7FEFF 		bl	CyDelay
 728              	.LVL105:
 525:.\BLEApplication.c ****                 UART_RX_WAKEUP_IRQ_ClearPending();
 729              		.loc 1 525 0
 730 0048 FFF7FEFF 		bl	UART_SpiUartClearRxBuffer
 731              	.LVL106:
 526:.\BLEApplication.c **** //                UART_SCB_IRQ_ClearPending();
 732              		.loc 1 526 0
 733 004c FFF7FEFF 		bl	UART_RX_WAKEUP_IRQ_ClearPending
 734              	.LVL107:
 528:.\BLEApplication.c **** //                UART_RX_WAKEUP_IRQ_Disable();
 735              		.loc 1 528 0
 736 0050 FFF7FEFF 		bl	UART_rx_wake_ClearInterrupt
 737              	.LVL108:
 533:.\BLEApplication.c ****                 Status_LED_Write(LED_OFF);  
 738              		.loc 1 533 0
 739 0054 074B     		ldr	r3, .L66+4
 534:.\BLEApplication.c **** 
 740              		.loc 1 534 0
 741 0056 281C     		mov	r0, r5
 533:.\BLEApplication.c ****                 Status_LED_Write(LED_OFF);  
 742              		.loc 1 533 0
 743 0058 5C72     		strb	r4, [r3, #9]
 534:.\BLEApplication.c **** 
 744              		.loc 1 534 0
 745 005a FFF7FEFF 		bl	Status_LED_Write
 746              	.LVL109:
 747 005e 05E0     		b	.L61
 748              	.LVL110:
 749              	.L60:
 538:.\BLEApplication.c **** 		{
 750              		.loc 1 538 0
 751 0060 022C     		cmp	r4, #2
 752 0062 03D1     		bne	.L61
ARM GAS  C:\Users\Helon\AppData\Local\Temp\ccKCxrf8.s 			page 51


 540:.\BLEApplication.c **** 		    {
 753              		.loc 1 540 0
 754 0064 0228     		cmp	r0, #2
 755 0066 01D0     		beq	.L61
 544:.\BLEApplication.c **** 		    }
 756              		.loc 1 544 0
 757 0068 FFF7FEFF 		bl	CySysPmSleep
 758              	.LVL111:
 759              	.L61:
 548:.\BLEApplication.c ****         
 760              		.loc 1 548 0
 761              	@ 548 ".\BLEApplication.c" 1
 762 006c 62B6     		CPSIE   i
 763              	@ 0 "" 2
 550:.\BLEApplication.c **** 
 764              		.loc 1 550 0
 765              		.code	16
 766              		@ sp needed
 767 006e 38BD     		pop	{r3, r4, r5, pc}
 768              	.L67:
 769              		.align	2
 770              	.L66:
 771 0070 08022440 		.word	1076101640
 772 0074 00000000 		.word	.LANCHOR1
 773              		.cfi_endproc
 774              	.LFE36:
 775              		.size	LowPowerManagement, .-LowPowerManagement
 776              		.section	.text.MY_ISR_USERBUTTON,"ax",%progbits
 777              		.align	1
 778              		.global	MY_ISR_USERBUTTON
 779              		.code	16
 780              		.thumb_func
 781              		.type	MY_ISR_USERBUTTON, %function
 782              	MY_ISR_USERBUTTON:
 783              	.LFB37:
 563:.\BLEApplication.c **** //    isr_UserButton_ClearPending();
 784              		.loc 1 563 0
 785              		.cfi_startproc
 575:.\BLEApplication.c **** /******************************************************************************
 786              		.loc 1 575 0
 787              		@ sp needed
 788 0000 7047     		bx	lr
 789              		.cfi_endproc
 790              	.LFE37:
 791              		.size	MY_ISR_USERBUTTON, .-MY_ISR_USERBUTTON
 792              		.section	.text.My_ISR_UART,"ax",%progbits
 793              		.align	1
 794              		.global	My_ISR_UART
 795              		.code	16
 796              		.thumb_func
 797              		.type	My_ISR_UART, %function
 798              	My_ISR_UART:
 799              	.LFB38:
 587:.\BLEApplication.c **** //    uint8_t rxdata;
 800              		.loc 1 587 0
 801              		.cfi_startproc
 589:.\BLEApplication.c ****     {
ARM GAS  C:\Users\Helon\AppData\Local\Temp\ccKCxrf8.s 			page 52


 802              		.loc 1 589 0
 803 0000 054B     		ldr	r3, .L74
 804 0002 1B68     		ldr	r3, [r3]
 805 0004 5B07     		lsl	r3, r3, #29
 806 0006 02D5     		bpl	.L70
 591:.\BLEApplication.c ****         //ËØªÂèñ‰∏≤Âè£Êï∞ÊçÆ
 807              		.loc 1 591 0
 808 0008 0122     		mov	r2, #1
 809 000a 044B     		ldr	r3, .L74+4
 810 000c 1A77     		strb	r2, [r3, #28]
 811              	.L70:
 609:.\BLEApplication.c ****   
 812              		.loc 1 609 0
 813 000e 0422     		mov	r2, #4
 814 0010 034B     		ldr	r3, .L74+8
 611:.\BLEApplication.c **** 
 815              		.loc 1 611 0
 816              		@ sp needed
 609:.\BLEApplication.c ****   
 817              		.loc 1 609 0
 818 0012 1A60     		str	r2, [r3]
 611:.\BLEApplication.c **** 
 819              		.loc 1 611 0
 820 0014 7047     		bx	lr
 821              	.L75:
 822 0016 C046     		.align	2
 823              	.L74:
 824 0018 CC0F2440 		.word	1076105164
 825 001c 00000000 		.word	.LANCHOR0
 826 0020 C00F2440 		.word	1076105152
 827              		.cfi_endproc
 828              	.LFE38:
 829              		.size	My_ISR_UART, .-My_ISR_UART
 830              		.section	.text.ConfigUartInit,"ax",%progbits
 831              		.align	1
 832              		.global	ConfigUartInit
 833              		.code	16
 834              		.thumb_func
 835              		.type	ConfigUartInit, %function
 836              	ConfigUartInit:
 837              	.LFB40:
 666:.\BLEApplication.c **** //    configUart.mode=UART_UART_MODE_STD;         /* mode: Standard */ 
 838              		.loc 1 666 0
 839              		.cfi_startproc
 693:.\BLEApplication.c **** /******************************************************************************
 840              		.loc 1 693 0
 841              		@ sp needed
 842 0000 7047     		bx	lr
 843              		.cfi_endproc
 844              	.LFE40:
 845              		.size	ConfigUartInit, .-ConfigUartInit
 846              		.section	.text.SetUartConfiguration,"ax",%progbits
 847              		.align	1
 848              		.global	SetUartConfiguration
 849              		.code	16
 850              		.thumb_func
 851              		.type	SetUartConfiguration, %function
ARM GAS  C:\Users\Helon\AppData\Local\Temp\ccKCxrf8.s 			page 53


 852              	SetUartConfiguration:
 853              	.LFB41:
 705:.\BLEApplication.c **** //    cystatus status = CYRET_SUCCESS; 
 854              		.loc 1 705 0
 855              		.cfi_startproc
 856              	.LVL112:
 715:.\BLEApplication.c **** 
 857              		.loc 1 715 0
 858              		@ sp needed
 859 0000 7047     		bx	lr
 860              		.cfi_endproc
 861              	.LFE41:
 862              		.size	SetUartConfiguration, .-SetUartConfiguration
 863              		.section	.text.LedInit,"ax",%progbits
 864              		.align	1
 865              		.global	LedInit
 866              		.code	16
 867              		.thumb_func
 868              		.type	LedInit, %function
 869              	LedInit:
 870              	.LFB42:
 728:.\BLEApplication.c ****     Status_LED_SetDriveMode(Status_LED_DM_STRONG);
 871              		.loc 1 728 0
 872              		.cfi_startproc
 873 0000 08B5     		push	{r3, lr}
 874              		.cfi_def_cfa_offset 8
 875              		.cfi_offset 3, -8
 876              		.cfi_offset 14, -4
 729:.\BLEApplication.c ****     Connected_LED_SetDriveMode(Connected_LED_DM_STRONG);
 877              		.loc 1 729 0
 878 0002 0620     		mov	r0, #6
 879 0004 FFF7FEFF 		bl	Status_LED_SetDriveMode
 880              	.LVL113:
 730:.\BLEApplication.c ****     Status_LED_Write(LED_OFF);
 881              		.loc 1 730 0
 882 0008 0620     		mov	r0, #6
 883 000a FFF7FEFF 		bl	Connected_LED_SetDriveMode
 884              	.LVL114:
 731:.\BLEApplication.c ****     Connected_LED_Write(LED_OFF);
 885              		.loc 1 731 0
 886 000e 0120     		mov	r0, #1
 887 0010 FFF7FEFF 		bl	Status_LED_Write
 888              	.LVL115:
 732:.\BLEApplication.c **** }
 889              		.loc 1 732 0
 890 0014 0120     		mov	r0, #1
 891 0016 FFF7FEFF 		bl	Connected_LED_Write
 892              	.LVL116:
 733:.\BLEApplication.c **** 
 893              		.loc 1 733 0
 894              		@ sp needed
 895 001a 08BD     		pop	{r3, pc}
 896              		.cfi_endproc
 897              	.LFE42:
 898              		.size	LedInit, .-LedInit
 899              		.section	.text.SystemInitialization,"ax",%progbits
 900              		.align	1
ARM GAS  C:\Users\Helon\AppData\Local\Temp\ccKCxrf8.s 			page 54


 901              		.global	SystemInitialization
 902              		.code	16
 903              		.thumb_func
 904              		.type	SystemInitialization, %function
 905              	SystemInitialization:
 906              	.LFB39:
 624:.\BLEApplication.c **** //    ÊµÅÊéßÂºïËÑöÁöÑÂàùÂßãÂåñ
 907              		.loc 1 624 0
 908              		.cfi_startproc
 909 0000 08B5     		push	{r3, lr}
 910              		.cfi_def_cfa_offset 8
 911              		.cfi_offset 3, -8
 912              		.cfi_offset 14, -4
 626:.\BLEApplication.c ****     CTS_Write(CTS_OFF);//ÊµÅÊéßÊòØÈ´òÁîµÂπ≥ÊúâÊïà
 913              		.loc 1 626 0
 914 0002 0620     		mov	r0, #6
 915 0004 FFF7FEFF 		bl	CTS_SetDriveMode
 916              	.LVL117:
 627:.\BLEApplication.c ****     UART_rx_wake_SetDriveMode(UART_rx_wake_DM_RES_UP);//ËÆæÁΩÆRXËÑö‰∏∫ÂÜÖÈÉ®‰∏äÊãâ
 917              		.loc 1 627 0
 918 0008 0020     		mov	r0, #0
 919 000a FFF7FEFF 		bl	CTS_Write
 920              	.LVL118:
 628:.\BLEApplication.c ****     UART_tx_SetDriveMode(UART_tx_DM_RES_UP);//ËÆæÁΩÆTX‰∏∫ÂÜÖÈÉ®‰∏äÊãâ
 921              		.loc 1 628 0
 922 000e 0220     		mov	r0, #2
 923 0010 FFF7FEFF 		bl	UART_rx_wake_SetDriveMode
 924              	.LVL119:
 629:.\BLEApplication.c **** //    uint16_t counter;
 925              		.loc 1 629 0
 926 0014 0220     		mov	r0, #2
 927 0016 FFF7FEFF 		bl	UART_tx_SetDriveMode
 928              	.LVL120:
 637:.\BLEApplication.c ****     writeRequestData.value=cccdNotifFlagSetStruct;
 929              		.loc 1 637 0
 930 001a 0F23     		mov	r3, #15
 931 001c 094A     		ldr	r2, .L80
 653:.\BLEApplication.c **** 
 932              		.loc 1 653 0
 933              		@ sp needed
 637:.\BLEApplication.c ****     writeRequestData.value=cccdNotifFlagSetStruct;
 934              		.loc 1 637 0
 935 001e 1381     		strh	r3, [r2, #8]
 638:.\BLEApplication.c **** //    ÂàùÂßãÂåñÂπøÊí≠Èó¥ÈöîÂíåÂπøÂëäË∂ÖÊó∂Êó∂Èó¥
 936              		.loc 1 638 0
 937 0020 094B     		ldr	r3, .L80+4
 938 0022 0C33     		add	r3, r3, #12
 939 0024 03CB     		ldmia	r3!, {r0, r1}
 940 0026 03C2     		stmia	r2!, {r0, r1}
 645:.\BLEApplication.c ****     TimerInterrupt_StartEx(MyTimerIsr);
 941              		.loc 1 645 0
 942 0028 FFF7FEFF 		bl	Timer_Init
 943              	.LVL121:
 646:.\BLEApplication.c ****     UART_Start();
 944              		.loc 1 646 0
 945 002c 0748     		ldr	r0, .L80+8
 946 002e FFF7FEFF 		bl	TimerInterrupt_StartEx
ARM GAS  C:\Users\Helon\AppData\Local\Temp\ccKCxrf8.s 			page 55


 947              	.LVL122:
 647:.\BLEApplication.c ****   //    UART_SCB_IRQ_StartEx(My_ISR_UART);   
 948              		.loc 1 647 0
 949 0032 FFF7FEFF 		bl	UART_Start
 950              	.LVL123:
 650:.\BLEApplication.c ****     CyBle_Start(StackEventHandler);
 951              		.loc 1 650 0
 952 0036 FFF7FEFF 		bl	LedInit
 953              	.LVL124:
 651:.\BLEApplication.c ****     
 954              		.loc 1 651 0
 955 003a 0548     		ldr	r0, .L80+12
 956 003c FFF7FEFF 		bl	CyBle_Start
 957              	.LVL125:
 653:.\BLEApplication.c **** 
 958              		.loc 1 653 0
 959 0040 08BD     		pop	{r3, pc}
 960              	.L81:
 961 0042 C046     		.align	2
 962              	.L80:
 963 0044 00000000 		.word	writeRequestData
 964 0048 00000000 		.word	.LANCHOR1
 965 004c 00000000 		.word	MyTimerIsr
 966 0050 00000000 		.word	StackEventHandler
 967              		.cfi_endproc
 968              	.LFE39:
 969              		.size	SystemInitialization, .-SystemInitialization
 970              		.section	.text.Command_Identify,"ax",%progbits
 971              		.align	1
 972              		.global	Command_Identify
 973              		.code	16
 974              		.thumb_func
 975              		.type	Command_Identify, %function
 976              	Command_Identify:
 977              	.LFB44:
1897:.\BLEApplication.c ****     if(NULL==SerialData)
 978              		.loc 1 1897 0
 979              		.cfi_startproc
 980              	.LVL126:
 981 0000 F8B5     		push	{r3, r4, r5, r6, r7, lr}
 982              		.cfi_def_cfa_offset 24
 983              		.cfi_offset 3, -24
 984              		.cfi_offset 4, -20
 985              		.cfi_offset 5, -16
 986              		.cfi_offset 6, -12
 987              		.cfi_offset 7, -8
 988              		.cfi_offset 14, -4
1899:.\BLEApplication.c ****     uint8_t SerialArryLength=0,i=0,location;    
 989              		.loc 1 1899 0
 990 0002 031E     		sub	r3, r0, #0
1898:.\BLEApplication.c ****         return FALSE;
 991              		.loc 1 1898 0
 992 0004 2DD0     		beq	.L83
1902:.\BLEApplication.c ****     {
 993              		.loc 1 1902 0
 994 0006 1849     		ldr	r1, .L93
 995 0008 041C     		mov	r4, r0
ARM GAS  C:\Users\Helon\AppData\Local\Temp\ccKCxrf8.s 			page 56


 996              	.LVL127:
 997 000a FFF7FEFF 		bl	strcmp
 998              	.LVL128:
1905:.\BLEApplication.c ****     }
 999              		.loc 1 1905 0
 1000 000e 1323     		mov	r3, #19
1902:.\BLEApplication.c ****     {
 1001              		.loc 1 1902 0
 1002 0010 0028     		cmp	r0, #0
 1003 0012 26D0     		beq	.L83
 1004              	.LVL129:
 1005              	.LBB30:
 1006              	.LBB31:
1908:.\BLEApplication.c ****     if(location>11)
 1007              		.loc 1 1908 0
 1008 0014 201C     		mov	r0, r4
 1009 0016 3D21     		mov	r1, #61
 1010 0018 FFF7FEFF 		bl	strchr
 1011              	.LVL130:
 1012 001c FF25     		mov	r5, #255
 1013 001e 001B     		sub	r0, r0, r4
 1014              	.LVL131:
1909:.\BLEApplication.c ****     {
 1015              		.loc 1 1909 0
 1016 0020 C2B2     		uxtb	r2, r0
1911:.\BLEApplication.c ****     }
 1017              		.loc 1 1911 0
 1018 0022 2B1C     		mov	r3, r5
1909:.\BLEApplication.c ****     {
 1019              		.loc 1 1909 0
 1020 0024 0B2A     		cmp	r2, #11
 1021 0026 1CD8     		bhi	.L83
 1022 0028 0540     		and	r5, r0
1914:.\BLEApplication.c ****     //‰øùÂ≠òATÂëΩ‰ª§Á≠âÂè∑ÂâçÁöÑÊï∞ÊçÆ.
 1023              		.loc 1 1914 0
 1024 002a 281C     		mov	r0, r5
 1025              	.LVL132:
 1026 002c FFF7FEFF 		bl	malloc
 1027              	.LVL133:
1916:.\BLEApplication.c ****     SerialArryLength=sizeof(StringArry)/sizeof(StringArry[0]);   
 1028              		.loc 1 1916 0
 1029 0030 211C     		mov	r1, r4
 1030 0032 2A1C     		mov	r2, r5
1914:.\BLEApplication.c ****     //‰øùÂ≠òATÂëΩ‰ª§Á≠âÂè∑ÂâçÁöÑÊï∞ÊçÆ.
 1031              		.loc 1 1914 0
 1032 0034 061C     		mov	r6, r0
 1033              	.LVL134:
1916:.\BLEApplication.c ****     SerialArryLength=sizeof(StringArry)/sizeof(StringArry[0]);   
 1034              		.loc 1 1916 0
 1035 0036 0027     		mov	r7, #0
 1036 0038 FFF7FEFF 		bl	strncpy
 1037              	.LVL135:
 1038              	.L85:
1921:.\BLEApplication.c ****         {
 1039              		.loc 1 1921 0
 1040 003c 0B4B     		ldr	r3, .L93+4
 1041 003e BA00     		lsl	r2, r7, #2
ARM GAS  C:\Users\Helon\AppData\Local\Temp\ccKCxrf8.s 			page 57


 1042 0040 1433     		add	r3, r3, #20
 1043 0042 D158     		ldr	r1, [r2, r3]
 1044 0044 301C     		mov	r0, r6
 1045 0046 2A1C     		mov	r2, r5
 1046 0048 FCB2     		uxtb	r4, r7
 1047              	.LVL136:
 1048 004a FFF7FEFF 		bl	strncmp
 1049              	.LVL137:
 1050 004e 0028     		cmp	r0, #0
 1051 0050 03D0     		beq	.L84
 1052              	.LVL138:
 1053 0052 0137     		add	r7, r7, #1
 1054              	.LVL139:
1919:.\BLEApplication.c ****     {
 1055              		.loc 1 1919 0
 1056 0054 1C2F     		cmp	r7, #28
 1057 0056 F1D1     		bne	.L85
 1058 0058 3C1C     		mov	r4, r7
 1059              	.LVL140:
 1060              	.L84:
1929:.\BLEApplication.c ****     return i;
 1061              		.loc 1 1929 0
 1062 005a 301C     		mov	r0, r6
 1063 005c FFF7FEFF 		bl	free
 1064              	.LVL141:
1930:.\BLEApplication.c **** }
 1065              		.loc 1 1930 0
 1066 0060 231C     		mov	r3, r4
 1067              	.LVL142:
 1068              	.L83:
 1069              	.LBE31:
 1070              	.LBE30:
1931:.\BLEApplication.c **** 
 1071              		.loc 1 1931 0
 1072 0062 181C     		mov	r0, r3
 1073              		@ sp needed
 1074 0064 F8BD     		pop	{r3, r4, r5, r6, r7, pc}
 1075              	.L94:
 1076 0066 C046     		.align	2
 1077              	.L93:
 1078 0068 19010000 		.word	.LC53
 1079 006c 00000000 		.word	.LANCHOR1
 1080              		.cfi_endproc
 1081              	.LFE44:
 1082              		.size	Command_Identify, .-Command_Identify
 1083              		.section	.text.SendNotification,"ax",%progbits
 1084              		.align	1
 1085              		.global	SendNotification
 1086              		.code	16
 1087              		.thumb_func
 1088              		.type	SendNotification, %function
 1089              	SendNotification:
 1090              	.LFB46:
1983:.\BLEApplication.c **** 
1984:.\BLEApplication.c **** /*******************************************************************************
1985:.\BLEApplication.c **** * Function Name: SendNotification()
1986:.\BLEApplication.c **** ********************************************************************************
ARM GAS  C:\Users\Helon\AppData\Local\Temp\ccKCxrf8.s 			page 58


1987:.\BLEApplication.c **** * Summary:
1988:.\BLEApplication.c **** * This function creates a notification packet and sends it.
1989:.\BLEApplication.c **** *
1990:.\BLEApplication.c **** * Parameters:
1991:.\BLEApplication.c **** * None
1992:.\BLEApplication.c **** *
1993:.\BLEApplication.c **** * Return:
1994:.\BLEApplication.c **** * None
1995:.\BLEApplication.c **** *
1996:.\BLEApplication.c **** * Theory:
1997:.\BLEApplication.c **** * The function creates a notification packet for the custom characteristic and 
1998:.\BLEApplication.c **** * sends it over BLE. The amount of data sent for the characteristic is equal 
1999:.\BLEApplication.c **** * to (negotiated MTU size - 3) bytes.
2000:.\BLEApplication.c **** *
2001:.\BLEApplication.c **** * Side Effects:
2002:.\BLEApplication.c **** * None
2003:.\BLEApplication.c **** *
2004:.\BLEApplication.c **** *******************************************************************************/
2005:.\BLEApplication.c **** void SendNotification(uint8_t*val,uint16_t len)
2006:.\BLEApplication.c **** {
 1091              		.loc 1 2006 0
 1092              		.cfi_startproc
 1093              	.LVL143:
 1094 0000 1FB5     		push	{r0, r1, r2, r3, r4, lr}
 1095              		.cfi_def_cfa_offset 24
 1096              		.cfi_offset 0, -24
 1097              		.cfi_offset 1, -20
 1098              		.cfi_offset 2, -16
 1099              		.cfi_offset 3, -12
 1100              		.cfi_offset 4, -8
 1101              		.cfi_offset 14, -4
2007:.\BLEApplication.c **** //    uint8   index;
2008:.\BLEApplication.c **** //    uint8   uartTxData[negotiatedMtu - 3];
2009:.\BLEApplication.c ****     CYBLE_API_RESULT_T API_RESULT=0;
2010:.\BLEApplication.c **** //    uint16_t uartTxDataLength;
2011:.\BLEApplication.c **** //    static uint16 uartIdleCount = UART_IDLE_TIMEOUT;
2012:.\BLEApplication.c **** ////    Uart_Char=UART_UartGetChar();
2013:.\BLEApplication.c **** //    CYBLE_GATTS_HANDLE_VALUE_NTF_T      uartTxDataNtf;
2014:.\BLEApplication.c ****     
2015:.\BLEApplication.c ****     /* Create a new notification packet */
2016:.\BLEApplication.c ****     CYBLE_GATTS_HANDLE_VALUE_NTF_T notificationPacket;
2017:.\BLEApplication.c **** //    CYBLE_API_RESULT_T API_RESULT;
2018:.\BLEApplication.c ****     /* Update Notification packet with the data.
2019:.\BLEApplication.c ****      * Maximum data which can be sent is equal to (Negotiated MTU - 3) bytes.
2020:.\BLEApplication.c ****      */
2021:.\BLEApplication.c ****     notificationPacket.attrHandle = CYBLE_TROUGHPUT_SERVICE_CUSTOM_CHARACTERISTIC_CHAR_HANDLE;
 1102              		.loc 1 2021 0
 1103 0002 0E22     		mov	r2, #14
 1104 0004 01AB     		add	r3, sp, #4
2022:.\BLEApplication.c ****     notificationPacket.value.val = val;   
2023:.\BLEApplication.c ****     notificationPacket.value.len = len - 3;
 1105              		.loc 1 2023 0
 1106 0006 0339     		sub	r1, r1, #3
 1107              	.LVL144:
 1108 0008 9980     		strh	r1, [r3, #4]
2024:.\BLEApplication.c **** //    notificationPacket.value.actualLen=0x00;
2025:.\BLEApplication.c ****     /* Report data to BLE component */
ARM GAS  C:\Users\Helon\AppData\Local\Temp\ccKCxrf8.s 			page 59


2026:.\BLEApplication.c ****     CyBle_GattsNotification(cyBle_connHandle, &notificationPacket);
 1109              		.loc 1 2026 0
 1110 000a 0849     		ldr	r1, .L96
2022:.\BLEApplication.c ****     notificationPacket.value.val = val;   
 1111              		.loc 1 2022 0
 1112 000c 0190     		str	r0, [sp, #4]
 1113              		.loc 1 2026 0
 1114 000e 4878     		ldrb	r0, [r1, #1]
 1115              	.LVL145:
2021:.\BLEApplication.c ****     notificationPacket.value.val = val;   
 1116              		.loc 1 2021 0
 1117 0010 1A81     		strh	r2, [r3, #8]
 1118              		.loc 1 2026 0
 1119 0012 0A78     		ldrb	r2, [r1]
 1120 0014 0002     		lsl	r0, r0, #8
 1121 0016 191C     		mov	r1, r3
 1122 0018 1043     		orr	r0, r2
 1123 001a FFF7FEFF 		bl	CyBle_GattsNotification
 1124              	.LVL146:
2027:.\BLEApplication.c ****     printf("SendNotification is %d\r\n",API_RESULT);
 1125              		.loc 1 2027 0
 1126 001e 0021     		mov	r1, #0
 1127 0020 0348     		ldr	r0, .L96+4
 1128 0022 FFF7FEFF 		bl	printf
 1129              	.LVL147:
2028:.\BLEApplication.c **** }
 1130              		.loc 1 2028 0
 1131 0026 05B0     		add	sp, sp, #20
 1132              		@ sp needed
 1133 0028 00BD     		pop	{pc}
 1134              	.L97:
 1135 002a C046     		.align	2
 1136              	.L96:
 1137 002c 00000000 		.word	cyBle_connHandle
 1138 0030 1E010000 		.word	.LC58
 1139              		.cfi_endproc
 1140              	.LFE46:
 1141              		.size	SendNotification, .-SendNotification
 1142              		.section	.text.SendData_toSlave,"ax",%progbits
 1143              		.align	1
 1144              		.global	SendData_toSlave
 1145              		.code	16
 1146              		.thumb_func
 1147              		.type	SendData_toSlave, %function
 1148              	SendData_toSlave:
 1149              	.LFB47:
2029:.\BLEApplication.c **** /******************************************************************************
2030:.\BLEApplication.c **** * Function Name: SendData_toSlave
2031:.\BLEApplication.c **** ***************************************************************************//**
2032:.\BLEApplication.c **** * 
2033:.\BLEApplication.c **** *  MasterÁªôSlaveÂèëÊï∞ÊçÆ
2034:.\BLEApplication.c **** * \param  val:ÊåáÂêëË¶ÅÂèëÈÄÅÁöÑÊï∞ÊçÆÁöÑÈ¶ñÂú∞ÂùÄ
2035:.\BLEApplication.c **** * \param  len:Ë¶ÅÂèëÈÄÅÁöÑÊï∞ÊçÆÁöÑÈïøÂ∫¶
2036:.\BLEApplication.c **** * \return none
2037:.\BLEApplication.c **** *  
2038:.\BLEApplication.c **** * 
2039:.\BLEApplication.c **** ******************************************************************************/
ARM GAS  C:\Users\Helon\AppData\Local\Temp\ccKCxrf8.s 			page 60


2040:.\BLEApplication.c **** void SendData_toSlave(uint8_t*val,uint16_t len)
2041:.\BLEApplication.c **** {
 1150              		.loc 1 2041 0
 1151              		.cfi_startproc
 1152              	.LVL148:
 1153 0000 1FB5     		push	{r0, r1, r2, r3, r4, lr}
 1154              		.cfi_def_cfa_offset 24
 1155              		.cfi_offset 0, -24
 1156              		.cfi_offset 1, -20
 1157              		.cfi_offset 2, -16
 1158              		.cfi_offset 3, -12
 1159              		.cfi_offset 4, -8
 1160              		.cfi_offset 14, -4
2042:.\BLEApplication.c **** //    uint8 cccdNotifEnabledValue[] = {0x01, 0x00};
2043:.\BLEApplication.c ****     CYBLE_API_RESULT_T API_RESULT=0;
2044:.\BLEApplication.c ****     CYBLE_GATT_VALUE_T SendDataStruct =
2045:.\BLEApplication.c ****     {
2046:.\BLEApplication.c ****         val,
2047:.\BLEApplication.c ****         len,
2048:.\BLEApplication.c ****         0
2049:.\BLEApplication.c ****     };
2050:.\BLEApplication.c ****     CYBLE_GATTC_WRITE_REQ_T writeRequestData;
2051:.\BLEApplication.c ****     writeRequestData.attrHandle=CYBLE_TROUGHPUT_SERVICE_CUSTOM_CHARACTERISTIC_CHAR_HANDLE;
 1161              		.loc 1 2051 0
 1162 0002 0E23     		mov	r3, #14
 1163 0004 01AC     		add	r4, sp, #4
 1164 0006 2381     		strh	r3, [r4, #8]
2052:.\BLEApplication.c ****     writeRequestData.value=SendDataStruct;
 1165              		.loc 1 2052 0
 1166 0008 0023     		mov	r3, #0
 1167 000a 0190     		str	r0, [sp, #4]
 1168 000c A180     		strh	r1, [r4, #4]
 1169 000e E380     		strh	r3, [r4, #6]
 1170              	.LVL149:
 1171              	.L100:
2053:.\BLEApplication.c **** //    CyBle_GattcWriteCharacteristicValue(cyBle_connHandle,&writeRequestData);
2054:.\BLEApplication.c ****     do{
2055:.\BLEApplication.c ****         API_RESULT=CyBle_GattcWriteWithoutResponse(cyBle_connHandle,&writeRequestData);
 1172              		.loc 1 2055 0 discriminator 2
 1173 0010 074A     		ldr	r2, .L105
 1174 0012 211C     		mov	r1, r4
 1175 0014 5078     		ldrb	r0, [r2, #1]
 1176 0016 1378     		ldrb	r3, [r2]
 1177 0018 0002     		lsl	r0, r0, #8
 1178 001a 1843     		orr	r0, r3
 1179 001c FFF7FEFF 		bl	CyBle_GattcWriteWithoutResponse
 1180              	.LVL150:
2056:.\BLEApplication.c ****       }
2057:.\BLEApplication.c ****     while((CYBLE_ERROR_OK != API_RESULT)  && (CYBLE_STATE_CONNECTED == cyBle_state));
 1181              		.loc 1 2057 0 discriminator 2
 1182 0020 0028     		cmp	r0, #0
 1183 0022 03D0     		beq	.L98
 1184              		.loc 1 2057 0 is_stmt 0 discriminator 1
 1185 0024 034B     		ldr	r3, .L105+4
 1186 0026 1B78     		ldrb	r3, [r3]
 1187 0028 022B     		cmp	r3, #2
 1188 002a F1D0     		beq	.L100
ARM GAS  C:\Users\Helon\AppData\Local\Temp\ccKCxrf8.s 			page 61


 1189              	.L98:
2058:.\BLEApplication.c ****     
2059:.\BLEApplication.c ****     
2060:.\BLEApplication.c **** }
 1190              		.loc 1 2060 0 is_stmt 1
 1191              		@ sp needed
 1192 002c 1FBD     		pop	{r0, r1, r2, r3, r4, pc}
 1193              	.L106:
 1194 002e C046     		.align	2
 1195              	.L105:
 1196 0030 00000000 		.word	cyBle_connHandle
 1197 0034 00000000 		.word	cyBle_state
 1198              		.cfi_endproc
 1199              	.LFE47:
 1200              		.size	SendData_toSlave, .-SendData_toSlave
 1201              		.section	.text.Connect_Device,"ax",%progbits
 1202              		.align	1
 1203              		.global	Connect_Device
 1204              		.code	16
 1205              		.thumb_func
 1206              		.type	Connect_Device, %function
 1207              	Connect_Device:
 1208              	.LFB49:
2061:.\BLEApplication.c **** /******************************************************************************
2062:.\BLEApplication.c **** * Function Name: Slave_UartHandler
2063:.\BLEApplication.c **** ***************************************************************************//**
2064:.\BLEApplication.c **** * 
2065:.\BLEApplication.c **** *  Âú®Master_SlaveÊ®°Âºè‰∏ãÂ§ÑÁêÜ‰∏≤Âè£Êåá‰ª§
2066:.\BLEApplication.c **** * \param  none
2067:.\BLEApplication.c **** * \return none
2068:.\BLEApplication.c **** *  
2069:.\BLEApplication.c **** * 
2070:.\BLEApplication.c **** ******************************************************************************/
2071:.\BLEApplication.c **** void Master_Slave_UartHandler(uint8_t Role)
2072:.\BLEApplication.c **** {
2073:.\BLEApplication.c ****     uint8_t Uart_Char=0;
2074:.\BLEApplication.c ****     uint32 passkey=0;
2075:.\BLEApplication.c ****     uint32 pow;
2076:.\BLEApplication.c ****     uint8   index;
2077:.\BLEApplication.c ****     uint8   uartTxData[negotiatedMtu - 3];
2078:.\BLEApplication.c ****     CYBLE_API_RESULT_T API_RESULT=0;
2079:.\BLEApplication.c ****     uint16_t uartTxDataLength;
2080:.\BLEApplication.c ****     static uint16 uartIdleCount = UART_IDLE_TIMEOUT;
2081:.\BLEApplication.c **** //    Uart_Char=UART_UartGetChar();
2082:.\BLEApplication.c ****     CYBLE_GATTS_HANDLE_VALUE_NTF_T      uartTxDataNtf;
2083:.\BLEApplication.c ****     uartTxDataLength = UART_SpiUartGetRxBufferSize();//Âè™ÊúâËØªÂèñÂÆå‰∫ÜRX_BufferÊâçÊ∏Ö0
2084:.\BLEApplication.c **** //    UART_UartPutChar(uartTxDataLength);   
2085:.\BLEApplication.c **** //        Â§ÑÁêÜ‰∏≤Âè£‰ø°ÊÅØ,‰∏çÈááÁî®‰∏≠Êñ≠ÁöÑÊñπÂºè,ÈááÂèñ‰∏≠Êñ≠‰ºöÂΩ±ÂìçÈÄè‰º†ÈÄüÁéá
2086:.\BLEApplication.c ****     if((0!=uartTxDataLength)&&((CommandMode==THROUGHT_MODE)))
2087:.\BLEApplication.c ****     {   
2088:.\BLEApplication.c ****          #ifdef  FLOW_CONTROL//Ê≠§Â§ÑÊúÄÂ•ΩÁΩÆ‰∏ÄGPIOÂè£‰∏∫‰ΩéÁîµÂπ≥ÂëäËØâÂèëÈÄÅÊñπÂÅúÊ≠¢ÂèëÈÄÅÊï∞Ê
2089:.\BLEApplication.c ****             if(uartTxDataLength>=(UART_RX_BUFFER/4))
2090:.\BLEApplication.c ****             {
2091:.\BLEApplication.c ****                 UART_RX_INT_DISABLE();
2092:.\BLEApplication.c ****                 CTS_Write(CTS_OFF);
2093:.\BLEApplication.c ****             }
2094:.\BLEApplication.c ****             else
ARM GAS  C:\Users\Helon\AppData\Local\Temp\ccKCxrf8.s 			page 62


2095:.\BLEApplication.c ****             {
2096:.\BLEApplication.c ****                 UART_RX_INT_ENABLE();
2097:.\BLEApplication.c ****                 CTS_Write(CTS_ON);
2098:.\BLEApplication.c ****             }
2099:.\BLEApplication.c ****         #endif
2100:.\BLEApplication.c ****         if(uartTxDataLength>=negotiatedMtu-3)
2101:.\BLEApplication.c ****         {                 
2102:.\BLEApplication.c ****             uartIdleCount=UART_IDLE_TIMEOUT;
2103:.\BLEApplication.c ****             uartTxDataLength=negotiatedMtu-3;
2104:.\BLEApplication.c ****         }
2105:.\BLEApplication.c ****         else//Â¶ÇÊûúÂ∞è‰∫é20Â≠óËäÇÂàôÁ≠â‰∏™100ms,Â¶ÇÊûú100msÂêéËøòÊòØÂ∞ë‰∫é20Â≠óËäÇÂàôÈÄè‰º†Âá∫Âéª
2106:.\BLEApplication.c ****         {
2107:.\BLEApplication.c ****             if(--uartIdleCount == 0)
2108:.\BLEApplication.c ****             {
2109:.\BLEApplication.c ****                 /*uartTxDataLength remains unchanged */;
2110:.\BLEApplication.c ****             }
2111:.\BLEApplication.c ****             else
2112:.\BLEApplication.c ****             {
2113:.\BLEApplication.c ****                 uartTxDataLength = 0;
2114:.\BLEApplication.c ****             }
2115:.\BLEApplication.c ****         }
2116:.\BLEApplication.c ****         if(0!=uartTxDataLength)
2117:.\BLEApplication.c ****         {
2118:.\BLEApplication.c ****             uartIdleCount=UART_IDLE_TIMEOUT;
2119:.\BLEApplication.c **** //            UART_UartPutChar(UART_SpiUartGetRxBufferSize());
2120:.\BLEApplication.c ****             for(index=0;index<uartTxDataLength;index++)//‰∏çÁÆ°ÊòØ‰∏ªÊú∫ËøòÊòØ‰ªéÊú∫ÔºåÂú®ÈÄè‰º†Ê®°
2121:.\BLEApplication.c ****             {
2122:.\BLEApplication.c ****                 uartTxData[index] = (uint8) UART_UartGetByte();
2123:.\BLEApplication.c ****             }            
2124:.\BLEApplication.c ****             if(0==memcmp("AT+NOTIFY=0",uartTxData,11))//Âú®ÈÄè‰º†Ê®°Âºè‰∏ãÔºåÂà§Êñ≠ÊòØ‰∏çÊòØË¶ÅÈÄÄÂ
2125:.\BLEApplication.c ****             {                
2126:.\BLEApplication.c ****                 if(Role==Central) //‰∏ªÊú∫Ê®°Âºè‰∏ãÈÄÄÂá∫ÈÄè‰º†Ê®°Âºè
2127:.\BLEApplication.c ****                 {
2128:.\BLEApplication.c ****                     writeRequestData.value.val[0]=0x00;
2129:.\BLEApplication.c ****                     writeRequestData.attrHandle=CYBLE_TROUGHPUT_SERVICE_CUSTOM_CHARACTERISTIC_CLIEN
2130:.\BLEApplication.c ****                     API_RESULT=CyBle_GattcWriteCharacteristicValue(cyBle_connHandle, &writeRequestD
2131:.\BLEApplication.c ****                     if(CYBLE_ERROR_OK==API_RESULT)
2132:.\BLEApplication.c ****                     {
2133:.\BLEApplication.c ****                         CommandMode=AT_COMMAND_MODE;
2134:.\BLEApplication.c ****                         CTS_Write(CTS_OFF);
2135:.\BLEApplication.c ****                         Buffer_Length=0;
2136:.\BLEApplication.c ****                         memset(RX_BUFFER,0,sizeof(RX_BUFFER));
2137:.\BLEApplication.c ****                         printf("+MODE=AT_COMMAND_MODE\r\n");
2138:.\BLEApplication.c ****                     }
2139:.\BLEApplication.c ****                 }
2140:.\BLEApplication.c ****                 else //‰ªéÊú∫Ê®°Âºè‰∏ãÈÄÄÂá∫ÈÄè‰º†Ê®°Âºè
2141:.\BLEApplication.c ****                 {
2142:.\BLEApplication.c ****                     CommandMode=AT_COMMAND_MODE;
2143:.\BLEApplication.c ****                     CTS_Write(CTS_OFF);
2144:.\BLEApplication.c ****                     Buffer_Length=0;
2145:.\BLEApplication.c ****                     memset(RX_BUFFER,0,sizeof(RX_BUFFER));
2146:.\BLEApplication.c ****                     printf("+MODE=AT_COMMAND_MODE\r\n");
2147:.\BLEApplication.c ****                 }
2148:.\BLEApplication.c ****                 return;
2149:.\BLEApplication.c ****             }  
2150:.\BLEApplication.c ****             if(0==memcmp("AT+NOTIFY=?",uartTxData,11))//‰∏çÁÆ°‰∏ªÊú∫ËøòÊòØ‰ªéÊú∫ÔºåÂú®ÈÄè‰º†Ê®°Âºè‰
2151:.\BLEApplication.c ****             {
ARM GAS  C:\Users\Helon\AppData\Local\Temp\ccKCxrf8.s 			page 63


2152:.\BLEApplication.c ****                 Buffer_Length=0;
2153:.\BLEApplication.c ****                 memset(RX_BUFFER,0,sizeof(RX_BUFFER));
2154:.\BLEApplication.c ****                 printf("+MODE=THROUGHT_MODE\r\n");
2155:.\BLEApplication.c ****                 return;
2156:.\BLEApplication.c ****             }
2157:.\BLEApplication.c ****             else if(Peripheral==Role)//‰ªéÊú∫Áªô‰∏ªÊú∫ÂèëÈÄÅÈÄè‰º†Êï∞ÊçÆ
2158:.\BLEApplication.c ****             {
2159:.\BLEApplication.c ****                while(CyBle_GattGetBusStatus()!= CYBLE_STACK_STATE_FREE);//Âè™ÊúâÂΩìËìùÁâôÂçèËÆÆÊ†àÁ
2160:.\BLEApplication.c ****                 uartTxDataNtf.value.val  = uartTxData;
2161:.\BLEApplication.c ****                 uartTxDataNtf.value.len  = uartTxDataLength;
2162:.\BLEApplication.c ****                 uartTxDataNtf.attrHandle = CYBLE_TROUGHPUT_SERVICE_CUSTOM_CHARACTERISTIC_CHAR_HANDL
2163:.\BLEApplication.c **** //                #ifdef FLOW_CONTROL
2164:.\BLEApplication.c **** //                    UART_RX_INT_DISABLE();
2165:.\BLEApplication.c **** //                #endif
2166:.\BLEApplication.c ****                 do
2167:.\BLEApplication.c ****                 {
2168:.\BLEApplication.c ****                     API_RESULT = CyBle_GattsNotification(cyBle_connHandle, &uartTxDataNtf);
2169:.\BLEApplication.c ****                     CyBle_ProcessEvents();
2170:.\BLEApplication.c ****                 }
2171:.\BLEApplication.c ****                 while((CYBLE_ERROR_OK != API_RESULT)  && (CYBLE_STATE_CONNECTED == cyBle_state));
2172:.\BLEApplication.c **** //                testCount+=uartTxDataLength;
2173:.\BLEApplication.c ****             }
2174:.\BLEApplication.c ****             else////‰∏ªÊú∫Áªô‰ªéÊú∫ÂèëÈÄÅÈÄè‰º†Êï∞ÊçÆ
2175:.\BLEApplication.c ****             {
2176:.\BLEApplication.c ****                 #ifdef FLOW_CONTROL
2177:.\BLEApplication.c ****                     UART_RX_INT_DISABLE();
2178:.\BLEApplication.c ****                 #endif
2179:.\BLEApplication.c ****                 while(CyBle_GattGetBusStatus()!= CYBLE_STACK_STATE_FREE);//Âè™ÊúâÂΩìËìùÁâôÂçèËÆÆÊ†à
2180:.\BLEApplication.c ****                 SendData_toSlave(uartTxData,uartTxDataLength);
2181:.\BLEApplication.c ****             }
2182:.\BLEApplication.c ****         }
2183:.\BLEApplication.c ****         return ;
2184:.\BLEApplication.c ****     }
2185:.\BLEApplication.c ****     else if(0!=uartTxDataLength)
2186:.\BLEApplication.c ****     {   
2187:.\BLEApplication.c ****         RxFlag=START;
2188:.\BLEApplication.c ****         if(KEYBOARD)
2189:.\BLEApplication.c ****         {
2190:.\BLEApplication.c ****            KEYBOARD=FALSE;
2191:.\BLEApplication.c ****         /*Set the passkey to zero before receiving New passkey */
2192:.\BLEApplication.c ****             passkey = 0u;
2193:.\BLEApplication.c ****             pow = 100000ul;
2194:.\BLEApplication.c ****             
2195:.\BLEApplication.c ****             /*Get 6 digit number from UART terminal*/
2196:.\BLEApplication.c ****             for(index = 0u; index < CYBLE_GAP_USER_PASSKEY_SIZE; index++)
2197:.\BLEApplication.c ****             {
2198:.\BLEApplication.c ****                 while((Uart_Char = UART_UartGetChar()) == 0);
2199:.\BLEApplication.c ****                 
2200:.\BLEApplication.c ****                 /* accept the digits that are in between the range '0' and '9'  */
2201:.\BLEApplication.c ****                 if((Uart_Char >= '0') && (Uart_Char <= '9'))  
2202:.\BLEApplication.c ****                 {
2203:.\BLEApplication.c ****                     passkey += (uint32)(Uart_Char - '0') * pow;
2204:.\BLEApplication.c ****                     pow /= 10u;
2205:.\BLEApplication.c **** //                    UART_UartPutChar(Uart_Char); 
2206:.\BLEApplication.c ****                 }
2207:.\BLEApplication.c ****                 else  /* If entered digit is not in between the rnage '0' and '9'*/
2208:.\BLEApplication.c ****                 {
ARM GAS  C:\Users\Helon\AppData\Local\Temp\ccKCxrf8.s 			page 64


2209:.\BLEApplication.c ****                     printf("+AUTHKEY=INVALID\r\n");
2210:.\BLEApplication.c ****                     break;
2211:.\BLEApplication.c ****                 }
2212:.\BLEApplication.c ****             }            
2213:.\BLEApplication.c ****             /*Send Pass key Response to to create an Authenticated Link*/
2214:.\BLEApplication.c ****             API_RESULT = CyBle_GapAuthPassKeyReply(cyBle_connHandle.bdHandle,passkey,1);         
2215:.\BLEApplication.c ****             /*Check the result of CyBle_GapAuthPassKeyReply*/
2216:.\BLEApplication.c ****             if(API_RESULT== CYBLE_ERROR_INVALID_PARAMETER)
2217:.\BLEApplication.c ****             {
2218:.\BLEApplication.c ****                 printf("CYBLE_ERROR_INVALID_PARAMETER \r\n");               
2219:.\BLEApplication.c ****             }
2220:.\BLEApplication.c ****             else if(API_RESULT==CYBLE_ERROR_MEMORY_ALLOCATION_FAILED)
2221:.\BLEApplication.c ****             {
2222:.\BLEApplication.c ****                 printf("CYBLE_ERROR_MEMORY_ALLOCATION_FAILED\r\n");
2223:.\BLEApplication.c ****             }
2224:.\BLEApplication.c ****             else if(API_RESULT==CYBLE_ERROR_NO_DEVICE_ENTITY)
2225:.\BLEApplication.c ****             {
2226:.\BLEApplication.c ****                 printf("CYBLE_ERROR_NO_DEVICE_ENTITY\r\n");
2227:.\BLEApplication.c ****             }
2228:.\BLEApplication.c ****             else if(API_RESULT==CYBLE_ERROR_OK)
2229:.\BLEApplication.c ****             {
2230:.\BLEApplication.c ****                 printf("+AUTHKEY=SUCCESFULLY\r\n");
2231:.\BLEApplication.c ****             }
2232:.\BLEApplication.c ****         }
2233:.\BLEApplication.c ****         else
2234:.\BLEApplication.c ****         {
2235:.\BLEApplication.c ****             Uart_Char=(uint8) UART_UartGetByte();
2236:.\BLEApplication.c ****             if('\n'!=Uart_Char)
2237:.\BLEApplication.c ****             {
2238:.\BLEApplication.c ****     //            if(CommandMode==THROUGHT_MODE)
2239:.\BLEApplication.c ****     //            {
2240:.\BLEApplication.c ****     //                RX_BUFFER[Buffer_Length]=Uart_Char-0x30;//ËØªÂèñ‰∏≤Âè£Êé•Êî∂ÁºìÂÜ≤Âå∫ÁöÑÊï∞Êç
2241:.\BLEApplication.c ****     //                Buffer_Length++;
2242:.\BLEApplication.c ****     //            }
2243:.\BLEApplication.c ****     //            else
2244:.\BLEApplication.c ****     //            {
2245:.\BLEApplication.c ****                     RX_BUFFER[Buffer_Length]=Uart_Char;//ËØªÂèñ‰∏≤Âè£Êé•Êî∂ÁºìÂÜ≤Âå∫ÁöÑÊï∞ÊçÆ
2246:.\BLEApplication.c ****                     Buffer_Length++;
2247:.\BLEApplication.c ****     //            }                      
2248:.\BLEApplication.c ****             }
2249:.\BLEApplication.c ****             else
2250:.\BLEApplication.c ****             {
2251:.\BLEApplication.c ****                 uartIdleCount=UART_IDLE_TIMEOUT;
2252:.\BLEApplication.c ****                 RxFlag=OVER;
2253:.\BLEApplication.c ****             //‰∏≤Âè£Êé•Êî∂ÁöÑÊï∞ÊçÆÈïøÂ∫¶Ê∏ÖÈõ∂,‰ª•‰æø‰∏ã‰∏ÄÊù°ÂëΩ‰ª§ËøáÊù•Êó∂ËøòÊòØÂ≠òÊîæÂú®Êï∞ÁªÑ
2254:.\BLEApplication.c ****                 RX_BUFFER[Buffer_Length]=Uart_Char;//ËØªÂèñ‰∏≤Âè£Êé•Êî∂ÁºìÂÜ≤Âå∫ÁöÑÊï∞ÊçÆ          
2255:.\BLEApplication.c ****                 Parser_UartData((char*)RX_BUFFER);
2256:.\BLEApplication.c ****                 Buffer_Length=0;
2257:.\BLEApplication.c ****                 memset(RX_BUFFER,0,sizeof(RX_BUFFER));
2258:.\BLEApplication.c ****     //            if(CommandMode==THROUGHT_MODE)
2259:.\BLEApplication.c ****     //            {
2260:.\BLEApplication.c ****     //                
2261:.\BLEApplication.c ****     //                if(Role==Peripheral)
2262:.\BLEApplication.c ****     //                    SendNotification(RX_BUFFER,Buffer_Length+3);
2263:.\BLEApplication.c ****     //                else
2264:.\BLEApplication.c ****     //                    SendData_toSlave(RX_BUFFER,Buffer_Length);
2265:.\BLEApplication.c ****     //                //‰∏≤Âè£Êé•Êî∂ÁöÑÊï∞ÊçÆÈïøÂ∫¶Ê∏ÖÈõ∂,‰ª•‰æø‰∏ã‰∏ÄÊù°ÂëΩ‰ª§ËøáÊù•Êó∂ËøòÊòØÂ≠òÊî
ARM GAS  C:\Users\Helon\AppData\Local\Temp\ccKCxrf8.s 			page 65


2266:.\BLEApplication.c ****     //                Buffer_Length=0;
2267:.\BLEApplication.c ****     //                memset(RX_BUFFER,0,sizeof(RX_BUFFER));
2268:.\BLEApplication.c ****     //            }
2269:.\BLEApplication.c ****     //            else
2270:.\BLEApplication.c ****     //            {
2271:.\BLEApplication.c ****     //                
2272:.\BLEApplication.c ****     //            }
2273:.\BLEApplication.c ****             }
2274:.\BLEApplication.c ****         }    
2275:.\BLEApplication.c ****     }
2276:.\BLEApplication.c ****     else
2277:.\BLEApplication.c ****     {
2278:.\BLEApplication.c ****         if(RxFlag)//Â¶ÇÊûú‰∏≤Âè£100msÂÜÖÊ≤°ÊúâÊé•Êî∂Âà∞ÂõûËΩ¶Êç¢Ë°åÁ¨¶Êó∂ÔºåÂàôËÆ§‰∏∫ËØ•ATÂëΩ‰ª§Êó†
2279:.\BLEApplication.c ****         {
2280:.\BLEApplication.c ****             if(--uartIdleCount == 0)
2281:.\BLEApplication.c ****             {
2282:.\BLEApplication.c ****                 RxFlag=OVER;
2283:.\BLEApplication.c ****                 uartIdleCount=UART_IDLE_TIMEOUT;
2284:.\BLEApplication.c ****                 Buffer_Length=0;
2285:.\BLEApplication.c ****                 memset(RX_BUFFER,0,sizeof(RX_BUFFER));
2286:.\BLEApplication.c ****                 printf("AT+ERR=7\r\n");//ATÂëΩ‰ª§Ê≤°ÊúâÂõûËΩ¶Êç¢Ë°å
2287:.\BLEApplication.c ****                 /*uartTxDataLength remains unchanged */;
2288:.\BLEApplication.c ****             }
2289:.\BLEApplication.c ****         }
2290:.\BLEApplication.c ****     }
2291:.\BLEApplication.c **** }
2292:.\BLEApplication.c **** 
2293:.\BLEApplication.c **** /******************************************************************************
2294:.\BLEApplication.c **** * Function Name: Connect_Device
2295:.\BLEApplication.c **** ***************************************************************************//**
2296:.\BLEApplication.c **** * 
2297:.\BLEApplication.c **** *  ËøûÊé•Êâ´ÊèèÂàóË°®‰∏≠ÁöÑSlaveËÆæÂ§á
2298:.\BLEApplication.c **** * \param  idx:Êâ´ÊèèÂàóË°®‰∏≠ÁöÑÁ¥¢ÂºïÂè∑
2299:.\BLEApplication.c **** * \return none
2300:.\BLEApplication.c **** *  
2301:.\BLEApplication.c **** * 
2302:.\BLEApplication.c **** ******************************************************************************/
2303:.\BLEApplication.c **** void Connect_Device(uint8_t idx)
2304:.\BLEApplication.c **** {
 1209              		.loc 1 2304 0
 1210              		.cfi_startproc
 1211              	.LVL151:
 1212 0000 30B5     		push	{r4, r5, lr}
 1213              		.cfi_def_cfa_offset 12
 1214              		.cfi_offset 4, -12
 1215              		.cfi_offset 5, -8
 1216              		.cfi_offset 14, -4
2305:.\BLEApplication.c ****     CYBLE_API_RESULT_T API_RESULT=0;
2306:.\BLEApplication.c ****     uint8_t i=0;
2307:.\BLEApplication.c ****     if(Role==Central)
 1217              		.loc 1 2307 0
 1218 0002 444C     		ldr	r4, .L130
2304:.\BLEApplication.c ****     CYBLE_API_RESULT_T API_RESULT=0;
 1219              		.loc 1 2304 0
 1220 0004 85B0     		sub	sp, sp, #20
 1221              		.cfi_def_cfa_offset 32
 1222              		.loc 1 2307 0
ARM GAS  C:\Users\Helon\AppData\Local\Temp\ccKCxrf8.s 			page 66


 1223 0006 6378     		ldrb	r3, [r4, #1]
 1224 0008 012B     		cmp	r3, #1
 1225 000a 00D0     		beq	.LCB1122
 1226 000c 7DE0     		b	.L108	@long jump
 1227              	.LCB1122:
 1228              	.LVL152:
 1229              	.LBB34:
 1230              	.LBB35:
2308:.\BLEApplication.c ****     {
2309:.\BLEApplication.c ****         switch(idx)
 1231              		.loc 1 2309 0
 1232 000e 3138     		sub	r0, r0, #49
 1233              	.LVL153:
 1234 0010 0E28     		cmp	r0, #14
 1235 0012 00D9     		bls	.LCB1130
 1236 0014 7CE0     		b	.L107	@long jump
 1237              	.LCB1130:
 1238 0016 FFF7FEFF 		bl	__gnu_thumb1_case_uqi
 1239              	.L111:
 1240 001a 08       		.byte	(.L110-.L111)/2
 1241 001b 19       		.byte	(.L112-.L111)/2
 1242 001c 2C       		.byte	(.L113-.L111)/2
 1243 001d 3D       		.byte	(.L114-.L111)/2
 1244 001e 7B       		.byte	(.L107-.L111)/2
 1245 001f 7B       		.byte	(.L107-.L111)/2
 1246 0020 7B       		.byte	(.L107-.L111)/2
 1247 0021 7B       		.byte	(.L107-.L111)/2
 1248 0022 7B       		.byte	(.L107-.L111)/2
 1249 0023 7B       		.byte	(.L107-.L111)/2
 1250 0024 7B       		.byte	(.L107-.L111)/2
 1251 0025 7B       		.byte	(.L107-.L111)/2
 1252 0026 7B       		.byte	(.L107-.L111)/2
 1253 0027 7B       		.byte	(.L107-.L111)/2
 1254 0028 59       		.byte	(.L115-.L111)/2
 1255 0029 00       		.p2align 1
 1256              	.L110:
2310:.\BLEApplication.c ****         {
2311:.\BLEApplication.c ****             case '1':
2312:.\BLEApplication.c ****                 API_RESULT=CyBle_GapcConnectDevice(&DeviceInfo[idx-1-0x30].DeviceList);
 1257              		.loc 1 2312 0
 1258 002a 3B4D     		ldr	r5, .L130+4
 1259 002c 281C     		mov	r0, r5
 1260 002e FFF7FEFF 		bl	CyBle_GapcConnectDevice
 1261              	.LVL154:
 1262 0032 021E     		sub	r2, r0, #0
 1263              	.LVL155:
2313:.\BLEApplication.c ****                 if(CYBLE_ERROR_OK!=API_RESULT)  
 1264              		.loc 1 2313 0
 1265 0034 02D0     		beq	.L116
2314:.\BLEApplication.c ****                 {
2315:.\BLEApplication.c ****                     printf("AT+ERR=%d,0x%02X\r\n",idx-0x30,API_RESULT);                    
 1266              		.loc 1 2315 0
 1267 0036 3948     		ldr	r0, .L130+8
 1268              	.LVL156:
 1269 0038 0121     		mov	r1, #1
 1270 003a 0FE0     		b	.L126
 1271              	.LVL157:
ARM GAS  C:\Users\Helon\AppData\Local\Temp\ccKCxrf8.s 			page 67


 1272              	.L116:
2316:.\BLEApplication.c ****                 }
2317:.\BLEApplication.c ****                 else
2318:.\BLEApplication.c ****                 {
2319:.\BLEApplication.c ****                     Conn_Or_Disconn_Info.Connected_Count++;
 1273              		.loc 1 2319 0
 1274 003c 384A     		ldr	r2, .L130+12
2320:.\BLEApplication.c ****                     Conn_Or_Disconn_Info.Connect_Idx[Conn_Or_Disconn_Info.Connected_Count-1]=idx-0x
 1275              		.loc 1 2320 0
 1276 003e 0121     		mov	r1, #1
2319:.\BLEApplication.c ****                     Conn_Or_Disconn_Info.Connect_Idx[Conn_Or_Disconn_Info.Connected_Count-1]=idx-0x
 1277              		.loc 1 2319 0
 1278 0040 137A     		ldrb	r3, [r2, #8]
 1279 0042 0133     		add	r3, r3, #1
 1280 0044 DBB2     		uxtb	r3, r3
 1281 0046 1372     		strb	r3, [r2, #8]
 1282              		.loc 1 2320 0
 1283 0048 013B     		sub	r3, r3, #1
 1284 004a 33E0     		b	.L128
 1285              	.LVL158:
 1286              	.L112:
2321:.\BLEApplication.c ****                     Conn_or_Disconn_Idx=idx-0x30;
2322:.\BLEApplication.c ****                     memcpy(Conn_Or_Disconn_Info.DeviceAddr[Conn_Or_Disconn_Info.Connected_Count-1].
2323:.\BLEApplication.c ****                            DeviceInfo[idx-1-0x30].DeviceList.bdAddr,6);  
2324:.\BLEApplication.c ****                     printf("AT+OK\r\n");
2325:.\BLEApplication.c **** //                        CyBle_GapGetPeerBdHandle(bdHandle,&DeviceInfo[idx-1-0x30].DeviceList);
2326:.\BLEApplication.c **** //                        printf("0x%02X\r\n",*bdHandle);  
2327:.\BLEApplication.c ****                 }
2328:.\BLEApplication.c ****             break;
2329:.\BLEApplication.c ****             case '2':
2330:.\BLEApplication.c ****                 API_RESULT=CyBle_GapcConnectDevice(&DeviceInfo[idx-1-0x30].DeviceList);
 1287              		.loc 1 2330 0
 1288 004c 354D     		ldr	r5, .L130+16
 1289 004e 281C     		mov	r0, r5
 1290 0050 FFF7FEFF 		bl	CyBle_GapcConnectDevice
 1291              	.LVL159:
 1292 0054 021E     		sub	r2, r0, #0
 1293              	.LVL160:
2331:.\BLEApplication.c ****                 if(CYBLE_ERROR_OK!=API_RESULT)  
 1294              		.loc 1 2331 0
 1295 0056 04D0     		beq	.L117
2332:.\BLEApplication.c ****                 {
2333:.\BLEApplication.c ****                     printf("AT+ERR=%d,0x%02X\r\n",idx-0x30,API_RESULT);                    
 1296              		.loc 1 2333 0
 1297 0058 0221     		mov	r1, #2
 1298 005a 3048     		ldr	r0, .L130+8
 1299              	.LVL161:
 1300              	.L126:
 1301 005c FFF7FEFF 		bl	printf
 1302              	.LVL162:
 1303 0060 56E0     		b	.L107
 1304              	.LVL163:
 1305              	.L117:
2334:.\BLEApplication.c ****                 }
2335:.\BLEApplication.c ****                 else
2336:.\BLEApplication.c ****                 {
2337:.\BLEApplication.c ****                     Conn_Or_Disconn_Info.Connected_Count++;
ARM GAS  C:\Users\Helon\AppData\Local\Temp\ccKCxrf8.s 			page 68


 1306              		.loc 1 2337 0
 1307 0062 2F4A     		ldr	r2, .L130+12
2338:.\BLEApplication.c ****                     Conn_Or_Disconn_Info.Connect_Idx[Conn_Or_Disconn_Info.Connected_Count-1]=idx-0x
 1308              		.loc 1 2338 0
 1309 0064 0221     		mov	r1, #2
2337:.\BLEApplication.c ****                     Conn_Or_Disconn_Info.Connect_Idx[Conn_Or_Disconn_Info.Connected_Count-1]=idx-0x
 1310              		.loc 1 2337 0
 1311 0066 137A     		ldrb	r3, [r2, #8]
 1312 0068 0133     		add	r3, r3, #1
 1313 006a DBB2     		uxtb	r3, r3
 1314 006c 1372     		strb	r3, [r2, #8]
 1315              		.loc 1 2338 0
 1316 006e 013B     		sub	r3, r3, #1
 1317 0070 20E0     		b	.L128
 1318              	.LVL164:
 1319              	.L113:
2339:.\BLEApplication.c ****                     Conn_or_Disconn_Idx=idx-0x30;
2340:.\BLEApplication.c ****                     memcpy(Conn_Or_Disconn_Info.DeviceAddr[Conn_Or_Disconn_Info.Connected_Count-1].
2341:.\BLEApplication.c ****                            DeviceInfo[idx-1-0x30].DeviceList.bdAddr,6);
2342:.\BLEApplication.c ****                     printf("AT+OK\r\n");
2343:.\BLEApplication.c ****                 }
2344:.\BLEApplication.c ****             break;
2345:.\BLEApplication.c ****             case '3':
2346:.\BLEApplication.c ****                 API_RESULT=CyBle_GapcConnectDevice(&DeviceInfo[idx-1-0x30].DeviceList);
 1320              		.loc 1 2346 0
 1321 0072 2D4D     		ldr	r5, .L130+20
 1322 0074 281C     		mov	r0, r5
 1323 0076 FFF7FEFF 		bl	CyBle_GapcConnectDevice
 1324              	.LVL165:
 1325 007a 021E     		sub	r2, r0, #0
 1326              	.LVL166:
2347:.\BLEApplication.c ****                 if(CYBLE_ERROR_OK!=API_RESULT)  
 1327              		.loc 1 2347 0
 1328 007c 02D0     		beq	.L118
2348:.\BLEApplication.c ****                 {
2349:.\BLEApplication.c ****                     printf("AT+ERR=%d,0x%02X\r\n",idx-0x30,API_RESULT);                    
 1329              		.loc 1 2349 0
 1330 007e 2748     		ldr	r0, .L130+8
 1331              	.LVL167:
 1332 0080 0321     		mov	r1, #3
 1333 0082 EBE7     		b	.L126
 1334              	.LVL168:
 1335              	.L118:
2350:.\BLEApplication.c ****                 }
2351:.\BLEApplication.c ****                 else
2352:.\BLEApplication.c ****                 {
2353:.\BLEApplication.c ****                     Conn_Or_Disconn_Info.Connected_Count++;
 1336              		.loc 1 2353 0
 1337 0084 264A     		ldr	r2, .L130+12
2354:.\BLEApplication.c ****                     Conn_Or_Disconn_Info.Connect_Idx[Conn_Or_Disconn_Info.Connected_Count-1]=idx-0x
 1338              		.loc 1 2354 0
 1339 0086 0321     		mov	r1, #3
2353:.\BLEApplication.c ****                     Conn_Or_Disconn_Info.Connect_Idx[Conn_Or_Disconn_Info.Connected_Count-1]=idx-0x
 1340              		.loc 1 2353 0
 1341 0088 137A     		ldrb	r3, [r2, #8]
 1342 008a 0133     		add	r3, r3, #1
 1343 008c DBB2     		uxtb	r3, r3
ARM GAS  C:\Users\Helon\AppData\Local\Temp\ccKCxrf8.s 			page 69


 1344 008e 1372     		strb	r3, [r2, #8]
 1345              		.loc 1 2354 0
 1346 0090 013B     		sub	r3, r3, #1
 1347 0092 0FE0     		b	.L128
 1348              	.LVL169:
 1349              	.L114:
2355:.\BLEApplication.c ****                     Conn_or_Disconn_Idx=idx-0x30;
2356:.\BLEApplication.c ****                     memcpy(Conn_Or_Disconn_Info.DeviceAddr[Conn_Or_Disconn_Info.Connected_Count-1].
2357:.\BLEApplication.c ****                            DeviceInfo[idx-1-0x30].DeviceList.bdAddr,6);
2358:.\BLEApplication.c ****                     printf("AT+OK\r\n");
2359:.\BLEApplication.c ****                 }
2360:.\BLEApplication.c ****             break;
2361:.\BLEApplication.c ****             case '4':
2362:.\BLEApplication.c ****                 API_RESULT=CyBle_GapcConnectDevice(&DeviceInfo[idx-1-0x30].DeviceList);
 1350              		.loc 1 2362 0
 1351 0094 254D     		ldr	r5, .L130+24
 1352 0096 281C     		mov	r0, r5
 1353 0098 FFF7FEFF 		bl	CyBle_GapcConnectDevice
 1354              	.LVL170:
 1355 009c 021E     		sub	r2, r0, #0
 1356              	.LVL171:
2363:.\BLEApplication.c ****                 if(CYBLE_ERROR_OK!=API_RESULT)  
 1357              		.loc 1 2363 0
 1358 009e 02D0     		beq	.L119
2364:.\BLEApplication.c ****                 {
2365:.\BLEApplication.c ****                     printf("AT+ERR=%d,0x%02X\r\n",idx-0x30,API_RESULT);                    
 1359              		.loc 1 2365 0
 1360 00a0 1E48     		ldr	r0, .L130+8
 1361              	.LVL172:
 1362 00a2 0421     		mov	r1, #4
 1363 00a4 DAE7     		b	.L126
 1364              	.LVL173:
 1365              	.L119:
2366:.\BLEApplication.c ****                 }
2367:.\BLEApplication.c ****                 else
2368:.\BLEApplication.c ****                 {
2369:.\BLEApplication.c ****                     Conn_Or_Disconn_Info.Connected_Count++;
2370:.\BLEApplication.c ****                     Conn_Or_Disconn_Info.Connect_Idx[Conn_Or_Disconn_Info.Connected_Count-1]=idx-0x
 1366              		.loc 1 2370 0
 1367 00a6 0421     		mov	r1, #4
2369:.\BLEApplication.c ****                     Conn_Or_Disconn_Info.Connect_Idx[Conn_Or_Disconn_Info.Connected_Count-1]=idx-0x
 1368              		.loc 1 2369 0
 1369 00a8 1D4A     		ldr	r2, .L130+12
 1370 00aa 137A     		ldrb	r3, [r2, #8]
 1371 00ac 0133     		add	r3, r3, #1
 1372 00ae DBB2     		uxtb	r3, r3
 1373 00b0 1372     		strb	r3, [r2, #8]
 1374              		.loc 1 2370 0
 1375 00b2 013B     		sub	r3, r3, #1
 1376              	.L128:
2371:.\BLEApplication.c ****                     Conn_or_Disconn_Idx=idx-0x30;
2372:.\BLEApplication.c ****                     memcpy(Conn_Or_Disconn_Info.DeviceAddr[Conn_Or_Disconn_Info.Connected_Count-1].
 1377              		.loc 1 2372 0
 1378 00b4 0720     		mov	r0, #7
 1379              	.LVL174:
2370:.\BLEApplication.c ****                     Conn_or_Disconn_Idx=idx-0x30;
 1380              		.loc 1 2370 0
ARM GAS  C:\Users\Helon\AppData\Local\Temp\ccKCxrf8.s 			page 70


 1381 00b6 D154     		strb	r1, [r2, r3]
 1382              		.loc 1 2372 0
 1383 00b8 4343     		mul	r3, r0
 1384 00ba D018     		add	r0, r2, r3
2371:.\BLEApplication.c ****                     Conn_or_Disconn_Idx=idx-0x30;
 1385              		.loc 1 2371 0
 1386 00bc A170     		strb	r1, [r4, #2]
 1387              		.loc 1 2372 0
 1388 00be 0930     		add	r0, r0, #9
 1389 00c0 291C     		mov	r1, r5
 1390 00c2 0622     		mov	r2, #6
 1391 00c4 FFF7FEFF 		bl	memcpy
 1392              	.LVL175:
2373:.\BLEApplication.c ****                            DeviceInfo[idx-1-0x30].DeviceList.bdAddr,6);
2374:.\BLEApplication.c ****                     printf("AT+OK\r\n");
 1393              		.loc 1 2374 0
 1394 00c8 1948     		ldr	r0, .L130+28
 1395 00ca 1FE0     		b	.L127
 1396              	.L115:
2375:.\BLEApplication.c ****                 }
2376:.\BLEApplication.c ****             break;
2377:.\BLEApplication.c ****             case '?':
2378:.\BLEApplication.c ****                 if(CYBLE_STATE_CONNECTED==CyBle_GetState())
 1397              		.loc 1 2378 0
 1398 00cc 194B     		ldr	r3, .L130+32
 1399 00ce 0024     		mov	r4, #0
 1400 00d0 1B78     		ldrb	r3, [r3]
 1401 00d2 022B     		cmp	r3, #2
 1402 00d4 17D1     		bne	.L129
 1403              	.L120:
 1404              	.LVL176:
2379:.\BLEApplication.c ****                 {
2380:.\BLEApplication.c ****                     for(i=0;i<Conn_Or_Disconn_Info.Connected_Count;i++)
 1405              		.loc 1 2380 0
 1406 00d6 124B     		ldr	r3, .L130+12
 1407 00d8 1A7A     		ldrb	r2, [r3, #8]
 1408 00da A242     		cmp	r2, r4
 1409 00dc 18D9     		bls	.L107
2381:.\BLEApplication.c ****                     {
2382:.\BLEApplication.c ****                         printf("+INQ_CONN=%d,%02X%02X%02X%02X%02X%02X\r\n",
2383:.\BLEApplication.c ****                         Conn_Or_Disconn_Info.Connect_Idx[i],
2384:.\BLEApplication.c ****                         Conn_Or_Disconn_Info.DeviceAddr[i].bdAddr[5],
 1410              		.loc 1 2384 0
 1411 00de 0720     		mov	r0, #7
 1412 00e0 6043     		mul	r0, r4
 1413 00e2 1818     		add	r0, r3, r0
2382:.\BLEApplication.c ****                         Conn_Or_Disconn_Info.Connect_Idx[i],
 1414              		.loc 1 2382 0
 1415 00e4 057B     		ldrb	r5, [r0, #12]
 1416 00e6 195D     		ldrb	r1, [r3, r4]
 1417 00e8 827B     		ldrb	r2, [r0, #14]
 1418 00ea 437B     		ldrb	r3, [r0, #13]
 1419 00ec 0095     		str	r5, [sp]
 1420 00ee C57A     		ldrb	r5, [r0, #11]
2380:.\BLEApplication.c ****                     {
 1421              		.loc 1 2380 0
 1422 00f0 0134     		add	r4, r4, #1
ARM GAS  C:\Users\Helon\AppData\Local\Temp\ccKCxrf8.s 			page 71


 1423              	.LVL177:
2382:.\BLEApplication.c ****                         Conn_Or_Disconn_Info.Connect_Idx[i],
 1424              		.loc 1 2382 0
 1425 00f2 0195     		str	r5, [sp, #4]
 1426 00f4 857A     		ldrb	r5, [r0, #10]
2380:.\BLEApplication.c ****                     {
 1427              		.loc 1 2380 0
 1428 00f6 E4B2     		uxtb	r4, r4
2382:.\BLEApplication.c ****                         Conn_Or_Disconn_Info.Connect_Idx[i],
 1429              		.loc 1 2382 0
 1430 00f8 0295     		str	r5, [sp, #8]
 1431 00fa 407A     		ldrb	r0, [r0, #9]
 1432 00fc 0390     		str	r0, [sp, #12]
 1433 00fe 0E48     		ldr	r0, .L130+36
 1434 0100 FFF7FEFF 		bl	printf
 1435              	.LVL178:
 1436 0104 E7E7     		b	.L120
 1437              	.LVL179:
 1438              	.L129:
2385:.\BLEApplication.c ****                         Conn_Or_Disconn_Info.DeviceAddr[i].bdAddr[4],
2386:.\BLEApplication.c ****                         Conn_Or_Disconn_Info.DeviceAddr[i].bdAddr[3],
2387:.\BLEApplication.c ****                         Conn_Or_Disconn_Info.DeviceAddr[i].bdAddr[2],
2388:.\BLEApplication.c ****                         Conn_Or_Disconn_Info.DeviceAddr[i].bdAddr[1],
2389:.\BLEApplication.c ****                         Conn_Or_Disconn_Info.DeviceAddr[i].bdAddr[0]
2390:.\BLEApplication.c ****                       );
2391:.\BLEApplication.c ****                     }
2392:.\BLEApplication.c ****                 }
2393:.\BLEApplication.c ****                 else
2394:.\BLEApplication.c ****                 {
2395:.\BLEApplication.c ****                     printf("AT+ERR=3\r\n");//Ë°®Á§∫ÂΩìÂâçÁä∂ÊÄÅ‰∏çÊîØÊåÅËØ•ÂëΩ‰ª§
 1439              		.loc 1 2395 0
 1440 0106 0D48     		ldr	r0, .L130+40
 1441 0108 00E0     		b	.L127
 1442              	.LVL180:
 1443              	.L108:
 1444              	.LBE35:
 1445              	.LBE34:
2396:.\BLEApplication.c ****                 }
2397:.\BLEApplication.c ****                 
2398:.\BLEApplication.c ****             break;
2399:.\BLEApplication.c ****         }
2400:.\BLEApplication.c ****     }
2401:.\BLEApplication.c ****     else
2402:.\BLEApplication.c ****     {
2403:.\BLEApplication.c ****         printf("AT+ERR=4\r\n");//Ë°®Á§∫ÂΩìÂâçËßíËâ≤‰∏çÊîØÊåÅËØ•ÂëΩ‰ª§ 
 1446              		.loc 1 2403 0
 1447 010a 0D48     		ldr	r0, .L130+44
 1448              	.LVL181:
 1449              	.L127:
 1450 010c FFF7FEFF 		bl	puts
 1451              	.LVL182:
 1452              	.L107:
2404:.\BLEApplication.c ****     }
2405:.\BLEApplication.c **** }
 1453              		.loc 1 2405 0
 1454 0110 05B0     		add	sp, sp, #20
 1455              		@ sp needed
ARM GAS  C:\Users\Helon\AppData\Local\Temp\ccKCxrf8.s 			page 72


 1456 0112 30BD     		pop	{r4, r5, pc}
 1457              	.L131:
 1458              		.align	2
 1459              	.L130:
 1460 0114 00000000 		.word	.LANCHOR0
 1461 0118 00000000 		.word	DeviceInfo
 1462 011c 37010000 		.word	.LC64
 1463 0120 00000000 		.word	Conn_Or_Disconn_Info
 1464 0124 1E000000 		.word	DeviceInfo+30
 1465 0128 3C000000 		.word	DeviceInfo+60
 1466 012c 5A000000 		.word	DeviceInfo+90
 1467 0130 4A010000 		.word	.LC67
 1468 0134 00000000 		.word	cyBle_state
 1469 0138 51010000 		.word	.LC73
 1470 013c 79010000 		.word	.LC75
 1471 0140 83010000 		.word	.LC77
 1472              		.cfi_endproc
 1473              	.LFE49:
 1474              		.size	Connect_Device, .-Connect_Device
 1475              		.section	.text.UartBuadRate_Handler,"ax",%progbits
 1476              		.align	1
 1477              		.global	UartBuadRate_Handler
 1478              		.code	16
 1479              		.thumb_func
 1480              		.type	UartBuadRate_Handler, %function
 1481              	UartBuadRate_Handler:
 1482              	.LFB50:
2406:.\BLEApplication.c **** /******************************************************************************
2407:.\BLEApplication.c **** * Function Name: UartBuadRate_Handler
2408:.\BLEApplication.c **** ***************************************************************************//**
2409:.\BLEApplication.c **** * 
2410:.\BLEApplication.c **** *  ËÆæÂ§á‰∏≤Âè£Ê≥¢ÁâπÁéáÊàñËÄÖÊü•ËØ¢ÂΩìÂâçÁöÑ‰∏≤Âè£Ê≥¢ÁâπÁéá
2411:.\BLEApplication.c **** * \param  idx:ËÆæÁΩÆÁöÑÊ≥¢ÁâπÁéáÂÄºÊàñÊü•ËØ¢Ê≥¢ÁâπÁéáÁöÑÁä∂ÊÄÅ
2412:.\BLEApplication.c **** * \return none
2413:.\BLEApplication.c **** *  
2414:.\BLEApplication.c **** * 
2415:.\BLEApplication.c **** ******************************************************************************/
2416:.\BLEApplication.c **** void UartBuadRate_Handler(uint8_t idx)
2417:.\BLEApplication.c **** {
 1483              		.loc 1 2417 0
 1484              		.cfi_startproc
 1485              	.LVL183:
 1486 0000 70B5     		push	{r4, r5, r6, lr}
 1487              		.cfi_def_cfa_offset 16
 1488              		.cfi_offset 4, -16
 1489              		.cfi_offset 5, -12
 1490              		.cfi_offset 6, -8
 1491              		.cfi_offset 14, -4
 1492              		.loc 1 2417 0
 1493 0002 041E     		sub	r4, r0, #0
2418:.\BLEApplication.c ****     switch(idx)
 1494              		.loc 1 2418 0
 1495 0004 362C     		cmp	r4, #54
 1496 0006 00D1     		bne	.LCB1368
 1497 0008 89E0     		b	.L134	@long jump
 1498              	.LCB1368:
 1499 000a 3628     		cmp	r0, #54
ARM GAS  C:\Users\Helon\AppData\Local\Temp\ccKCxrf8.s 			page 73


 1500 000c 1AD8     		bhi	.L135
 1501 000e 3228     		cmp	r0, #50
 1502 0010 4ED0     		beq	.L136
 1503 0012 0BD8     		bhi	.L137
 1504 0014 3028     		cmp	r0, #48
 1505 0016 2FD0     		beq	.L138
 1506 0018 3128     		cmp	r0, #49
 1507 001a 00D0     		beq	.LCB1378
 1508 001c A5E1     		b	.L132	@long jump
 1509              	.LCB1378:
2419:.\BLEApplication.c ****     {
2420:.\BLEApplication.c **** //                1200
2421:.\BLEApplication.c ****         case '0':                     
2422:.\BLEApplication.c ****              printf("AT+BAUD=<1200>\r\n");
2423:.\BLEApplication.c ****              printf("OK\r\n");
2424:.\BLEApplication.c ****              while((UART_SpiUartGetTxBufferSize() + UART_GET_TX_FIFO_SR_VALID) != 0);//Á≠âÂæÖ‰∏≤Âè£
2425:.\BLEApplication.c ****              SetUartConfiguration(BAUD_1200);
2426:.\BLEApplication.c ****              Baud_rate_idx=idx;
2427:.\BLEApplication.c ****         break;
2428:.\BLEApplication.c **** //                2400
2429:.\BLEApplication.c ****         case '1':
2430:.\BLEApplication.c ****              printf("AT+BAUD=<2400>\r\n");
 1510              		.loc 1 2430 0
 1511 001e B548     		ldr	r0, .L201
 1512              	.LVL184:
 1513 0020 FFF7FEFF 		bl	puts
 1514              	.LVL185:
2431:.\BLEApplication.c ****              printf("OK\r\n");
 1515              		.loc 1 2431 0
 1516 0024 B448     		ldr	r0, .L201+4
 1517 0026 FFF7FEFF 		bl	puts
 1518              	.LVL186:
2432:.\BLEApplication.c ****              while((UART_SpiUartGetTxBufferSize() + UART_GET_TX_FIFO_SR_VALID) != 0);//Á≠âÂæÖ‰∏≤Âè£
 1519              		.loc 1 2432 0
 1520 002a 35E0     		b	.L150
 1521              	.LVL187:
 1522              	.L137:
 1523 002c B24E     		ldr	r6, .L201+4
 1524 002e B34D     		ldr	r5, .L201+8
2418:.\BLEApplication.c ****     {
 1525              		.loc 1 2418 0
 1526 0030 3428     		cmp	r0, #52
 1527 0032 56D0     		beq	.L140
 1528 0034 64D8     		bhi	.L200
2433:.\BLEApplication.c ****              SetUartConfiguration(BAUD_2400);
2434:.\BLEApplication.c ****              Baud_rate_idx=idx;
2435:.\BLEApplication.c ****         break;
2436:.\BLEApplication.c **** //                4800
2437:.\BLEApplication.c ****         case '2':
2438:.\BLEApplication.c ****              printf("AT+BAUD=<4800>\r\n");
2439:.\BLEApplication.c ****              printf("OK\r\n");
2440:.\BLEApplication.c ****              while((UART_SpiUartGetTxBufferSize() + UART_GET_TX_FIFO_SR_VALID) != 0);//Á≠âÂæÖ‰∏≤Âè£
2441:.\BLEApplication.c ****              SetUartConfiguration(BAUD_4800);
2442:.\BLEApplication.c ****              Baud_rate_idx=idx;
2443:.\BLEApplication.c ****         break;
2444:.\BLEApplication.c **** //                9600
2445:.\BLEApplication.c ****         case '3':
ARM GAS  C:\Users\Helon\AppData\Local\Temp\ccKCxrf8.s 			page 74


2446:.\BLEApplication.c ****              printf("AT+BAUD=<9600>\r\n");
 1529              		.loc 1 2446 0
 1530 0036 B248     		ldr	r0, .L201+12
 1531              	.LVL188:
 1532 0038 FFF7FEFF 		bl	puts
 1533              	.LVL189:
2447:.\BLEApplication.c ****              printf("OK\r\n");
 1534              		.loc 1 2447 0
 1535 003c 301C     		mov	r0, r6
 1536 003e FFF7FEFF 		bl	puts
 1537              	.LVL190:
2448:.\BLEApplication.c ****              while((UART_SpiUartGetTxBufferSize() + UART_GET_TX_FIFO_SR_VALID) != 0);//Á≠âÂæÖ‰∏≤Âè£
 1538              		.loc 1 2448 0
 1539 0042 45E0     		b	.L152
 1540              	.LVL191:
 1541              	.L135:
2418:.\BLEApplication.c ****     {
 1542              		.loc 1 2418 0
 1543 0044 3928     		cmp	r0, #57
 1544 0046 00D1     		bne	.LCB1410
 1545 0048 93E0     		b	.L143	@long jump
 1546              	.LCB1410:
 1547 004a 0BD8     		bhi	.L144
 1548 004c 3728     		cmp	r0, #55
 1549 004e 76D0     		beq	.L145
 1550 0050 3828     		cmp	r0, #56
 1551 0052 00D0     		beq	.LCB1416
 1552 0054 89E1     		b	.L132	@long jump
 1553              	.LCB1416:
2449:.\BLEApplication.c ****              SetUartConfiguration(BAUD_9600);
2450:.\BLEApplication.c ****              Baud_rate_idx=idx;
2451:.\BLEApplication.c ****         break;
2452:.\BLEApplication.c ****         case '4':
2453:.\BLEApplication.c ****              printf("AT+BAUD=<19200>\r\n");
2454:.\BLEApplication.c ****              printf("OK\r\n");
2455:.\BLEApplication.c ****              while((UART_SpiUartGetTxBufferSize() + UART_GET_TX_FIFO_SR_VALID) != 0);//Á≠âÂæÖ‰∏≤Âè£
2456:.\BLEApplication.c ****              SetUartConfiguration(BAUD_19200);
2457:.\BLEApplication.c ****              Baud_rate_idx=idx;
2458:.\BLEApplication.c ****         break;
2459:.\BLEApplication.c ****         case '5':
2460:.\BLEApplication.c ****              printf("AT+BAUD=<38400>\r\n");
2461:.\BLEApplication.c ****              printf("OK\r\n");
2462:.\BLEApplication.c ****              while((UART_SpiUartGetTxBufferSize() + UART_GET_TX_FIFO_SR_VALID) != 0);//Á≠âÂæÖ‰∏≤Âè£
2463:.\BLEApplication.c ****              SetUartConfiguration(BAUD_38400);
2464:.\BLEApplication.c ****              Baud_rate_idx=idx;
2465:.\BLEApplication.c ****         break;
2466:.\BLEApplication.c **** //                57600
2467:.\BLEApplication.c ****         case '6':
2468:.\BLEApplication.c ****              printf("AT+BAUD=<57600>\r\n");
2469:.\BLEApplication.c ****              printf("OK\r\n");
2470:.\BLEApplication.c ****              while((UART_SpiUartGetTxBufferSize() + UART_GET_TX_FIFO_SR_VALID) != 0);//Á≠âÂæÖ‰∏≤Âè£
2471:.\BLEApplication.c ****              SetUartConfiguration(BAUD_57600);
2472:.\BLEApplication.c ****              Baud_rate_idx=idx;
2473:.\BLEApplication.c ****         break;
2474:.\BLEApplication.c ****         case '7':
2475:.\BLEApplication.c ****              printf("AT+BAUD=<115200>\r\n");
2476:.\BLEApplication.c ****              printf("OK\r\n");
ARM GAS  C:\Users\Helon\AppData\Local\Temp\ccKCxrf8.s 			page 75


2477:.\BLEApplication.c ****              while((UART_SpiUartGetTxBufferSize() + UART_GET_TX_FIFO_SR_VALID) != 0);//Á≠âÂæÖ‰∏≤Âè£
2478:.\BLEApplication.c ****              SetUartConfiguration(BAUD_115200);
2479:.\BLEApplication.c ****              Baud_rate_idx=idx;
2480:.\BLEApplication.c ****         break;
2481:.\BLEApplication.c ****         case '8':
2482:.\BLEApplication.c ****              printf("AT+BAUD=<230400>\r\n");
 1554              		.loc 1 2482 0
 1555 0056 AB48     		ldr	r0, .L201+16
 1556              	.LVL192:
 1557 0058 FFF7FEFF 		bl	puts
 1558              	.LVL193:
2483:.\BLEApplication.c ****              printf("OK\r\n");
 1559              		.loc 1 2483 0
 1560 005c A648     		ldr	r0, .L201+4
 1561 005e FFF7FEFF 		bl	puts
 1562              	.LVL194:
2484:.\BLEApplication.c ****              while((UART_SpiUartGetTxBufferSize() + UART_GET_TX_FIFO_SR_VALID) != 0);//Á≠âÂæÖ‰∏≤Âè£
 1563              		.loc 1 2484 0
 1564 0062 7CE0     		b	.L157
 1565              	.LVL195:
 1566              	.L144:
2418:.\BLEApplication.c ****     {
 1567              		.loc 1 2418 0
 1568 0064 4128     		cmp	r0, #65
 1569 0066 00D1     		bne	.LCB1430
 1570 0068 93E0     		b	.L147	@long jump
 1571              	.LCB1430:
 1572 006a 6128     		cmp	r0, #97
 1573 006c 00D1     		bne	.LCB1432
 1574 006e 90E0     		b	.L147	@long jump
 1575              	.LCB1432:
 1576 0070 3F28     		cmp	r0, #63
 1577 0072 00D1     		bne	.LCB1434
 1578 0074 9EE0     		b	.L148	@long jump
 1579              	.LCB1434:
 1580 0076 78E1     		b	.L132
 1581              	.L138:
2422:.\BLEApplication.c ****              printf("OK\r\n");
 1582              		.loc 1 2422 0
 1583 0078 A348     		ldr	r0, .L201+20
 1584              	.LVL196:
 1585 007a FFF7FEFF 		bl	puts
 1586              	.LVL197:
2423:.\BLEApplication.c ****              while((UART_SpiUartGetTxBufferSize() + UART_GET_TX_FIFO_SR_VALID) != 0);//Á≠âÂæÖ‰∏≤Âè£
 1587              		.loc 1 2423 0
 1588 007e 9E48     		ldr	r0, .L201+4
 1589 0080 FFF7FEFF 		bl	puts
 1590              	.LVL198:
 1591              	.L149:
2424:.\BLEApplication.c ****              SetUartConfiguration(BAUD_1200);
 1592              		.loc 1 2424 0 discriminator 5
 1593 0084 FFF7FEFF 		bl	UART_SpiUartGetTxBufferSize
 1594              	.LVL199:
 1595 0088 9C4B     		ldr	r3, .L201+8
 1596 008a 1B68     		ldr	r3, [r3]
 1597 008c 1B04     		lsl	r3, r3, #16
 1598 008e DB17     		asr	r3, r3, #31
ARM GAS  C:\Users\Helon\AppData\Local\Temp\ccKCxrf8.s 			page 76


 1599 0090 8342     		cmp	r3, r0
 1600 0092 F7D1     		bne	.L149
 1601              	.LVL200:
2426:.\BLEApplication.c ****         break;
 1602              		.loc 1 2426 0
 1603 0094 3022     		mov	r2, #48
 1604 0096 08E0     		b	.L199
 1605              	.LVL201:
 1606              	.L150:
2432:.\BLEApplication.c ****              SetUartConfiguration(BAUD_2400);
 1607              		.loc 1 2432 0 discriminator 5
 1608 0098 FFF7FEFF 		bl	UART_SpiUartGetTxBufferSize
 1609              	.LVL202:
 1610 009c 974B     		ldr	r3, .L201+8
 1611 009e 1B68     		ldr	r3, [r3]
 1612 00a0 1B04     		lsl	r3, r3, #16
 1613 00a2 DB17     		asr	r3, r3, #31
 1614 00a4 8342     		cmp	r3, r0
 1615 00a6 F7D1     		bne	.L150
 1616              	.LVL203:
2434:.\BLEApplication.c ****         break;
 1617              		.loc 1 2434 0
 1618 00a8 3122     		mov	r2, #49
 1619              	.LVL204:
 1620              	.L199:
 1621 00aa 984B     		ldr	r3, .L201+24
 1622 00ac 1A71     		strb	r2, [r3, #4]
2435:.\BLEApplication.c **** //                4800
 1623              		.loc 1 2435 0
 1624 00ae 5CE1     		b	.L132
 1625              	.LVL205:
 1626              	.L136:
2438:.\BLEApplication.c ****              printf("OK\r\n");
 1627              		.loc 1 2438 0
 1628 00b0 9748     		ldr	r0, .L201+28
 1629              	.LVL206:
 1630 00b2 FFF7FEFF 		bl	puts
 1631              	.LVL207:
2439:.\BLEApplication.c ****              while((UART_SpiUartGetTxBufferSize() + UART_GET_TX_FIFO_SR_VALID) != 0);//Á≠âÂæÖ‰∏≤Âè£
 1632              		.loc 1 2439 0
 1633 00b6 9048     		ldr	r0, .L201+4
 1634 00b8 FFF7FEFF 		bl	puts
 1635              	.LVL208:
 1636              	.L151:
2440:.\BLEApplication.c ****              SetUartConfiguration(BAUD_4800);
 1637              		.loc 1 2440 0 discriminator 5
 1638 00bc FFF7FEFF 		bl	UART_SpiUartGetTxBufferSize
 1639              	.LVL209:
 1640 00c0 8E4B     		ldr	r3, .L201+8
 1641 00c2 1B68     		ldr	r3, [r3]
 1642 00c4 1B04     		lsl	r3, r3, #16
 1643 00c6 DB17     		asr	r3, r3, #31
 1644 00c8 8342     		cmp	r3, r0
 1645 00ca F7D1     		bne	.L151
 1646              	.LVL210:
2442:.\BLEApplication.c ****         break;
 1647              		.loc 1 2442 0
ARM GAS  C:\Users\Helon\AppData\Local\Temp\ccKCxrf8.s 			page 77


 1648 00cc 3222     		mov	r2, #50
 1649 00ce ECE7     		b	.L199
 1650              	.LVL211:
 1651              	.L152:
2448:.\BLEApplication.c ****              SetUartConfiguration(BAUD_9600);
 1652              		.loc 1 2448 0 discriminator 5
 1653 00d0 FFF7FEFF 		bl	UART_SpiUartGetTxBufferSize
 1654              	.LVL212:
 1655 00d4 2B68     		ldr	r3, [r5]
 1656 00d6 1B04     		lsl	r3, r3, #16
 1657 00d8 DB17     		asr	r3, r3, #31
 1658 00da 8342     		cmp	r3, r0
 1659 00dc F8D1     		bne	.L152
 1660              	.LVL213:
