ARM GAS  C:\Users\Helon\AppData\Local\Temp\ccaispqn.s 			page 1


   1              		.cpu cortex-m0
   2              		.fpu softvfp
   3              		.eabi_attribute 20, 1
   4              		.eabi_attribute 21, 1
   5              		.eabi_attribute 23, 3
   6              		.eabi_attribute 24, 1
   7              		.eabi_attribute 25, 1
   8              		.eabi_attribute 26, 1
   9              		.eabi_attribute 30, 4
  10              		.eabi_attribute 34, 0
  11              		.eabi_attribute 18, 4
  12              		.code	16
  13              		.file	"BLEClient.c"
  14              		.text
  15              	.Ltext0:
  16              		.cfi_sections	.debug_frame
  17              		.section	.text.Parser_adv_data_scan_data,"ax",%progbits
  18              		.align	1
  19              		.global	Parser_adv_data_scan_data
  20              		.code	16
  21              		.thumb_func
  22              		.type	Parser_adv_data_scan_data, %function
  23              	Parser_adv_data_scan_data:
  24              	.LFB38:
  25              		.file 1 ".\\BLEClient.c"
   1:.\BLEClient.c **** /* ========================================
   2:.\BLEClient.c ****  *
   3:.\BLEClient.c ****  * Copyright YOUR COMPANY, THE YEAR
   4:.\BLEClient.c ****  * All Rights Reserved
   5:.\BLEClient.c ****  * UNPUBLISHED, LICENSED SOFTWARE.
   6:.\BLEClient.c ****  *
   7:.\BLEClient.c ****  * CONFIDENTIAL AND PROPRIETARY INFORMATION
   8:.\BLEClient.c ****  * WHICH IS THE PROPERTY OF your company.
   9:.\BLEClient.c ****  *
  10:.\BLEClient.c ****  * ========================================
  11:.\BLEClient.c **** */
  12:.\BLEClient.c **** #include <project.h> 
  13:.\BLEClient.c **** #include "BLEClient.h"
  14:.\BLEClient.c **** #include <stdio.h>
  15:.\BLEClient.c **** /***************************************
  16:.\BLEClient.c **** * ÂÖ®Â±ÄÂèòÈáè
  17:.\BLEClient.c **** ***************************************/
  18:.\BLEClient.c **** //uint8_t StartScan=FALSE;
  19:.\BLEClient.c **** //uint8_t DeviceList[DeviceListCount]={0};
  20:.\BLEClient.c **** CYBLE_DEVICE_INFO DeviceInfo[DeviceListCount];
  21:.\BLEClient.c **** //  ËÆ°Êï∞Êâ´ÊèèÂà∞ÁöÑBLEËÆæÂ§á
  22:.\BLEClient.c **** uint8_t DeviceCount=0;
  23:.\BLEClient.c **** uint8_t flag=0;
  24:.\BLEClient.c **** /******************************************************************************
  25:.\BLEClient.c **** * Function Name: HandleScanDevices
  26:.\BLEClient.c **** ***************************************************************************//**
  27:.\BLEClient.c **** * 
  28:.\BLEClient.c **** *  Â§ÑÁêÜÊâ´ÊèèÂà∞ÁöÑÂë®ËæπBLEËÆæÂ§á
  29:.\BLEClient.c **** * 
  30:.\BLEClient.c **** * \return
  31:.\BLEClient.c **** *  None
  32:.\BLEClient.c **** * 
ARM GAS  C:\Users\Helon\AppData\Local\Temp\ccaispqn.s 			page 2


  33:.\BLEClient.c **** ******************************************************************************/
  34:.\BLEClient.c **** void HandleScanDevices(CYBLE_GAPC_ADV_REPORT_T* ScanReport)
  35:.\BLEClient.c **** {
  36:.\BLEClient.c **** //    printf("Advertising or Scan Response Data is 0x%02X%02X%02X%02X%02X%02X\r\n",
  37:.\BLEClient.c **** //            );
  38:.\BLEClient.c ****     uint8_t i=0;
  39:.\BLEClient.c **** //    Á¨¨‰∏ÄÊ¨°Êâ´ÊèèÊó∂,‰øùÂ≠òÁ¨¨‰∏ÄÊ¨°Êâ´ÊèèÂà∞ÁöÑËÆæÂ§áÂú∞ÂùÄ
  40:.\BLEClient.c ****     if(flag^1)
  41:.\BLEClient.c ****     {           
  42:.\BLEClient.c ****         flag=1;   
  43:.\BLEClient.c ****         if(CYBLE_GAPC_CONN_UNDIRECTED_ADV==ScanReport->eventType)   
  44:.\BLEClient.c ****         {
  45:.\BLEClient.c ****             DeviceCount++;
  46:.\BLEClient.c ****             memcpy(DeviceInfo[DeviceCount-1].DeviceList.bdAddr,ScanReport->peerBdAddr,6);
  47:.\BLEClient.c ****             if(CYBLE_GAP_ADDR_TYPE_PUBLIC==ScanReport->peerAddrType)
  48:.\BLEClient.c ****             {
  49:.\BLEClient.c ****                 DeviceInfo[DeviceCount-1].DeviceList.type=CYBLE_GAP_ADDR_TYPE_PUBLIC;
  50:.\BLEClient.c **** //                DeviceInfo[DeviceCount-1].DeviceList.type='P';
  51:.\BLEClient.c ****             }
  52:.\BLEClient.c ****             else
  53:.\BLEClient.c ****             {
  54:.\BLEClient.c ****                 DeviceInfo[DeviceCount-1].DeviceList.type=CYBLE_GAP_ADDR_TYPE_RANDOM;
  55:.\BLEClient.c **** //                DeviceInfo[DeviceCount-1].DeviceList.type='R';
  56:.\BLEClient.c ****             }
  57:.\BLEClient.c ****             DeviceInfo[DeviceCount-1].idx=DeviceCount;
  58:.\BLEClient.c ****             DeviceInfo[DeviceCount-1].rssi=ScanReport->rssi;
  59:.\BLEClient.c ****             memcpy(DeviceInfo[DeviceCount-1].DeviceList.bdAddr,ScanReport->peerBdAddr,6);
  60:.\BLEClient.c ****             Parser_adv_data_scan_data(ScanReport->data,ScanReport->dataLen);
  61:.\BLEClient.c ****             if(DeviceInfo[DeviceCount-1].ScanName)
  62:.\BLEClient.c ****             {
  63:.\BLEClient.c ****                 DeviceInfo[DeviceCount-1].ScanName=FALSE;
  64:.\BLEClient.c ****             }
  65:.\BLEClient.c ****             else
  66:.\BLEClient.c ****             {
  67:.\BLEClient.c ****                 memset(DeviceInfo[DeviceCount-1].DeviceName,0,sizeof(DeviceInfo[DeviceCount-1].Devi
  68:.\BLEClient.c ****                 memcpy(DeviceInfo[DeviceCount-1].DeviceName,"NULL",sizeof("NULL"));
  69:.\BLEClient.c ****             }
  70:.\BLEClient.c ****             printf("+SCAN=%d,%d,%c,%02X%02X%02X%02X%02X%02X,%s\r\n",
  71:.\BLEClient.c ****                     DeviceInfo[DeviceCount-1].idx,
  72:.\BLEClient.c ****                     DeviceInfo[DeviceCount-1].rssi,
  73:.\BLEClient.c ****                     PUBLIC_OR_RANDOM(DeviceInfo[DeviceCount-1].DeviceList.type),
  74:.\BLEClient.c ****                     DeviceInfo[DeviceCount-1].DeviceList.bdAddr[5],
  75:.\BLEClient.c ****                     DeviceInfo[DeviceCount-1].DeviceList.bdAddr[4],
  76:.\BLEClient.c ****                     DeviceInfo[DeviceCount-1].DeviceList.bdAddr[3],
  77:.\BLEClient.c ****                     DeviceInfo[DeviceCount-1].DeviceList.bdAddr[2],
  78:.\BLEClient.c ****                     DeviceInfo[DeviceCount-1].DeviceList.bdAddr[1],
  79:.\BLEClient.c ****                     DeviceInfo[DeviceCount-1].DeviceList.bdAddr[0],
  80:.\BLEClient.c ****                     DeviceInfo[DeviceCount-1].DeviceName
  81:.\BLEClient.c ****                     
  82:.\BLEClient.c ****                   );
  83:.\BLEClient.c ****             while((UART_SpiUartGetTxBufferSize() + UART_GET_TX_FIFO_SR_VALID) != 0);//Á≠âÂæÖ‰∏≤Âè£Á
  84:.\BLEClient.c ****             return;
  85:.\BLEClient.c ****         }
  86:.\BLEClient.c ****         
  87:.\BLEClient.c ****         
  88:.\BLEClient.c ****     }
  89:.\BLEClient.c **** //    Âæ™ÁéØÊØîËæÉÊâ´ÊèèÂà∞ÁöÑÂú∞ÂùÄÊòØ‰∏çÊòØ‰πãÂâçÊâ´ÊèèËøáÁöÑ,Â¶ÇÊûúÊúâ‰πãÂâçÊâ´ÊèèËøáÁöÑÂú∞ÂùÄÔº
ARM GAS  C:\Users\Helon\AppData\Local\Temp\ccaispqn.s 			page 3


  90:.\BLEClient.c ****     for(i=0;i<DeviceCount;i++)
  91:.\BLEClient.c ****     {        
  92:.\BLEClient.c ****         if(memcmp(ScanReport->peerBdAddr,DeviceInfo[i].DeviceList.bdAddr,6)==0)
  93:.\BLEClient.c ****         {
  94:.\BLEClient.c **** //            NewAddr=0;
  95:.\BLEClient.c ****             return;
  96:.\BLEClient.c ****         }
  97:.\BLEClient.c ****     }
  98:.\BLEClient.c ****     DeviceCount++;
  99:.\BLEClient.c ****     memcpy(DeviceInfo[DeviceCount-1].DeviceList.bdAddr,ScanReport->peerBdAddr,6);
 100:.\BLEClient.c ****     if(CYBLE_GAP_ADDR_TYPE_PUBLIC==ScanReport->peerAddrType)
 101:.\BLEClient.c ****     {
 102:.\BLEClient.c ****         DeviceInfo[DeviceCount-1].DeviceList.type=CYBLE_GAP_ADDR_TYPE_PUBLIC;
 103:.\BLEClient.c **** //        DeviceInfo[DeviceCount-1].DeviceList.type='P';
 104:.\BLEClient.c ****     }
 105:.\BLEClient.c ****     else
 106:.\BLEClient.c ****     {
 107:.\BLEClient.c ****         DeviceInfo[DeviceCount-1].DeviceList.type=CYBLE_GAP_ADDR_TYPE_RANDOM;
 108:.\BLEClient.c **** //        DeviceInfo[DeviceCount-1].DeviceList.type='R';
 109:.\BLEClient.c ****     }
 110:.\BLEClient.c ****     DeviceInfo[DeviceCount-1].idx=DeviceCount;        
 111:.\BLEClient.c ****     if(CYBLE_GAPC_CONN_UNDIRECTED_ADV==ScanReport->eventType)   
 112:.\BLEClient.c ****     {
 113:.\BLEClient.c ****         DeviceInfo[DeviceCount-1].rssi=ScanReport->rssi;
 114:.\BLEClient.c ****         Parser_adv_data_scan_data(ScanReport->data,ScanReport->dataLen);
 115:.\BLEClient.c ****         if(DeviceInfo[DeviceCount-1].ScanName)
 116:.\BLEClient.c ****             {
 117:.\BLEClient.c ****                 DeviceInfo[DeviceCount-1].ScanName=FALSE;
 118:.\BLEClient.c ****             }
 119:.\BLEClient.c ****             else
 120:.\BLEClient.c ****             {
 121:.\BLEClient.c ****                 memset(DeviceInfo[DeviceCount-1].DeviceName,0,sizeof(DeviceInfo[DeviceCount-1].Devi
 122:.\BLEClient.c ****                 memcpy(DeviceInfo[DeviceCount-1].DeviceName,"NULL",sizeof("NULL"));
 123:.\BLEClient.c ****             }
 124:.\BLEClient.c ****             printf("+SCAN=%d,%d,%c,%02X%02X%02X%02X%02X%02X,%s\r\n",
 125:.\BLEClient.c ****                     DeviceInfo[DeviceCount-1].idx,
 126:.\BLEClient.c ****                     DeviceInfo[DeviceCount-1].rssi,
 127:.\BLEClient.c ****                     PUBLIC_OR_RANDOM(DeviceInfo[DeviceCount-1].DeviceList.type),
 128:.\BLEClient.c ****                     DeviceInfo[DeviceCount-1].DeviceList.bdAddr[5],
 129:.\BLEClient.c ****                     DeviceInfo[DeviceCount-1].DeviceList.bdAddr[4],
 130:.\BLEClient.c ****                     DeviceInfo[DeviceCount-1].DeviceList.bdAddr[3],
 131:.\BLEClient.c ****                     DeviceInfo[DeviceCount-1].DeviceList.bdAddr[2],
 132:.\BLEClient.c ****                     DeviceInfo[DeviceCount-1].DeviceList.bdAddr[1],
 133:.\BLEClient.c ****                     DeviceInfo[DeviceCount-1].DeviceList.bdAddr[0],
 134:.\BLEClient.c ****                     DeviceInfo[DeviceCount-1].DeviceName
 135:.\BLEClient.c ****                     
 136:.\BLEClient.c ****                   );
 137:.\BLEClient.c ****             while((UART_SpiUartGetTxBufferSize() + UART_GET_TX_FIFO_SR_VALID) != 0);//Á≠âÂæÖ‰∏≤Âè£Á
 138:.\BLEClient.c ****     }
 139:.\BLEClient.c ****     
 140:.\BLEClient.c **** }
 141:.\BLEClient.c **** 
 142:.\BLEClient.c **** /******************************************************************************
 143:.\BLEClient.c **** * Function Name: Parser_adv_data_scan_data
 144:.\BLEClient.c **** ***************************************************************************//**
 145:.\BLEClient.c **** * 
 146:.\BLEClient.c **** *  Ëß£ÊûêÁ©∫‰∏≠ÂπøÊí≠Êï∞ÊçÆÊàñËÄÖÊâ´ÊèèÂìçÂ∫îÊï∞ÊçÆ
ARM GAS  C:\Users\Helon\AppData\Local\Temp\ccaispqn.s 			page 4


 147:.\BLEClient.c **** * \param  pdata:ÊåáÂêëÁ©∫‰∏≠ÂπøÊí≠Êï∞ÊçÆÊàñËÄÖÊâ´ÊèèÂìçÂ∫îÊï∞ÊçÆÁöÑÊåáÈíà
 148:.\BLEClient.c **** * \param  total_len:Á©∫‰∏≠ÂπøÊí≠Êï∞ÊçÆÊàñËÄÖÊâ´ÊèèÂìçÂ∫îÊï∞ÊçÆÁöÑÈïøÂ∫¶
 149:.\BLEClient.c **** * \return
 150:.\BLEClient.c **** *  None
 151:.\BLEClient.c **** * 
 152:.\BLEClient.c **** ******************************************************************************/
 153:.\BLEClient.c **** void Parser_adv_data_scan_data(uint8_t *pdata, uint8_t total_len)
 154:.\BLEClient.c **** {
  26              		.loc 1 154 0
  27              		.cfi_startproc
  28              	.LVL0:
  29 0000 F7B5     		push	{r0, r1, r2, r4, r5, r6, r7, lr}
  30              		.cfi_def_cfa_offset 32
  31              		.cfi_offset 0, -32
  32              		.cfi_offset 1, -28
  33              		.cfi_offset 2, -24
  34              		.cfi_offset 4, -20
  35              		.cfi_offset 5, -16
  36              		.cfi_offset 6, -12
  37              		.cfi_offset 7, -8
  38              		.cfi_offset 14, -4
 155:.\BLEClient.c ****     uint8_t* pend=pdata+total_len;
  39              		.loc 1 155 0
  40 0002 4318     		add	r3, r0, r1
  41 0004 0193     		str	r3, [sp, #4]
  42              	.LVL1:
 156:.\BLEClient.c ****     uint8_t length=0;
  43              		.loc 1 156 0
  44 0006 0023     		mov	r3, #0
  45              	.LVL2:
 157:.\BLEClient.c ****     uint8_t i,ServiceCount;
 158:.\BLEClient.c ****     pdata++;
  46              		.loc 1 158 0
  47 0008 441C     		add	r4, r0, #1
  48              	.LVL3:
  49              	.L2:
 159:.\BLEClient.c ****     while(pend>pdata)
  50              		.loc 1 159 0
  51 000a 019A     		ldr	r2, [sp, #4]
  52 000c A242     		cmp	r2, r4
  53 000e 40D9     		bls	.L15
 160:.\BLEClient.c ****     {
 161:.\BLEClient.c **** //      pdata-1Ë°®Á§∫ÁöÑÊòØÂØπÂ∫îÂÜÖÂÆπÁöÑÈïøÂ∫¶Ôºåpdata+1Ë°®Á§∫ÁöÑÊòØÂØπÂ∫îÁöÑÂÜÖÂÆπ
 162:.\BLEClient.c ****         switch(*pdata)
  54              		.loc 1 162 0
  55 0010 2078     		ldrb	r0, [r4]
  56 0012 0138     		sub	r0, r0, #1
  57 0014 0928     		cmp	r0, #9
  58 0016 3AD8     		bhi	.L3
  59 0018 FFF7FEFF 		bl	__gnu_thumb1_case_uqi
  60              	.L5:
  61 001c 35       		.byte	(.L10-.L5)/2
  62 001d 35       		.byte	(.L10-.L5)/2
  63 001e 35       		.byte	(.L10-.L5)/2
  64 001f 39       		.byte	(.L3-.L5)/2
  65 0020 39       		.byte	(.L3-.L5)/2
  66 0021 39       		.byte	(.L3-.L5)/2
ARM GAS  C:\Users\Helon\AppData\Local\Temp\ccaispqn.s 			page 5


  67 0022 39       		.byte	(.L3-.L5)/2
  68 0023 05       		.byte	(.L8-.L5)/2
  69 0024 1B       		.byte	(.L9-.L5)/2
  70 0025 35       		.byte	(.L10-.L5)/2
  71              		.p2align 1
  72              	.L8:
 163:.\BLEClient.c ****         {
 164:.\BLEClient.c ****             case CYBLE_GAP_ADV_FLAGS:
 165:.\BLEClient.c **** //                printf("Flags is %d\r\n",*(pdata+1));
 166:.\BLEClient.c ****                 length=1+*(pdata-1);
 167:.\BLEClient.c ****             break;
 168:.\BLEClient.c ****             //ÊØîÂ¶ÇÊúâÂá†‰∏™ÊúçÂä°ÔºåÈÇ£‰πàÂ∞±ÊúâÂá†‰∏™ÊúçÂä°ÁöÑUUIDÔºå
 169:.\BLEClient.c ****             //ÂπøÊí≠‰∏≠Âè™Ë¶ÅÊ≤°ÊúâÊääÂÖ®ÈÉ®ÁöÑÊúçÂä°UUIDÔºåÂ∞±ÊòØCYBLE_GAP_ADV_INCOMPL_16UUID
 170:.\BLEClient.c ****             case CYBLE_GAP_ADV_INCOMPL_16UUID:
 171:.\BLEClient.c **** //          ÊúçÂä°IDÁöÑÊï∞Èáè
 172:.\BLEClient.c ****                 ServiceCount=(*(pdata-1)-1)/2;
 173:.\BLEClient.c ****                 for(i=0;i<ServiceCount;i++)
 174:.\BLEClient.c ****                 {                
 175:.\BLEClient.c ****                     switch(i)
 176:.\BLEClient.c ****                     {
 177:.\BLEClient.c ****                         case 0:
 178:.\BLEClient.c **** //                            printf("Service1 ID is: 0x%02X%02X\r\n",*(pdata+i+2),*(pdata+i+1));
 179:.\BLEClient.c ****                         break;                       
 180:.\BLEClient.c ****                         case 1:
 181:.\BLEClient.c **** //                            printf("Service2 ID is: 0x%02X%02X\r\n",*(pdata+i+3),*(pdata+i+2));
 182:.\BLEClient.c ****                         break;                    
 183:.\BLEClient.c ****                         case 2:
 184:.\BLEClient.c **** //                            printf("Service3 ID is: 0x%02X%02X\r\n",*(pdata+i+4),*(pdata+i+3));
 185:.\BLEClient.c ****                         break;
 186:.\BLEClient.c ****                         case 3:
 187:.\BLEClient.c **** //                            printf("Service4 ID is: 0x%02X%02X\r\n",*(pdata+i+5),*(pdata+i+4));
 188:.\BLEClient.c ****                         break;
 189:.\BLEClient.c ****                         case 4:
 190:.\BLEClient.c **** //                            printf("Service5 ID is: 0x%02X%02X\r\n",*(pdata+i+6),*(pdata+i+5));
 191:.\BLEClient.c ****                         break;
 192:.\BLEClient.c ****                         case 5:
 193:.\BLEClient.c **** //                            printf("Service6 ID is: 0x%02X%02X\r\n",*(pdata+i+7),*(pdata+i+6));
 194:.\BLEClient.c ****                         break;
 195:.\BLEClient.c ****                         case 6:
 196:.\BLEClient.c **** //                            printf("Service7 ID is: 0x%02X%02X\r\n",*(pdata+i+8),*(pdata+i+7));
 197:.\BLEClient.c ****                         break;
 198:.\BLEClient.c ****                         case 7:
 199:.\BLEClient.c **** //                            printf("Service8 ID is: 0x%02X%02X\r\n",*(pdata+i+9),*(pdata+i+8));
 200:.\BLEClient.c ****                         break;
 201:.\BLEClient.c ****                         case 8:
 202:.\BLEClient.c **** //                            printf("Service9 ID is: 0x%02X%02X\r\n",*(pdata+i+10),*(pdata+i+9));
 203:.\BLEClient.c ****                         break;
 204:.\BLEClient.c ****                         case 9:
 205:.\BLEClient.c **** //                            printf("Service10 ID is: 0x%02X%02X\r\n",*(pdata+i+11),*(pdata+i+10))
 206:.\BLEClient.c ****                         break;
 207:.\BLEClient.c ****                         default:
 208:.\BLEClient.c ****                         break;
 209:.\BLEClient.c ****                     }
 210:.\BLEClient.c ****                 }
 211:.\BLEClient.c ****                 length=1+*(pdata-1);
 212:.\BLEClient.c ****             break;
 213:.\BLEClient.c ****             case CYBLE_GAP_ADV_COMPL_16UUID:
ARM GAS  C:\Users\Helon\AppData\Local\Temp\ccaispqn.s 			page 6


 214:.\BLEClient.c ****                 ServiceCount=(*(pdata-1)-1)/2;
 215:.\BLEClient.c ****                 for(i=0;i<ServiceCount;i++)
 216:.\BLEClient.c ****                 {                
 217:.\BLEClient.c ****                     switch(i)
 218:.\BLEClient.c ****                     {
 219:.\BLEClient.c ****                         case 0:
 220:.\BLEClient.c **** //                            printf("Service1 ID is: 0x%02X%02X\r\n",*(pdata+i+2),*(pdata+i+1));
 221:.\BLEClient.c ****                         break;                       
 222:.\BLEClient.c ****                         case 1:
 223:.\BLEClient.c **** //                            printf("Service2 ID is: 0x%02X%02X\r\n",*(pdata+i+3),*(pdata+i+2));
 224:.\BLEClient.c ****                         break;                    
 225:.\BLEClient.c ****                         case 2:
 226:.\BLEClient.c **** //                            printf("Service3 ID is: 0x%02X%02X\r\n",*(pdata+i+4),*(pdata+i+3));
 227:.\BLEClient.c ****                         break;
 228:.\BLEClient.c ****                         case 3:
 229:.\BLEClient.c **** //                            printf("Service4 ID is: 0x%02X%02X\r\n",*(pdata+i+5),*(pdata+i+4));
 230:.\BLEClient.c ****                         break;
 231:.\BLEClient.c ****                         case 4:
 232:.\BLEClient.c **** //                            printf("Service5 ID is: 0x%02X%02X\r\n",*(pdata+i+6),*(pdata+i+5));
 233:.\BLEClient.c ****                         break;
 234:.\BLEClient.c ****                         case 5:
 235:.\BLEClient.c **** //                            printf("Service6 ID is: 0x%02X%02X\r\n",*(pdata+i+7),*(pdata+i+6));
 236:.\BLEClient.c ****                         break;
 237:.\BLEClient.c ****                         case 6:
 238:.\BLEClient.c **** //                            printf("Service7 ID is: 0x%02X%02X\r\n",*(pdata+i+8),*(pdata+i+7));
 239:.\BLEClient.c ****                         break;
 240:.\BLEClient.c ****                         case 7:
 241:.\BLEClient.c **** //                            printf("Service8 ID is: 0x%02X%02X\r\n",*(pdata+i+9),*(pdata+i+8));
 242:.\BLEClient.c ****                         break;
 243:.\BLEClient.c ****                         case 8:
 244:.\BLEClient.c **** //                            printf("Service9 ID is: 0x%02X%02X\r\n",*(pdata+i+10),*(pdata+i+9));
 245:.\BLEClient.c ****                         break;
 246:.\BLEClient.c ****                         case 9:
 247:.\BLEClient.c **** //                            printf("Service10 ID is: 0x%02X%02X\r\n",*(pdata+i+11),*(pdata+i+10))
 248:.\BLEClient.c ****                         break;
 249:.\BLEClient.c ****                         default:
 250:.\BLEClient.c ****                         break;
 251:.\BLEClient.c ****                     }
 252:.\BLEClient.c ****                 }
 253:.\BLEClient.c ****                 length=1+*(pdata-1);
 254:.\BLEClient.c ****             break;           
 255:.\BLEClient.c ****             case CYBLE_GAP_ADV_INCOMPL_32_UUID:
 256:.\BLEClient.c ****                 
 257:.\BLEClient.c ****             break;
 258:.\BLEClient.c ****             case CYBLE_GAP_ADV_COMPL_32_UUID:
 259:.\BLEClient.c ****             
 260:.\BLEClient.c ****             break;
 261:.\BLEClient.c ****             case CYBLE_GAP_ADV_INCOMPL_128_UUID:
 262:.\BLEClient.c ****             
 263:.\BLEClient.c ****             break;
 264:.\BLEClient.c ****             case CYBLE_GAP_ADV_COMPL_128_UUID:
 265:.\BLEClient.c ****             
 266:.\BLEClient.c ****             break;  
 267:.\BLEClient.c ****             case CYBLE_GAP_ADV_SHORT_NAME:
 268:.\BLEClient.c ****                 //ÊèêÂâçÂàùÂßãÂåñDeviceNameÊåáÈíàÁöÑÂâçÈù¢20‰∏™Byte
 269:.\BLEClient.c ****                 memset(DeviceInfo[DeviceCount-1].DeviceName,0,sizeof(DeviceInfo[DeviceCount-1].Devi
  73              		.loc 1 269 0
ARM GAS  C:\Users\Helon\AppData\Local\Temp\ccaispqn.s 			page 7


  74 0026 1B4B     		ldr	r3, .L16
  75              	.LVL4:
  76 0028 0021     		mov	r1, #0
  77 002a 1D78     		ldrb	r5, [r3]
  78 002c 1E23     		mov	r3, #30
  79 002e 013D     		sub	r5, r5, #1
  80 0030 5D43     		mul	r5, r3
  81 0032 194B     		ldr	r3, .L16+4
  82 0034 1422     		mov	r2, #20
  83 0036 5D19     		add	r5, r3, r5
  84 0038 0935     		add	r5, r5, #9
 270:.\BLEClient.c **** //                memcpy(DeviceName,(pdata+1),*(pdata-1)-1);
 271:.\BLEClient.c **** //                printf("Shortened Local Name is: %s\r\n",DeviceName);
 272:.\BLEClient.c **** //                printf("%s>\r\n",DeviceName);
 273:.\BLEClient.c ****                 memcpy(DeviceInfo[DeviceCount-1].DeviceName,(pdata+1),*(pdata-1)-1);
  85              		.loc 1 273 0
  86 003a 661E     		sub	r6, r4, #1
 269:.\BLEClient.c **** //                memcpy(DeviceName,(pdata+1),*(pdata-1)-1);
  87              		.loc 1 269 0
  88 003c 281C     		mov	r0, r5
  89 003e FFF7FEFF 		bl	memset
  90              	.LVL5:
  91              		.loc 1 273 0
  92 0042 3278     		ldrb	r2, [r6]
  93 0044 611C     		add	r1, r4, #1
  94 0046 013A     		sub	r2, r2, #1
  95 0048 281C     		mov	r0, r5
  96 004a FFF7FEFF 		bl	memcpy
  97              	.LVL6:
 274:.\BLEClient.c ****                 length=1+*(pdata-1);
  98              		.loc 1 274 0
  99 004e 3378     		ldrb	r3, [r6]
 100 0050 1BE0     		b	.L13
 101              	.LVL7:
 102              	.L9:
 275:.\BLEClient.c ****             break;
 276:.\BLEClient.c ****             case CYBLE_GAP_ADV_COMPL_NAME:
 277:.\BLEClient.c ****                 //ÊèêÂâçÂàùÂßãÂåñDeviceNameÊåáÈíàÁöÑÂâçÈù¢20‰∏™Byte
 278:.\BLEClient.c ****                 memset(DeviceInfo[DeviceCount-1].DeviceName,0,sizeof(DeviceInfo[DeviceCount-1].Devi
 103              		.loc 1 278 0
 104 0052 104B     		ldr	r3, .L16
 105              	.LVL8:
 106 0054 104F     		ldr	r7, .L16+4
 107 0056 1D78     		ldrb	r5, [r3]
 108 0058 1E23     		mov	r3, #30
 109 005a 013D     		sub	r5, r5, #1
 110 005c 5D43     		mul	r5, r3
 111 005e 7E19     		add	r6, r7, r5
 112 0060 0936     		add	r6, r6, #9
 113 0062 0021     		mov	r1, #0
 114 0064 1422     		mov	r2, #20
 115 0066 301C     		mov	r0, r6
 116 0068 FFF7FEFF 		bl	memset
 117              	.LVL9:
 279:.\BLEClient.c **** //                memcpy(DeviceName,(pdata+1),*(pdata-1)-1);
 280:.\BLEClient.c ****                 memcpy(DeviceInfo[DeviceCount-1].DeviceName,(pdata+1),*(pdata-1)-1);
 118              		.loc 1 280 0
ARM GAS  C:\Users\Helon\AppData\Local\Temp\ccaispqn.s 			page 8


 119 006c 631E     		sub	r3, r4, #1
 120 006e 1A78     		ldrb	r2, [r3]
 121 0070 611C     		add	r1, r4, #1
 122 0072 013A     		sub	r2, r2, #1
 123 0074 301C     		mov	r0, r6
 124 0076 0093     		str	r3, [sp]
 125 0078 FFF7FEFF 		bl	memcpy
 126              	.LVL10:
 281:.\BLEClient.c ****                 DeviceInfo[DeviceCount-1].ScanName=TRUE;
 127              		.loc 1 281 0
 128 007c 0123     		mov	r3, #1
 129 007e 7D19     		add	r5, r7, r5
 130 0080 6B77     		strb	r3, [r5, #29]
 282:.\BLEClient.c **** //                printf("Complete Local Name is: %s\r\n",DeviceInfo[DeviceCount-1].DeviceName);   
 283:.\BLEClient.c **** //                printf("%s>\r\n",DeviceName);
 284:.\BLEClient.c ****                 length=1+*(pdata-1);
 131              		.loc 1 284 0
 132 0082 009B     		ldr	r3, [sp]
 133 0084 00E0     		b	.L12
 134              	.LVL11:
 135              	.L10:
 285:.\BLEClient.c ****             break;
 286:.\BLEClient.c ****             case CYBLE_GAP_ADV_TX_PWR_LVL:
 287:.\BLEClient.c **** //                printf("Tx Power Level is: %ddbm\r\n",*(pdata+1));
 288:.\BLEClient.c ****                 length=1+*(pdata-1);
 136              		.loc 1 288 0
 137 0086 631E     		sub	r3, r4, #1
 138              	.LVL12:
 139              	.L12:
 140 0088 1B78     		ldrb	r3, [r3]
 141              	.L13:
 142 008a 0133     		add	r3, r3, #1
 143 008c DBB2     		uxtb	r3, r3
 144              	.LVL13:
 145              	.L3:
 289:.\BLEClient.c ****             break;
 290:.\BLEClient.c ****             case CYBLE_GAP_ADV_CLASS_OF_DEVICE:
 291:.\BLEClient.c ****                 
 292:.\BLEClient.c ****             break;
 293:.\BLEClient.c ****             
 294:.\BLEClient.c ****             case CYBLE_GAP_ADV_SMPL_PAIR_HASH_C:
 295:.\BLEClient.c ****                 
 296:.\BLEClient.c ****             break;
 297:.\BLEClient.c ****             case CYBLE_GAP_ADV_SMPL_PAIR_RANDOM_R:
 298:.\BLEClient.c ****                 
 299:.\BLEClient.c ****             break;     
 300:.\BLEClient.c ****             //CYBLE_GAP_ADV_SCRT_MNGR_TK_VALÁöÑÊûö‰∏æÂÄº
 301:.\BLEClient.c ****             //Ë∑üCYBLE_GAP_ADV_DEVICE_IDÁõ∏Âêå    
 302:.\BLEClient.c ****             case CYBLE_GAP_ADV_DEVICE_ID:
 303:.\BLEClient.c ****                 
 304:.\BLEClient.c ****             break;
 305:.\BLEClient.c ****             case CYBLE_GAP_ADV_SCRT_MNGR_OOB_FLAGS:
 306:.\BLEClient.c ****                 
 307:.\BLEClient.c ****             break;   
 308:.\BLEClient.c ****             case CYBLE_GAP_ADV_SLAVE_CONN_INTRV_RANGE:
 309:.\BLEClient.c ****                 
 310:.\BLEClient.c ****             break;    
ARM GAS  C:\Users\Helon\AppData\Local\Temp\ccaispqn.s 			page 9


 311:.\BLEClient.c ****             case CYBLE_GAP_ADV_SOLICIT_16UUID:
 312:.\BLEClient.c ****                 
 313:.\BLEClient.c ****             break;     
 314:.\BLEClient.c ****             case CYBLE_GAP_ADV_SOLICIT_128UUID:
 315:.\BLEClient.c ****                 
 316:.\BLEClient.c ****             break; 
 317:.\BLEClient.c ****             case CYBLE_GAP_ADV_SRVC_DATA_16UUID:
 318:.\BLEClient.c ****                 
 319:.\BLEClient.c ****             break;    
 320:.\BLEClient.c ****             case CYBLE_GAP_ADV_PUBLIC_TARGET_ADDR:
 321:.\BLEClient.c ****                 
 322:.\BLEClient.c ****             break;  
 323:.\BLEClient.c ****             case CYBLE_GAP_ADV_RANDOM_TARGET_ADDR:
 324:.\BLEClient.c ****                 
 325:.\BLEClient.c ****             break;    
 326:.\BLEClient.c ****             case CYBLE_GAP_ADV_APPEARANCE:
 327:.\BLEClient.c ****                 
 328:.\BLEClient.c ****             break;     
 329:.\BLEClient.c ****             case CYBLE_GAP_ADV_ADVERT_INTERVAL:
 330:.\BLEClient.c ****                 
 331:.\BLEClient.c ****             break;   
 332:.\BLEClient.c ****             case CYBLE_GAP_ADV_LE_BT_DEVICE_ADDR:
 333:.\BLEClient.c ****                 
 334:.\BLEClient.c ****             break;
 335:.\BLEClient.c ****             case CYBLE_GAP_ADV_LE_ROLE:
 336:.\BLEClient.c ****                 
 337:.\BLEClient.c ****             break;
 338:.\BLEClient.c ****             case CYBLE_GAP_ADV_SMPL_PAIR_HASH_C256:
 339:.\BLEClient.c ****                 
 340:.\BLEClient.c ****             break;
 341:.\BLEClient.c ****             case CYBLE_GAP_ADV_SMPL_PAIR_RANDOM_R256:
 342:.\BLEClient.c ****                 
 343:.\BLEClient.c ****             break;
 344:.\BLEClient.c ****             case CYBLE_GAP_ADV_SOLICIT_32UUID:
 345:.\BLEClient.c ****                 
 346:.\BLEClient.c ****             break;  
 347:.\BLEClient.c ****             case CYBLE_GAP_ADV_SRVC_DATA_32UUID:
 348:.\BLEClient.c ****                 
 349:.\BLEClient.c ****             break;
 350:.\BLEClient.c ****             case CYBLE_GAP_ADV_SRVC_DATA_128UUID:
 351:.\BLEClient.c ****                 
 352:.\BLEClient.c ****             break;
 353:.\BLEClient.c ****             case CYBLE_GAP_ADV_3D_INFO_DATA:
 354:.\BLEClient.c ****                 
 355:.\BLEClient.c ****             break;
 356:.\BLEClient.c ****             default:                
 357:.\BLEClient.c ****             break;
 358:.\BLEClient.c ****                 
 359:.\BLEClient.c ****         }
 360:.\BLEClient.c ****         pdata+=length;
 146              		.loc 1 360 0
 147 008e E418     		add	r4, r4, r3
 148              	.LVL14:
 149 0090 BBE7     		b	.L2
 150              	.L15:
 361:.\BLEClient.c ****     }    
 362:.\BLEClient.c **** //    printf("<%d,",DeviceCount);
ARM GAS  C:\Users\Helon\AppData\Local\Temp\ccaispqn.s 			page 10


 363:.\BLEClient.c **** }
 151              		.loc 1 363 0
 152              		@ sp needed
 153              	.LVL15:
 154 0092 F7BD     		pop	{r0, r1, r2, r4, r5, r6, r7, pc}
 155              	.L17:
 156              		.align	2
 157              	.L16:
 158 0094 00000000 		.word	.LANCHOR0
 159 0098 00000000 		.word	DeviceInfo
 160              		.cfi_endproc
 161              	.LFE38:
 162              		.size	Parser_adv_data_scan_data, .-Parser_adv_data_scan_data
 163              		.section	.text.HandleScanDevices,"ax",%progbits
 164              		.align	1
 165              		.global	HandleScanDevices
 166              		.code	16
 167              		.thumb_func
 168              		.type	HandleScanDevices, %function
 169              	HandleScanDevices:
 170              	.LFB37:
  35:.\BLEClient.c **** //    printf("Advertising or Scan Response Data is 0x%02X%02X%02X%02X%02X%02X\r\n",
 171              		.loc 1 35 0
 172              		.cfi_startproc
 173              	.LVL16:
 174 0000 F0B5     		push	{r4, r5, r6, r7, lr}
 175              		.cfi_def_cfa_offset 20
 176              		.cfi_offset 4, -20
 177              		.cfi_offset 5, -16
 178              		.cfi_offset 6, -12
 179              		.cfi_offset 7, -8
 180              		.cfi_offset 14, -4
  40:.\BLEClient.c ****     {           
 181              		.loc 1 40 0
 182 0002 794B     		ldr	r3, .L46
  35:.\BLEClient.c **** //    printf("Advertising or Scan Response Data is 0x%02X%02X%02X%02X%02X%02X\r\n",
 183              		.loc 1 35 0
 184 0004 8BB0     		sub	sp, sp, #44
 185              		.cfi_def_cfa_offset 64
  40:.\BLEClient.c ****     {           
 186              		.loc 1 40 0
 187 0006 5A78     		ldrb	r2, [r3, #1]
  35:.\BLEClient.c **** //    printf("Advertising or Scan Response Data is 0x%02X%02X%02X%02X%02X%02X\r\n",
 188              		.loc 1 35 0
 189 0008 041C     		mov	r4, r0
 190 000a 0893     		str	r3, [sp, #32]
  40:.\BLEClient.c ****     {           
 191              		.loc 1 40 0
 192 000c 012A     		cmp	r2, #1
 193 000e 6FD0     		beq	.L19
  42:.\BLEClient.c ****         if(CYBLE_GAPC_CONN_UNDIRECTED_ADV==ScanReport->eventType)   
 194              		.loc 1 42 0
 195 0010 0123     		mov	r3, #1
 196 0012 089A     		ldr	r2, [sp, #32]
 197 0014 5370     		strb	r3, [r2, #1]
  43:.\BLEClient.c ****         {
 198              		.loc 1 43 0
ARM GAS  C:\Users\Helon\AppData\Local\Temp\ccaispqn.s 			page 11


 199 0016 0378     		ldrb	r3, [r0]
 200 0018 002B     		cmp	r3, #0
 201 001a 69D1     		bne	.L19
  45:.\BLEClient.c ****             memcpy(DeviceInfo[DeviceCount-1].DeviceList.bdAddr,ScanReport->peerBdAddr,6);
 202              		.loc 1 45 0
 203 001c 1778     		ldrb	r7, [r2]
  46:.\BLEClient.c ****             if(CYBLE_GAP_ADDR_TYPE_PUBLIC==ScanReport->peerAddrType)
 204              		.loc 1 46 0
 205 001e 1E25     		mov	r5, #30
  45:.\BLEClient.c ****             memcpy(DeviceInfo[DeviceCount-1].DeviceList.bdAddr,ScanReport->peerBdAddr,6);
 206              		.loc 1 45 0
 207 0020 0137     		add	r7, r7, #1
 208 0022 FFB2     		uxtb	r7, r7
  46:.\BLEClient.c ****             if(CYBLE_GAP_ADDR_TYPE_PUBLIC==ScanReport->peerAddrType)
 209              		.loc 1 46 0
 210 0024 7B1E     		sub	r3, r7, #1
 211 0026 1E1C     		mov	r6, r3
 212 0028 6E43     		mul	r6, r5
 213 002a 0993     		str	r3, [sp, #36]
 214 002c 6F4B     		ldr	r3, .L46+4
  45:.\BLEClient.c ****             memcpy(DeviceInfo[DeviceCount-1].DeviceList.bdAddr,ScanReport->peerBdAddr,6);
 215              		.loc 1 45 0
 216 002e 1770     		strb	r7, [r2]
  46:.\BLEClient.c ****             if(CYBLE_GAP_ADDR_TYPE_PUBLIC==ScanReport->peerAddrType)
 217              		.loc 1 46 0
 218 0030 9E19     		add	r6, r3, r6
 219 0032 301C     		mov	r0, r6
 220              	.LVL17:
 221 0034 6168     		ldr	r1, [r4, #4]
 222 0036 0622     		mov	r2, #6
 223 0038 FFF7FEFF 		bl	memcpy
 224              	.LVL18:
  47:.\BLEClient.c ****             {
 225              		.loc 1 47 0
 226 003c 6378     		ldrb	r3, [r4, #1]
 227 003e 002B     		cmp	r3, #0
 228 0040 00D0     		beq	.L43
  54:.\BLEClient.c **** //                DeviceInfo[DeviceCount-1].DeviceList.type='R';
 229              		.loc 1 54 0
 230 0042 0123     		mov	r3, #1
 231              	.L43:
  57:.\BLEClient.c ****             DeviceInfo[DeviceCount-1].rssi=ScanReport->rssi;
 232              		.loc 1 57 0
 233 0044 0998     		ldr	r0, [sp, #36]
  54:.\BLEClient.c **** //                DeviceInfo[DeviceCount-1].DeviceList.type='R';
 234              		.loc 1 54 0
 235 0046 B371     		strb	r3, [r6, #6]
  57:.\BLEClient.c ****             DeviceInfo[DeviceCount-1].rssi=ScanReport->rssi;
 236              		.loc 1 57 0
 237 0048 6843     		mul	r0, r5
 238 004a 684B     		ldr	r3, .L46+4
  59:.\BLEClient.c ****             Parser_adv_data_scan_data(ScanReport->data,ScanReport->dataLen);
 239              		.loc 1 59 0
 240 004c 0622     		mov	r2, #6
  57:.\BLEClient.c ****             DeviceInfo[DeviceCount-1].rssi=ScanReport->rssi;
 241              		.loc 1 57 0
 242 004e 1818     		add	r0, r3, r0
ARM GAS  C:\Users\Helon\AppData\Local\Temp\ccaispqn.s 			page 12


 243 0050 C771     		strb	r7, [r0, #7]
  58:.\BLEClient.c ****             memcpy(DeviceInfo[DeviceCount-1].DeviceList.bdAddr,ScanReport->peerBdAddr,6);
 244              		.loc 1 58 0
 245 0052 237C     		ldrb	r3, [r4, #16]
 246 0054 0372     		strb	r3, [r0, #8]
  59:.\BLEClient.c ****             Parser_adv_data_scan_data(ScanReport->data,ScanReport->dataLen);
 247              		.loc 1 59 0
 248 0056 6168     		ldr	r1, [r4, #4]
 249 0058 FFF7FEFF 		bl	memcpy
 250              	.LVL19:
  60:.\BLEClient.c ****             if(DeviceInfo[DeviceCount-1].ScanName)
 251              		.loc 1 60 0
 252 005c 217A     		ldrb	r1, [r4, #8]
 253 005e E068     		ldr	r0, [r4, #12]
 254 0060 FFF7FEFF 		bl	Parser_adv_data_scan_data
 255              	.LVL20:
  61:.\BLEClient.c ****             {
 256              		.loc 1 61 0
 257 0064 089B     		ldr	r3, [sp, #32]
 258 0066 1878     		ldrb	r0, [r3]
 259 0068 604B     		ldr	r3, .L46+4
 260 006a 441E     		sub	r4, r0, #1
 261              	.LVL21:
 262 006c 6543     		mul	r5, r4
 263 006e 5B19     		add	r3, r3, r5
 264 0070 597F     		ldrb	r1, [r3, #29]
 265 0072 1833     		add	r3, r3, #24
 266 0074 0029     		cmp	r1, #0
 267 0076 02D0     		beq	.L22
  63:.\BLEClient.c ****             }
 268              		.loc 1 63 0
 269 0078 0022     		mov	r2, #0
 270 007a 5A71     		strb	r2, [r3, #5]
 271 007c 0BE0     		b	.L23
 272              	.L22:
  67:.\BLEClient.c ****                 memcpy(DeviceInfo[DeviceCount-1].DeviceName,"NULL",sizeof("NULL"));
 273              		.loc 1 67 0
 274 007e 5B4B     		ldr	r3, .L46+4
 275 0080 1422     		mov	r2, #20
 276 0082 5D19     		add	r5, r3, r5
 277 0084 0935     		add	r5, r5, #9
 278 0086 281C     		mov	r0, r5
 279 0088 FFF7FEFF 		bl	memset
 280              	.LVL22:
  68:.\BLEClient.c ****             }
 281              		.loc 1 68 0
 282 008c 281C     		mov	r0, r5
 283 008e 5849     		ldr	r1, .L46+8
 284 0090 0522     		mov	r2, #5
 285 0092 FFF7FEFF 		bl	memcpy
 286              	.LVL23:
 287              	.L23:
  71:.\BLEClient.c ****                     DeviceInfo[DeviceCount-1].rssi,
 288              		.loc 1 71 0
 289 0096 1E20     		mov	r0, #30
 290 0098 031C     		mov	r3, r0
 291 009a 6343     		mul	r3, r4
ARM GAS  C:\Users\Helon\AppData\Local\Temp\ccaispqn.s 			page 13


 292 009c 534A     		ldr	r2, .L46+4
 293 009e D318     		add	r3, r2, r3
  70:.\BLEClient.c ****                     DeviceInfo[DeviceCount-1].idx,
 294              		.loc 1 70 0
 295 00a0 0822     		mov	r2, #8
 296 00a2 9D79     		ldrb	r5, [r3, #6]
 297 00a4 D979     		ldrb	r1, [r3, #7]
 298 00a6 9A56     		ldrsb	r2, [r3, r2]
 299 00a8 5223     		mov	r3, #82
 300 00aa 012D     		cmp	r5, #1
 301 00ac 00D0     		beq	.L24
 302 00ae 023B     		sub	r3, r3, #2
 303              	.L24:
  74:.\BLEClient.c ****                     DeviceInfo[DeviceCount-1].DeviceList.bdAddr[4],
 304              		.loc 1 74 0 discriminator 4
 305 00b0 6043     		mul	r0, r4
 306 00b2 4E4C     		ldr	r4, .L46+4
 307 00b4 2418     		add	r4, r4, r0
  70:.\BLEClient.c ****                     DeviceInfo[DeviceCount-1].idx,
 308              		.loc 1 70 0 discriminator 4
 309 00b6 6579     		ldrb	r5, [r4, #5]
 310 00b8 0095     		str	r5, [sp]
 311 00ba 2579     		ldrb	r5, [r4, #4]
 312 00bc 0195     		str	r5, [sp, #4]
 313 00be E578     		ldrb	r5, [r4, #3]
 314 00c0 0295     		str	r5, [sp, #8]
 315 00c2 A578     		ldrb	r5, [r4, #2]
 316 00c4 0395     		str	r5, [sp, #12]
 317 00c6 6478     		ldrb	r4, [r4, #1]
 318 00c8 0494     		str	r4, [sp, #16]
 319 00ca 484C     		ldr	r4, .L46+4
 320 00cc 045D     		ldrb	r4, [r0, r4]
 321 00ce 0594     		str	r4, [sp, #20]
 322 00d0 464C     		ldr	r4, .L46+4
 323 00d2 2018     		add	r0, r4, r0
 324 00d4 0930     		add	r0, r0, #9
 325 00d6 0690     		str	r0, [sp, #24]
 326 00d8 4648     		ldr	r0, .L46+12
 327 00da FFF7FEFF 		bl	printf
 328              	.LVL24:
 329              	.L25:
  83:.\BLEClient.c ****             return;
 330              		.loc 1 83 0 discriminator 5
 331 00de FFF7FEFF 		bl	UART_SpiUartGetTxBufferSize
 332              	.LVL25:
 333 00e2 454B     		ldr	r3, .L46+16
 334 00e4 1B68     		ldr	r3, [r3]
 335 00e6 1B04     		lsl	r3, r3, #16
 336 00e8 DB17     		asr	r3, r3, #31
 337 00ea 8342     		cmp	r3, r0
 338 00ec F7D1     		bne	.L25
 339 00ee 78E0     		b	.L18
 340              	.LVL26:
 341              	.L19:
 342 00f0 1E26     		mov	r6, #30
  90:.\BLEClient.c ****     {        
 343              		.loc 1 90 0
ARM GAS  C:\Users\Helon\AppData\Local\Temp\ccaispqn.s 			page 14


 344 00f2 089B     		ldr	r3, [sp, #32]
 345 00f4 3D4F     		ldr	r7, .L46+4
 346 00f6 1D78     		ldrb	r5, [r3]
 347 00f8 6E43     		mul	r6, r5
 348 00fa F619     		add	r6, r6, r7
 349              	.LVL27:
 350              	.L26:
  90:.\BLEClient.c ****     {        
 351              		.loc 1 90 0 is_stmt 0 discriminator 1
 352 00fc B742     		cmp	r7, r6
 353 00fe 08D0     		beq	.L45
  92:.\BLEClient.c ****         {
 354              		.loc 1 92 0 is_stmt 1
 355 0100 391C     		mov	r1, r7
 356 0102 6068     		ldr	r0, [r4, #4]
 357 0104 0622     		mov	r2, #6
 358 0106 FFF7FEFF 		bl	memcmp
 359              	.LVL28:
 360 010a 1E37     		add	r7, r7, #30
 361 010c 0028     		cmp	r0, #0
 362 010e F5D1     		bne	.L26
 363 0110 67E0     		b	.L18
 364              	.L45:
  98:.\BLEClient.c ****     memcpy(DeviceInfo[DeviceCount-1].DeviceList.bdAddr,ScanReport->peerBdAddr,6);
 365              		.loc 1 98 0
 366 0112 089B     		ldr	r3, [sp, #32]
 367 0114 0135     		add	r5, r5, #1
 368 0116 EDB2     		uxtb	r5, r5
 369 0118 1D70     		strb	r5, [r3]
  99:.\BLEClient.c ****     if(CYBLE_GAP_ADDR_TYPE_PUBLIC==ScanReport->peerAddrType)
 370              		.loc 1 99 0
 371 011a 6B1E     		sub	r3, r5, #1
 372 011c 1E1C     		mov	r6, r3
 373 011e 1E27     		mov	r7, #30
 374 0120 7E43     		mul	r6, r7
 375 0122 0993     		str	r3, [sp, #36]
 376 0124 314B     		ldr	r3, .L46+4
 377 0126 6168     		ldr	r1, [r4, #4]
 378 0128 9E19     		add	r6, r3, r6
 379 012a 301C     		mov	r0, r6
 380 012c 0622     		mov	r2, #6
 381 012e FFF7FEFF 		bl	memcpy
 382              	.LVL29:
 100:.\BLEClient.c ****     {
 383              		.loc 1 100 0
 384 0132 6378     		ldrb	r3, [r4, #1]
 385 0134 002B     		cmp	r3, #0
 386 0136 00D0     		beq	.L44
 107:.\BLEClient.c **** //        DeviceInfo[DeviceCount-1].DeviceList.type='R';
 387              		.loc 1 107 0
 388 0138 0123     		mov	r3, #1
 389              	.L44:
 390 013a B371     		strb	r3, [r6, #6]
 110:.\BLEClient.c ****     if(CYBLE_GAPC_CONN_UNDIRECTED_ADV==ScanReport->eventType)   
 391              		.loc 1 110 0
 392 013c 099B     		ldr	r3, [sp, #36]
 393 013e 5F43     		mul	r7, r3
ARM GAS  C:\Users\Helon\AppData\Local\Temp\ccaispqn.s 			page 15


 394 0140 2A4B     		ldr	r3, .L46+4
 395 0142 DF19     		add	r7, r3, r7
 396 0144 FD71     		strb	r5, [r7, #7]
 111:.\BLEClient.c ****     {
 397              		.loc 1 111 0
 398 0146 2578     		ldrb	r5, [r4]
 399 0148 002D     		cmp	r5, #0
 400 014a 4AD1     		bne	.L18
 113:.\BLEClient.c ****         Parser_adv_data_scan_data(ScanReport->data,ScanReport->dataLen);
 401              		.loc 1 113 0
 402 014c 237C     		ldrb	r3, [r4, #16]
 403 014e 3B72     		strb	r3, [r7, #8]
 114:.\BLEClient.c ****         if(DeviceInfo[DeviceCount-1].ScanName)
 404              		.loc 1 114 0
 405 0150 217A     		ldrb	r1, [r4, #8]
 406 0152 E068     		ldr	r0, [r4, #12]
 115:.\BLEClient.c ****             {
 407              		.loc 1 115 0
 408 0154 1E24     		mov	r4, #30
 409              	.LVL30:
 114:.\BLEClient.c ****         if(DeviceInfo[DeviceCount-1].ScanName)
 410              		.loc 1 114 0
 411 0156 FFF7FEFF 		bl	Parser_adv_data_scan_data
 412              	.LVL31:
 115:.\BLEClient.c ****             {
 413              		.loc 1 115 0
 414 015a 089B     		ldr	r3, [sp, #32]
 415 015c 1878     		ldrb	r0, [r3]
 416 015e 234B     		ldr	r3, .L46+4
 417 0160 461E     		sub	r6, r0, #1
 418 0162 7443     		mul	r4, r6
 419 0164 1B19     		add	r3, r3, r4
 420 0166 597F     		ldrb	r1, [r3, #29]
 421 0168 1833     		add	r3, r3, #24
 422 016a 0029     		cmp	r1, #0
 423 016c 01D0     		beq	.L31
 117:.\BLEClient.c ****             }
 424              		.loc 1 117 0
 425 016e 5D71     		strb	r5, [r3, #5]
 426 0170 0BE0     		b	.L32
 427              	.L31:
 121:.\BLEClient.c ****                 memcpy(DeviceInfo[DeviceCount-1].DeviceName,"NULL",sizeof("NULL"));
 428              		.loc 1 121 0
 429 0172 1E4B     		ldr	r3, .L46+4
 430 0174 1422     		mov	r2, #20
 431 0176 1C19     		add	r4, r3, r4
 432 0178 0934     		add	r4, r4, #9
 433 017a 201C     		mov	r0, r4
 434 017c FFF7FEFF 		bl	memset
 435              	.LVL32:
 122:.\BLEClient.c ****             }
 436              		.loc 1 122 0
 437 0180 201C     		mov	r0, r4
 438 0182 1B49     		ldr	r1, .L46+8
 439 0184 0522     		mov	r2, #5
 440 0186 FFF7FEFF 		bl	memcpy
 441              	.LVL33:
ARM GAS  C:\Users\Helon\AppData\Local\Temp\ccaispqn.s 			page 16


 442              	.L32:
 125:.\BLEClient.c ****                     DeviceInfo[DeviceCount-1].rssi,
 443              		.loc 1 125 0
 444 018a 1E20     		mov	r0, #30
 445 018c 031C     		mov	r3, r0
 446 018e 7343     		mul	r3, r6
 447 0190 164A     		ldr	r2, .L46+4
 448 0192 D318     		add	r3, r2, r3
 124:.\BLEClient.c ****                     DeviceInfo[DeviceCount-1].idx,
 449              		.loc 1 124 0
 450 0194 0822     		mov	r2, #8
 451 0196 9C79     		ldrb	r4, [r3, #6]
 452 0198 D979     		ldrb	r1, [r3, #7]
 453 019a 9A56     		ldrsb	r2, [r3, r2]
 454 019c 5223     		mov	r3, #82
 455 019e 012C     		cmp	r4, #1
 456 01a0 00D0     		beq	.L33
 457 01a2 023B     		sub	r3, r3, #2
 458              	.L33:
 128:.\BLEClient.c ****                     DeviceInfo[DeviceCount-1].DeviceList.bdAddr[4],
 459              		.loc 1 128 0 discriminator 4
 460 01a4 7043     		mul	r0, r6
 461 01a6 114C     		ldr	r4, .L46+4
 462 01a8 2418     		add	r4, r4, r0
 124:.\BLEClient.c ****                     DeviceInfo[DeviceCount-1].idx,
 463              		.loc 1 124 0 discriminator 4
 464 01aa 6579     		ldrb	r5, [r4, #5]
 465 01ac 0095     		str	r5, [sp]
 466 01ae 2579     		ldrb	r5, [r4, #4]
 467 01b0 0195     		str	r5, [sp, #4]
 468 01b2 E578     		ldrb	r5, [r4, #3]
 469 01b4 0295     		str	r5, [sp, #8]
 470 01b6 A578     		ldrb	r5, [r4, #2]
 471 01b8 0395     		str	r5, [sp, #12]
 472 01ba 6478     		ldrb	r4, [r4, #1]
 473 01bc 0494     		str	r4, [sp, #16]
 474 01be 0B4C     		ldr	r4, .L46+4
 475 01c0 045D     		ldrb	r4, [r0, r4]
 476 01c2 0594     		str	r4, [sp, #20]
 477 01c4 094C     		ldr	r4, .L46+4
 478 01c6 2018     		add	r0, r4, r0
 479 01c8 0930     		add	r0, r0, #9
 480 01ca 0690     		str	r0, [sp, #24]
 481 01cc 0948     		ldr	r0, .L46+12
 482 01ce FFF7FEFF 		bl	printf
 483              	.LVL34:
 484              	.L34:
 137:.\BLEClient.c ****     }
 485              		.loc 1 137 0 discriminator 5
 486 01d2 FFF7FEFF 		bl	UART_SpiUartGetTxBufferSize
 487              	.LVL35:
 488 01d6 084B     		ldr	r3, .L46+16
 489 01d8 1B68     		ldr	r3, [r3]
 490 01da 1B04     		lsl	r3, r3, #16
 491 01dc DB17     		asr	r3, r3, #31
 492 01de 8342     		cmp	r3, r0
 493 01e0 F7D1     		bne	.L34
ARM GAS  C:\Users\Helon\AppData\Local\Temp\ccaispqn.s 			page 17


 494              	.L18:
 140:.\BLEClient.c **** 
 495              		.loc 1 140 0
 496 01e2 0BB0     		add	sp, sp, #44
 497              		@ sp needed
 498 01e4 F0BD     		pop	{r4, r5, r6, r7, pc}
 499              	.L47:
 500 01e6 C046     		.align	2
 501              	.L46:
 502 01e8 00000000 		.word	.LANCHOR0
 503 01ec 00000000 		.word	DeviceInfo
 504 01f0 00000000 		.word	.LC4
 505 01f4 05000000 		.word	.LC6
 506 01f8 08022540 		.word	1076167176
 507              		.cfi_endproc
 508              	.LFE37:
 509              		.size	HandleScanDevices, .-HandleScanDevices
 510              		.section	.text.ScanDeviceInfoInit,"ax",%progbits
 511              		.align	1
 512              		.global	ScanDeviceInfoInit
 513              		.code	16
 514              		.thumb_func
 515              		.type	ScanDeviceInfoInit, %function
 516              	ScanDeviceInfoInit:
 517              	.LFB39:
 364:.\BLEClient.c **** 
 365:.\BLEClient.c **** 
 366:.\BLEClient.c **** /******************************************************************************
 367:.\BLEClient.c **** * Function Name: ScanDeviceInfoInit
 368:.\BLEClient.c **** ***************************************************************************//**
 369:.\BLEClient.c **** * 
 370:.\BLEClient.c **** *  ÂàùÂßãÂåñÂ≠òÊîæÊâ´ÊèèÂà∞ÁöÑBLEËÆæÂ§á‰ø°ÊÅØÁ©∫Èó¥
 371:.\BLEClient.c **** * 
 372:.\BLEClient.c **** * \return
 373:.\BLEClient.c **** *  None
 374:.\BLEClient.c **** * 
 375:.\BLEClient.c **** ******************************************************************************/
 376:.\BLEClient.c **** void ScanDeviceInfoInit(void)
 377:.\BLEClient.c **** {
 518              		.loc 1 377 0
 519              		.cfi_startproc
 520 0000 70B5     		push	{r4, r5, r6, lr}
 521              		.cfi_def_cfa_offset 16
 522              		.cfi_offset 4, -16
 523              		.cfi_offset 5, -12
 524              		.cfi_offset 6, -8
 525              		.cfi_offset 14, -4
 378:.\BLEClient.c ****     uint8_t i;
 379:.\BLEClient.c ****     if(DeviceCount>DeviceListCount)
 526              		.loc 1 379 0
 527 0002 104D     		ldr	r5, .L55
 528 0004 104C     		ldr	r4, .L55+4
 529 0006 2E78     		ldrb	r6, [r5]
 530 0008 0A2E     		cmp	r6, #10
 531 000a 03D8     		bhi	.L53
 532 000c 1E23     		mov	r3, #30
 533 000e 5E43     		mul	r6, r3
ARM GAS  C:\Users\Helon\AppData\Local\Temp\ccaispqn.s 			page 18


 534 0010 3619     		add	r6, r6, r4
 535 0012 0EE0     		b	.L50
 536              	.L53:
 537 0014 0026     		mov	r6, #0
 538              	.L49:
 539 0016 3019     		add	r0, r6, r4
 380:.\BLEClient.c ****     {
 381:.\BLEClient.c ****         for(i=0;i<DeviceListCount;i++)
 382:.\BLEClient.c ****         {
 383:.\BLEClient.c ****            memset(DeviceInfo[i].DeviceList.bdAddr,0,6);
 540              		.loc 1 383 0 discriminator 3
 541 0018 0021     		mov	r1, #0
 542 001a 0622     		mov	r2, #6
 543 001c FFF7FEFF 		bl	memset
 544              	.LVL36:
 381:.\BLEClient.c ****         {
 545              		.loc 1 381 0 discriminator 3
 546 0020 9623     		mov	r3, #150
 547 0022 1E36     		add	r6, r6, #30
 548 0024 5B00     		lsl	r3, r3, #1
 549 0026 9E42     		cmp	r6, r3
 550 0028 F5D1     		bne	.L49
 551              	.L52:
 384:.\BLEClient.c ****         
 385:.\BLEClient.c ****         }        
 386:.\BLEClient.c ****     }
 387:.\BLEClient.c ****     else
 388:.\BLEClient.c ****     {
 389:.\BLEClient.c ****         for(i=0;i<DeviceCount;i++)
 390:.\BLEClient.c ****         {
 391:.\BLEClient.c ****             memset(DeviceInfo[i].DeviceList.bdAddr,0,6);
 392:.\BLEClient.c ****         }
 393:.\BLEClient.c ****     }
 394:.\BLEClient.c ****     //ËÆ°Êï∞Êâ´ÊèèÂà∞ÁöÑËÆæÂ§áÊ∏ÖÈõ∂Ôºå‰ª•‰æøÂÜçÊ¨°Êâ´ÊèèÊó∂Êâ´ÊèèÂà∞ÁöÑËÆæÂ§á‰ø°ÊÅØË¶ÜÁõñÊóßÁöÑ‰ø°
 395:.\BLEClient.c ****       DeviceCount=0;
 552              		.loc 1 395 0
 553 002a 0023     		mov	r3, #0
 396:.\BLEClient.c ****       flag=0;
 397:.\BLEClient.c **** 
 398:.\BLEClient.c **** }
 554              		.loc 1 398 0
 555              		@ sp needed
 395:.\BLEClient.c ****       flag=0;
 556              		.loc 1 395 0
 557 002c 2B70     		strb	r3, [r5]
 396:.\BLEClient.c ****       flag=0;
 558              		.loc 1 396 0
 559 002e 6B70     		strb	r3, [r5, #1]
 560              		.loc 1 398 0
 561 0030 70BD     		pop	{r4, r5, r6, pc}
 562              	.L50:
 389:.\BLEClient.c ****         {
 563              		.loc 1 389 0 discriminator 1
 564 0032 B442     		cmp	r4, r6
 565 0034 F9D0     		beq	.L52
 391:.\BLEClient.c ****         }
 566              		.loc 1 391 0 discriminator 3
ARM GAS  C:\Users\Helon\AppData\Local\Temp\ccaispqn.s 			page 19


 567 0036 201C     		mov	r0, r4
 568 0038 0021     		mov	r1, #0
 569 003a 0622     		mov	r2, #6
 570 003c FFF7FEFF 		bl	memset
 571              	.LVL37:
 572 0040 1E34     		add	r4, r4, #30
 573 0042 F6E7     		b	.L50
 574              	.L56:
 575              		.align	2
 576              	.L55:
 577 0044 00000000 		.word	.LANCHOR0
 578 0048 00000000 		.word	DeviceInfo
 579              		.cfi_endproc
 580              	.LFE39:
 581              		.size	ScanDeviceInfoInit, .-ScanDeviceInfoInit
 582              		.global	flag
 583              		.global	DeviceCount
 584              		.comm	DeviceInfo,300,1
 585              		.section	.rodata.str1.1,"aMS",%progbits,1
 586              	.LC4:
 587 0000 4E554C4C 		.ascii	"NULL\000"
 587      00
 588              	.LC6:
 589 0005 2B534341 		.ascii	"+SCAN=%d,%d,%c,%02X%02X%02X%02X%02X%02X,%s\015\012\000"
 589      4E3D2564 
 589      2C25642C 
 589      25632C25 
 589      30325825 
 590              		.bss
 591              		.set	.LANCHOR0,. + 0
 592              		.type	DeviceCount, %object
 593              		.size	DeviceCount, 1
 594              	DeviceCount:
 595 0000 00       		.space	1
 596              		.type	flag, %object
 597              		.size	flag, 1
 598              	flag:
 599 0001 00       		.space	1
 600              		.text
 601              	.Letext0:
 602              		.file 2 "c:\\program files (x86)\\cypress\\psoc creator\\3.3\\psoc creator\\import\\gnu\\arm\\4.9.
 603              		.file 3 "c:\\program files (x86)\\cypress\\psoc creator\\3.3\\psoc creator\\import\\gnu\\arm\\4.9.
 604              		.file 4 "Generated_Source\\PSoC4/cytypes.h"
 605              		.file 5 "c:\\program files (x86)\\cypress\\psoc creator\\3.3\\psoc creator\\import\\gnu\\arm\\4.9.
 606              		.file 6 "Generated_Source\\PSoC4/BLE_Stack.h"
 607              		.file 7 "Generated_Source\\PSoC4/BLE_StackGap.h"
 608              		.file 8 "Generated_Source\\PSoC4/BLE.h"
 609              		.file 9 ".\\BLEClient.h"
 610              		.file 10 "c:\\program files (x86)\\cypress\\psoc creator\\3.3\\psoc creator\\import\\gnu\\arm\\4.9
 611              		.file 11 "Generated_Source\\PSoC4/UART_SPI_UART.h"
 612              		.file 12 "c:\\program files (x86)\\cypress\\psoc creator\\3.3\\psoc creator\\import\\gnu\\arm\\4.9