ARM GAS  C:\Users\Helon\AppData\Local\Temp\cchg8CAa.s 			page 1


   1              		.cpu cortex-m0
   2              		.fpu softvfp
   3              		.eabi_attribute 20, 1
   4              		.eabi_attribute 21, 1
   5              		.eabi_attribute 23, 3
   6              		.eabi_attribute 24, 1
   7              		.eabi_attribute 25, 1
   8              		.eabi_attribute 26, 1
   9              		.eabi_attribute 30, 4
  10              		.eabi_attribute 34, 0
  11              		.eabi_attribute 18, 4
  12              		.code	16
  13              		.file	"CyLib.c"
  14              		.text
  15              	.Ltext0:
  16              		.cfi_sections	.debug_frame
  17              		.section	.text.CySysClkImoStart,"ax",%progbits
  18              		.align	1
  19              		.global	CySysClkImoStart
  20              		.code	16
  21              		.thumb_func
  22              		.type	CySysClkImoStart, %function
  23              	CySysClkImoStart:
  24              	.LFB2:
  25              		.file 1 ".\\Generated_Source\\PSoC4\\CyLib.c"
   1:.\Generated_Source\PSoC4/CyLib.c **** /*******************************************************************************
   2:.\Generated_Source\PSoC4/CyLib.c **** * File Name: CyLib.c
   3:.\Generated_Source\PSoC4/CyLib.c **** * Version 5.20
   4:.\Generated_Source\PSoC4/CyLib.c **** *
   5:.\Generated_Source\PSoC4/CyLib.c **** *  Description:
   6:.\Generated_Source\PSoC4/CyLib.c **** *   Provides a system API for the clocking, interrupts, and watchdog timer.
   7:.\Generated_Source\PSoC4/CyLib.c **** *
   8:.\Generated_Source\PSoC4/CyLib.c **** *  Note:
   9:.\Generated_Source\PSoC4/CyLib.c **** *   Documentation of the API's in this file is located in the
  10:.\Generated_Source\PSoC4/CyLib.c **** *   System Reference Guide provided with PSoC Creator.
  11:.\Generated_Source\PSoC4/CyLib.c **** *
  12:.\Generated_Source\PSoC4/CyLib.c **** ********************************************************************************
  13:.\Generated_Source\PSoC4/CyLib.c **** * Copyright 2010-2015, Cypress Semiconductor Corporation.  All rights reserved.
  14:.\Generated_Source\PSoC4/CyLib.c **** * You may use this file only in accordance with the license, terms, conditions,
  15:.\Generated_Source\PSoC4/CyLib.c **** * disclaimers, and limitations in the end user license agreement accompanying
  16:.\Generated_Source\PSoC4/CyLib.c **** * the software package with which this file was provided.
  17:.\Generated_Source\PSoC4/CyLib.c **** *******************************************************************************/
  18:.\Generated_Source\PSoC4/CyLib.c **** 
  19:.\Generated_Source\PSoC4/CyLib.c **** #include "CyLib.h"
  20:.\Generated_Source\PSoC4/CyLib.c **** 
  21:.\Generated_Source\PSoC4/CyLib.c **** #if(CY_IP_SRSSV2 && CY_IP_FMLT)
  22:.\Generated_Source\PSoC4/CyLib.c ****     #include "CyFlash.h"
  23:.\Generated_Source\PSoC4/CyLib.c **** #endif /* (CY_IP_SRSSV2 && CY_IP_FMLT) */
  24:.\Generated_Source\PSoC4/CyLib.c **** 
  25:.\Generated_Source\PSoC4/CyLib.c **** 
  26:.\Generated_Source\PSoC4/CyLib.c **** /* Do not use these definitions directly in your application */
  27:.\Generated_Source\PSoC4/CyLib.c **** uint32 cydelayFreqHz  = CYDEV_BCLK__SYSCLK__HZ;
  28:.\Generated_Source\PSoC4/CyLib.c **** uint32 cydelayFreqKhz = (CYDEV_BCLK__SYSCLK__HZ + CY_DELAY_1K_MINUS_1_THRESHOLD) / CY_DELAY_1K_THRE
  29:.\Generated_Source\PSoC4/CyLib.c **** uint8  cydelayFreqMhz = (uint8)((CYDEV_BCLK__SYSCLK__HZ + CY_DELAY_1M_MINUS_1_THRESHOLD) / CY_DELAY
  30:.\Generated_Source\PSoC4/CyLib.c **** uint32 cydelay32kMs   = CY_DELAY_MS_OVERFLOW * ((CYDEV_BCLK__SYSCLK__HZ + CY_DELAY_1K_MINUS_1_THRES
  31:.\Generated_Source\PSoC4/CyLib.c ****                         CY_DELAY_1K_THRESHOLD);
  32:.\Generated_Source\PSoC4/CyLib.c **** 
ARM GAS  C:\Users\Helon\AppData\Local\Temp\cchg8CAa.s 			page 2


  33:.\Generated_Source\PSoC4/CyLib.c **** 
  34:.\Generated_Source\PSoC4/CyLib.c **** static cySysTickCallback CySysTickCallbacks[CY_SYS_SYST_NUM_OF_CALLBACKS];
  35:.\Generated_Source\PSoC4/CyLib.c **** static void CySysTickServiceCallbacks(void);
  36:.\Generated_Source\PSoC4/CyLib.c **** #if (CY_PSOC4_4100M || CY_PSOC4_4200M)
  37:.\Generated_Source\PSoC4/CyLib.c ****     static uint32 CySysClkImoGetWcoLock(void);
  38:.\Generated_Source\PSoC4/CyLib.c **** #endif  /* (CY_PSOC4_4100M || CY_PSOC4_4200M) */
  39:.\Generated_Source\PSoC4/CyLib.c **** 
  40:.\Generated_Source\PSoC4/CyLib.c **** 
  41:.\Generated_Source\PSoC4/CyLib.c **** /*******************************************************************************
  42:.\Generated_Source\PSoC4/CyLib.c **** * Indicates whether or not the SysTick has been initialized. The variable is
  43:.\Generated_Source\PSoC4/CyLib.c **** * initialized to 0 and set to 1 the first time CySysTickStart() is called.
  44:.\Generated_Source\PSoC4/CyLib.c **** *
  45:.\Generated_Source\PSoC4/CyLib.c **** * This allows the component to restart without reinitialization after the first
  46:.\Generated_Source\PSoC4/CyLib.c **** * call to the CySysTickStart() routine.
  47:.\Generated_Source\PSoC4/CyLib.c **** *
  48:.\Generated_Source\PSoC4/CyLib.c **** * If reinitialization of the SysTick is required, call CySysTickInit() before
  49:.\Generated_Source\PSoC4/CyLib.c **** * calling CySysTickStart(). Alternatively, the SysTick can be reinitialized by
  50:.\Generated_Source\PSoC4/CyLib.c **** * calling the CySysTickInit() and CySysTickEnable() functions.
  51:.\Generated_Source\PSoC4/CyLib.c **** *******************************************************************************/
  52:.\Generated_Source\PSoC4/CyLib.c **** uint32 CySysTickInitVar = 0u;
  53:.\Generated_Source\PSoC4/CyLib.c **** 
  54:.\Generated_Source\PSoC4/CyLib.c **** 
  55:.\Generated_Source\PSoC4/CyLib.c **** #if(CY_IP_SRSSV2)
  56:.\Generated_Source\PSoC4/CyLib.c ****         /* Conversion between CySysClkWriteImoFreq() parameter and register's value */
  57:.\Generated_Source\PSoC4/CyLib.c ****         const uint8 cyImoFreqMhz2Reg[CY_SYS_CLK_IMO_FREQ_TABLE_SIZE] = {
  58:.\Generated_Source\PSoC4/CyLib.c ****             /*  3 MHz */ 0x03u,  /*  4 MHz */ 0x04u,  /*  5 MHz */ 0x05u,  /*  6 MHz */ 0x06u,
  59:.\Generated_Source\PSoC4/CyLib.c ****             /*  7 MHz */ 0x07u,  /*  8 MHz */ 0x08u,  /*  9 MHz */ 0x09u,  /* 10 MHz */ 0x0Au,
  60:.\Generated_Source\PSoC4/CyLib.c ****             /* 11 MHz */ 0x0Bu,  /* 12 MHz */ 0x0Cu,  /* 13 MHz */ 0x0Eu,  /* 14 MHz */ 0x0Fu,
  61:.\Generated_Source\PSoC4/CyLib.c ****             /* 15 MHz */ 0x10u,  /* 16 MHz */ 0x11u,  /* 17 MHz */ 0x12u,  /* 18 MHz */ 0x13u,
  62:.\Generated_Source\PSoC4/CyLib.c ****             /* 19 MHz */ 0x14u,  /* 20 MHz */ 0x15u,  /* 21 MHz */ 0x16u,  /* 22 MHz */ 0x17u,
  63:.\Generated_Source\PSoC4/CyLib.c ****             /* 23 MHz */ 0x18u,  /* 24 MHz */ 0x19u,  /* 25 MHz */ 0x1Bu,  /* 26 MHz */ 0x1Cu,
  64:.\Generated_Source\PSoC4/CyLib.c ****             /* 27 MHz */ 0x1Du,  /* 28 MHz */ 0x1Eu,  /* 29 MHz */ 0x1Fu,  /* 30 MHz */ 0x20u,
  65:.\Generated_Source\PSoC4/CyLib.c ****             /* 31 MHz */ 0x21u,  /* 32 MHz */ 0x22u,  /* 33 MHz */ 0x23u,  /* 34 MHz */ 0x25u,
  66:.\Generated_Source\PSoC4/CyLib.c ****             /* 35 MHz */ 0x26u,  /* 36 MHz */ 0x27u,  /* 37 MHz */ 0x28u,  /* 38 MHz */ 0x29u,
  67:.\Generated_Source\PSoC4/CyLib.c ****             /* 39 MHz */ 0x2Au,  /* 40 MHz */ 0x2Bu,  /* 41 MHz */ 0x2Eu,  /* 42 MHz */ 0x2Fu,
  68:.\Generated_Source\PSoC4/CyLib.c ****             /* 43 MHz */ 0x30u,  /* 44 MHz */ 0x31u,  /* 45 MHz */ 0x32u,  /* 46 MHz */ 0x33u,
  69:.\Generated_Source\PSoC4/CyLib.c ****             /* 47 MHz */ 0x34u,  /* 48 MHz */ 0x35u };
  70:.\Generated_Source\PSoC4/CyLib.c **** #endif /* (CY_IP_SRSSV2) */
  71:.\Generated_Source\PSoC4/CyLib.c **** 
  72:.\Generated_Source\PSoC4/CyLib.c **** 
  73:.\Generated_Source\PSoC4/CyLib.c **** /*******************************************************************************
  74:.\Generated_Source\PSoC4/CyLib.c **** * Function Name: CySysClkImoStart
  75:.\Generated_Source\PSoC4/CyLib.c **** ********************************************************************************
  76:.\Generated_Source\PSoC4/CyLib.c **** *
  77:.\Generated_Source\PSoC4/CyLib.c **** * Summary:
  78:.\Generated_Source\PSoC4/CyLib.c **** *  Enables the IMO.
  79:.\Generated_Source\PSoC4/CyLib.c **** *
  80:.\Generated_Source\PSoC4/CyLib.c **** *  For PSoC 4100M / PSoC 4200M devices, this function will also enable WCO lock
  81:.\Generated_Source\PSoC4/CyLib.c **** *  if selected in the Design Wide Resources tab.
  82:.\Generated_Source\PSoC4/CyLib.c **** *
  83:.\Generated_Source\PSoC4/CyLib.c **** * Parameters:
  84:.\Generated_Source\PSoC4/CyLib.c **** *  None
  85:.\Generated_Source\PSoC4/CyLib.c **** *
  86:.\Generated_Source\PSoC4/CyLib.c **** * Return:
  87:.\Generated_Source\PSoC4/CyLib.c **** *  None
  88:.\Generated_Source\PSoC4/CyLib.c **** *
  89:.\Generated_Source\PSoC4/CyLib.c **** *******************************************************************************/
ARM GAS  C:\Users\Helon\AppData\Local\Temp\cchg8CAa.s 			page 3


  90:.\Generated_Source\PSoC4/CyLib.c **** void CySysClkImoStart(void)
  91:.\Generated_Source\PSoC4/CyLib.c **** {
  26              		.loc 1 91 0
  27              		.cfi_startproc
  92:.\Generated_Source\PSoC4/CyLib.c ****     CY_SYS_CLK_IMO_CONFIG_REG |= CY_SYS_CLK_IMO_CONFIG_ENABLE;
  28              		.loc 1 92 0
  29 0000 8021     		mov	r1, #128
  30 0002 034A     		ldr	r2, .L2
  31 0004 0906     		lsl	r1, r1, #24
  32 0006 1368     		ldr	r3, [r2]
  93:.\Generated_Source\PSoC4/CyLib.c **** 
  94:.\Generated_Source\PSoC4/CyLib.c ****     #if (CY_PSOC4_4100M || CY_PSOC4_4200M)
  95:.\Generated_Source\PSoC4/CyLib.c ****         #if (CYDEV_IMO_TRIMMED_BY_WCO == 1u)
  96:.\Generated_Source\PSoC4/CyLib.c ****             CySysClkImoEnableWcoLock();
  97:.\Generated_Source\PSoC4/CyLib.c ****         #endif  /* (CYDEV_IMO_TRIMMED_BY_WCO == 1u) */
  98:.\Generated_Source\PSoC4/CyLib.c ****     #endif  /* (CY_PSOC4_4100M || CY_PSOC4_4200M) */
  99:.\Generated_Source\PSoC4/CyLib.c **** 
 100:.\Generated_Source\PSoC4/CyLib.c **** }
  33              		.loc 1 100 0
  34              		@ sp needed
  92:.\Generated_Source\PSoC4/CyLib.c ****     CY_SYS_CLK_IMO_CONFIG_REG |= CY_SYS_CLK_IMO_CONFIG_ENABLE;
  35              		.loc 1 92 0
  36 0008 0B43     		orr	r3, r1
  37 000a 1360     		str	r3, [r2]
  38              		.loc 1 100 0
  39 000c 7047     		bx	lr
  40              	.L3:
  41 000e C046     		.align	2
  42              	.L2:
  43 0010 08010B40 		.word	1074462984
  44              		.cfi_endproc
  45              	.LFE2:
  46              		.size	CySysClkImoStart, .-CySysClkImoStart
  47              		.section	.text.CySysClkImoStop,"ax",%progbits
  48              		.align	1
  49              		.global	CySysClkImoStop
  50              		.code	16
  51              		.thumb_func
  52              		.type	CySysClkImoStop, %function
  53              	CySysClkImoStop:
  54              	.LFB3:
 101:.\Generated_Source\PSoC4/CyLib.c **** 
 102:.\Generated_Source\PSoC4/CyLib.c **** 
 103:.\Generated_Source\PSoC4/CyLib.c **** /*******************************************************************************
 104:.\Generated_Source\PSoC4/CyLib.c **** * Function Name: CySysClkImoStop
 105:.\Generated_Source\PSoC4/CyLib.c **** ********************************************************************************
 106:.\Generated_Source\PSoC4/CyLib.c **** *
 107:.\Generated_Source\PSoC4/CyLib.c **** * Summary:
 108:.\Generated_Source\PSoC4/CyLib.c **** *  Disables the IMO.
 109:.\Generated_Source\PSoC4/CyLib.c **** *
 110:.\Generated_Source\PSoC4/CyLib.c **** *  For PSoC 4100M/PSoC 4200M devices , this function will also disable WCO lock
 111:.\Generated_Source\PSoC4/CyLib.c **** *  if already enabled.
 112:.\Generated_Source\PSoC4/CyLib.c **** *
 113:.\Generated_Source\PSoC4/CyLib.c **** * Parameters:
 114:.\Generated_Source\PSoC4/CyLib.c **** *  None
 115:.\Generated_Source\PSoC4/CyLib.c **** *
 116:.\Generated_Source\PSoC4/CyLib.c **** * Return:
ARM GAS  C:\Users\Helon\AppData\Local\Temp\cchg8CAa.s 			page 4


 117:.\Generated_Source\PSoC4/CyLib.c **** *  None
 118:.\Generated_Source\PSoC4/CyLib.c **** *
 119:.\Generated_Source\PSoC4/CyLib.c **** *******************************************************************************/
 120:.\Generated_Source\PSoC4/CyLib.c **** void CySysClkImoStop(void)
 121:.\Generated_Source\PSoC4/CyLib.c **** {
  55              		.loc 1 121 0
  56              		.cfi_startproc
 122:.\Generated_Source\PSoC4/CyLib.c ****     #if (CY_PSOC4_4100M || CY_PSOC4_4200M)
 123:.\Generated_Source\PSoC4/CyLib.c ****         CySysClkImoDisableWcoLock();
 124:.\Generated_Source\PSoC4/CyLib.c ****     #endif  /* #if (CY_PSOC4_4100M || CY_PSOC4_4200M) */
 125:.\Generated_Source\PSoC4/CyLib.c **** 
 126:.\Generated_Source\PSoC4/CyLib.c ****     CY_SYS_CLK_IMO_CONFIG_REG &= ( uint32 ) ( ~( uint32 )CY_SYS_CLK_IMO_CONFIG_ENABLE);
  57              		.loc 1 126 0
  58 0000 024A     		ldr	r2, .L5
 127:.\Generated_Source\PSoC4/CyLib.c **** }
  59              		.loc 1 127 0
  60              		@ sp needed
 126:.\Generated_Source\PSoC4/CyLib.c **** }
  61              		.loc 1 126 0
  62 0002 1368     		ldr	r3, [r2]
  63 0004 5B00     		lsl	r3, r3, #1
  64 0006 5B08     		lsr	r3, r3, #1
  65 0008 1360     		str	r3, [r2]
  66              		.loc 1 127 0
  67 000a 7047     		bx	lr
  68              	.L6:
  69              		.align	2
  70              	.L5:
  71 000c 08010B40 		.word	1074462984
  72              		.cfi_endproc
  73              	.LFE3:
  74              		.size	CySysClkImoStop, .-CySysClkImoStop
  75              		.section	.text.CySysClkWriteHfclkDirect,"ax",%progbits
  76              		.align	1
  77              		.global	CySysClkWriteHfclkDirect
  78              		.code	16
  79              		.thumb_func
  80              		.type	CySysClkWriteHfclkDirect, %function
  81              	CySysClkWriteHfclkDirect:
  82              	.LFB4:
 128:.\Generated_Source\PSoC4/CyLib.c **** 
 129:.\Generated_Source\PSoC4/CyLib.c **** #if (CY_PSOC4_4100M || CY_PSOC4_4200M)
 130:.\Generated_Source\PSoC4/CyLib.c **** 
 131:.\Generated_Source\PSoC4/CyLib.c ****     /*******************************************************************************
 132:.\Generated_Source\PSoC4/CyLib.c ****     * Function Name: CySysClkImoEnableWcoLock
 133:.\Generated_Source\PSoC4/CyLib.c ****     ********************************************************************************
 134:.\Generated_Source\PSoC4/CyLib.c ****     *
 135:.\Generated_Source\PSoC4/CyLib.c ****     * Summary:
 136:.\Generated_Source\PSoC4/CyLib.c ****     *  Enables the IMO to WCO lock feature. This function works only if the WCO is
 137:.\Generated_Source\PSoC4/CyLib.c ****     *  already enabled. If the WCO is not enabled then this function returns
 138:.\Generated_Source\PSoC4/CyLib.c ****     *  without enabling the lock feature.
 139:.\Generated_Source\PSoC4/CyLib.c ****     *
 140:.\Generated_Source\PSoC4/CyLib.c ****     *  This function is applicable for PSoC 4100M/PSoC 4200M devices only.
 141:.\Generated_Source\PSoC4/CyLib.c ****     *
 142:.\Generated_Source\PSoC4/CyLib.c ****     * Parameters:
 143:.\Generated_Source\PSoC4/CyLib.c ****     *  None
 144:.\Generated_Source\PSoC4/CyLib.c ****     *
ARM GAS  C:\Users\Helon\AppData\Local\Temp\cchg8CAa.s 			page 5


 145:.\Generated_Source\PSoC4/CyLib.c ****     * Return:
 146:.\Generated_Source\PSoC4/CyLib.c ****     *  None
 147:.\Generated_Source\PSoC4/CyLib.c ****     *
 148:.\Generated_Source\PSoC4/CyLib.c ****     *******************************************************************************/
 149:.\Generated_Source\PSoC4/CyLib.c ****     void CySysClkImoEnableWcoLock(void)
 150:.\Generated_Source\PSoC4/CyLib.c ****     {
 151:.\Generated_Source\PSoC4/CyLib.c ****         uint32 i;
 152:.\Generated_Source\PSoC4/CyLib.c ****         uint32 freq = CY_SYS_CLK_IMO_MIN_FREQ_MHZ;
 153:.\Generated_Source\PSoC4/CyLib.c ****         uint8  interruptState;
 154:.\Generated_Source\PSoC4/CyLib.c ****         uint32 regTmp;
 155:.\Generated_Source\PSoC4/CyLib.c ****         volatile uint32 flashCtlReg;
 156:.\Generated_Source\PSoC4/CyLib.c **** 
 157:.\Generated_Source\PSoC4/CyLib.c ****         if (0u != CySysClkWcoEnabled())
 158:.\Generated_Source\PSoC4/CyLib.c ****         {
 159:.\Generated_Source\PSoC4/CyLib.c ****             interruptState = CyEnterCriticalSection();
 160:.\Generated_Source\PSoC4/CyLib.c **** 
 161:.\Generated_Source\PSoC4/CyLib.c ****             /* Get current IMO frequency based on the register value */
 162:.\Generated_Source\PSoC4/CyLib.c ****             for(i = 0u; i < CY_SYS_CLK_IMO_FREQ_TABLE_SIZE; i++)
 163:.\Generated_Source\PSoC4/CyLib.c ****             {
 164:.\Generated_Source\PSoC4/CyLib.c ****                 if ((uint8) (CY_SYS_CLK_IMO_TRIM2_REG & CY_SYS_CLK_IMO_FREQ_BITS_MASK) == cyImoFreq
 165:.\Generated_Source\PSoC4/CyLib.c ****                 {
 166:.\Generated_Source\PSoC4/CyLib.c ****                     freq = i + CY_SYS_CLK_IMO_FREQ_TABLE_OFFSET;
 167:.\Generated_Source\PSoC4/CyLib.c ****                     break;
 168:.\Generated_Source\PSoC4/CyLib.c ****                 }
 169:.\Generated_Source\PSoC4/CyLib.c ****             }
 170:.\Generated_Source\PSoC4/CyLib.c **** 
 171:.\Generated_Source\PSoC4/CyLib.c ****             if ((CY_SYS_CLK_IMO_TRIM4_REG & CY_SYS_CLK_IMO_TRIM4_GAIN_MASK) == 0u)
 172:.\Generated_Source\PSoC4/CyLib.c ****             {
 173:.\Generated_Source\PSoC4/CyLib.c **** 			    CY_SYS_CLK_IMO_TRIM4_REG = (CY_SYS_CLK_IMO_TRIM4_REG & (uint32) ~CY_SYS_CLK_IMO_TRIM4_GAIN_M
 174:.\Generated_Source\PSoC4/CyLib.c **** 			             				    CY_SYS_CLK_IMO_TRIM4_GAIN;
 175:.\Generated_Source\PSoC4/CyLib.c ****             }
 176:.\Generated_Source\PSoC4/CyLib.c **** 
 177:.\Generated_Source\PSoC4/CyLib.c ****             regTmp  = CY_SYS_CLK_WCO_DPLL_REG & ~(CY_SYS_CLK_WCO_DPLL_MULT_MASK |
 178:.\Generated_Source\PSoC4/CyLib.c ****                                                   CY_SYS_CLK_WCO_CONFIG_DPLL_LF_IGAIN_MASK |
 179:.\Generated_Source\PSoC4/CyLib.c ****                                                   CY_SYS_CLK_WCO_CONFIG_DPLL_LF_PGAIN_MASK);
 180:.\Generated_Source\PSoC4/CyLib.c **** 
 181:.\Generated_Source\PSoC4/CyLib.c ****             /* Set multiplier to determine IMO frequency in multiples of the WCO frequency */
 182:.\Generated_Source\PSoC4/CyLib.c ****             regTmp |= (CY_SYS_CLK_WCO_DPLL_MULT_VALUE(freq) & CY_SYS_CLK_WCO_DPLL_MULT_MASK);
 183:.\Generated_Source\PSoC4/CyLib.c **** 
 184:.\Generated_Source\PSoC4/CyLib.c ****             /* Set DPLL Loop Filter Integral and Proportional Gains Setting */
 185:.\Generated_Source\PSoC4/CyLib.c ****             regTmp |= (CY_SYS_CLK_WCO_CONFIG_DPLL_LF_IGAIN | CY_SYS_CLK_WCO_CONFIG_DPLL_LF_PGAIN);
 186:.\Generated_Source\PSoC4/CyLib.c **** 
 187:.\Generated_Source\PSoC4/CyLib.c ****             CY_SYS_CLK_WCO_DPLL_REG = regTmp;
 188:.\Generated_Source\PSoC4/CyLib.c **** 
 189:.\Generated_Source\PSoC4/CyLib.c ****             flashCtlReg = CY_FLASH_CTL_REG;
 190:.\Generated_Source\PSoC4/CyLib.c ****             CySysFlashSetWaitCycles(CY_SYS_CLK_IMO_MAX_FREQ_MHZ);
 191:.\Generated_Source\PSoC4/CyLib.c ****             CY_SYS_CLK_WCO_CONFIG_REG |= CY_SYS_CLK_WCO_CONFIG_DPLL_ENABLE;
 192:.\Generated_Source\PSoC4/CyLib.c ****             CyDelay(320u);
 193:.\Generated_Source\PSoC4/CyLib.c ****             CY_FLASH_CTL_REG = flashCtlReg;
 194:.\Generated_Source\PSoC4/CyLib.c **** 
 195:.\Generated_Source\PSoC4/CyLib.c ****             CyExitCriticalSection(interruptState);
 196:.\Generated_Source\PSoC4/CyLib.c ****         }
 197:.\Generated_Source\PSoC4/CyLib.c ****     }
 198:.\Generated_Source\PSoC4/CyLib.c **** 
 199:.\Generated_Source\PSoC4/CyLib.c **** 
 200:.\Generated_Source\PSoC4/CyLib.c ****     /*******************************************************************************
 201:.\Generated_Source\PSoC4/CyLib.c ****     * Function Name: CySysClkImoDisableWcoLock
ARM GAS  C:\Users\Helon\AppData\Local\Temp\cchg8CAa.s 			page 6


 202:.\Generated_Source\PSoC4/CyLib.c ****     ********************************************************************************
 203:.\Generated_Source\PSoC4/CyLib.c ****     *
 204:.\Generated_Source\PSoC4/CyLib.c ****     * Summary:
 205:.\Generated_Source\PSoC4/CyLib.c ****     *  Disables the IMO to WCO lock feature.
 206:.\Generated_Source\PSoC4/CyLib.c ****     *
 207:.\Generated_Source\PSoC4/CyLib.c ****     *  This function is applicable for PSoC 4100M/PSoC 4200M devices only.
 208:.\Generated_Source\PSoC4/CyLib.c ****     *
 209:.\Generated_Source\PSoC4/CyLib.c ****     * Parameters:
 210:.\Generated_Source\PSoC4/CyLib.c ****     *  None
 211:.\Generated_Source\PSoC4/CyLib.c ****     *
 212:.\Generated_Source\PSoC4/CyLib.c ****     * Return:
 213:.\Generated_Source\PSoC4/CyLib.c ****     *  None
 214:.\Generated_Source\PSoC4/CyLib.c ****     *
 215:.\Generated_Source\PSoC4/CyLib.c ****     *******************************************************************************/
 216:.\Generated_Source\PSoC4/CyLib.c ****     void CySysClkImoDisableWcoLock(void)
 217:.\Generated_Source\PSoC4/CyLib.c ****     {
 218:.\Generated_Source\PSoC4/CyLib.c ****         CY_SYS_CLK_WCO_CONFIG_REG &= (uint32) ~CY_SYS_CLK_WCO_CONFIG_DPLL_ENABLE;
 219:.\Generated_Source\PSoC4/CyLib.c ****     }
 220:.\Generated_Source\PSoC4/CyLib.c **** 
 221:.\Generated_Source\PSoC4/CyLib.c **** 
 222:.\Generated_Source\PSoC4/CyLib.c ****     /*******************************************************************************
 223:.\Generated_Source\PSoC4/CyLib.c ****     * Function Name: CySysClkImoGetWcoLock
 224:.\Generated_Source\PSoC4/CyLib.c ****     ********************************************************************************
 225:.\Generated_Source\PSoC4/CyLib.c ****     *
 226:.\Generated_Source\PSoC4/CyLib.c ****     * Summary:
 227:.\Generated_Source\PSoC4/CyLib.c ****     *  Reports the IMO to WCO lock enable state.
 228:.\Generated_Source\PSoC4/CyLib.c ****     *
 229:.\Generated_Source\PSoC4/CyLib.c ****     *  This function is applicable for PSoC 4100M/PSoC 4200M devices only.
 230:.\Generated_Source\PSoC4/CyLib.c ****     *
 231:.\Generated_Source\PSoC4/CyLib.c ****     * Parameters:
 232:.\Generated_Source\PSoC4/CyLib.c ****     *  None
 233:.\Generated_Source\PSoC4/CyLib.c ****     *
 234:.\Generated_Source\PSoC4/CyLib.c ****     * Return:
 235:.\Generated_Source\PSoC4/CyLib.c ****     *  1 if IMO to WCO lock is enabled, and 0 if IMO to WCO lock is disabled.
 236:.\Generated_Source\PSoC4/CyLib.c ****     *
 237:.\Generated_Source\PSoC4/CyLib.c ****     *******************************************************************************/
 238:.\Generated_Source\PSoC4/CyLib.c ****     static uint32 CySysClkImoGetWcoLock(void)
 239:.\Generated_Source\PSoC4/CyLib.c ****     {
 240:.\Generated_Source\PSoC4/CyLib.c ****         return ((0u != (CY_SYS_CLK_WCO_CONFIG_REG & CY_SYS_CLK_WCO_CONFIG_DPLL_ENABLE)) ?
 241:.\Generated_Source\PSoC4/CyLib.c ****                 (uint32) 1u :
 242:.\Generated_Source\PSoC4/CyLib.c ****                 (uint32) 0u);
 243:.\Generated_Source\PSoC4/CyLib.c ****     }
 244:.\Generated_Source\PSoC4/CyLib.c **** 
 245:.\Generated_Source\PSoC4/CyLib.c **** #endif /* (CY_PSOC4_4100M || CY_PSOC4_4200M) */
 246:.\Generated_Source\PSoC4/CyLib.c **** 
 247:.\Generated_Source\PSoC4/CyLib.c **** 
 248:.\Generated_Source\PSoC4/CyLib.c **** /*******************************************************************************
 249:.\Generated_Source\PSoC4/CyLib.c **** * Function Name: CySysClkWriteHfclkDirect
 250:.\Generated_Source\PSoC4/CyLib.c **** ********************************************************************************
 251:.\Generated_Source\PSoC4/CyLib.c **** *
 252:.\Generated_Source\PSoC4/CyLib.c **** * Summary:
 253:.\Generated_Source\PSoC4/CyLib.c **** *  Selects the direct source for the HFCLK.
 254:.\Generated_Source\PSoC4/CyLib.c **** *
 255:.\Generated_Source\PSoC4/CyLib.c **** * Parameters:
 256:.\Generated_Source\PSoC4/CyLib.c **** *  clkSelect: One of the available HFCLK direct sources:
 257:.\Generated_Source\PSoC4/CyLib.c **** *   Define                    Source
 258:.\Generated_Source\PSoC4/CyLib.c **** *    CY_SYS_CLK_HFCLK_IMO     IMO
ARM GAS  C:\Users\Helon\AppData\Local\Temp\cchg8CAa.s 			page 7


 259:.\Generated_Source\PSoC4/CyLib.c **** *    CY_SYS_CLK_HFCLK_EXTCLK  External clock pin
 260:.\Generated_Source\PSoC4/CyLib.c **** *    CY_SYS_CLK_HFCLK_ECO     External crystal oscillator
 261:.\Generated_Source\PSoC4/CyLib.c **** *                             (applicable only for PSoC 4100-BL / PSoC 4200-BL)
 262:.\Generated_Source\PSoC4/CyLib.c **** *
 263:.\Generated_Source\PSoC4/CyLib.c **** * Return:
 264:.\Generated_Source\PSoC4/CyLib.c **** *  None
 265:.\Generated_Source\PSoC4/CyLib.c **** *
 266:.\Generated_Source\PSoC4/CyLib.c **** * Side Effects:
 267:.\Generated_Source\PSoC4/CyLib.c **** *  The new source must be running and stable before calling this function.
 268:.\Generated_Source\PSoC4/CyLib.c **** *
 269:.\Generated_Source\PSoC4/CyLib.c **** *  PSoC 4000:
 270:.\Generated_Source\PSoC4/CyLib.c **** *  The SYSCLK has a maximum speed of 16 MHz, so HFCLK and SYSCLK dividers should
 271:.\Generated_Source\PSoC4/CyLib.c **** *  be selected in a way to not to exceed 16 MHz for the System clock.
 272:.\Generated_Source\PSoC4/CyLib.c **** *
 273:.\Generated_Source\PSoC4/CyLib.c **** *  If the SYSCLK clock frequency increases during device operation, call
 274:.\Generated_Source\PSoC4/CyLib.c **** *  CySysFlashSetWaitCycles() with the appropriate parameter to adjust the number
 275:.\Generated_Source\PSoC4/CyLib.c **** *  of clock cycles the cache will wait before sampling data comes back from
 276:.\Generated_Source\PSoC4/CyLib.c **** *  Flash. If the SYSCLK clock frequency decreases, you can call
 277:.\Generated_Source\PSoC4/CyLib.c **** *  CySysFlashSetWaitCycles() to improve the CPU performance. See
 278:.\Generated_Source\PSoC4/CyLib.c **** *  CySysFlashSetWaitCycles() description for more information.
 279:.\Generated_Source\PSoC4/CyLib.c **** *
 280:.\Generated_Source\PSoC4/CyLib.c **** *******************************************************************************/
 281:.\Generated_Source\PSoC4/CyLib.c **** void CySysClkWriteHfclkDirect(uint32 clkSelect)
 282:.\Generated_Source\PSoC4/CyLib.c **** {
  83              		.loc 1 282 0
  84              		.cfi_startproc
  85              	.LVL0:
  86 0000 10B5     		push	{r4, lr}
  87              		.cfi_def_cfa_offset 8
  88              		.cfi_offset 4, -8
  89              		.cfi_offset 14, -4
  90              		.loc 1 282 0
  91 0002 041C     		mov	r4, r0
 283:.\Generated_Source\PSoC4/CyLib.c ****     uint8  interruptState;
 284:.\Generated_Source\PSoC4/CyLib.c **** 
 285:.\Generated_Source\PSoC4/CyLib.c ****     interruptState = CyEnterCriticalSection();
  92              		.loc 1 285 0
  93 0004 FFF7FEFF 		bl	CyEnterCriticalSection
  94              	.LVL1:
 286:.\Generated_Source\PSoC4/CyLib.c **** 
 287:.\Generated_Source\PSoC4/CyLib.c ****     CY_SYS_CLK_SELECT_REG = ((CY_SYS_CLK_SELECT_REG & (( uint32 ) ~(( uint32 )CY_SYS_CLK_SELECT_DIR
 288:.\Generated_Source\PSoC4/CyLib.c ****                         (( uint32 ) (clkSelect & ( uint32 )CY_SYS_CLK_SELECT_DIRECT_SEL_PARAM_MASK)
  95              		.loc 1 288 0
  96 0008 0323     		mov	r3, #3
  97 000a 2340     		and	r3, r4
 287:.\Generated_Source\PSoC4/CyLib.c ****                         (( uint32 ) (clkSelect & ( uint32 )CY_SYS_CLK_SELECT_DIRECT_SEL_PARAM_MASK)
  98              		.loc 1 287 0
  99 000c 0724     		mov	r4, #7
 100              	.LVL2:
 101 000e 0449     		ldr	r1, .L8
 289:.\Generated_Source\PSoC4/CyLib.c **** 
 290:.\Generated_Source\PSoC4/CyLib.c ****     CyExitCriticalSection(interruptState);
 291:.\Generated_Source\PSoC4/CyLib.c **** }
 102              		.loc 1 291 0
 103              		@ sp needed
 287:.\Generated_Source\PSoC4/CyLib.c ****                         (( uint32 ) (clkSelect & ( uint32 )CY_SYS_CLK_SELECT_DIRECT_SEL_PARAM_MASK)
 104              		.loc 1 287 0
ARM GAS  C:\Users\Helon\AppData\Local\Temp\cchg8CAa.s 			page 8


 105 0010 0A68     		ldr	r2, [r1]
 106 0012 A243     		bic	r2, r4
 107 0014 1343     		orr	r3, r2
 108 0016 0B60     		str	r3, [r1]
 290:.\Generated_Source\PSoC4/CyLib.c **** }
 109              		.loc 1 290 0
 110 0018 FFF7FEFF 		bl	CyExitCriticalSection
 111              	.LVL3:
 112              		.loc 1 291 0
 113 001c 10BD     		pop	{r4, pc}
 114              	.L9:
 115 001e C046     		.align	2
 116              	.L8:
 117 0020 00010B40 		.word	1074462976
 118              		.cfi_endproc
 119              	.LFE4:
 120              		.size	CySysClkWriteHfclkDirect, .-CySysClkWriteHfclkDirect
 121              		.section	.text.CySysClkWriteSysclkDiv,"ax",%progbits
 122              		.align	1
 123              		.global	CySysClkWriteSysclkDiv
 124              		.code	16
 125              		.thumb_func
 126              		.type	CySysClkWriteSysclkDiv, %function
 127              	CySysClkWriteSysclkDiv:
 128              	.LFB5:
 292:.\Generated_Source\PSoC4/CyLib.c **** 
 293:.\Generated_Source\PSoC4/CyLib.c **** 
 294:.\Generated_Source\PSoC4/CyLib.c **** /*******************************************************************************
 295:.\Generated_Source\PSoC4/CyLib.c **** * Function Name: CySysClkWriteSysclkDiv
 296:.\Generated_Source\PSoC4/CyLib.c **** ********************************************************************************
 297:.\Generated_Source\PSoC4/CyLib.c **** *
 298:.\Generated_Source\PSoC4/CyLib.c **** * Summary:
 299:.\Generated_Source\PSoC4/CyLib.c **** *  Selects the prescaler divide amount for SYSCLK from HFCLK.
 300:.\Generated_Source\PSoC4/CyLib.c **** *
 301:.\Generated_Source\PSoC4/CyLib.c **** * Parameters:
 302:.\Generated_Source\PSoC4/CyLib.c **** *  divider: Power of 2 prescaler selection
 303:.\Generated_Source\PSoC4/CyLib.c **** *
 304:.\Generated_Source\PSoC4/CyLib.c **** *   Define                        Description
 305:.\Generated_Source\PSoC4/CyLib.c **** *   CY_SYS_CLK_SYSCLK_DIV1        SYSCLK = HFCLK / 1
 306:.\Generated_Source\PSoC4/CyLib.c **** *   CY_SYS_CLK_SYSCLK_DIV2        SYSCLK = HFCLK / 2
 307:.\Generated_Source\PSoC4/CyLib.c **** *   CY_SYS_CLK_SYSCLK_DIV4        SYSCLK = HFCLK / 4
 308:.\Generated_Source\PSoC4/CyLib.c **** *   CY_SYS_CLK_SYSCLK_DIV8        SYSCLK = HFCLK / 8
 309:.\Generated_Source\PSoC4/CyLib.c **** *   CY_SYS_CLK_SYSCLK_DIV16       SYSCLK = HFCLK / 16  (N/A for 4000 Family)
 310:.\Generated_Source\PSoC4/CyLib.c **** *   CY_SYS_CLK_SYSCLK_DIV32       SYSCLK = HFCLK / 32  (N/A for 4000 Family)
 311:.\Generated_Source\PSoC4/CyLib.c **** *   CY_SYS_CLK_SYSCLK_DIV64       SYSCLK = HFCLK / 64  (N/A for 4000 Family)
 312:.\Generated_Source\PSoC4/CyLib.c **** *   CY_SYS_CLK_SYSCLK_DIV128      SYSCLK = HFCLK / 128 (N/A for 4000 Family)
 313:.\Generated_Source\PSoC4/CyLib.c **** *
 314:.\Generated_Source\PSoC4/CyLib.c **** * Return:
 315:.\Generated_Source\PSoC4/CyLib.c **** *  None
 316:.\Generated_Source\PSoC4/CyLib.c **** *
 317:.\Generated_Source\PSoC4/CyLib.c **** * Side Effects:
 318:.\Generated_Source\PSoC4/CyLib.c **** *  4000 Family:
 319:.\Generated_Source\PSoC4/CyLib.c **** *  The SYS_CLK has the speed of 16 MHz, so dividers HF_CLK and SYS_CLK
 320:.\Generated_Source\PSoC4/CyLib.c **** *  dividers should be selected in a way, not to exceed 16 MHz for SYS_CLK.
 321:.\Generated_Source\PSoC4/CyLib.c **** *
 322:.\Generated_Source\PSoC4/CyLib.c **** *  If the SYSCLK clock frequency increases during the device operation, call
 323:.\Generated_Source\PSoC4/CyLib.c **** *  CySysFlashSetWaitCycles() with the appropriate parameter to adjust the number
ARM GAS  C:\Users\Helon\AppData\Local\Temp\cchg8CAa.s 			page 9


 324:.\Generated_Source\PSoC4/CyLib.c **** *  of clock cycles the cache will wait before sampling data comes back from
 325:.\Generated_Source\PSoC4/CyLib.c **** *  Flash. If the SYSCLK clock frequency decreases, you can call
 326:.\Generated_Source\PSoC4/CyLib.c **** *  CySysFlashSetWaitCycles() to improve the CPU performance. See
 327:.\Generated_Source\PSoC4/CyLib.c **** *  CySysFlashSetWaitCycles() description for more information.
 328:.\Generated_Source\PSoC4/CyLib.c **** *
 329:.\Generated_Source\PSoC4/CyLib.c **** *******************************************************************************/
 330:.\Generated_Source\PSoC4/CyLib.c **** void CySysClkWriteSysclkDiv(uint32 divider)
 331:.\Generated_Source\PSoC4/CyLib.c **** {
 129              		.loc 1 331 0
 130              		.cfi_startproc
 131              	.LVL4:
 132 0000 38B5     		push	{r3, r4, r5, lr}
 133              		.cfi_def_cfa_offset 16
 134              		.cfi_offset 3, -16
 135              		.cfi_offset 4, -12
 136              		.cfi_offset 5, -8
 137              		.cfi_offset 14, -4
 138              		.loc 1 331 0
 139 0002 051C     		mov	r5, r0
 332:.\Generated_Source\PSoC4/CyLib.c ****     uint8  interruptState;
 333:.\Generated_Source\PSoC4/CyLib.c **** 
 334:.\Generated_Source\PSoC4/CyLib.c ****     interruptState = CyEnterCriticalSection();
 140              		.loc 1 334 0
 141 0004 FFF7FEFF 		bl	CyEnterCriticalSection
 142              	.LVL5:
 335:.\Generated_Source\PSoC4/CyLib.c **** 
 336:.\Generated_Source\PSoC4/CyLib.c ****     CY_SYS_CLK_SELECT_REG = ((uint32)(((uint32)divider & CY_SYS_CLK_SELECT_SYSCLK_DIV_MASK) <<
 143              		.loc 1 336 0
 144 0008 0721     		mov	r1, #7
 337:.\Generated_Source\PSoC4/CyLib.c ****                                     CY_SYS_CLK_SELECT_SYSCLK_DIV_SHIFT)) |
 338:.\Generated_Source\PSoC4/CyLib.c ****                             (CY_SYS_CLK_SELECT_REG & ((uint32)(~(uint32)(CY_SYS_CLK_SELECT_SYSCLK_D
 145              		.loc 1 338 0
 146 000a 054C     		ldr	r4, .L11
 147 000c 054A     		ldr	r2, .L11+4
 148 000e 2368     		ldr	r3, [r4]
 336:.\Generated_Source\PSoC4/CyLib.c ****                                     CY_SYS_CLK_SELECT_SYSCLK_DIV_SHIFT)) |
 149              		.loc 1 336 0
 150 0010 2940     		and	r1, r5
 151 0012 C904     		lsl	r1, r1, #19
 152              		.loc 1 338 0
 153 0014 1340     		and	r3, r2
 337:.\Generated_Source\PSoC4/CyLib.c ****                                     CY_SYS_CLK_SELECT_SYSCLK_DIV_SHIFT)) |
 154              		.loc 1 337 0
 155 0016 0B43     		orr	r3, r1
 336:.\Generated_Source\PSoC4/CyLib.c ****                                     CY_SYS_CLK_SELECT_SYSCLK_DIV_SHIFT)) |
 156              		.loc 1 336 0
 157 0018 2360     		str	r3, [r4]
 339:.\Generated_Source\PSoC4/CyLib.c ****                                     CY_SYS_CLK_SELECT_SYSCLK_DIV_SHIFT))));
 340:.\Generated_Source\PSoC4/CyLib.c **** 
 341:.\Generated_Source\PSoC4/CyLib.c ****     CyExitCriticalSection(interruptState);
 158              		.loc 1 341 0
 159 001a FFF7FEFF 		bl	CyExitCriticalSection
 160              	.LVL6:
 342:.\Generated_Source\PSoC4/CyLib.c **** }
 161              		.loc 1 342 0
 162              		@ sp needed
 163              	.LVL7:
ARM GAS  C:\Users\Helon\AppData\Local\Temp\cchg8CAa.s 			page 10


 164 001e 38BD     		pop	{r3, r4, r5, pc}
 165              	.L12:
 166              		.align	2
 167              	.L11:
 168 0020 00010B40 		.word	1074462976
 169 0024 FFFFC7FF 		.word	-3670017
 170              		.cfi_endproc
 171              	.LFE5:
 172              		.size	CySysClkWriteSysclkDiv, .-CySysClkWriteSysclkDiv
 173              		.section	.text.CySysClkWriteImoFreq,"ax",%progbits
 174              		.align	1
 175              		.global	CySysClkWriteImoFreq
 176              		.code	16
 177              		.thumb_func
 178              		.type	CySysClkWriteImoFreq, %function
 179              	CySysClkWriteImoFreq:
 180              	.LFB6:
 343:.\Generated_Source\PSoC4/CyLib.c **** 
 344:.\Generated_Source\PSoC4/CyLib.c **** 
 345:.\Generated_Source\PSoC4/CyLib.c **** /*******************************************************************************
 346:.\Generated_Source\PSoC4/CyLib.c **** * Function Name: CySysClkWriteImoFreq
 347:.\Generated_Source\PSoC4/CyLib.c **** ********************************************************************************
 348:.\Generated_Source\PSoC4/CyLib.c **** *
 349:.\Generated_Source\PSoC4/CyLib.c **** * Summary:
 350:.\Generated_Source\PSoC4/CyLib.c **** *  Sets the frequency of the IMO.
 351:.\Generated_Source\PSoC4/CyLib.c **** *
 352:.\Generated_Source\PSoC4/CyLib.c **** *  If IMO is currently driving the HFCLK, and if the HFCLK frequency decreases,
 353:.\Generated_Source\PSoC4/CyLib.c **** *  you can call CySysFlashSetWaitCycles () to improve CPU performance. See
 354:.\Generated_Source\PSoC4/CyLib.c **** *  CySysFlashSetWaitCycles () for more information.
 355:.\Generated_Source\PSoC4/CyLib.c **** *
 356:.\Generated_Source\PSoC4/CyLib.c **** *  For PSoC 4000 family of devices, maximum HFCLK frequency is 16 MHz. If IMO is
 357:.\Generated_Source\PSoC4/CyLib.c **** *  configured to frequencies above 16 MHz, ensure to set the appropriate HFCLK
 358:.\Generated_Source\PSoC4/CyLib.c **** *  predivider value first.
 359:.\Generated_Source\PSoC4/CyLib.c **** *
 360:.\Generated_Source\PSoC4/CyLib.c **** *  For PSoC 4100M/PSoC 4200M devices, if WCO lock feature is enabled then this
 361:.\Generated_Source\PSoC4/CyLib.c **** *  API will disable the lock, write the new IMO frequency and then re-enable the
 362:.\Generated_Source\PSoC4/CyLib.c **** *  lock.
 363:.\Generated_Source\PSoC4/CyLib.c **** *
 364:.\Generated_Source\PSoC4/CyLib.c **** * Parameters:
 365:.\Generated_Source\PSoC4/CyLib.c **** *  All PSoC 4 families excluding PSoC 4000: Valid range [3-48] with step size
 366:.\Generated_Source\PSoC4/CyLib.c **** *  equals 1.
 367:.\Generated_Source\PSoC4/CyLib.c **** *
 368:.\Generated_Source\PSoC4/CyLib.c **** *  PSoC 4000: Valid range [24-48] with step size equals 4.
 369:.\Generated_Source\PSoC4/CyLib.c **** *
 370:.\Generated_Source\PSoC4/CyLib.c **** *  Note: The CPU is halted if new frequency is invalid and project is
 371:.\Generated_Source\PSoC4/CyLib.c **** *  compiled in debug mode.
 372:.\Generated_Source\PSoC4/CyLib.c **** *
 373:.\Generated_Source\PSoC4/CyLib.c **** * Return:
 374:.\Generated_Source\PSoC4/CyLib.c **** *  None
 375:.\Generated_Source\PSoC4/CyLib.c **** *
 376:.\Generated_Source\PSoC4/CyLib.c **** * Side Effects:
 377:.\Generated_Source\PSoC4/CyLib.c **** *  If the SYSCLK clock frequency increases during the device operation, call
 378:.\Generated_Source\PSoC4/CyLib.c **** *  CySysFlashSetWaitCycles() with the appropriate parameter to adjust the number
 379:.\Generated_Source\PSoC4/CyLib.c **** *  of clock cycles the cache will wait before sampling data comes back from
 380:.\Generated_Source\PSoC4/CyLib.c **** *  Flash. If the SYSCLK clock frequency decreases, you can call
 381:.\Generated_Source\PSoC4/CyLib.c **** *  CySysFlashSetWaitCycles() to improve the CPU performance. See
 382:.\Generated_Source\PSoC4/CyLib.c **** *  CySysFlashSetWaitCycles() description for more information.
ARM GAS  C:\Users\Helon\AppData\Local\Temp\cchg8CAa.s 			page 11


 383:.\Generated_Source\PSoC4/CyLib.c **** *
 384:.\Generated_Source\PSoC4/CyLib.c **** *  PSoC 4000: The System Clock (SYSCLK) has maximum speed of 16 MHz, so HFCLK
 385:.\Generated_Source\PSoC4/CyLib.c **** *  and SYSCLK dividers should be selected in a way, to not to exceed 16 MHz for
 386:.\Generated_Source\PSoC4/CyLib.c **** *  the System clock.
 387:.\Generated_Source\PSoC4/CyLib.c **** *
 388:.\Generated_Source\PSoC4/CyLib.c **** *******************************************************************************/
 389:.\Generated_Source\PSoC4/CyLib.c **** #if(CY_IP_SRSSV2)
 390:.\Generated_Source\PSoC4/CyLib.c ****     void CySysClkWriteImoFreq(uint32 freq)
 391:.\Generated_Source\PSoC4/CyLib.c ****     {
 181              		.loc 1 391 0
 182              		.cfi_startproc
 183              	.LVL8:
 184 0000 10B5     		push	{r4, lr}
 185              		.cfi_def_cfa_offset 8
 186              		.cfi_offset 4, -8
 187              		.cfi_offset 14, -4
 188 0002 041C     		mov	r4, r0
 189 0004 86B0     		sub	sp, sp, #24
 190              		.cfi_def_cfa_offset 32
 392:.\Generated_Source\PSoC4/CyLib.c ****         #if (CY_IP_FMLT)
 393:.\Generated_Source\PSoC4/CyLib.c ****             volatile uint32   parameters[2u];
 394:.\Generated_Source\PSoC4/CyLib.c ****             volatile uint32   regValues[4u];
 395:.\Generated_Source\PSoC4/CyLib.c ****         #else
 396:.\Generated_Source\PSoC4/CyLib.c ****             uint8  bgTrim4;
 397:.\Generated_Source\PSoC4/CyLib.c ****             uint8  bgTrim5;
 398:.\Generated_Source\PSoC4/CyLib.c ****             uint8  newImoTrim2Value;
 399:.\Generated_Source\PSoC4/CyLib.c ****             uint8  currentImoTrim2Value;
 400:.\Generated_Source\PSoC4/CyLib.c ****         #endif /* (CY_IP_FM) */
 401:.\Generated_Source\PSoC4/CyLib.c **** 
 402:.\Generated_Source\PSoC4/CyLib.c ****         #if (CY_PSOC4_4100M || CY_PSOC4_4200M)
 403:.\Generated_Source\PSoC4/CyLib.c ****             uint32 wcoLock = 0u;
 404:.\Generated_Source\PSoC4/CyLib.c ****         #endif  /* #if (CY_PSOC4_4100M || CY_PSOC4_4200M) */
 405:.\Generated_Source\PSoC4/CyLib.c **** 
 406:.\Generated_Source\PSoC4/CyLib.c ****         uint8  interruptState;
 407:.\Generated_Source\PSoC4/CyLib.c **** 
 408:.\Generated_Source\PSoC4/CyLib.c **** 
 409:.\Generated_Source\PSoC4/CyLib.c ****         interruptState = CyEnterCriticalSection();
 191              		.loc 1 409 0
 192 0006 FFF7FEFF 		bl	CyEnterCriticalSection
 193              	.LVL9:
 410:.\Generated_Source\PSoC4/CyLib.c **** 
 411:.\Generated_Source\PSoC4/CyLib.c ****         #if (CY_PSOC4_4100M || CY_PSOC4_4200M)
 412:.\Generated_Source\PSoC4/CyLib.c ****             if(0u != CySysClkImoGetWcoLock())
 413:.\Generated_Source\PSoC4/CyLib.c ****             {
 414:.\Generated_Source\PSoC4/CyLib.c ****                 wcoLock = 1u;
 415:.\Generated_Source\PSoC4/CyLib.c ****                 CySysClkImoDisableWcoLock();
 416:.\Generated_Source\PSoC4/CyLib.c ****             }
 417:.\Generated_Source\PSoC4/CyLib.c ****         #endif  /* #if (CY_PSOC4_4100M || CY_PSOC4_4200M) */
 418:.\Generated_Source\PSoC4/CyLib.c **** 
 419:.\Generated_Source\PSoC4/CyLib.c ****         #if (CY_IP_FMLT)
 420:.\Generated_Source\PSoC4/CyLib.c **** 
 421:.\Generated_Source\PSoC4/CyLib.c ****             /* FM-Lite Clock Restore */
 422:.\Generated_Source\PSoC4/CyLib.c ****             regValues[0u] = CY_SYS_CLK_IMO_CONFIG_REG;
 194              		.loc 1 422 0
 195 000a 0E4B     		ldr	r3, .L14
 423:.\Generated_Source\PSoC4/CyLib.c ****             regValues[1u] = CY_SYS_CLK_SELECT_REG;
 424:.\Generated_Source\PSoC4/CyLib.c ****             regValues[2u] = cyImoFreqMhz2Reg[freq - CY_SYS_CLK_IMO_FREQ_TABLE_OFFSET];
ARM GAS  C:\Users\Helon\AppData\Local\Temp\cchg8CAa.s 			page 12


 425:.\Generated_Source\PSoC4/CyLib.c ****             regValues[3u] = CY_FLASH_CTL_REG;
 426:.\Generated_Source\PSoC4/CyLib.c **** 
 427:.\Generated_Source\PSoC4/CyLib.c ****             parameters[0u] =
 428:.\Generated_Source\PSoC4/CyLib.c ****                 (uint32) ((CY_FLASH_KEY_TWO(CY_FLASH_API_OPCODE_CLK_RESTORE) <<  CY_FLASH_PARAM_KEY
 429:.\Generated_Source\PSoC4/CyLib.c ****                             CY_FLASH_KEY_ONE);
 430:.\Generated_Source\PSoC4/CyLib.c ****             parameters[1u] = (uint32) &regValues[0u];
 431:.\Generated_Source\PSoC4/CyLib.c **** 
 432:.\Generated_Source\PSoC4/CyLib.c ****             CY_FLASH_CPUSS_SYSARG_REG = (uint32) &parameters[0u];
 433:.\Generated_Source\PSoC4/CyLib.c ****             CY_FLASH_CPUSS_SYSREQ_REG = CY_FLASH_CPUSS_REQ_START | CY_FLASH_API_OPCODE_CLK_RESTORE;
 196              		.loc 1 433 0
 197 000c 0E49     		ldr	r1, .L14+4
 422:.\Generated_Source\PSoC4/CyLib.c ****             regValues[1u] = CY_SYS_CLK_SELECT_REG;
 198              		.loc 1 422 0
 199 000e 1A68     		ldr	r2, [r3]
 200 0010 02AB     		add	r3, sp, #8
 201 0012 0292     		str	r2, [sp, #8]
 423:.\Generated_Source\PSoC4/CyLib.c ****             regValues[1u] = CY_SYS_CLK_SELECT_REG;
 202              		.loc 1 423 0
 203 0014 0D4A     		ldr	r2, .L14+8
 204 0016 1268     		ldr	r2, [r2]
 205 0018 0392     		str	r2, [sp, #12]
 424:.\Generated_Source\PSoC4/CyLib.c ****             regValues[3u] = CY_FLASH_CTL_REG;
 206              		.loc 1 424 0
 207 001a 0D4A     		ldr	r2, .L14+12
 208 001c 1419     		add	r4, r2, r4
 209              	.LVL10:
 210 001e 033C     		sub	r4, r4, #3
 211 0020 2278     		ldrb	r2, [r4]
 212 0022 0492     		str	r2, [sp, #16]
 425:.\Generated_Source\PSoC4/CyLib.c **** 
 213              		.loc 1 425 0
 214 0024 0B4A     		ldr	r2, .L14+16
 215 0026 1268     		ldr	r2, [r2]
 216 0028 0592     		str	r2, [sp, #20]
 427:.\Generated_Source\PSoC4/CyLib.c ****                 (uint32) ((CY_FLASH_KEY_TWO(CY_FLASH_API_OPCODE_CLK_RESTORE) <<  CY_FLASH_PARAM_KEY
 217              		.loc 1 427 0
 218 002a 0B4A     		ldr	r2, .L14+20
 219 002c 0092     		str	r2, [sp]
 432:.\Generated_Source\PSoC4/CyLib.c ****             CY_FLASH_CPUSS_SYSREQ_REG = CY_FLASH_CPUSS_REQ_START | CY_FLASH_API_OPCODE_CLK_RESTORE;
 220              		.loc 1 432 0
 221 002e 6A46     		mov	r2, sp
 430:.\Generated_Source\PSoC4/CyLib.c **** 
 222              		.loc 1 430 0
 223 0030 0193     		str	r3, [sp, #4]
 432:.\Generated_Source\PSoC4/CyLib.c ****             CY_FLASH_CPUSS_SYSREQ_REG = CY_FLASH_CPUSS_REQ_START | CY_FLASH_API_OPCODE_CLK_RESTORE;
 224              		.loc 1 432 0
 225 0032 0A4B     		ldr	r3, .L14+24
 226 0034 1A60     		str	r2, [r3]
 227              		.loc 1 433 0
 228 0036 0A4A     		ldr	r2, .L14+28
 229 0038 1160     		str	r1, [r2]
 434:.\Generated_Source\PSoC4/CyLib.c ****             (void) CY_FLASH_CPUSS_SYSARG_REG;
 230              		.loc 1 434 0
 231 003a 1B68     		ldr	r3, [r3]
 435:.\Generated_Source\PSoC4/CyLib.c **** 
 436:.\Generated_Source\PSoC4/CyLib.c ****         #else /* (CY_IP_FM) */
 437:.\Generated_Source\PSoC4/CyLib.c **** 
ARM GAS  C:\Users\Helon\AppData\Local\Temp\cchg8CAa.s 			page 13


 438:.\Generated_Source\PSoC4/CyLib.c ****         if ((freq >= CY_SYS_CLK_IMO_MIN_FREQ_MHZ) && (freq <= CY_SYS_CLK_IMO_MAX_FREQ_MHZ))
 439:.\Generated_Source\PSoC4/CyLib.c ****         {
 440:.\Generated_Source\PSoC4/CyLib.c ****             if(freq <= CY_SFLASH_IMO_MAXF0_REG)
 441:.\Generated_Source\PSoC4/CyLib.c ****             {
 442:.\Generated_Source\PSoC4/CyLib.c ****                 bgTrim4 = CY_SFLASH_IMO_ABS0_REG;
 443:.\Generated_Source\PSoC4/CyLib.c ****                 bgTrim5 = CY_SFLASH_IMO_TMPCO0_REG;
 444:.\Generated_Source\PSoC4/CyLib.c ****             }
 445:.\Generated_Source\PSoC4/CyLib.c ****             else if(freq <= CY_SFLASH_IMO_MAXF1_REG)
 446:.\Generated_Source\PSoC4/CyLib.c ****             {
 447:.\Generated_Source\PSoC4/CyLib.c ****                 bgTrim4 = CY_SFLASH_IMO_ABS1_REG;
 448:.\Generated_Source\PSoC4/CyLib.c ****                 bgTrim5 = CY_SFLASH_IMO_TMPCO1_REG;
 449:.\Generated_Source\PSoC4/CyLib.c ****             }
 450:.\Generated_Source\PSoC4/CyLib.c ****             else if(freq <= CY_SFLASH_IMO_MAXF2_REG)
 451:.\Generated_Source\PSoC4/CyLib.c ****             {
 452:.\Generated_Source\PSoC4/CyLib.c ****                 bgTrim4 = CY_SFLASH_IMO_ABS2_REG;
 453:.\Generated_Source\PSoC4/CyLib.c ****                 bgTrim5 = CY_SFLASH_IMO_TMPCO2_REG;
 454:.\Generated_Source\PSoC4/CyLib.c ****             }
 455:.\Generated_Source\PSoC4/CyLib.c ****             else if(freq <= CY_SFLASH_IMO_MAXF3_REG)
 456:.\Generated_Source\PSoC4/CyLib.c ****             {
 457:.\Generated_Source\PSoC4/CyLib.c ****                 bgTrim4 = CY_SFLASH_IMO_ABS3_REG;
 458:.\Generated_Source\PSoC4/CyLib.c ****                 bgTrim5 = CY_SFLASH_IMO_TMPCO3_REG;
 459:.\Generated_Source\PSoC4/CyLib.c ****             }
 460:.\Generated_Source\PSoC4/CyLib.c ****             else
 461:.\Generated_Source\PSoC4/CyLib.c ****             {
 462:.\Generated_Source\PSoC4/CyLib.c ****                 bgTrim4 = CY_SFLASH_IMO_ABS4_REG;
 463:.\Generated_Source\PSoC4/CyLib.c ****                 bgTrim5 = CY_SFLASH_IMO_TMPCO4_REG;
 464:.\Generated_Source\PSoC4/CyLib.c ****             }
 465:.\Generated_Source\PSoC4/CyLib.c **** 
 466:.\Generated_Source\PSoC4/CyLib.c ****             /* Get IMO_TRIM2 value for the new frequency */
 467:.\Generated_Source\PSoC4/CyLib.c ****             newImoTrim2Value = cyImoFreqMhz2Reg[freq - CY_SYS_CLK_IMO_FREQ_TABLE_OFFSET];
 468:.\Generated_Source\PSoC4/CyLib.c **** 
 469:.\Generated_Source\PSoC4/CyLib.c **** 
 470:.\Generated_Source\PSoC4/CyLib.c ****             /**********************************************`*****************************
 471:.\Generated_Source\PSoC4/CyLib.c ****             * The IMO can have a different trim per frequency. To avoid possible corner
 472:.\Generated_Source\PSoC4/CyLib.c ****             * cases where a trim change can exceed the maximum frequency, the trim must
 473:.\Generated_Source\PSoC4/CyLib.c ****             * be applied at a frequency that is low enough.
 474:.\Generated_Source\PSoC4/CyLib.c ****             *
 475:.\Generated_Source\PSoC4/CyLib.c ****             * Comparing IMO_TRIM2 values for the current and new frequencies, since
 476:.\Generated_Source\PSoC4/CyLib.c ****             * IMO_TRIM2 value as a function of IMO frequency is a strictly increasing
 477:.\Generated_Source\PSoC4/CyLib.c ****             * function and is time-invariant.
 478:.\Generated_Source\PSoC4/CyLib.c ****             ***************************************************************************/
 479:.\Generated_Source\PSoC4/CyLib.c ****             if ((newImoTrim2Value >= CY_SYS_CLK_IMO_BOUNDARY_FREQ_TRIM2) && (freq >= CY_SYS_CLK_IMO
 480:.\Generated_Source\PSoC4/CyLib.c ****             {
 481:.\Generated_Source\PSoC4/CyLib.c ****                 /* Set boundary IMO frequency: safe for IMO above 48 MHZ trimming */
 482:.\Generated_Source\PSoC4/CyLib.c ****                 CY_SYS_CLK_IMO_TRIM2_REG = (uint32) cyImoFreqMhz2Reg[CY_SYS_CLK_IMO_TEMP_FREQ_MHZ -
 483:.\Generated_Source\PSoC4/CyLib.c ****                                                                      CY_SYS_CLK_IMO_FREQ_TABLE_OFFS
 484:.\Generated_Source\PSoC4/CyLib.c **** 
 485:.\Generated_Source\PSoC4/CyLib.c ****                 CyDelayCycles(CY_SYS_CLK_IMO_FREQ_TIMEOUT_CYCLES);
 486:.\Generated_Source\PSoC4/CyLib.c **** 
 487:.\Generated_Source\PSoC4/CyLib.c ****                 currentImoTrim2Value = CY_SYS_CLK_IMO_TEMP_FREQ_TRIM2;
 488:.\Generated_Source\PSoC4/CyLib.c ****             }
 489:.\Generated_Source\PSoC4/CyLib.c ****             else
 490:.\Generated_Source\PSoC4/CyLib.c ****             {
 491:.\Generated_Source\PSoC4/CyLib.c ****                 currentImoTrim2Value = (uint8) (CY_SYS_CLK_IMO_TRIM2_REG & CY_SYS_CLK_IMO_FREQ_BITS
 492:.\Generated_Source\PSoC4/CyLib.c ****             }
 493:.\Generated_Source\PSoC4/CyLib.c **** 
 494:.\Generated_Source\PSoC4/CyLib.c **** 
ARM GAS  C:\Users\Helon\AppData\Local\Temp\cchg8CAa.s 			page 14


 495:.\Generated_Source\PSoC4/CyLib.c ****             /***************************************************************************
 496:.\Generated_Source\PSoC4/CyLib.c ****             * A trim change needs to be allowed to settle (within 5us) before the Freq
 497:.\Generated_Source\PSoC4/CyLib.c ****             * can be changed to a new frequency.
 498:.\Generated_Source\PSoC4/CyLib.c ****             *
 499:.\Generated_Source\PSoC4/CyLib.c ****             * Comparing IMO_TRIM2 values for the current and new frequencies, since
 500:.\Generated_Source\PSoC4/CyLib.c ****             * IMO_TRIM2 value as a function of IMO frequency is a strictly increasing
 501:.\Generated_Source\PSoC4/CyLib.c ****             * function and is time-invariant.
 502:.\Generated_Source\PSoC4/CyLib.c ****             ***************************************************************************/
 503:.\Generated_Source\PSoC4/CyLib.c ****             if (newImoTrim2Value < currentImoTrim2Value)
 504:.\Generated_Source\PSoC4/CyLib.c ****             {
 505:.\Generated_Source\PSoC4/CyLib.c ****                 /* Set new IMO frequency */
 506:.\Generated_Source\PSoC4/CyLib.c ****                 CY_SYS_CLK_IMO_TRIM2_REG = cyImoFreqMhz2Reg[freq - CY_SYS_CLK_IMO_FREQ_TABLE_OFFSET
 507:.\Generated_Source\PSoC4/CyLib.c ****                 CyDelayCycles(CY_SYS_CLK_IMO_FREQ_TIMEOUT_CYCLES);
 508:.\Generated_Source\PSoC4/CyLib.c ****             }
 509:.\Generated_Source\PSoC4/CyLib.c **** 
 510:.\Generated_Source\PSoC4/CyLib.c ****             /* Set trims for the new IMO frequency */
 511:.\Generated_Source\PSoC4/CyLib.c ****             CY_SYS_CLK_IMO_TRIM1_REG = (uint32) CY_SFLASH_IMO_TRIM_REG(freq - CY_SYS_CLK_IMO_FREQ_T
 512:.\Generated_Source\PSoC4/CyLib.c ****             CY_PWR_BG_TRIM4_REG  = bgTrim4;
 513:.\Generated_Source\PSoC4/CyLib.c ****             CY_PWR_BG_TRIM5_REG  = bgTrim5;
 514:.\Generated_Source\PSoC4/CyLib.c ****             CyDelayUs(CY_SYS_CLK_IMO_TRIM_TIMEOUT_US);
 515:.\Generated_Source\PSoC4/CyLib.c **** 
 516:.\Generated_Source\PSoC4/CyLib.c ****             if (newImoTrim2Value > currentImoTrim2Value)
 517:.\Generated_Source\PSoC4/CyLib.c ****             {
 518:.\Generated_Source\PSoC4/CyLib.c ****                 /* Set new IMO frequency */
 519:.\Generated_Source\PSoC4/CyLib.c ****                 CY_SYS_CLK_IMO_TRIM2_REG = cyImoFreqMhz2Reg[freq - CY_SYS_CLK_IMO_FREQ_TABLE_OFFSET
 520:.\Generated_Source\PSoC4/CyLib.c ****                 CyDelayCycles(CY_SYS_CLK_IMO_FREQ_TIMEOUT_CYCLES);
 521:.\Generated_Source\PSoC4/CyLib.c ****             }
 522:.\Generated_Source\PSoC4/CyLib.c ****         }
 523:.\Generated_Source\PSoC4/CyLib.c ****         else
 524:.\Generated_Source\PSoC4/CyLib.c ****         {
 525:.\Generated_Source\PSoC4/CyLib.c ****             /* Halt CPU in debug mode if new frequency is invalid */
 526:.\Generated_Source\PSoC4/CyLib.c ****             CYASSERT(0u != 0u);
 527:.\Generated_Source\PSoC4/CyLib.c ****         }
 528:.\Generated_Source\PSoC4/CyLib.c **** 
 529:.\Generated_Source\PSoC4/CyLib.c ****         #endif /* (CY_IP_FMLT) */
 530:.\Generated_Source\PSoC4/CyLib.c **** 
 531:.\Generated_Source\PSoC4/CyLib.c ****         #if (CY_PSOC4_4100M || CY_PSOC4_4200M)
 532:.\Generated_Source\PSoC4/CyLib.c ****             if (1u == wcoLock)
 533:.\Generated_Source\PSoC4/CyLib.c ****             {
 534:.\Generated_Source\PSoC4/CyLib.c ****                 CySysClkImoEnableWcoLock();
 535:.\Generated_Source\PSoC4/CyLib.c ****             }
 536:.\Generated_Source\PSoC4/CyLib.c ****         #endif  /* #if (CY_PSOC4_4100M || CY_PSOC4_4200M) */
 537:.\Generated_Source\PSoC4/CyLib.c **** 
 538:.\Generated_Source\PSoC4/CyLib.c ****         CyExitCriticalSection(interruptState);
 232              		.loc 1 538 0
 233 003c FFF7FEFF 		bl	CyExitCriticalSection
 234              	.LVL11:
 539:.\Generated_Source\PSoC4/CyLib.c ****     }
 235              		.loc 1 539 0
 236 0040 06B0     		add	sp, sp, #24
 237              		@ sp needed
 238 0042 10BD     		pop	{r4, pc}
 239              	.L15:
 240              		.align	2
 241              	.L14:
 242 0044 08010B40 		.word	1074462984
 243 0048 17000080 		.word	-2147483625
ARM GAS  C:\Users\Helon\AppData\Local\Temp\cchg8CAa.s 			page 15


 244 004c 00010B40 		.word	1074462976
 245 0050 00000000 		.word	.LANCHOR0
 246 0054 30001040 		.word	1074790448
 247 0058 B6EA0000 		.word	60086
 248 005c 08001040 		.word	1074790408
 249 0060 04001040 		.word	1074790404
 250              		.cfi_endproc
 251              	.LFE6:
 252              		.size	CySysClkWriteImoFreq, .-CySysClkWriteImoFreq
 253              		.section	.text.CySysClkEcoStop,"ax",%progbits
 254              		.align	1
 255              		.global	CySysClkEcoStop
 256              		.code	16
 257              		.thumb_func
 258              		.type	CySysClkEcoStop, %function
 259              	CySysClkEcoStop:
 260              	.LFB8:
 540:.\Generated_Source\PSoC4/CyLib.c **** 
 541:.\Generated_Source\PSoC4/CyLib.c **** #else
 542:.\Generated_Source\PSoC4/CyLib.c **** 
 543:.\Generated_Source\PSoC4/CyLib.c ****     void CySysClkWriteImoFreq(uint32 freq)
 544:.\Generated_Source\PSoC4/CyLib.c ****     {
 545:.\Generated_Source\PSoC4/CyLib.c ****         uint8  interruptState;
 546:.\Generated_Source\PSoC4/CyLib.c **** 
 547:.\Generated_Source\PSoC4/CyLib.c ****         if ((freq == 24u) || (freq == 32u) || (freq == 48u))
 548:.\Generated_Source\PSoC4/CyLib.c ****         {
 549:.\Generated_Source\PSoC4/CyLib.c ****             interruptState = CyEnterCriticalSection();
 550:.\Generated_Source\PSoC4/CyLib.c **** 
 551:.\Generated_Source\PSoC4/CyLib.c ****             /* Set IMO to 24 MHz - CLK_IMO_SELECT.FREQ = 0 */
 552:.\Generated_Source\PSoC4/CyLib.c ****             CY_SYS_CLK_IMO_SELECT_REG &= ((uint32) ~CY_SYS_CLK_IMO_SELECT_FREQ_MASK);
 553:.\Generated_Source\PSoC4/CyLib.c **** 
 554:.\Generated_Source\PSoC4/CyLib.c ****             /* Apply coarse trim */
 555:.\Generated_Source\PSoC4/CyLib.c ****             CY_SYS_CLK_IMO_TRIM1_REG = (CY_SYS_CLK_IMO_TRIM1_REG & ((uint32) ~CY_SYS_CLK_IMO_TRIM1_
 556:.\Generated_Source\PSoC4/CyLib.c ****                 (CY_SFLASH_IMO_TRIM_REG(freq - CY_SYS_CLK_IMO_MIN_FREQ_MHZ) & CY_SYS_CLK_IMO_TRIM1_
 557:.\Generated_Source\PSoC4/CyLib.c **** 
 558:.\Generated_Source\PSoC4/CyLib.c ****             /* Zero out fine trim */
 559:.\Generated_Source\PSoC4/CyLib.c ****             CY_SYS_CLK_IMO_TRIM2_REG = CY_SYS_CLK_IMO_TRIM2_REG & ((uint32) ~CY_SYS_CLK_IMO_TRIM2_F
 560:.\Generated_Source\PSoC4/CyLib.c **** 
 561:.\Generated_Source\PSoC4/CyLib.c ****             /* Apply TC trim */
 562:.\Generated_Source\PSoC4/CyLib.c ****             CY_SYS_CLK_IMO_TRIM3_REG = (CY_SYS_CLK_IMO_TRIM3_REG & ((uint32) ~CY_SYS_CLK_IMO_TRIM3_
 563:.\Generated_Source\PSoC4/CyLib.c ****                 (CY_SFLASH_IMO_TCTRIM_REG(freq - CY_SYS_CLK_IMO_MIN_FREQ_MHZ) & CY_SYS_CLK_IMO_TRIM
 564:.\Generated_Source\PSoC4/CyLib.c **** 
 565:.\Generated_Source\PSoC4/CyLib.c ****             CyDelayCycles(CY_SYS_CLK_IMO_TRIM_DELAY_US);
 566:.\Generated_Source\PSoC4/CyLib.c **** 
 567:.\Generated_Source\PSoC4/CyLib.c ****             if (freq > CY_SYS_CLK_IMO_MIN_FREQ_MHZ)
 568:.\Generated_Source\PSoC4/CyLib.c ****             {
 569:.\Generated_Source\PSoC4/CyLib.c ****                 /* Select nearby intermediate frequency */
 570:.\Generated_Source\PSoC4/CyLib.c ****                 CY_SYS_CLK_IMO_SELECT_REG = (CY_SYS_CLK_IMO_SELECT_REG & ((uint32) ~CY_SYS_CLK_IMO_
 571:.\Generated_Source\PSoC4/CyLib.c ****                     (((freq - 4u - CY_SYS_CLK_IMO_MIN_FREQ_MHZ) >> 2u) & CY_SYS_CLK_IMO_SELECT_FREQ
 572:.\Generated_Source\PSoC4/CyLib.c **** 
 573:.\Generated_Source\PSoC4/CyLib.c ****                 CyDelayCycles(CY_SYS_CLK_IMO_TRIM_DELAY_US);
 574:.\Generated_Source\PSoC4/CyLib.c **** 
 575:.\Generated_Source\PSoC4/CyLib.c ****                 /* Make small step to final frequency */
 576:.\Generated_Source\PSoC4/CyLib.c ****                 /* Select nearby intermediate frequency */
 577:.\Generated_Source\PSoC4/CyLib.c ****                 CY_SYS_CLK_IMO_SELECT_REG = (CY_SYS_CLK_IMO_SELECT_REG & ((uint32) ~CY_SYS_CLK_IMO_
 578:.\Generated_Source\PSoC4/CyLib.c ****                     (((freq - CY_SYS_CLK_IMO_MIN_FREQ_MHZ) >> 2u) & CY_SYS_CLK_IMO_SELECT_FREQ_MASK
 579:.\Generated_Source\PSoC4/CyLib.c ****             }
ARM GAS  C:\Users\Helon\AppData\Local\Temp\cchg8CAa.s 			page 16


 580:.\Generated_Source\PSoC4/CyLib.c **** 
 581:.\Generated_Source\PSoC4/CyLib.c ****             CyExitCriticalSection(interruptState);
 582:.\Generated_Source\PSoC4/CyLib.c ****         }
 583:.\Generated_Source\PSoC4/CyLib.c ****         else
 584:.\Generated_Source\PSoC4/CyLib.c ****         {
 585:.\Generated_Source\PSoC4/CyLib.c ****             /* Halt CPU in debug mode if new frequency is invalid */
 586:.\Generated_Source\PSoC4/CyLib.c ****             CYASSERT(0u != 0u);
 587:.\Generated_Source\PSoC4/CyLib.c ****         }
 588:.\Generated_Source\PSoC4/CyLib.c ****     }
 589:.\Generated_Source\PSoC4/CyLib.c **** 
 590:.\Generated_Source\PSoC4/CyLib.c **** #endif /* (CY_IP_SRSSV2) */
 591:.\Generated_Source\PSoC4/CyLib.c **** 
 592:.\Generated_Source\PSoC4/CyLib.c **** 
 593:.\Generated_Source\PSoC4/CyLib.c **** #if(CY_IP_SRSSLT)
 594:.\Generated_Source\PSoC4/CyLib.c ****     /*******************************************************************************
 595:.\Generated_Source\PSoC4/CyLib.c ****     * Function Name: CySysClkWriteHfclkDiv
 596:.\Generated_Source\PSoC4/CyLib.c ****     ********************************************************************************
 597:.\Generated_Source\PSoC4/CyLib.c ****     *
 598:.\Generated_Source\PSoC4/CyLib.c ****     * Summary:
 599:.\Generated_Source\PSoC4/CyLib.c ****     *  Selects the pre-scaler divider value for HFCLK from IMO.
 600:.\Generated_Source\PSoC4/CyLib.c ****     *
 601:.\Generated_Source\PSoC4/CyLib.c ****     *  The HFCLK predivider allows the device to divide the HFCLK selection mux
 602:.\Generated_Source\PSoC4/CyLib.c ****     *  input before use as HFCLK. The predivider is capable of dividing the HFCLK by
 603:.\Generated_Source\PSoC4/CyLib.c ****     *  powers of 2 between 1 and 8.
 604:.\Generated_Source\PSoC4/CyLib.c ****     *
 605:.\Generated_Source\PSoC4/CyLib.c ****     *  Note HFCLK's frequency cannot exceed 16 MHz. This API is applicable for
 606:.\Generated_Source\PSoC4/CyLib.c ****     *  PSoC 4000 family of devices only.
 607:.\Generated_Source\PSoC4/CyLib.c ****     *
 608:.\Generated_Source\PSoC4/CyLib.c ****     *
 609:.\Generated_Source\PSoC4/CyLib.c ****     * Parameters:
 610:.\Generated_Source\PSoC4/CyLib.c ****     *  divider: HF clock divider value
 611:.\Generated_Source\PSoC4/CyLib.c ****     *   Define                        Description
 612:.\Generated_Source\PSoC4/CyLib.c ****     *   CY_SYS_CLK_HFCLK_DIV_NODIV    Transparent mode (w/o dividing)
 613:.\Generated_Source\PSoC4/CyLib.c ****     *   CY_SYS_CLK_HFCLK_DIV_2        Divide selected clock source by 2
 614:.\Generated_Source\PSoC4/CyLib.c ****     *   CY_SYS_CLK_HFCLK_DIV_4        Divide selected clock source by 4
 615:.\Generated_Source\PSoC4/CyLib.c ****     *   CY_SYS_CLK_HFCLK_DIV_8        Divide selected clock source by 8
 616:.\Generated_Source\PSoC4/CyLib.c ****     *
 617:.\Generated_Source\PSoC4/CyLib.c ****     * Return:
 618:.\Generated_Source\PSoC4/CyLib.c ****     *  None
 619:.\Generated_Source\PSoC4/CyLib.c ****     *
 620:.\Generated_Source\PSoC4/CyLib.c ****     * Side Effects:
 621:.\Generated_Source\PSoC4/CyLib.c ****     *  If the SYSCLK clock frequency increases during the device operation, call
 622:.\Generated_Source\PSoC4/CyLib.c ****     *  CySysFlashSetWaitCycles() with the appropriate parameter to adjust the number
 623:.\Generated_Source\PSoC4/CyLib.c ****     *  of clock cycles the cache will wait before sampling data comes back from
 624:.\Generated_Source\PSoC4/CyLib.c ****     *  Flash. If the SYSCLK clock frequency decreases, you can call
 625:.\Generated_Source\PSoC4/CyLib.c ****     *  CySysFlashSetWaitCycles() to improve the CPU performance. See
 626:.\Generated_Source\PSoC4/CyLib.c ****     *  CySysFlashSetWaitCycles() description for more information.
 627:.\Generated_Source\PSoC4/CyLib.c ****     *
 628:.\Generated_Source\PSoC4/CyLib.c ****     *******************************************************************************/
 629:.\Generated_Source\PSoC4/CyLib.c ****     void CySysClkWriteHfclkDiv(uint32 divider)
 630:.\Generated_Source\PSoC4/CyLib.c ****     {
 631:.\Generated_Source\PSoC4/CyLib.c ****         uint8  interruptState;
 632:.\Generated_Source\PSoC4/CyLib.c **** 
 633:.\Generated_Source\PSoC4/CyLib.c ****         interruptState = CyEnterCriticalSection();
 634:.\Generated_Source\PSoC4/CyLib.c **** 
 635:.\Generated_Source\PSoC4/CyLib.c ****         CY_SYS_CLK_SELECT_REG = ((CY_SYS_CLK_SELECT_REG & ((uint32) (~(CY_SYS_CLK_SELECT_HFCLK_DIV_
 636:.\Generated_Source\PSoC4/CyLib.c ****                                         CY_SYS_CLK_SELECT_HFCLK_DIV_SHIFT)))) |
ARM GAS  C:\Users\Helon\AppData\Local\Temp\cchg8CAa.s 			page 17


 637:.\Generated_Source\PSoC4/CyLib.c ****                     ((uint32)((divider & CY_SYS_CLK_SELECT_HFCLK_DIV_MASK) << CY_SYS_CLK_SELECT_HFC
 638:.\Generated_Source\PSoC4/CyLib.c **** 
 639:.\Generated_Source\PSoC4/CyLib.c ****         CyExitCriticalSection(interruptState);
 640:.\Generated_Source\PSoC4/CyLib.c ****     }
 641:.\Generated_Source\PSoC4/CyLib.c **** #endif /* (CY_IP_SRSSLT) */
 642:.\Generated_Source\PSoC4/CyLib.c **** 
 643:.\Generated_Source\PSoC4/CyLib.c **** 
 644:.\Generated_Source\PSoC4/CyLib.c **** #if (CY_PSOC4_4100BL || CY_PSOC4_4200BL)
 645:.\Generated_Source\PSoC4/CyLib.c **** 
 646:.\Generated_Source\PSoC4/CyLib.c ****     /*******************************************************************************
 647:.\Generated_Source\PSoC4/CyLib.c ****     * Function Name: CySysClkEcoStart
 648:.\Generated_Source\PSoC4/CyLib.c ****     ********************************************************************************
 649:.\Generated_Source\PSoC4/CyLib.c ****     *
 650:.\Generated_Source\PSoC4/CyLib.c ****     * Summary:
 651:.\Generated_Source\PSoC4/CyLib.c ****     *  Starts the External Crystal Oscillator (ECO). Refer to the device datasheet
 652:.\Generated_Source\PSoC4/CyLib.c ****     *  for the ECO startup time.
 653:.\Generated_Source\PSoC4/CyLib.c ****     *
 654:.\Generated_Source\PSoC4/CyLib.c ****     *  The timeout interval is measured based on the system frequency defined by
 655:.\Generated_Source\PSoC4/CyLib.c ****     *  PSoC Creator at build time. If System clock frequency is changed in
 656:.\Generated_Source\PSoC4/CyLib.c ****     *  runtime, the CyDelayFreq() with the appropriate parameter should be called.
 657:.\Generated_Source\PSoC4/CyLib.c ****     *
 658:.\Generated_Source\PSoC4/CyLib.c ****     * Parameters:
 659:.\Generated_Source\PSoC4/CyLib.c ****     *  timeoutUs: Timeout in microseconds. If zero is specified, the function
 660:.\Generated_Source\PSoC4/CyLib.c ****     *             starts the crystal and returns CYRET_SUCCESS. If non-zero
 661:.\Generated_Source\PSoC4/CyLib.c ****     *             value is passed, the CYRET_SUCCESS is returned once crystal
 662:.\Generated_Source\PSoC4/CyLib.c ****     *             is oscillating and amplitude reached 60% and it does not mean
 663:.\Generated_Source\PSoC4/CyLib.c ****     *             24 MHz crystal is within 50 ppm. If it is not oscillating or
 664:.\Generated_Source\PSoC4/CyLib.c ****     *             amplitude didn't reach 60% after specified amount of time, the
 665:.\Generated_Source\PSoC4/CyLib.c ****     *             CYRET_TIMEOUT is returned.
 666:.\Generated_Source\PSoC4/CyLib.c ****     *
 667:.\Generated_Source\PSoC4/CyLib.c ****     * Return:
 668:.\Generated_Source\PSoC4/CyLib.c ****     *   CYRET_SUCCESS - Completed successfully. The ECO is oscillating and amplitude
 669:.\Generated_Source\PSoC4/CyLib.c ****     *                   reached 60% and it does not mean 24 MHz crystal is within
 670:.\Generated_Source\PSoC4/CyLib.c ****     *                   50 ppm.
 671:.\Generated_Source\PSoC4/CyLib.c ****     *   CYRET_TIMEOUT - Timeout occurred.
 672:.\Generated_Source\PSoC4/CyLib.c ****     *
 673:.\Generated_Source\PSoC4/CyLib.c ****     *******************************************************************************/
 674:.\Generated_Source\PSoC4/CyLib.c ****     cystatus CySysClkEcoStart(uint32 timeoutUs)
 675:.\Generated_Source\PSoC4/CyLib.c ****     {
 676:.\Generated_Source\PSoC4/CyLib.c ****         cystatus status = CYRET_SUCCESS;
 677:.\Generated_Source\PSoC4/CyLib.c **** 
 678:.\Generated_Source\PSoC4/CyLib.c ****         /* Enable the RF oscillator band gap */
 679:.\Generated_Source\PSoC4/CyLib.c ****         CY_SYS_XTAL_BLESS_RF_CONFIG_REG |= CY_SYS_XTAL_BLESS_RF_CONFIG_RF_ENABLE;
 680:.\Generated_Source\PSoC4/CyLib.c **** 
 681:.\Generated_Source\PSoC4/CyLib.c ****         /* Update trimming register */
 682:.\Generated_Source\PSoC4/CyLib.c ****         CY_SYS_XTAL_BLERD_BB_XO_REG = CY_SYS_XTAL_BLERD_BB_XO_TRIM;
 683:.\Generated_Source\PSoC4/CyLib.c **** 
 684:.\Generated_Source\PSoC4/CyLib.c ****         /* Enable the Crystal */
 685:.\Generated_Source\PSoC4/CyLib.c ****         CY_SYS_XTAL_BLERD_DBUS_REG |= CY_SYS_XTAL_BLERD_DBUS_XTAL_ENABLE;
 686:.\Generated_Source\PSoC4/CyLib.c **** 
 687:.\Generated_Source\PSoC4/CyLib.c ****         if(timeoutUs > 0u)
 688:.\Generated_Source\PSoC4/CyLib.c ****         {
 689:.\Generated_Source\PSoC4/CyLib.c ****             status = CYRET_TIMEOUT;
 690:.\Generated_Source\PSoC4/CyLib.c **** 
 691:.\Generated_Source\PSoC4/CyLib.c ****             for( ; timeoutUs > 0u; timeoutUs--)
 692:.\Generated_Source\PSoC4/CyLib.c ****             {
 693:.\Generated_Source\PSoC4/CyLib.c ****                 CyDelayUs(1u);
ARM GAS  C:\Users\Helon\AppData\Local\Temp\cchg8CAa.s 			page 18


 694:.\Generated_Source\PSoC4/CyLib.c **** 
 695:.\Generated_Source\PSoC4/CyLib.c ****                 if(0u != CySysClkEcoReadStatus())
 696:.\Generated_Source\PSoC4/CyLib.c ****                 {
 697:.\Generated_Source\PSoC4/CyLib.c ****                     status = CYRET_SUCCESS;
 698:.\Generated_Source\PSoC4/CyLib.c ****                     break;
 699:.\Generated_Source\PSoC4/CyLib.c ****                 }
 700:.\Generated_Source\PSoC4/CyLib.c ****             }
 701:.\Generated_Source\PSoC4/CyLib.c **** 
 702:.\Generated_Source\PSoC4/CyLib.c ****         }
 703:.\Generated_Source\PSoC4/CyLib.c **** 
 704:.\Generated_Source\PSoC4/CyLib.c ****         return(status);
 705:.\Generated_Source\PSoC4/CyLib.c ****     }
 706:.\Generated_Source\PSoC4/CyLib.c **** 
 707:.\Generated_Source\PSoC4/CyLib.c **** 
 708:.\Generated_Source\PSoC4/CyLib.c ****     /*******************************************************************************
 709:.\Generated_Source\PSoC4/CyLib.c ****     * Function Name: CySysClkEcoStop
 710:.\Generated_Source\PSoC4/CyLib.c ****     ********************************************************************************
 711:.\Generated_Source\PSoC4/CyLib.c ****     *
 712:.\Generated_Source\PSoC4/CyLib.c ****     * Summary:
 713:.\Generated_Source\PSoC4/CyLib.c ****     *  Stops the megahertz crystal.
 714:.\Generated_Source\PSoC4/CyLib.c ****     *
 715:.\Generated_Source\PSoC4/CyLib.c ****     * Parameters:
 716:.\Generated_Source\PSoC4/CyLib.c ****     *  None
 717:.\Generated_Source\PSoC4/CyLib.c ****     *
 718:.\Generated_Source\PSoC4/CyLib.c ****     * Return:
 719:.\Generated_Source\PSoC4/CyLib.c ****     *  None
 720:.\Generated_Source\PSoC4/CyLib.c ****     *
 721:.\Generated_Source\PSoC4/CyLib.c ****     *******************************************************************************/
 722:.\Generated_Source\PSoC4/CyLib.c ****     void CySysClkEcoStop(void)
 723:.\Generated_Source\PSoC4/CyLib.c ****     {
 261              		.loc 1 723 0
 262              		.cfi_startproc
 724:.\Generated_Source\PSoC4/CyLib.c ****         /* Disable the RF oscillator band gap */
 725:.\Generated_Source\PSoC4/CyLib.c ****         CY_SYS_XTAL_BLESS_RF_CONFIG_REG &= (uint32) ~CY_SYS_XTAL_BLESS_RF_CONFIG_RF_ENABLE;
 263              		.loc 1 725 0
 264 0000 0121     		mov	r1, #1
 265 0002 054A     		ldr	r2, .L17
 726:.\Generated_Source\PSoC4/CyLib.c **** 
 727:.\Generated_Source\PSoC4/CyLib.c ****         /* Disable the Crystal */
 728:.\Generated_Source\PSoC4/CyLib.c ****         CY_SYS_XTAL_BLERD_DBUS_REG &= (uint32) ~CY_SYS_XTAL_BLERD_DBUS_XTAL_ENABLE;
 729:.\Generated_Source\PSoC4/CyLib.c ****     }
 266              		.loc 1 729 0
 267              		@ sp needed
 725:.\Generated_Source\PSoC4/CyLib.c **** 
 268              		.loc 1 725 0
 269 0004 1368     		ldr	r3, [r2]
 270 0006 8B43     		bic	r3, r1
 271 0008 1360     		str	r3, [r2]
 728:.\Generated_Source\PSoC4/CyLib.c ****     }
 272              		.loc 1 728 0
 273 000a 044A     		ldr	r2, .L17+4
 274 000c 044B     		ldr	r3, .L17+8
 275 000e 1168     		ldr	r1, [r2]
 276 0010 0B40     		and	r3, r1
 277 0012 1360     		str	r3, [r2]
 278              		.loc 1 729 0
 279 0014 7047     		bx	lr
ARM GAS  C:\Users\Helon\AppData\Local\Temp\cchg8CAa.s 			page 19


 280              	.L18:
 281 0016 C046     		.align	2
 282              	.L17:
 283 0018 60F02E40 		.word	1076818016
 284 001c 10002E40 		.word	1076756496
 285 0020 FF7FFFFF 		.word	-32769
 286              		.cfi_endproc
 287              	.LFE8:
 288              		.size	CySysClkEcoStop, .-CySysClkEcoStop
 289              		.section	.text.CySysClkEcoReadStatus,"ax",%progbits
 290              		.align	1
 291              		.global	CySysClkEcoReadStatus
 292              		.code	16
 293              		.thumb_func
 294              		.type	CySysClkEcoReadStatus, %function
 295              	CySysClkEcoReadStatus:
 296              	.LFB9:
 730:.\Generated_Source\PSoC4/CyLib.c **** 
 731:.\Generated_Source\PSoC4/CyLib.c **** 
 732:.\Generated_Source\PSoC4/CyLib.c ****     /*******************************************************************************
 733:.\Generated_Source\PSoC4/CyLib.c ****     * Function Name: CySysClkEcoReadStatus
 734:.\Generated_Source\PSoC4/CyLib.c ****     ********************************************************************************
 735:.\Generated_Source\PSoC4/CyLib.c ****     *
 736:.\Generated_Source\PSoC4/CyLib.c ****     * Summary:
 737:.\Generated_Source\PSoC4/CyLib.c ****     *  Read status bit (50 ppm reached) for the megahertz crystal.
 738:.\Generated_Source\PSoC4/CyLib.c ****     *
 739:.\Generated_Source\PSoC4/CyLib.c ****     * Parameters:
 740:.\Generated_Source\PSoC4/CyLib.c ****     *  None
 741:.\Generated_Source\PSoC4/CyLib.c ****     *
 742:.\Generated_Source\PSoC4/CyLib.c ****     * Return:
 743:.\Generated_Source\PSoC4/CyLib.c ****     *  Non-zero indicates that XTAL output reached 50 ppm.
 744:.\Generated_Source\PSoC4/CyLib.c ****     *
 745:.\Generated_Source\PSoC4/CyLib.c ****     *******************************************************************************/
 746:.\Generated_Source\PSoC4/CyLib.c ****     uint32 CySysClkEcoReadStatus(void)
 747:.\Generated_Source\PSoC4/CyLib.c ****     {
 297              		.loc 1 747 0
 298              		.cfi_startproc
 748:.\Generated_Source\PSoC4/CyLib.c ****         return (CY_SYS_XTAL_BLERD_FSM_REG & CY_SYS_XTAL_BLERD_FSM_XO_AMP_DETECT);
 299              		.loc 1 748 0
 300 0000 024B     		ldr	r3, .L20
 749:.\Generated_Source\PSoC4/CyLib.c ****     }
 301              		.loc 1 749 0
 302              		@ sp needed
 748:.\Generated_Source\PSoC4/CyLib.c ****         return (CY_SYS_XTAL_BLERD_FSM_REG & CY_SYS_XTAL_BLERD_FSM_XO_AMP_DETECT);
 303              		.loc 1 748 0
 304 0002 1868     		ldr	r0, [r3]
 305 0004 0123     		mov	r3, #1
 306 0006 1840     		and	r0, r3
 307              		.loc 1 749 0
 308 0008 7047     		bx	lr
 309              	.L21:
 310 000a C046     		.align	2
 311              	.L20:
 312 000c 0C002E40 		.word	1076756492
 313              		.cfi_endproc
 314              	.LFE9:
 315              		.size	CySysClkEcoReadStatus, .-CySysClkEcoReadStatus
ARM GAS  C:\Users\Helon\AppData\Local\Temp\cchg8CAa.s 			page 20


 316              		.section	.text.CySysClkWriteEcoDiv,"ax",%progbits
 317              		.align	1
 318              		.global	CySysClkWriteEcoDiv
 319              		.code	16
 320              		.thumb_func
 321              		.type	CySysClkWriteEcoDiv, %function
 322              	CySysClkWriteEcoDiv:
 323              	.LFB10:
 750:.\Generated_Source\PSoC4/CyLib.c **** 
 751:.\Generated_Source\PSoC4/CyLib.c **** 
 752:.\Generated_Source\PSoC4/CyLib.c ****     /*******************************************************************************
 753:.\Generated_Source\PSoC4/CyLib.c ****     * Function Name: CySysClkWriteEcoDiv
 754:.\Generated_Source\PSoC4/CyLib.c ****     ********************************************************************************
 755:.\Generated_Source\PSoC4/CyLib.c ****     *
 756:.\Generated_Source\PSoC4/CyLib.c ****     * Summary:
 757:.\Generated_Source\PSoC4/CyLib.c ****     *  Selects value for the ECO divider.
 758:.\Generated_Source\PSoC4/CyLib.c ****     *
 759:.\Generated_Source\PSoC4/CyLib.c ****     *  The ECO must not be the HFCLK clock source when this function is called.
 760:.\Generated_Source\PSoC4/CyLib.c ****     *  The HFCLK source can be changed to the other clock source by call to the
 761:.\Generated_Source\PSoC4/CyLib.c ****     *  CySysClkWriteHfclkDirect() function. If the ECO sources the HFCLK this
 762:.\Generated_Source\PSoC4/CyLib.c ****     *  function will not have any effect if compiler in release mode, and halt the
 763:.\Generated_Source\PSoC4/CyLib.c ****     *  CPU when compiler in debug mode.
 764:.\Generated_Source\PSoC4/CyLib.c ****     *
 765:.\Generated_Source\PSoC4/CyLib.c ****     * Parameters:
 766:.\Generated_Source\PSoC4/CyLib.c ****     *  divider: Power of 2 divider selection.
 767:.\Generated_Source\PSoC4/CyLib.c ****     *
 768:.\Generated_Source\PSoC4/CyLib.c ****     *   Define                        Description
 769:.\Generated_Source\PSoC4/CyLib.c ****     *   CY_SYS_CLK_ECO_DIV1             HFCLK = ECO / 1
 770:.\Generated_Source\PSoC4/CyLib.c ****     *   CY_SYS_CLK_ECO_DIV2             HFCLK = ECO / 2
 771:.\Generated_Source\PSoC4/CyLib.c ****     *   CY_SYS_CLK_ECO_DIV4             HFCLK = ECO / 4
 772:.\Generated_Source\PSoC4/CyLib.c ****     *   CY_SYS_CLK_ECO_DIV8             HFCLK = ECO / 8
 773:.\Generated_Source\PSoC4/CyLib.c ****     *
 774:.\Generated_Source\PSoC4/CyLib.c ****     * Return:
 775:.\Generated_Source\PSoC4/CyLib.c ****     *  None
 776:.\Generated_Source\PSoC4/CyLib.c ****     *
 777:.\Generated_Source\PSoC4/CyLib.c ****     * Side Effects:
 778:.\Generated_Source\PSoC4/CyLib.c ****     *  If the SYSCLK clock frequency increases during the device operation, call
 779:.\Generated_Source\PSoC4/CyLib.c ****     *  CySysFlashSetWaitCycles() with the appropriate parameter to adjust the number
 780:.\Generated_Source\PSoC4/CyLib.c ****     *  of clock cycles the cache will wait before sampling data comes back from
 781:.\Generated_Source\PSoC4/CyLib.c ****     *  Flash. If the SYSCLK clock frequency decreases, you can call
 782:.\Generated_Source\PSoC4/CyLib.c ****     *  CySysFlashSetWaitCycles() to improve the CPU performance. See
 783:.\Generated_Source\PSoC4/CyLib.c ****     *  CySysFlashSetWaitCycles() description for more information.
 784:.\Generated_Source\PSoC4/CyLib.c ****     *
 785:.\Generated_Source\PSoC4/CyLib.c ****     *******************************************************************************/
 786:.\Generated_Source\PSoC4/CyLib.c ****     void CySysClkWriteEcoDiv(uint32 divider)
 787:.\Generated_Source\PSoC4/CyLib.c ****     {
 324              		.loc 1 787 0
 325              		.cfi_startproc
 326              	.LVL12:
 788:.\Generated_Source\PSoC4/CyLib.c ****         uint8  interruptState;
 789:.\Generated_Source\PSoC4/CyLib.c **** 
 790:.\Generated_Source\PSoC4/CyLib.c ****         if (CY_SYS_CLK_HFCLK_ECO != (CY_SYS_CLK_SELECT_REG & CY_SYS_CLK_SELECT_DIRECT_SEL_MASK))
 327              		.loc 1 790 0
 328 0000 0722     		mov	r2, #7
 787:.\Generated_Source\PSoC4/CyLib.c ****         uint8  interruptState;
 329              		.loc 1 787 0
 330 0002 38B5     		push	{r3, r4, r5, lr}
ARM GAS  C:\Users\Helon\AppData\Local\Temp\cchg8CAa.s 			page 21


 331              		.cfi_def_cfa_offset 16
 332              		.cfi_offset 3, -16
 333              		.cfi_offset 4, -12
 334              		.cfi_offset 5, -8
 335              		.cfi_offset 14, -4
 336              		.loc 1 790 0
 337 0004 094B     		ldr	r3, .L28
 338 0006 1B68     		ldr	r3, [r3]
 339 0008 1A40     		and	r2, r3
 340 000a 022A     		cmp	r2, #2
 341 000c 0CD0     		beq	.L22
 342 000e 041C     		mov	r4, r0
 791:.\Generated_Source\PSoC4/CyLib.c ****         {
 792:.\Generated_Source\PSoC4/CyLib.c ****             interruptState = CyEnterCriticalSection();
 793:.\Generated_Source\PSoC4/CyLib.c **** 
 794:.\Generated_Source\PSoC4/CyLib.c ****             CY_SYS_CLK_XTAL_CLK_DIV_CONFIG_REG =  (divider & CY_SYS_CLK_XTAL_CLK_DIV_MASK) |
 343              		.loc 1 794 0
 344 0010 0325     		mov	r5, #3
 792:.\Generated_Source\PSoC4/CyLib.c **** 
 345              		.loc 1 792 0
 346 0012 FFF7FEFF 		bl	CyEnterCriticalSection
 347              	.LVL13:
 348              		.loc 1 794 0
 349 0016 231C     		mov	r3, r4
 795:.\Generated_Source\PSoC4/CyLib.c ****                                                   (CY_SYS_CLK_XTAL_CLK_DIV_CONFIG_REG & ((uint32) ~
 350              		.loc 1 795 0
 351 0018 0549     		ldr	r1, .L28+4
 794:.\Generated_Source\PSoC4/CyLib.c ****                                                   (CY_SYS_CLK_XTAL_CLK_DIV_CONFIG_REG & ((uint32) ~
 352              		.loc 1 794 0
 353 001a 2B40     		and	r3, r5
 354              		.loc 1 795 0
 355 001c 0A68     		ldr	r2, [r1]
 356 001e AA43     		bic	r2, r5
 794:.\Generated_Source\PSoC4/CyLib.c ****                                                   (CY_SYS_CLK_XTAL_CLK_DIV_CONFIG_REG & ((uint32) ~
 357              		.loc 1 794 0
 358 0020 1343     		orr	r3, r2
 359 0022 0B60     		str	r3, [r1]
 796:.\Generated_Source\PSoC4/CyLib.c **** 
 797:.\Generated_Source\PSoC4/CyLib.c ****             CyExitCriticalSection(interruptState);
 360              		.loc 1 797 0
 361 0024 FFF7FEFF 		bl	CyExitCriticalSection
 362              	.LVL14:
 363              	.L22:
 798:.\Generated_Source\PSoC4/CyLib.c ****         }
 799:.\Generated_Source\PSoC4/CyLib.c ****         else
 800:.\Generated_Source\PSoC4/CyLib.c ****         {
 801:.\Generated_Source\PSoC4/CyLib.c ****             /* Halt CPU in debug mode if ECO sources HFCLK */
 802:.\Generated_Source\PSoC4/CyLib.c ****             CYASSERT(0u != 0u);
 803:.\Generated_Source\PSoC4/CyLib.c ****         }
 804:.\Generated_Source\PSoC4/CyLib.c ****     }
 364              		.loc 1 804 0
 365              		@ sp needed
 366 0028 38BD     		pop	{r3, r4, r5, pc}
 367              	.L29:
 368 002a C046     		.align	2
 369              	.L28:
 370 002c 00010B40 		.word	1074462976
ARM GAS  C:\Users\Helon\AppData\Local\Temp\cchg8CAa.s 			page 22


 371 0030 64F02E40 		.word	1076818020
 372              		.cfi_endproc
 373              	.LFE10:
 374              		.size	CySysClkWriteEcoDiv, .-CySysClkWriteEcoDiv
 375              		.section	.text.CySysLvdDisable,"ax",%progbits
 376              		.align	1
 377              		.global	CySysLvdDisable
 378              		.code	16
 379              		.thumb_func
 380              		.type	CySysLvdDisable, %function
 381              	CySysLvdDisable:
 382              	.LFB12:
 805:.\Generated_Source\PSoC4/CyLib.c **** #endif /* (CY_PSOC4_4100BL || CY_PSOC4_4200BL) */
 806:.\Generated_Source\PSoC4/CyLib.c **** 
 807:.\Generated_Source\PSoC4/CyLib.c **** 
 808:.\Generated_Source\PSoC4/CyLib.c **** 
 809:.\Generated_Source\PSoC4/CyLib.c **** 
 810:.\Generated_Source\PSoC4/CyLib.c **** 
 811:.\Generated_Source\PSoC4/CyLib.c **** 
 812:.\Generated_Source\PSoC4/CyLib.c **** #if(CY_IP_SRSSV2)
 813:.\Generated_Source\PSoC4/CyLib.c **** 
 814:.\Generated_Source\PSoC4/CyLib.c ****     /*******************************************************************************
 815:.\Generated_Source\PSoC4/CyLib.c ****     * Function Name: CySysLvdEnable
 816:.\Generated_Source\PSoC4/CyLib.c ****     ********************************************************************************
 817:.\Generated_Source\PSoC4/CyLib.c ****     *
 818:.\Generated_Source\PSoC4/CyLib.c ****     * Summary:
 819:.\Generated_Source\PSoC4/CyLib.c ****     *  Enables the output of the low-voltage monitor when Vddd is at or below the
 820:.\Generated_Source\PSoC4/CyLib.c ****     *  trip point, configures the device to generate an interrupt, and sets the
 821:.\Generated_Source\PSoC4/CyLib.c ****     *  voltage trip level.
 822:.\Generated_Source\PSoC4/CyLib.c ****     *
 823:.\Generated_Source\PSoC4/CyLib.c ****     * Parameters:
 824:.\Generated_Source\PSoC4/CyLib.c ****     *  threshold: Threshold selection for Low Voltage Detect circuit.
 825:.\Generated_Source\PSoC4/CyLib.c ****     *  Threshold variation is +/- 2.5% from these typical voltage choices.
 826:.\Generated_Source\PSoC4/CyLib.c ****     *         Define                     Voltage threshold
 827:.\Generated_Source\PSoC4/CyLib.c ****     *    CY_LVD_THRESHOLD_1_75_V       1.7500 V
 828:.\Generated_Source\PSoC4/CyLib.c ****     *    CY_LVD_THRESHOLD_1_80_V       1.8000 V
 829:.\Generated_Source\PSoC4/CyLib.c ****     *    CY_LVD_THRESHOLD_1_90_V       1.9000 V
 830:.\Generated_Source\PSoC4/CyLib.c ****     *    CY_LVD_THRESHOLD_2_00_V       2.0000 V
 831:.\Generated_Source\PSoC4/CyLib.c ****     *    CY_LVD_THRESHOLD_2_10_V       2.1000 V
 832:.\Generated_Source\PSoC4/CyLib.c ****     *    CY_LVD_THRESHOLD_2_20_V       2.2000 V
 833:.\Generated_Source\PSoC4/CyLib.c ****     *    CY_LVD_THRESHOLD_2_30_V       2.3000 V
 834:.\Generated_Source\PSoC4/CyLib.c ****     *    CY_LVD_THRESHOLD_2_40_V       2.4000 V
 835:.\Generated_Source\PSoC4/CyLib.c ****     *    CY_LVD_THRESHOLD_2_50_V       2.5000 V
 836:.\Generated_Source\PSoC4/CyLib.c ****     *    CY_LVD_THRESHOLD_2_60_V       2.6000 V
 837:.\Generated_Source\PSoC4/CyLib.c ****     *    CY_LVD_THRESHOLD_2_70_V       2.7000 V
 838:.\Generated_Source\PSoC4/CyLib.c ****     *    CY_LVD_THRESHOLD_2_80_V       2.8000 V
 839:.\Generated_Source\PSoC4/CyLib.c ****     *    CY_LVD_THRESHOLD_2_90_V       2.9000 V
 840:.\Generated_Source\PSoC4/CyLib.c ****     *    CY_LVD_THRESHOLD_3_00_V       3.0000 V
 841:.\Generated_Source\PSoC4/CyLib.c ****     *    CY_LVD_THRESHOLD_3_20_V       3.2000 V
 842:.\Generated_Source\PSoC4/CyLib.c ****     *    CY_LVD_THRESHOLD_4_50_V       4.5000 V
 843:.\Generated_Source\PSoC4/CyLib.c ****     *
 844:.\Generated_Source\PSoC4/CyLib.c ****     * Return:
 845:.\Generated_Source\PSoC4/CyLib.c ****     *  None
 846:.\Generated_Source\PSoC4/CyLib.c ****     *
 847:.\Generated_Source\PSoC4/CyLib.c ****     *******************************************************************************/
 848:.\Generated_Source\PSoC4/CyLib.c ****     void CySysLvdEnable(uint32 threshold)
 849:.\Generated_Source\PSoC4/CyLib.c ****     {
ARM GAS  C:\Users\Helon\AppData\Local\Temp\cchg8CAa.s 			page 23


 850:.\Generated_Source\PSoC4/CyLib.c ****         /* Prevent propagating a false interrupt */
 851:.\Generated_Source\PSoC4/CyLib.c ****         CY_LVD_PWR_INTR_MASK_REG   &= (uint32) ~CY_LVD_PROPAGATE_INT_TO_CPU;
 852:.\Generated_Source\PSoC4/CyLib.c **** 
 853:.\Generated_Source\PSoC4/CyLib.c ****         /* Set specified threshold */
 854:.\Generated_Source\PSoC4/CyLib.c ****         CY_LVD_PWR_VMON_CONFIG_REG = (CY_LVD_PWR_VMON_CONFIG_REG & ~CY_LVD_PWR_VMON_CONFIG_LVD_SEL_
 855:.\Generated_Source\PSoC4/CyLib.c ****                 ((threshold << CY_LVD_PWR_VMON_CONFIG_LVD_SEL_SHIFT) & CY_LVD_PWR_VMON_CONFIG_LVD_S
 856:.\Generated_Source\PSoC4/CyLib.c **** 
 857:.\Generated_Source\PSoC4/CyLib.c ****         /* Enable the LVD. This may cause a false LVD event. */
 858:.\Generated_Source\PSoC4/CyLib.c ****         CY_LVD_PWR_VMON_CONFIG_REG |= CY_LVD_PWR_VMON_CONFIG_LVD_EN;
 859:.\Generated_Source\PSoC4/CyLib.c **** 
 860:.\Generated_Source\PSoC4/CyLib.c ****         /* Wait for the circuit to stabilize */
 861:.\Generated_Source\PSoC4/CyLib.c ****         CyDelayUs(CY_LVD_STABILIZE_TIMEOUT_US);
 862:.\Generated_Source\PSoC4/CyLib.c **** 
 863:.\Generated_Source\PSoC4/CyLib.c ****         /* Clear the false event */
 864:.\Generated_Source\PSoC4/CyLib.c ****         CySysLvdClearInterrupt();
 865:.\Generated_Source\PSoC4/CyLib.c **** 
 866:.\Generated_Source\PSoC4/CyLib.c ****         /* Unmask the interrupt */
 867:.\Generated_Source\PSoC4/CyLib.c ****         CY_LVD_PWR_INTR_MASK_REG   |= CY_LVD_PROPAGATE_INT_TO_CPU;
 868:.\Generated_Source\PSoC4/CyLib.c ****     }
 869:.\Generated_Source\PSoC4/CyLib.c **** 
 870:.\Generated_Source\PSoC4/CyLib.c **** 
 871:.\Generated_Source\PSoC4/CyLib.c ****     /*******************************************************************************
 872:.\Generated_Source\PSoC4/CyLib.c ****     * Function Name: CySysLvdDisable
 873:.\Generated_Source\PSoC4/CyLib.c ****     ********************************************************************************
 874:.\Generated_Source\PSoC4/CyLib.c ****     *
 875:.\Generated_Source\PSoC4/CyLib.c ****     * Summary:
 876:.\Generated_Source\PSoC4/CyLib.c ****     *  Disables the low voltage detection. A low voltage interrupt is disabled.
 877:.\Generated_Source\PSoC4/CyLib.c ****     *
 878:.\Generated_Source\PSoC4/CyLib.c ****     * Parameters:
 879:.\Generated_Source\PSoC4/CyLib.c ****     *  None
 880:.\Generated_Source\PSoC4/CyLib.c ****     *
 881:.\Generated_Source\PSoC4/CyLib.c ****     * Return:
 882:.\Generated_Source\PSoC4/CyLib.c ****     *  None
 883:.\Generated_Source\PSoC4/CyLib.c ****     *
 884:.\Generated_Source\PSoC4/CyLib.c ****     *******************************************************************************/
 885:.\Generated_Source\PSoC4/CyLib.c ****     void CySysLvdDisable(void)
 886:.\Generated_Source\PSoC4/CyLib.c ****     {
 383              		.loc 1 886 0
 384              		.cfi_startproc
 887:.\Generated_Source\PSoC4/CyLib.c ****         CY_LVD_PWR_INTR_MASK_REG   &= ~CY_LVD_PROPAGATE_INT_TO_CPU;
 385              		.loc 1 887 0
 386 0000 0221     		mov	r1, #2
 387 0002 054A     		ldr	r2, .L31
 888:.\Generated_Source\PSoC4/CyLib.c ****         CY_LVD_PWR_VMON_CONFIG_REG &= ~CY_LVD_PWR_VMON_CONFIG_LVD_EN;
 889:.\Generated_Source\PSoC4/CyLib.c ****     }
 388              		.loc 1 889 0
 389              		@ sp needed
 887:.\Generated_Source\PSoC4/CyLib.c ****         CY_LVD_PWR_INTR_MASK_REG   &= ~CY_LVD_PROPAGATE_INT_TO_CPU;
 390              		.loc 1 887 0
 391 0004 1368     		ldr	r3, [r2]
 392 0006 8B43     		bic	r3, r1
 393 0008 1360     		str	r3, [r2]
 888:.\Generated_Source\PSoC4/CyLib.c ****         CY_LVD_PWR_VMON_CONFIG_REG &= ~CY_LVD_PWR_VMON_CONFIG_LVD_EN;
 394              		.loc 1 888 0
 395 000a 044A     		ldr	r2, .L31+4
 396 000c 0139     		sub	r1, r1, #1
 397 000e 1368     		ldr	r3, [r2]
ARM GAS  C:\Users\Helon\AppData\Local\Temp\cchg8CAa.s 			page 24


 398 0010 8B43     		bic	r3, r1
 399 0012 1360     		str	r3, [r2]
 400              		.loc 1 889 0
 401 0014 7047     		bx	lr
 402              	.L32:
 403 0016 C046     		.align	2
 404              	.L31:
 405 0018 08000B40 		.word	1074462728
 406 001c 18000B40 		.word	1074462744
 407              		.cfi_endproc
 408              	.LFE12:
 409              		.size	CySysLvdDisable, .-CySysLvdDisable
 410              		.section	.text.CySysLvdGetInterruptSource,"ax",%progbits
 411              		.align	1
 412              		.global	CySysLvdGetInterruptSource
 413              		.code	16
 414              		.thumb_func
 415              		.type	CySysLvdGetInterruptSource, %function
 416              	CySysLvdGetInterruptSource:
 417              	.LFB13:
 890:.\Generated_Source\PSoC4/CyLib.c **** 
 891:.\Generated_Source\PSoC4/CyLib.c **** 
 892:.\Generated_Source\PSoC4/CyLib.c ****     /*******************************************************************************
 893:.\Generated_Source\PSoC4/CyLib.c ****     * Function Name: CySysLvdGetInterruptSource
 894:.\Generated_Source\PSoC4/CyLib.c ****     ********************************************************************************
 895:.\Generated_Source\PSoC4/CyLib.c ****     *
 896:.\Generated_Source\PSoC4/CyLib.c ****     * Summary:
 897:.\Generated_Source\PSoC4/CyLib.c ****     *  Gets the low voltage detection interrupt status (without clearing).
 898:.\Generated_Source\PSoC4/CyLib.c ****     *
 899:.\Generated_Source\PSoC4/CyLib.c ****     * Parameters:
 900:.\Generated_Source\PSoC4/CyLib.c ****     *  None
 901:.\Generated_Source\PSoC4/CyLib.c ****     *
 902:.\Generated_Source\PSoC4/CyLib.c ****     * Return:
 903:.\Generated_Source\PSoC4/CyLib.c ****     *  Interrupt request value:
 904:.\Generated_Source\PSoC4/CyLib.c ****     *    CY_SYS_LVD_INT - Indicates an Low Voltage Detect interrupt
 905:.\Generated_Source\PSoC4/CyLib.c ****     *
 906:.\Generated_Source\PSoC4/CyLib.c ****     *******************************************************************************/
 907:.\Generated_Source\PSoC4/CyLib.c ****     uint32 CySysLvdGetInterruptSource(void)
 908:.\Generated_Source\PSoC4/CyLib.c ****     {
 418              		.loc 1 908 0
 419              		.cfi_startproc
 909:.\Generated_Source\PSoC4/CyLib.c ****         return (CY_LVD_PWR_INTR_REG & CY_SYS_LVD_INT);
 420              		.loc 1 909 0
 421 0000 024B     		ldr	r3, .L34
 910:.\Generated_Source\PSoC4/CyLib.c ****     }
 422              		.loc 1 910 0
 423              		@ sp needed
 909:.\Generated_Source\PSoC4/CyLib.c ****         return (CY_LVD_PWR_INTR_REG & CY_SYS_LVD_INT);
 424              		.loc 1 909 0
 425 0002 1868     		ldr	r0, [r3]
 426 0004 0223     		mov	r3, #2
 427 0006 1840     		and	r0, r3
 428              		.loc 1 910 0
 429 0008 7047     		bx	lr
 430              	.L35:
 431 000a C046     		.align	2
 432              	.L34:
ARM GAS  C:\Users\Helon\AppData\Local\Temp\cchg8CAa.s 			page 25


 433 000c 04000B40 		.word	1074462724
 434              		.cfi_endproc
 435              	.LFE13:
 436              		.size	CySysLvdGetInterruptSource, .-CySysLvdGetInterruptSource
 437              		.section	.text.CySysLvdClearInterrupt,"ax",%progbits
 438              		.align	1
 439              		.global	CySysLvdClearInterrupt
 440              		.code	16
 441              		.thumb_func
 442              		.type	CySysLvdClearInterrupt, %function
 443              	CySysLvdClearInterrupt:
 444              	.LFB14:
 911:.\Generated_Source\PSoC4/CyLib.c **** 
 912:.\Generated_Source\PSoC4/CyLib.c **** 
 913:.\Generated_Source\PSoC4/CyLib.c ****     /*******************************************************************************
 914:.\Generated_Source\PSoC4/CyLib.c ****     * Function Name: CySysLvdClearInterrupt
 915:.\Generated_Source\PSoC4/CyLib.c ****     ********************************************************************************
 916:.\Generated_Source\PSoC4/CyLib.c ****     *
 917:.\Generated_Source\PSoC4/CyLib.c ****     * Summary:
 918:.\Generated_Source\PSoC4/CyLib.c ****     *  Clears the low voltage detection interrupt status.
 919:.\Generated_Source\PSoC4/CyLib.c ****     *
 920:.\Generated_Source\PSoC4/CyLib.c ****     * Parameters:
 921:.\Generated_Source\PSoC4/CyLib.c ****     *  None
 922:.\Generated_Source\PSoC4/CyLib.c ****     *
 923:.\Generated_Source\PSoC4/CyLib.c ****     * Return:
 924:.\Generated_Source\PSoC4/CyLib.c ****     *  None
 925:.\Generated_Source\PSoC4/CyLib.c ****     *
 926:.\Generated_Source\PSoC4/CyLib.c ****     *******************************************************************************/
 927:.\Generated_Source\PSoC4/CyLib.c ****     void CySysLvdClearInterrupt(void)
 928:.\Generated_Source\PSoC4/CyLib.c ****     {
 445              		.loc 1 928 0
 446              		.cfi_startproc
 929:.\Generated_Source\PSoC4/CyLib.c ****         CY_LVD_PWR_INTR_REG = CY_SYS_LVD_INT;
 447              		.loc 1 929 0
 448 0000 0222     		mov	r2, #2
 449 0002 014B     		ldr	r3, .L37
 930:.\Generated_Source\PSoC4/CyLib.c ****     }
 450              		.loc 1 930 0
 451              		@ sp needed
 929:.\Generated_Source\PSoC4/CyLib.c ****         CY_LVD_PWR_INTR_REG = CY_SYS_LVD_INT;
 452              		.loc 1 929 0
 453 0004 1A60     		str	r2, [r3]
 454              		.loc 1 930 0
 455 0006 7047     		bx	lr
 456              	.L38:
 457              		.align	2
 458              	.L37:
 459 0008 04000B40 		.word	1074462724
 460              		.cfi_endproc
 461              	.LFE14:
 462              		.size	CySysLvdClearInterrupt, .-CySysLvdClearInterrupt
 463              		.section	.text.CySysGetResetReason,"ax",%progbits
 464              		.align	1
 465              		.global	CySysGetResetReason
 466              		.code	16
 467              		.thumb_func
 468              		.type	CySysGetResetReason, %function
ARM GAS  C:\Users\Helon\AppData\Local\Temp\cchg8CAa.s 			page 26


 469              	CySysGetResetReason:
 470              	.LFB15:
 931:.\Generated_Source\PSoC4/CyLib.c **** 
 932:.\Generated_Source\PSoC4/CyLib.c **** #endif /* (CY_IP_SRSSV2) */
 933:.\Generated_Source\PSoC4/CyLib.c **** 
 934:.\Generated_Source\PSoC4/CyLib.c **** 
 935:.\Generated_Source\PSoC4/CyLib.c **** /*******************************************************************************
 936:.\Generated_Source\PSoC4/CyLib.c **** * Function Name: CySysGetResetReason
 937:.\Generated_Source\PSoC4/CyLib.c **** ********************************************************************************
 938:.\Generated_Source\PSoC4/CyLib.c **** *
 939:.\Generated_Source\PSoC4/CyLib.c **** * Summary:
 940:.\Generated_Source\PSoC4/CyLib.c **** *  Reports the cause for the latest reset(s) that occurred in the system. All
 941:.\Generated_Source\PSoC4/CyLib.c **** *  the bits in the RES_CAUSE register assert when the corresponding reset cause
 942:.\Generated_Source\PSoC4/CyLib.c **** *  occurs and must be cleared by the firmware. These bits are cleared by the
 943:.\Generated_Source\PSoC4/CyLib.c **** *  hardware only during XRES, POR, or a detected brown-out.
 944:.\Generated_Source\PSoC4/CyLib.c **** *
 945:.\Generated_Source\PSoC4/CyLib.c **** * Parameters:
 946:.\Generated_Source\PSoC4/CyLib.c **** *  reason: bits in the RES_CAUSE register to clear.
 947:.\Generated_Source\PSoC4/CyLib.c **** *   CY_SYS_RESET_WDT       - WDT caused a reset
 948:.\Generated_Source\PSoC4/CyLib.c **** *   CY_SYS_RESET_PROTFAULT - Occured protection violation that requires reset
 949:.\Generated_Source\PSoC4/CyLib.c **** *   CY_SYS_RESET_SW        - Cortex-M0 requested a system reset.
 950:.\Generated_Source\PSoC4/CyLib.c **** *
 951:.\Generated_Source\PSoC4/CyLib.c **** * Return:
 952:.\Generated_Source\PSoC4/CyLib.c **** *  Status. Same enumerated bit values as used for the reason parameter.
 953:.\Generated_Source\PSoC4/CyLib.c **** *
 954:.\Generated_Source\PSoC4/CyLib.c **** *******************************************************************************/
 955:.\Generated_Source\PSoC4/CyLib.c **** uint32 CySysGetResetReason(uint32 reason)
 956:.\Generated_Source\PSoC4/CyLib.c **** {
 471              		.loc 1 956 0
 472              		.cfi_startproc
 473              	.LVL15:
 957:.\Generated_Source\PSoC4/CyLib.c ****     uint32 status;
 958:.\Generated_Source\PSoC4/CyLib.c **** 
 959:.\Generated_Source\PSoC4/CyLib.c ****     reason &= (CY_SYS_RESET_WDT | CY_SYS_RESET_PROTFAULT | CY_SYS_RESET_SW);
 474              		.loc 1 959 0
 475 0000 1923     		mov	r3, #25
 476 0002 021C     		mov	r2, r0
 960:.\Generated_Source\PSoC4/CyLib.c ****     status = CY_SYS_RES_CAUSE_REG &
 477              		.loc 1 960 0
 478 0004 0249     		ldr	r1, .L40
 959:.\Generated_Source\PSoC4/CyLib.c ****     status = CY_SYS_RES_CAUSE_REG &
 479              		.loc 1 959 0
 480 0006 1A40     		and	r2, r3
 481              	.LVL16:
 482              		.loc 1 960 0
 483 0008 0868     		ldr	r0, [r1]
 484              	.LVL17:
 961:.\Generated_Source\PSoC4/CyLib.c ****              (CY_SYS_RESET_WDT | CY_SYS_RESET_PROTFAULT | CY_SYS_RESET_SW);
 962:.\Generated_Source\PSoC4/CyLib.c ****     CY_SYS_RES_CAUSE_REG = reason;
 963:.\Generated_Source\PSoC4/CyLib.c **** 
 964:.\Generated_Source\PSoC4/CyLib.c ****     return (status);
 965:.\Generated_Source\PSoC4/CyLib.c **** }
 485              		.loc 1 965 0
 486              		@ sp needed
 960:.\Generated_Source\PSoC4/CyLib.c ****              (CY_SYS_RESET_WDT | CY_SYS_RESET_PROTFAULT | CY_SYS_RESET_SW);
 487              		.loc 1 960 0
 488 000a 1840     		and	r0, r3
ARM GAS  C:\Users\Helon\AppData\Local\Temp\cchg8CAa.s 			page 27


 489              	.LVL18:
 962:.\Generated_Source\PSoC4/CyLib.c **** 
 490              		.loc 1 962 0
 491 000c 0A60     		str	r2, [r1]
 492              		.loc 1 965 0
 493 000e 7047     		bx	lr
 494              	.L41:
 495              		.align	2
 496              	.L40:
 497 0010 00030B40 		.word	1074463488
 498              		.cfi_endproc
 499              	.LFE15:
 500              		.size	CySysGetResetReason, .-CySysGetResetReason
 501              		.section	.text.CyDisableInts,"ax",%progbits
 502              		.align	1
 503              		.global	CyDisableInts
 504              		.code	16
 505              		.thumb_func
 506              		.type	CyDisableInts, %function
 507              	CyDisableInts:
 508              	.LFB16:
 966:.\Generated_Source\PSoC4/CyLib.c **** 
 967:.\Generated_Source\PSoC4/CyLib.c **** 
 968:.\Generated_Source\PSoC4/CyLib.c **** /*******************************************************************************
 969:.\Generated_Source\PSoC4/CyLib.c **** * Function Name: CyDisableInts
 970:.\Generated_Source\PSoC4/CyLib.c **** ********************************************************************************
 971:.\Generated_Source\PSoC4/CyLib.c **** *
 972:.\Generated_Source\PSoC4/CyLib.c **** * Summary:
 973:.\Generated_Source\PSoC4/CyLib.c **** *  Disables all interrupts.
 974:.\Generated_Source\PSoC4/CyLib.c **** *
 975:.\Generated_Source\PSoC4/CyLib.c **** * Parameters:
 976:.\Generated_Source\PSoC4/CyLib.c **** *  None
 977:.\Generated_Source\PSoC4/CyLib.c **** *
 978:.\Generated_Source\PSoC4/CyLib.c **** * Return:
 979:.\Generated_Source\PSoC4/CyLib.c **** *  32 bit mask of previously enabled interrupts.
 980:.\Generated_Source\PSoC4/CyLib.c **** *
 981:.\Generated_Source\PSoC4/CyLib.c **** *******************************************************************************/
 982:.\Generated_Source\PSoC4/CyLib.c **** uint32 CyDisableInts(void)
 983:.\Generated_Source\PSoC4/CyLib.c **** {
 509              		.loc 1 983 0
 510              		.cfi_startproc
 984:.\Generated_Source\PSoC4/CyLib.c ****     uint32 intState;
 985:.\Generated_Source\PSoC4/CyLib.c **** 
 986:.\Generated_Source\PSoC4/CyLib.c ****     /* Get current interrupt state. */
 987:.\Generated_Source\PSoC4/CyLib.c ****     intState = CY_INT_CLEAR_REG;
 988:.\Generated_Source\PSoC4/CyLib.c **** 
 989:.\Generated_Source\PSoC4/CyLib.c ****     /* Disable all interrupts. */
 990:.\Generated_Source\PSoC4/CyLib.c ****     CY_INT_CLEAR_REG = CY_INT_CLEAR_DISABLE_ALL;
 511              		.loc 1 990 0
 512 0000 0122     		mov	r2, #1
 987:.\Generated_Source\PSoC4/CyLib.c **** 
 513              		.loc 1 987 0
 514 0002 024B     		ldr	r3, .L43
 515              		.loc 1 990 0
 516 0004 5242     		neg	r2, r2
 987:.\Generated_Source\PSoC4/CyLib.c **** 
 517              		.loc 1 987 0
ARM GAS  C:\Users\Helon\AppData\Local\Temp\cchg8CAa.s 			page 28


 518 0006 1868     		ldr	r0, [r3]
 519              	.LVL19:
 991:.\Generated_Source\PSoC4/CyLib.c **** 
 992:.\Generated_Source\PSoC4/CyLib.c ****     return (intState);
 993:.\Generated_Source\PSoC4/CyLib.c **** }
 520              		.loc 1 993 0
 521              		@ sp needed
 990:.\Generated_Source\PSoC4/CyLib.c **** 
 522              		.loc 1 990 0
 523 0008 1A60     		str	r2, [r3]
 524              		.loc 1 993 0
 525 000a 7047     		bx	lr
 526              	.L44:
 527              		.align	2
 528              	.L43:
 529 000c 80E100E0 		.word	-536813184
 530              		.cfi_endproc
 531              	.LFE16:
 532              		.size	CyDisableInts, .-CyDisableInts
 533              		.section	.text.CyEnableInts,"ax",%progbits
 534              		.align	1
 535              		.global	CyEnableInts
 536              		.code	16
 537              		.thumb_func
 538              		.type	CyEnableInts, %function
 539              	CyEnableInts:
 540              	.LFB17:
 994:.\Generated_Source\PSoC4/CyLib.c **** 
 995:.\Generated_Source\PSoC4/CyLib.c **** 
 996:.\Generated_Source\PSoC4/CyLib.c **** /*******************************************************************************
 997:.\Generated_Source\PSoC4/CyLib.c **** * Function Name: CyEnableInts
 998:.\Generated_Source\PSoC4/CyLib.c **** ********************************************************************************
 999:.\Generated_Source\PSoC4/CyLib.c **** *
1000:.\Generated_Source\PSoC4/CyLib.c **** * Summary:
1001:.\Generated_Source\PSoC4/CyLib.c **** *  Enables interrupts to a given state.
1002:.\Generated_Source\PSoC4/CyLib.c **** *
1003:.\Generated_Source\PSoC4/CyLib.c **** * Parameters:
1004:.\Generated_Source\PSoC4/CyLib.c **** *   mask, 32 bit mask of interrupts to enable.
1005:.\Generated_Source\PSoC4/CyLib.c **** *
1006:.\Generated_Source\PSoC4/CyLib.c **** * Return:
1007:.\Generated_Source\PSoC4/CyLib.c **** *  None
1008:.\Generated_Source\PSoC4/CyLib.c **** *
1009:.\Generated_Source\PSoC4/CyLib.c **** *******************************************************************************/
1010:.\Generated_Source\PSoC4/CyLib.c **** void CyEnableInts(uint32 mask)
1011:.\Generated_Source\PSoC4/CyLib.c **** {
 541              		.loc 1 1011 0
 542              		.cfi_startproc
 543              	.LVL20:
1012:.\Generated_Source\PSoC4/CyLib.c ****     CY_INT_ENABLE_REG = mask;
 544              		.loc 1 1012 0
 545 0000 014B     		ldr	r3, .L46
1013:.\Generated_Source\PSoC4/CyLib.c **** }
 546              		.loc 1 1013 0
 547              		@ sp needed
1012:.\Generated_Source\PSoC4/CyLib.c ****     CY_INT_ENABLE_REG = mask;
 548              		.loc 1 1012 0
 549 0002 1860     		str	r0, [r3]
ARM GAS  C:\Users\Helon\AppData\Local\Temp\cchg8CAa.s 			page 29


 550              		.loc 1 1013 0
 551 0004 7047     		bx	lr
 552              	.L47:
 553 0006 C046     		.align	2
 554              	.L46:
 555 0008 00E100E0 		.word	-536813312
 556              		.cfi_endproc
 557              	.LFE17:
 558              		.size	CyEnableInts, .-CyEnableInts
 559              		.section	.text.CyIntSetSysVector,"ax",%progbits
 560              		.align	1
 561              		.global	CyIntSetSysVector
 562              		.code	16
 563              		.thumb_func
 564              		.type	CyIntSetSysVector, %function
 565              	CyIntSetSysVector:
 566              	.LFB18:
1014:.\Generated_Source\PSoC4/CyLib.c **** 
1015:.\Generated_Source\PSoC4/CyLib.c **** 
1016:.\Generated_Source\PSoC4/CyLib.c **** /*******************************************************************************
1017:.\Generated_Source\PSoC4/CyLib.c **** * Function Name: CyIntSetSysVector
1018:.\Generated_Source\PSoC4/CyLib.c **** ********************************************************************************
1019:.\Generated_Source\PSoC4/CyLib.c **** *
1020:.\Generated_Source\PSoC4/CyLib.c **** * Summary:
1021:.\Generated_Source\PSoC4/CyLib.c **** *  Sets the interrupt vector of the specified system interrupt number. These
1022:.\Generated_Source\PSoC4/CyLib.c **** *  interrupts are for SysTick, PendSV and others.
1023:.\Generated_Source\PSoC4/CyLib.c **** *
1024:.\Generated_Source\PSoC4/CyLib.c **** * Parameters:
1025:.\Generated_Source\PSoC4/CyLib.c **** *  number: System interrupt number:
1026:.\Generated_Source\PSoC4/CyLib.c **** *    CY_INT_NMI_IRQN        - Non Maskable Interrupt
1027:.\Generated_Source\PSoC4/CyLib.c **** *    CY_INT_HARD_FAULT_IRQN - Hard Fault Interrupt
1028:.\Generated_Source\PSoC4/CyLib.c **** *    CY_INT_SVCALL_IRQN     - SV Call Interrupt
1029:.\Generated_Source\PSoC4/CyLib.c **** *    CY_INT_PEND_SV_IRQN    - Pend SV Interrupt
1030:.\Generated_Source\PSoC4/CyLib.c **** *    CY_INT_SYSTICK_IRQN    - System Tick Interrupt
1031:.\Generated_Source\PSoC4/CyLib.c **** *
1032:.\Generated_Source\PSoC4/CyLib.c **** *  address: Pointer to an interrupt service routine.
1033:.\Generated_Source\PSoC4/CyLib.c **** *
1034:.\Generated_Source\PSoC4/CyLib.c **** * Return:
1035:.\Generated_Source\PSoC4/CyLib.c **** *  The old ISR vector at this location.
1036:.\Generated_Source\PSoC4/CyLib.c **** *
1037:.\Generated_Source\PSoC4/CyLib.c **** *******************************************************************************/
1038:.\Generated_Source\PSoC4/CyLib.c **** cyisraddress CyIntSetSysVector(uint8 number, cyisraddress address)
1039:.\Generated_Source\PSoC4/CyLib.c **** {
 567              		.loc 1 1039 0
 568              		.cfi_startproc
 569              	.LVL21:
1040:.\Generated_Source\PSoC4/CyLib.c ****     cyisraddress oldIsr;
1041:.\Generated_Source\PSoC4/CyLib.c ****     cyisraddress *ramVectorTable = (cyisraddress *) CY_INT_VECT_TABLE;
1042:.\Generated_Source\PSoC4/CyLib.c **** 
1043:.\Generated_Source\PSoC4/CyLib.c ****     CYASSERT(number < CY_INT_IRQ_BASE);
1044:.\Generated_Source\PSoC4/CyLib.c **** 
1045:.\Generated_Source\PSoC4/CyLib.c ****     /* Save old Interrupt service routine. */
1046:.\Generated_Source\PSoC4/CyLib.c ****     oldIsr = ramVectorTable[number];
 570              		.loc 1 1046 0
 571 0000 8023     		mov	r3, #128
 572 0002 8000     		lsl	r0, r0, #2
 573              	.LVL22:
ARM GAS  C:\Users\Helon\AppData\Local\Temp\cchg8CAa.s 			page 30


 574 0004 9B05     		lsl	r3, r3, #22
 575 0006 C318     		add	r3, r0, r3
 576 0008 1868     		ldr	r0, [r3]
 577              	.LVL23:
1047:.\Generated_Source\PSoC4/CyLib.c **** 
1048:.\Generated_Source\PSoC4/CyLib.c ****     /* Set new Interrupt service routine. */
1049:.\Generated_Source\PSoC4/CyLib.c ****     ramVectorTable[number] = address;
1050:.\Generated_Source\PSoC4/CyLib.c **** 
1051:.\Generated_Source\PSoC4/CyLib.c ****     return(oldIsr);
1052:.\Generated_Source\PSoC4/CyLib.c **** }
 578              		.loc 1 1052 0
 579              		@ sp needed
1049:.\Generated_Source\PSoC4/CyLib.c **** 
 580              		.loc 1 1049 0
 581 000a 1960     		str	r1, [r3]
 582              		.loc 1 1052 0
 583 000c 7047     		bx	lr
 584              		.cfi_endproc
 585              	.LFE18:
 586              		.size	CyIntSetSysVector, .-CyIntSetSysVector
 587              		.section	.text.CyIntGetSysVector,"ax",%progbits
 588              		.align	1
 589              		.global	CyIntGetSysVector
 590              		.code	16
 591              		.thumb_func
 592              		.type	CyIntGetSysVector, %function
 593              	CyIntGetSysVector:
 594              	.LFB19:
1053:.\Generated_Source\PSoC4/CyLib.c **** 
1054:.\Generated_Source\PSoC4/CyLib.c **** 
1055:.\Generated_Source\PSoC4/CyLib.c **** /*******************************************************************************
1056:.\Generated_Source\PSoC4/CyLib.c **** * Function Name: CyIntGetSysVector
1057:.\Generated_Source\PSoC4/CyLib.c **** ********************************************************************************
1058:.\Generated_Source\PSoC4/CyLib.c **** *
1059:.\Generated_Source\PSoC4/CyLib.c **** * Summary:
1060:.\Generated_Source\PSoC4/CyLib.c **** *   Gets the interrupt vector of the specified system interrupt number. These
1061:.\Generated_Source\PSoC4/CyLib.c **** *   interrupts are for SysTick, PendSV and others.
1062:.\Generated_Source\PSoC4/CyLib.c **** *
1063:.\Generated_Source\PSoC4/CyLib.c **** * Parameters:
1064:.\Generated_Source\PSoC4/CyLib.c **** *  number: System interrupt number:
1065:.\Generated_Source\PSoC4/CyLib.c **** *    CY_INT_NMI_IRQN        - Non Maskable Interrupt
1066:.\Generated_Source\PSoC4/CyLib.c **** *    CY_INT_HARD_FAULT_IRQN - Hard Fault Interrupt
1067:.\Generated_Source\PSoC4/CyLib.c **** *    CY_INT_SVCALL_IRQN     - SV Call Interrupt
1068:.\Generated_Source\PSoC4/CyLib.c **** *    CY_INT_PEND_SV_IRQN    - Pend SV Interrupt
1069:.\Generated_Source\PSoC4/CyLib.c **** *    CY_INT_SYSTICK_IRQN    - System Tick Interrupt
1070:.\Generated_Source\PSoC4/CyLib.c **** *
1071:.\Generated_Source\PSoC4/CyLib.c **** * Return:
1072:.\Generated_Source\PSoC4/CyLib.c **** *   Address of the ISR in the interrupt vector table.
1073:.\Generated_Source\PSoC4/CyLib.c **** *
1074:.\Generated_Source\PSoC4/CyLib.c **** *******************************************************************************/
1075:.\Generated_Source\PSoC4/CyLib.c **** cyisraddress CyIntGetSysVector(uint8 number)
1076:.\Generated_Source\PSoC4/CyLib.c **** {
 595              		.loc 1 1076 0
 596              		.cfi_startproc
 597              	.LVL24:
1077:.\Generated_Source\PSoC4/CyLib.c ****     cyisraddress *ramVectorTable = (cyisraddress *) CY_INT_VECT_TABLE;
1078:.\Generated_Source\PSoC4/CyLib.c **** 
ARM GAS  C:\Users\Helon\AppData\Local\Temp\cchg8CAa.s 			page 31


1079:.\Generated_Source\PSoC4/CyLib.c ****     CYASSERT(number < CY_INT_IRQ_BASE);
1080:.\Generated_Source\PSoC4/CyLib.c **** 
1081:.\Generated_Source\PSoC4/CyLib.c ****     return(ramVectorTable[number]);
 598              		.loc 1 1081 0
 599 0000 8023     		mov	r3, #128
 600 0002 8000     		lsl	r0, r0, #2
 601              	.LVL25:
 602 0004 9B05     		lsl	r3, r3, #22
 603 0006 C018     		add	r0, r0, r3
 604 0008 0068     		ldr	r0, [r0]
1082:.\Generated_Source\PSoC4/CyLib.c **** }
 605              		.loc 1 1082 0
 606              		@ sp needed
 607 000a 7047     		bx	lr
 608              		.cfi_endproc
 609              	.LFE19:
 610              		.size	CyIntGetSysVector, .-CyIntGetSysVector
 611              		.section	.text.CyIntSetVector,"ax",%progbits
 612              		.align	1
 613              		.global	CyIntSetVector
 614              		.code	16
 615              		.thumb_func
 616              		.type	CyIntSetVector, %function
 617              	CyIntSetVector:
 618              	.LFB20:
1083:.\Generated_Source\PSoC4/CyLib.c **** 
1084:.\Generated_Source\PSoC4/CyLib.c **** 
1085:.\Generated_Source\PSoC4/CyLib.c **** /*******************************************************************************
1086:.\Generated_Source\PSoC4/CyLib.c **** * Function Name: CyIntSetVector
1087:.\Generated_Source\PSoC4/CyLib.c **** ********************************************************************************
1088:.\Generated_Source\PSoC4/CyLib.c **** *
1089:.\Generated_Source\PSoC4/CyLib.c **** * Summary:
1090:.\Generated_Source\PSoC4/CyLib.c **** *  Sets the interrupt vector of the specified interrupt number.
1091:.\Generated_Source\PSoC4/CyLib.c **** *
1092:.\Generated_Source\PSoC4/CyLib.c **** * Parameters:
1093:.\Generated_Source\PSoC4/CyLib.c **** *  number: Valid range [0-31].  Interrupt number
1094:.\Generated_Source\PSoC4/CyLib.c **** *  address: Pointer to an interrupt service routine
1095:.\Generated_Source\PSoC4/CyLib.c **** *
1096:.\Generated_Source\PSoC4/CyLib.c **** * Return:
1097:.\Generated_Source\PSoC4/CyLib.c **** *   Previous interrupt vector value.
1098:.\Generated_Source\PSoC4/CyLib.c **** *
1099:.\Generated_Source\PSoC4/CyLib.c **** *******************************************************************************/
1100:.\Generated_Source\PSoC4/CyLib.c **** cyisraddress CyIntSetVector(uint8 number, cyisraddress address)
1101:.\Generated_Source\PSoC4/CyLib.c **** {
 619              		.loc 1 1101 0
 620              		.cfi_startproc
 621              	.LVL26:
1102:.\Generated_Source\PSoC4/CyLib.c ****     cyisraddress oldIsr;
1103:.\Generated_Source\PSoC4/CyLib.c ****     cyisraddress *ramVectorTable = (cyisraddress *) CY_INT_VECT_TABLE;
1104:.\Generated_Source\PSoC4/CyLib.c **** 
1105:.\Generated_Source\PSoC4/CyLib.c ****     CYASSERT(number < CY_NUM_INTERRUPTS);
1106:.\Generated_Source\PSoC4/CyLib.c **** 
1107:.\Generated_Source\PSoC4/CyLib.c ****     /* Save old Interrupt service routine. */
1108:.\Generated_Source\PSoC4/CyLib.c ****     oldIsr = ramVectorTable[CY_INT_IRQ_BASE + number];
 622              		.loc 1 1108 0
 623 0000 024B     		ldr	r3, .L51
 624 0002 8000     		lsl	r0, r0, #2
ARM GAS  C:\Users\Helon\AppData\Local\Temp\cchg8CAa.s 			page 32


 625              	.LVL27:
 626 0004 C318     		add	r3, r0, r3
 627 0006 1868     		ldr	r0, [r3]
 628              	.LVL28:
1109:.\Generated_Source\PSoC4/CyLib.c **** 
1110:.\Generated_Source\PSoC4/CyLib.c ****     /* Set new Interrupt service routine. */
1111:.\Generated_Source\PSoC4/CyLib.c ****     ramVectorTable[CY_INT_IRQ_BASE + number] = address;
1112:.\Generated_Source\PSoC4/CyLib.c **** 
1113:.\Generated_Source\PSoC4/CyLib.c ****     return(oldIsr);
1114:.\Generated_Source\PSoC4/CyLib.c **** }
 629              		.loc 1 1114 0
 630              		@ sp needed
1111:.\Generated_Source\PSoC4/CyLib.c **** 
 631              		.loc 1 1111 0
 632 0008 1960     		str	r1, [r3]
 633              		.loc 1 1114 0
 634 000a 7047     		bx	lr
 635              	.L52:
 636              		.align	2
 637              	.L51:
 638 000c 40000020 		.word	536870976
 639              		.cfi_endproc
 640              	.LFE20:
 641              		.size	CyIntSetVector, .-CyIntSetVector
 642              		.section	.text.CyIntGetVector,"ax",%progbits
 643              		.align	1
 644              		.global	CyIntGetVector
 645              		.code	16
 646              		.thumb_func
 647              		.type	CyIntGetVector, %function
 648              	CyIntGetVector:
 649              	.LFB21:
1115:.\Generated_Source\PSoC4/CyLib.c **** 
1116:.\Generated_Source\PSoC4/CyLib.c **** 
1117:.\Generated_Source\PSoC4/CyLib.c **** /*******************************************************************************
1118:.\Generated_Source\PSoC4/CyLib.c **** * Function Name: CyIntGetVector
1119:.\Generated_Source\PSoC4/CyLib.c **** ********************************************************************************
1120:.\Generated_Source\PSoC4/CyLib.c **** *
1121:.\Generated_Source\PSoC4/CyLib.c **** * Summary:
1122:.\Generated_Source\PSoC4/CyLib.c **** *  Gets the interrupt vector of the specified interrupt number.
1123:.\Generated_Source\PSoC4/CyLib.c **** *
1124:.\Generated_Source\PSoC4/CyLib.c **** * Parameters:
1125:.\Generated_Source\PSoC4/CyLib.c **** *  number: Valid range [0-31].  Interrupt number
1126:.\Generated_Source\PSoC4/CyLib.c **** *
1127:.\Generated_Source\PSoC4/CyLib.c **** * Return:
1128:.\Generated_Source\PSoC4/CyLib.c **** *  Address of the ISR in the interrupt vector table.
1129:.\Generated_Source\PSoC4/CyLib.c **** *
1130:.\Generated_Source\PSoC4/CyLib.c **** *******************************************************************************/
1131:.\Generated_Source\PSoC4/CyLib.c **** cyisraddress CyIntGetVector(uint8 number)
1132:.\Generated_Source\PSoC4/CyLib.c **** {
 650              		.loc 1 1132 0
 651              		.cfi_startproc
 652              	.LVL29:
1133:.\Generated_Source\PSoC4/CyLib.c ****     cyisraddress *ramVectorTable = (cyisraddress *) CY_INT_VECT_TABLE;
1134:.\Generated_Source\PSoC4/CyLib.c **** 
1135:.\Generated_Source\PSoC4/CyLib.c ****     CYASSERT(number < CY_NUM_INTERRUPTS);
1136:.\Generated_Source\PSoC4/CyLib.c **** 
ARM GAS  C:\Users\Helon\AppData\Local\Temp\cchg8CAa.s 			page 33


1137:.\Generated_Source\PSoC4/CyLib.c ****     return (ramVectorTable[CY_INT_IRQ_BASE + number]);
 653              		.loc 1 1137 0
 654 0000 024B     		ldr	r3, .L54
 655 0002 8000     		lsl	r0, r0, #2
 656              	.LVL30:
 657 0004 C018     		add	r0, r0, r3
 658 0006 0068     		ldr	r0, [r0]
1138:.\Generated_Source\PSoC4/CyLib.c **** }
 659              		.loc 1 1138 0
 660              		@ sp needed
 661 0008 7047     		bx	lr
 662              	.L55:
 663 000a C046     		.align	2
 664              	.L54:
 665 000c 40000020 		.word	536870976
 666              		.cfi_endproc
 667              	.LFE21:
 668              		.size	CyIntGetVector, .-CyIntGetVector
 669              		.section	.text.CyIntSetPriority,"ax",%progbits
 670              		.align	1
 671              		.global	CyIntSetPriority
 672              		.code	16
 673              		.thumb_func
 674              		.type	CyIntSetPriority, %function
 675              	CyIntSetPriority:
 676              	.LFB22:
1139:.\Generated_Source\PSoC4/CyLib.c **** 
1140:.\Generated_Source\PSoC4/CyLib.c **** /*******************************************************************************
1141:.\Generated_Source\PSoC4/CyLib.c **** * Function Name: CyIntSetPriority
1142:.\Generated_Source\PSoC4/CyLib.c **** ********************************************************************************
1143:.\Generated_Source\PSoC4/CyLib.c **** *
1144:.\Generated_Source\PSoC4/CyLib.c **** * Summary:
1145:.\Generated_Source\PSoC4/CyLib.c **** *  Sets the priority of the interrupt.
1146:.\Generated_Source\PSoC4/CyLib.c **** *
1147:.\Generated_Source\PSoC4/CyLib.c **** * Parameters:
1148:.\Generated_Source\PSoC4/CyLib.c **** *  priority: Priority of the interrupt. 0 - 3, 0 being the highest.
1149:.\Generated_Source\PSoC4/CyLib.c **** *  number: The number of the interrupt, 0 - 31.
1150:.\Generated_Source\PSoC4/CyLib.c **** *
1151:.\Generated_Source\PSoC4/CyLib.c **** * Return:
1152:.\Generated_Source\PSoC4/CyLib.c **** *  None
1153:.\Generated_Source\PSoC4/CyLib.c **** *
1154:.\Generated_Source\PSoC4/CyLib.c **** *******************************************************************************/
1155:.\Generated_Source\PSoC4/CyLib.c **** void CyIntSetPriority(uint8 number, uint8 priority)
1156:.\Generated_Source\PSoC4/CyLib.c **** {
 677              		.loc 1 1156 0
 678              		.cfi_startproc
 679              	.LVL31:
 680 0000 38B5     		push	{r3, r4, r5, lr}
 681              		.cfi_def_cfa_offset 16
 682              		.cfi_offset 3, -16
 683              		.cfi_offset 4, -12
 684              		.cfi_offset 5, -8
 685              		.cfi_offset 14, -4
 686              		.loc 1 1156 0
 687 0002 041C     		mov	r4, r0
 688              	.LVL32:
 689 0004 0D1C     		mov	r5, r1
ARM GAS  C:\Users\Helon\AppData\Local\Temp\cchg8CAa.s 			page 34


1157:.\Generated_Source\PSoC4/CyLib.c ****     uint8 interruptState;
1158:.\Generated_Source\PSoC4/CyLib.c ****     uint32 shift;
1159:.\Generated_Source\PSoC4/CyLib.c ****     uint32 value;
1160:.\Generated_Source\PSoC4/CyLib.c **** 
1161:.\Generated_Source\PSoC4/CyLib.c ****     CYASSERT(priority <= CY_MIN_PRIORITY);
1162:.\Generated_Source\PSoC4/CyLib.c ****     CYASSERT(number < CY_NUM_INTERRUPTS);
1163:.\Generated_Source\PSoC4/CyLib.c **** 
1164:.\Generated_Source\PSoC4/CyLib.c ****     shift = CY_INT_PRIORITY_SHIFT(number);
1165:.\Generated_Source\PSoC4/CyLib.c **** 
1166:.\Generated_Source\PSoC4/CyLib.c ****     interruptState = CyEnterCriticalSection();
 690              		.loc 1 1166 0
 691 0006 FFF7FEFF 		bl	CyEnterCriticalSection
 692              	.LVL33:
1167:.\Generated_Source\PSoC4/CyLib.c **** 
1168:.\Generated_Source\PSoC4/CyLib.c ****     value = CY_INT_PRIORITY_REG(number);
 693              		.loc 1 1168 0
 694 000a A308     		lsr	r3, r4, #2
 695 000c 074A     		ldr	r2, .L57
 696 000e 9B00     		lsl	r3, r3, #2
 697 0010 9B18     		add	r3, r3, r2
1164:.\Generated_Source\PSoC4/CyLib.c **** 
 698              		.loc 1 1164 0
 699 0012 0322     		mov	r2, #3
 700 0014 1440     		and	r4, r2
 701              	.LVL34:
 702 0016 9440     		lsl	r4, r4, r2
 703 0018 0634     		add	r4, r4, #6
1169:.\Generated_Source\PSoC4/CyLib.c ****     value &= (uint32)(~((uint32)(CY_INT_PRIORITY_MASK << shift)));
 704              		.loc 1 1169 0
 705 001a A240     		lsl	r2, r2, r4
1170:.\Generated_Source\PSoC4/CyLib.c ****     value |= ((uint32)priority << shift);
 706              		.loc 1 1170 0
 707 001c A540     		lsl	r5, r5, r4
1168:.\Generated_Source\PSoC4/CyLib.c ****     value &= (uint32)(~((uint32)(CY_INT_PRIORITY_MASK << shift)));
 708              		.loc 1 1168 0
 709 001e 1968     		ldr	r1, [r3]
 710              	.LVL35:
1171:.\Generated_Source\PSoC4/CyLib.c ****     CY_INT_PRIORITY_REG(number) = value;
1172:.\Generated_Source\PSoC4/CyLib.c **** 
1173:.\Generated_Source\PSoC4/CyLib.c ****     CyExitCriticalSection(interruptState);
1174:.\Generated_Source\PSoC4/CyLib.c **** }
 711              		.loc 1 1174 0
 712              		@ sp needed
1169:.\Generated_Source\PSoC4/CyLib.c ****     value |= ((uint32)priority << shift);
 713              		.loc 1 1169 0
 714 0020 9143     		bic	r1, r2
 715              	.LVL36:
1170:.\Generated_Source\PSoC4/CyLib.c ****     CY_INT_PRIORITY_REG(number) = value;
 716              		.loc 1 1170 0
 717 0022 2943     		orr	r1, r5
 718              	.LVL37:
1171:.\Generated_Source\PSoC4/CyLib.c ****     CY_INT_PRIORITY_REG(number) = value;
 719              		.loc 1 1171 0
 720 0024 1960     		str	r1, [r3]
1173:.\Generated_Source\PSoC4/CyLib.c **** }
 721              		.loc 1 1173 0
 722 0026 FFF7FEFF 		bl	CyExitCriticalSection
ARM GAS  C:\Users\Helon\AppData\Local\Temp\cchg8CAa.s 			page 35


 723              	.LVL38:
 724              		.loc 1 1174 0
 725 002a 38BD     		pop	{r3, r4, r5, pc}
 726              	.L58:
 727              		.align	2
 728              	.L57:
 729 002c 00E400E0 		.word	-536812544
 730              		.cfi_endproc
 731              	.LFE22:
 732              		.size	CyIntSetPriority, .-CyIntSetPriority
 733              		.section	.text.CyIntGetPriority,"ax",%progbits
 734              		.align	1
 735              		.global	CyIntGetPriority
 736              		.code	16
 737              		.thumb_func
 738              		.type	CyIntGetPriority, %function
 739              	CyIntGetPriority:
 740              	.LFB23:
1175:.\Generated_Source\PSoC4/CyLib.c **** 
1176:.\Generated_Source\PSoC4/CyLib.c **** 
1177:.\Generated_Source\PSoC4/CyLib.c **** /*******************************************************************************
1178:.\Generated_Source\PSoC4/CyLib.c **** * Function Name: CyIntGetPriority
1179:.\Generated_Source\PSoC4/CyLib.c **** ********************************************************************************
1180:.\Generated_Source\PSoC4/CyLib.c **** *
1181:.\Generated_Source\PSoC4/CyLib.c **** * Summary:
1182:.\Generated_Source\PSoC4/CyLib.c **** *  Gets the priority of the interrupt.
1183:.\Generated_Source\PSoC4/CyLib.c **** *
1184:.\Generated_Source\PSoC4/CyLib.c **** * Parameters:
1185:.\Generated_Source\PSoC4/CyLib.c **** *  number: The number of the interrupt, 0 - 31.
1186:.\Generated_Source\PSoC4/CyLib.c **** *
1187:.\Generated_Source\PSoC4/CyLib.c **** * Return:
1188:.\Generated_Source\PSoC4/CyLib.c **** *  Priority of the interrupt. 0 - 3, 0 being the highest.
1189:.\Generated_Source\PSoC4/CyLib.c **** *
1190:.\Generated_Source\PSoC4/CyLib.c **** *******************************************************************************/
1191:.\Generated_Source\PSoC4/CyLib.c **** uint8 CyIntGetPriority(uint8 number)
1192:.\Generated_Source\PSoC4/CyLib.c **** {
 741              		.loc 1 1192 0
 742              		.cfi_startproc
 743              	.LVL39:
1193:.\Generated_Source\PSoC4/CyLib.c ****     uint8 priority;
1194:.\Generated_Source\PSoC4/CyLib.c **** 
1195:.\Generated_Source\PSoC4/CyLib.c ****     CYASSERT(number < CY_NUM_INTERRUPTS);
1196:.\Generated_Source\PSoC4/CyLib.c **** 
1197:.\Generated_Source\PSoC4/CyLib.c ****     priority = (uint8) (CY_INT_PRIORITY_REG(number) >> CY_INT_PRIORITY_SHIFT(number));
 744              		.loc 1 1197 0
 745 0000 8308     		lsr	r3, r0, #2
 746 0002 064A     		ldr	r2, .L60
 747 0004 9B00     		lsl	r3, r3, #2
 748 0006 9B18     		add	r3, r3, r2
 749 0008 1968     		ldr	r1, [r3]
 750              	.LVL40:
 751 000a 0322     		mov	r2, #3
 752 000c 031C     		mov	r3, r0
 753 000e 1340     		and	r3, r2
 754 0010 9340     		lsl	r3, r3, r2
 755 0012 0633     		add	r3, r3, #6
 756 0014 D940     		lsr	r1, r1, r3
ARM GAS  C:\Users\Helon\AppData\Local\Temp\cchg8CAa.s 			page 36


 757              	.LVL41:
 758 0016 081C     		mov	r0, r1
 759              	.LVL42:
1198:.\Generated_Source\PSoC4/CyLib.c **** 
1199:.\Generated_Source\PSoC4/CyLib.c ****     return (priority & (uint8) CY_INT_PRIORITY_MASK);
1200:.\Generated_Source\PSoC4/CyLib.c **** }
 760              		.loc 1 1200 0
 761              		@ sp needed
1199:.\Generated_Source\PSoC4/CyLib.c **** }
 762              		.loc 1 1199 0
 763 0018 1040     		and	r0, r2
 764              		.loc 1 1200 0
 765 001a 7047     		bx	lr
 766              	.L61:
 767              		.align	2
 768              	.L60:
 769 001c 00E400E0 		.word	-536812544
 770              		.cfi_endproc
 771              	.LFE23:
 772              		.size	CyIntGetPriority, .-CyIntGetPriority
 773              		.section	.text.CyIntEnable,"ax",%progbits
 774              		.align	1
 775              		.global	CyIntEnable
 776              		.code	16
 777              		.thumb_func
 778              		.type	CyIntEnable, %function
 779              	CyIntEnable:
 780              	.LFB24:
1201:.\Generated_Source\PSoC4/CyLib.c **** 
1202:.\Generated_Source\PSoC4/CyLib.c **** 
1203:.\Generated_Source\PSoC4/CyLib.c **** /*******************************************************************************
1204:.\Generated_Source\PSoC4/CyLib.c **** * Function Name: CyIntEnable
1205:.\Generated_Source\PSoC4/CyLib.c **** ********************************************************************************
1206:.\Generated_Source\PSoC4/CyLib.c **** *
1207:.\Generated_Source\PSoC4/CyLib.c **** * Summary:
1208:.\Generated_Source\PSoC4/CyLib.c **** *  Enables the specified interrupt number.
1209:.\Generated_Source\PSoC4/CyLib.c **** *
1210:.\Generated_Source\PSoC4/CyLib.c **** * Parameters:
1211:.\Generated_Source\PSoC4/CyLib.c **** *  number: Valid range [0-31].  Interrupt number
1212:.\Generated_Source\PSoC4/CyLib.c **** *
1213:.\Generated_Source\PSoC4/CyLib.c **** * Return:
1214:.\Generated_Source\PSoC4/CyLib.c **** *  None
1215:.\Generated_Source\PSoC4/CyLib.c **** *
1216:.\Generated_Source\PSoC4/CyLib.c **** *******************************************************************************/
1217:.\Generated_Source\PSoC4/CyLib.c **** void CyIntEnable(uint8 number)
1218:.\Generated_Source\PSoC4/CyLib.c **** {
 781              		.loc 1 1218 0
 782              		.cfi_startproc
 783              	.LVL43:
1219:.\Generated_Source\PSoC4/CyLib.c ****     CY_INT_ENABLE_REG = ((uint32) 0x01u << (CY_INT_ENABLE_RANGE_MASK & number));
 784              		.loc 1 1219 0
 785 0000 1F23     		mov	r3, #31
 786 0002 1840     		and	r0, r3
 787              	.LVL44:
 788 0004 1E3B     		sub	r3, r3, #30
 789 0006 8340     		lsl	r3, r3, r0
 790 0008 181C     		mov	r0, r3
ARM GAS  C:\Users\Helon\AppData\Local\Temp\cchg8CAa.s 			page 37


 791 000a 014B     		ldr	r3, .L63
1220:.\Generated_Source\PSoC4/CyLib.c **** }
 792              		.loc 1 1220 0
 793              		@ sp needed
1219:.\Generated_Source\PSoC4/CyLib.c ****     CY_INT_ENABLE_REG = ((uint32) 0x01u << (CY_INT_ENABLE_RANGE_MASK & number));
 794              		.loc 1 1219 0
 795 000c 1860     		str	r0, [r3]
 796              		.loc 1 1220 0
 797 000e 7047     		bx	lr
 798              	.L64:
 799              		.align	2
 800              	.L63:
 801 0010 00E100E0 		.word	-536813312
 802              		.cfi_endproc
 803              	.LFE24:
 804              		.size	CyIntEnable, .-CyIntEnable
 805              		.section	.text.CyIntGetState,"ax",%progbits
 806              		.align	1
 807              		.global	CyIntGetState
 808              		.code	16
 809              		.thumb_func
 810              		.type	CyIntGetState, %function
 811              	CyIntGetState:
 812              	.LFB25:
1221:.\Generated_Source\PSoC4/CyLib.c **** 
1222:.\Generated_Source\PSoC4/CyLib.c **** 
1223:.\Generated_Source\PSoC4/CyLib.c **** /*******************************************************************************
1224:.\Generated_Source\PSoC4/CyLib.c **** * Function Name: CyIntGetState
1225:.\Generated_Source\PSoC4/CyLib.c **** ********************************************************************************
1226:.\Generated_Source\PSoC4/CyLib.c **** *
1227:.\Generated_Source\PSoC4/CyLib.c **** * Summary:
1228:.\Generated_Source\PSoC4/CyLib.c **** *  Gets the enable state of the specified interrupt number.
1229:.\Generated_Source\PSoC4/CyLib.c **** *
1230:.\Generated_Source\PSoC4/CyLib.c **** * Parameters:
1231:.\Generated_Source\PSoC4/CyLib.c **** *  number: Valid range [0-31].  Interrupt number.
1232:.\Generated_Source\PSoC4/CyLib.c **** *
1233:.\Generated_Source\PSoC4/CyLib.c **** * Return:
1234:.\Generated_Source\PSoC4/CyLib.c **** *  Enable status: 1 if enabled, 0 if disabled
1235:.\Generated_Source\PSoC4/CyLib.c **** *
1236:.\Generated_Source\PSoC4/CyLib.c **** *******************************************************************************/
1237:.\Generated_Source\PSoC4/CyLib.c **** uint8 CyIntGetState(uint8 number)
1238:.\Generated_Source\PSoC4/CyLib.c **** {
 813              		.loc 1 1238 0
 814              		.cfi_startproc
 815              	.LVL45:
1239:.\Generated_Source\PSoC4/CyLib.c ****     /* Get state of interrupt. */
1240:.\Generated_Source\PSoC4/CyLib.c ****     return ((0u != (CY_INT_ENABLE_REG & ((uint32) 0x01u << (CY_INT_ENABLE_RANGE_MASK & number)))) ?
 816              		.loc 1 1240 0
 817 0000 1F22     		mov	r2, #31
 818 0002 044B     		ldr	r3, .L66
 819 0004 1040     		and	r0, r2
 820              	.LVL46:
 821 0006 1B68     		ldr	r3, [r3]
1241:.\Generated_Source\PSoC4/CyLib.c **** }
 822              		.loc 1 1241 0
 823              		@ sp needed
1240:.\Generated_Source\PSoC4/CyLib.c **** }
ARM GAS  C:\Users\Helon\AppData\Local\Temp\cchg8CAa.s 			page 38


 824              		.loc 1 1240 0
 825 0008 C340     		lsr	r3, r3, r0
 826 000a 181C     		mov	r0, r3
 827 000c 0123     		mov	r3, #1
 828 000e 1840     		and	r0, r3
 829              		.loc 1 1241 0
 830 0010 7047     		bx	lr
 831              	.L67:
 832 0012 C046     		.align	2
 833              	.L66:
 834 0014 00E100E0 		.word	-536813312
 835              		.cfi_endproc
 836              	.LFE25:
 837              		.size	CyIntGetState, .-CyIntGetState
 838              		.section	.text.CyIntDisable,"ax",%progbits
 839              		.align	1
 840              		.global	CyIntDisable
 841              		.code	16
 842              		.thumb_func
 843              		.type	CyIntDisable, %function
 844              	CyIntDisable:
 845              	.LFB26:
1242:.\Generated_Source\PSoC4/CyLib.c **** 
1243:.\Generated_Source\PSoC4/CyLib.c **** 
1244:.\Generated_Source\PSoC4/CyLib.c **** /*******************************************************************************
1245:.\Generated_Source\PSoC4/CyLib.c **** * Function Name: CyIntDisable
1246:.\Generated_Source\PSoC4/CyLib.c **** ********************************************************************************
1247:.\Generated_Source\PSoC4/CyLib.c **** *
1248:.\Generated_Source\PSoC4/CyLib.c **** * Summary:
1249:.\Generated_Source\PSoC4/CyLib.c **** *   Disables the specified interrupt number.
1250:.\Generated_Source\PSoC4/CyLib.c **** *
1251:.\Generated_Source\PSoC4/CyLib.c **** * Parameters:
1252:.\Generated_Source\PSoC4/CyLib.c **** *   number: Valid range [0-31].  Interrupt number.
1253:.\Generated_Source\PSoC4/CyLib.c **** *
1254:.\Generated_Source\PSoC4/CyLib.c **** * Return:
1255:.\Generated_Source\PSoC4/CyLib.c **** *  None
1256:.\Generated_Source\PSoC4/CyLib.c **** *
1257:.\Generated_Source\PSoC4/CyLib.c **** *******************************************************************************/
1258:.\Generated_Source\PSoC4/CyLib.c **** void CyIntDisable(uint8 number)
1259:.\Generated_Source\PSoC4/CyLib.c **** {
 846              		.loc 1 1259 0
 847              		.cfi_startproc
 848              	.LVL47:
1260:.\Generated_Source\PSoC4/CyLib.c ****     CY_INT_CLEAR_REG = ((uint32) 0x01u << (CY_INT_ENABLE_RANGE_MASK & number));
 849              		.loc 1 1260 0
 850 0000 1F23     		mov	r3, #31
 851 0002 1840     		and	r0, r3
 852              	.LVL48:
 853 0004 1E3B     		sub	r3, r3, #30
 854 0006 8340     		lsl	r3, r3, r0
 855 0008 181C     		mov	r0, r3
 856 000a 014B     		ldr	r3, .L69
1261:.\Generated_Source\PSoC4/CyLib.c **** }
 857              		.loc 1 1261 0
 858              		@ sp needed
1260:.\Generated_Source\PSoC4/CyLib.c ****     CY_INT_CLEAR_REG = ((uint32) 0x01u << (CY_INT_ENABLE_RANGE_MASK & number));
 859              		.loc 1 1260 0
ARM GAS  C:\Users\Helon\AppData\Local\Temp\cchg8CAa.s 			page 39


 860 000c 1860     		str	r0, [r3]
 861              		.loc 1 1261 0
 862 000e 7047     		bx	lr
 863              	.L70:
 864              		.align	2
 865              	.L69:
 866 0010 80E100E0 		.word	-536813184
 867              		.cfi_endproc
 868              	.LFE26:
 869              		.size	CyIntDisable, .-CyIntDisable
 870              		.section	.text.CyIntSetPending,"ax",%progbits
 871              		.align	1
 872              		.global	CyIntSetPending
 873              		.code	16
 874              		.thumb_func
 875              		.type	CyIntSetPending, %function
 876              	CyIntSetPending:
 877              	.LFB27:
1262:.\Generated_Source\PSoC4/CyLib.c **** 
1263:.\Generated_Source\PSoC4/CyLib.c **** /*******************************************************************************
1264:.\Generated_Source\PSoC4/CyLib.c **** * Function Name: CyIntSetPending
1265:.\Generated_Source\PSoC4/CyLib.c **** ********************************************************************************
1266:.\Generated_Source\PSoC4/CyLib.c **** *
1267:.\Generated_Source\PSoC4/CyLib.c **** * Summary:
1268:.\Generated_Source\PSoC4/CyLib.c **** *  Forces the specified interrupt number to be pending.
1269:.\Generated_Source\PSoC4/CyLib.c **** *
1270:.\Generated_Source\PSoC4/CyLib.c **** * Parameters:
1271:.\Generated_Source\PSoC4/CyLib.c **** *  number: Valid range [0-31].  Interrupt number.
1272:.\Generated_Source\PSoC4/CyLib.c **** *
1273:.\Generated_Source\PSoC4/CyLib.c **** * Return:
1274:.\Generated_Source\PSoC4/CyLib.c **** *  None
1275:.\Generated_Source\PSoC4/CyLib.c **** *
1276:.\Generated_Source\PSoC4/CyLib.c **** *******************************************************************************/
1277:.\Generated_Source\PSoC4/CyLib.c **** void CyIntSetPending(uint8 number)
1278:.\Generated_Source\PSoC4/CyLib.c **** {
 878              		.loc 1 1278 0
 879              		.cfi_startproc
 880              	.LVL49:
1279:.\Generated_Source\PSoC4/CyLib.c ****     CY_INT_SET_PEND_REG = ((uint32) 0x01u << (CY_INT_ENABLE_RANGE_MASK & number));
 881              		.loc 1 1279 0
 882 0000 1F23     		mov	r3, #31
 883 0002 1840     		and	r0, r3
 884              	.LVL50:
 885 0004 1E3B     		sub	r3, r3, #30
 886 0006 8340     		lsl	r3, r3, r0
 887 0008 181C     		mov	r0, r3
 888 000a 014B     		ldr	r3, .L72
1280:.\Generated_Source\PSoC4/CyLib.c **** }
 889              		.loc 1 1280 0
 890              		@ sp needed
1279:.\Generated_Source\PSoC4/CyLib.c ****     CY_INT_SET_PEND_REG = ((uint32) 0x01u << (CY_INT_ENABLE_RANGE_MASK & number));
 891              		.loc 1 1279 0
 892 000c 1860     		str	r0, [r3]
 893              		.loc 1 1280 0
 894 000e 7047     		bx	lr
 895              	.L73:
 896              		.align	2
ARM GAS  C:\Users\Helon\AppData\Local\Temp\cchg8CAa.s 			page 40


 897              	.L72:
 898 0010 00E200E0 		.word	-536813056
 899              		.cfi_endproc
 900              	.LFE27:
 901              		.size	CyIntSetPending, .-CyIntSetPending
 902              		.section	.text.CyIntClearPending,"ax",%progbits
 903              		.align	1
 904              		.global	CyIntClearPending
 905              		.code	16
 906              		.thumb_func
 907              		.type	CyIntClearPending, %function
 908              	CyIntClearPending:
 909              	.LFB28:
1281:.\Generated_Source\PSoC4/CyLib.c **** 
1282:.\Generated_Source\PSoC4/CyLib.c **** 
1283:.\Generated_Source\PSoC4/CyLib.c **** /*******************************************************************************
1284:.\Generated_Source\PSoC4/CyLib.c **** * Function Name: CyIntClearPending
1285:.\Generated_Source\PSoC4/CyLib.c **** ********************************************************************************
1286:.\Generated_Source\PSoC4/CyLib.c **** *
1287:.\Generated_Source\PSoC4/CyLib.c **** * Summary:
1288:.\Generated_Source\PSoC4/CyLib.c **** *  Clears any pending interrupt for the specified interrupt number.
1289:.\Generated_Source\PSoC4/CyLib.c **** *
1290:.\Generated_Source\PSoC4/CyLib.c **** * Parameters:
1291:.\Generated_Source\PSoC4/CyLib.c **** *  number: Valid range [0-31].  Interrupt number.
1292:.\Generated_Source\PSoC4/CyLib.c **** *
1293:.\Generated_Source\PSoC4/CyLib.c **** * Return:
1294:.\Generated_Source\PSoC4/CyLib.c **** *  None
1295:.\Generated_Source\PSoC4/CyLib.c **** *
1296:.\Generated_Source\PSoC4/CyLib.c **** *******************************************************************************/
1297:.\Generated_Source\PSoC4/CyLib.c **** void CyIntClearPending(uint8 number)
1298:.\Generated_Source\PSoC4/CyLib.c **** {
 910              		.loc 1 1298 0
 911              		.cfi_startproc
 912              	.LVL51:
1299:.\Generated_Source\PSoC4/CyLib.c ****     CY_INT_CLR_PEND_REG = ((uint32) 0x01u << (CY_INT_ENABLE_RANGE_MASK & number));
 913              		.loc 1 1299 0
 914 0000 1F23     		mov	r3, #31
 915 0002 1840     		and	r0, r3
 916              	.LVL52:
 917 0004 1E3B     		sub	r3, r3, #30
 918 0006 8340     		lsl	r3, r3, r0
 919 0008 181C     		mov	r0, r3
 920 000a 014B     		ldr	r3, .L75
1300:.\Generated_Source\PSoC4/CyLib.c **** }
 921              		.loc 1 1300 0
 922              		@ sp needed
1299:.\Generated_Source\PSoC4/CyLib.c ****     CY_INT_CLR_PEND_REG = ((uint32) 0x01u << (CY_INT_ENABLE_RANGE_MASK & number));
 923              		.loc 1 1299 0
 924 000c 1860     		str	r0, [r3]
 925              		.loc 1 1300 0
 926 000e 7047     		bx	lr
 927              	.L76:
 928              		.align	2
 929              	.L75:
 930 0010 80E200E0 		.word	-536812928
 931              		.cfi_endproc
 932              	.LFE28:
ARM GAS  C:\Users\Helon\AppData\Local\Temp\cchg8CAa.s 			page 41


 933              		.size	CyIntClearPending, .-CyIntClearPending
 934              		.section	.text.CyHalt,"ax",%progbits
 935              		.align	1
 936              		.global	CyHalt
 937              		.code	16
 938              		.thumb_func
 939              		.type	CyHalt, %function
 940              	CyHalt:
 941              	.LFB29:
1301:.\Generated_Source\PSoC4/CyLib.c **** 
1302:.\Generated_Source\PSoC4/CyLib.c **** 
1303:.\Generated_Source\PSoC4/CyLib.c **** /*******************************************************************************
1304:.\Generated_Source\PSoC4/CyLib.c **** * Function Name: CyHalt
1305:.\Generated_Source\PSoC4/CyLib.c **** ********************************************************************************
1306:.\Generated_Source\PSoC4/CyLib.c **** *
1307:.\Generated_Source\PSoC4/CyLib.c **** * Summary:
1308:.\Generated_Source\PSoC4/CyLib.c **** *  Halts the CPU.
1309:.\Generated_Source\PSoC4/CyLib.c **** *
1310:.\Generated_Source\PSoC4/CyLib.c **** * Parameters:
1311:.\Generated_Source\PSoC4/CyLib.c **** *  reason: Value to be used during debugging.
1312:.\Generated_Source\PSoC4/CyLib.c **** *
1313:.\Generated_Source\PSoC4/CyLib.c **** * Return:
1314:.\Generated_Source\PSoC4/CyLib.c **** *  None
1315:.\Generated_Source\PSoC4/CyLib.c **** *
1316:.\Generated_Source\PSoC4/CyLib.c **** *******************************************************************************/
1317:.\Generated_Source\PSoC4/CyLib.c **** void CyHalt(uint8 reason)
1318:.\Generated_Source\PSoC4/CyLib.c **** {
 942              		.loc 1 1318 0
 943              		.cfi_startproc
 944              	.LVL53:
1319:.\Generated_Source\PSoC4/CyLib.c ****     if(0u != reason)
1320:.\Generated_Source\PSoC4/CyLib.c ****     {
1321:.\Generated_Source\PSoC4/CyLib.c ****         /* To remove unreferenced local variable warning */
1322:.\Generated_Source\PSoC4/CyLib.c ****     }
1323:.\Generated_Source\PSoC4/CyLib.c **** 
1324:.\Generated_Source\PSoC4/CyLib.c ****     #if defined (__ARMCC_VERSION)
1325:.\Generated_Source\PSoC4/CyLib.c ****         __breakpoint(0x0);
1326:.\Generated_Source\PSoC4/CyLib.c ****     #elif defined(__GNUC__) || defined (__ICCARM__)
1327:.\Generated_Source\PSoC4/CyLib.c ****         __asm("    bkpt    1");
 945              		.loc 1 1327 0
 946              	@ 1327 ".\Generated_Source\PSoC4\CyLib.c" 1
 947 0000 01BE     		    bkpt    1
 948              	@ 0 "" 2
1328:.\Generated_Source\PSoC4/CyLib.c ****     #elif defined(__C51__)
1329:.\Generated_Source\PSoC4/CyLib.c ****         CYDEV_HALT_CPU;
1330:.\Generated_Source\PSoC4/CyLib.c ****     #endif  /* (__ARMCC_VERSION) */
1331:.\Generated_Source\PSoC4/CyLib.c **** }
 949              		.loc 1 1331 0
 950              		.code	16
 951              		@ sp needed
 952 0002 7047     		bx	lr
 953              		.cfi_endproc
 954              	.LFE29:
 955              		.size	CyHalt, .-CyHalt
 956              		.section	.text.CySoftwareReset,"ax",%progbits
 957              		.align	1
 958              		.global	CySoftwareReset
ARM GAS  C:\Users\Helon\AppData\Local\Temp\cchg8CAa.s 			page 42


 959              		.code	16
 960              		.thumb_func
 961              		.type	CySoftwareReset, %function
 962              	CySoftwareReset:
 963              	.LFB30:
1332:.\Generated_Source\PSoC4/CyLib.c **** 
1333:.\Generated_Source\PSoC4/CyLib.c **** 
1334:.\Generated_Source\PSoC4/CyLib.c **** /*******************************************************************************
1335:.\Generated_Source\PSoC4/CyLib.c **** * Function Name: CySoftwareReset
1336:.\Generated_Source\PSoC4/CyLib.c **** ********************************************************************************
1337:.\Generated_Source\PSoC4/CyLib.c **** *
1338:.\Generated_Source\PSoC4/CyLib.c **** * Summary:
1339:.\Generated_Source\PSoC4/CyLib.c **** *  Forces a software reset of the device.
1340:.\Generated_Source\PSoC4/CyLib.c **** *
1341:.\Generated_Source\PSoC4/CyLib.c **** * Parameters:
1342:.\Generated_Source\PSoC4/CyLib.c **** *  None
1343:.\Generated_Source\PSoC4/CyLib.c **** *
1344:.\Generated_Source\PSoC4/CyLib.c **** * Return:
1345:.\Generated_Source\PSoC4/CyLib.c **** *  None
1346:.\Generated_Source\PSoC4/CyLib.c **** *
1347:.\Generated_Source\PSoC4/CyLib.c **** *******************************************************************************/
1348:.\Generated_Source\PSoC4/CyLib.c **** void CySoftwareReset(void)
1349:.\Generated_Source\PSoC4/CyLib.c **** {
 964              		.loc 1 1349 0
 965              		.cfi_startproc
1350:.\Generated_Source\PSoC4/CyLib.c ****     /***************************************************************************
1351:.\Generated_Source\PSoC4/CyLib.c ****     * Setting the system reset request bit. The vector key value must be written
1352:.\Generated_Source\PSoC4/CyLib.c ****     * to the register, otherwise the register write is unpredictable.
1353:.\Generated_Source\PSoC4/CyLib.c ****     ***************************************************************************/
1354:.\Generated_Source\PSoC4/CyLib.c ****     CY_SYS_CM0_AIRCR_REG = (CY_SYS_CM0_AIRCR_REG & (uint32)(~CY_SYS_CM0_AIRCR_VECTKEY_MASK)) |
 966              		.loc 1 1354 0
 967 0000 034A     		ldr	r2, .L79
1355:.\Generated_Source\PSoC4/CyLib.c ****                             CY_SYS_CM0_AIRCR_VECTKEY | CY_SYS_CM0_AIRCR_SYSRESETREQ;
 968              		.loc 1 1355 0
 969 0002 0449     		ldr	r1, .L79+4
1354:.\Generated_Source\PSoC4/CyLib.c ****                             CY_SYS_CM0_AIRCR_VECTKEY | CY_SYS_CM0_AIRCR_SYSRESETREQ;
 970              		.loc 1 1354 0
 971 0004 1368     		ldr	r3, [r2]
1356:.\Generated_Source\PSoC4/CyLib.c **** }
 972              		.loc 1 1356 0
 973              		@ sp needed
1354:.\Generated_Source\PSoC4/CyLib.c ****                             CY_SYS_CM0_AIRCR_VECTKEY | CY_SYS_CM0_AIRCR_SYSRESETREQ;
 974              		.loc 1 1354 0
 975 0006 9BB2     		uxth	r3, r3
1355:.\Generated_Source\PSoC4/CyLib.c ****                             CY_SYS_CM0_AIRCR_VECTKEY | CY_SYS_CM0_AIRCR_SYSRESETREQ;
 976              		.loc 1 1355 0
 977 0008 0B43     		orr	r3, r1
1354:.\Generated_Source\PSoC4/CyLib.c ****                             CY_SYS_CM0_AIRCR_VECTKEY | CY_SYS_CM0_AIRCR_SYSRESETREQ;
 978              		.loc 1 1354 0
 979 000a 1360     		str	r3, [r2]
 980              		.loc 1 1356 0
 981 000c 7047     		bx	lr
 982              	.L80:
 983 000e C046     		.align	2
 984              	.L79:
 985 0010 0CED00E0 		.word	-536810228
 986 0014 0400FA05 		.word	100270084
ARM GAS  C:\Users\Helon\AppData\Local\Temp\cchg8CAa.s 			page 43


 987              		.cfi_endproc
 988              	.LFE30:
 989              		.size	CySoftwareReset, .-CySoftwareReset
 990              		.section	.text.CyDelay,"ax",%progbits
 991              		.align	1
 992              		.global	CyDelay
 993              		.code	16
 994              		.thumb_func
 995              		.type	CyDelay, %function
 996              	CyDelay:
 997              	.LFB31:
1357:.\Generated_Source\PSoC4/CyLib.c **** 
1358:.\Generated_Source\PSoC4/CyLib.c **** 
1359:.\Generated_Source\PSoC4/CyLib.c **** /*******************************************************************************
1360:.\Generated_Source\PSoC4/CyLib.c **** * Function Name: CyDelay
1361:.\Generated_Source\PSoC4/CyLib.c **** ********************************************************************************
1362:.\Generated_Source\PSoC4/CyLib.c **** *
1363:.\Generated_Source\PSoC4/CyLib.c **** * Summary:
1364:.\Generated_Source\PSoC4/CyLib.c **** *  Blocks for milliseconds.
1365:.\Generated_Source\PSoC4/CyLib.c **** *
1366:.\Generated_Source\PSoC4/CyLib.c **** * Parameters:
1367:.\Generated_Source\PSoC4/CyLib.c **** *  milliseconds: number of milliseconds to delay.
1368:.\Generated_Source\PSoC4/CyLib.c **** *
1369:.\Generated_Source\PSoC4/CyLib.c **** * Return:
1370:.\Generated_Source\PSoC4/CyLib.c **** *  None
1371:.\Generated_Source\PSoC4/CyLib.c **** *
1372:.\Generated_Source\PSoC4/CyLib.c **** *******************************************************************************/
1373:.\Generated_Source\PSoC4/CyLib.c **** void CyDelay(uint32 milliseconds)
1374:.\Generated_Source\PSoC4/CyLib.c **** {
 998              		.loc 1 1374 0
 999              		.cfi_startproc
 1000              	.LVL54:
 1001 0000 10B5     		push	{r4, lr}
 1002              		.cfi_def_cfa_offset 8
 1003              		.cfi_offset 4, -8
 1004              		.cfi_offset 14, -4
 1005 0002 041C     		mov	r4, r0
 1006              	.LVL55:
 1007              	.L82:
1375:.\Generated_Source\PSoC4/CyLib.c ****     while (milliseconds > CY_DELAY_MS_OVERFLOW)
 1008              		.loc 1 1375 0
 1009 0004 8022     		mov	r2, #128
 1010 0006 074B     		ldr	r3, .L85
 1011 0008 1202     		lsl	r2, r2, #8
 1012 000a 9442     		cmp	r4, r2
 1013 000c 05D9     		bls	.L84
1376:.\Generated_Source\PSoC4/CyLib.c ****     {
1377:.\Generated_Source\PSoC4/CyLib.c ****         /* This loop prevents overflow.
1378:.\Generated_Source\PSoC4/CyLib.c ****          * At 100MHz, milliseconds * cydelayFreqKhz overflows at about 42 seconds
1379:.\Generated_Source\PSoC4/CyLib.c ****          */
1380:.\Generated_Source\PSoC4/CyLib.c ****         CyDelayCycles(cydelay32kMs);
 1014              		.loc 1 1380 0
 1015 000e 1868     		ldr	r0, [r3]
 1016 0010 FFF7FEFF 		bl	CyDelayCycles
 1017              	.LVL56:
1381:.\Generated_Source\PSoC4/CyLib.c ****         milliseconds -= CY_DELAY_MS_OVERFLOW;
 1018              		.loc 1 1381 0
ARM GAS  C:\Users\Helon\AppData\Local\Temp\cchg8CAa.s 			page 44


 1019 0014 044B     		ldr	r3, .L85+4
 1020 0016 E418     		add	r4, r4, r3
 1021              	.LVL57:
 1022 0018 F4E7     		b	.L82
 1023              	.L84:
1382:.\Generated_Source\PSoC4/CyLib.c ****     }
1383:.\Generated_Source\PSoC4/CyLib.c **** 
1384:.\Generated_Source\PSoC4/CyLib.c ****     CyDelayCycles(milliseconds * cydelayFreqKhz);
 1024              		.loc 1 1384 0
 1025 001a 5868     		ldr	r0, [r3, #4]
1385:.\Generated_Source\PSoC4/CyLib.c **** }
 1026              		.loc 1 1385 0
 1027              		@ sp needed
1384:.\Generated_Source\PSoC4/CyLib.c **** }
 1028              		.loc 1 1384 0
 1029 001c 6043     		mul	r0, r4
 1030 001e FFF7FEFF 		bl	CyDelayCycles
 1031              	.LVL58:
 1032              	.LVL59:
 1033              		.loc 1 1385 0
 1034 0022 10BD     		pop	{r4, pc}
 1035              	.L86:
 1036              		.align	2
 1037              	.L85:
 1038 0024 00000000 		.word	.LANCHOR1
 1039 0028 0080FFFF 		.word	-32768
 1040              		.cfi_endproc
 1041              	.LFE31:
 1042              		.size	CyDelay, .-CyDelay
 1043              		.section	.text.CyDelayUs,"ax",%progbits
 1044              		.align	1
 1045              		.global	CyDelayUs
 1046              		.code	16
 1047              		.thumb_func
 1048              		.type	CyDelayUs, %function
 1049              	CyDelayUs:
 1050              	.LFB32:
1386:.\Generated_Source\PSoC4/CyLib.c **** 
1387:.\Generated_Source\PSoC4/CyLib.c **** 
1388:.\Generated_Source\PSoC4/CyLib.c **** /*******************************************************************************
1389:.\Generated_Source\PSoC4/CyLib.c **** * Function Name: CyDelayUs
1390:.\Generated_Source\PSoC4/CyLib.c **** ********************************************************************************
1391:.\Generated_Source\PSoC4/CyLib.c **** * Summary:
1392:.\Generated_Source\PSoC4/CyLib.c **** *  Blocks for microseconds.
1393:.\Generated_Source\PSoC4/CyLib.c **** *
1394:.\Generated_Source\PSoC4/CyLib.c **** * Parameters:
1395:.\Generated_Source\PSoC4/CyLib.c **** *  microseconds: number of microseconds to delay.
1396:.\Generated_Source\PSoC4/CyLib.c **** *
1397:.\Generated_Source\PSoC4/CyLib.c **** * Return:
1398:.\Generated_Source\PSoC4/CyLib.c **** *  None
1399:.\Generated_Source\PSoC4/CyLib.c **** *
1400:.\Generated_Source\PSoC4/CyLib.c **** *******************************************************************************/
1401:.\Generated_Source\PSoC4/CyLib.c **** void CyDelayUs(uint16 microseconds)
1402:.\Generated_Source\PSoC4/CyLib.c **** {
 1051              		.loc 1 1402 0
 1052              		.cfi_startproc
 1053              	.LVL60:
ARM GAS  C:\Users\Helon\AppData\Local\Temp\cchg8CAa.s 			page 45


 1054 0000 08B5     		push	{r3, lr}
 1055              		.cfi_def_cfa_offset 8
 1056              		.cfi_offset 3, -8
 1057              		.cfi_offset 14, -4
1403:.\Generated_Source\PSoC4/CyLib.c ****     CyDelayCycles((uint32)microseconds * cydelayFreqMhz);
 1058              		.loc 1 1403 0
 1059 0002 034B     		ldr	r3, .L88
1404:.\Generated_Source\PSoC4/CyLib.c **** }
 1060              		.loc 1 1404 0
 1061              		@ sp needed
1403:.\Generated_Source\PSoC4/CyLib.c ****     CyDelayCycles((uint32)microseconds * cydelayFreqMhz);
 1062              		.loc 1 1403 0
 1063 0004 1B7A     		ldrb	r3, [r3, #8]
 1064 0006 5843     		mul	r0, r3
 1065              	.LVL61:
 1066 0008 FFF7FEFF 		bl	CyDelayCycles
 1067              	.LVL62:
 1068              		.loc 1 1404 0
 1069 000c 08BD     		pop	{r3, pc}
 1070              	.L89:
 1071 000e C046     		.align	2
 1072              	.L88:
 1073 0010 00000000 		.word	.LANCHOR1
 1074              		.cfi_endproc
 1075              	.LFE32:
 1076              		.size	CyDelayUs, .-CyDelayUs
 1077              		.section	.text.CySysClkEcoStart,"ax",%progbits
 1078              		.align	1
 1079              		.global	CySysClkEcoStart
 1080              		.code	16
 1081              		.thumb_func
 1082              		.type	CySysClkEcoStart, %function
 1083              	CySysClkEcoStart:
 1084              	.LFB7:
 675:.\Generated_Source\PSoC4/CyLib.c ****         cystatus status = CYRET_SUCCESS;
 1085              		.loc 1 675 0
 1086              		.cfi_startproc
 1087              	.LVL63:
 679:.\Generated_Source\PSoC4/CyLib.c **** 
 1088              		.loc 1 679 0
 1089 0000 0121     		mov	r1, #1
 1090 0002 0F4A     		ldr	r2, .L95
 675:.\Generated_Source\PSoC4/CyLib.c ****         cystatus status = CYRET_SUCCESS;
 1091              		.loc 1 675 0
 1092 0004 10B5     		push	{r4, lr}
 1093              		.cfi_def_cfa_offset 8
 1094              		.cfi_offset 4, -8
 1095              		.cfi_offset 14, -4
 679:.\Generated_Source\PSoC4/CyLib.c **** 
 1096              		.loc 1 679 0
 1097 0006 1368     		ldr	r3, [r2]
 675:.\Generated_Source\PSoC4/CyLib.c ****         cystatus status = CYRET_SUCCESS;
 1098              		.loc 1 675 0
 1099 0008 041C     		mov	r4, r0
 679:.\Generated_Source\PSoC4/CyLib.c **** 
 1100              		.loc 1 679 0
 1101 000a 0B43     		orr	r3, r1
ARM GAS  C:\Users\Helon\AppData\Local\Temp\cchg8CAa.s 			page 46


 685:.\Generated_Source\PSoC4/CyLib.c **** 
 1102              		.loc 1 685 0
 1103 000c 8021     		mov	r1, #128
 679:.\Generated_Source\PSoC4/CyLib.c **** 
 1104              		.loc 1 679 0
 1105 000e 1360     		str	r3, [r2]
 682:.\Generated_Source\PSoC4/CyLib.c **** 
 1106              		.loc 1 682 0
 1107 0010 0C4A     		ldr	r2, .L95+4
 1108 0012 0D4B     		ldr	r3, .L95+8
 685:.\Generated_Source\PSoC4/CyLib.c **** 
 1109              		.loc 1 685 0
 1110 0014 0902     		lsl	r1, r1, #8
 682:.\Generated_Source\PSoC4/CyLib.c **** 
 1111              		.loc 1 682 0
 1112 0016 1A60     		str	r2, [r3]
 685:.\Generated_Source\PSoC4/CyLib.c **** 
 1113              		.loc 1 685 0
 1114 0018 0C4A     		ldr	r2, .L95+12
 1115 001a 1368     		ldr	r3, [r2]
 1116 001c 0B43     		orr	r3, r1
 1117 001e 1360     		str	r3, [r2]
 687:.\Generated_Source\PSoC4/CyLib.c ****         {
 1118              		.loc 1 687 0
 1119 0020 0028     		cmp	r0, #0
 1120 0022 01D1     		bne	.L94
 1121              	.LVL64:
 1122              	.L93:
 676:.\Generated_Source\PSoC4/CyLib.c **** 
 1123              		.loc 1 676 0
 1124 0024 0020     		mov	r0, #0
 1125 0026 0AE0     		b	.L92
 1126              	.L94:
 693:.\Generated_Source\PSoC4/CyLib.c **** 
 1127              		.loc 1 693 0
 1128 0028 0120     		mov	r0, #1
 1129 002a FFF7FEFF 		bl	CyDelayUs
 1130              	.LVL65:
 1131              	.LBB10:
 1132              	.LBB11:
 748:.\Generated_Source\PSoC4/CyLib.c ****     }
 1133              		.loc 1 748 0
 1134 002e 084B     		ldr	r3, .L95+16
 1135 0030 1B68     		ldr	r3, [r3]
 1136              	.LBE11:
 1137              	.LBE10:
 695:.\Generated_Source\PSoC4/CyLib.c ****                 {
 1138              		.loc 1 695 0
 1139 0032 DB07     		lsl	r3, r3, #31
 1140 0034 F6D4     		bmi	.L93
 691:.\Generated_Source\PSoC4/CyLib.c ****             {
 1141              		.loc 1 691 0
 1142 0036 013C     		sub	r4, r4, #1
 1143              	.LVL66:
 1144 0038 002C     		cmp	r4, #0
 1145 003a F5D1     		bne	.L94
 689:.\Generated_Source\PSoC4/CyLib.c **** 
ARM GAS  C:\Users\Helon\AppData\Local\Temp\cchg8CAa.s 			page 47


 1146              		.loc 1 689 0
 1147 003c 1020     		mov	r0, #16
 1148              	.L92:
 1149              	.LVL67:
 705:.\Generated_Source\PSoC4/CyLib.c **** 
 1150              		.loc 1 705 0
 1151              		@ sp needed
 1152              	.LVL68:
 1153 003e 10BD     		pop	{r4, pc}
 1154              	.L96:
 1155              		.align	2
 1156              	.L95:
 1157 0040 60F02E40 		.word	1076818016
 1158 0044 02200000 		.word	8194
 1159 0048 78002E40 		.word	1076756600
 1160 004c 10002E40 		.word	1076756496
 1161 0050 0C002E40 		.word	1076756492
 1162              		.cfi_endproc
 1163              	.LFE7:
 1164              		.size	CySysClkEcoStart, .-CySysClkEcoStart
 1165              		.section	.text.CySysLvdEnable,"ax",%progbits
 1166              		.align	1
 1167              		.global	CySysLvdEnable
 1168              		.code	16
 1169              		.thumb_func
 1170              		.type	CySysLvdEnable, %function
 1171              	CySysLvdEnable:
 1172              	.LFB11:
 849:.\Generated_Source\PSoC4/CyLib.c ****         /* Prevent propagating a false interrupt */
 1173              		.loc 1 849 0
 1174              		.cfi_startproc
 1175              	.LVL69:
 1176 0000 38B5     		push	{r3, r4, r5, lr}
 1177              		.cfi_def_cfa_offset 16
 1178              		.cfi_offset 3, -16
 1179              		.cfi_offset 4, -12
 1180              		.cfi_offset 5, -8
 1181              		.cfi_offset 14, -4
 851:.\Generated_Source\PSoC4/CyLib.c **** 
 1182              		.loc 1 851 0
 1183 0002 0225     		mov	r5, #2
 855:.\Generated_Source\PSoC4/CyLib.c **** 
 1184              		.loc 1 855 0
 1185 0004 1E21     		mov	r1, #30
 851:.\Generated_Source\PSoC4/CyLib.c **** 
 1186              		.loc 1 851 0
 1187 0006 0C4C     		ldr	r4, .L98
 854:.\Generated_Source\PSoC4/CyLib.c ****                 ((threshold << CY_LVD_PWR_VMON_CONFIG_LVD_SEL_SHIFT) & CY_LVD_PWR_VMON_CONFIG_LVD_S
 1188              		.loc 1 854 0
 1189 0008 0C4A     		ldr	r2, .L98+4
 851:.\Generated_Source\PSoC4/CyLib.c **** 
 1190              		.loc 1 851 0
 1191 000a 2368     		ldr	r3, [r4]
 855:.\Generated_Source\PSoC4/CyLib.c **** 
 1192              		.loc 1 855 0
 1193 000c 4000     		lsl	r0, r0, #1
 1194              	.LVL70:
ARM GAS  C:\Users\Helon\AppData\Local\Temp\cchg8CAa.s 			page 48


 851:.\Generated_Source\PSoC4/CyLib.c **** 
 1195              		.loc 1 851 0
 1196 000e AB43     		bic	r3, r5
 1197 0010 2360     		str	r3, [r4]
 854:.\Generated_Source\PSoC4/CyLib.c ****                 ((threshold << CY_LVD_PWR_VMON_CONFIG_LVD_SEL_SHIFT) & CY_LVD_PWR_VMON_CONFIG_LVD_S
 1198              		.loc 1 854 0
 1199 0012 1368     		ldr	r3, [r2]
 855:.\Generated_Source\PSoC4/CyLib.c **** 
 1200              		.loc 1 855 0
 1201 0014 0840     		and	r0, r1
 854:.\Generated_Source\PSoC4/CyLib.c ****                 ((threshold << CY_LVD_PWR_VMON_CONFIG_LVD_SEL_SHIFT) & CY_LVD_PWR_VMON_CONFIG_LVD_S
 1202              		.loc 1 854 0
 1203 0016 8B43     		bic	r3, r1
 1204 0018 1843     		orr	r0, r3
 1205 001a 1060     		str	r0, [r2]
 861:.\Generated_Source\PSoC4/CyLib.c **** 
 1206              		.loc 1 861 0
 1207 001c FA20     		mov	r0, #250
 858:.\Generated_Source\PSoC4/CyLib.c **** 
 1208              		.loc 1 858 0
 1209 001e 1368     		ldr	r3, [r2]
 1210 0020 1D39     		sub	r1, r1, #29
 1211 0022 0B43     		orr	r3, r1
 1212 0024 1360     		str	r3, [r2]
 861:.\Generated_Source\PSoC4/CyLib.c **** 
 1213              		.loc 1 861 0
 1214 0026 8000     		lsl	r0, r0, #2
 1215 0028 FFF7FEFF 		bl	CyDelayUs
 1216              	.LVL71:
 1217              	.LBB12:
 1218              	.LBB13:
 929:.\Generated_Source\PSoC4/CyLib.c ****     }
 1219              		.loc 1 929 0
 1220 002c 044B     		ldr	r3, .L98+8
 1221              	.LBE13:
 1222              	.LBE12:
 868:.\Generated_Source\PSoC4/CyLib.c **** 
 1223              		.loc 1 868 0
 1224              		@ sp needed
 1225              	.LBB15:
 1226              	.LBB14:
 929:.\Generated_Source\PSoC4/CyLib.c ****     }
 1227              		.loc 1 929 0
 1228 002e 1D60     		str	r5, [r3]
 1229              	.LBE14:
 1230              	.LBE15:
 867:.\Generated_Source\PSoC4/CyLib.c ****     }
 1231              		.loc 1 867 0
 1232 0030 2368     		ldr	r3, [r4]
 1233 0032 1D43     		orr	r5, r3
 1234 0034 2560     		str	r5, [r4]
 868:.\Generated_Source\PSoC4/CyLib.c **** 
 1235              		.loc 1 868 0
 1236 0036 38BD     		pop	{r3, r4, r5, pc}
 1237              	.L99:
 1238              		.align	2
 1239              	.L98:
ARM GAS  C:\Users\Helon\AppData\Local\Temp\cchg8CAa.s 			page 49


 1240 0038 08000B40 		.word	1074462728
 1241 003c 18000B40 		.word	1074462744
 1242 0040 04000B40 		.word	1074462724
 1243              		.cfi_endproc
 1244              	.LFE11:
 1245              		.size	CySysLvdEnable, .-CySysLvdEnable
 1246              		.global	__aeabi_uidiv
 1247              		.section	.text.CyDelayFreq,"ax",%progbits
 1248              		.align	1
 1249              		.global	CyDelayFreq
 1250              		.code	16
 1251              		.thumb_func
 1252              		.type	CyDelayFreq, %function
 1253              	CyDelayFreq:
 1254              	.LFB33:
1405:.\Generated_Source\PSoC4/CyLib.c **** 
1406:.\Generated_Source\PSoC4/CyLib.c **** 
1407:.\Generated_Source\PSoC4/CyLib.c **** /*******************************************************************************
1408:.\Generated_Source\PSoC4/CyLib.c **** * Function Name: CyDelayFreq
1409:.\Generated_Source\PSoC4/CyLib.c **** ********************************************************************************
1410:.\Generated_Source\PSoC4/CyLib.c **** * Summary:
1411:.\Generated_Source\PSoC4/CyLib.c **** *  Sets clock frequency for CyDelay.
1412:.\Generated_Source\PSoC4/CyLib.c **** *
1413:.\Generated_Source\PSoC4/CyLib.c **** * Parameters:
1414:.\Generated_Source\PSoC4/CyLib.c **** *  freq: Frequency of bus clock in Hertz.
1415:.\Generated_Source\PSoC4/CyLib.c **** *
1416:.\Generated_Source\PSoC4/CyLib.c **** * Return:
1417:.\Generated_Source\PSoC4/CyLib.c **** *  None
1418:.\Generated_Source\PSoC4/CyLib.c **** *
1419:.\Generated_Source\PSoC4/CyLib.c **** *******************************************************************************/
1420:.\Generated_Source\PSoC4/CyLib.c **** void CyDelayFreq(uint32 freq)
1421:.\Generated_Source\PSoC4/CyLib.c **** {
 1255              		.loc 1 1421 0
 1256              		.cfi_startproc
 1257              	.LVL72:
 1258 0000 38B5     		push	{r3, r4, r5, lr}
 1259              		.cfi_def_cfa_offset 16
 1260              		.cfi_offset 3, -16
 1261              		.cfi_offset 4, -12
 1262              		.cfi_offset 5, -8
 1263              		.cfi_offset 14, -4
 1264 0002 0C4C     		ldr	r4, .L103
1422:.\Generated_Source\PSoC4/CyLib.c ****     if (freq != 0u)
 1265              		.loc 1 1422 0
 1266 0004 0028     		cmp	r0, #0
 1267 0006 01D0     		beq	.L101
1423:.\Generated_Source\PSoC4/CyLib.c ****     {
1424:.\Generated_Source\PSoC4/CyLib.c ****         cydelayFreqHz = freq;
 1268              		.loc 1 1424 0
 1269 0008 E060     		str	r0, [r4, #12]
 1270 000a 01E0     		b	.L102
 1271              	.L101:
1425:.\Generated_Source\PSoC4/CyLib.c ****     }
1426:.\Generated_Source\PSoC4/CyLib.c ****     else
1427:.\Generated_Source\PSoC4/CyLib.c ****     {
1428:.\Generated_Source\PSoC4/CyLib.c ****         cydelayFreqHz = CYDEV_BCLK__SYSCLK__HZ;
 1272              		.loc 1 1428 0
ARM GAS  C:\Users\Helon\AppData\Local\Temp\cchg8CAa.s 			page 50


 1273 000c 0A4B     		ldr	r3, .L103+4
 1274 000e E360     		str	r3, [r4, #12]
 1275              	.L102:
1429:.\Generated_Source\PSoC4/CyLib.c ****     }
1430:.\Generated_Source\PSoC4/CyLib.c **** 
1431:.\Generated_Source\PSoC4/CyLib.c ****     cydelayFreqMhz = (uint8)((cydelayFreqHz + CY_DELAY_1M_MINUS_1_THRESHOLD) / CY_DELAY_1M_THRESHOL
 1276              		.loc 1 1431 0
 1277 0010 E568     		ldr	r5, [r4, #12]
 1278 0012 0A4B     		ldr	r3, .L103+8
 1279 0014 0A49     		ldr	r1, .L103+12
 1280 0016 E818     		add	r0, r5, r3
 1281              	.LVL73:
 1282 0018 FFF7FEFF 		bl	__aeabi_uidiv
 1283              	.LVL74:
1432:.\Generated_Source\PSoC4/CyLib.c ****     cydelayFreqKhz = (cydelayFreqHz + CY_DELAY_1K_MINUS_1_THRESHOLD) / CY_DELAY_1K_THRESHOLD;
 1284              		.loc 1 1432 0
 1285 001c FA21     		mov	r1, #250
 1286 001e 094B     		ldr	r3, .L103+16
1431:.\Generated_Source\PSoC4/CyLib.c ****     cydelayFreqKhz = (cydelayFreqHz + CY_DELAY_1K_MINUS_1_THRESHOLD) / CY_DELAY_1K_THRESHOLD;
 1287              		.loc 1 1431 0
 1288 0020 2072     		strb	r0, [r4, #8]
 1289              		.loc 1 1432 0
 1290 0022 8900     		lsl	r1, r1, #2
 1291 0024 E818     		add	r0, r5, r3
 1292 0026 FFF7FEFF 		bl	__aeabi_uidiv
 1293              	.LVL75:
 1294 002a 6060     		str	r0, [r4, #4]
1433:.\Generated_Source\PSoC4/CyLib.c ****     cydelay32kMs   = CY_DELAY_MS_OVERFLOW * cydelayFreqKhz;
 1295              		.loc 1 1433 0
 1296 002c C003     		lsl	r0, r0, #15
 1297 002e 2060     		str	r0, [r4]
1434:.\Generated_Source\PSoC4/CyLib.c **** }
 1298              		.loc 1 1434 0
 1299              		@ sp needed
 1300 0030 38BD     		pop	{r3, r4, r5, pc}
 1301              	.L104:
 1302 0032 C046     		.align	2
 1303              	.L103:
 1304 0034 00000000 		.word	.LANCHOR1
 1305 0038 006CDC02 		.word	48000000
 1306 003c 3F420F00 		.word	999999
 1307 0040 40420F00 		.word	1000000
 1308 0044 E7030000 		.word	999
 1309              		.cfi_endproc
 1310              	.LFE33:
 1311              		.size	CyDelayFreq, .-CyDelayFreq
 1312              		.section	.text.CySysTickInit,"ax",%progbits
 1313              		.align	1
 1314              		.global	CySysTickInit
 1315              		.code	16
 1316              		.thumb_func
 1317              		.type	CySysTickInit, %function
 1318              	CySysTickInit:
 1319              	.LFB35:
1435:.\Generated_Source\PSoC4/CyLib.c **** 
1436:.\Generated_Source\PSoC4/CyLib.c **** 
1437:.\Generated_Source\PSoC4/CyLib.c **** /*******************************************************************************
ARM GAS  C:\Users\Helon\AppData\Local\Temp\cchg8CAa.s 			page 51


1438:.\Generated_Source\PSoC4/CyLib.c **** * Function Name: CySysTick_Start
1439:.\Generated_Source\PSoC4/CyLib.c **** ********************************************************************************
1440:.\Generated_Source\PSoC4/CyLib.c **** *
1441:.\Generated_Source\PSoC4/CyLib.c **** * Summary:
1442:.\Generated_Source\PSoC4/CyLib.c **** *  Starts the system timer (SysTick): configures SysTick to generate interrupt
1443:.\Generated_Source\PSoC4/CyLib.c **** *  every 1 ms and enables the interrupt.
1444:.\Generated_Source\PSoC4/CyLib.c **** *
1445:.\Generated_Source\PSoC4/CyLib.c **** * Parameters:
1446:.\Generated_Source\PSoC4/CyLib.c **** *  None
1447:.\Generated_Source\PSoC4/CyLib.c **** *
1448:.\Generated_Source\PSoC4/CyLib.c **** * Return:
1449:.\Generated_Source\PSoC4/CyLib.c **** *  None
1450:.\Generated_Source\PSoC4/CyLib.c **** *
1451:.\Generated_Source\PSoC4/CyLib.c **** * Side Effects:
1452:.\Generated_Source\PSoC4/CyLib.c **** *  Clears SysTick count flag if it was set.
1453:.\Generated_Source\PSoC4/CyLib.c **** *
1454:.\Generated_Source\PSoC4/CyLib.c **** *******************************************************************************/
1455:.\Generated_Source\PSoC4/CyLib.c **** void CySysTickStart(void)
1456:.\Generated_Source\PSoC4/CyLib.c **** {
1457:.\Generated_Source\PSoC4/CyLib.c ****     if (0u == CySysTickInitVar)
1458:.\Generated_Source\PSoC4/CyLib.c ****     {
1459:.\Generated_Source\PSoC4/CyLib.c ****         CySysTickInit();
1460:.\Generated_Source\PSoC4/CyLib.c ****         CySysTickInitVar = 1u;
1461:.\Generated_Source\PSoC4/CyLib.c ****     }
1462:.\Generated_Source\PSoC4/CyLib.c **** 
1463:.\Generated_Source\PSoC4/CyLib.c ****     CySysTickEnable();
1464:.\Generated_Source\PSoC4/CyLib.c **** }
1465:.\Generated_Source\PSoC4/CyLib.c **** 
1466:.\Generated_Source\PSoC4/CyLib.c **** 
1467:.\Generated_Source\PSoC4/CyLib.c **** /*******************************************************************************
1468:.\Generated_Source\PSoC4/CyLib.c **** * Function Name: CySysTickInit
1469:.\Generated_Source\PSoC4/CyLib.c **** ********************************************************************************
1470:.\Generated_Source\PSoC4/CyLib.c **** *
1471:.\Generated_Source\PSoC4/CyLib.c **** * Summary:
1472:.\Generated_Source\PSoC4/CyLib.c **** *  Sets CySysTickServiceCallbacks() as an ISR for the SysTick exception.
1473:.\Generated_Source\PSoC4/CyLib.c **** *  The clock source for the SysTick counter is set to the System Clock.
1474:.\Generated_Source\PSoC4/CyLib.c **** *  The SysTick reload value is configured for the timer to generate interrupt
1475:.\Generated_Source\PSoC4/CyLib.c **** *  every 1 ms. The System clock value is on the global variables cydelayFreqHz.
1476:.\Generated_Source\PSoC4/CyLib.c **** *  User is responsible for calling CyDelayFreq() function.
1477:.\Generated_Source\PSoC4/CyLib.c **** *  Initializes CySysTickCallbacks array.
1478:.\Generated_Source\PSoC4/CyLib.c **** *
1479:.\Generated_Source\PSoC4/CyLib.c **** * Parameters:
1480:.\Generated_Source\PSoC4/CyLib.c **** *  None
1481:.\Generated_Source\PSoC4/CyLib.c **** *
1482:.\Generated_Source\PSoC4/CyLib.c **** * Return:
1483:.\Generated_Source\PSoC4/CyLib.c **** *  None
1484:.\Generated_Source\PSoC4/CyLib.c **** *
1485:.\Generated_Source\PSoC4/CyLib.c **** * Side Effects:
1486:.\Generated_Source\PSoC4/CyLib.c **** *  Clears SysTick count flag if it was set
1487:.\Generated_Source\PSoC4/CyLib.c **** *
1488:.\Generated_Source\PSoC4/CyLib.c **** *******************************************************************************/
1489:.\Generated_Source\PSoC4/CyLib.c **** void CySysTickInit(void)
1490:.\Generated_Source\PSoC4/CyLib.c **** {
 1320              		.loc 1 1490 0
 1321              		.cfi_startproc
 1322              	.LVL76:
 1323 0000 10B5     		push	{r4, lr}
ARM GAS  C:\Users\Helon\AppData\Local\Temp\cchg8CAa.s 			page 52


 1324              		.cfi_def_cfa_offset 8
 1325              		.cfi_offset 4, -8
 1326              		.cfi_offset 14, -4
1491:.\Generated_Source\PSoC4/CyLib.c ****     uint32 i;
1492:.\Generated_Source\PSoC4/CyLib.c **** 
1493:.\Generated_Source\PSoC4/CyLib.c ****     for (i = 0u; i<CY_SYS_SYST_NUM_OF_CALLBACKS; i++)
1494:.\Generated_Source\PSoC4/CyLib.c ****     {
1495:.\Generated_Source\PSoC4/CyLib.c ****         CySysTickCallbacks[i] = (void *) 0;
 1327              		.loc 1 1495 0
 1328 0002 0024     		mov	r4, #0
 1329              	.LBB28:
 1330              	.LBB29:
 1331              	.LBB30:
1496:.\Generated_Source\PSoC4/CyLib.c ****     }
1497:.\Generated_Source\PSoC4/CyLib.c **** 
1498:.\Generated_Source\PSoC4/CyLib.c ****     (void) CyIntSetSysVector(CY_INT_SYSTICK_IRQN, &CySysTickServiceCallbacks);
1499:.\Generated_Source\PSoC4/CyLib.c **** 
1500:.\Generated_Source\PSoC4/CyLib.c ****     #if(!CY_PSOC3 && !CY_PSOC4_4000 && !CY_PSOC4_4100 && !CY_PSOC4_4200)
1501:.\Generated_Source\PSoC4/CyLib.c ****         CySysTickSetClockSource(CY_SYS_SYST_CSR_CLK_SRC_SYSCLK);
1502:.\Generated_Source\PSoC4/CyLib.c ****     #endif /* (!CY_PSOC3 && !CY_PSOC4_4000 && !CY_PSOC4_4100 && !CY_PSOC4_4200) */
1503:.\Generated_Source\PSoC4/CyLib.c **** 
1504:.\Generated_Source\PSoC4/CyLib.c ****     CySysTickSetReload(cydelayFreqHz/1000u);
1505:.\Generated_Source\PSoC4/CyLib.c ****     CySysTickClear();
1506:.\Generated_Source\PSoC4/CyLib.c ****     CyIntEnable(CY_INT_SYSTICK_IRQN);
1507:.\Generated_Source\PSoC4/CyLib.c **** }
1508:.\Generated_Source\PSoC4/CyLib.c **** 
1509:.\Generated_Source\PSoC4/CyLib.c **** 
1510:.\Generated_Source\PSoC4/CyLib.c **** /*******************************************************************************
1511:.\Generated_Source\PSoC4/CyLib.c **** * Function Name: CySysTickEnable
1512:.\Generated_Source\PSoC4/CyLib.c **** ********************************************************************************
1513:.\Generated_Source\PSoC4/CyLib.c **** *
1514:.\Generated_Source\PSoC4/CyLib.c **** * Summary:
1515:.\Generated_Source\PSoC4/CyLib.c **** *  Enables the SysTick timer and its interrupt.
1516:.\Generated_Source\PSoC4/CyLib.c **** *
1517:.\Generated_Source\PSoC4/CyLib.c **** * Parameters:
1518:.\Generated_Source\PSoC4/CyLib.c **** *  None
1519:.\Generated_Source\PSoC4/CyLib.c **** *
1520:.\Generated_Source\PSoC4/CyLib.c **** * Return:
1521:.\Generated_Source\PSoC4/CyLib.c **** *  None
1522:.\Generated_Source\PSoC4/CyLib.c **** *
1523:.\Generated_Source\PSoC4/CyLib.c **** * Side Effects:
1524:.\Generated_Source\PSoC4/CyLib.c **** *  Clears SysTick count flag if it was set
1525:.\Generated_Source\PSoC4/CyLib.c **** *
1526:.\Generated_Source\PSoC4/CyLib.c **** *******************************************************************************/
1527:.\Generated_Source\PSoC4/CyLib.c **** void CySysTickEnable(void)
1528:.\Generated_Source\PSoC4/CyLib.c **** {
1529:.\Generated_Source\PSoC4/CyLib.c ****     CySysTickEnableInterrupt();
1530:.\Generated_Source\PSoC4/CyLib.c ****     CY_SYS_SYST_CSR_REG |= CY_SYS_SYST_CSR_ENABLE;
1531:.\Generated_Source\PSoC4/CyLib.c **** }
1532:.\Generated_Source\PSoC4/CyLib.c **** 
1533:.\Generated_Source\PSoC4/CyLib.c **** 
1534:.\Generated_Source\PSoC4/CyLib.c **** /*******************************************************************************
1535:.\Generated_Source\PSoC4/CyLib.c **** * Function Name: CySysTickStop
1536:.\Generated_Source\PSoC4/CyLib.c **** ********************************************************************************
1537:.\Generated_Source\PSoC4/CyLib.c **** *
1538:.\Generated_Source\PSoC4/CyLib.c **** * Summary:
1539:.\Generated_Source\PSoC4/CyLib.c **** *  Stops the system timer (SysTick).
ARM GAS  C:\Users\Helon\AppData\Local\Temp\cchg8CAa.s 			page 53


1540:.\Generated_Source\PSoC4/CyLib.c **** *
1541:.\Generated_Source\PSoC4/CyLib.c **** * Parameters:
1542:.\Generated_Source\PSoC4/CyLib.c **** *  None
1543:.\Generated_Source\PSoC4/CyLib.c **** *
1544:.\Generated_Source\PSoC4/CyLib.c **** * Return:
1545:.\Generated_Source\PSoC4/CyLib.c **** *  None
1546:.\Generated_Source\PSoC4/CyLib.c **** *
1547:.\Generated_Source\PSoC4/CyLib.c **** * Side Effects:
1548:.\Generated_Source\PSoC4/CyLib.c **** *  Clears SysTick count flag if it was set
1549:.\Generated_Source\PSoC4/CyLib.c **** *
1550:.\Generated_Source\PSoC4/CyLib.c **** *******************************************************************************/
1551:.\Generated_Source\PSoC4/CyLib.c **** void CySysTickStop(void)
1552:.\Generated_Source\PSoC4/CyLib.c **** {
1553:.\Generated_Source\PSoC4/CyLib.c ****     CY_SYS_SYST_CSR_REG &= ((uint32) ~(CY_SYS_SYST_CSR_ENABLE));
1554:.\Generated_Source\PSoC4/CyLib.c **** }
1555:.\Generated_Source\PSoC4/CyLib.c **** 
1556:.\Generated_Source\PSoC4/CyLib.c **** 
1557:.\Generated_Source\PSoC4/CyLib.c **** /*******************************************************************************
1558:.\Generated_Source\PSoC4/CyLib.c **** * Function Name: CySysTickEnableInterrupt
1559:.\Generated_Source\PSoC4/CyLib.c **** ********************************************************************************
1560:.\Generated_Source\PSoC4/CyLib.c **** *
1561:.\Generated_Source\PSoC4/CyLib.c **** * Summary:
1562:.\Generated_Source\PSoC4/CyLib.c **** *  Enables the SysTick interrupt.
1563:.\Generated_Source\PSoC4/CyLib.c **** *
1564:.\Generated_Source\PSoC4/CyLib.c **** * Parameters:
1565:.\Generated_Source\PSoC4/CyLib.c **** *  None
1566:.\Generated_Source\PSoC4/CyLib.c **** *
1567:.\Generated_Source\PSoC4/CyLib.c **** * Return:
1568:.\Generated_Source\PSoC4/CyLib.c **** *  None
1569:.\Generated_Source\PSoC4/CyLib.c **** *
1570:.\Generated_Source\PSoC4/CyLib.c **** * Side Effects:
1571:.\Generated_Source\PSoC4/CyLib.c **** *  Clears SysTick count flag if it was set
1572:.\Generated_Source\PSoC4/CyLib.c **** *
1573:.\Generated_Source\PSoC4/CyLib.c **** *******************************************************************************/
1574:.\Generated_Source\PSoC4/CyLib.c **** void CySysTickEnableInterrupt(void)
1575:.\Generated_Source\PSoC4/CyLib.c **** {
1576:.\Generated_Source\PSoC4/CyLib.c ****     CY_SYS_SYST_CSR_REG |= CY_SYS_SYST_CSR_ENABLE_INT;
1577:.\Generated_Source\PSoC4/CyLib.c **** }
1578:.\Generated_Source\PSoC4/CyLib.c **** 
1579:.\Generated_Source\PSoC4/CyLib.c **** 
1580:.\Generated_Source\PSoC4/CyLib.c **** /*******************************************************************************
1581:.\Generated_Source\PSoC4/CyLib.c **** * Function Name: CySysTickDisableInterrupt
1582:.\Generated_Source\PSoC4/CyLib.c **** ********************************************************************************
1583:.\Generated_Source\PSoC4/CyLib.c **** *
1584:.\Generated_Source\PSoC4/CyLib.c **** * Summary:
1585:.\Generated_Source\PSoC4/CyLib.c **** *  Disables the SysTick interrupt.
1586:.\Generated_Source\PSoC4/CyLib.c **** *
1587:.\Generated_Source\PSoC4/CyLib.c **** * Parameters:
1588:.\Generated_Source\PSoC4/CyLib.c **** *  None
1589:.\Generated_Source\PSoC4/CyLib.c **** *
1590:.\Generated_Source\PSoC4/CyLib.c **** * Return:
1591:.\Generated_Source\PSoC4/CyLib.c **** *  None
1592:.\Generated_Source\PSoC4/CyLib.c **** *
1593:.\Generated_Source\PSoC4/CyLib.c **** * Side Effects:
1594:.\Generated_Source\PSoC4/CyLib.c **** *  Clears SysTick count flag if it was set
1595:.\Generated_Source\PSoC4/CyLib.c **** *
1596:.\Generated_Source\PSoC4/CyLib.c **** *******************************************************************************/
ARM GAS  C:\Users\Helon\AppData\Local\Temp\cchg8CAa.s 			page 54


1597:.\Generated_Source\PSoC4/CyLib.c **** void CySysTickDisableInterrupt(void)
1598:.\Generated_Source\PSoC4/CyLib.c **** {
1599:.\Generated_Source\PSoC4/CyLib.c ****     CY_SYS_SYST_CSR_REG &= ((uint32) ~(CY_SYS_SYST_CSR_ENABLE_INT));
1600:.\Generated_Source\PSoC4/CyLib.c **** }
1601:.\Generated_Source\PSoC4/CyLib.c **** 
1602:.\Generated_Source\PSoC4/CyLib.c **** 
1603:.\Generated_Source\PSoC4/CyLib.c **** /*******************************************************************************
1604:.\Generated_Source\PSoC4/CyLib.c **** * Function Name: CySysTickSetReload
1605:.\Generated_Source\PSoC4/CyLib.c **** ********************************************************************************
1606:.\Generated_Source\PSoC4/CyLib.c **** *
1607:.\Generated_Source\PSoC4/CyLib.c **** * Summary:
1608:.\Generated_Source\PSoC4/CyLib.c **** *  Sets value the counter is set to on startup and after it reaches zero. This
1609:.\Generated_Source\PSoC4/CyLib.c **** *  function do not change or reset current sysTick counter value, so it should
1610:.\Generated_Source\PSoC4/CyLib.c **** *  be cleared using CySysTickClear() API.
1611:.\Generated_Source\PSoC4/CyLib.c **** *
1612:.\Generated_Source\PSoC4/CyLib.c **** * Parameters:
1613:.\Generated_Source\PSoC4/CyLib.c **** *  value: Valid range [0x0-0x00FFFFFF]. Counter reset value
1614:.\Generated_Source\PSoC4/CyLib.c **** *
1615:.\Generated_Source\PSoC4/CyLib.c **** * Return:
1616:.\Generated_Source\PSoC4/CyLib.c **** *  None
1617:.\Generated_Source\PSoC4/CyLib.c **** *
1618:.\Generated_Source\PSoC4/CyLib.c **** *******************************************************************************/
1619:.\Generated_Source\PSoC4/CyLib.c **** void CySysTickSetReload(uint32 value)
1620:.\Generated_Source\PSoC4/CyLib.c **** {
1621:.\Generated_Source\PSoC4/CyLib.c ****     CY_SYS_SYST_RVR_REG = (value & CY_SYS_SYST_RVR_CNT_MASK);
1622:.\Generated_Source\PSoC4/CyLib.c **** }
1623:.\Generated_Source\PSoC4/CyLib.c **** 
1624:.\Generated_Source\PSoC4/CyLib.c **** 
1625:.\Generated_Source\PSoC4/CyLib.c **** /*******************************************************************************
1626:.\Generated_Source\PSoC4/CyLib.c **** * Function Name: CySysTickGetReload
1627:.\Generated_Source\PSoC4/CyLib.c **** ********************************************************************************
1628:.\Generated_Source\PSoC4/CyLib.c **** *
1629:.\Generated_Source\PSoC4/CyLib.c **** * Summary:
1630:.\Generated_Source\PSoC4/CyLib.c **** *  Sets value the counter is set to on startup and after it reaches zero.
1631:.\Generated_Source\PSoC4/CyLib.c **** *
1632:.\Generated_Source\PSoC4/CyLib.c **** * Parameters:
1633:.\Generated_Source\PSoC4/CyLib.c **** *  None
1634:.\Generated_Source\PSoC4/CyLib.c **** *
1635:.\Generated_Source\PSoC4/CyLib.c **** * Return:
1636:.\Generated_Source\PSoC4/CyLib.c **** *  Counter reset value.
1637:.\Generated_Source\PSoC4/CyLib.c **** *
1638:.\Generated_Source\PSoC4/CyLib.c **** *******************************************************************************/
1639:.\Generated_Source\PSoC4/CyLib.c **** uint32 CySysTickGetReload(void)
1640:.\Generated_Source\PSoC4/CyLib.c **** {
1641:.\Generated_Source\PSoC4/CyLib.c ****     return(CY_SYS_SYST_RVR_REG & CY_SYS_SYST_RVR_CNT_MASK);
1642:.\Generated_Source\PSoC4/CyLib.c **** }
1643:.\Generated_Source\PSoC4/CyLib.c **** 
1644:.\Generated_Source\PSoC4/CyLib.c **** 
1645:.\Generated_Source\PSoC4/CyLib.c **** /*******************************************************************************
1646:.\Generated_Source\PSoC4/CyLib.c **** * Function Name: CySysTickGetValue
1647:.\Generated_Source\PSoC4/CyLib.c **** ********************************************************************************
1648:.\Generated_Source\PSoC4/CyLib.c **** *
1649:.\Generated_Source\PSoC4/CyLib.c **** * Summary:
1650:.\Generated_Source\PSoC4/CyLib.c **** *  Gets current SysTick counter value.
1651:.\Generated_Source\PSoC4/CyLib.c **** *
1652:.\Generated_Source\PSoC4/CyLib.c **** * Parameters:
1653:.\Generated_Source\PSoC4/CyLib.c **** *  None
ARM GAS  C:\Users\Helon\AppData\Local\Temp\cchg8CAa.s 			page 55


1654:.\Generated_Source\PSoC4/CyLib.c **** *
1655:.\Generated_Source\PSoC4/CyLib.c **** * Return:
1656:.\Generated_Source\PSoC4/CyLib.c **** *  Current SysTick counter value
1657:.\Generated_Source\PSoC4/CyLib.c **** *
1658:.\Generated_Source\PSoC4/CyLib.c **** *******************************************************************************/
1659:.\Generated_Source\PSoC4/CyLib.c **** uint32 CySysTickGetValue(void)
1660:.\Generated_Source\PSoC4/CyLib.c **** {
1661:.\Generated_Source\PSoC4/CyLib.c ****     return(CY_SYS_SYST_CVR_REG & CY_SYS_SYST_CVR_CNT_MASK);
1662:.\Generated_Source\PSoC4/CyLib.c **** }
1663:.\Generated_Source\PSoC4/CyLib.c **** 
1664:.\Generated_Source\PSoC4/CyLib.c **** 
1665:.\Generated_Source\PSoC4/CyLib.c **** #if(!CY_PSOC3 && !CY_PSOC4_4000 && !CY_PSOC4_4100 && !CY_PSOC4_4200)
1666:.\Generated_Source\PSoC4/CyLib.c ****     /*******************************************************************************
1667:.\Generated_Source\PSoC4/CyLib.c ****     * Function Name: CySysTickSetClockSource
1668:.\Generated_Source\PSoC4/CyLib.c ****     ********************************************************************************
1669:.\Generated_Source\PSoC4/CyLib.c ****     *
1670:.\Generated_Source\PSoC4/CyLib.c ****     * Summary:
1671:.\Generated_Source\PSoC4/CyLib.c ****     *  Sets the clock source for the SysTick counter.
1672:.\Generated_Source\PSoC4/CyLib.c ****     *
1673:.\Generated_Source\PSoC4/CyLib.c ****     * Parameters:
1674:.\Generated_Source\PSoC4/CyLib.c ****     *  clockSource: Clock source for SysTick counter
1675:.\Generated_Source\PSoC4/CyLib.c ****     *         Define                     Clock Source
1676:.\Generated_Source\PSoC4/CyLib.c ****     *   CY_SYS_SYST_CSR_CLK_SRC_SYSCLK     SysTick is clocked by CPU clock.
1677:.\Generated_Source\PSoC4/CyLib.c ****     *   CY_SYS_SYST_CSR_CLK_SRC_LFCLK      SysTick is clocked by the low frequency
1678:.\Generated_Source\PSoC4/CyLib.c ****     *                                      clock. (ILO 100 KHz for PSoC 5LP, and
1679:.\Generated_Source\PSoC4/CyLib.c ****     *                                      LFCLK for PSoC 4).
1680:.\Generated_Source\PSoC4/CyLib.c ****     *
1681:.\Generated_Source\PSoC4/CyLib.c ****     * Return:
1682:.\Generated_Source\PSoC4/CyLib.c ****     *  None
1683:.\Generated_Source\PSoC4/CyLib.c ****     *
1684:.\Generated_Source\PSoC4/CyLib.c ****     * Side Effects:
1685:.\Generated_Source\PSoC4/CyLib.c ****     *  Clears SysTick count flag if it was set. If clock source is not ready this
1686:.\Generated_Source\PSoC4/CyLib.c ****     *  function call will have no effect. After changing clock source to the low
1687:.\Generated_Source\PSoC4/CyLib.c ****     *  frequency clock the counter and reload register values will remain unchanged
1688:.\Generated_Source\PSoC4/CyLib.c ****     *  so time to the interrupt will be significantly bigger and vice versa.
1689:.\Generated_Source\PSoC4/CyLib.c ****     *
1690:.\Generated_Source\PSoC4/CyLib.c ****     *******************************************************************************/
1691:.\Generated_Source\PSoC4/CyLib.c ****     void CySysTickSetClockSource(uint32 clockSource)
1692:.\Generated_Source\PSoC4/CyLib.c ****     {
1693:.\Generated_Source\PSoC4/CyLib.c ****         if (clockSource == CY_SYS_SYST_CSR_CLK_SRC_SYSCLK)
1694:.\Generated_Source\PSoC4/CyLib.c ****         {
1695:.\Generated_Source\PSoC4/CyLib.c ****             CY_SYS_SYST_CSR_REG |= (uint32)(CY_SYS_SYST_CSR_CLK_SRC_SYSCLK << CY_SYS_SYST_CSR_CLK_S
 1332              		.loc 1 1695 0
 1333 0004 0421     		mov	r1, #4
 1334              	.LBE30:
 1335              	.LBE29:
 1336              	.LBE28:
1495:.\Generated_Source\PSoC4/CyLib.c ****     }
 1337              		.loc 1 1495 0
 1338 0006 0E4B     		ldr	r3, .L106
 1339              	.LBB35:
 1340              	.LBB36:
1049:.\Generated_Source\PSoC4/CyLib.c **** 
 1341              		.loc 1 1049 0
 1342 0008 0E4A     		ldr	r2, .L106+4
 1343              	.LBE36:
 1344              	.LBE35:
ARM GAS  C:\Users\Helon\AppData\Local\Temp\cchg8CAa.s 			page 56


1495:.\Generated_Source\PSoC4/CyLib.c ****     }
 1345              		.loc 1 1495 0
 1346 000a 1C60     		str	r4, [r3]
 1347              	.LVL77:
 1348 000c DC60     		str	r4, [r3, #12]
 1349 000e 5C60     		str	r4, [r3, #4]
 1350              	.LVL78:
 1351 0010 9C60     		str	r4, [r3, #8]
 1352              	.LVL79:
 1353 0012 1C61     		str	r4, [r3, #16]
 1354              	.LVL80:
 1355              	.LBB39:
 1356              	.LBB37:
1049:.\Generated_Source\PSoC4/CyLib.c **** 
 1357              		.loc 1 1049 0
 1358 0014 0C4B     		ldr	r3, .L106+8
 1359              	.LVL81:
 1360              	.LBE37:
 1361              	.LBE39:
1507:.\Generated_Source\PSoC4/CyLib.c **** 
 1362              		.loc 1 1507 0
 1363              		@ sp needed
 1364              	.LBB40:
 1365              	.LBB38:
1049:.\Generated_Source\PSoC4/CyLib.c **** 
 1366              		.loc 1 1049 0
 1367 0016 1A60     		str	r2, [r3]
 1368              	.LVL82:
 1369              	.LBE38:
 1370              	.LBE40:
 1371              	.LBB41:
 1372              	.LBB33:
 1373              	.LBB31:
 1374              		.loc 1 1695 0
 1375 0018 0C4A     		ldr	r2, .L106+12
 1376 001a 1368     		ldr	r3, [r2]
 1377 001c 0B43     		orr	r3, r1
 1378              	.LBE31:
 1379              	.LBE33:
 1380              	.LBE41:
1504:.\Generated_Source\PSoC4/CyLib.c ****     CySysTickClear();
 1381              		.loc 1 1504 0
 1382 001e FA21     		mov	r1, #250
 1383              	.LBB42:
 1384              	.LBB34:
 1385              	.LBB32:
 1386              		.loc 1 1695 0
 1387 0020 1360     		str	r3, [r2]
 1388              	.LBE32:
 1389              	.LBE34:
 1390              	.LBE42:
1504:.\Generated_Source\PSoC4/CyLib.c ****     CySysTickClear();
 1391              		.loc 1 1504 0
 1392 0022 0B4B     		ldr	r3, .L106+16
 1393 0024 8900     		lsl	r1, r1, #2
 1394 0026 D868     		ldr	r0, [r3, #12]
 1395 0028 FFF7FEFF 		bl	__aeabi_uidiv
ARM GAS  C:\Users\Helon\AppData\Local\Temp\cchg8CAa.s 			page 57


 1396              	.LVL83:
 1397              	.LBB43:
 1398              	.LBB44:
1219:.\Generated_Source\PSoC4/CyLib.c **** }
 1399              		.loc 1 1219 0
 1400 002c 8022     		mov	r2, #128
 1401              	.LBE44:
 1402              	.LBE43:
 1403              	.LBB47:
 1404              	.LBB48:
1621:.\Generated_Source\PSoC4/CyLib.c **** }
 1405              		.loc 1 1621 0
 1406 002e 094B     		ldr	r3, .L106+20
 1407              	.LBE48:
 1408              	.LBE47:
 1409              	.LBB50:
 1410              	.LBB45:
1219:.\Generated_Source\PSoC4/CyLib.c **** }
 1411              		.loc 1 1219 0
 1412 0030 1202     		lsl	r2, r2, #8
 1413              	.LBE45:
 1414              	.LBE50:
 1415              	.LBB51:
 1416              	.LBB49:
1621:.\Generated_Source\PSoC4/CyLib.c **** }
 1417              		.loc 1 1621 0
 1418 0032 1860     		str	r0, [r3]
 1419              	.LBE49:
 1420              	.LBE51:
 1421              	.LBB52:
 1422              	.LBB53:
1696:.\Generated_Source\PSoC4/CyLib.c ****         }
1697:.\Generated_Source\PSoC4/CyLib.c ****         else
1698:.\Generated_Source\PSoC4/CyLib.c ****         {
1699:.\Generated_Source\PSoC4/CyLib.c ****             CY_SYS_SYST_CSR_REG &= ((uint32) ~((uint32)(CY_SYS_SYST_CSR_CLK_SRC_SYSCLK << CY_SYS_SY
1700:.\Generated_Source\PSoC4/CyLib.c ****         }
1701:.\Generated_Source\PSoC4/CyLib.c ****     }
1702:.\Generated_Source\PSoC4/CyLib.c **** #endif /* (!CY_PSOC3 && !CY_PSOC4_4000 && !CY_PSOC4_4100 && !CY_PSOC4_4200) */
1703:.\Generated_Source\PSoC4/CyLib.c **** 
1704:.\Generated_Source\PSoC4/CyLib.c **** 
1705:.\Generated_Source\PSoC4/CyLib.c **** /*******************************************************************************
1706:.\Generated_Source\PSoC4/CyLib.c **** * Function Name: CySysTickGetCountFlag
1707:.\Generated_Source\PSoC4/CyLib.c **** ********************************************************************************
1708:.\Generated_Source\PSoC4/CyLib.c **** *
1709:.\Generated_Source\PSoC4/CyLib.c **** * Summary:
1710:.\Generated_Source\PSoC4/CyLib.c **** *  The count flag is set once SysTick counter reaches zero.
1711:.\Generated_Source\PSoC4/CyLib.c **** *   The flag cleared on read.
1712:.\Generated_Source\PSoC4/CyLib.c **** *
1713:.\Generated_Source\PSoC4/CyLib.c **** * Parameters:
1714:.\Generated_Source\PSoC4/CyLib.c **** *  None
1715:.\Generated_Source\PSoC4/CyLib.c **** *
1716:.\Generated_Source\PSoC4/CyLib.c **** * Return:
1717:.\Generated_Source\PSoC4/CyLib.c ****     *  Returns non-zero value if flag is set, otherwise zero is returned.
1718:.\Generated_Source\PSoC4/CyLib.c **** *
1719:.\Generated_Source\PSoC4/CyLib.c **** *
1720:.\Generated_Source\PSoC4/CyLib.c **** * Side Effects:
1721:.\Generated_Source\PSoC4/CyLib.c **** *  Clears SysTick count flag if it was set.
ARM GAS  C:\Users\Helon\AppData\Local\Temp\cchg8CAa.s 			page 58


1722:.\Generated_Source\PSoC4/CyLib.c **** *
1723:.\Generated_Source\PSoC4/CyLib.c **** *******************************************************************************/
1724:.\Generated_Source\PSoC4/CyLib.c **** uint32 CySysTickGetCountFlag(void)
1725:.\Generated_Source\PSoC4/CyLib.c **** {
1726:.\Generated_Source\PSoC4/CyLib.c ****     return ((CY_SYS_SYST_CSR_REG>>CY_SYS_SYST_CSR_COUNTFLAG_SHIFT) & 0x01u);
1727:.\Generated_Source\PSoC4/CyLib.c **** }
1728:.\Generated_Source\PSoC4/CyLib.c **** 
1729:.\Generated_Source\PSoC4/CyLib.c **** 
1730:.\Generated_Source\PSoC4/CyLib.c **** /*******************************************************************************
1731:.\Generated_Source\PSoC4/CyLib.c **** * Function Name: CySysTickClear
1732:.\Generated_Source\PSoC4/CyLib.c **** ********************************************************************************
1733:.\Generated_Source\PSoC4/CyLib.c **** *
1734:.\Generated_Source\PSoC4/CyLib.c **** * Summary:
1735:.\Generated_Source\PSoC4/CyLib.c **** *  Clears the SysTick counter for well-defined startup.
1736:.\Generated_Source\PSoC4/CyLib.c **** *
1737:.\Generated_Source\PSoC4/CyLib.c **** * Parameters:
1738:.\Generated_Source\PSoC4/CyLib.c **** *  None
1739:.\Generated_Source\PSoC4/CyLib.c **** *
1740:.\Generated_Source\PSoC4/CyLib.c **** * Return:
1741:.\Generated_Source\PSoC4/CyLib.c **** *  None
1742:.\Generated_Source\PSoC4/CyLib.c **** *
1743:.\Generated_Source\PSoC4/CyLib.c **** *******************************************************************************/
1744:.\Generated_Source\PSoC4/CyLib.c **** void CySysTickClear(void)
1745:.\Generated_Source\PSoC4/CyLib.c **** {
1746:.\Generated_Source\PSoC4/CyLib.c ****     CY_SYS_SYST_CVR_REG = 0u;
 1423              		.loc 1 1746 0
 1424 0034 084B     		ldr	r3, .L106+24
 1425 0036 1C60     		str	r4, [r3]
 1426              	.LVL84:
 1427              	.LBE53:
 1428              	.LBE52:
 1429              	.LBB54:
 1430              	.LBB46:
1219:.\Generated_Source\PSoC4/CyLib.c **** }
 1431              		.loc 1 1219 0
 1432 0038 084B     		ldr	r3, .L106+28
 1433 003a 1A60     		str	r2, [r3]
 1434              	.LBE46:
 1435              	.LBE54:
1507:.\Generated_Source\PSoC4/CyLib.c **** 
 1436              		.loc 1 1507 0
 1437 003c 10BD     		pop	{r4, pc}
 1438              	.L107:
 1439 003e C046     		.align	2
 1440              	.L106:
 1441 0040 00000000 		.word	.LANCHOR2
 1442 0044 00000000 		.word	CySysTickServiceCallbacks
 1443 0048 3C000020 		.word	536870972
 1444 004c 10E000E0 		.word	-536813552
 1445 0050 00000000 		.word	.LANCHOR1
 1446 0054 14E000E0 		.word	-536813548
 1447 0058 18E000E0 		.word	-536813544
 1448 005c 00E100E0 		.word	-536813312
 1449              		.cfi_endproc
 1450              	.LFE35:
 1451              		.size	CySysTickInit, .-CySysTickInit
 1452              		.section	.text.CySysTickStop,"ax",%progbits
ARM GAS  C:\Users\Helon\AppData\Local\Temp\cchg8CAa.s 			page 59


 1453              		.align	1
 1454              		.global	CySysTickStop
 1455              		.code	16
 1456              		.thumb_func
 1457              		.type	CySysTickStop, %function
 1458              	CySysTickStop:
 1459              	.LFB37:
1552:.\Generated_Source\PSoC4/CyLib.c ****     CY_SYS_SYST_CSR_REG &= ((uint32) ~(CY_SYS_SYST_CSR_ENABLE));
 1460              		.loc 1 1552 0
 1461              		.cfi_startproc
1553:.\Generated_Source\PSoC4/CyLib.c **** }
 1462              		.loc 1 1553 0
 1463 0000 0121     		mov	r1, #1
 1464 0002 024A     		ldr	r2, .L109
1554:.\Generated_Source\PSoC4/CyLib.c **** 
 1465              		.loc 1 1554 0
 1466              		@ sp needed
1553:.\Generated_Source\PSoC4/CyLib.c **** }
 1467              		.loc 1 1553 0
 1468 0004 1368     		ldr	r3, [r2]
 1469 0006 8B43     		bic	r3, r1
 1470 0008 1360     		str	r3, [r2]
1554:.\Generated_Source\PSoC4/CyLib.c **** 
 1471              		.loc 1 1554 0
 1472 000a 7047     		bx	lr
 1473              	.L110:
 1474              		.align	2
 1475              	.L109:
 1476 000c 10E000E0 		.word	-536813552
 1477              		.cfi_endproc
 1478              	.LFE37:
 1479              		.size	CySysTickStop, .-CySysTickStop
 1480              		.section	.text.CySysTickEnableInterrupt,"ax",%progbits
 1481              		.align	1
 1482              		.global	CySysTickEnableInterrupt
 1483              		.code	16
 1484              		.thumb_func
 1485              		.type	CySysTickEnableInterrupt, %function
 1486              	CySysTickEnableInterrupt:
 1487              	.LFB38:
1575:.\Generated_Source\PSoC4/CyLib.c ****     CY_SYS_SYST_CSR_REG |= CY_SYS_SYST_CSR_ENABLE_INT;
 1488              		.loc 1 1575 0
 1489              		.cfi_startproc
1576:.\Generated_Source\PSoC4/CyLib.c **** }
 1490              		.loc 1 1576 0
 1491 0000 0221     		mov	r1, #2
 1492 0002 024A     		ldr	r2, .L112
1577:.\Generated_Source\PSoC4/CyLib.c **** 
 1493              		.loc 1 1577 0
 1494              		@ sp needed
1576:.\Generated_Source\PSoC4/CyLib.c **** }
 1495              		.loc 1 1576 0
 1496 0004 1368     		ldr	r3, [r2]
 1497 0006 0B43     		orr	r3, r1
 1498 0008 1360     		str	r3, [r2]
1577:.\Generated_Source\PSoC4/CyLib.c **** 
 1499              		.loc 1 1577 0
ARM GAS  C:\Users\Helon\AppData\Local\Temp\cchg8CAa.s 			page 60


 1500 000a 7047     		bx	lr
 1501              	.L113:
 1502              		.align	2
 1503              	.L112:
 1504 000c 10E000E0 		.word	-536813552
 1505              		.cfi_endproc
 1506              	.LFE38:
 1507              		.size	CySysTickEnableInterrupt, .-CySysTickEnableInterrupt
 1508              		.section	.text.CySysTickEnable,"ax",%progbits
 1509              		.align	1
 1510              		.global	CySysTickEnable
 1511              		.code	16
 1512              		.thumb_func
 1513              		.type	CySysTickEnable, %function
 1514              	CySysTickEnable:
 1515              	.LFB36:
1528:.\Generated_Source\PSoC4/CyLib.c ****     CySysTickEnableInterrupt();
 1516              		.loc 1 1528 0
 1517              		.cfi_startproc
 1518 0000 08B5     		push	{r3, lr}
 1519              		.cfi_def_cfa_offset 8
 1520              		.cfi_offset 3, -8
 1521              		.cfi_offset 14, -4
1529:.\Generated_Source\PSoC4/CyLib.c ****     CY_SYS_SYST_CSR_REG |= CY_SYS_SYST_CSR_ENABLE;
 1522              		.loc 1 1529 0
 1523 0002 FFF7FEFF 		bl	CySysTickEnableInterrupt
 1524              	.LVL85:
1530:.\Generated_Source\PSoC4/CyLib.c **** }
 1525              		.loc 1 1530 0
 1526 0006 0121     		mov	r1, #1
 1527 0008 024A     		ldr	r2, .L115
1531:.\Generated_Source\PSoC4/CyLib.c **** 
 1528              		.loc 1 1531 0
 1529              		@ sp needed
1530:.\Generated_Source\PSoC4/CyLib.c **** }
 1530              		.loc 1 1530 0
 1531 000a 1368     		ldr	r3, [r2]
 1532 000c 0B43     		orr	r3, r1
 1533 000e 1360     		str	r3, [r2]
1531:.\Generated_Source\PSoC4/CyLib.c **** 
 1534              		.loc 1 1531 0
 1535 0010 08BD     		pop	{r3, pc}
 1536              	.L116:
 1537 0012 C046     		.align	2
 1538              	.L115:
 1539 0014 10E000E0 		.word	-536813552
 1540              		.cfi_endproc
 1541              	.LFE36:
 1542              		.size	CySysTickEnable, .-CySysTickEnable
 1543              		.section	.text.CySysTickStart,"ax",%progbits
 1544              		.align	1
 1545              		.global	CySysTickStart
 1546              		.code	16
 1547              		.thumb_func
 1548              		.type	CySysTickStart, %function
 1549              	CySysTickStart:
 1550              	.LFB34:
ARM GAS  C:\Users\Helon\AppData\Local\Temp\cchg8CAa.s 			page 61


1456:.\Generated_Source\PSoC4/CyLib.c ****     if (0u == CySysTickInitVar)
 1551              		.loc 1 1456 0
 1552              		.cfi_startproc
 1553 0000 10B5     		push	{r4, lr}
 1554              		.cfi_def_cfa_offset 8
 1555              		.cfi_offset 4, -8
 1556              		.cfi_offset 14, -4
1457:.\Generated_Source\PSoC4/CyLib.c ****     {
 1557              		.loc 1 1457 0
 1558 0002 054C     		ldr	r4, .L119
 1559 0004 6369     		ldr	r3, [r4, #20]
 1560 0006 002B     		cmp	r3, #0
 1561 0008 03D1     		bne	.L118
1459:.\Generated_Source\PSoC4/CyLib.c ****         CySysTickInitVar = 1u;
 1562              		.loc 1 1459 0
 1563 000a FFF7FEFF 		bl	CySysTickInit
 1564              	.LVL86:
1460:.\Generated_Source\PSoC4/CyLib.c ****     }
 1565              		.loc 1 1460 0
 1566 000e 0123     		mov	r3, #1
 1567 0010 6361     		str	r3, [r4, #20]
 1568              	.L118:
1463:.\Generated_Source\PSoC4/CyLib.c **** }
 1569              		.loc 1 1463 0
 1570 0012 FFF7FEFF 		bl	CySysTickEnable
 1571              	.LVL87:
1464:.\Generated_Source\PSoC4/CyLib.c **** 
 1572              		.loc 1 1464 0
 1573              		@ sp needed
 1574 0016 10BD     		pop	{r4, pc}
 1575              	.L120:
 1576              		.align	2
 1577              	.L119:
 1578 0018 00000000 		.word	.LANCHOR2
 1579              		.cfi_endproc
 1580              	.LFE34:
 1581              		.size	CySysTickStart, .-CySysTickStart
 1582              		.section	.text.CySysTickDisableInterrupt,"ax",%progbits
 1583              		.align	1
 1584              		.global	CySysTickDisableInterrupt
 1585              		.code	16
 1586              		.thumb_func
 1587              		.type	CySysTickDisableInterrupt, %function
 1588              	CySysTickDisableInterrupt:
 1589              	.LFB39:
1598:.\Generated_Source\PSoC4/CyLib.c ****     CY_SYS_SYST_CSR_REG &= ((uint32) ~(CY_SYS_SYST_CSR_ENABLE_INT));
 1590              		.loc 1 1598 0
 1591              		.cfi_startproc
1599:.\Generated_Source\PSoC4/CyLib.c **** }
 1592              		.loc 1 1599 0
 1593 0000 0221     		mov	r1, #2
 1594 0002 024A     		ldr	r2, .L122
1600:.\Generated_Source\PSoC4/CyLib.c **** 
 1595              		.loc 1 1600 0
 1596              		@ sp needed
1599:.\Generated_Source\PSoC4/CyLib.c **** }
 1597              		.loc 1 1599 0
ARM GAS  C:\Users\Helon\AppData\Local\Temp\cchg8CAa.s 			page 62


 1598 0004 1368     		ldr	r3, [r2]
 1599 0006 8B43     		bic	r3, r1
 1600 0008 1360     		str	r3, [r2]
1600:.\Generated_Source\PSoC4/CyLib.c **** 
 1601              		.loc 1 1600 0
 1602 000a 7047     		bx	lr
 1603              	.L123:
 1604              		.align	2
 1605              	.L122:
 1606 000c 10E000E0 		.word	-536813552
 1607              		.cfi_endproc
 1608              	.LFE39:
 1609              		.size	CySysTickDisableInterrupt, .-CySysTickDisableInterrupt
 1610              		.section	.text.CySysTickSetReload,"ax",%progbits
 1611              		.align	1
 1612              		.global	CySysTickSetReload
 1613              		.code	16
 1614              		.thumb_func
 1615              		.type	CySysTickSetReload, %function
 1616              	CySysTickSetReload:
 1617              	.LFB40:
1620:.\Generated_Source\PSoC4/CyLib.c ****     CY_SYS_SYST_RVR_REG = (value & CY_SYS_SYST_RVR_CNT_MASK);
 1618              		.loc 1 1620 0
 1619              		.cfi_startproc
 1620              	.LVL88:
1621:.\Generated_Source\PSoC4/CyLib.c **** }
 1621              		.loc 1 1621 0
 1622 0000 024B     		ldr	r3, .L125
 1623 0002 0002     		lsl	r0, r0, #8
 1624              	.LVL89:
 1625 0004 000A     		lsr	r0, r0, #8
 1626 0006 1860     		str	r0, [r3]
1622:.\Generated_Source\PSoC4/CyLib.c **** 
 1627              		.loc 1 1622 0
 1628              		@ sp needed
 1629 0008 7047     		bx	lr
 1630              	.L126:
 1631 000a C046     		.align	2
 1632              	.L125:
 1633 000c 14E000E0 		.word	-536813548
 1634              		.cfi_endproc
 1635              	.LFE40:
 1636              		.size	CySysTickSetReload, .-CySysTickSetReload
 1637              		.section	.text.CySysTickGetReload,"ax",%progbits
 1638              		.align	1
 1639              		.global	CySysTickGetReload
 1640              		.code	16
 1641              		.thumb_func
 1642              		.type	CySysTickGetReload, %function
 1643              	CySysTickGetReload:
 1644              	.LFB41:
1640:.\Generated_Source\PSoC4/CyLib.c ****     return(CY_SYS_SYST_RVR_REG & CY_SYS_SYST_RVR_CNT_MASK);
 1645              		.loc 1 1640 0
 1646              		.cfi_startproc
1641:.\Generated_Source\PSoC4/CyLib.c **** }
 1647              		.loc 1 1641 0
 1648 0000 024B     		ldr	r3, .L128
ARM GAS  C:\Users\Helon\AppData\Local\Temp\cchg8CAa.s 			page 63


1642:.\Generated_Source\PSoC4/CyLib.c **** 
 1649              		.loc 1 1642 0
 1650              		@ sp needed
1641:.\Generated_Source\PSoC4/CyLib.c **** }
 1651              		.loc 1 1641 0
 1652 0002 1868     		ldr	r0, [r3]
 1653 0004 0002     		lsl	r0, r0, #8
 1654 0006 000A     		lsr	r0, r0, #8
1642:.\Generated_Source\PSoC4/CyLib.c **** 
 1655              		.loc 1 1642 0
 1656 0008 7047     		bx	lr
 1657              	.L129:
 1658 000a C046     		.align	2
 1659              	.L128:
 1660 000c 14E000E0 		.word	-536813548
 1661              		.cfi_endproc
 1662              	.LFE41:
 1663              		.size	CySysTickGetReload, .-CySysTickGetReload
 1664              		.section	.text.CySysTickGetValue,"ax",%progbits
 1665              		.align	1
 1666              		.global	CySysTickGetValue
 1667              		.code	16
 1668              		.thumb_func
 1669              		.type	CySysTickGetValue, %function
 1670              	CySysTickGetValue:
 1671              	.LFB42:
1660:.\Generated_Source\PSoC4/CyLib.c ****     return(CY_SYS_SYST_CVR_REG & CY_SYS_SYST_CVR_CNT_MASK);
 1672              		.loc 1 1660 0
 1673              		.cfi_startproc
1661:.\Generated_Source\PSoC4/CyLib.c **** }
 1674              		.loc 1 1661 0
 1675 0000 024B     		ldr	r3, .L131
1662:.\Generated_Source\PSoC4/CyLib.c **** 
 1676              		.loc 1 1662 0
 1677              		@ sp needed
1661:.\Generated_Source\PSoC4/CyLib.c **** }
 1678              		.loc 1 1661 0
 1679 0002 1868     		ldr	r0, [r3]
 1680 0004 0002     		lsl	r0, r0, #8
 1681 0006 000A     		lsr	r0, r0, #8
1662:.\Generated_Source\PSoC4/CyLib.c **** 
 1682              		.loc 1 1662 0
 1683 0008 7047     		bx	lr
 1684              	.L132:
 1685 000a C046     		.align	2
 1686              	.L131:
 1687 000c 18E000E0 		.word	-536813544
 1688              		.cfi_endproc
 1689              	.LFE42:
 1690              		.size	CySysTickGetValue, .-CySysTickGetValue
 1691              		.section	.text.CySysTickSetClockSource,"ax",%progbits
 1692              		.align	1
 1693              		.global	CySysTickSetClockSource
 1694              		.code	16
 1695              		.thumb_func
 1696              		.type	CySysTickSetClockSource, %function
 1697              	CySysTickSetClockSource:
ARM GAS  C:\Users\Helon\AppData\Local\Temp\cchg8CAa.s 			page 64


 1698              	.LFB43:
1692:.\Generated_Source\PSoC4/CyLib.c ****         if (clockSource == CY_SYS_SYST_CSR_CLK_SRC_SYSCLK)
 1699              		.loc 1 1692 0
 1700              		.cfi_startproc
 1701              	.LVL90:
 1702 0000 044B     		ldr	r3, .L137
 1703 0002 0421     		mov	r1, #4
 1704              	.LBB57:
 1705              	.LBB58:
1695:.\Generated_Source\PSoC4/CyLib.c ****         }
 1706              		.loc 1 1695 0
 1707 0004 1A68     		ldr	r2, [r3]
 1708              	.LBE58:
 1709              	.LBE57:
1693:.\Generated_Source\PSoC4/CyLib.c ****         {
 1710              		.loc 1 1693 0
 1711 0006 0128     		cmp	r0, #1
 1712 0008 01D1     		bne	.L134
 1713              	.LVL91:
 1714              	.LBB60:
 1715              	.LBB59:
1695:.\Generated_Source\PSoC4/CyLib.c ****         }
 1716              		.loc 1 1695 0
 1717 000a 0A43     		orr	r2, r1
 1718 000c 00E0     		b	.L136
 1719              	.LVL92:
 1720              	.L134:
 1721              	.LBE59:
 1722              	.LBE60:
1699:.\Generated_Source\PSoC4/CyLib.c ****         }
 1723              		.loc 1 1699 0
 1724 000e 8A43     		bic	r2, r1
 1725              	.L136:
 1726 0010 1A60     		str	r2, [r3]
1701:.\Generated_Source\PSoC4/CyLib.c **** #endif /* (!CY_PSOC3 && !CY_PSOC4_4000 && !CY_PSOC4_4100 && !CY_PSOC4_4200) */
 1727              		.loc 1 1701 0
 1728              		@ sp needed
 1729 0012 7047     		bx	lr
 1730              	.L138:
 1731              		.align	2
 1732              	.L137:
 1733 0014 10E000E0 		.word	-536813552
 1734              		.cfi_endproc
 1735              	.LFE43:
 1736              		.size	CySysTickSetClockSource, .-CySysTickSetClockSource
 1737              		.section	.text.CySysTickGetCountFlag,"ax",%progbits
 1738              		.align	1
 1739              		.global	CySysTickGetCountFlag
 1740              		.code	16
 1741              		.thumb_func
 1742              		.type	CySysTickGetCountFlag, %function
 1743              	CySysTickGetCountFlag:
 1744              	.LFB44:
1725:.\Generated_Source\PSoC4/CyLib.c ****     return ((CY_SYS_SYST_CSR_REG>>CY_SYS_SYST_CSR_COUNTFLAG_SHIFT) & 0x01u);
 1745              		.loc 1 1725 0
 1746              		.cfi_startproc
1726:.\Generated_Source\PSoC4/CyLib.c **** }
ARM GAS  C:\Users\Helon\AppData\Local\Temp\cchg8CAa.s 			page 65


 1747              		.loc 1 1726 0
 1748 0000 024B     		ldr	r3, .L140
1727:.\Generated_Source\PSoC4/CyLib.c **** 
 1749              		.loc 1 1727 0
 1750              		@ sp needed
1726:.\Generated_Source\PSoC4/CyLib.c **** }
 1751              		.loc 1 1726 0
 1752 0002 1868     		ldr	r0, [r3]
 1753 0004 C003     		lsl	r0, r0, #15
 1754 0006 C00F     		lsr	r0, r0, #31
1727:.\Generated_Source\PSoC4/CyLib.c **** 
 1755              		.loc 1 1727 0
 1756 0008 7047     		bx	lr
 1757              	.L141:
 1758 000a C046     		.align	2
 1759              	.L140:
 1760 000c 10E000E0 		.word	-536813552
 1761              		.cfi_endproc
 1762              	.LFE44:
 1763              		.size	CySysTickGetCountFlag, .-CySysTickGetCountFlag
 1764              		.section	.text.CySysTickServiceCallbacks,"ax",%progbits
 1765              		.align	1
 1766              		.code	16
 1767              		.thumb_func
 1768              		.type	CySysTickServiceCallbacks, %function
 1769              	CySysTickServiceCallbacks:
 1770              	.LFB48:
1747:.\Generated_Source\PSoC4/CyLib.c **** }
1748:.\Generated_Source\PSoC4/CyLib.c **** 
1749:.\Generated_Source\PSoC4/CyLib.c **** 
1750:.\Generated_Source\PSoC4/CyLib.c **** /*******************************************************************************
1751:.\Generated_Source\PSoC4/CyLib.c **** * Function Name: CySysTickSetCallback
1752:.\Generated_Source\PSoC4/CyLib.c **** ********************************************************************************
1753:.\Generated_Source\PSoC4/CyLib.c **** *
1754:.\Generated_Source\PSoC4/CyLib.c **** * Summary:
1755:.\Generated_Source\PSoC4/CyLib.c **** *  This function allows up to five user-defined interrupt service routine
1756:.\Generated_Source\PSoC4/CyLib.c **** *  functions to be associated with the SysTick interrupt. These are specified
1757:.\Generated_Source\PSoC4/CyLib.c **** *  through the use of pointers to the function.
1758:.\Generated_Source\PSoC4/CyLib.c **** *
1759:.\Generated_Source\PSoC4/CyLib.c **** *  To set a custom callback function without the overhead of the system provided
1760:.\Generated_Source\PSoC4/CyLib.c **** *  one, use CyIntSetSysVector(CY_INT_SYSTICK_IRQN, cyisraddress <address>),
1761:.\Generated_Source\PSoC4/CyLib.c **** *  where <address> is address of the custom defined interrupt service routine.
1762:.\Generated_Source\PSoC4/CyLib.c **** *  Note: a custom callback function overrides the system defined callback
1763:.\Generated_Source\PSoC4/CyLib.c **** *  functions.
1764:.\Generated_Source\PSoC4/CyLib.c **** *
1765:.\Generated_Source\PSoC4/CyLib.c **** * Parameters:
1766:.\Generated_Source\PSoC4/CyLib.c **** *  number: The number of the callback function addresses to be set. The valid
1767:.\Generated_Source\PSoC4/CyLib.c **** *          range is from 0 to 4.
1768:.\Generated_Source\PSoC4/CyLib.c **** *
1769:.\Generated_Source\PSoC4/CyLib.c **** *  void(*CallbackFunction(void): A pointer to the function that will be
1770:.\Generated_Source\PSoC4/CyLib.c **** *                                associated with the SysTick ISR for the
1771:.\Generated_Source\PSoC4/CyLib.c **** *                                specified number.
1772:.\Generated_Source\PSoC4/CyLib.c **** *
1773:.\Generated_Source\PSoC4/CyLib.c **** * Return:
1774:.\Generated_Source\PSoC4/CyLib.c **** *  Returns the address of the previous callback function.
1775:.\Generated_Source\PSoC4/CyLib.c **** *  The NULL is returned if the specified address in not set.
1776:.\Generated_Source\PSoC4/CyLib.c **** *
ARM GAS  C:\Users\Helon\AppData\Local\Temp\cchg8CAa.s 			page 66


1777:.\Generated_Source\PSoC4/CyLib.c **** * Side Effects:
1778:.\Generated_Source\PSoC4/CyLib.c **** *  The registered callback functions will be executed in the interrupt.
1779:.\Generated_Source\PSoC4/CyLib.c **** *
1780:.\Generated_Source\PSoC4/CyLib.c **** *******************************************************************************/
1781:.\Generated_Source\PSoC4/CyLib.c **** cySysTickCallback CySysTickSetCallback(uint32 number, cySysTickCallback function)
1782:.\Generated_Source\PSoC4/CyLib.c **** {
1783:.\Generated_Source\PSoC4/CyLib.c ****     cySysTickCallback retVal;
1784:.\Generated_Source\PSoC4/CyLib.c **** 
1785:.\Generated_Source\PSoC4/CyLib.c ****     retVal = CySysTickCallbacks[number];
1786:.\Generated_Source\PSoC4/CyLib.c ****     CySysTickCallbacks[number] = function;
1787:.\Generated_Source\PSoC4/CyLib.c ****     return (retVal);
1788:.\Generated_Source\PSoC4/CyLib.c **** }
1789:.\Generated_Source\PSoC4/CyLib.c **** 
1790:.\Generated_Source\PSoC4/CyLib.c **** 
1791:.\Generated_Source\PSoC4/CyLib.c **** /*******************************************************************************
1792:.\Generated_Source\PSoC4/CyLib.c **** * Function Name: CySysTickGetCallback
1793:.\Generated_Source\PSoC4/CyLib.c **** ********************************************************************************
1794:.\Generated_Source\PSoC4/CyLib.c **** *
1795:.\Generated_Source\PSoC4/CyLib.c **** * Summary:
1796:.\Generated_Source\PSoC4/CyLib.c **** *  The function get the specified callback pointer.
1797:.\Generated_Source\PSoC4/CyLib.c **** *
1798:.\Generated_Source\PSoC4/CyLib.c **** * Parameters:
1799:.\Generated_Source\PSoC4/CyLib.c **** *  number: The number of callback function address to get. The valid
1800:.\Generated_Source\PSoC4/CyLib.c **** *          range is from 0 to 4.
1801:.\Generated_Source\PSoC4/CyLib.c **** *
1802:.\Generated_Source\PSoC4/CyLib.c **** * Return:
1803:.\Generated_Source\PSoC4/CyLib.c **** *  Returns the address of the specified callback function.
1804:.\Generated_Source\PSoC4/CyLib.c **** *  The NULL is returned if the specified address in not initialized.
1805:.\Generated_Source\PSoC4/CyLib.c **** *
1806:.\Generated_Source\PSoC4/CyLib.c **** *******************************************************************************/
1807:.\Generated_Source\PSoC4/CyLib.c **** cySysTickCallback CySysTickGetCallback(uint32 number)
1808:.\Generated_Source\PSoC4/CyLib.c **** {
1809:.\Generated_Source\PSoC4/CyLib.c ****     return ((cySysTickCallback) CySysTickCallbacks[number]);
1810:.\Generated_Source\PSoC4/CyLib.c **** }
1811:.\Generated_Source\PSoC4/CyLib.c **** 
1812:.\Generated_Source\PSoC4/CyLib.c **** 
1813:.\Generated_Source\PSoC4/CyLib.c **** /*******************************************************************************
1814:.\Generated_Source\PSoC4/CyLib.c **** * Function Name: CySysTickServiceCallbacks
1815:.\Generated_Source\PSoC4/CyLib.c **** ********************************************************************************
1816:.\Generated_Source\PSoC4/CyLib.c **** *
1817:.\Generated_Source\PSoC4/CyLib.c **** * Summary:
1818:.\Generated_Source\PSoC4/CyLib.c **** *  System Tick timer interrupt routine
1819:.\Generated_Source\PSoC4/CyLib.c **** *
1820:.\Generated_Source\PSoC4/CyLib.c **** * Parameters:
1821:.\Generated_Source\PSoC4/CyLib.c **** *  None
1822:.\Generated_Source\PSoC4/CyLib.c **** *
1823:.\Generated_Source\PSoC4/CyLib.c **** * Return:
1824:.\Generated_Source\PSoC4/CyLib.c **** *  None
1825:.\Generated_Source\PSoC4/CyLib.c **** *
1826:.\Generated_Source\PSoC4/CyLib.c **** *******************************************************************************/
1827:.\Generated_Source\PSoC4/CyLib.c **** static void CySysTickServiceCallbacks(void)
1828:.\Generated_Source\PSoC4/CyLib.c **** {
 1771              		.loc 1 1828 0
 1772              		.cfi_startproc
 1773 0000 10B5     		push	{r4, lr}
 1774              		.cfi_def_cfa_offset 8
 1775              		.cfi_offset 4, -8
ARM GAS  C:\Users\Helon\AppData\Local\Temp\cchg8CAa.s 			page 67


 1776              		.cfi_offset 14, -4
1829:.\Generated_Source\PSoC4/CyLib.c ****     uint32 i;
1830:.\Generated_Source\PSoC4/CyLib.c **** 
1831:.\Generated_Source\PSoC4/CyLib.c ****     /* Verify that tick timer flag was set */
1832:.\Generated_Source\PSoC4/CyLib.c ****     if (1u == CySysTickGetCountFlag())
 1777              		.loc 1 1832 0
 1778 0002 FFF7FEFF 		bl	CySysTickGetCountFlag
 1779              	.LVL93:
 1780 0006 0128     		cmp	r0, #1
 1781 0008 08D1     		bne	.L142
 1782 000a 0024     		mov	r4, #0
 1783              	.L143:
 1784              	.LBB63:
1833:.\Generated_Source\PSoC4/CyLib.c ****     {
1834:.\Generated_Source\PSoC4/CyLib.c ****         for (i=0u; i < CY_SYS_SYST_NUM_OF_CALLBACKS; i++)
1835:.\Generated_Source\PSoC4/CyLib.c ****         {
1836:.\Generated_Source\PSoC4/CyLib.c ****             if (CySysTickCallbacks[i] != (void *) 0)
 1785              		.loc 1 1836 0
 1786 000c 044B     		ldr	r3, .L150
 1787 000e E358     		ldr	r3, [r4, r3]
 1788 0010 002B     		cmp	r3, #0
 1789 0012 00D0     		beq	.L144
1837:.\Generated_Source\PSoC4/CyLib.c ****             {
1838:.\Generated_Source\PSoC4/CyLib.c ****                 (void)(CySysTickCallbacks[i])();
 1790              		.loc 1 1838 0
 1791 0014 9847     		blx	r3
 1792              	.LVL94:
 1793              	.L144:
 1794 0016 0434     		add	r4, r4, #4
1834:.\Generated_Source\PSoC4/CyLib.c ****         {
 1795              		.loc 1 1834 0
 1796 0018 142C     		cmp	r4, #20
 1797 001a F7D1     		bne	.L143
 1798              	.L142:
 1799              	.LBE63:
1839:.\Generated_Source\PSoC4/CyLib.c ****             }
1840:.\Generated_Source\PSoC4/CyLib.c ****         }
1841:.\Generated_Source\PSoC4/CyLib.c ****     }
1842:.\Generated_Source\PSoC4/CyLib.c **** }
 1800              		.loc 1 1842 0
 1801              		@ sp needed
 1802 001c 10BD     		pop	{r4, pc}
 1803              	.L151:
 1804 001e C046     		.align	2
 1805              	.L150:
 1806 0020 00000000 		.word	.LANCHOR2
 1807              		.cfi_endproc
 1808              	.LFE48:
 1809              		.size	CySysTickServiceCallbacks, .-CySysTickServiceCallbacks
 1810              		.section	.text.CySysTickClear,"ax",%progbits
 1811              		.align	1
 1812              		.global	CySysTickClear
 1813              		.code	16
 1814              		.thumb_func
 1815              		.type	CySysTickClear, %function
 1816              	CySysTickClear:
 1817              	.LFB45:
ARM GAS  C:\Users\Helon\AppData\Local\Temp\cchg8CAa.s 			page 68


1745:.\Generated_Source\PSoC4/CyLib.c ****     CY_SYS_SYST_CVR_REG = 0u;
 1818              		.loc 1 1745 0
 1819              		.cfi_startproc
1746:.\Generated_Source\PSoC4/CyLib.c **** }
 1820              		.loc 1 1746 0
 1821 0000 0022     		mov	r2, #0
 1822 0002 014B     		ldr	r3, .L153
1747:.\Generated_Source\PSoC4/CyLib.c **** 
 1823              		.loc 1 1747 0
 1824              		@ sp needed
1746:.\Generated_Source\PSoC4/CyLib.c **** }
 1825              		.loc 1 1746 0
 1826 0004 1A60     		str	r2, [r3]
1747:.\Generated_Source\PSoC4/CyLib.c **** 
 1827              		.loc 1 1747 0
 1828 0006 7047     		bx	lr
 1829              	.L154:
 1830              		.align	2
 1831              	.L153:
 1832 0008 18E000E0 		.word	-536813544
 1833              		.cfi_endproc
 1834              	.LFE45:
 1835              		.size	CySysTickClear, .-CySysTickClear
 1836              		.section	.text.CySysTickSetCallback,"ax",%progbits
 1837              		.align	1
 1838              		.global	CySysTickSetCallback
 1839              		.code	16
 1840              		.thumb_func
 1841              		.type	CySysTickSetCallback, %function
 1842              	CySysTickSetCallback:
 1843              	.LFB46:
1782:.\Generated_Source\PSoC4/CyLib.c ****     cySysTickCallback retVal;
 1844              		.loc 1 1782 0
 1845              		.cfi_startproc
 1846              	.LVL95:
1785:.\Generated_Source\PSoC4/CyLib.c ****     CySysTickCallbacks[number] = function;
 1847              		.loc 1 1785 0
 1848 0000 024A     		ldr	r2, .L156
 1849 0002 8300     		lsl	r3, r0, #2
 1850 0004 9858     		ldr	r0, [r3, r2]
 1851              	.LVL96:
1788:.\Generated_Source\PSoC4/CyLib.c **** 
 1852              		.loc 1 1788 0
 1853              		@ sp needed
1786:.\Generated_Source\PSoC4/CyLib.c ****     return (retVal);
 1854              		.loc 1 1786 0
 1855 0006 9950     		str	r1, [r3, r2]
1788:.\Generated_Source\PSoC4/CyLib.c **** 
 1856              		.loc 1 1788 0
 1857 0008 7047     		bx	lr
 1858              	.L157:
 1859 000a C046     		.align	2
 1860              	.L156:
 1861 000c 00000000 		.word	.LANCHOR2
 1862              		.cfi_endproc
 1863              	.LFE46:
 1864              		.size	CySysTickSetCallback, .-CySysTickSetCallback
ARM GAS  C:\Users\Helon\AppData\Local\Temp\cchg8CAa.s 			page 69


 1865              		.section	.text.CySysTickGetCallback,"ax",%progbits
 1866              		.align	1
 1867              		.global	CySysTickGetCallback
 1868              		.code	16
 1869              		.thumb_func
 1870              		.type	CySysTickGetCallback, %function
 1871              	CySysTickGetCallback:
 1872              	.LFB47:
1808:.\Generated_Source\PSoC4/CyLib.c ****     return ((cySysTickCallback) CySysTickCallbacks[number]);
 1873              		.loc 1 1808 0
 1874              		.cfi_startproc
 1875              	.LVL97:
1809:.\Generated_Source\PSoC4/CyLib.c **** }
 1876              		.loc 1 1809 0
 1877 0000 014B     		ldr	r3, .L159
 1878 0002 8000     		lsl	r0, r0, #2
 1879              	.LVL98:
 1880 0004 C058     		ldr	r0, [r0, r3]
1810:.\Generated_Source\PSoC4/CyLib.c **** 
 1881              		.loc 1 1810 0
 1882              		@ sp needed
 1883 0006 7047     		bx	lr
 1884              	.L160:
 1885              		.align	2
 1886              	.L159:
 1887 0008 00000000 		.word	.LANCHOR2
 1888              		.cfi_endproc
 1889              	.LFE47:
 1890              		.size	CySysTickGetCallback, .-CySysTickGetCallback
 1891              		.section	.text.CyGetUniqueId,"ax",%progbits
 1892              		.align	1
 1893              		.global	CyGetUniqueId
 1894              		.code	16
 1895              		.thumb_func
 1896              		.type	CyGetUniqueId, %function
 1897              	CyGetUniqueId:
 1898              	.LFB49:
1843:.\Generated_Source\PSoC4/CyLib.c **** 
1844:.\Generated_Source\PSoC4/CyLib.c **** 
1845:.\Generated_Source\PSoC4/CyLib.c **** /*******************************************************************************
1846:.\Generated_Source\PSoC4/CyLib.c **** * Function Name: CyGetUniqueId
1847:.\Generated_Source\PSoC4/CyLib.c **** ********************************************************************************
1848:.\Generated_Source\PSoC4/CyLib.c **** *
1849:.\Generated_Source\PSoC4/CyLib.c **** * Summary:
1850:.\Generated_Source\PSoC4/CyLib.c **** *  Returns the 64-bit unique ID of the device. The uniqueness of the number is
1851:.\Generated_Source\PSoC4/CyLib.c **** *  guaranteed for 10 years due to the die lot number having a cycle life of 10
1852:.\Generated_Source\PSoC4/CyLib.c **** *  years and even after 10 years, the probability of getting two identical
1853:.\Generated_Source\PSoC4/CyLib.c **** *  numbers is very small.
1854:.\Generated_Source\PSoC4/CyLib.c **** *
1855:.\Generated_Source\PSoC4/CyLib.c **** * Parameters:
1856:.\Generated_Source\PSoC4/CyLib.c **** *  uniqueId: The pointer to a two element 32-bit unsigned integer array. Returns
1857:.\Generated_Source\PSoC4/CyLib.c **** *  the 64-bit unique ID of the device by loading them into the integer array
1858:.\Generated_Source\PSoC4/CyLib.c **** *  pointed to by uniqueId.
1859:.\Generated_Source\PSoC4/CyLib.c **** *
1860:.\Generated_Source\PSoC4/CyLib.c **** * Return:
1861:.\Generated_Source\PSoC4/CyLib.c **** *  None
1862:.\Generated_Source\PSoC4/CyLib.c **** *
ARM GAS  C:\Users\Helon\AppData\Local\Temp\cchg8CAa.s 			page 70


1863:.\Generated_Source\PSoC4/CyLib.c **** *******************************************************************************/
1864:.\Generated_Source\PSoC4/CyLib.c **** void CyGetUniqueId(uint32* uniqueId)
1865:.\Generated_Source\PSoC4/CyLib.c **** {
 1899              		.loc 1 1865 0
 1900              		.cfi_startproc
 1901              	.LVL99:
1866:.\Generated_Source\PSoC4/CyLib.c **** #if(CY_PSOC4)
1867:.\Generated_Source\PSoC4/CyLib.c ****     uniqueId[0u]  =  (uint32)(* (reg8 *) CYREG_SFLASH_DIE_LOT0  );
 1902              		.loc 1 1867 0
 1903 0000 134B     		ldr	r3, .L162
1868:.\Generated_Source\PSoC4/CyLib.c ****     uniqueId[0u] |= ((uint32)(* (reg8 *) CYREG_SFLASH_DIE_LOT1  ) <<  8u);
1869:.\Generated_Source\PSoC4/CyLib.c ****     uniqueId[0u] |= ((uint32)(* (reg8 *) CYREG_SFLASH_DIE_LOT2  ) << 16u);
1870:.\Generated_Source\PSoC4/CyLib.c ****     uniqueId[0u] |= ((uint32)(* (reg8 *) CYREG_SFLASH_DIE_WAFER ) << 24u);
1871:.\Generated_Source\PSoC4/CyLib.c **** 
1872:.\Generated_Source\PSoC4/CyLib.c ****     uniqueId[1u]  =  (uint32)(* (reg8 *) CYREG_SFLASH_DIE_X     );
1873:.\Generated_Source\PSoC4/CyLib.c ****     uniqueId[1u] |= ((uint32)(* (reg8 *) CYREG_SFLASH_DIE_Y     ) <<  8u);
1874:.\Generated_Source\PSoC4/CyLib.c ****     uniqueId[1u] |= ((uint32)(* (reg8 *) CYREG_SFLASH_DIE_SORT  ) << 16u);
1875:.\Generated_Source\PSoC4/CyLib.c ****     uniqueId[1u] |= ((uint32)(* (reg8 *) CYREG_SFLASH_DIE_MINOR ) << 24u);
1876:.\Generated_Source\PSoC4/CyLib.c **** #else
1877:.\Generated_Source\PSoC4/CyLib.c ****     uniqueId[0u]  =  (uint32) CY_GET_XTND_REG8((void CYFAR *) (CYREG_FLSHID_CUST_TABLES_LOT_LSB   )
1878:.\Generated_Source\PSoC4/CyLib.c ****     uniqueId[0u] |= ((uint32) CY_GET_XTND_REG8((void CYFAR *) (CYREG_FLSHID_CUST_TABLES_LOT_MSB   )
1879:.\Generated_Source\PSoC4/CyLib.c ****     uniqueId[0u] |= ((uint32) CY_GET_XTND_REG8((void CYFAR *) (CYREG_MLOGIC_REV_ID                )
1880:.\Generated_Source\PSoC4/CyLib.c ****     uniqueId[0u] |= ((uint32) CY_GET_XTND_REG8((void CYFAR *) (CYREG_FLSHID_CUST_TABLES_WAFER_NUM )
1881:.\Generated_Source\PSoC4/CyLib.c **** 
1882:.\Generated_Source\PSoC4/CyLib.c ****     uniqueId[1u]  =  (uint32) CY_GET_XTND_REG8((void CYFAR *) (CYREG_FLSHID_CUST_TABLES_X_LOC     )
1883:.\Generated_Source\PSoC4/CyLib.c ****     uniqueId[1u] |= ((uint32) CY_GET_XTND_REG8((void CYFAR *) (CYREG_FLSHID_CUST_TABLES_Y_LOC     )
1884:.\Generated_Source\PSoC4/CyLib.c ****     uniqueId[1u] |= ((uint32) CY_GET_XTND_REG8((void CYFAR *) (CYREG_FLSHID_CUST_TABLES_WRK_WK    )
1885:.\Generated_Source\PSoC4/CyLib.c ****     uniqueId[1u] |= ((uint32) CY_GET_XTND_REG8((void CYFAR *) (CYREG_FLSHID_CUST_TABLES_FAB_YR    )
1886:.\Generated_Source\PSoC4/CyLib.c **** #endif  /* (CY_PSOC4) */
1887:.\Generated_Source\PSoC4/CyLib.c **** }
 1904              		.loc 1 1887 0
 1905              		@ sp needed
1867:.\Generated_Source\PSoC4/CyLib.c ****     uniqueId[0u] |= ((uint32)(* (reg8 *) CYREG_SFLASH_DIE_LOT1  ) <<  8u);
 1906              		.loc 1 1867 0
 1907 0002 1B78     		ldrb	r3, [r3]
 1908 0004 DAB2     		uxtb	r2, r3
1868:.\Generated_Source\PSoC4/CyLib.c ****     uniqueId[0u] |= ((uint32)(* (reg8 *) CYREG_SFLASH_DIE_LOT1  ) <<  8u);
 1909              		.loc 1 1868 0
 1910 0006 134B     		ldr	r3, .L162+4
1867:.\Generated_Source\PSoC4/CyLib.c ****     uniqueId[0u] |= ((uint32)(* (reg8 *) CYREG_SFLASH_DIE_LOT1  ) <<  8u);
 1911              		.loc 1 1867 0
 1912 0008 0260     		str	r2, [r0]
1868:.\Generated_Source\PSoC4/CyLib.c ****     uniqueId[0u] |= ((uint32)(* (reg8 *) CYREG_SFLASH_DIE_LOT1  ) <<  8u);
 1913              		.loc 1 1868 0
 1914 000a 1B78     		ldrb	r3, [r3]
 1915 000c 1B02     		lsl	r3, r3, #8
 1916 000e 1343     		orr	r3, r2
1869:.\Generated_Source\PSoC4/CyLib.c ****     uniqueId[0u] |= ((uint32)(* (reg8 *) CYREG_SFLASH_DIE_WAFER ) << 24u);
 1917              		.loc 1 1869 0
 1918 0010 114A     		ldr	r2, .L162+8
1868:.\Generated_Source\PSoC4/CyLib.c ****     uniqueId[0u] |= ((uint32)(* (reg8 *) CYREG_SFLASH_DIE_LOT1  ) <<  8u);
 1919              		.loc 1 1868 0
 1920 0012 0360     		str	r3, [r0]
1869:.\Generated_Source\PSoC4/CyLib.c ****     uniqueId[0u] |= ((uint32)(* (reg8 *) CYREG_SFLASH_DIE_WAFER ) << 24u);
 1921              		.loc 1 1869 0
 1922 0014 1278     		ldrb	r2, [r2]
 1923 0016 1204     		lsl	r2, r2, #16
ARM GAS  C:\Users\Helon\AppData\Local\Temp\cchg8CAa.s 			page 71


 1924 0018 1343     		orr	r3, r2
1870:.\Generated_Source\PSoC4/CyLib.c **** 
 1925              		.loc 1 1870 0
 1926 001a 104A     		ldr	r2, .L162+12
1869:.\Generated_Source\PSoC4/CyLib.c ****     uniqueId[0u] |= ((uint32)(* (reg8 *) CYREG_SFLASH_DIE_WAFER ) << 24u);
 1927              		.loc 1 1869 0
 1928 001c 0360     		str	r3, [r0]
1870:.\Generated_Source\PSoC4/CyLib.c **** 
 1929              		.loc 1 1870 0
 1930 001e 1278     		ldrb	r2, [r2]
 1931 0020 1206     		lsl	r2, r2, #24
 1932 0022 1343     		orr	r3, r2
 1933 0024 0360     		str	r3, [r0]
1872:.\Generated_Source\PSoC4/CyLib.c ****     uniqueId[1u] |= ((uint32)(* (reg8 *) CYREG_SFLASH_DIE_Y     ) <<  8u);
 1934              		.loc 1 1872 0
 1935 0026 0E4B     		ldr	r3, .L162+16
 1936 0028 1B78     		ldrb	r3, [r3]
 1937 002a DAB2     		uxtb	r2, r3
1873:.\Generated_Source\PSoC4/CyLib.c ****     uniqueId[1u] |= ((uint32)(* (reg8 *) CYREG_SFLASH_DIE_SORT  ) << 16u);
 1938              		.loc 1 1873 0
 1939 002c 0D4B     		ldr	r3, .L162+20
1872:.\Generated_Source\PSoC4/CyLib.c ****     uniqueId[1u] |= ((uint32)(* (reg8 *) CYREG_SFLASH_DIE_Y     ) <<  8u);
 1940              		.loc 1 1872 0
 1941 002e 4260     		str	r2, [r0, #4]
1873:.\Generated_Source\PSoC4/CyLib.c ****     uniqueId[1u] |= ((uint32)(* (reg8 *) CYREG_SFLASH_DIE_SORT  ) << 16u);
 1942              		.loc 1 1873 0
 1943 0030 1B78     		ldrb	r3, [r3]
 1944 0032 1B02     		lsl	r3, r3, #8
 1945 0034 1343     		orr	r3, r2
1874:.\Generated_Source\PSoC4/CyLib.c ****     uniqueId[1u] |= ((uint32)(* (reg8 *) CYREG_SFLASH_DIE_MINOR ) << 24u);
 1946              		.loc 1 1874 0
 1947 0036 0C4A     		ldr	r2, .L162+24
1873:.\Generated_Source\PSoC4/CyLib.c ****     uniqueId[1u] |= ((uint32)(* (reg8 *) CYREG_SFLASH_DIE_SORT  ) << 16u);
 1948              		.loc 1 1873 0
 1949 0038 4360     		str	r3, [r0, #4]
1874:.\Generated_Source\PSoC4/CyLib.c ****     uniqueId[1u] |= ((uint32)(* (reg8 *) CYREG_SFLASH_DIE_MINOR ) << 24u);
 1950              		.loc 1 1874 0
 1951 003a 1278     		ldrb	r2, [r2]
 1952 003c 1204     		lsl	r2, r2, #16
 1953 003e 1343     		orr	r3, r2
1875:.\Generated_Source\PSoC4/CyLib.c **** #else
 1954              		.loc 1 1875 0
 1955 0040 0A4A     		ldr	r2, .L162+28
1874:.\Generated_Source\PSoC4/CyLib.c ****     uniqueId[1u] |= ((uint32)(* (reg8 *) CYREG_SFLASH_DIE_MINOR ) << 24u);
 1956              		.loc 1 1874 0
 1957 0042 4360     		str	r3, [r0, #4]
1875:.\Generated_Source\PSoC4/CyLib.c **** #else
 1958              		.loc 1 1875 0
 1959 0044 1278     		ldrb	r2, [r2]
 1960 0046 1206     		lsl	r2, r2, #24
 1961 0048 1343     		orr	r3, r2
 1962 004a 4360     		str	r3, [r0, #4]
 1963              		.loc 1 1887 0
 1964 004c 7047     		bx	lr
 1965              	.L163:
 1966 004e C046     		.align	2
 1967              	.L162:
ARM GAS  C:\Users\Helon\AppData\Local\Temp\cchg8CAa.s 			page 72


 1968 0050 78F1FF0F 		.word	268431736
 1969 0054 79F1FF0F 		.word	268431737
 1970 0058 7AF1FF0F 		.word	268431738
 1971 005c 7BF1FF0F 		.word	268431739
 1972 0060 7CF1FF0F 		.word	268431740
 1973 0064 7DF1FF0F 		.word	268431741
 1974 0068 7EF1FF0F 		.word	268431742
 1975 006c 7FF1FF0F 		.word	268431743
 1976              		.cfi_endproc
 1977              	.LFE49:
 1978              		.size	CyGetUniqueId, .-CyGetUniqueId
 1979              		.global	cyImoFreqMhz2Reg
 1980              		.global	CySysTickInitVar
 1981              		.global	cydelay32kMs
 1982              		.global	cydelayFreqMhz
 1983              		.global	cydelayFreqKhz
 1984              		.global	cydelayFreqHz
 1985              		.section	.rodata
 1986              		.set	.LANCHOR0,. + 0
 1987              		.type	cyImoFreqMhz2Reg, %object
 1988              		.size	cyImoFreqMhz2Reg, 46
 1989              	cyImoFreqMhz2Reg:
 1990 0000 03       		.byte	3
 1991 0001 04       		.byte	4
 1992 0002 05       		.byte	5
 1993 0003 06       		.byte	6
 1994 0004 07       		.byte	7
 1995 0005 08       		.byte	8
 1996 0006 09       		.byte	9
 1997 0007 0A       		.byte	10
 1998 0008 0B       		.byte	11
 1999 0009 0C       		.byte	12
 2000 000a 0E       		.byte	14
 2001 000b 0F       		.byte	15
 2002 000c 10       		.byte	16
 2003 000d 11       		.byte	17
 2004 000e 12       		.byte	18
 2005 000f 13       		.byte	19
 2006 0010 14       		.byte	20
 2007 0011 15       		.byte	21
 2008 0012 16       		.byte	22
 2009 0013 17       		.byte	23
 2010 0014 18       		.byte	24
 2011 0015 19       		.byte	25
 2012 0016 1B       		.byte	27
 2013 0017 1C       		.byte	28
 2014 0018 1D       		.byte	29
 2015 0019 1E       		.byte	30
 2016 001a 1F       		.byte	31
 2017 001b 20       		.byte	32
 2018 001c 21       		.byte	33
 2019 001d 22       		.byte	34
 2020 001e 23       		.byte	35
 2021 001f 25       		.byte	37
 2022 0020 26       		.byte	38
 2023 0021 27       		.byte	39
 2024 0022 28       		.byte	40
ARM GAS  C:\Users\Helon\AppData\Local\Temp\cchg8CAa.s 			page 73


 2025 0023 29       		.byte	41
 2026 0024 2A       		.byte	42
 2027 0025 2B       		.byte	43
 2028 0026 2E       		.byte	46
 2029 0027 2F       		.byte	47
 2030 0028 30       		.byte	48
 2031 0029 31       		.byte	49
 2032 002a 32       		.byte	50
 2033 002b 33       		.byte	51
 2034 002c 34       		.byte	52
 2035 002d 35       		.byte	53
 2036              		.data
 2037              		.align	2
 2038              		.set	.LANCHOR1,. + 0
 2039              		.type	cydelay32kMs, %object
 2040              		.size	cydelay32kMs, 4
 2041              	cydelay32kMs:
 2042 0000 0000C05D 		.word	1572864000
 2043              		.type	cydelayFreqKhz, %object
 2044              		.size	cydelayFreqKhz, 4
 2045              	cydelayFreqKhz:
 2046 0004 80BB0000 		.word	48000
 2047              		.type	cydelayFreqMhz, %object
 2048              		.size	cydelayFreqMhz, 1
 2049              	cydelayFreqMhz:
 2050 0008 30       		.byte	48
 2051 0009 000000   		.space	3
 2052              		.type	cydelayFreqHz, %object
 2053              		.size	cydelayFreqHz, 4
 2054              	cydelayFreqHz:
 2055 000c 006CDC02 		.word	48000000
 2056              		.bss
 2057              		.align	2
 2058              		.set	.LANCHOR2,. + 0
 2059              		.type	CySysTickCallbacks, %object
 2060              		.size	CySysTickCallbacks, 20
 2061              	CySysTickCallbacks:
 2062 0000 00000000 		.space	20
 2062      00000000 
 2062      00000000 
 2062      00000000 
 2062      00000000 
 2063              		.type	CySysTickInitVar, %object
 2064              		.size	CySysTickInitVar, 4
 2065              	CySysTickInitVar:
 2066 0014 00000000 		.space	4
 2067              		.text
 2068              	.Letext0:
 2069              		.file 2 ".\\Generated_Source\\PSoC4\\cytypes.h"
 2070              		.file 3 ".\\Generated_Source\\PSoC4\\CyLib.h"