ARM GAS  C:\Users\Helon\AppData\Local\Temp\cc82k9sr.s 			page 1


   1              		.cpu cortex-m0
   2              		.fpu softvfp
   3              		.eabi_attribute 20, 1
   4              		.eabi_attribute 21, 1
   5              		.eabi_attribute 23, 3
   6              		.eabi_attribute 24, 1
   7              		.eabi_attribute 25, 1
   8              		.eabi_attribute 26, 1
   9              		.eabi_attribute 30, 4
  10              		.eabi_attribute 34, 0
  11              		.eabi_attribute 18, 4
  12              		.code	16
  13              		.file	"cyPm.c"
  14              		.text
  15              	.Ltext0:
  16              		.cfi_sections	.debug_frame
  17              		.section	.text.CySysPmSleep,"ax",%progbits
  18              		.align	1
  19              		.global	CySysPmSleep
  20              		.code	16
  21              		.thumb_func
  22              		.type	CySysPmSleep, %function
  23              	CySysPmSleep:
  24              	.LFB2:
  25              		.file 1 ".\\Generated_Source\\PSoC4\\cyPm.c"
   1:.\Generated_Source\PSoC4/cyPm.c **** /*******************************************************************************
   2:.\Generated_Source\PSoC4/cyPm.c **** * File Name: cyPm.c
   3:.\Generated_Source\PSoC4/cyPm.c **** * Version 5.20
   4:.\Generated_Source\PSoC4/cyPm.c **** *
   5:.\Generated_Source\PSoC4/cyPm.c **** *  Description:
   6:.\Generated_Source\PSoC4/cyPm.c **** *   Provides an API for the power management.
   7:.\Generated_Source\PSoC4/cyPm.c **** *
   8:.\Generated_Source\PSoC4/cyPm.c **** *  Note:
   9:.\Generated_Source\PSoC4/cyPm.c **** *   Documentation of the API's in this file is located in the
  10:.\Generated_Source\PSoC4/cyPm.c **** *   System Reference Guide provided with PSoC Creator.
  11:.\Generated_Source\PSoC4/cyPm.c **** *
  12:.\Generated_Source\PSoC4/cyPm.c **** ********************************************************************************
  13:.\Generated_Source\PSoC4/cyPm.c **** * Copyright 2011-2015, Cypress Semiconductor Corporation.  All rights reserved.
  14:.\Generated_Source\PSoC4/cyPm.c **** * You may use this file only in accordance with the license, terms, conditions,
  15:.\Generated_Source\PSoC4/cyPm.c **** * disclaimers, and limitations in the end user license agreement accompanying
  16:.\Generated_Source\PSoC4/cyPm.c **** * the software package with which this file was provided.
  17:.\Generated_Source\PSoC4/cyPm.c **** *******************************************************************************/
  18:.\Generated_Source\PSoC4/cyPm.c **** 
  19:.\Generated_Source\PSoC4/cyPm.c **** #include "cyPm.h"
  20:.\Generated_Source\PSoC4/cyPm.c **** #include "CyLib.h"
  21:.\Generated_Source\PSoC4/cyPm.c **** 
  22:.\Generated_Source\PSoC4/cyPm.c **** 
  23:.\Generated_Source\PSoC4/cyPm.c **** /*******************************************************************************
  24:.\Generated_Source\PSoC4/cyPm.c **** * Function Name: CySysPmSleep
  25:.\Generated_Source\PSoC4/cyPm.c **** ********************************************************************************
  26:.\Generated_Source\PSoC4/cyPm.c **** *
  27:.\Generated_Source\PSoC4/cyPm.c **** * Summary:
  28:.\Generated_Source\PSoC4/cyPm.c **** *  Puts the part into the Sleep state. This is a CPU-centric power mode.
  29:.\Generated_Source\PSoC4/cyPm.c **** *  It means that the CPU has indicated that it is in the sleep mode and
  30:.\Generated_Source\PSoC4/cyPm.c **** *  its main clock can be removed. It is identical to Active from a peripheral
  31:.\Generated_Source\PSoC4/cyPm.c **** *  point of view. Any enabled interrupts can cause wakeup from the  Sleep mode.
  32:.\Generated_Source\PSoC4/cyPm.c **** *
ARM GAS  C:\Users\Helon\AppData\Local\Temp\cc82k9sr.s 			page 2


  33:.\Generated_Source\PSoC4/cyPm.c **** * Parameters:
  34:.\Generated_Source\PSoC4/cyPm.c **** *  None
  35:.\Generated_Source\PSoC4/cyPm.c **** *
  36:.\Generated_Source\PSoC4/cyPm.c **** * Return:
  37:.\Generated_Source\PSoC4/cyPm.c **** *  None
  38:.\Generated_Source\PSoC4/cyPm.c **** *
  39:.\Generated_Source\PSoC4/cyPm.c **** *******************************************************************************/
  40:.\Generated_Source\PSoC4/cyPm.c **** void CySysPmSleep(void)
  41:.\Generated_Source\PSoC4/cyPm.c **** {
  26              		.loc 1 41 0
  27              		.cfi_startproc
  28 0000 08B5     		push	{r3, lr}
  29              		.cfi_def_cfa_offset 8
  30              		.cfi_offset 3, -8
  31              		.cfi_offset 14, -4
  42:.\Generated_Source\PSoC4/cyPm.c ****     uint8 interruptState;
  43:.\Generated_Source\PSoC4/cyPm.c **** 
  44:.\Generated_Source\PSoC4/cyPm.c ****     interruptState = CyEnterCriticalSection();
  32              		.loc 1 44 0
  33 0002 FFF7FEFF 		bl	CyEnterCriticalSection
  34              	.LVL0:
  45:.\Generated_Source\PSoC4/cyPm.c **** 
  46:.\Generated_Source\PSoC4/cyPm.c ****     /* CM0 enters Sleep mode upon execution of WFI */
  47:.\Generated_Source\PSoC4/cyPm.c ****     CY_PM_CM0_SCR_REG &= (uint32) (~CY_PM_CM0_SCR_SLEEPDEEP);
  35              		.loc 1 47 0
  36 0006 0421     		mov	r1, #4
  37 0008 034A     		ldr	r2, .L2
  38 000a 1368     		ldr	r3, [r2]
  39 000c 8B43     		bic	r3, r1
  40 000e 1360     		str	r3, [r2]
  48:.\Generated_Source\PSoC4/cyPm.c **** 
  49:.\Generated_Source\PSoC4/cyPm.c ****     /* Sleep and wait for interrupt */
  50:.\Generated_Source\PSoC4/cyPm.c ****     CY_PM_WFI;
  41              		.loc 1 50 0
  42              	@ 50 ".\Generated_Source\PSoC4\cyPm.c" 1
  43 0010 30BF     		WFI 
  44              	
  45              	@ 0 "" 2
  51:.\Generated_Source\PSoC4/cyPm.c **** 
  52:.\Generated_Source\PSoC4/cyPm.c ****     CyExitCriticalSection(interruptState);
  46              		.loc 1 52 0
  47              		.code	16
  48 0012 FFF7FEFF 		bl	CyExitCriticalSection
  49              	.LVL1:
  53:.\Generated_Source\PSoC4/cyPm.c **** }
  50              		.loc 1 53 0
  51              		@ sp needed
  52 0016 08BD     		pop	{r3, pc}
  53              	.L3:
  54              		.align	2
  55              	.L2:
  56 0018 10ED00E0 		.word	-536810224
  57              		.cfi_endproc
  58              	.LFE2:
  59              		.size	CySysPmSleep, .-CySysPmSleep
  60              		.section	.text.CySysPmDeepSleep,"ax",%progbits
  61              		.align	1
ARM GAS  C:\Users\Helon\AppData\Local\Temp\cc82k9sr.s 			page 3


  62              		.global	CySysPmDeepSleep
  63              		.code	16
  64              		.thumb_func
  65              		.type	CySysPmDeepSleep, %function
  66              	CySysPmDeepSleep:
  67              	.LFB3:
  54:.\Generated_Source\PSoC4/cyPm.c **** 
  55:.\Generated_Source\PSoC4/cyPm.c **** 
  56:.\Generated_Source\PSoC4/cyPm.c **** /*******************************************************************************
  57:.\Generated_Source\PSoC4/cyPm.c **** * Function Name: CySysPmDeepSleep
  58:.\Generated_Source\PSoC4/cyPm.c **** ********************************************************************************
  59:.\Generated_Source\PSoC4/cyPm.c **** *
  60:.\Generated_Source\PSoC4/cyPm.c **** * Summary:
  61:.\Generated_Source\PSoC4/cyPm.c **** *  Puts the part into the Deep Sleep state. If the firmware attempts to enter
  62:.\Generated_Source\PSoC4/cyPm.c **** *  this mode before the system is ready (that is, when
  63:.\Generated_Source\PSoC4/cyPm.c **** *  PWR_CONTROL.LPM_READY = 0), then the device will go into the Sleep mode
  64:.\Generated_Source\PSoC4/cyPm.c **** *  instead and automatically enter the originally intended mode when the
  65:.\Generated_Source\PSoC4/cyPm.c **** *  holdoff expires.
  66:.\Generated_Source\PSoC4/cyPm.c **** *
  67:.\Generated_Source\PSoC4/cyPm.c **** *  The wakeup occurs when an interrupt is received from a DeepSleep or
  68:.\Generated_Source\PSoC4/cyPm.c **** *  Hibernate peripheral. For more details, see a corresponding
  69:.\Generated_Source\PSoC4/cyPm.c **** *  peripheral's datasheet.
  70:.\Generated_Source\PSoC4/cyPm.c **** *
  71:.\Generated_Source\PSoC4/cyPm.c **** * Parameters:
  72:.\Generated_Source\PSoC4/cyPm.c **** *  None
  73:.\Generated_Source\PSoC4/cyPm.c **** *
  74:.\Generated_Source\PSoC4/cyPm.c **** * Return:
  75:.\Generated_Source\PSoC4/cyPm.c **** *  None
  76:.\Generated_Source\PSoC4/cyPm.c **** *
  77:.\Generated_Source\PSoC4/cyPm.c **** *******************************************************************************/
  78:.\Generated_Source\PSoC4/cyPm.c **** void CySysPmDeepSleep(void)
  79:.\Generated_Source\PSoC4/cyPm.c **** {
  68              		.loc 1 79 0
  69              		.cfi_startproc
  70 0000 37B5     		push	{r0, r1, r2, r4, r5, lr}
  71              		.cfi_def_cfa_offset 24
  72              		.cfi_offset 0, -24
  73              		.cfi_offset 1, -20
  74              		.cfi_offset 2, -16
  75              		.cfi_offset 4, -12
  76              		.cfi_offset 5, -8
  77              		.cfi_offset 14, -4
  80:.\Generated_Source\PSoC4/cyPm.c ****     uint8 interruptState;
  81:.\Generated_Source\PSoC4/cyPm.c ****     #if(CY_IP_SRSSV2)
  82:.\Generated_Source\PSoC4/cyPm.c ****         volatile uint32 clkSelectReg;
  83:.\Generated_Source\PSoC4/cyPm.c ****     #endif /* (CY_IP_SRSSV2) */
  84:.\Generated_Source\PSoC4/cyPm.c **** 
  85:.\Generated_Source\PSoC4/cyPm.c ****     interruptState = CyEnterCriticalSection();
  78              		.loc 1 85 0
  79 0002 FFF7FEFF 		bl	CyEnterCriticalSection
  80              	.LVL2:
  86:.\Generated_Source\PSoC4/cyPm.c **** 
  87:.\Generated_Source\PSoC4/cyPm.c ****     #if(CY_IP_SRSSV2)
  88:.\Generated_Source\PSoC4/cyPm.c ****         /* Device enters DeepSleep mode when CPU asserts SLEEPDEEP signal */
  89:.\Generated_Source\PSoC4/cyPm.c ****         CY_PM_PWR_CONTROL_REG &= (uint32) (~CY_PM_PWR_CONTROL_HIBERNATE);
  90:.\Generated_Source\PSoC4/cyPm.c ****     #endif /* (CY_IP_SRSSV2) */
  91:.\Generated_Source\PSoC4/cyPm.c **** 
ARM GAS  C:\Users\Helon\AppData\Local\Temp\cc82k9sr.s 			page 4


  92:.\Generated_Source\PSoC4/cyPm.c ****     #if (CY_PSOC4_4100 || CY_PSOC4_4200)
  93:.\Generated_Source\PSoC4/cyPm.c ****         CY_PM_CPUSS_CONFIG_REG |= CY_PM_CPUSS_CONFIG_FLSH_ACC_BYPASS;
  94:.\Generated_Source\PSoC4/cyPm.c ****     #endif /* (CY_PSOC4_4100 || CY_PSOC4_4200) */
  95:.\Generated_Source\PSoC4/cyPm.c **** 
  96:.\Generated_Source\PSoC4/cyPm.c ****     /* Adjust delay to wait for references to settle on wakeup from Deep Sleep */
  97:.\Generated_Source\PSoC4/cyPm.c ****     CY_PM_PWR_KEY_DELAY_REG = CY_SFLASH_DPSLP_KEY_DELAY_REG;
  98:.\Generated_Source\PSoC4/cyPm.c **** 
  99:.\Generated_Source\PSoC4/cyPm.c ****     /* CM0 enters DeepSleep/Hibernate mode upon execution of WFI */
 100:.\Generated_Source\PSoC4/cyPm.c ****     CY_PM_CM0_SCR_REG |= CY_PM_CM0_SCR_SLEEPDEEP;
  81              		.loc 1 100 0
  82 0006 0421     		mov	r1, #4
  89:.\Generated_Source\PSoC4/cyPm.c ****     #endif /* (CY_IP_SRSSV2) */
  83              		.loc 1 89 0
  84 0008 0D4A     		ldr	r2, .L5
 101:.\Generated_Source\PSoC4/cyPm.c **** 
 102:.\Generated_Source\PSoC4/cyPm.c ****     #if(CY_IP_SRSSV2)
 103:.\Generated_Source\PSoC4/cyPm.c ****         /* Preserve system clock configuration and
 104:.\Generated_Source\PSoC4/cyPm.c ****         * reduce sysclk to <=12 MHz (Cypress ID #158710, #179888).
 105:.\Generated_Source\PSoC4/cyPm.c ****         */
 106:.\Generated_Source\PSoC4/cyPm.c ****         clkSelectReg = CY_SYS_CLK_SELECT_REG;
  85              		.loc 1 106 0
  86 000a 0E4D     		ldr	r5, .L5+4
  89:.\Generated_Source\PSoC4/cyPm.c ****     #endif /* (CY_IP_SRSSV2) */
  87              		.loc 1 89 0
  88 000c 1368     		ldr	r3, [r2]
  85:.\Generated_Source\PSoC4/cyPm.c **** 
  89              		.loc 1 85 0
  90 000e 041C     		mov	r4, r0
  91              	.LVL3:
  89:.\Generated_Source\PSoC4/cyPm.c ****     #endif /* (CY_IP_SRSSV2) */
  92              		.loc 1 89 0
  93 0010 5B00     		lsl	r3, r3, #1
  94 0012 5B08     		lsr	r3, r3, #1
  95 0014 1360     		str	r3, [r2]
  97:.\Generated_Source\PSoC4/cyPm.c **** 
  96              		.loc 1 97 0
  97 0016 0C4B     		ldr	r3, .L5+8
  98 0018 0C4A     		ldr	r2, .L5+12
  99 001a 1B88     		ldrh	r3, [r3]
 107:.\Generated_Source\PSoC4/cyPm.c ****         CySysClkWriteSysclkDiv(CY_SYS_CLK_SYSCLK_DIV4);
 100              		.loc 1 107 0
 101 001c 0220     		mov	r0, #2
  97:.\Generated_Source\PSoC4/cyPm.c **** 
 102              		.loc 1 97 0
 103 001e 9BB2     		uxth	r3, r3
 104 0020 1360     		str	r3, [r2]
 100:.\Generated_Source\PSoC4/cyPm.c **** 
 105              		.loc 1 100 0
 106 0022 0B4A     		ldr	r2, .L5+16
 107 0024 1368     		ldr	r3, [r2]
 108 0026 0B43     		orr	r3, r1
 109 0028 1360     		str	r3, [r2]
 106:.\Generated_Source\PSoC4/cyPm.c ****         CySysClkWriteSysclkDiv(CY_SYS_CLK_SYSCLK_DIV4);
 110              		.loc 1 106 0
 111 002a 2B68     		ldr	r3, [r5]
 112 002c 0193     		str	r3, [sp, #4]
 113              		.loc 1 107 0
ARM GAS  C:\Users\Helon\AppData\Local\Temp\cc82k9sr.s 			page 5


 114 002e FFF7FEFF 		bl	CySysClkWriteSysclkDiv
 115              	.LVL4:
 108:.\Generated_Source\PSoC4/cyPm.c ****     #endif /* (CY_IP_SRSSV2) */
 109:.\Generated_Source\PSoC4/cyPm.c **** 
 110:.\Generated_Source\PSoC4/cyPm.c ****     /* Sleep and wait for interrupt */
 111:.\Generated_Source\PSoC4/cyPm.c ****     CY_PM_WFI;
 116              		.loc 1 111 0
 117              	@ 111 ".\Generated_Source\PSoC4\cyPm.c" 1
 118 0032 30BF     		WFI 
 119              	
 120              	@ 0 "" 2
 112:.\Generated_Source\PSoC4/cyPm.c **** 
 113:.\Generated_Source\PSoC4/cyPm.c ****     #if(CY_IP_SRSSV2)
 114:.\Generated_Source\PSoC4/cyPm.c ****         /* Restore system clock configuration */
 115:.\Generated_Source\PSoC4/cyPm.c ****         CY_SYS_CLK_SELECT_REG = clkSelectReg;
 121              		.loc 1 115 0
 122              		.code	16
 123 0034 019B     		ldr	r3, [sp, #4]
 116:.\Generated_Source\PSoC4/cyPm.c ****     #endif /* (CY_IP_SRSSV2) */
 117:.\Generated_Source\PSoC4/cyPm.c **** 
 118:.\Generated_Source\PSoC4/cyPm.c ****     #if (CY_PSOC4_4100 || CY_PSOC4_4200)
 119:.\Generated_Source\PSoC4/cyPm.c ****         CY_PM_CPUSS_CONFIG_REG &= (uint32) (~CY_PM_CPUSS_CONFIG_FLSH_ACC_BYPASS);
 120:.\Generated_Source\PSoC4/cyPm.c ****     #endif /* (CY_PSOC4_4100 || CY_PSOC4_4200) */
 121:.\Generated_Source\PSoC4/cyPm.c **** 
 122:.\Generated_Source\PSoC4/cyPm.c ****     CyExitCriticalSection(interruptState);
 124              		.loc 1 122 0
 125 0036 201C     		mov	r0, r4
 115:.\Generated_Source\PSoC4/cyPm.c ****     #endif /* (CY_IP_SRSSV2) */
 126              		.loc 1 115 0
 127 0038 2B60     		str	r3, [r5]
 128              		.loc 1 122 0
 129 003a FFF7FEFF 		bl	CyExitCriticalSection
 130              	.LVL5:
 123:.\Generated_Source\PSoC4/cyPm.c **** }
 131              		.loc 1 123 0
 132              		@ sp needed
 133              	.LVL6:
 134 003e 37BD     		pop	{r0, r1, r2, r4, r5, pc}
 135              	.L6:
 136              		.align	2
 137              	.L5:
 138 0040 00000B40 		.word	1074462720
 139 0044 00010B40 		.word	1074462976
 140 0048 52F1FF0F 		.word	268431698
 141 004c 0C000B40 		.word	1074462732
 142 0050 10ED00E0 		.word	-536810224
 143              		.cfi_endproc
 144              	.LFE3:
 145              		.size	CySysPmDeepSleep, .-CySysPmDeepSleep
 146              		.section	.text.CySysPmHibernate,"ax",%progbits
 147              		.align	1
 148              		.global	CySysPmHibernate
 149              		.code	16
 150              		.thumb_func
 151              		.type	CySysPmHibernate, %function
 152              	CySysPmHibernate:
 153              	.LFB4:
ARM GAS  C:\Users\Helon\AppData\Local\Temp\cc82k9sr.s 			page 6


 124:.\Generated_Source\PSoC4/cyPm.c **** 
 125:.\Generated_Source\PSoC4/cyPm.c **** 
 126:.\Generated_Source\PSoC4/cyPm.c **** #if(CY_IP_SRSSV2)
 127:.\Generated_Source\PSoC4/cyPm.c **** 
 128:.\Generated_Source\PSoC4/cyPm.c ****     /*******************************************************************************
 129:.\Generated_Source\PSoC4/cyPm.c ****     * Function Name: CySysPmHibernate
 130:.\Generated_Source\PSoC4/cyPm.c ****     ********************************************************************************
 131:.\Generated_Source\PSoC4/cyPm.c ****     *
 132:.\Generated_Source\PSoC4/cyPm.c ****     * Summary:
 133:.\Generated_Source\PSoC4/cyPm.c ****     *  Puts the part into the Hibernate state. Only SRAM and UDBs are retained;
 134:.\Generated_Source\PSoC4/cyPm.c ****     *  most internal supplies are off. Wakeup is possible from a pin or a hibernate
 135:.\Generated_Source\PSoC4/cyPm.c ****     *  comparator only.
 136:.\Generated_Source\PSoC4/cyPm.c ****     *
 137:.\Generated_Source\PSoC4/cyPm.c ****     *  It is expected that the firmware has already frozen the IO-Cells using
 138:.\Generated_Source\PSoC4/cyPm.c ****     *  CySysPmFreezeIo() function before the call to this function. If this is
 139:.\Generated_Source\PSoC4/cyPm.c ****     *  omitted, the IO-cells will be frozen in the same way as they are
 140:.\Generated_Source\PSoC4/cyPm.c ****     *  in the Active to Deep Sleep transition, but will lose their state on wake up
 141:.\Generated_Source\PSoC4/cyPm.c ****     *  (because of the reset occurring at that time).
 142:.\Generated_Source\PSoC4/cyPm.c ****     *
 143:.\Generated_Source\PSoC4/cyPm.c ****     *  Because all the CPU state is lost, the CPU will start up at the reset vector.
 144:.\Generated_Source\PSoC4/cyPm.c ****     *  To save the firmware state through the Hibernate low power mode, a
 145:.\Generated_Source\PSoC4/cyPm.c ****     *  corresponding variable should be defined with CY_NOINIT attribute. It
 146:.\Generated_Source\PSoC4/cyPm.c ****     *  prevents data from being initialized to zero on startup. The interrupt
 147:.\Generated_Source\PSoC4/cyPm.c ****     *  cause of the hibernate peripheral is retained, such that it can be either
 148:.\Generated_Source\PSoC4/cyPm.c ****     *  read by the firmware or cause an interrupt after the firmware has booted and
 149:.\Generated_Source\PSoC4/cyPm.c ****     *  enabled the corresponding interrupt. To distinguish the wakeup from
 150:.\Generated_Source\PSoC4/cyPm.c ****     *  the Hibernate mode and the general Reset event, the CySysPmGetResetReason()
 151:.\Generated_Source\PSoC4/cyPm.c ****     *  function could be used.
 152:.\Generated_Source\PSoC4/cyPm.c ****     *
 153:.\Generated_Source\PSoC4/cyPm.c ****     * Parameters:
 154:.\Generated_Source\PSoC4/cyPm.c ****     *  None
 155:.\Generated_Source\PSoC4/cyPm.c ****     *
 156:.\Generated_Source\PSoC4/cyPm.c ****     * Return:
 157:.\Generated_Source\PSoC4/cyPm.c ****     *  None
 158:.\Generated_Source\PSoC4/cyPm.c ****     *
 159:.\Generated_Source\PSoC4/cyPm.c ****     *******************************************************************************/
 160:.\Generated_Source\PSoC4/cyPm.c ****     void CySysPmHibernate(void)
 161:.\Generated_Source\PSoC4/cyPm.c ****     {
 154              		.loc 1 161 0
 155              		.cfi_startproc
 156 0000 08B5     		push	{r3, lr}
 157              		.cfi_def_cfa_offset 8
 158              		.cfi_offset 3, -8
 159              		.cfi_offset 14, -4
 162:.\Generated_Source\PSoC4/cyPm.c ****         uint8 interruptState;
 163:.\Generated_Source\PSoC4/cyPm.c **** 
 164:.\Generated_Source\PSoC4/cyPm.c ****         interruptState = CyEnterCriticalSection();
 160              		.loc 1 164 0
 161 0002 FFF7FEFF 		bl	CyEnterCriticalSection
 162              	.LVL7:
 165:.\Generated_Source\PSoC4/cyPm.c **** 
 166:.\Generated_Source\PSoC4/cyPm.c ****         /* Device enters Hibernate mode when CPU asserts SLEEPDEEP signal */
 167:.\Generated_Source\PSoC4/cyPm.c ****         CY_PM_PWR_CONTROL_REG |= CY_PM_PWR_CONTROL_HIBERNATE;
 163              		.loc 1 167 0
 164 0006 8021     		mov	r1, #128
 165 0008 0C4A     		ldr	r2, .L8
 166 000a 0906     		lsl	r1, r1, #24
ARM GAS  C:\Users\Helon\AppData\Local\Temp\cc82k9sr.s 			page 7


 167 000c 1368     		ldr	r3, [r2]
 168 000e 0B43     		orr	r3, r1
 168:.\Generated_Source\PSoC4/cyPm.c **** 
 169:.\Generated_Source\PSoC4/cyPm.c ****         /* Adjust delay to wait for references to settle on wakeup from hibernate */
 170:.\Generated_Source\PSoC4/cyPm.c ****         CY_PM_PWR_KEY_DELAY_REG = CY_SFLASH_HIB_KEY_DELAY_REG;
 171:.\Generated_Source\PSoC4/cyPm.c **** 
 172:.\Generated_Source\PSoC4/cyPm.c ****         /* CM0 enters DeepSleep/Hibernate mode upon execution of WFI */
 173:.\Generated_Source\PSoC4/cyPm.c ****         CY_PM_CM0_SCR_REG |= CY_PM_CM0_SCR_SLEEPDEEP;
 169              		.loc 1 173 0
 170 0010 0421     		mov	r1, #4
 167:.\Generated_Source\PSoC4/cyPm.c **** 
 171              		.loc 1 167 0
 172 0012 1360     		str	r3, [r2]
 170:.\Generated_Source\PSoC4/cyPm.c **** 
 173              		.loc 1 170 0
 174 0014 0A4B     		ldr	r3, .L8+4
 175 0016 0B4A     		ldr	r2, .L8+8
 176 0018 1B88     		ldrh	r3, [r3]
 177 001a 9BB2     		uxth	r3, r3
 178 001c 1360     		str	r3, [r2]
 179              		.loc 1 173 0
 180 001e 0A4A     		ldr	r2, .L8+12
 181 0020 1368     		ldr	r3, [r2]
 182 0022 0B43     		orr	r3, r1
 183 0024 1360     		str	r3, [r2]
 174:.\Generated_Source\PSoC4/cyPm.c **** 
 175:.\Generated_Source\PSoC4/cyPm.c ****         /* Save token that will retain through a STOP/WAKEUP sequence
 176:.\Generated_Source\PSoC4/cyPm.c ****          * thus could be used by CySysPmGetResetReason() to differentiate
 177:.\Generated_Source\PSoC4/cyPm.c ****          * WAKEUP from a general RESET event.
 178:.\Generated_Source\PSoC4/cyPm.c ****          */
 179:.\Generated_Source\PSoC4/cyPm.c ****         CY_PM_PWR_STOP_REG = (CY_PM_PWR_STOP_REG & (uint32)(~CY_PM_PWR_STOP_TOKEN_MASK)) | CY_PM_PW
 184              		.loc 1 179 0
 185 0026 094A     		ldr	r2, .L8+16
 186 0028 FB31     		add	r1, r1, #251
 187 002a 1368     		ldr	r3, [r2]
 188 002c 8B43     		bic	r3, r1
 189 002e 0E39     		sub	r1, r1, #14
 190 0030 0B43     		orr	r3, r1
 191 0032 1360     		str	r3, [r2]
 180:.\Generated_Source\PSoC4/cyPm.c **** 
 181:.\Generated_Source\PSoC4/cyPm.c ****         /* Sleep and wait for interrupt. Wakeup from Hibernate is performed
 182:.\Generated_Source\PSoC4/cyPm.c ****          * through RESET state, causing a normal Boot procedure to occur.
 183:.\Generated_Source\PSoC4/cyPm.c ****          * The WFI instruction doesn't put the core to sleep if its wake condition
 184:.\Generated_Source\PSoC4/cyPm.c ****          * is true when the instruction is executed.
 185:.\Generated_Source\PSoC4/cyPm.c ****          */
 186:.\Generated_Source\PSoC4/cyPm.c ****         CY_PM_WFI;
 192              		.loc 1 186 0
 193              	@ 186 ".\Generated_Source\PSoC4\cyPm.c" 1
 194 0034 30BF     		WFI 
 195              	
 196              	@ 0 "" 2
 187:.\Generated_Source\PSoC4/cyPm.c **** 
 188:.\Generated_Source\PSoC4/cyPm.c ****         CyExitCriticalSection(interruptState);
 197              		.loc 1 188 0
 198              		.code	16
 199 0036 FFF7FEFF 		bl	CyExitCriticalSection
 200              	.LVL8:
ARM GAS  C:\Users\Helon\AppData\Local\Temp\cc82k9sr.s 			page 8


 189:.\Generated_Source\PSoC4/cyPm.c ****     }
 201              		.loc 1 189 0
 202              		@ sp needed
 203 003a 08BD     		pop	{r3, pc}
 204              	.L9:
 205              		.align	2
 206              	.L8:
 207 003c 00000B40 		.word	1074462720
 208 0040 50F1FF0F 		.word	268431696
 209 0044 0C000B40 		.word	1074462732
 210 0048 10ED00E0 		.word	-536810224
 211 004c 2C000B40 		.word	1074462764
 212              		.cfi_endproc
 213              	.LFE4:
 214              		.size	CySysPmHibernate, .-CySysPmHibernate
 215              		.section	.text.CySysPmSetWakeupPolarity,"ax",%progbits
 216              		.align	1
 217              		.global	CySysPmSetWakeupPolarity
 218              		.code	16
 219              		.thumb_func
 220              		.type	CySysPmSetWakeupPolarity, %function
 221              	CySysPmSetWakeupPolarity:
 222              	.LFB6:
 190:.\Generated_Source\PSoC4/cyPm.c **** 
 191:.\Generated_Source\PSoC4/cyPm.c **** 
 192:.\Generated_Source\PSoC4/cyPm.c ****     /*******************************************************************************
 193:.\Generated_Source\PSoC4/cyPm.c ****     * Function Name: CySysPmStop
 194:.\Generated_Source\PSoC4/cyPm.c ****     ********************************************************************************
 195:.\Generated_Source\PSoC4/cyPm.c ****     *
 196:.\Generated_Source\PSoC4/cyPm.c ****     * Summary:
 197:.\Generated_Source\PSoC4/cyPm.c ****     *  Puts the part into the Stop state. All internal supplies are off;
 198:.\Generated_Source\PSoC4/cyPm.c ****     *  no state is retained.
 199:.\Generated_Source\PSoC4/cyPm.c ****     *
 200:.\Generated_Source\PSoC4/cyPm.c ****     *  Wakeup from Stop is performed by toggling the wakeup pin, causing
 201:.\Generated_Source\PSoC4/cyPm.c ****     *  a normal boot procedure to occur. To configure the wakeup pin,
 202:.\Generated_Source\PSoC4/cyPm.c ****     *  the Digital Input Pin component should be placed on the schematic,
 203:.\Generated_Source\PSoC4/cyPm.c ****     *  assigned to the wakeup pin, and resistively pulled up or down to the inverse
 204:.\Generated_Source\PSoC4/cyPm.c ****     *  state of the wakeup polarity. To distinguish the wakeup from the Stop mode
 205:.\Generated_Source\PSoC4/cyPm.c ****     *  and the general Reset event, CySysPmGetResetReason() function could be used.
 206:.\Generated_Source\PSoC4/cyPm.c ****     *  The wakeup pin is active low by default. The wakeup pin polarity
 207:.\Generated_Source\PSoC4/cyPm.c ****     *  could be changed with the CySysPmSetWakeupPolarity() function.
 208:.\Generated_Source\PSoC4/cyPm.c ****     *
 209:.\Generated_Source\PSoC4/cyPm.c ****     *  This function freezes IO cells implicitly. It is not possible to enter
 210:.\Generated_Source\PSoC4/cyPm.c ****     *  the STOP mode before freezing the IO cells. The IO cells remain frozen after
 211:.\Generated_Source\PSoC4/cyPm.c ****     *  awake from the Stop mode until the firmware unfreezes them after booting
 212:.\Generated_Source\PSoC4/cyPm.c ****     *  explicitly with CySysPmUnfreezeIo() function call.
 213:.\Generated_Source\PSoC4/cyPm.c ****     *
 214:.\Generated_Source\PSoC4/cyPm.c ****     * Parameters:
 215:.\Generated_Source\PSoC4/cyPm.c ****     *  None
 216:.\Generated_Source\PSoC4/cyPm.c ****     *
 217:.\Generated_Source\PSoC4/cyPm.c ****     * Return:
 218:.\Generated_Source\PSoC4/cyPm.c ****     *  None
 219:.\Generated_Source\PSoC4/cyPm.c ****     *
 220:.\Generated_Source\PSoC4/cyPm.c ****     *******************************************************************************/
 221:.\Generated_Source\PSoC4/cyPm.c ****     void CySysPmStop(void)
 222:.\Generated_Source\PSoC4/cyPm.c ****     {
 223:.\Generated_Source\PSoC4/cyPm.c ****         (void) CyEnterCriticalSection();
ARM GAS  C:\Users\Helon\AppData\Local\Temp\cc82k9sr.s 			page 9


 224:.\Generated_Source\PSoC4/cyPm.c **** 
 225:.\Generated_Source\PSoC4/cyPm.c ****         /* Update token to indicate Stop mode transition. Preserve only polarity. */
 226:.\Generated_Source\PSoC4/cyPm.c ****         CY_PM_PWR_STOP_REG = (CY_PM_PWR_STOP_REG & CY_PM_PWR_STOP_POLARITY) | CY_PM_PWR_STOP_TOKEN_
 227:.\Generated_Source\PSoC4/cyPm.c **** 
 228:.\Generated_Source\PSoC4/cyPm.c ****         /* Freeze IO-Cells to save IO-Cell state */
 229:.\Generated_Source\PSoC4/cyPm.c ****         CySysPmFreezeIo();
 230:.\Generated_Source\PSoC4/cyPm.c **** 
 231:.\Generated_Source\PSoC4/cyPm.c ****         /* Initiates transition to Stop state */
 232:.\Generated_Source\PSoC4/cyPm.c ****         CY_PM_PWR_STOP_REG = CY_PM_PWR_STOP_REG | CY_PM_PWR_STOP_STOP;
 233:.\Generated_Source\PSoC4/cyPm.c **** 
 234:.\Generated_Source\PSoC4/cyPm.c ****         /* Depending on the clock frequency and internal timing delays,
 235:.\Generated_Source\PSoC4/cyPm.c ****          * the final AHB transaction may or may not complete. To guard against
 236:.\Generated_Source\PSoC4/cyPm.c ****          * accidentally executing an unintended instruction, it is recommended
 237:.\Generated_Source\PSoC4/cyPm.c ****          * to add 2 NOP cycles after the final write to the STOP register.
 238:.\Generated_Source\PSoC4/cyPm.c ****          */
 239:.\Generated_Source\PSoC4/cyPm.c ****         CY_NOP;
 240:.\Generated_Source\PSoC4/cyPm.c ****         CY_NOP;
 241:.\Generated_Source\PSoC4/cyPm.c **** 
 242:.\Generated_Source\PSoC4/cyPm.c ****         /* Should never get to this WFI instruction */
 243:.\Generated_Source\PSoC4/cyPm.c ****         CY_PM_WFI;
 244:.\Generated_Source\PSoC4/cyPm.c **** 
 245:.\Generated_Source\PSoC4/cyPm.c ****         /* Wakeup from Stop is performed by toggling of Wakeup pin,
 246:.\Generated_Source\PSoC4/cyPm.c ****          * causing a normal Boot procedure to occur. No need to exit
 247:.\Generated_Source\PSoC4/cyPm.c ****          * from the critical section.
 248:.\Generated_Source\PSoC4/cyPm.c ****          */
 249:.\Generated_Source\PSoC4/cyPm.c ****     }
 250:.\Generated_Source\PSoC4/cyPm.c **** 
 251:.\Generated_Source\PSoC4/cyPm.c **** 
 252:.\Generated_Source\PSoC4/cyPm.c ****     /*******************************************************************************
 253:.\Generated_Source\PSoC4/cyPm.c ****     * Function Name: CySysPmSetWakeupPolarity
 254:.\Generated_Source\PSoC4/cyPm.c ****     ********************************************************************************
 255:.\Generated_Source\PSoC4/cyPm.c ****     *
 256:.\Generated_Source\PSoC4/cyPm.c ****     * Summary:
 257:.\Generated_Source\PSoC4/cyPm.c ****     *  Wake up from the stop mode is performed by toggling the wakeup pin,
 258:.\Generated_Source\PSoC4/cyPm.c ****     *  causing a normal boot procedure to occur. This function assigns
 259:.\Generated_Source\PSoC4/cyPm.c ****     *  the wakeup pin active level. Setting the wakeup pin to this level will cause
 260:.\Generated_Source\PSoC4/cyPm.c ****     *  the wakeup from stop mode. The wakeup pin is active low by default.
 261:.\Generated_Source\PSoC4/cyPm.c ****     *
 262:.\Generated_Source\PSoC4/cyPm.c ****     * Parameters:
 263:.\Generated_Source\PSoC4/cyPm.c ****     *  polarity: Wakeup pin active level:
 264:.\Generated_Source\PSoC4/cyPm.c ****     *   Value    Define                          Level
 265:.\Generated_Source\PSoC4/cyPm.c ****     *    0        CY_PM_STOP_WAKEUP_ACTIVE_LOW    Logical zero will wakeup the chip
 266:.\Generated_Source\PSoC4/cyPm.c ****     *    1        CY_PM_STOP_WAKEUP_ACTIVE_HIGH   Logical one will wakeup the chip
 267:.\Generated_Source\PSoC4/cyPm.c ****     *
 268:.\Generated_Source\PSoC4/cyPm.c ****     * Return:
 269:.\Generated_Source\PSoC4/cyPm.c ****     *  None
 270:.\Generated_Source\PSoC4/cyPm.c ****     *
 271:.\Generated_Source\PSoC4/cyPm.c ****     *******************************************************************************/
 272:.\Generated_Source\PSoC4/cyPm.c ****     void CySysPmSetWakeupPolarity(uint32 polarity)
 273:.\Generated_Source\PSoC4/cyPm.c ****     {
 223              		.loc 1 273 0
 224              		.cfi_startproc
 225              	.LVL9:
 226 0000 10B5     		push	{r4, lr}
 227              		.cfi_def_cfa_offset 8
 228              		.cfi_offset 4, -8
 229              		.cfi_offset 14, -4
ARM GAS  C:\Users\Helon\AppData\Local\Temp\cc82k9sr.s 			page 10


 230              		.loc 1 273 0
 231 0002 041C     		mov	r4, r0
 274:.\Generated_Source\PSoC4/cyPm.c ****         uint8 interruptState;
 275:.\Generated_Source\PSoC4/cyPm.c **** 
 276:.\Generated_Source\PSoC4/cyPm.c ****         interruptState = CyEnterCriticalSection();
 232              		.loc 1 276 0
 233 0004 FFF7FEFF 		bl	CyEnterCriticalSection
 234              	.LVL10:
 235 0008 074A     		ldr	r2, .L14
 277:.\Generated_Source\PSoC4/cyPm.c **** 
 278:.\Generated_Source\PSoC4/cyPm.c ****         CY_PM_PWR_STOP_REG = (CY_PM_STOP_WAKEUP_ACTIVE_LOW != polarity) ?
 279:.\Generated_Source\PSoC4/cyPm.c ****                             (CY_PM_PWR_STOP_REG | CY_PM_PWR_STOP_POLARITY) :
 236              		.loc 1 279 0
 237 000a 002C     		cmp	r4, #0
 238 000c 04D0     		beq	.L11
 239              		.loc 1 279 0 is_stmt 0 discriminator 1
 240 000e 8021     		mov	r1, #128
 241 0010 1368     		ldr	r3, [r2]
 242 0012 4902     		lsl	r1, r1, #9
 243 0014 0B43     		orr	r3, r1
 244 0016 02E0     		b	.L12
 245              	.L11:
 280:.\Generated_Source\PSoC4/cyPm.c ****                             (CY_PM_PWR_STOP_REG & (uint32) (~CY_PM_PWR_STOP_POLARITY));
 246              		.loc 1 280 0 is_stmt 1 discriminator 2
 247 0018 1168     		ldr	r1, [r2]
 279:.\Generated_Source\PSoC4/cyPm.c ****                             (CY_PM_PWR_STOP_REG & (uint32) (~CY_PM_PWR_STOP_POLARITY));
 248              		.loc 1 279 0 discriminator 2
 249 001a 044B     		ldr	r3, .L14+4
 250 001c 0B40     		and	r3, r1
 251              	.L12:
 278:.\Generated_Source\PSoC4/cyPm.c ****                             (CY_PM_PWR_STOP_REG | CY_PM_PWR_STOP_POLARITY) :
 252              		.loc 1 278 0
 253 001e 1360     		str	r3, [r2]
 281:.\Generated_Source\PSoC4/cyPm.c **** 
 282:.\Generated_Source\PSoC4/cyPm.c ****         CyExitCriticalSection(interruptState);
 254              		.loc 1 282 0
 255 0020 FFF7FEFF 		bl	CyExitCriticalSection
 256              	.LVL11:
 283:.\Generated_Source\PSoC4/cyPm.c ****     }
 257              		.loc 1 283 0
 258              		@ sp needed
 259              	.LVL12:
 260 0024 10BD     		pop	{r4, pc}
 261              	.L15:
 262 0026 C046     		.align	2
 263              	.L14:
 264 0028 2C000B40 		.word	1074462764
 265 002c FFFFFEFF 		.word	-65537
 266              		.cfi_endproc
 267              	.LFE6:
 268              		.size	CySysPmSetWakeupPolarity, .-CySysPmSetWakeupPolarity
 269              		.section	.text.CySysPmGetResetReason,"ax",%progbits
 270              		.align	1
 271              		.global	CySysPmGetResetReason
 272              		.code	16
 273              		.thumb_func
 274              		.type	CySysPmGetResetReason, %function
ARM GAS  C:\Users\Helon\AppData\Local\Temp\cc82k9sr.s 			page 11


 275              	CySysPmGetResetReason:
 276              	.LFB7:
 284:.\Generated_Source\PSoC4/cyPm.c **** 
 285:.\Generated_Source\PSoC4/cyPm.c **** 
 286:.\Generated_Source\PSoC4/cyPm.c ****     /*******************************************************************************
 287:.\Generated_Source\PSoC4/cyPm.c ****     * Function Name: CySysPmGetResetReason
 288:.\Generated_Source\PSoC4/cyPm.c ****     ********************************************************************************
 289:.\Generated_Source\PSoC4/cyPm.c ****     *
 290:.\Generated_Source\PSoC4/cyPm.c ****     * Summary:
 291:.\Generated_Source\PSoC4/cyPm.c ****     *  Retrieves the last reset reason - transition from OFF/XRES/STOP/HIBERNATE to
 292:.\Generated_Source\PSoC4/cyPm.c ****     *  the RESET state. Note that waking up from STOP using XRES will be perceived
 293:.\Generated_Source\PSoC4/cyPm.c ****     *  as a general RESET.
 294:.\Generated_Source\PSoC4/cyPm.c ****     *
 295:.\Generated_Source\PSoC4/cyPm.c ****     * Parameters:
 296:.\Generated_Source\PSoC4/cyPm.c ****     *  None
 297:.\Generated_Source\PSoC4/cyPm.c ****     *
 298:.\Generated_Source\PSoC4/cyPm.c ****     * Return:
 299:.\Generated_Source\PSoC4/cyPm.c ****     *  Reset reason.
 300:.\Generated_Source\PSoC4/cyPm.c ****     *  CY_PM_RESET_REASON_UNKN        - unknown
 301:.\Generated_Source\PSoC4/cyPm.c ****     *  CY_PM_RESET_REASON_XRES        - transition from OFF/XRES to RESET
 302:.\Generated_Source\PSoC4/cyPm.c ****     *  CY_PM_RESET_REASON_WAKEUP_HIB  - transition/wakeup from HIBERNATE to RESET
 303:.\Generated_Source\PSoC4/cyPm.c ****     *  CY_PM_RESET_REASON_WAKEUP_STOP - transition/wakeup from STOP to RESET
 304:.\Generated_Source\PSoC4/cyPm.c ****     *
 305:.\Generated_Source\PSoC4/cyPm.c ****     *******************************************************************************/
 306:.\Generated_Source\PSoC4/cyPm.c ****     uint32 CySysPmGetResetReason(void)
 307:.\Generated_Source\PSoC4/cyPm.c ****     {
 277              		.loc 1 307 0
 278              		.cfi_startproc
 279              	.LVL13:
 308:.\Generated_Source\PSoC4/cyPm.c ****         uint32 reason = CY_PM_RESET_REASON_UNKN;
 309:.\Generated_Source\PSoC4/cyPm.c **** 
 310:.\Generated_Source\PSoC4/cyPm.c ****         switch(CY_PM_PWR_STOP_REG & CY_PM_PWR_STOP_TOKEN_MASK)
 280              		.loc 1 310 0
 281 0000 054B     		ldr	r3, .L22
 311:.\Generated_Source\PSoC4/cyPm.c ****         {
 312:.\Generated_Source\PSoC4/cyPm.c ****         /* Power up, XRES */
 313:.\Generated_Source\PSoC4/cyPm.c ****         case CY_PM_PWR_STOP_TOKEN_XRES:
 314:.\Generated_Source\PSoC4/cyPm.c ****             reason = CY_PM_RESET_REASON_XRES;
 315:.\Generated_Source\PSoC4/cyPm.c ****             break;
 316:.\Generated_Source\PSoC4/cyPm.c **** 
 317:.\Generated_Source\PSoC4/cyPm.c ****         /* Wakeup from Hibernate */
 318:.\Generated_Source\PSoC4/cyPm.c ****         case CY_PM_PWR_STOP_TOKEN_HIB:
 319:.\Generated_Source\PSoC4/cyPm.c ****             reason = CY_PM_RESET_REASON_WAKEUP_HIB;
 282              		.loc 1 319 0
 283 0002 0220     		mov	r0, #2
 310:.\Generated_Source\PSoC4/cyPm.c ****         {
 284              		.loc 1 310 0
 285 0004 1B68     		ldr	r3, [r3]
 286 0006 DBB2     		uxtb	r3, r3
 287 0008 F12B     		cmp	r3, #241
 288 000a 04D0     		beq	.L17
 320:.\Generated_Source\PSoC4/cyPm.c ****             break;
 321:.\Generated_Source\PSoC4/cyPm.c **** 
 322:.\Generated_Source\PSoC4/cyPm.c ****         /* Wakeup from Stop (through WAKEUP pin assert) */
 323:.\Generated_Source\PSoC4/cyPm.c ****         case CY_PM_PWR_STOP_TOKEN_STOP:
 324:.\Generated_Source\PSoC4/cyPm.c ****             reason = CY_PM_RESET_REASON_WAKEUP_STOP;
 289              		.loc 1 324 0
ARM GAS  C:\Users\Helon\AppData\Local\Temp\cc82k9sr.s 			page 12


 290 000c 0130     		add	r0, r0, #1
 310:.\Generated_Source\PSoC4/cyPm.c ****         {
 291              		.loc 1 310 0
 292 000e F22B     		cmp	r3, #242
 293 0010 01D0     		beq	.L17
 308:.\Generated_Source\PSoC4/cyPm.c **** 
 294              		.loc 1 308 0
 295 0012 5842     		neg	r0, r3
 296 0014 5841     		adc	r0, r0, r3
 297              	.L17:
 298              	.LVL14:
 325:.\Generated_Source\PSoC4/cyPm.c ****             break;
 326:.\Generated_Source\PSoC4/cyPm.c **** 
 327:.\Generated_Source\PSoC4/cyPm.c ****         /* Unknown reason */
 328:.\Generated_Source\PSoC4/cyPm.c ****         default:
 329:.\Generated_Source\PSoC4/cyPm.c ****             break;
 330:.\Generated_Source\PSoC4/cyPm.c ****         }
 331:.\Generated_Source\PSoC4/cyPm.c **** 
 332:.\Generated_Source\PSoC4/cyPm.c ****         return (reason);
 333:.\Generated_Source\PSoC4/cyPm.c ****     }
 299              		.loc 1 333 0
 300              		@ sp needed
 301 0016 7047     		bx	lr
 302              	.L23:
 303              		.align	2
 304              	.L22:
 305 0018 2C000B40 		.word	1074462764
 306              		.cfi_endproc
 307              	.LFE7:
 308              		.size	CySysPmGetResetReason, .-CySysPmGetResetReason
 309              		.section	.text.CySysPmFreezeIo,"ax",%progbits
 310              		.align	1
 311              		.global	CySysPmFreezeIo
 312              		.code	16
 313              		.thumb_func
 314              		.type	CySysPmFreezeIo, %function
 315              	CySysPmFreezeIo:
 316              	.LFB8:
 334:.\Generated_Source\PSoC4/cyPm.c **** 
 335:.\Generated_Source\PSoC4/cyPm.c **** 
 336:.\Generated_Source\PSoC4/cyPm.c ****     /*******************************************************************************
 337:.\Generated_Source\PSoC4/cyPm.c ****     * Function Name: CySysPmFreezeIo
 338:.\Generated_Source\PSoC4/cyPm.c ****     ********************************************************************************
 339:.\Generated_Source\PSoC4/cyPm.c ****     *
 340:.\Generated_Source\PSoC4/cyPm.c ****     * Summary:
 341:.\Generated_Source\PSoC4/cyPm.c ****     *  Freezes IO-Cells directly to save the IO-Cell state on wake up from the
 342:.\Generated_Source\PSoC4/cyPm.c ****     *  Hibernate or Stop state. It is not required to call this function before
 343:.\Generated_Source\PSoC4/cyPm.c ****     *  entering the Stop mode, since CySysPmStop() function freezes IO-Cells
 344:.\Generated_Source\PSoC4/cyPm.c ****     *  implicitly.
 345:.\Generated_Source\PSoC4/cyPm.c ****     *
 346:.\Generated_Source\PSoC4/cyPm.c ****     * Parameters:
 347:.\Generated_Source\PSoC4/cyPm.c ****     *  None
 348:.\Generated_Source\PSoC4/cyPm.c ****     *
 349:.\Generated_Source\PSoC4/cyPm.c ****     * Return:
 350:.\Generated_Source\PSoC4/cyPm.c ****     *  None
 351:.\Generated_Source\PSoC4/cyPm.c ****     *
 352:.\Generated_Source\PSoC4/cyPm.c ****     *******************************************************************************/
ARM GAS  C:\Users\Helon\AppData\Local\Temp\cc82k9sr.s 			page 13


 353:.\Generated_Source\PSoC4/cyPm.c ****     void CySysPmFreezeIo(void)
 354:.\Generated_Source\PSoC4/cyPm.c ****     {
 317              		.loc 1 354 0
 318              		.cfi_startproc
 319 0000 08B5     		push	{r3, lr}
 320              		.cfi_def_cfa_offset 8
 321              		.cfi_offset 3, -8
 322              		.cfi_offset 14, -4
 355:.\Generated_Source\PSoC4/cyPm.c ****         uint8 interruptState;
 356:.\Generated_Source\PSoC4/cyPm.c **** 
 357:.\Generated_Source\PSoC4/cyPm.c ****         interruptState = CyEnterCriticalSection();
 323              		.loc 1 357 0
 324 0002 FFF7FEFF 		bl	CyEnterCriticalSection
 325              	.LVL15:
 358:.\Generated_Source\PSoC4/cyPm.c **** 
 359:.\Generated_Source\PSoC4/cyPm.c ****         /* Check FREEZE state to avoid recurrent IO-Cells freeze attempt,
 360:.\Generated_Source\PSoC4/cyPm.c ****          * since the second call to this function will cause accidental switch
 361:.\Generated_Source\PSoC4/cyPm.c ****          * to the STOP mode (the system will enter STOP mode immediately after
 362:.\Generated_Source\PSoC4/cyPm.c ****          * writing to STOP bit since both UNLOCK and FREEZE have been set correctly
 363:.\Generated_Source\PSoC4/cyPm.c ****          * in a previous call to this function).
 364:.\Generated_Source\PSoC4/cyPm.c ****          */
 365:.\Generated_Source\PSoC4/cyPm.c ****         if (0u == (CY_PM_PWR_STOP_REG & CY_PM_PWR_STOP_FREEZE))
 326              		.loc 1 365 0
 327 0006 084B     		ldr	r3, .L26
 328 0008 1A68     		ldr	r2, [r3]
 329 000a 9203     		lsl	r2, r2, #14
 330 000c 09D4     		bmi	.L25
 366:.\Generated_Source\PSoC4/cyPm.c ****         {
 367:.\Generated_Source\PSoC4/cyPm.c ****             /* Preserve last reset reason and disable overrides the next freeze command by peripher
 368:.\Generated_Source\PSoC4/cyPm.c ****             CY_PM_PWR_STOP_REG = CY_PM_PWR_STOP_STOP | CY_PM_PWR_STOP_FREEZE | CY_PM_PWR_STOP_UNLOC
 369:.\Generated_Source\PSoC4/cyPm.c ****                                 (CY_PM_PWR_STOP_REG & (CY_PM_PWR_STOP_TOKEN_MASK | CY_PM_PWR_STOP_P
 331              		.loc 1 369 0
 332 000e 1968     		ldr	r1, [r3]
 333 0010 064A     		ldr	r2, .L26+4
 334 0012 0A40     		and	r2, r1
 368:.\Generated_Source\PSoC4/cyPm.c ****                                 (CY_PM_PWR_STOP_REG & (CY_PM_PWR_STOP_TOKEN_MASK | CY_PM_PWR_STOP_P
 335              		.loc 1 368 0
 336 0014 0649     		ldr	r1, .L26+8
 337 0016 0A43     		orr	r2, r1
 338 0018 1A60     		str	r2, [r3]
 370:.\Generated_Source\PSoC4/cyPm.c **** 
 371:.\Generated_Source\PSoC4/cyPm.c ****             /* If reading after writing, read this register three times to delay
 372:.\Generated_Source\PSoC4/cyPm.c ****             *  enough time for internal settling.
 373:.\Generated_Source\PSoC4/cyPm.c ****             */
 374:.\Generated_Source\PSoC4/cyPm.c ****             (void) CY_PM_PWR_STOP_REG;
 339              		.loc 1 374 0
 340 001a 1A68     		ldr	r2, [r3]
 375:.\Generated_Source\PSoC4/cyPm.c ****             (void) CY_PM_PWR_STOP_REG;
 341              		.loc 1 375 0
 342 001c 1A68     		ldr	r2, [r3]
 376:.\Generated_Source\PSoC4/cyPm.c **** 
 377:.\Generated_Source\PSoC4/cyPm.c ****             /* Second write causes the freeze of IO-Cells to save IO-Cell state */
 378:.\Generated_Source\PSoC4/cyPm.c ****             CY_PM_PWR_STOP_REG = CY_PM_PWR_STOP_REG;
 343              		.loc 1 378 0
 344 001e 1A68     		ldr	r2, [r3]
 345 0020 1A60     		str	r2, [r3]
 346              	.L25:
ARM GAS  C:\Users\Helon\AppData\Local\Temp\cc82k9sr.s 			page 14


 379:.\Generated_Source\PSoC4/cyPm.c ****         }
 380:.\Generated_Source\PSoC4/cyPm.c **** 
 381:.\Generated_Source\PSoC4/cyPm.c ****         CyExitCriticalSection(interruptState);
 347              		.loc 1 381 0
 348 0022 FFF7FEFF 		bl	CyExitCriticalSection
 349              	.LVL16:
 382:.\Generated_Source\PSoC4/cyPm.c ****     }
 350              		.loc 1 382 0
 351              		@ sp needed
 352 0026 08BD     		pop	{r3, pc}
 353              	.L27:
 354              		.align	2
 355              	.L26:
 356 0028 2C000B40 		.word	1074462764
 357 002c FF000100 		.word	65791
 358 0030 003A0280 		.word	-2147337728
 359              		.cfi_endproc
 360              	.LFE8:
 361              		.size	CySysPmFreezeIo, .-CySysPmFreezeIo
 362              		.section	.text.CySysPmStop,"ax",%progbits
 363              		.align	1
 364              		.global	CySysPmStop
 365              		.code	16
 366              		.thumb_func
 367              		.type	CySysPmStop, %function
 368              	CySysPmStop:
 369              	.LFB5:
 222:.\Generated_Source\PSoC4/cyPm.c ****         (void) CyEnterCriticalSection();
 370              		.loc 1 222 0
 371              		.cfi_startproc
 372 0000 10B5     		push	{r4, lr}
 373              		.cfi_def_cfa_offset 8
 374              		.cfi_offset 4, -8
 375              		.cfi_offset 14, -4
 223:.\Generated_Source\PSoC4/cyPm.c **** 
 376              		.loc 1 223 0
 377 0002 FFF7FEFF 		bl	CyEnterCriticalSection
 378              	.LVL17:
 226:.\Generated_Source\PSoC4/cyPm.c **** 
 379              		.loc 1 226 0
 380 0006 8023     		mov	r3, #128
 381 0008 084C     		ldr	r4, .L29
 382 000a 5B02     		lsl	r3, r3, #9
 383 000c 2268     		ldr	r2, [r4]
 384 000e 1340     		and	r3, r2
 385 0010 F222     		mov	r2, #242
 386 0012 1343     		orr	r3, r2
 387 0014 2360     		str	r3, [r4]
 229:.\Generated_Source\PSoC4/cyPm.c **** 
 388              		.loc 1 229 0
 389 0016 FFF7FEFF 		bl	CySysPmFreezeIo
 390              	.LVL18:
 232:.\Generated_Source\PSoC4/cyPm.c **** 
 391              		.loc 1 232 0
 392 001a 8022     		mov	r2, #128
 393 001c 2368     		ldr	r3, [r4]
 394 001e 1206     		lsl	r2, r2, #24
ARM GAS  C:\Users\Helon\AppData\Local\Temp\cc82k9sr.s 			page 15


 395 0020 1343     		orr	r3, r2
 396 0022 2360     		str	r3, [r4]
 239:.\Generated_Source\PSoC4/cyPm.c ****         CY_NOP;
 397              		.loc 1 239 0
 398              	@ 239 ".\Generated_Source\PSoC4\cyPm.c" 1
 399 0024 C046     		NOP
 400              	
 401              	@ 0 "" 2
 240:.\Generated_Source\PSoC4/cyPm.c **** 
 402              		.loc 1 240 0
 403              	@ 240 ".\Generated_Source\PSoC4\cyPm.c" 1
 404 0026 C046     		NOP
 405              	
 406              	@ 0 "" 2
 243:.\Generated_Source\PSoC4/cyPm.c **** 
 407              		.loc 1 243 0
 408              	@ 243 ".\Generated_Source\PSoC4\cyPm.c" 1
 409 0028 30BF     		WFI 
 410              	
 411              	@ 0 "" 2
 249:.\Generated_Source\PSoC4/cyPm.c **** 
 412              		.loc 1 249 0
 413              		.code	16
 414              		@ sp needed
 415 002a 10BD     		pop	{r4, pc}
 416              	.L30:
 417              		.align	2
 418              	.L29:
 419 002c 2C000B40 		.word	1074462764
 420              		.cfi_endproc
 421              	.LFE5:
 422              		.size	CySysPmStop, .-CySysPmStop
 423              		.section	.text.CySysPmUnfreezeIo,"ax",%progbits
 424              		.align	1
 425              		.global	CySysPmUnfreezeIo
 426              		.code	16
 427              		.thumb_func
 428              		.type	CySysPmUnfreezeIo, %function
 429              	CySysPmUnfreezeIo:
 430              	.LFB9:
 383:.\Generated_Source\PSoC4/cyPm.c **** 
 384:.\Generated_Source\PSoC4/cyPm.c **** 
 385:.\Generated_Source\PSoC4/cyPm.c ****     /*******************************************************************************
 386:.\Generated_Source\PSoC4/cyPm.c ****     * Function Name: CySysPmUnfreezeIo
 387:.\Generated_Source\PSoC4/cyPm.c ****     ********************************************************************************
 388:.\Generated_Source\PSoC4/cyPm.c ****     *
 389:.\Generated_Source\PSoC4/cyPm.c ****     * Summary:
 390:.\Generated_Source\PSoC4/cyPm.c ****     *  The IO-Cells remain frozen after awake from Hibernate or Stop mode until
 391:.\Generated_Source\PSoC4/cyPm.c ****     *  the firmware unfreezes them after booting. The call of this function
 392:.\Generated_Source\PSoC4/cyPm.c ****     *  unfreezes IO-Cells explicitly.
 393:.\Generated_Source\PSoC4/cyPm.c ****     *
 394:.\Generated_Source\PSoC4/cyPm.c ****     *  If the firmware intent is to retain the data value on the port, then the
 395:.\Generated_Source\PSoC4/cyPm.c ****     *  value must be read and re-written to the data register before calling this
 396:.\Generated_Source\PSoC4/cyPm.c ****     *  API. Furthermore, the drive mode must be re-programmed.  If this is not done,
 397:.\Generated_Source\PSoC4/cyPm.c ****     *  the pin state will change to default state the moment the freeze is removed.
 398:.\Generated_Source\PSoC4/cyPm.c ****     *
 399:.\Generated_Source\PSoC4/cyPm.c ****     *  This API is not available for PSoC 4000 family of devices.
ARM GAS  C:\Users\Helon\AppData\Local\Temp\cc82k9sr.s 			page 16


 400:.\Generated_Source\PSoC4/cyPm.c ****     *
 401:.\Generated_Source\PSoC4/cyPm.c ****     * Parameters:
 402:.\Generated_Source\PSoC4/cyPm.c ****     *  None
 403:.\Generated_Source\PSoC4/cyPm.c ****     *
 404:.\Generated_Source\PSoC4/cyPm.c ****     * Return:
 405:.\Generated_Source\PSoC4/cyPm.c ****     *  None
 406:.\Generated_Source\PSoC4/cyPm.c ****     *
 407:.\Generated_Source\PSoC4/cyPm.c ****     *******************************************************************************/
 408:.\Generated_Source\PSoC4/cyPm.c ****     void CySysPmUnfreezeIo(void)
 409:.\Generated_Source\PSoC4/cyPm.c ****     {
 431              		.loc 1 409 0
 432              		.cfi_startproc
 433 0000 10B5     		push	{r4, lr}
 434              		.cfi_def_cfa_offset 8
 435              		.cfi_offset 4, -8
 436              		.cfi_offset 14, -4
 410:.\Generated_Source\PSoC4/cyPm.c ****         uint8 interruptState;
 411:.\Generated_Source\PSoC4/cyPm.c **** 
 412:.\Generated_Source\PSoC4/cyPm.c ****         interruptState = CyEnterCriticalSection();
 413:.\Generated_Source\PSoC4/cyPm.c **** 
 414:.\Generated_Source\PSoC4/cyPm.c ****         /* Preserve last reset reason and wakeup polarity. Then, unfreeze I/O:
 415:.\Generated_Source\PSoC4/cyPm.c ****          * write PWR_STOP.FREEZE=0, .UNLOCK=0x3A, .STOP=0, .TOKEN
 416:.\Generated_Source\PSoC4/cyPm.c ****          */
 417:.\Generated_Source\PSoC4/cyPm.c ****         CY_PM_PWR_STOP_REG = CY_PM_PWR_STOP_UNLOCK |
 437              		.loc 1 417 0
 438 0002 E824     		mov	r4, #232
 412:.\Generated_Source\PSoC4/cyPm.c **** 
 439              		.loc 1 412 0
 440 0004 FFF7FEFF 		bl	CyEnterCriticalSection
 441              	.LVL19:
 418:.\Generated_Source\PSoC4/cyPm.c ****                             (CY_PM_PWR_STOP_REG & (CY_PM_PWR_STOP_TOKEN_MASK | CY_PM_PWR_STOP_POLAR
 442              		.loc 1 418 0
 443 0008 074B     		ldr	r3, .L32
 444 000a 0849     		ldr	r1, .L32+4
 445 000c 1A68     		ldr	r2, [r3]
 417:.\Generated_Source\PSoC4/cyPm.c ****                             (CY_PM_PWR_STOP_REG & (CY_PM_PWR_STOP_TOKEN_MASK | CY_PM_PWR_STOP_POLAR
 446              		.loc 1 417 0
 447 000e A401     		lsl	r4, r4, #6
 448              		.loc 1 418 0
 449 0010 0A40     		and	r2, r1
 417:.\Generated_Source\PSoC4/cyPm.c ****                             (CY_PM_PWR_STOP_REG & (CY_PM_PWR_STOP_TOKEN_MASK | CY_PM_PWR_STOP_POLAR
 450              		.loc 1 417 0
 451 0012 2243     		orr	r2, r4
 452 0014 1A60     		str	r2, [r3]
 419:.\Generated_Source\PSoC4/cyPm.c **** 
 420:.\Generated_Source\PSoC4/cyPm.c ****         /* If reading after writing, read this register three times to delay
 421:.\Generated_Source\PSoC4/cyPm.c ****         *  enough time for internal settling.
 422:.\Generated_Source\PSoC4/cyPm.c ****         */
 423:.\Generated_Source\PSoC4/cyPm.c ****         (void) CY_PM_PWR_STOP_REG;
 453              		.loc 1 423 0
 454 0016 1A68     		ldr	r2, [r3]
 424:.\Generated_Source\PSoC4/cyPm.c ****         (void) CY_PM_PWR_STOP_REG;
 455              		.loc 1 424 0
 456 0018 1A68     		ldr	r2, [r3]
 425:.\Generated_Source\PSoC4/cyPm.c **** 
 426:.\Generated_Source\PSoC4/cyPm.c ****         /* Lock STOP mode: write PWR_STOP.FREEZE=0, UNLOCK=0x00, STOP=0, .TOKEN */
 427:.\Generated_Source\PSoC4/cyPm.c ****         CY_PM_PWR_STOP_REG &= (CY_PM_PWR_STOP_TOKEN_MASK | CY_PM_PWR_STOP_POLARITY);
ARM GAS  C:\Users\Helon\AppData\Local\Temp\cc82k9sr.s 			page 17


 457              		.loc 1 427 0
 458 001a 1A68     		ldr	r2, [r3]
 428:.\Generated_Source\PSoC4/cyPm.c **** 
 429:.\Generated_Source\PSoC4/cyPm.c ****         CyExitCriticalSection(interruptState);
 430:.\Generated_Source\PSoC4/cyPm.c ****     }
 459              		.loc 1 430 0
 460              		@ sp needed
 427:.\Generated_Source\PSoC4/cyPm.c **** 
 461              		.loc 1 427 0
 462 001c 1140     		and	r1, r2
 463 001e 1960     		str	r1, [r3]
 429:.\Generated_Source\PSoC4/cyPm.c ****     }
 464              		.loc 1 429 0
 465 0020 FFF7FEFF 		bl	CyExitCriticalSection
 466              	.LVL20:
 467              		.loc 1 430 0
 468 0024 10BD     		pop	{r4, pc}
 469              	.L33:
 470 0026 C046     		.align	2
 471              	.L32:
 472 0028 2C000B40 		.word	1074462764
 473 002c FF000100 		.word	65791
 474              		.cfi_endproc
 475              	.LFE9:
 476              		.size	CySysPmUnfreezeIo, .-CySysPmUnfreezeIo
 477              		.text
 478              	.Letext0:
 479              		.file 2 ".\\Generated_Source\\PSoC4\\cytypes.h"
 480              		.file 3 ".\\Generated_Source\\PSoC4\\CyLib.h"