ARM GAS  C:\Users\Helon\AppData\Local\Temp\cc9zPLcL.s 			page 1


   1              		.cpu cortex-m0
   2              		.fpu softvfp
   3              		.eabi_attribute 20, 1
   4              		.eabi_attribute 21, 1
   5              		.eabi_attribute 23, 3
   6              		.eabi_attribute 24, 1
   7              		.eabi_attribute 25, 1
   8              		.eabi_attribute 26, 1
   9              		.eabi_attribute 30, 4
  10              		.eabi_attribute 34, 0
  11              		.eabi_attribute 18, 4
  12              		.code	16
  13              		.file	"main.c"
  14              		.text
  15              	.Ltext0:
  16              		.cfi_sections	.debug_frame
  17              		.section	.text.startup.main,"ax",%progbits
  18              		.align	1
  19              		.global	main
  20              		.code	16
  21              		.thumb_func
  22              		.type	main, %function
  23              	main:
  24              	.LFB37:
  25              		.file 1 ".\\main.c"
   1:.\main.c      **** /* ========================================
   2:.\main.c      ****  *
   3:.\main.c      ****  * Copyright YOUR COMPANY, THE YEAR
   4:.\main.c      ****  * All Rights Reserved
   5:.\main.c      ****  * UNPUBLISHED, LICENSED SOFTWARE.
   6:.\main.c      ****  *
   7:.\main.c      ****  * CONFIDENTIAL AND PROPRIETARY INFORMATION
   8:.\main.c      ****  * WHICH IS THE PROPERTY OF your company.
   9:.\main.c      ****  *
  10:.\main.c      ****  * ========================================
  11:.\main.c      **** */
  12:.\main.c      **** #include <project.h>
  13:.\main.c      **** #include "BLEApplication.h"
  14:.\main.c      **** #include "BLEClient.h"
  15:.\main.c      **** #include<stdio.h>
  16:.\main.c      **** #include<string.h>
  17:.\main.c      **** #include "WriteUserSFlash.h"
  18:.\main.c      **** /***************************************
  19:.\main.c      **** * Â§ñÈÉ®ÂÖ®Â±ÄÂèòÈáèÂ£∞Êòé
  20:.\main.c      **** ***************************************/
  21:.\main.c      **** //extern uint8_t  StartScan;
  22:.\main.c      **** //extern uint8_t DeviceList[DeviceListCount];
  23:.\main.c      **** //extern AdvDataInfo DeviceInfo;
  24:.\main.c      **** extern uint8_t DeviceCount;
  25:.\main.c      **** extern uint8_t LowPower_EN;
  26:.\main.c      **** //extern char* StringArry[];
  27:.\main.c      **** extern uint8_t rx_isover;
  28:.\main.c      **** extern uint8_t RX_BUFFER[BUFFER_LENGHTH];
  29:.\main.c      **** extern uint8_t Buffer_Length;
  30:.\main.c      **** extern uint8_t charNotificationEnabled;
  31:.\main.c      **** extern uint8_t _10sIsOver;
  32:.\main.c      **** extern CYBLE_GATTC_WRITE_REQ_T writeRequestData;
ARM GAS  C:\Users\Helon\AppData\Local\Temp\cc9zPLcL.s 			page 2


  33:.\main.c      **** extern uint8_t Role;
  34:.\main.c      **** extern uint8_t TroughtTest_Flag;
  35:.\main.c      **** extern uint8_t CommandMode;
  36:.\main.c      **** extern uint8 buffer[20];
  37:.\main.c      **** extern uint16 negotiatedMtu;
  38:.\main.c      **** extern char SetDeviceName[23];
  39:.\main.c      **** extern uint8_t Bond;
  40:.\main.c      **** extern uint8_t ConnStaus;
  41:.\main.c      **** extern CYBLE_GAP_BD_ADDR_T clearAllDevices;
  42:.\main.c      **** //extern uint8_t DeviceConned;
  43:.\main.c      **** //extern CYBLE_CONN_HANDLE_T	connHandle;
  44:.\main.c      **** int main()
  45:.\main.c      **** {
  26              		.loc 1 45 0
  27              		.cfi_startproc
  28 0000 70B5     		push	{r4, r5, r6, lr}
  29              		.cfi_def_cfa_offset 16
  30              		.cfi_offset 4, -16
  31              		.cfi_offset 5, -12
  32              		.cfi_offset 6, -8
  33              		.cfi_offset 14, -4
  34 0002 88B0     		sub	sp, sp, #32
  35              		.cfi_def_cfa_offset 48
  46:.\main.c      ****     CyGlobalIntEnable; /* Enable global interrupts. */
  36              		.loc 1 46 0
  37              	@ 46 ".\main.c" 1
  38 0004 62B6     		CPSIE   i
  39              	@ 0 "" 2
  47:.\main.c      ****     CYBLE_GAP_BONDED_DEV_ADDR_LIST_T bondedDevList;
  48:.\main.c      ****     
  49:.\main.c      ****     /* Place your initialization/startup code here (e.g. MyInst_Start()) */
  50:.\main.c      **** //    uint8_t test[20]={0};
  51:.\main.c      **** //    uint32 test=12345;
  52:.\main.c      ****     if(Central==ReadDataFromSFlash())//ÊØèÊ¨°Â§ç‰ΩçÂùáË¶Å‰ªéSFlash‰∏≠ËØªÂèñÊ®°ÂºèÊ†áÂøó‰ΩçÊù•Âà§Êñ≠
  40              		.loc 1 52 0
  41              		.code	16
  42 0006 FFF7FEFF 		bl	ReadDataFromSFlash
  43              	.LVL0:
  44 000a 194C     		ldr	r4, .L17
  45 000c 0128     		cmp	r0, #1
  46 000e 01D1     		bne	.L2
  53:.\main.c      ****     {
  54:.\main.c      ****         Role=Central;
  47              		.loc 1 54 0
  48 0010 2070     		strb	r0, [r4]
  49 0012 01E0     		b	.L3
  50              	.L2:
  55:.\main.c      ****     }
  56:.\main.c      ****     else
  57:.\main.c      ****     {
  58:.\main.c      ****         Role=Peripheral;
  51              		.loc 1 58 0
  52 0014 0023     		mov	r3, #0
  53 0016 2370     		strb	r3, [r4]
  54              	.L3:
  59:.\main.c      ****     }
  60:.\main.c      ****     if(ReadDeviceNameFromSFlash())
ARM GAS  C:\Users\Helon\AppData\Local\Temp\cc9zPLcL.s 			page 3


  55              		.loc 1 60 0
  56 0018 FFF7FEFF 		bl	ReadDeviceNameFromSFlash
  57              	.LVL1:
  58 001c 0028     		cmp	r0, #0
  59 001e 02D0     		beq	.L4
  61:.\main.c      ****     {
  62:.\main.c      ****         CyBle_GapSetLocalName(SetDeviceName);
  60              		.loc 1 62 0
  61 0020 1448     		ldr	r0, .L17+4
  62 0022 FFF7FEFF 		bl	CyBle_GapSetLocalName
  63              	.LVL2:
  64              	.L4:
  63:.\main.c      ****     }
  64:.\main.c      ****     SystemInitialization();  
  65              		.loc 1 64 0
  66 0026 FFF7FEFF 		bl	SystemInitialization
  67              	.LVL3:
  68              	.L9:
  65:.\main.c      **** //     printf("+AUTHKEY=%6ld\r\n",test);
  66:.\main.c      ****     for(;;)
  67:.\main.c      ****     {
  68:.\main.c      ****         
  69:.\main.c      ****         /* Place your application code here. */ 
  70:.\main.c      **** //        CyDelay(10);
  71:.\main.c      **** //        if(rx_isover)
  72:.\main.c      **** //        {
  73:.\main.c      **** //            rx_isover=FALSE;
  74:.\main.c      **** //            while(0!=UART_SpiUartGetRxBufferSize())
  75:.\main.c      **** //            {                
  76:.\main.c      **** //                RX_BUFFER[Buffer_Length]=UART_UartGetByte();//ËØªÂèñ‰∏≤Âè£Êé•Êî∂ÁºìÂÜ≤Âå∫ÁöÑÊï∞Êç
  77:.\main.c      **** //                Buffer_Length++;
  78:.\main.c      **** ////                UART_UartPutChar(UART_UartGetByte());
  79:.\main.c      **** //            }
  80:.\main.c      **** //            //‰∏≤Âè£Êé•Êî∂ÁöÑÊï∞ÊçÆÈïøÂ∫¶Ê∏ÖÈõ∂,‰ª•‰æø‰∏ã‰∏ÄÊù°ÂëΩ‰ª§ËøáÊù•Êó∂ËøòÊòØÂ≠òÊîæÂú®Êï∞Á
  81:.\main.c      **** //            Buffer_Length=0;
  82:.\main.c      **** //            Parser_UartData((char*)RX_BUFFER);
  83:.\main.c      **** //            memset(RX_BUFFER,0,sizeof(RX_BUFFER));
  84:.\main.c      **** //        }
  85:.\main.c      **** //        if(UART_GetRxInterruptSourceMasked()&UART_INTR_RX_NOT_EMPTY)
  86:.\main.c      **** //        {
  87:.\main.c      **** //            
  88:.\main.c      **** //        }
  89:.\main.c      ****         Master_Slave_UartHandler(Role);
  69              		.loc 1 89 0
  70 002a 2078     		ldrb	r0, [r4]
  71 002c FFF7FEFF 		bl	Master_Slave_UartHandler
  72              	.LVL4:
  90:.\main.c      ****         if(ConnStaus)
  73              		.loc 1 90 0
  74 0030 114B     		ldr	r3, .L17+8
  75 0032 1A78     		ldrb	r2, [r3]
  76 0034 002A     		cmp	r2, #0
  77 0036 17D0     		beq	.L5
  91:.\main.c      ****         {
  92:.\main.c      ****             ConnStaus = FALSE;
  78              		.loc 1 92 0
  79 0038 0022     		mov	r2, #0
ARM GAS  C:\Users\Helon\AppData\Local\Temp\cc9zPLcL.s 			page 4


  93:.\main.c      ****             CyBle_GapGetBondedDevicesList(&bondedDevList);//Èò≤Ê≠¢Âç≥‰ΩøÊéâÁîµÂêéÔºåÂÜçÊ¨°ÂèëËµ∑Ê∏Ö
  80              		.loc 1 93 0
  81 003a 6846     		mov	r0, sp
  92:.\main.c      ****             CyBle_GapGetBondedDevicesList(&bondedDevList);//Èò≤Ê≠¢Âç≥‰ΩøÊéâÁîµÂêéÔºåÂÜçÊ¨°ÂèëËµ∑Ê∏Ö
  82              		.loc 1 92 0
  83 003c 1A70     		strb	r2, [r3]
  84              		.loc 1 93 0
  85 003e FFF7FEFF 		bl	CyBle_GapGetBondedDevicesList
  86              	.LVL5:
  94:.\main.c      ****             if(bondedDevList.count)
  87              		.loc 1 94 0
  88 0042 6B46     		mov	r3, sp
  89 0044 1B78     		ldrb	r3, [r3]
  90 0046 0D4D     		ldr	r5, .L17+12
  91 0048 002B     		cmp	r3, #0
  92 004a 00D0     		beq	.L6
  95:.\main.c      ****                 Bond=TURE;
  93              		.loc 1 95 0
  94 004c 0123     		mov	r3, #1
  95              	.L6:
  96:.\main.c      ****             else
  97:.\main.c      ****                 Bond=FALSE;
  98:.\main.c      ****             CyBle_GapRemoveDeviceFromWhiteList(&clearAllDevices);//Ê∏ÖÈô§ÁªëÂÆöÂÖà‰ªéÁôΩÂêçÂçï‰∏≠Ê∏
  96              		.loc 1 98 0
  97 004e 0C48     		ldr	r0, .L17+16
  97:.\main.c      ****             CyBle_GapRemoveDeviceFromWhiteList(&clearAllDevices);//Ê∏ÖÈô§ÁªëÂÆöÂÖà‰ªéÁôΩÂêçÂçï‰∏≠Ê∏
  98              		.loc 1 97 0
  99 0050 2B70     		strb	r3, [r5]
 100              		.loc 1 98 0
 101 0052 FFF7FEFF 		bl	CyBle_GapRemoveDeviceFromWhiteList
 102              	.LVL6:
 103              	.L8:
  99:.\main.c      ****             while(CYBLE_ERROR_OK != CyBle_StoreBondingData(1));
 104              		.loc 1 99 0 discriminator 1
 105 0056 0120     		mov	r0, #1
 106 0058 FFF7FEFF 		bl	CyBle_StoreBondingData
 107              	.LVL7:
 108 005c 061E     		sub	r6, r0, #0
 109 005e FAD1     		bne	.L8
 100:.\main.c      ****             printf("+BOND=0\r\n");//Ê∏ÖÈô§ÁªëÂÆöÊàêÂäü
 110              		.loc 1 100 0
 111 0060 0848     		ldr	r0, .L17+20
 112 0062 FFF7FEFF 		bl	puts
 113              	.LVL8:
 101:.\main.c      ****             Bond=FALSE;
 114              		.loc 1 101 0
 115 0066 2E70     		strb	r6, [r5]
 116              	.L5:
 102:.\main.c      ****         }
 103:.\main.c      **** //        if(DeviceConned)
 104:.\main.c      **** //        {
 105:.\main.c      **** //            DeviceConned = FALSE;
 106:.\main.c      **** //            range.startHandle=0x0001;//ÂºÄÂßãÂè•ÊüÑ‰∏çËÉΩ‰ªé0ÂºÄÂßãÔºåÂè™ËÉΩ‰ªé1ÂºÄÂßã
 107:.\main.c      **** //            range.endHandle=0xFFFF;  
 108:.\main.c      **** //            CyBle_GattcDiscoverAllCharacteristics(cyBle_connHandle,range);//‰∏ÄÊó¶ËøûÊé•ÂÆåÊàêÂ∞±
 109:.\main.c      **** //            CyBle_ProcessEvents();
 110:.\main.c      **** //        }
ARM GAS  C:\Users\Helon\AppData\Local\Temp\cc9zPLcL.s 			page 5


 111:.\main.c      **** //      ‰øùÂ≠òPeer DeviceÁöÑ‰ø°ÊÅØÂà∞Flash‰∏≠ÔºåÂç≥ÁªëÂÆö‰∏ªÊú∫Á´ØÁöÑ‰ø°ÊÅØÔºåÊñπ‰æø‰∏ãÊ¨°Âø´ÈÄüÈáç
 112:.\main.c      ****         #ifdef RELEASE
 113:.\main.c      ****         if((cyBle_pendingFlashWrite != 0u) &&
 114:.\main.c      ****            ((UART_SpiUartGetTxBufferSize() + UART_GET_TX_FIFO_SR_VALID) == 0u))
 115:.\main.c      ****         {
 116:.\main.c      ****             // Store Bonding informtation to flash             
 117:.\main.c      ****             if ( CyBle_StoreBondingData(0u) == CYBLE_ERROR_OK)
 118:.\main.c      ****             {
 119:.\main.c      ****                 if(Bond==FALSE)
 120:.\main.c      ****                 {
 121:.\main.c      ****                     Bond=TURE;
 122:.\main.c      ****                     printf("+BOND=1\r\n");
 123:.\main.c      ****                 }
 124:.\main.c      ****             }
 125:.\main.c      **** //            else
 126:.\main.c      **** //            {
 127:.\main.c      **** ////                printf ("Bonding data storing pending\r\n");
 128:.\main.c      **** //            }
 129:.\main.c      ****         }
 130:.\main.c      ****         #endif
 131:.\main.c      ****         //‰∏ªÊú∫Â§ÑÁêÜ10sÂÆöÊó∂Âô®,10ÁßíÂÜÖÁªô‰ªéÊú∫ÂèëÈÄÅÁöÑÊï∞ÊçÆÔºåÊµãËØïÈÄè‰º†ÈÄüÁéá‰ΩøÁî®
 132:.\main.c      **** //        if(_10sIsOver)
 133:.\main.c      **** //        {
 134:.\main.c      **** //            _10sIsOver=FALSE;
 135:.\main.c      **** //            memcpy(test,buffer,20);
 136:.\main.c      **** //            writeRequestData.value.val=test;
 137:.\main.c      **** //            writeRequestData.value.len=20;
 138:.\main.c      **** //            writeRequestData.attrHandle=CYBLE_TROUGHPUT_SERVICE_CUSTOM_CHARACTERISTIC_CHAR_HANDLE
 139:.\main.c      **** //            CyBle_GattcWriteWithoutResponse(cyBle_connHandle, &writeRequestData);
 140:.\main.c      **** ////            writeRequestData.value.val[0]=0x00;
 141:.\main.c      **** ////            writeRequestData.attrHandle=CYBLE_TROUGHPUT_SERVICE_SPEEDTEST_CHAR_HANDLE;
 142:.\main.c      **** ////            CyBle_GattcWriteCharacteristicValue(cyBle_connHandle, &writeRequestData);   
 143:.\main.c      **** //            CyBle_ProcessEvents(); 
 144:.\main.c      **** //        }
 145:.\main.c      ****         //        ÊµãËØïÈÄè‰º†ÈÄüÁéáÁî®
 146:.\main.c      **** //        if((TroughtTest_Flag == TURE)&&(Role == Peripheral))
 147:.\main.c      **** //        {
 148:.\main.c      **** //            /* Send new data only when the previous data has gone out, 
 149:.\main.c      **** //             * which is indicated by Stack being Free.
 150:.\main.c      **** //             */
 151:.\main.c      **** ////            printf("SendNotification\r\n");
 152:.\main.c      **** //            if(CyBle_GattGetBusStatus() == CYBLE_STACK_STATE_FREE)
 153:.\main.c      **** //            {
 154:.\main.c      **** //                SendNotification(buffer,negotiated Mtu);                
 155:.\main.c      **** //            }
 156:.\main.c      **** //        }
 157:.\main.c      **** //        if(LowPower_EN)
 158:.\main.c      **** //        {
 159:.\main.c      **** //            CyBle_ProcessEvents();            
 160:.\main.c      **** //            LowPowerManagement();
 161:.\main.c      **** //        }
 162:.\main.c      ****         
 163:.\main.c      **** //        #ifdef LOW_POWER_EN
 164:.\main.c      **** //        /* Call CyBle_ProcessEvents to process all events before going to sleep. */
 165:.\main.c      **** //		CyBle_ProcessEvents();            
 166:.\main.c      **** //        LowPowerManagement();
 167:.\main.c      **** //        #endif    
ARM GAS  C:\Users\Helon\AppData\Local\Temp\cc9zPLcL.s 			page 6


 168:.\main.c      ****         CyBle_ProcessEvents();
 117              		.loc 1 168 0
 118 0068 FFF7FEFF 		bl	CyBle_ProcessEvents
 119              	.LVL9:
 169:.\main.c      ****     }
 120              		.loc 1 169 0
 121 006c DDE7     		b	.L9
 122              	.L18:
 123 006e C046     		.align	2
 124              	.L17:
 125 0070 00000000 		.word	Role
 126 0074 00000000 		.word	SetDeviceName
 127 0078 00000000 		.word	ConnStaus
 128 007c 00000000 		.word	Bond
 129 0080 00000000 		.word	clearAllDevices
 130 0084 00000000 		.word	.LC5
 131              		.cfi_endproc
 132              	.LFE37:
 133              		.size	main, .-main
 134              		.section	.rodata.str1.1,"aMS",%progbits,1
 135              	.LC5:
 136 0000 2B424F4E 		.ascii	"+BOND=0\015\000"
 136      443D300D 
 136      00
 137              		.text
 138              	.Letext0:
 139              		.file 2 "c:\\program files (x86)\\cypress\\psoc creator\\3.3\\psoc creator\\import\\gnu\\arm\\4.9.
 140              		.file 3 "c:\\program files (x86)\\cypress\\psoc creator\\3.3\\psoc creator\\import\\gnu\\arm\\4.9.
 141              		.file 4 "Generated_Source\\PSoC4/cytypes.h"
 142              		.file 5 "Generated_Source\\PSoC4/BLE_Stack.h"
 143              		.file 6 "Generated_Source\\PSoC4/BLE_StackGap.h"
 144              		.file 7 ".\\WriteUserSFlash.h"
 145              		.file 8 ".\\BLEApplication.h"
 146              		.file 9 "Generated_Source\\PSoC4/BLE_eventHandler.h"
 147              		.file 10 "Generated_Source\\PSoC4/BLE.h"
 148              		.file 11 "<built-in>"