ARM GAS  C:\Users\Helon\AppData\Local\Temp\ccSjkW6b.s 			page 1


   1              		.cpu cortex-m0
   2              		.fpu softvfp
   3              		.eabi_attribute 20, 1
   4              		.eabi_attribute 21, 1
   5              		.eabi_attribute 23, 3
   6              		.eabi_attribute 24, 1
   7              		.eabi_attribute 25, 1
   8              		.eabi_attribute 26, 1
   9              		.eabi_attribute 30, 4
  10              		.eabi_attribute 34, 0
  11              		.eabi_attribute 18, 4
  12              		.code	16
  13              		.file	"Timer.c"
  14              		.text
  15              	.Ltext0:
  16              		.cfi_sections	.debug_frame
  17              		.section	.text.Timer_Init,"ax",%progbits
  18              		.align	1
  19              		.global	Timer_Init
  20              		.code	16
  21              		.thumb_func
  22              		.type	Timer_Init, %function
  23              	Timer_Init:
  24              	.LFB2:
  25              		.file 1 ".\\Generated_Source\\PSoC4\\Timer.c"
   1:.\Generated_Source\PSoC4/Timer.c **** /*******************************************************************************
   2:.\Generated_Source\PSoC4/Timer.c **** * File Name: Timer.c
   3:.\Generated_Source\PSoC4/Timer.c **** * Version 2.10
   4:.\Generated_Source\PSoC4/Timer.c **** *
   5:.\Generated_Source\PSoC4/Timer.c **** * Description:
   6:.\Generated_Source\PSoC4/Timer.c **** *  This file provides the source code to the API for the Timer
   7:.\Generated_Source\PSoC4/Timer.c **** *  component
   8:.\Generated_Source\PSoC4/Timer.c **** *
   9:.\Generated_Source\PSoC4/Timer.c **** * Note:
  10:.\Generated_Source\PSoC4/Timer.c **** *  None
  11:.\Generated_Source\PSoC4/Timer.c **** *
  12:.\Generated_Source\PSoC4/Timer.c **** ********************************************************************************
  13:.\Generated_Source\PSoC4/Timer.c **** * Copyright 2013-2015, Cypress Semiconductor Corporation.  All rights reserved.
  14:.\Generated_Source\PSoC4/Timer.c **** * You may use this file only in accordance with the license, terms, conditions,
  15:.\Generated_Source\PSoC4/Timer.c **** * disclaimers, and limitations in the end user license agreement accompanying
  16:.\Generated_Source\PSoC4/Timer.c **** * the software package with which this file was provided.
  17:.\Generated_Source\PSoC4/Timer.c **** *******************************************************************************/
  18:.\Generated_Source\PSoC4/Timer.c **** 
  19:.\Generated_Source\PSoC4/Timer.c **** #include "Timer.h"
  20:.\Generated_Source\PSoC4/Timer.c **** 
  21:.\Generated_Source\PSoC4/Timer.c **** uint8 Timer_initVar = 0u;
  22:.\Generated_Source\PSoC4/Timer.c **** 
  23:.\Generated_Source\PSoC4/Timer.c **** 
  24:.\Generated_Source\PSoC4/Timer.c **** /*******************************************************************************
  25:.\Generated_Source\PSoC4/Timer.c **** * Function Name: Timer_Init
  26:.\Generated_Source\PSoC4/Timer.c **** ********************************************************************************
  27:.\Generated_Source\PSoC4/Timer.c **** *
  28:.\Generated_Source\PSoC4/Timer.c **** * Summary:
  29:.\Generated_Source\PSoC4/Timer.c **** *  Initialize/Restore default Timer configuration.
  30:.\Generated_Source\PSoC4/Timer.c **** *
  31:.\Generated_Source\PSoC4/Timer.c **** * Parameters:
  32:.\Generated_Source\PSoC4/Timer.c **** *  None
ARM GAS  C:\Users\Helon\AppData\Local\Temp\ccSjkW6b.s 			page 2


  33:.\Generated_Source\PSoC4/Timer.c **** *
  34:.\Generated_Source\PSoC4/Timer.c **** * Return:
  35:.\Generated_Source\PSoC4/Timer.c **** *  None
  36:.\Generated_Source\PSoC4/Timer.c **** *
  37:.\Generated_Source\PSoC4/Timer.c **** *******************************************************************************/
  38:.\Generated_Source\PSoC4/Timer.c **** void Timer_Init(void)
  39:.\Generated_Source\PSoC4/Timer.c **** {
  26              		.loc 1 39 0
  27              		.cfi_startproc
  40:.\Generated_Source\PSoC4/Timer.c **** 
  41:.\Generated_Source\PSoC4/Timer.c ****     /* Set values from customizer to CTRL */
  42:.\Generated_Source\PSoC4/Timer.c ****     #if (Timer__QUAD == Timer_CONFIG)
  43:.\Generated_Source\PSoC4/Timer.c ****         Timer_CONTROL_REG = Timer_CTRL_QUAD_BASE_CONFIG;
  44:.\Generated_Source\PSoC4/Timer.c ****         
  45:.\Generated_Source\PSoC4/Timer.c ****         /* Set values from customizer to CTRL1 */
  46:.\Generated_Source\PSoC4/Timer.c ****         Timer_TRIG_CONTROL1_REG  = Timer_QUAD_SIGNALS_MODES;
  47:.\Generated_Source\PSoC4/Timer.c **** 
  48:.\Generated_Source\PSoC4/Timer.c ****         /* Set values from customizer to INTR */
  49:.\Generated_Source\PSoC4/Timer.c ****         Timer_SetInterruptMode(Timer_QUAD_INTERRUPT_MASK);
  50:.\Generated_Source\PSoC4/Timer.c ****         
  51:.\Generated_Source\PSoC4/Timer.c ****          /* Set other values */
  52:.\Generated_Source\PSoC4/Timer.c ****         Timer_SetCounterMode(Timer_COUNT_DOWN);
  53:.\Generated_Source\PSoC4/Timer.c ****         Timer_WritePeriod(Timer_QUAD_PERIOD_INIT_VALUE);
  54:.\Generated_Source\PSoC4/Timer.c ****         Timer_WriteCounter(Timer_QUAD_PERIOD_INIT_VALUE);
  55:.\Generated_Source\PSoC4/Timer.c ****     #endif  /* (Timer__QUAD == Timer_CONFIG) */
  56:.\Generated_Source\PSoC4/Timer.c **** 
  57:.\Generated_Source\PSoC4/Timer.c ****     #if (Timer__TIMER == Timer_CONFIG)
  58:.\Generated_Source\PSoC4/Timer.c ****         Timer_CONTROL_REG = Timer_CTRL_TIMER_BASE_CONFIG;
  28              		.loc 1 58 0
  29 0000 0023     		mov	r3, #0
  59:.\Generated_Source\PSoC4/Timer.c ****         
  60:.\Generated_Source\PSoC4/Timer.c ****         /* Set values from customizer to CTRL1 */
  61:.\Generated_Source\PSoC4/Timer.c ****         Timer_TRIG_CONTROL1_REG  = Timer_TIMER_SIGNALS_MODES;
  30              		.loc 1 61 0
  31 0002 0C21     		mov	r1, #12
  58:.\Generated_Source\PSoC4/Timer.c ****         
  32              		.loc 1 58 0
  33 0004 074A     		ldr	r2, .L2
  62:.\Generated_Source\PSoC4/Timer.c ****     
  63:.\Generated_Source\PSoC4/Timer.c ****         /* Set values from customizer to INTR */
  64:.\Generated_Source\PSoC4/Timer.c ****         Timer_SetInterruptMode(Timer_TC_INTERRUPT_MASK);
  65:.\Generated_Source\PSoC4/Timer.c ****         
  66:.\Generated_Source\PSoC4/Timer.c ****         /* Set other values from customizer */
  67:.\Generated_Source\PSoC4/Timer.c ****         Timer_WritePeriod(Timer_TC_PERIOD_VALUE );
  68:.\Generated_Source\PSoC4/Timer.c **** 
  69:.\Generated_Source\PSoC4/Timer.c ****         #if (Timer__COMPARE == Timer_TC_COMP_CAP_MODE)
  70:.\Generated_Source\PSoC4/Timer.c ****             Timer_WriteCompare(Timer_TC_COMPARE_VALUE);
  71:.\Generated_Source\PSoC4/Timer.c **** 
  72:.\Generated_Source\PSoC4/Timer.c ****             #if (1u == Timer_TC_COMPARE_SWAP)
  73:.\Generated_Source\PSoC4/Timer.c ****                 Timer_SetCompareSwap(1u);
  74:.\Generated_Source\PSoC4/Timer.c ****                 Timer_WriteCompareBuf(Timer_TC_COMPARE_BUF_VALUE);
  75:.\Generated_Source\PSoC4/Timer.c ****             #endif  /* (1u == Timer_TC_COMPARE_SWAP) */
  76:.\Generated_Source\PSoC4/Timer.c ****         #endif  /* (Timer__COMPARE == Timer_TC_COMP_CAP_MODE) */
  77:.\Generated_Source\PSoC4/Timer.c **** 
  78:.\Generated_Source\PSoC4/Timer.c ****         /* Initialize counter value */
  79:.\Generated_Source\PSoC4/Timer.c ****         #if (Timer_CY_TCPWM_V2 && Timer_TIMER_UPDOWN_CNT_USED && !Timer_CY_TCPWM_4000)
  80:.\Generated_Source\PSoC4/Timer.c ****             Timer_WriteCounter(1u);
ARM GAS  C:\Users\Helon\AppData\Local\Temp\ccSjkW6b.s 			page 3


  81:.\Generated_Source\PSoC4/Timer.c ****         #elif(Timer__COUNT_DOWN == Timer_TC_COUNTER_MODE)
  82:.\Generated_Source\PSoC4/Timer.c ****             Timer_WriteCounter(Timer_TC_PERIOD_VALUE);
  83:.\Generated_Source\PSoC4/Timer.c ****         #else
  84:.\Generated_Source\PSoC4/Timer.c ****             Timer_WriteCounter(0u);
  85:.\Generated_Source\PSoC4/Timer.c ****         #endif /* (Timer_CY_TCPWM_V2 && Timer_TIMER_UPDOWN_CNT_USED && !Timer_CY_TCPWM_4000) */
  86:.\Generated_Source\PSoC4/Timer.c ****     #endif  /* (Timer__TIMER == Timer_CONFIG) */
  87:.\Generated_Source\PSoC4/Timer.c **** 
  88:.\Generated_Source\PSoC4/Timer.c ****     #if (Timer__PWM_SEL == Timer_CONFIG)
  89:.\Generated_Source\PSoC4/Timer.c ****         Timer_CONTROL_REG = Timer_CTRL_PWM_BASE_CONFIG;
  90:.\Generated_Source\PSoC4/Timer.c **** 
  91:.\Generated_Source\PSoC4/Timer.c ****         #if (Timer__PWM_PR == Timer_PWM_MODE)
  92:.\Generated_Source\PSoC4/Timer.c ****             Timer_CONTROL_REG |= Timer_CTRL_PWM_RUN_MODE;
  93:.\Generated_Source\PSoC4/Timer.c ****             Timer_WriteCounter(Timer_PWM_PR_INIT_VALUE);
  94:.\Generated_Source\PSoC4/Timer.c ****         #else
  95:.\Generated_Source\PSoC4/Timer.c ****             Timer_CONTROL_REG |= Timer_CTRL_PWM_ALIGN | Timer_CTRL_PWM_KILL_EVENT;
  96:.\Generated_Source\PSoC4/Timer.c ****             
  97:.\Generated_Source\PSoC4/Timer.c ****             /* Initialize counter value */
  98:.\Generated_Source\PSoC4/Timer.c ****             #if (Timer_CY_TCPWM_V2 && Timer_PWM_UPDOWN_CNT_USED && !Timer_CY_TCPWM_4000)
  99:.\Generated_Source\PSoC4/Timer.c ****                 Timer_WriteCounter(1u);
 100:.\Generated_Source\PSoC4/Timer.c ****             #elif (Timer__RIGHT == Timer_PWM_ALIGN)
 101:.\Generated_Source\PSoC4/Timer.c ****                 Timer_WriteCounter(Timer_PWM_PERIOD_VALUE);
 102:.\Generated_Source\PSoC4/Timer.c ****             #else 
 103:.\Generated_Source\PSoC4/Timer.c ****                 Timer_WriteCounter(0u);
 104:.\Generated_Source\PSoC4/Timer.c ****             #endif  /* (Timer_CY_TCPWM_V2 && Timer_PWM_UPDOWN_CNT_USED && !Timer_CY_TCPWM_4000) */
 105:.\Generated_Source\PSoC4/Timer.c ****         #endif  /* (Timer__PWM_PR == Timer_PWM_MODE) */
 106:.\Generated_Source\PSoC4/Timer.c **** 
 107:.\Generated_Source\PSoC4/Timer.c ****         #if (Timer__PWM_DT == Timer_PWM_MODE)
 108:.\Generated_Source\PSoC4/Timer.c ****             Timer_CONTROL_REG |= Timer_CTRL_PWM_DEAD_TIME_CYCLE;
 109:.\Generated_Source\PSoC4/Timer.c ****         #endif  /* (Timer__PWM_DT == Timer_PWM_MODE) */
 110:.\Generated_Source\PSoC4/Timer.c **** 
 111:.\Generated_Source\PSoC4/Timer.c ****         #if (Timer__PWM == Timer_PWM_MODE)
 112:.\Generated_Source\PSoC4/Timer.c ****             Timer_CONTROL_REG |= Timer_CTRL_PWM_PRESCALER;
 113:.\Generated_Source\PSoC4/Timer.c ****         #endif  /* (Timer__PWM == Timer_PWM_MODE) */
 114:.\Generated_Source\PSoC4/Timer.c **** 
 115:.\Generated_Source\PSoC4/Timer.c ****         /* Set values from customizer to CTRL1 */
 116:.\Generated_Source\PSoC4/Timer.c ****         Timer_TRIG_CONTROL1_REG  = Timer_PWM_SIGNALS_MODES;
 117:.\Generated_Source\PSoC4/Timer.c ****     
 118:.\Generated_Source\PSoC4/Timer.c ****         /* Set values from customizer to INTR */
 119:.\Generated_Source\PSoC4/Timer.c ****         Timer_SetInterruptMode(Timer_PWM_INTERRUPT_MASK);
 120:.\Generated_Source\PSoC4/Timer.c **** 
 121:.\Generated_Source\PSoC4/Timer.c ****         /* Set values from customizer to CTRL2 */
 122:.\Generated_Source\PSoC4/Timer.c ****         #if (Timer__PWM_PR == Timer_PWM_MODE)
 123:.\Generated_Source\PSoC4/Timer.c ****             Timer_TRIG_CONTROL2_REG =
 124:.\Generated_Source\PSoC4/Timer.c ****                     (Timer_CC_MATCH_NO_CHANGE    |
 125:.\Generated_Source\PSoC4/Timer.c ****                     Timer_OVERLOW_NO_CHANGE      |
 126:.\Generated_Source\PSoC4/Timer.c ****                     Timer_UNDERFLOW_NO_CHANGE);
 127:.\Generated_Source\PSoC4/Timer.c ****         #else
 128:.\Generated_Source\PSoC4/Timer.c ****             #if (Timer__LEFT == Timer_PWM_ALIGN)
 129:.\Generated_Source\PSoC4/Timer.c ****                 Timer_TRIG_CONTROL2_REG = Timer_PWM_MODE_LEFT;
 130:.\Generated_Source\PSoC4/Timer.c ****             #endif  /* ( Timer_PWM_LEFT == Timer_PWM_ALIGN) */
 131:.\Generated_Source\PSoC4/Timer.c **** 
 132:.\Generated_Source\PSoC4/Timer.c ****             #if (Timer__RIGHT == Timer_PWM_ALIGN)
 133:.\Generated_Source\PSoC4/Timer.c ****                 Timer_TRIG_CONTROL2_REG = Timer_PWM_MODE_RIGHT;
 134:.\Generated_Source\PSoC4/Timer.c ****             #endif  /* ( Timer_PWM_RIGHT == Timer_PWM_ALIGN) */
 135:.\Generated_Source\PSoC4/Timer.c **** 
 136:.\Generated_Source\PSoC4/Timer.c ****             #if (Timer__CENTER == Timer_PWM_ALIGN)
 137:.\Generated_Source\PSoC4/Timer.c ****                 Timer_TRIG_CONTROL2_REG = Timer_PWM_MODE_CENTER;
ARM GAS  C:\Users\Helon\AppData\Local\Temp\ccSjkW6b.s 			page 4


 138:.\Generated_Source\PSoC4/Timer.c ****             #endif  /* ( Timer_PWM_CENTER == Timer_PWM_ALIGN) */
 139:.\Generated_Source\PSoC4/Timer.c **** 
 140:.\Generated_Source\PSoC4/Timer.c ****             #if (Timer__ASYMMETRIC == Timer_PWM_ALIGN)
 141:.\Generated_Source\PSoC4/Timer.c ****                 Timer_TRIG_CONTROL2_REG = Timer_PWM_MODE_ASYM;
 142:.\Generated_Source\PSoC4/Timer.c ****             #endif  /* (Timer__ASYMMETRIC == Timer_PWM_ALIGN) */
 143:.\Generated_Source\PSoC4/Timer.c ****         #endif  /* (Timer__PWM_PR == Timer_PWM_MODE) */
 144:.\Generated_Source\PSoC4/Timer.c **** 
 145:.\Generated_Source\PSoC4/Timer.c ****         /* Set other values from customizer */
 146:.\Generated_Source\PSoC4/Timer.c ****         Timer_WritePeriod(Timer_PWM_PERIOD_VALUE );
 147:.\Generated_Source\PSoC4/Timer.c ****         Timer_WriteCompare(Timer_PWM_COMPARE_VALUE);
 148:.\Generated_Source\PSoC4/Timer.c **** 
 149:.\Generated_Source\PSoC4/Timer.c ****         #if (1u == Timer_PWM_COMPARE_SWAP)
 150:.\Generated_Source\PSoC4/Timer.c ****             Timer_SetCompareSwap(1u);
 151:.\Generated_Source\PSoC4/Timer.c ****             Timer_WriteCompareBuf(Timer_PWM_COMPARE_BUF_VALUE);
 152:.\Generated_Source\PSoC4/Timer.c ****         #endif  /* (1u == Timer_PWM_COMPARE_SWAP) */
 153:.\Generated_Source\PSoC4/Timer.c **** 
 154:.\Generated_Source\PSoC4/Timer.c ****         #if (1u == Timer_PWM_PERIOD_SWAP)
 155:.\Generated_Source\PSoC4/Timer.c ****             Timer_SetPeriodSwap(1u);
 156:.\Generated_Source\PSoC4/Timer.c ****             Timer_WritePeriodBuf(Timer_PWM_PERIOD_BUF_VALUE);
 157:.\Generated_Source\PSoC4/Timer.c ****         #endif  /* (1u == Timer_PWM_PERIOD_SWAP) */
 158:.\Generated_Source\PSoC4/Timer.c ****     #endif  /* (Timer__PWM_SEL == Timer_CONFIG) */
 159:.\Generated_Source\PSoC4/Timer.c ****     
 160:.\Generated_Source\PSoC4/Timer.c **** }
  34              		.loc 1 160 0
  35              		@ sp needed
  58:.\Generated_Source\PSoC4/Timer.c ****         
  36              		.loc 1 58 0
  37 0006 1360     		str	r3, [r2]
  61:.\Generated_Source\PSoC4/Timer.c ****     
  38              		.loc 1 61 0
  39 0008 074A     		ldr	r2, .L2+4
  40 000a 1160     		str	r1, [r2]
  41              	.LVL0:
  42              	.LBB10:
  43              	.LBB11:
 161:.\Generated_Source\PSoC4/Timer.c **** 
 162:.\Generated_Source\PSoC4/Timer.c **** 
 163:.\Generated_Source\PSoC4/Timer.c **** /*******************************************************************************
 164:.\Generated_Source\PSoC4/Timer.c **** * Function Name: Timer_Enable
 165:.\Generated_Source\PSoC4/Timer.c **** ********************************************************************************
 166:.\Generated_Source\PSoC4/Timer.c **** *
 167:.\Generated_Source\PSoC4/Timer.c **** * Summary:
 168:.\Generated_Source\PSoC4/Timer.c **** *  Enables the Timer.
 169:.\Generated_Source\PSoC4/Timer.c **** *
 170:.\Generated_Source\PSoC4/Timer.c **** * Parameters:
 171:.\Generated_Source\PSoC4/Timer.c **** *  None
 172:.\Generated_Source\PSoC4/Timer.c **** *
 173:.\Generated_Source\PSoC4/Timer.c **** * Return:
 174:.\Generated_Source\PSoC4/Timer.c **** *  None
 175:.\Generated_Source\PSoC4/Timer.c **** *
 176:.\Generated_Source\PSoC4/Timer.c **** *******************************************************************************/
 177:.\Generated_Source\PSoC4/Timer.c **** void Timer_Enable(void)
 178:.\Generated_Source\PSoC4/Timer.c **** {
 179:.\Generated_Source\PSoC4/Timer.c ****     uint8 enableInterrupts;
 180:.\Generated_Source\PSoC4/Timer.c **** 
 181:.\Generated_Source\PSoC4/Timer.c ****     enableInterrupts = CyEnterCriticalSection();
 182:.\Generated_Source\PSoC4/Timer.c ****     Timer_BLOCK_CONTROL_REG |= Timer_MASK;
ARM GAS  C:\Users\Helon\AppData\Local\Temp\ccSjkW6b.s 			page 5


 183:.\Generated_Source\PSoC4/Timer.c ****     CyExitCriticalSection(enableInterrupts);
 184:.\Generated_Source\PSoC4/Timer.c **** 
 185:.\Generated_Source\PSoC4/Timer.c ****     /* Start Timer or PWM if start input is absent */
 186:.\Generated_Source\PSoC4/Timer.c ****     #if (Timer__PWM_SEL == Timer_CONFIG)
 187:.\Generated_Source\PSoC4/Timer.c ****         #if (0u == Timer_PWM_START_SIGNAL_PRESENT)
 188:.\Generated_Source\PSoC4/Timer.c ****             Timer_TriggerCommand(Timer_MASK, Timer_CMD_START);
 189:.\Generated_Source\PSoC4/Timer.c ****         #endif /* (0u == Timer_PWM_START_SIGNAL_PRESENT) */
 190:.\Generated_Source\PSoC4/Timer.c ****     #endif /* (Timer__PWM_SEL == Timer_CONFIG) */
 191:.\Generated_Source\PSoC4/Timer.c **** 
 192:.\Generated_Source\PSoC4/Timer.c ****     #if (Timer__TIMER == Timer_CONFIG)
 193:.\Generated_Source\PSoC4/Timer.c ****         #if (0u == Timer_TC_START_SIGNAL_PRESENT)
 194:.\Generated_Source\PSoC4/Timer.c ****             Timer_TriggerCommand(Timer_MASK, Timer_CMD_START);
 195:.\Generated_Source\PSoC4/Timer.c ****         #endif /* (0u == Timer_TC_START_SIGNAL_PRESENT) */
 196:.\Generated_Source\PSoC4/Timer.c ****     #endif /* (Timer__TIMER == Timer_CONFIG) */
 197:.\Generated_Source\PSoC4/Timer.c ****     
 198:.\Generated_Source\PSoC4/Timer.c ****     #if (Timer__QUAD == Timer_CONFIG)
 199:.\Generated_Source\PSoC4/Timer.c ****         #if (0u != Timer_QUAD_AUTO_START)
 200:.\Generated_Source\PSoC4/Timer.c ****             Timer_TriggerCommand(Timer_MASK, Timer_CMD_RELOAD);
 201:.\Generated_Source\PSoC4/Timer.c ****         #endif /* (0u != Timer_QUAD_AUTO_START) */
 202:.\Generated_Source\PSoC4/Timer.c ****     #endif  /* (Timer__QUAD == Timer_CONFIG) */
 203:.\Generated_Source\PSoC4/Timer.c **** }
 204:.\Generated_Source\PSoC4/Timer.c **** 
 205:.\Generated_Source\PSoC4/Timer.c **** 
 206:.\Generated_Source\PSoC4/Timer.c **** /*******************************************************************************
 207:.\Generated_Source\PSoC4/Timer.c **** * Function Name: Timer_Start
 208:.\Generated_Source\PSoC4/Timer.c **** ********************************************************************************
 209:.\Generated_Source\PSoC4/Timer.c **** *
 210:.\Generated_Source\PSoC4/Timer.c **** * Summary:
 211:.\Generated_Source\PSoC4/Timer.c **** *  Initializes the Timer with default customizer
 212:.\Generated_Source\PSoC4/Timer.c **** *  values when called the first time and enables the Timer.
 213:.\Generated_Source\PSoC4/Timer.c **** *  For subsequent calls the configuration is left unchanged and the component is
 214:.\Generated_Source\PSoC4/Timer.c **** *  just enabled.
 215:.\Generated_Source\PSoC4/Timer.c **** *
 216:.\Generated_Source\PSoC4/Timer.c **** * Parameters:
 217:.\Generated_Source\PSoC4/Timer.c **** *  None
 218:.\Generated_Source\PSoC4/Timer.c **** *
 219:.\Generated_Source\PSoC4/Timer.c **** * Return:
 220:.\Generated_Source\PSoC4/Timer.c **** *  None
 221:.\Generated_Source\PSoC4/Timer.c **** *
 222:.\Generated_Source\PSoC4/Timer.c **** * Global variables:
 223:.\Generated_Source\PSoC4/Timer.c **** *  Timer_initVar: global variable is used to indicate initial
 224:.\Generated_Source\PSoC4/Timer.c **** *  configuration of this component.  The variable is initialized to zero and set
 225:.\Generated_Source\PSoC4/Timer.c **** *  to 1 the first time Timer_Start() is called. This allows
 226:.\Generated_Source\PSoC4/Timer.c **** *  enabling/disabling a component without re-initialization in all subsequent
 227:.\Generated_Source\PSoC4/Timer.c **** *  calls to the Timer_Start() routine.
 228:.\Generated_Source\PSoC4/Timer.c **** *
 229:.\Generated_Source\PSoC4/Timer.c **** *******************************************************************************/
 230:.\Generated_Source\PSoC4/Timer.c **** void Timer_Start(void)
 231:.\Generated_Source\PSoC4/Timer.c **** {
 232:.\Generated_Source\PSoC4/Timer.c ****     if (0u == Timer_initVar)
 233:.\Generated_Source\PSoC4/Timer.c ****     {
 234:.\Generated_Source\PSoC4/Timer.c ****         Timer_Init();
 235:.\Generated_Source\PSoC4/Timer.c ****         Timer_initVar = 1u;
 236:.\Generated_Source\PSoC4/Timer.c ****     }
 237:.\Generated_Source\PSoC4/Timer.c **** 
 238:.\Generated_Source\PSoC4/Timer.c ****     Timer_Enable();
 239:.\Generated_Source\PSoC4/Timer.c **** }
ARM GAS  C:\Users\Helon\AppData\Local\Temp\ccSjkW6b.s 			page 6


 240:.\Generated_Source\PSoC4/Timer.c **** 
 241:.\Generated_Source\PSoC4/Timer.c **** 
 242:.\Generated_Source\PSoC4/Timer.c **** /*******************************************************************************
 243:.\Generated_Source\PSoC4/Timer.c **** * Function Name: Timer_Stop
 244:.\Generated_Source\PSoC4/Timer.c **** ********************************************************************************
 245:.\Generated_Source\PSoC4/Timer.c **** *
 246:.\Generated_Source\PSoC4/Timer.c **** * Summary:
 247:.\Generated_Source\PSoC4/Timer.c **** *  Disables the Timer.
 248:.\Generated_Source\PSoC4/Timer.c **** *
 249:.\Generated_Source\PSoC4/Timer.c **** * Parameters:
 250:.\Generated_Source\PSoC4/Timer.c **** *  None
 251:.\Generated_Source\PSoC4/Timer.c **** *
 252:.\Generated_Source\PSoC4/Timer.c **** * Return:
 253:.\Generated_Source\PSoC4/Timer.c **** *  None
 254:.\Generated_Source\PSoC4/Timer.c **** *
 255:.\Generated_Source\PSoC4/Timer.c **** *******************************************************************************/
 256:.\Generated_Source\PSoC4/Timer.c **** void Timer_Stop(void)
 257:.\Generated_Source\PSoC4/Timer.c **** {
 258:.\Generated_Source\PSoC4/Timer.c ****     uint8 enableInterrupts;
 259:.\Generated_Source\PSoC4/Timer.c **** 
 260:.\Generated_Source\PSoC4/Timer.c ****     enableInterrupts = CyEnterCriticalSection();
 261:.\Generated_Source\PSoC4/Timer.c **** 
 262:.\Generated_Source\PSoC4/Timer.c ****     Timer_BLOCK_CONTROL_REG &= (uint32)~Timer_MASK;
 263:.\Generated_Source\PSoC4/Timer.c **** 
 264:.\Generated_Source\PSoC4/Timer.c ****     CyExitCriticalSection(enableInterrupts);
 265:.\Generated_Source\PSoC4/Timer.c **** }
 266:.\Generated_Source\PSoC4/Timer.c **** 
 267:.\Generated_Source\PSoC4/Timer.c **** 
 268:.\Generated_Source\PSoC4/Timer.c **** /*******************************************************************************
 269:.\Generated_Source\PSoC4/Timer.c **** * Function Name: Timer_SetMode
 270:.\Generated_Source\PSoC4/Timer.c **** ********************************************************************************
 271:.\Generated_Source\PSoC4/Timer.c **** *
 272:.\Generated_Source\PSoC4/Timer.c **** * Summary:
 273:.\Generated_Source\PSoC4/Timer.c **** *  Sets the operation mode of the Timer. This function is used when
 274:.\Generated_Source\PSoC4/Timer.c **** *  configured as a generic Timer and the actual mode of operation is
 275:.\Generated_Source\PSoC4/Timer.c **** *  set at runtime. The mode must be set while the component is disabled.
 276:.\Generated_Source\PSoC4/Timer.c **** *
 277:.\Generated_Source\PSoC4/Timer.c **** * Parameters:
 278:.\Generated_Source\PSoC4/Timer.c **** *  mode: Mode for the Timer to operate in
 279:.\Generated_Source\PSoC4/Timer.c **** *   Values:
 280:.\Generated_Source\PSoC4/Timer.c **** *   - Timer_MODE_TIMER_COMPARE - Timer / Counter with
 281:.\Generated_Source\PSoC4/Timer.c **** *                                                 compare capability
 282:.\Generated_Source\PSoC4/Timer.c **** *         - Timer_MODE_TIMER_CAPTURE - Timer / Counter with
 283:.\Generated_Source\PSoC4/Timer.c **** *                                                 capture capability
 284:.\Generated_Source\PSoC4/Timer.c **** *         - Timer_MODE_QUAD - Quadrature decoder
 285:.\Generated_Source\PSoC4/Timer.c **** *         - Timer_MODE_PWM - PWM
 286:.\Generated_Source\PSoC4/Timer.c **** *         - Timer_MODE_PWM_DT - PWM with dead time
 287:.\Generated_Source\PSoC4/Timer.c **** *         - Timer_MODE_PWM_PR - PWM with pseudo random capability
 288:.\Generated_Source\PSoC4/Timer.c **** *
 289:.\Generated_Source\PSoC4/Timer.c **** * Return:
 290:.\Generated_Source\PSoC4/Timer.c **** *  None
 291:.\Generated_Source\PSoC4/Timer.c **** *
 292:.\Generated_Source\PSoC4/Timer.c **** *******************************************************************************/
 293:.\Generated_Source\PSoC4/Timer.c **** void Timer_SetMode(uint32 mode)
 294:.\Generated_Source\PSoC4/Timer.c **** {
 295:.\Generated_Source\PSoC4/Timer.c ****     uint8 enableInterrupts;
 296:.\Generated_Source\PSoC4/Timer.c **** 
ARM GAS  C:\Users\Helon\AppData\Local\Temp\ccSjkW6b.s 			page 7


 297:.\Generated_Source\PSoC4/Timer.c ****     enableInterrupts = CyEnterCriticalSection();
 298:.\Generated_Source\PSoC4/Timer.c **** 
 299:.\Generated_Source\PSoC4/Timer.c ****     Timer_CONTROL_REG &= (uint32)~Timer_MODE_MASK;
 300:.\Generated_Source\PSoC4/Timer.c ****     Timer_CONTROL_REG |= mode;
 301:.\Generated_Source\PSoC4/Timer.c **** 
 302:.\Generated_Source\PSoC4/Timer.c ****     CyExitCriticalSection(enableInterrupts);
 303:.\Generated_Source\PSoC4/Timer.c **** }
 304:.\Generated_Source\PSoC4/Timer.c **** 
 305:.\Generated_Source\PSoC4/Timer.c **** 
 306:.\Generated_Source\PSoC4/Timer.c **** /*******************************************************************************
 307:.\Generated_Source\PSoC4/Timer.c **** * Function Name: Timer_SetQDMode
 308:.\Generated_Source\PSoC4/Timer.c **** ********************************************************************************
 309:.\Generated_Source\PSoC4/Timer.c **** *
 310:.\Generated_Source\PSoC4/Timer.c **** * Summary:
 311:.\Generated_Source\PSoC4/Timer.c **** *  Sets the the Quadrature Decoder to one of the 3 supported modes.
 312:.\Generated_Source\PSoC4/Timer.c **** *  Its functionality is only applicable to Quadrature Decoder operation.
 313:.\Generated_Source\PSoC4/Timer.c **** *
 314:.\Generated_Source\PSoC4/Timer.c **** * Parameters:
 315:.\Generated_Source\PSoC4/Timer.c **** *  qdMode: Quadrature Decoder mode
 316:.\Generated_Source\PSoC4/Timer.c **** *   Values:
 317:.\Generated_Source\PSoC4/Timer.c **** *         - Timer_MODE_X1 - Counts on phi 1 rising
 318:.\Generated_Source\PSoC4/Timer.c **** *         - Timer_MODE_X2 - Counts on both edges of phi1 (2x faster)
 319:.\Generated_Source\PSoC4/Timer.c **** *         - Timer_MODE_X4 - Counts on both edges of phi1 and phi2
 320:.\Generated_Source\PSoC4/Timer.c **** *                                        (4x faster)
 321:.\Generated_Source\PSoC4/Timer.c **** *
 322:.\Generated_Source\PSoC4/Timer.c **** * Return:
 323:.\Generated_Source\PSoC4/Timer.c **** *  None
 324:.\Generated_Source\PSoC4/Timer.c **** *
 325:.\Generated_Source\PSoC4/Timer.c **** *******************************************************************************/
 326:.\Generated_Source\PSoC4/Timer.c **** void Timer_SetQDMode(uint32 qdMode)
 327:.\Generated_Source\PSoC4/Timer.c **** {
 328:.\Generated_Source\PSoC4/Timer.c ****     uint8 enableInterrupts;
 329:.\Generated_Source\PSoC4/Timer.c **** 
 330:.\Generated_Source\PSoC4/Timer.c ****     enableInterrupts = CyEnterCriticalSection();
 331:.\Generated_Source\PSoC4/Timer.c **** 
 332:.\Generated_Source\PSoC4/Timer.c ****     Timer_CONTROL_REG &= (uint32)~Timer_QUAD_MODE_MASK;
 333:.\Generated_Source\PSoC4/Timer.c ****     Timer_CONTROL_REG |= qdMode;
 334:.\Generated_Source\PSoC4/Timer.c **** 
 335:.\Generated_Source\PSoC4/Timer.c ****     CyExitCriticalSection(enableInterrupts);
 336:.\Generated_Source\PSoC4/Timer.c **** }
 337:.\Generated_Source\PSoC4/Timer.c **** 
 338:.\Generated_Source\PSoC4/Timer.c **** 
 339:.\Generated_Source\PSoC4/Timer.c **** /*******************************************************************************
 340:.\Generated_Source\PSoC4/Timer.c **** * Function Name: Timer_SetPrescaler
 341:.\Generated_Source\PSoC4/Timer.c **** ********************************************************************************
 342:.\Generated_Source\PSoC4/Timer.c **** *
 343:.\Generated_Source\PSoC4/Timer.c **** * Summary:
 344:.\Generated_Source\PSoC4/Timer.c **** *  Sets the prescaler value that is applied to the clock input.  Not applicable
 345:.\Generated_Source\PSoC4/Timer.c **** *  to a PWM with the dead time mode or Quadrature Decoder mode.
 346:.\Generated_Source\PSoC4/Timer.c **** *
 347:.\Generated_Source\PSoC4/Timer.c **** * Parameters:
 348:.\Generated_Source\PSoC4/Timer.c **** *  prescaler: Prescaler divider value
 349:.\Generated_Source\PSoC4/Timer.c **** *   Values:
 350:.\Generated_Source\PSoC4/Timer.c **** *         - Timer_PRESCALE_DIVBY1    - Divide by 1 (no prescaling)
 351:.\Generated_Source\PSoC4/Timer.c **** *         - Timer_PRESCALE_DIVBY2    - Divide by 2
 352:.\Generated_Source\PSoC4/Timer.c **** *         - Timer_PRESCALE_DIVBY4    - Divide by 4
 353:.\Generated_Source\PSoC4/Timer.c **** *         - Timer_PRESCALE_DIVBY8    - Divide by 8
ARM GAS  C:\Users\Helon\AppData\Local\Temp\ccSjkW6b.s 			page 8


 354:.\Generated_Source\PSoC4/Timer.c **** *         - Timer_PRESCALE_DIVBY16   - Divide by 16
 355:.\Generated_Source\PSoC4/Timer.c **** *         - Timer_PRESCALE_DIVBY32   - Divide by 32
 356:.\Generated_Source\PSoC4/Timer.c **** *         - Timer_PRESCALE_DIVBY64   - Divide by 64
 357:.\Generated_Source\PSoC4/Timer.c **** *         - Timer_PRESCALE_DIVBY128  - Divide by 128
 358:.\Generated_Source\PSoC4/Timer.c **** *
 359:.\Generated_Source\PSoC4/Timer.c **** * Return:
 360:.\Generated_Source\PSoC4/Timer.c **** *  None
 361:.\Generated_Source\PSoC4/Timer.c **** *
 362:.\Generated_Source\PSoC4/Timer.c **** *******************************************************************************/
 363:.\Generated_Source\PSoC4/Timer.c **** void Timer_SetPrescaler(uint32 prescaler)
 364:.\Generated_Source\PSoC4/Timer.c **** {
 365:.\Generated_Source\PSoC4/Timer.c ****     uint8 enableInterrupts;
 366:.\Generated_Source\PSoC4/Timer.c **** 
 367:.\Generated_Source\PSoC4/Timer.c ****     enableInterrupts = CyEnterCriticalSection();
 368:.\Generated_Source\PSoC4/Timer.c **** 
 369:.\Generated_Source\PSoC4/Timer.c ****     Timer_CONTROL_REG &= (uint32)~Timer_PRESCALER_MASK;
 370:.\Generated_Source\PSoC4/Timer.c ****     Timer_CONTROL_REG |= prescaler;
 371:.\Generated_Source\PSoC4/Timer.c **** 
 372:.\Generated_Source\PSoC4/Timer.c ****     CyExitCriticalSection(enableInterrupts);
 373:.\Generated_Source\PSoC4/Timer.c **** }
 374:.\Generated_Source\PSoC4/Timer.c **** 
 375:.\Generated_Source\PSoC4/Timer.c **** 
 376:.\Generated_Source\PSoC4/Timer.c **** /*******************************************************************************
 377:.\Generated_Source\PSoC4/Timer.c **** * Function Name: Timer_SetOneShot
 378:.\Generated_Source\PSoC4/Timer.c **** ********************************************************************************
 379:.\Generated_Source\PSoC4/Timer.c **** *
 380:.\Generated_Source\PSoC4/Timer.c **** * Summary:
 381:.\Generated_Source\PSoC4/Timer.c **** *  Writes the register that controls whether the Timer runs
 382:.\Generated_Source\PSoC4/Timer.c **** *  continuously or stops when terminal count is reached.  By default the
 383:.\Generated_Source\PSoC4/Timer.c **** *  Timer operates in the continuous mode.
 384:.\Generated_Source\PSoC4/Timer.c **** *
 385:.\Generated_Source\PSoC4/Timer.c **** * Parameters:
 386:.\Generated_Source\PSoC4/Timer.c **** *  oneShotEnable
 387:.\Generated_Source\PSoC4/Timer.c **** *   Values:
 388:.\Generated_Source\PSoC4/Timer.c **** *     - 0 - Continuous
 389:.\Generated_Source\PSoC4/Timer.c **** *     - 1 - Enable One Shot
 390:.\Generated_Source\PSoC4/Timer.c **** *
 391:.\Generated_Source\PSoC4/Timer.c **** * Return:
 392:.\Generated_Source\PSoC4/Timer.c **** *  None
 393:.\Generated_Source\PSoC4/Timer.c **** *
 394:.\Generated_Source\PSoC4/Timer.c **** *******************************************************************************/
 395:.\Generated_Source\PSoC4/Timer.c **** void Timer_SetOneShot(uint32 oneShotEnable)
 396:.\Generated_Source\PSoC4/Timer.c **** {
 397:.\Generated_Source\PSoC4/Timer.c ****     uint8 enableInterrupts;
 398:.\Generated_Source\PSoC4/Timer.c **** 
 399:.\Generated_Source\PSoC4/Timer.c ****     enableInterrupts = CyEnterCriticalSection();
 400:.\Generated_Source\PSoC4/Timer.c **** 
 401:.\Generated_Source\PSoC4/Timer.c ****     Timer_CONTROL_REG &= (uint32)~Timer_ONESHOT_MASK;
 402:.\Generated_Source\PSoC4/Timer.c ****     Timer_CONTROL_REG |= ((uint32)((oneShotEnable & Timer_1BIT_MASK) <<
 403:.\Generated_Source\PSoC4/Timer.c ****                                                                Timer_ONESHOT_SHIFT));
 404:.\Generated_Source\PSoC4/Timer.c **** 
 405:.\Generated_Source\PSoC4/Timer.c ****     CyExitCriticalSection(enableInterrupts);
 406:.\Generated_Source\PSoC4/Timer.c **** }
 407:.\Generated_Source\PSoC4/Timer.c **** 
 408:.\Generated_Source\PSoC4/Timer.c **** 
 409:.\Generated_Source\PSoC4/Timer.c **** /*******************************************************************************
 410:.\Generated_Source\PSoC4/Timer.c **** * Function Name: Timer_SetPWMMode
ARM GAS  C:\Users\Helon\AppData\Local\Temp\ccSjkW6b.s 			page 9


 411:.\Generated_Source\PSoC4/Timer.c **** ********************************************************************************
 412:.\Generated_Source\PSoC4/Timer.c **** *
 413:.\Generated_Source\PSoC4/Timer.c **** * Summary:
 414:.\Generated_Source\PSoC4/Timer.c **** *  Writes the control register that determines what mode of operation the PWM
 415:.\Generated_Source\PSoC4/Timer.c **** *  output lines are driven in.  There is a setting for what to do on a
 416:.\Generated_Source\PSoC4/Timer.c **** *  comparison match (CC_MATCH), on an overflow (OVERFLOW) and on an underflow
 417:.\Generated_Source\PSoC4/Timer.c **** *  (UNDERFLOW).  The value for each of the three must be ORed together to form
 418:.\Generated_Source\PSoC4/Timer.c **** *  the mode.
 419:.\Generated_Source\PSoC4/Timer.c **** *
 420:.\Generated_Source\PSoC4/Timer.c **** * Parameters:
 421:.\Generated_Source\PSoC4/Timer.c **** *  modeMask: A combination of three mode settings.  Mask must include a value
 422:.\Generated_Source\PSoC4/Timer.c **** *  for each of the three or use one of the preconfigured PWM settings.
 423:.\Generated_Source\PSoC4/Timer.c **** *   Values:
 424:.\Generated_Source\PSoC4/Timer.c **** *     - CC_MATCH_SET        - Set on comparison match
 425:.\Generated_Source\PSoC4/Timer.c **** *     - CC_MATCH_CLEAR      - Clear on comparison match
 426:.\Generated_Source\PSoC4/Timer.c **** *     - CC_MATCH_INVERT     - Invert on comparison match
 427:.\Generated_Source\PSoC4/Timer.c **** *     - CC_MATCH_NO_CHANGE  - No change on comparison match
 428:.\Generated_Source\PSoC4/Timer.c **** *     - OVERLOW_SET         - Set on overflow
 429:.\Generated_Source\PSoC4/Timer.c **** *     - OVERLOW_CLEAR       - Clear on  overflow
 430:.\Generated_Source\PSoC4/Timer.c **** *     - OVERLOW_INVERT      - Invert on overflow
 431:.\Generated_Source\PSoC4/Timer.c **** *     - OVERLOW_NO_CHANGE   - No change on overflow
 432:.\Generated_Source\PSoC4/Timer.c **** *     - UNDERFLOW_SET       - Set on underflow
 433:.\Generated_Source\PSoC4/Timer.c **** *     - UNDERFLOW_CLEAR     - Clear on underflow
 434:.\Generated_Source\PSoC4/Timer.c **** *     - UNDERFLOW_INVERT    - Invert on underflow
 435:.\Generated_Source\PSoC4/Timer.c **** *     - UNDERFLOW_NO_CHANGE - No change on underflow
 436:.\Generated_Source\PSoC4/Timer.c **** *     - PWM_MODE_LEFT       - Setting for left aligned PWM.  Should be combined
 437:.\Generated_Source\PSoC4/Timer.c **** *                             with up counting mode
 438:.\Generated_Source\PSoC4/Timer.c **** *     - PWM_MODE_RIGHT      - Setting for right aligned PWM.  Should be combined
 439:.\Generated_Source\PSoC4/Timer.c **** *                             with down counting mode
 440:.\Generated_Source\PSoC4/Timer.c **** *     - PWM_MODE_CENTER     - Setting for center aligned PWM.  Should be
 441:.\Generated_Source\PSoC4/Timer.c **** *                             combined with up/down 0 mode
 442:.\Generated_Source\PSoC4/Timer.c **** *     - PWM_MODE_ASYM       - Setting for asymmetric PWM.  Should be combined
 443:.\Generated_Source\PSoC4/Timer.c **** *                             with up/down 1 mode
 444:.\Generated_Source\PSoC4/Timer.c **** *
 445:.\Generated_Source\PSoC4/Timer.c **** * Return:
 446:.\Generated_Source\PSoC4/Timer.c **** *  None
 447:.\Generated_Source\PSoC4/Timer.c **** *
 448:.\Generated_Source\PSoC4/Timer.c **** *******************************************************************************/
 449:.\Generated_Source\PSoC4/Timer.c **** void Timer_SetPWMMode(uint32 modeMask)
 450:.\Generated_Source\PSoC4/Timer.c **** {
 451:.\Generated_Source\PSoC4/Timer.c ****     Timer_TRIG_CONTROL2_REG = (modeMask & Timer_6BIT_MASK);
 452:.\Generated_Source\PSoC4/Timer.c **** }
 453:.\Generated_Source\PSoC4/Timer.c **** 
 454:.\Generated_Source\PSoC4/Timer.c **** 
 455:.\Generated_Source\PSoC4/Timer.c **** 
 456:.\Generated_Source\PSoC4/Timer.c **** /*******************************************************************************
 457:.\Generated_Source\PSoC4/Timer.c **** * Function Name: Timer_SetPWMSyncKill
 458:.\Generated_Source\PSoC4/Timer.c **** ********************************************************************************
 459:.\Generated_Source\PSoC4/Timer.c **** *
 460:.\Generated_Source\PSoC4/Timer.c **** * Summary:
 461:.\Generated_Source\PSoC4/Timer.c **** *  Writes the register that controls whether the PWM kill signal (stop input)
 462:.\Generated_Source\PSoC4/Timer.c **** *  causes asynchronous or synchronous kill operation.  By default the kill
 463:.\Generated_Source\PSoC4/Timer.c **** *  operation is asynchronous.  This functionality is only applicable to the PWM
 464:.\Generated_Source\PSoC4/Timer.c **** *  and PWM with dead time modes.
 465:.\Generated_Source\PSoC4/Timer.c **** *
 466:.\Generated_Source\PSoC4/Timer.c **** *  For Synchronous mode the kill signal disables both the line and line_n
 467:.\Generated_Source\PSoC4/Timer.c **** *  signals until the next terminal count.
ARM GAS  C:\Users\Helon\AppData\Local\Temp\ccSjkW6b.s 			page 10


 468:.\Generated_Source\PSoC4/Timer.c **** *
 469:.\Generated_Source\PSoC4/Timer.c **** *  For Asynchronous mode the kill signal disables both the line and line_n
 470:.\Generated_Source\PSoC4/Timer.c **** *  signals when the kill signal is present.  This mode should only be used
 471:.\Generated_Source\PSoC4/Timer.c **** *  when the kill signal (stop input) is configured in the pass through mode
 472:.\Generated_Source\PSoC4/Timer.c **** *  (Level sensitive signal).
 473:.\Generated_Source\PSoC4/Timer.c **** 
 474:.\Generated_Source\PSoC4/Timer.c **** *
 475:.\Generated_Source\PSoC4/Timer.c **** * Parameters:
 476:.\Generated_Source\PSoC4/Timer.c **** *  syncKillEnable
 477:.\Generated_Source\PSoC4/Timer.c **** *   Values:
 478:.\Generated_Source\PSoC4/Timer.c **** *     - 0 - Asynchronous
 479:.\Generated_Source\PSoC4/Timer.c **** *     - 1 - Synchronous
 480:.\Generated_Source\PSoC4/Timer.c **** *
 481:.\Generated_Source\PSoC4/Timer.c **** * Return:
 482:.\Generated_Source\PSoC4/Timer.c **** *  None
 483:.\Generated_Source\PSoC4/Timer.c **** *
 484:.\Generated_Source\PSoC4/Timer.c **** *******************************************************************************/
 485:.\Generated_Source\PSoC4/Timer.c **** void Timer_SetPWMSyncKill(uint32 syncKillEnable)
 486:.\Generated_Source\PSoC4/Timer.c **** {
 487:.\Generated_Source\PSoC4/Timer.c ****     uint8 enableInterrupts;
 488:.\Generated_Source\PSoC4/Timer.c **** 
 489:.\Generated_Source\PSoC4/Timer.c ****     enableInterrupts = CyEnterCriticalSection();
 490:.\Generated_Source\PSoC4/Timer.c **** 
 491:.\Generated_Source\PSoC4/Timer.c ****     Timer_CONTROL_REG &= (uint32)~Timer_PWM_SYNC_KILL_MASK;
 492:.\Generated_Source\PSoC4/Timer.c ****     Timer_CONTROL_REG |= ((uint32)((syncKillEnable & Timer_1BIT_MASK)  <<
 493:.\Generated_Source\PSoC4/Timer.c ****                                                Timer_PWM_SYNC_KILL_SHIFT));
 494:.\Generated_Source\PSoC4/Timer.c **** 
 495:.\Generated_Source\PSoC4/Timer.c ****     CyExitCriticalSection(enableInterrupts);
 496:.\Generated_Source\PSoC4/Timer.c **** }
 497:.\Generated_Source\PSoC4/Timer.c **** 
 498:.\Generated_Source\PSoC4/Timer.c **** 
 499:.\Generated_Source\PSoC4/Timer.c **** /*******************************************************************************
 500:.\Generated_Source\PSoC4/Timer.c **** * Function Name: Timer_SetPWMStopOnKill
 501:.\Generated_Source\PSoC4/Timer.c **** ********************************************************************************
 502:.\Generated_Source\PSoC4/Timer.c **** *
 503:.\Generated_Source\PSoC4/Timer.c **** * Summary:
 504:.\Generated_Source\PSoC4/Timer.c **** *  Writes the register that controls whether the PWM kill signal (stop input)
 505:.\Generated_Source\PSoC4/Timer.c **** *  causes the PWM counter to stop.  By default the kill operation does not stop
 506:.\Generated_Source\PSoC4/Timer.c **** *  the counter.  This functionality is only applicable to the three PWM modes.
 507:.\Generated_Source\PSoC4/Timer.c **** *
 508:.\Generated_Source\PSoC4/Timer.c **** *
 509:.\Generated_Source\PSoC4/Timer.c **** * Parameters:
 510:.\Generated_Source\PSoC4/Timer.c **** *  stopOnKillEnable
 511:.\Generated_Source\PSoC4/Timer.c **** *   Values:
 512:.\Generated_Source\PSoC4/Timer.c **** *     - 0 - Don't stop
 513:.\Generated_Source\PSoC4/Timer.c **** *     - 1 - Stop
 514:.\Generated_Source\PSoC4/Timer.c **** *
 515:.\Generated_Source\PSoC4/Timer.c **** * Return:
 516:.\Generated_Source\PSoC4/Timer.c **** *  None
 517:.\Generated_Source\PSoC4/Timer.c **** *
 518:.\Generated_Source\PSoC4/Timer.c **** *******************************************************************************/
 519:.\Generated_Source\PSoC4/Timer.c **** void Timer_SetPWMStopOnKill(uint32 stopOnKillEnable)
 520:.\Generated_Source\PSoC4/Timer.c **** {
 521:.\Generated_Source\PSoC4/Timer.c ****     uint8 enableInterrupts;
 522:.\Generated_Source\PSoC4/Timer.c **** 
 523:.\Generated_Source\PSoC4/Timer.c ****     enableInterrupts = CyEnterCriticalSection();
 524:.\Generated_Source\PSoC4/Timer.c **** 
ARM GAS  C:\Users\Helon\AppData\Local\Temp\ccSjkW6b.s 			page 11


 525:.\Generated_Source\PSoC4/Timer.c ****     Timer_CONTROL_REG &= (uint32)~Timer_PWM_STOP_KILL_MASK;
 526:.\Generated_Source\PSoC4/Timer.c ****     Timer_CONTROL_REG |= ((uint32)((stopOnKillEnable & Timer_1BIT_MASK)  <<
 527:.\Generated_Source\PSoC4/Timer.c ****                                                          Timer_PWM_STOP_KILL_SHIFT));
 528:.\Generated_Source\PSoC4/Timer.c **** 
 529:.\Generated_Source\PSoC4/Timer.c ****     CyExitCriticalSection(enableInterrupts);
 530:.\Generated_Source\PSoC4/Timer.c **** }
 531:.\Generated_Source\PSoC4/Timer.c **** 
 532:.\Generated_Source\PSoC4/Timer.c **** 
 533:.\Generated_Source\PSoC4/Timer.c **** /*******************************************************************************
 534:.\Generated_Source\PSoC4/Timer.c **** * Function Name: Timer_SetPWMDeadTime
 535:.\Generated_Source\PSoC4/Timer.c **** ********************************************************************************
 536:.\Generated_Source\PSoC4/Timer.c **** *
 537:.\Generated_Source\PSoC4/Timer.c **** * Summary:
 538:.\Generated_Source\PSoC4/Timer.c **** *  Writes the dead time control value.  This value delays the rising edge of
 539:.\Generated_Source\PSoC4/Timer.c **** *  both the line and line_n signals the designated number of cycles resulting
 540:.\Generated_Source\PSoC4/Timer.c **** *  in both signals being inactive for that many cycles.  This functionality is
 541:.\Generated_Source\PSoC4/Timer.c **** *  only applicable to the PWM in the dead time mode.
 542:.\Generated_Source\PSoC4/Timer.c **** 
 543:.\Generated_Source\PSoC4/Timer.c **** *
 544:.\Generated_Source\PSoC4/Timer.c **** * Parameters:
 545:.\Generated_Source\PSoC4/Timer.c **** *  Dead time to insert
 546:.\Generated_Source\PSoC4/Timer.c **** *   Values: 0 to 255
 547:.\Generated_Source\PSoC4/Timer.c **** *
 548:.\Generated_Source\PSoC4/Timer.c **** * Return:
 549:.\Generated_Source\PSoC4/Timer.c **** *  None
 550:.\Generated_Source\PSoC4/Timer.c **** *
 551:.\Generated_Source\PSoC4/Timer.c **** *******************************************************************************/
 552:.\Generated_Source\PSoC4/Timer.c **** void Timer_SetPWMDeadTime(uint32 deadTime)
 553:.\Generated_Source\PSoC4/Timer.c **** {
 554:.\Generated_Source\PSoC4/Timer.c ****     uint8 enableInterrupts;
 555:.\Generated_Source\PSoC4/Timer.c **** 
 556:.\Generated_Source\PSoC4/Timer.c ****     enableInterrupts = CyEnterCriticalSection();
 557:.\Generated_Source\PSoC4/Timer.c **** 
 558:.\Generated_Source\PSoC4/Timer.c ****     Timer_CONTROL_REG &= (uint32)~Timer_PRESCALER_MASK;
 559:.\Generated_Source\PSoC4/Timer.c ****     Timer_CONTROL_REG |= ((uint32)((deadTime & Timer_8BIT_MASK) <<
 560:.\Generated_Source\PSoC4/Timer.c ****                                                           Timer_PRESCALER_SHIFT));
 561:.\Generated_Source\PSoC4/Timer.c **** 
 562:.\Generated_Source\PSoC4/Timer.c ****     CyExitCriticalSection(enableInterrupts);
 563:.\Generated_Source\PSoC4/Timer.c **** }
 564:.\Generated_Source\PSoC4/Timer.c **** 
 565:.\Generated_Source\PSoC4/Timer.c **** 
 566:.\Generated_Source\PSoC4/Timer.c **** /*******************************************************************************
 567:.\Generated_Source\PSoC4/Timer.c **** * Function Name: Timer_SetPWMInvert
 568:.\Generated_Source\PSoC4/Timer.c **** ********************************************************************************
 569:.\Generated_Source\PSoC4/Timer.c **** *
 570:.\Generated_Source\PSoC4/Timer.c **** * Summary:
 571:.\Generated_Source\PSoC4/Timer.c **** *  Writes the bits that control whether the line and line_n outputs are
 572:.\Generated_Source\PSoC4/Timer.c **** *  inverted from their normal output values.  This functionality is only
 573:.\Generated_Source\PSoC4/Timer.c **** *  applicable to the three PWM modes.
 574:.\Generated_Source\PSoC4/Timer.c **** *
 575:.\Generated_Source\PSoC4/Timer.c **** * Parameters:
 576:.\Generated_Source\PSoC4/Timer.c **** *  mask: Mask of outputs to invert.
 577:.\Generated_Source\PSoC4/Timer.c **** *   Values:
 578:.\Generated_Source\PSoC4/Timer.c **** *         - Timer_INVERT_LINE   - Inverts the line output
 579:.\Generated_Source\PSoC4/Timer.c **** *         - Timer_INVERT_LINE_N - Inverts the line_n output
 580:.\Generated_Source\PSoC4/Timer.c **** *
 581:.\Generated_Source\PSoC4/Timer.c **** * Return:
ARM GAS  C:\Users\Helon\AppData\Local\Temp\ccSjkW6b.s 			page 12


 582:.\Generated_Source\PSoC4/Timer.c **** *  None
 583:.\Generated_Source\PSoC4/Timer.c **** *
 584:.\Generated_Source\PSoC4/Timer.c **** *******************************************************************************/
 585:.\Generated_Source\PSoC4/Timer.c **** void Timer_SetPWMInvert(uint32 mask)
 586:.\Generated_Source\PSoC4/Timer.c **** {
 587:.\Generated_Source\PSoC4/Timer.c ****     uint8 enableInterrupts;
 588:.\Generated_Source\PSoC4/Timer.c **** 
 589:.\Generated_Source\PSoC4/Timer.c ****     enableInterrupts = CyEnterCriticalSection();
 590:.\Generated_Source\PSoC4/Timer.c **** 
 591:.\Generated_Source\PSoC4/Timer.c ****     Timer_CONTROL_REG &= (uint32)~Timer_INV_OUT_MASK;
 592:.\Generated_Source\PSoC4/Timer.c ****     Timer_CONTROL_REG |= mask;
 593:.\Generated_Source\PSoC4/Timer.c **** 
 594:.\Generated_Source\PSoC4/Timer.c ****     CyExitCriticalSection(enableInterrupts);
 595:.\Generated_Source\PSoC4/Timer.c **** }
 596:.\Generated_Source\PSoC4/Timer.c **** 
 597:.\Generated_Source\PSoC4/Timer.c **** 
 598:.\Generated_Source\PSoC4/Timer.c **** 
 599:.\Generated_Source\PSoC4/Timer.c **** /*******************************************************************************
 600:.\Generated_Source\PSoC4/Timer.c **** * Function Name: Timer_WriteCounter
 601:.\Generated_Source\PSoC4/Timer.c **** ********************************************************************************
 602:.\Generated_Source\PSoC4/Timer.c **** *
 603:.\Generated_Source\PSoC4/Timer.c **** * Summary:
 604:.\Generated_Source\PSoC4/Timer.c **** *  Writes a new 16bit counter value directly into the counter register, thus
 605:.\Generated_Source\PSoC4/Timer.c **** *  setting the counter (not the period) to the value written. It is not
 606:.\Generated_Source\PSoC4/Timer.c **** *  advised to write to this field when the counter is running.
 607:.\Generated_Source\PSoC4/Timer.c **** *
 608:.\Generated_Source\PSoC4/Timer.c **** * Parameters:
 609:.\Generated_Source\PSoC4/Timer.c **** *  count: value to write
 610:.\Generated_Source\PSoC4/Timer.c **** *
 611:.\Generated_Source\PSoC4/Timer.c **** * Return:
 612:.\Generated_Source\PSoC4/Timer.c **** *  None
 613:.\Generated_Source\PSoC4/Timer.c **** *
 614:.\Generated_Source\PSoC4/Timer.c **** *******************************************************************************/
 615:.\Generated_Source\PSoC4/Timer.c **** void Timer_WriteCounter(uint32 count)
 616:.\Generated_Source\PSoC4/Timer.c **** {
 617:.\Generated_Source\PSoC4/Timer.c ****     Timer_COUNTER_REG = (count & Timer_16BIT_MASK);
 618:.\Generated_Source\PSoC4/Timer.c **** }
 619:.\Generated_Source\PSoC4/Timer.c **** 
 620:.\Generated_Source\PSoC4/Timer.c **** 
 621:.\Generated_Source\PSoC4/Timer.c **** /*******************************************************************************
 622:.\Generated_Source\PSoC4/Timer.c **** * Function Name: Timer_ReadCounter
 623:.\Generated_Source\PSoC4/Timer.c **** ********************************************************************************
 624:.\Generated_Source\PSoC4/Timer.c **** *
 625:.\Generated_Source\PSoC4/Timer.c **** * Summary:
 626:.\Generated_Source\PSoC4/Timer.c **** *  Reads the current counter value.
 627:.\Generated_Source\PSoC4/Timer.c **** *
 628:.\Generated_Source\PSoC4/Timer.c **** * Parameters:
 629:.\Generated_Source\PSoC4/Timer.c **** *  None
 630:.\Generated_Source\PSoC4/Timer.c **** *
 631:.\Generated_Source\PSoC4/Timer.c **** * Return:
 632:.\Generated_Source\PSoC4/Timer.c **** *  Current counter value
 633:.\Generated_Source\PSoC4/Timer.c **** *
 634:.\Generated_Source\PSoC4/Timer.c **** *******************************************************************************/
 635:.\Generated_Source\PSoC4/Timer.c **** uint32 Timer_ReadCounter(void)
 636:.\Generated_Source\PSoC4/Timer.c **** {
 637:.\Generated_Source\PSoC4/Timer.c ****     return (Timer_COUNTER_REG & Timer_16BIT_MASK);
 638:.\Generated_Source\PSoC4/Timer.c **** }
ARM GAS  C:\Users\Helon\AppData\Local\Temp\ccSjkW6b.s 			page 13


 639:.\Generated_Source\PSoC4/Timer.c **** 
 640:.\Generated_Source\PSoC4/Timer.c **** 
 641:.\Generated_Source\PSoC4/Timer.c **** /*******************************************************************************
 642:.\Generated_Source\PSoC4/Timer.c **** * Function Name: Timer_SetCounterMode
 643:.\Generated_Source\PSoC4/Timer.c **** ********************************************************************************
 644:.\Generated_Source\PSoC4/Timer.c **** *
 645:.\Generated_Source\PSoC4/Timer.c **** * Summary:
 646:.\Generated_Source\PSoC4/Timer.c **** *  Sets the counter mode.  Applicable to all modes except Quadrature Decoder
 647:.\Generated_Source\PSoC4/Timer.c **** *  and the PWM with a pseudo random output.
 648:.\Generated_Source\PSoC4/Timer.c **** *
 649:.\Generated_Source\PSoC4/Timer.c **** * Parameters:
 650:.\Generated_Source\PSoC4/Timer.c **** *  counterMode: Enumerated counter type values
 651:.\Generated_Source\PSoC4/Timer.c **** *   Values:
 652:.\Generated_Source\PSoC4/Timer.c **** *     - Timer_COUNT_UP       - Counts up
 653:.\Generated_Source\PSoC4/Timer.c **** *     - Timer_COUNT_DOWN     - Counts down
 654:.\Generated_Source\PSoC4/Timer.c **** *     - Timer_COUNT_UPDOWN0  - Counts up and down. Terminal count
 655:.\Generated_Source\PSoC4/Timer.c **** *                                         generated when counter reaches 0
 656:.\Generated_Source\PSoC4/Timer.c **** *     - Timer_COUNT_UPDOWN1  - Counts up and down. Terminal count
 657:.\Generated_Source\PSoC4/Timer.c **** *                                         generated both when counter reaches 0
 658:.\Generated_Source\PSoC4/Timer.c **** *                                         and period
 659:.\Generated_Source\PSoC4/Timer.c **** *
 660:.\Generated_Source\PSoC4/Timer.c **** * Return:
 661:.\Generated_Source\PSoC4/Timer.c **** *  None
 662:.\Generated_Source\PSoC4/Timer.c **** *
 663:.\Generated_Source\PSoC4/Timer.c **** *******************************************************************************/
 664:.\Generated_Source\PSoC4/Timer.c **** void Timer_SetCounterMode(uint32 counterMode)
 665:.\Generated_Source\PSoC4/Timer.c **** {
 666:.\Generated_Source\PSoC4/Timer.c ****     uint8 enableInterrupts;
 667:.\Generated_Source\PSoC4/Timer.c **** 
 668:.\Generated_Source\PSoC4/Timer.c ****     enableInterrupts = CyEnterCriticalSection();
 669:.\Generated_Source\PSoC4/Timer.c **** 
 670:.\Generated_Source\PSoC4/Timer.c ****     Timer_CONTROL_REG &= (uint32)~Timer_UPDOWN_MASK;
 671:.\Generated_Source\PSoC4/Timer.c ****     Timer_CONTROL_REG |= counterMode;
 672:.\Generated_Source\PSoC4/Timer.c **** 
 673:.\Generated_Source\PSoC4/Timer.c ****     CyExitCriticalSection(enableInterrupts);
 674:.\Generated_Source\PSoC4/Timer.c **** }
 675:.\Generated_Source\PSoC4/Timer.c **** 
 676:.\Generated_Source\PSoC4/Timer.c **** 
 677:.\Generated_Source\PSoC4/Timer.c **** /*******************************************************************************
 678:.\Generated_Source\PSoC4/Timer.c **** * Function Name: Timer_WritePeriod
 679:.\Generated_Source\PSoC4/Timer.c **** ********************************************************************************
 680:.\Generated_Source\PSoC4/Timer.c **** *
 681:.\Generated_Source\PSoC4/Timer.c **** * Summary:
 682:.\Generated_Source\PSoC4/Timer.c **** *  Writes the 16 bit period register with the new period value.
 683:.\Generated_Source\PSoC4/Timer.c **** *  To cause the counter to count for N cycles this register should be written
 684:.\Generated_Source\PSoC4/Timer.c **** *  with N-1 (counts from 0 to period inclusive).
 685:.\Generated_Source\PSoC4/Timer.c **** *
 686:.\Generated_Source\PSoC4/Timer.c **** * Parameters:
 687:.\Generated_Source\PSoC4/Timer.c **** *  period: Period value
 688:.\Generated_Source\PSoC4/Timer.c **** *
 689:.\Generated_Source\PSoC4/Timer.c **** * Return:
 690:.\Generated_Source\PSoC4/Timer.c **** *  None
 691:.\Generated_Source\PSoC4/Timer.c **** *
 692:.\Generated_Source\PSoC4/Timer.c **** *******************************************************************************/
 693:.\Generated_Source\PSoC4/Timer.c **** void Timer_WritePeriod(uint32 period)
 694:.\Generated_Source\PSoC4/Timer.c **** {
 695:.\Generated_Source\PSoC4/Timer.c ****     Timer_PERIOD_REG = (period & Timer_16BIT_MASK);
ARM GAS  C:\Users\Helon\AppData\Local\Temp\ccSjkW6b.s 			page 14


 696:.\Generated_Source\PSoC4/Timer.c **** }
 697:.\Generated_Source\PSoC4/Timer.c **** 
 698:.\Generated_Source\PSoC4/Timer.c **** 
 699:.\Generated_Source\PSoC4/Timer.c **** /*******************************************************************************
 700:.\Generated_Source\PSoC4/Timer.c **** * Function Name: Timer_ReadPeriod
 701:.\Generated_Source\PSoC4/Timer.c **** ********************************************************************************
 702:.\Generated_Source\PSoC4/Timer.c **** *
 703:.\Generated_Source\PSoC4/Timer.c **** * Summary:
 704:.\Generated_Source\PSoC4/Timer.c **** *  Reads the 16 bit period register.
 705:.\Generated_Source\PSoC4/Timer.c **** *
 706:.\Generated_Source\PSoC4/Timer.c **** * Parameters:
 707:.\Generated_Source\PSoC4/Timer.c **** *  None
 708:.\Generated_Source\PSoC4/Timer.c **** *
 709:.\Generated_Source\PSoC4/Timer.c **** * Return:
 710:.\Generated_Source\PSoC4/Timer.c **** *  Period value
 711:.\Generated_Source\PSoC4/Timer.c **** *
 712:.\Generated_Source\PSoC4/Timer.c **** *******************************************************************************/
 713:.\Generated_Source\PSoC4/Timer.c **** uint32 Timer_ReadPeriod(void)
 714:.\Generated_Source\PSoC4/Timer.c **** {
 715:.\Generated_Source\PSoC4/Timer.c ****     return (Timer_PERIOD_REG & Timer_16BIT_MASK);
 716:.\Generated_Source\PSoC4/Timer.c **** }
 717:.\Generated_Source\PSoC4/Timer.c **** 
 718:.\Generated_Source\PSoC4/Timer.c **** 
 719:.\Generated_Source\PSoC4/Timer.c **** /*******************************************************************************
 720:.\Generated_Source\PSoC4/Timer.c **** * Function Name: Timer_SetCompareSwap
 721:.\Generated_Source\PSoC4/Timer.c **** ********************************************************************************
 722:.\Generated_Source\PSoC4/Timer.c **** *
 723:.\Generated_Source\PSoC4/Timer.c **** * Summary:
 724:.\Generated_Source\PSoC4/Timer.c **** *  Writes the register that controls whether the compare registers are
 725:.\Generated_Source\PSoC4/Timer.c **** *  swapped. When enabled in the Timer/Counter mode(without capture) the swap
 726:.\Generated_Source\PSoC4/Timer.c **** *  occurs at a TC event. In the PWM mode the swap occurs at the next TC event
 727:.\Generated_Source\PSoC4/Timer.c **** *  following a hardware switch event.
 728:.\Generated_Source\PSoC4/Timer.c **** *
 729:.\Generated_Source\PSoC4/Timer.c **** * Parameters:
 730:.\Generated_Source\PSoC4/Timer.c **** *  swapEnable
 731:.\Generated_Source\PSoC4/Timer.c **** *   Values:
 732:.\Generated_Source\PSoC4/Timer.c **** *     - 0 - Disable swap
 733:.\Generated_Source\PSoC4/Timer.c **** *     - 1 - Enable swap
 734:.\Generated_Source\PSoC4/Timer.c **** *
 735:.\Generated_Source\PSoC4/Timer.c **** * Return:
 736:.\Generated_Source\PSoC4/Timer.c **** *  None
 737:.\Generated_Source\PSoC4/Timer.c **** *
 738:.\Generated_Source\PSoC4/Timer.c **** *******************************************************************************/
 739:.\Generated_Source\PSoC4/Timer.c **** void Timer_SetCompareSwap(uint32 swapEnable)
 740:.\Generated_Source\PSoC4/Timer.c **** {
 741:.\Generated_Source\PSoC4/Timer.c ****     uint8 enableInterrupts;
 742:.\Generated_Source\PSoC4/Timer.c **** 
 743:.\Generated_Source\PSoC4/Timer.c ****     enableInterrupts = CyEnterCriticalSection();
 744:.\Generated_Source\PSoC4/Timer.c **** 
 745:.\Generated_Source\PSoC4/Timer.c ****     Timer_CONTROL_REG &= (uint32)~Timer_RELOAD_CC_MASK;
 746:.\Generated_Source\PSoC4/Timer.c ****     Timer_CONTROL_REG |= (swapEnable & Timer_1BIT_MASK);
 747:.\Generated_Source\PSoC4/Timer.c **** 
 748:.\Generated_Source\PSoC4/Timer.c ****     CyExitCriticalSection(enableInterrupts);
 749:.\Generated_Source\PSoC4/Timer.c **** }
 750:.\Generated_Source\PSoC4/Timer.c **** 
 751:.\Generated_Source\PSoC4/Timer.c **** 
 752:.\Generated_Source\PSoC4/Timer.c **** /*******************************************************************************
ARM GAS  C:\Users\Helon\AppData\Local\Temp\ccSjkW6b.s 			page 15


 753:.\Generated_Source\PSoC4/Timer.c **** * Function Name: Timer_WritePeriodBuf
 754:.\Generated_Source\PSoC4/Timer.c **** ********************************************************************************
 755:.\Generated_Source\PSoC4/Timer.c **** *
 756:.\Generated_Source\PSoC4/Timer.c **** * Summary:
 757:.\Generated_Source\PSoC4/Timer.c **** *  Writes the 16 bit period buf register with the new period value.
 758:.\Generated_Source\PSoC4/Timer.c **** *
 759:.\Generated_Source\PSoC4/Timer.c **** * Parameters:
 760:.\Generated_Source\PSoC4/Timer.c **** *  periodBuf: Period value
 761:.\Generated_Source\PSoC4/Timer.c **** *
 762:.\Generated_Source\PSoC4/Timer.c **** * Return:
 763:.\Generated_Source\PSoC4/Timer.c **** *  None
 764:.\Generated_Source\PSoC4/Timer.c **** *
 765:.\Generated_Source\PSoC4/Timer.c **** *******************************************************************************/
 766:.\Generated_Source\PSoC4/Timer.c **** void Timer_WritePeriodBuf(uint32 periodBuf)
 767:.\Generated_Source\PSoC4/Timer.c **** {
 768:.\Generated_Source\PSoC4/Timer.c ****     Timer_PERIOD_BUF_REG = (periodBuf & Timer_16BIT_MASK);
 769:.\Generated_Source\PSoC4/Timer.c **** }
 770:.\Generated_Source\PSoC4/Timer.c **** 
 771:.\Generated_Source\PSoC4/Timer.c **** 
 772:.\Generated_Source\PSoC4/Timer.c **** /*******************************************************************************
 773:.\Generated_Source\PSoC4/Timer.c **** * Function Name: Timer_ReadPeriodBuf
 774:.\Generated_Source\PSoC4/Timer.c **** ********************************************************************************
 775:.\Generated_Source\PSoC4/Timer.c **** *
 776:.\Generated_Source\PSoC4/Timer.c **** * Summary:
 777:.\Generated_Source\PSoC4/Timer.c **** *  Reads the 16 bit period buf register.
 778:.\Generated_Source\PSoC4/Timer.c **** *
 779:.\Generated_Source\PSoC4/Timer.c **** * Parameters:
 780:.\Generated_Source\PSoC4/Timer.c **** *  None
 781:.\Generated_Source\PSoC4/Timer.c **** *
 782:.\Generated_Source\PSoC4/Timer.c **** * Return:
 783:.\Generated_Source\PSoC4/Timer.c **** *  Period value
 784:.\Generated_Source\PSoC4/Timer.c **** *
 785:.\Generated_Source\PSoC4/Timer.c **** *******************************************************************************/
 786:.\Generated_Source\PSoC4/Timer.c **** uint32 Timer_ReadPeriodBuf(void)
 787:.\Generated_Source\PSoC4/Timer.c **** {
 788:.\Generated_Source\PSoC4/Timer.c ****     return (Timer_PERIOD_BUF_REG & Timer_16BIT_MASK);
 789:.\Generated_Source\PSoC4/Timer.c **** }
 790:.\Generated_Source\PSoC4/Timer.c **** 
 791:.\Generated_Source\PSoC4/Timer.c **** 
 792:.\Generated_Source\PSoC4/Timer.c **** /*******************************************************************************
 793:.\Generated_Source\PSoC4/Timer.c **** * Function Name: Timer_SetPeriodSwap
 794:.\Generated_Source\PSoC4/Timer.c **** ********************************************************************************
 795:.\Generated_Source\PSoC4/Timer.c **** *
 796:.\Generated_Source\PSoC4/Timer.c **** * Summary:
 797:.\Generated_Source\PSoC4/Timer.c **** *  Writes the register that controls whether the period registers are
 798:.\Generated_Source\PSoC4/Timer.c **** *  swapped. When enabled in Timer/Counter mode the swap occurs at a TC event.
 799:.\Generated_Source\PSoC4/Timer.c **** *  In the PWM mode the swap occurs at the next TC event following a hardware
 800:.\Generated_Source\PSoC4/Timer.c **** *  switch event.
 801:.\Generated_Source\PSoC4/Timer.c **** *
 802:.\Generated_Source\PSoC4/Timer.c **** * Parameters:
 803:.\Generated_Source\PSoC4/Timer.c **** *  swapEnable
 804:.\Generated_Source\PSoC4/Timer.c **** *   Values:
 805:.\Generated_Source\PSoC4/Timer.c **** *     - 0 - Disable swap
 806:.\Generated_Source\PSoC4/Timer.c **** *     - 1 - Enable swap
 807:.\Generated_Source\PSoC4/Timer.c **** *
 808:.\Generated_Source\PSoC4/Timer.c **** * Return:
 809:.\Generated_Source\PSoC4/Timer.c **** *  None
ARM GAS  C:\Users\Helon\AppData\Local\Temp\ccSjkW6b.s 			page 16


 810:.\Generated_Source\PSoC4/Timer.c **** *
 811:.\Generated_Source\PSoC4/Timer.c **** *******************************************************************************/
 812:.\Generated_Source\PSoC4/Timer.c **** void Timer_SetPeriodSwap(uint32 swapEnable)
 813:.\Generated_Source\PSoC4/Timer.c **** {
 814:.\Generated_Source\PSoC4/Timer.c ****     uint8 enableInterrupts;
 815:.\Generated_Source\PSoC4/Timer.c **** 
 816:.\Generated_Source\PSoC4/Timer.c ****     enableInterrupts = CyEnterCriticalSection();
 817:.\Generated_Source\PSoC4/Timer.c **** 
 818:.\Generated_Source\PSoC4/Timer.c ****     Timer_CONTROL_REG &= (uint32)~Timer_RELOAD_PERIOD_MASK;
 819:.\Generated_Source\PSoC4/Timer.c ****     Timer_CONTROL_REG |= ((uint32)((swapEnable & Timer_1BIT_MASK) <<
 820:.\Generated_Source\PSoC4/Timer.c ****                                                             Timer_RELOAD_PERIOD_SHIFT));
 821:.\Generated_Source\PSoC4/Timer.c **** 
 822:.\Generated_Source\PSoC4/Timer.c ****     CyExitCriticalSection(enableInterrupts);
 823:.\Generated_Source\PSoC4/Timer.c **** }
 824:.\Generated_Source\PSoC4/Timer.c **** 
 825:.\Generated_Source\PSoC4/Timer.c **** 
 826:.\Generated_Source\PSoC4/Timer.c **** /*******************************************************************************
 827:.\Generated_Source\PSoC4/Timer.c **** * Function Name: Timer_WriteCompare
 828:.\Generated_Source\PSoC4/Timer.c **** ********************************************************************************
 829:.\Generated_Source\PSoC4/Timer.c **** *
 830:.\Generated_Source\PSoC4/Timer.c **** * Summary:
 831:.\Generated_Source\PSoC4/Timer.c **** *  Writes the 16 bit compare register with the new compare value. Not
 832:.\Generated_Source\PSoC4/Timer.c **** *  applicable for Timer/Counter with Capture or in Quadrature Decoder modes.
 833:.\Generated_Source\PSoC4/Timer.c **** *
 834:.\Generated_Source\PSoC4/Timer.c **** * Parameters:
 835:.\Generated_Source\PSoC4/Timer.c **** *  compare: Compare value
 836:.\Generated_Source\PSoC4/Timer.c **** *
 837:.\Generated_Source\PSoC4/Timer.c **** * Return:
 838:.\Generated_Source\PSoC4/Timer.c **** *  None
 839:.\Generated_Source\PSoC4/Timer.c **** *
 840:.\Generated_Source\PSoC4/Timer.c **** * Note:
 841:.\Generated_Source\PSoC4/Timer.c **** *  It is not recommended to use the value equal to "0" or equal to 
 842:.\Generated_Source\PSoC4/Timer.c **** *  "period value" in Center or Asymmetric align PWM modes on the 
 843:.\Generated_Source\PSoC4/Timer.c **** *  PSoC 4100/PSoC 4200 devices.
 844:.\Generated_Source\PSoC4/Timer.c **** *  PSoC 4000 devices write the 16 bit compare register with the decremented 
 845:.\Generated_Source\PSoC4/Timer.c **** *  compare value in the Up counting mode (except 0x0u), and the incremented 
 846:.\Generated_Source\PSoC4/Timer.c **** *  compare value in the Down counting mode (except 0xFFFFu).
 847:.\Generated_Source\PSoC4/Timer.c **** *
 848:.\Generated_Source\PSoC4/Timer.c **** *******************************************************************************/
 849:.\Generated_Source\PSoC4/Timer.c **** void Timer_WriteCompare(uint32 compare)
 850:.\Generated_Source\PSoC4/Timer.c **** {
 851:.\Generated_Source\PSoC4/Timer.c ****     #if (Timer_CY_TCPWM_4000)
 852:.\Generated_Source\PSoC4/Timer.c ****         uint32 currentMode;
 853:.\Generated_Source\PSoC4/Timer.c ****     #endif /* (Timer_CY_TCPWM_4000) */
 854:.\Generated_Source\PSoC4/Timer.c **** 
 855:.\Generated_Source\PSoC4/Timer.c ****     #if (Timer_CY_TCPWM_4000)
 856:.\Generated_Source\PSoC4/Timer.c ****         currentMode = ((Timer_CONTROL_REG & Timer_UPDOWN_MASK) >> Timer_UPDOWN_SHIFT);
 857:.\Generated_Source\PSoC4/Timer.c **** 
 858:.\Generated_Source\PSoC4/Timer.c ****         if (((uint32)Timer__COUNT_DOWN == currentMode) && (0xFFFFu != compare))
 859:.\Generated_Source\PSoC4/Timer.c ****         {
 860:.\Generated_Source\PSoC4/Timer.c ****             compare++;
 861:.\Generated_Source\PSoC4/Timer.c ****         }
 862:.\Generated_Source\PSoC4/Timer.c ****         else if (((uint32)Timer__COUNT_UP == currentMode) && (0u != compare))
 863:.\Generated_Source\PSoC4/Timer.c ****         {
 864:.\Generated_Source\PSoC4/Timer.c ****             compare--;
 865:.\Generated_Source\PSoC4/Timer.c ****         }
 866:.\Generated_Source\PSoC4/Timer.c ****         else
ARM GAS  C:\Users\Helon\AppData\Local\Temp\ccSjkW6b.s 			page 17


 867:.\Generated_Source\PSoC4/Timer.c ****         {
 868:.\Generated_Source\PSoC4/Timer.c ****         }
 869:.\Generated_Source\PSoC4/Timer.c ****         
 870:.\Generated_Source\PSoC4/Timer.c ****     
 871:.\Generated_Source\PSoC4/Timer.c ****     #endif /* (Timer_CY_TCPWM_4000) */
 872:.\Generated_Source\PSoC4/Timer.c ****     
 873:.\Generated_Source\PSoC4/Timer.c ****     Timer_COMP_CAP_REG = (compare & Timer_16BIT_MASK);
 874:.\Generated_Source\PSoC4/Timer.c **** }
 875:.\Generated_Source\PSoC4/Timer.c **** 
 876:.\Generated_Source\PSoC4/Timer.c **** 
 877:.\Generated_Source\PSoC4/Timer.c **** /*******************************************************************************
 878:.\Generated_Source\PSoC4/Timer.c **** * Function Name: Timer_ReadCompare
 879:.\Generated_Source\PSoC4/Timer.c **** ********************************************************************************
 880:.\Generated_Source\PSoC4/Timer.c **** *
 881:.\Generated_Source\PSoC4/Timer.c **** * Summary:
 882:.\Generated_Source\PSoC4/Timer.c **** *  Reads the compare register. Not applicable for Timer/Counter with Capture
 883:.\Generated_Source\PSoC4/Timer.c **** *  or in Quadrature Decoder modes.
 884:.\Generated_Source\PSoC4/Timer.c **** *  PSoC 4000 devices read the incremented compare register value in the 
 885:.\Generated_Source\PSoC4/Timer.c **** *  Up counting mode (except 0xFFFFu), and the decremented value in the 
 886:.\Generated_Source\PSoC4/Timer.c **** *  Down counting mode (except 0x0u).
 887:.\Generated_Source\PSoC4/Timer.c **** *
 888:.\Generated_Source\PSoC4/Timer.c **** * Parameters:
 889:.\Generated_Source\PSoC4/Timer.c **** *  None
 890:.\Generated_Source\PSoC4/Timer.c **** *
 891:.\Generated_Source\PSoC4/Timer.c **** * Return:
 892:.\Generated_Source\PSoC4/Timer.c **** *  Compare value
 893:.\Generated_Source\PSoC4/Timer.c **** *
 894:.\Generated_Source\PSoC4/Timer.c **** * Note:
 895:.\Generated_Source\PSoC4/Timer.c **** *  PSoC 4000 devices read the incremented compare register value in the 
 896:.\Generated_Source\PSoC4/Timer.c **** *  Up counting mode (except 0xFFFFu), and the decremented value in the 
 897:.\Generated_Source\PSoC4/Timer.c **** *  Down counting mode (except 0x0u).
 898:.\Generated_Source\PSoC4/Timer.c **** *
 899:.\Generated_Source\PSoC4/Timer.c **** *******************************************************************************/
 900:.\Generated_Source\PSoC4/Timer.c **** uint32 Timer_ReadCompare(void)
 901:.\Generated_Source\PSoC4/Timer.c **** {
 902:.\Generated_Source\PSoC4/Timer.c ****     #if (Timer_CY_TCPWM_4000)
 903:.\Generated_Source\PSoC4/Timer.c ****         uint32 currentMode;
 904:.\Generated_Source\PSoC4/Timer.c ****         uint32 regVal;
 905:.\Generated_Source\PSoC4/Timer.c ****     #endif /* (Timer_CY_TCPWM_4000) */
 906:.\Generated_Source\PSoC4/Timer.c **** 
 907:.\Generated_Source\PSoC4/Timer.c ****     #if (Timer_CY_TCPWM_4000)
 908:.\Generated_Source\PSoC4/Timer.c ****         currentMode = ((Timer_CONTROL_REG & Timer_UPDOWN_MASK) >> Timer_UPDOWN_SHIFT);
 909:.\Generated_Source\PSoC4/Timer.c ****         
 910:.\Generated_Source\PSoC4/Timer.c ****         regVal = Timer_COMP_CAP_REG;
 911:.\Generated_Source\PSoC4/Timer.c ****         
 912:.\Generated_Source\PSoC4/Timer.c ****         if (((uint32)Timer__COUNT_DOWN == currentMode) && (0u != regVal))
 913:.\Generated_Source\PSoC4/Timer.c ****         {
 914:.\Generated_Source\PSoC4/Timer.c ****             regVal--;
 915:.\Generated_Source\PSoC4/Timer.c ****         }
 916:.\Generated_Source\PSoC4/Timer.c ****         else if (((uint32)Timer__COUNT_UP == currentMode) && (0xFFFFu != regVal))
 917:.\Generated_Source\PSoC4/Timer.c ****         {
 918:.\Generated_Source\PSoC4/Timer.c ****             regVal++;
 919:.\Generated_Source\PSoC4/Timer.c ****         }
 920:.\Generated_Source\PSoC4/Timer.c ****         else
 921:.\Generated_Source\PSoC4/Timer.c ****         {
 922:.\Generated_Source\PSoC4/Timer.c ****         }
 923:.\Generated_Source\PSoC4/Timer.c **** 
ARM GAS  C:\Users\Helon\AppData\Local\Temp\ccSjkW6b.s 			page 18


 924:.\Generated_Source\PSoC4/Timer.c ****         return (regVal & Timer_16BIT_MASK);
 925:.\Generated_Source\PSoC4/Timer.c ****     #else
 926:.\Generated_Source\PSoC4/Timer.c ****         return (Timer_COMP_CAP_REG & Timer_16BIT_MASK);
 927:.\Generated_Source\PSoC4/Timer.c ****     #endif /* (Timer_CY_TCPWM_4000) */
 928:.\Generated_Source\PSoC4/Timer.c **** }
 929:.\Generated_Source\PSoC4/Timer.c **** 
 930:.\Generated_Source\PSoC4/Timer.c **** 
 931:.\Generated_Source\PSoC4/Timer.c **** /*******************************************************************************
 932:.\Generated_Source\PSoC4/Timer.c **** * Function Name: Timer_WriteCompareBuf
 933:.\Generated_Source\PSoC4/Timer.c **** ********************************************************************************
 934:.\Generated_Source\PSoC4/Timer.c **** *
 935:.\Generated_Source\PSoC4/Timer.c **** * Summary:
 936:.\Generated_Source\PSoC4/Timer.c **** *  Writes the 16 bit compare buffer register with the new compare value. Not
 937:.\Generated_Source\PSoC4/Timer.c **** *  applicable for Timer/Counter with Capture or in Quadrature Decoder modes.
 938:.\Generated_Source\PSoC4/Timer.c **** *
 939:.\Generated_Source\PSoC4/Timer.c **** * Parameters:
 940:.\Generated_Source\PSoC4/Timer.c **** *  compareBuf: Compare value
 941:.\Generated_Source\PSoC4/Timer.c **** *
 942:.\Generated_Source\PSoC4/Timer.c **** * Return:
 943:.\Generated_Source\PSoC4/Timer.c **** *  None
 944:.\Generated_Source\PSoC4/Timer.c **** *
 945:.\Generated_Source\PSoC4/Timer.c **** * Note:
 946:.\Generated_Source\PSoC4/Timer.c **** *  It is not recommended to use the value equal to "0" or equal to 
 947:.\Generated_Source\PSoC4/Timer.c **** *  "period value" in Center or Asymmetric align PWM modes on the 
 948:.\Generated_Source\PSoC4/Timer.c **** *  PSoC 4100/PSoC 4200 devices.
 949:.\Generated_Source\PSoC4/Timer.c **** *  PSoC 4000 devices write the 16 bit compare register with the decremented 
 950:.\Generated_Source\PSoC4/Timer.c **** *  compare value in the Up counting mode (except 0x0u), and the incremented 
 951:.\Generated_Source\PSoC4/Timer.c **** *  compare value in the Down counting mode (except 0xFFFFu).
 952:.\Generated_Source\PSoC4/Timer.c **** *
 953:.\Generated_Source\PSoC4/Timer.c **** *******************************************************************************/
 954:.\Generated_Source\PSoC4/Timer.c **** void Timer_WriteCompareBuf(uint32 compareBuf)
 955:.\Generated_Source\PSoC4/Timer.c **** {
 956:.\Generated_Source\PSoC4/Timer.c ****     #if (Timer_CY_TCPWM_4000)
 957:.\Generated_Source\PSoC4/Timer.c ****         uint32 currentMode;
 958:.\Generated_Source\PSoC4/Timer.c ****     #endif /* (Timer_CY_TCPWM_4000) */
 959:.\Generated_Source\PSoC4/Timer.c **** 
 960:.\Generated_Source\PSoC4/Timer.c ****     #if (Timer_CY_TCPWM_4000)
 961:.\Generated_Source\PSoC4/Timer.c ****         currentMode = ((Timer_CONTROL_REG & Timer_UPDOWN_MASK) >> Timer_UPDOWN_SHIFT);
 962:.\Generated_Source\PSoC4/Timer.c **** 
 963:.\Generated_Source\PSoC4/Timer.c ****         if (((uint32)Timer__COUNT_DOWN == currentMode) && (0xFFFFu != compareBuf))
 964:.\Generated_Source\PSoC4/Timer.c ****         {
 965:.\Generated_Source\PSoC4/Timer.c ****             compareBuf++;
 966:.\Generated_Source\PSoC4/Timer.c ****         }
 967:.\Generated_Source\PSoC4/Timer.c ****         else if (((uint32)Timer__COUNT_UP == currentMode) && (0u != compareBuf))
 968:.\Generated_Source\PSoC4/Timer.c ****         {
 969:.\Generated_Source\PSoC4/Timer.c ****             compareBuf --;
 970:.\Generated_Source\PSoC4/Timer.c ****         }
 971:.\Generated_Source\PSoC4/Timer.c ****         else
 972:.\Generated_Source\PSoC4/Timer.c ****         {
 973:.\Generated_Source\PSoC4/Timer.c ****         }
 974:.\Generated_Source\PSoC4/Timer.c ****     #endif /* (Timer_CY_TCPWM_4000) */
 975:.\Generated_Source\PSoC4/Timer.c ****     
 976:.\Generated_Source\PSoC4/Timer.c ****     Timer_COMP_CAP_BUF_REG = (compareBuf & Timer_16BIT_MASK);
 977:.\Generated_Source\PSoC4/Timer.c **** }
 978:.\Generated_Source\PSoC4/Timer.c **** 
 979:.\Generated_Source\PSoC4/Timer.c **** 
 980:.\Generated_Source\PSoC4/Timer.c **** /*******************************************************************************
ARM GAS  C:\Users\Helon\AppData\Local\Temp\ccSjkW6b.s 			page 19


 981:.\Generated_Source\PSoC4/Timer.c **** * Function Name: Timer_ReadCompareBuf
 982:.\Generated_Source\PSoC4/Timer.c **** ********************************************************************************
 983:.\Generated_Source\PSoC4/Timer.c **** *
 984:.\Generated_Source\PSoC4/Timer.c **** * Summary:
 985:.\Generated_Source\PSoC4/Timer.c **** *  Reads the compare buffer register. Not applicable for Timer/Counter with
 986:.\Generated_Source\PSoC4/Timer.c **** *  Capture or in Quadrature Decoder modes.
 987:.\Generated_Source\PSoC4/Timer.c **** *
 988:.\Generated_Source\PSoC4/Timer.c **** * Parameters:
 989:.\Generated_Source\PSoC4/Timer.c **** *  None
 990:.\Generated_Source\PSoC4/Timer.c **** *
 991:.\Generated_Source\PSoC4/Timer.c **** * Return:
 992:.\Generated_Source\PSoC4/Timer.c **** *  Compare buffer value
 993:.\Generated_Source\PSoC4/Timer.c **** *
 994:.\Generated_Source\PSoC4/Timer.c **** * Note:
 995:.\Generated_Source\PSoC4/Timer.c **** *  PSoC 4000 devices read the incremented compare register value in the 
 996:.\Generated_Source\PSoC4/Timer.c **** *  Up counting mode (except 0xFFFFu), and the decremented value in the 
 997:.\Generated_Source\PSoC4/Timer.c **** *  Down counting mode (except 0x0u).
 998:.\Generated_Source\PSoC4/Timer.c **** *
 999:.\Generated_Source\PSoC4/Timer.c **** *******************************************************************************/
1000:.\Generated_Source\PSoC4/Timer.c **** uint32 Timer_ReadCompareBuf(void)
1001:.\Generated_Source\PSoC4/Timer.c **** {
1002:.\Generated_Source\PSoC4/Timer.c ****     #if (Timer_CY_TCPWM_4000)
1003:.\Generated_Source\PSoC4/Timer.c ****         uint32 currentMode;
1004:.\Generated_Source\PSoC4/Timer.c ****         uint32 regVal;
1005:.\Generated_Source\PSoC4/Timer.c ****     #endif /* (Timer_CY_TCPWM_4000) */
1006:.\Generated_Source\PSoC4/Timer.c **** 
1007:.\Generated_Source\PSoC4/Timer.c ****     #if (Timer_CY_TCPWM_4000)
1008:.\Generated_Source\PSoC4/Timer.c ****         currentMode = ((Timer_CONTROL_REG & Timer_UPDOWN_MASK) >> Timer_UPDOWN_SHIFT);
1009:.\Generated_Source\PSoC4/Timer.c **** 
1010:.\Generated_Source\PSoC4/Timer.c ****         regVal = Timer_COMP_CAP_BUF_REG;
1011:.\Generated_Source\PSoC4/Timer.c ****         
1012:.\Generated_Source\PSoC4/Timer.c ****         if (((uint32)Timer__COUNT_DOWN == currentMode) && (0u != regVal))
1013:.\Generated_Source\PSoC4/Timer.c ****         {
1014:.\Generated_Source\PSoC4/Timer.c ****             regVal--;
1015:.\Generated_Source\PSoC4/Timer.c ****         }
1016:.\Generated_Source\PSoC4/Timer.c ****         else if (((uint32)Timer__COUNT_UP == currentMode) && (0xFFFFu != regVal))
1017:.\Generated_Source\PSoC4/Timer.c ****         {
1018:.\Generated_Source\PSoC4/Timer.c ****             regVal++;
1019:.\Generated_Source\PSoC4/Timer.c ****         }
1020:.\Generated_Source\PSoC4/Timer.c ****         else
1021:.\Generated_Source\PSoC4/Timer.c ****         {
1022:.\Generated_Source\PSoC4/Timer.c ****         }
1023:.\Generated_Source\PSoC4/Timer.c **** 
1024:.\Generated_Source\PSoC4/Timer.c ****         return (regVal & Timer_16BIT_MASK);
1025:.\Generated_Source\PSoC4/Timer.c ****     #else
1026:.\Generated_Source\PSoC4/Timer.c ****         return (Timer_COMP_CAP_BUF_REG & Timer_16BIT_MASK);
1027:.\Generated_Source\PSoC4/Timer.c ****     #endif /* (Timer_CY_TCPWM_4000) */
1028:.\Generated_Source\PSoC4/Timer.c **** }
1029:.\Generated_Source\PSoC4/Timer.c **** 
1030:.\Generated_Source\PSoC4/Timer.c **** 
1031:.\Generated_Source\PSoC4/Timer.c **** /*******************************************************************************
1032:.\Generated_Source\PSoC4/Timer.c **** * Function Name: Timer_ReadCapture
1033:.\Generated_Source\PSoC4/Timer.c **** ********************************************************************************
1034:.\Generated_Source\PSoC4/Timer.c **** *
1035:.\Generated_Source\PSoC4/Timer.c **** * Summary:
1036:.\Generated_Source\PSoC4/Timer.c **** *  Reads the captured counter value. This API is applicable only for
1037:.\Generated_Source\PSoC4/Timer.c **** *  Timer/Counter with the capture mode and Quadrature Decoder modes.
ARM GAS  C:\Users\Helon\AppData\Local\Temp\ccSjkW6b.s 			page 20


1038:.\Generated_Source\PSoC4/Timer.c **** *
1039:.\Generated_Source\PSoC4/Timer.c **** * Parameters:
1040:.\Generated_Source\PSoC4/Timer.c **** *  None
1041:.\Generated_Source\PSoC4/Timer.c **** *
1042:.\Generated_Source\PSoC4/Timer.c **** * Return:
1043:.\Generated_Source\PSoC4/Timer.c **** *  Capture value
1044:.\Generated_Source\PSoC4/Timer.c **** *
1045:.\Generated_Source\PSoC4/Timer.c **** *******************************************************************************/
1046:.\Generated_Source\PSoC4/Timer.c **** uint32 Timer_ReadCapture(void)
1047:.\Generated_Source\PSoC4/Timer.c **** {
1048:.\Generated_Source\PSoC4/Timer.c ****     return (Timer_COMP_CAP_REG & Timer_16BIT_MASK);
1049:.\Generated_Source\PSoC4/Timer.c **** }
1050:.\Generated_Source\PSoC4/Timer.c **** 
1051:.\Generated_Source\PSoC4/Timer.c **** 
1052:.\Generated_Source\PSoC4/Timer.c **** /*******************************************************************************
1053:.\Generated_Source\PSoC4/Timer.c **** * Function Name: Timer_ReadCaptureBuf
1054:.\Generated_Source\PSoC4/Timer.c **** ********************************************************************************
1055:.\Generated_Source\PSoC4/Timer.c **** *
1056:.\Generated_Source\PSoC4/Timer.c **** * Summary:
1057:.\Generated_Source\PSoC4/Timer.c **** *  Reads the capture buffer register. This API is applicable only for
1058:.\Generated_Source\PSoC4/Timer.c **** *  Timer/Counter with the capture mode and Quadrature Decoder modes.
1059:.\Generated_Source\PSoC4/Timer.c **** *
1060:.\Generated_Source\PSoC4/Timer.c **** * Parameters:
1061:.\Generated_Source\PSoC4/Timer.c **** *  None
1062:.\Generated_Source\PSoC4/Timer.c **** *
1063:.\Generated_Source\PSoC4/Timer.c **** * Return:
1064:.\Generated_Source\PSoC4/Timer.c **** *  Capture buffer value
1065:.\Generated_Source\PSoC4/Timer.c **** *
1066:.\Generated_Source\PSoC4/Timer.c **** *******************************************************************************/
1067:.\Generated_Source\PSoC4/Timer.c **** uint32 Timer_ReadCaptureBuf(void)
1068:.\Generated_Source\PSoC4/Timer.c **** {
1069:.\Generated_Source\PSoC4/Timer.c ****     return (Timer_COMP_CAP_BUF_REG & Timer_16BIT_MASK);
1070:.\Generated_Source\PSoC4/Timer.c **** }
1071:.\Generated_Source\PSoC4/Timer.c **** 
1072:.\Generated_Source\PSoC4/Timer.c **** 
1073:.\Generated_Source\PSoC4/Timer.c **** /*******************************************************************************
1074:.\Generated_Source\PSoC4/Timer.c **** * Function Name: Timer_SetCaptureMode
1075:.\Generated_Source\PSoC4/Timer.c **** ********************************************************************************
1076:.\Generated_Source\PSoC4/Timer.c **** *
1077:.\Generated_Source\PSoC4/Timer.c **** * Summary:
1078:.\Generated_Source\PSoC4/Timer.c **** *  Sets the capture trigger mode. For PWM mode this is the switch input.
1079:.\Generated_Source\PSoC4/Timer.c **** *  This input is not applicable to the Timer/Counter without Capture and
1080:.\Generated_Source\PSoC4/Timer.c **** *  Quadrature Decoder modes.
1081:.\Generated_Source\PSoC4/Timer.c **** *
1082:.\Generated_Source\PSoC4/Timer.c **** * Parameters:
1083:.\Generated_Source\PSoC4/Timer.c **** *  triggerMode: Enumerated trigger mode value
1084:.\Generated_Source\PSoC4/Timer.c **** *   Values:
1085:.\Generated_Source\PSoC4/Timer.c **** *     - Timer_TRIG_LEVEL     - Level
1086:.\Generated_Source\PSoC4/Timer.c **** *     - Timer_TRIG_RISING    - Rising edge
1087:.\Generated_Source\PSoC4/Timer.c **** *     - Timer_TRIG_FALLING   - Falling edge
1088:.\Generated_Source\PSoC4/Timer.c **** *     - Timer_TRIG_BOTH      - Both rising and falling edge
1089:.\Generated_Source\PSoC4/Timer.c **** *
1090:.\Generated_Source\PSoC4/Timer.c **** * Return:
1091:.\Generated_Source\PSoC4/Timer.c **** *  None
1092:.\Generated_Source\PSoC4/Timer.c **** *
1093:.\Generated_Source\PSoC4/Timer.c **** *******************************************************************************/
1094:.\Generated_Source\PSoC4/Timer.c **** void Timer_SetCaptureMode(uint32 triggerMode)
ARM GAS  C:\Users\Helon\AppData\Local\Temp\ccSjkW6b.s 			page 21


1095:.\Generated_Source\PSoC4/Timer.c **** {
1096:.\Generated_Source\PSoC4/Timer.c ****     uint8 enableInterrupts;
1097:.\Generated_Source\PSoC4/Timer.c **** 
1098:.\Generated_Source\PSoC4/Timer.c ****     enableInterrupts = CyEnterCriticalSection();
1099:.\Generated_Source\PSoC4/Timer.c **** 
1100:.\Generated_Source\PSoC4/Timer.c ****     Timer_TRIG_CONTROL1_REG &= (uint32)~Timer_CAPTURE_MASK;
1101:.\Generated_Source\PSoC4/Timer.c ****     Timer_TRIG_CONTROL1_REG |= triggerMode;
1102:.\Generated_Source\PSoC4/Timer.c **** 
1103:.\Generated_Source\PSoC4/Timer.c ****     CyExitCriticalSection(enableInterrupts);
1104:.\Generated_Source\PSoC4/Timer.c **** }
1105:.\Generated_Source\PSoC4/Timer.c **** 
1106:.\Generated_Source\PSoC4/Timer.c **** 
1107:.\Generated_Source\PSoC4/Timer.c **** /*******************************************************************************
1108:.\Generated_Source\PSoC4/Timer.c **** * Function Name: Timer_SetReloadMode
1109:.\Generated_Source\PSoC4/Timer.c **** ********************************************************************************
1110:.\Generated_Source\PSoC4/Timer.c **** *
1111:.\Generated_Source\PSoC4/Timer.c **** * Summary:
1112:.\Generated_Source\PSoC4/Timer.c **** *  Sets the reload trigger mode. For Quadrature Decoder mode this is the index
1113:.\Generated_Source\PSoC4/Timer.c **** *  input.
1114:.\Generated_Source\PSoC4/Timer.c **** *
1115:.\Generated_Source\PSoC4/Timer.c **** * Parameters:
1116:.\Generated_Source\PSoC4/Timer.c **** *  triggerMode: Enumerated trigger mode value
1117:.\Generated_Source\PSoC4/Timer.c **** *   Values:
1118:.\Generated_Source\PSoC4/Timer.c **** *     - Timer_TRIG_LEVEL     - Level
1119:.\Generated_Source\PSoC4/Timer.c **** *     - Timer_TRIG_RISING    - Rising edge
1120:.\Generated_Source\PSoC4/Timer.c **** *     - Timer_TRIG_FALLING   - Falling edge
1121:.\Generated_Source\PSoC4/Timer.c **** *     - Timer_TRIG_BOTH      - Both rising and falling edge
1122:.\Generated_Source\PSoC4/Timer.c **** *
1123:.\Generated_Source\PSoC4/Timer.c **** * Return:
1124:.\Generated_Source\PSoC4/Timer.c **** *  None
1125:.\Generated_Source\PSoC4/Timer.c **** *
1126:.\Generated_Source\PSoC4/Timer.c **** *******************************************************************************/
1127:.\Generated_Source\PSoC4/Timer.c **** void Timer_SetReloadMode(uint32 triggerMode)
1128:.\Generated_Source\PSoC4/Timer.c **** {
1129:.\Generated_Source\PSoC4/Timer.c ****     uint8 enableInterrupts;
1130:.\Generated_Source\PSoC4/Timer.c **** 
1131:.\Generated_Source\PSoC4/Timer.c ****     enableInterrupts = CyEnterCriticalSection();
1132:.\Generated_Source\PSoC4/Timer.c **** 
1133:.\Generated_Source\PSoC4/Timer.c ****     Timer_TRIG_CONTROL1_REG &= (uint32)~Timer_RELOAD_MASK;
1134:.\Generated_Source\PSoC4/Timer.c ****     Timer_TRIG_CONTROL1_REG |= ((uint32)(triggerMode << Timer_RELOAD_SHIFT));
1135:.\Generated_Source\PSoC4/Timer.c **** 
1136:.\Generated_Source\PSoC4/Timer.c ****     CyExitCriticalSection(enableInterrupts);
1137:.\Generated_Source\PSoC4/Timer.c **** }
1138:.\Generated_Source\PSoC4/Timer.c **** 
1139:.\Generated_Source\PSoC4/Timer.c **** 
1140:.\Generated_Source\PSoC4/Timer.c **** /*******************************************************************************
1141:.\Generated_Source\PSoC4/Timer.c **** * Function Name: Timer_SetStartMode
1142:.\Generated_Source\PSoC4/Timer.c **** ********************************************************************************
1143:.\Generated_Source\PSoC4/Timer.c **** *
1144:.\Generated_Source\PSoC4/Timer.c **** * Summary:
1145:.\Generated_Source\PSoC4/Timer.c **** *  Sets the start trigger mode. For Quadrature Decoder mode this is the
1146:.\Generated_Source\PSoC4/Timer.c **** *  phiB input.
1147:.\Generated_Source\PSoC4/Timer.c **** *
1148:.\Generated_Source\PSoC4/Timer.c **** * Parameters:
1149:.\Generated_Source\PSoC4/Timer.c **** *  triggerMode: Enumerated trigger mode value
1150:.\Generated_Source\PSoC4/Timer.c **** *   Values:
1151:.\Generated_Source\PSoC4/Timer.c **** *     - Timer_TRIG_LEVEL     - Level
ARM GAS  C:\Users\Helon\AppData\Local\Temp\ccSjkW6b.s 			page 22


1152:.\Generated_Source\PSoC4/Timer.c **** *     - Timer_TRIG_RISING    - Rising edge
1153:.\Generated_Source\PSoC4/Timer.c **** *     - Timer_TRIG_FALLING   - Falling edge
1154:.\Generated_Source\PSoC4/Timer.c **** *     - Timer_TRIG_BOTH      - Both rising and falling edge
1155:.\Generated_Source\PSoC4/Timer.c **** *
1156:.\Generated_Source\PSoC4/Timer.c **** * Return:
1157:.\Generated_Source\PSoC4/Timer.c **** *  None
1158:.\Generated_Source\PSoC4/Timer.c **** *
1159:.\Generated_Source\PSoC4/Timer.c **** *******************************************************************************/
1160:.\Generated_Source\PSoC4/Timer.c **** void Timer_SetStartMode(uint32 triggerMode)
1161:.\Generated_Source\PSoC4/Timer.c **** {
1162:.\Generated_Source\PSoC4/Timer.c ****     uint8 enableInterrupts;
1163:.\Generated_Source\PSoC4/Timer.c **** 
1164:.\Generated_Source\PSoC4/Timer.c ****     enableInterrupts = CyEnterCriticalSection();
1165:.\Generated_Source\PSoC4/Timer.c **** 
1166:.\Generated_Source\PSoC4/Timer.c ****     Timer_TRIG_CONTROL1_REG &= (uint32)~Timer_START_MASK;
1167:.\Generated_Source\PSoC4/Timer.c ****     Timer_TRIG_CONTROL1_REG |= ((uint32)(triggerMode << Timer_START_SHIFT));
1168:.\Generated_Source\PSoC4/Timer.c **** 
1169:.\Generated_Source\PSoC4/Timer.c ****     CyExitCriticalSection(enableInterrupts);
1170:.\Generated_Source\PSoC4/Timer.c **** }
1171:.\Generated_Source\PSoC4/Timer.c **** 
1172:.\Generated_Source\PSoC4/Timer.c **** 
1173:.\Generated_Source\PSoC4/Timer.c **** /*******************************************************************************
1174:.\Generated_Source\PSoC4/Timer.c **** * Function Name: Timer_SetStopMode
1175:.\Generated_Source\PSoC4/Timer.c **** ********************************************************************************
1176:.\Generated_Source\PSoC4/Timer.c **** *
1177:.\Generated_Source\PSoC4/Timer.c **** * Summary:
1178:.\Generated_Source\PSoC4/Timer.c **** *  Sets the stop trigger mode. For PWM mode this is the kill input.
1179:.\Generated_Source\PSoC4/Timer.c **** *
1180:.\Generated_Source\PSoC4/Timer.c **** * Parameters:
1181:.\Generated_Source\PSoC4/Timer.c **** *  triggerMode: Enumerated trigger mode value
1182:.\Generated_Source\PSoC4/Timer.c **** *   Values:
1183:.\Generated_Source\PSoC4/Timer.c **** *     - Timer_TRIG_LEVEL     - Level
1184:.\Generated_Source\PSoC4/Timer.c **** *     - Timer_TRIG_RISING    - Rising edge
1185:.\Generated_Source\PSoC4/Timer.c **** *     - Timer_TRIG_FALLING   - Falling edge
1186:.\Generated_Source\PSoC4/Timer.c **** *     - Timer_TRIG_BOTH      - Both rising and falling edge
1187:.\Generated_Source\PSoC4/Timer.c **** *
1188:.\Generated_Source\PSoC4/Timer.c **** * Return:
1189:.\Generated_Source\PSoC4/Timer.c **** *  None
1190:.\Generated_Source\PSoC4/Timer.c **** *
1191:.\Generated_Source\PSoC4/Timer.c **** *******************************************************************************/
1192:.\Generated_Source\PSoC4/Timer.c **** void Timer_SetStopMode(uint32 triggerMode)
1193:.\Generated_Source\PSoC4/Timer.c **** {
1194:.\Generated_Source\PSoC4/Timer.c ****     uint8 enableInterrupts;
1195:.\Generated_Source\PSoC4/Timer.c **** 
1196:.\Generated_Source\PSoC4/Timer.c ****     enableInterrupts = CyEnterCriticalSection();
1197:.\Generated_Source\PSoC4/Timer.c **** 
1198:.\Generated_Source\PSoC4/Timer.c ****     Timer_TRIG_CONTROL1_REG &= (uint32)~Timer_STOP_MASK;
1199:.\Generated_Source\PSoC4/Timer.c ****     Timer_TRIG_CONTROL1_REG |= ((uint32)(triggerMode << Timer_STOP_SHIFT));
1200:.\Generated_Source\PSoC4/Timer.c **** 
1201:.\Generated_Source\PSoC4/Timer.c ****     CyExitCriticalSection(enableInterrupts);
1202:.\Generated_Source\PSoC4/Timer.c **** }
1203:.\Generated_Source\PSoC4/Timer.c **** 
1204:.\Generated_Source\PSoC4/Timer.c **** 
1205:.\Generated_Source\PSoC4/Timer.c **** /*******************************************************************************
1206:.\Generated_Source\PSoC4/Timer.c **** * Function Name: Timer_SetCountMode
1207:.\Generated_Source\PSoC4/Timer.c **** ********************************************************************************
1208:.\Generated_Source\PSoC4/Timer.c **** *
ARM GAS  C:\Users\Helon\AppData\Local\Temp\ccSjkW6b.s 			page 23


1209:.\Generated_Source\PSoC4/Timer.c **** * Summary:
1210:.\Generated_Source\PSoC4/Timer.c **** *  Sets the count trigger mode. For Quadrature Decoder mode this is the phiA
1211:.\Generated_Source\PSoC4/Timer.c **** *  input.
1212:.\Generated_Source\PSoC4/Timer.c **** *
1213:.\Generated_Source\PSoC4/Timer.c **** * Parameters:
1214:.\Generated_Source\PSoC4/Timer.c **** *  triggerMode: Enumerated trigger mode value
1215:.\Generated_Source\PSoC4/Timer.c **** *   Values:
1216:.\Generated_Source\PSoC4/Timer.c **** *     - Timer_TRIG_LEVEL     - Level
1217:.\Generated_Source\PSoC4/Timer.c **** *     - Timer_TRIG_RISING    - Rising edge
1218:.\Generated_Source\PSoC4/Timer.c **** *     - Timer_TRIG_FALLING   - Falling edge
1219:.\Generated_Source\PSoC4/Timer.c **** *     - Timer_TRIG_BOTH      - Both rising and falling edge
1220:.\Generated_Source\PSoC4/Timer.c **** *
1221:.\Generated_Source\PSoC4/Timer.c **** * Return:
1222:.\Generated_Source\PSoC4/Timer.c **** *  None
1223:.\Generated_Source\PSoC4/Timer.c **** *
1224:.\Generated_Source\PSoC4/Timer.c **** *******************************************************************************/
1225:.\Generated_Source\PSoC4/Timer.c **** void Timer_SetCountMode(uint32 triggerMode)
1226:.\Generated_Source\PSoC4/Timer.c **** {
1227:.\Generated_Source\PSoC4/Timer.c ****     uint8 enableInterrupts;
1228:.\Generated_Source\PSoC4/Timer.c **** 
1229:.\Generated_Source\PSoC4/Timer.c ****     enableInterrupts = CyEnterCriticalSection();
1230:.\Generated_Source\PSoC4/Timer.c **** 
1231:.\Generated_Source\PSoC4/Timer.c ****     Timer_TRIG_CONTROL1_REG &= (uint32)~Timer_COUNT_MASK;
1232:.\Generated_Source\PSoC4/Timer.c ****     Timer_TRIG_CONTROL1_REG |= ((uint32)(triggerMode << Timer_COUNT_SHIFT));
1233:.\Generated_Source\PSoC4/Timer.c **** 
1234:.\Generated_Source\PSoC4/Timer.c ****     CyExitCriticalSection(enableInterrupts);
1235:.\Generated_Source\PSoC4/Timer.c **** }
1236:.\Generated_Source\PSoC4/Timer.c **** 
1237:.\Generated_Source\PSoC4/Timer.c **** 
1238:.\Generated_Source\PSoC4/Timer.c **** /*******************************************************************************
1239:.\Generated_Source\PSoC4/Timer.c **** * Function Name: Timer_TriggerCommand
1240:.\Generated_Source\PSoC4/Timer.c **** ********************************************************************************
1241:.\Generated_Source\PSoC4/Timer.c **** *
1242:.\Generated_Source\PSoC4/Timer.c **** * Summary:
1243:.\Generated_Source\PSoC4/Timer.c **** *  Triggers the designated command to occur on the designated TCPWM instances.
1244:.\Generated_Source\PSoC4/Timer.c **** *  The mask can be used to apply this command simultaneously to more than one
1245:.\Generated_Source\PSoC4/Timer.c **** *  instance.  This allows multiple TCPWM instances to be synchronized.
1246:.\Generated_Source\PSoC4/Timer.c **** *
1247:.\Generated_Source\PSoC4/Timer.c **** * Parameters:
1248:.\Generated_Source\PSoC4/Timer.c **** *  mask: A combination of mask bits for each instance of the TCPWM that the
1249:.\Generated_Source\PSoC4/Timer.c **** *        command should apply to.  This function from one instance can be used
1250:.\Generated_Source\PSoC4/Timer.c **** *        to apply the command to any of the instances in the design.
1251:.\Generated_Source\PSoC4/Timer.c **** *        The mask value for a specific instance is available with the MASK
1252:.\Generated_Source\PSoC4/Timer.c **** *        define.
1253:.\Generated_Source\PSoC4/Timer.c **** *  command: Enumerated command values. Capture command only applicable for
1254:.\Generated_Source\PSoC4/Timer.c **** *           Timer/Counter with Capture and PWM modes.
1255:.\Generated_Source\PSoC4/Timer.c **** *   Values:
1256:.\Generated_Source\PSoC4/Timer.c **** *     - Timer_CMD_CAPTURE    - Trigger Capture/Switch command
1257:.\Generated_Source\PSoC4/Timer.c **** *     - Timer_CMD_RELOAD     - Trigger Reload/Index command
1258:.\Generated_Source\PSoC4/Timer.c **** *     - Timer_CMD_STOP       - Trigger Stop/Kill command
1259:.\Generated_Source\PSoC4/Timer.c **** *     - Timer_CMD_START      - Trigger Start/phiB command
1260:.\Generated_Source\PSoC4/Timer.c **** *
1261:.\Generated_Source\PSoC4/Timer.c **** * Return:
1262:.\Generated_Source\PSoC4/Timer.c **** *  None
1263:.\Generated_Source\PSoC4/Timer.c **** *
1264:.\Generated_Source\PSoC4/Timer.c **** *******************************************************************************/
1265:.\Generated_Source\PSoC4/Timer.c **** void Timer_TriggerCommand(uint32 mask, uint32 command)
ARM GAS  C:\Users\Helon\AppData\Local\Temp\ccSjkW6b.s 			page 24


1266:.\Generated_Source\PSoC4/Timer.c **** {
1267:.\Generated_Source\PSoC4/Timer.c ****     uint8 enableInterrupts;
1268:.\Generated_Source\PSoC4/Timer.c **** 
1269:.\Generated_Source\PSoC4/Timer.c ****     enableInterrupts = CyEnterCriticalSection();
1270:.\Generated_Source\PSoC4/Timer.c **** 
1271:.\Generated_Source\PSoC4/Timer.c ****     Timer_COMMAND_REG = ((uint32)(mask << command));
1272:.\Generated_Source\PSoC4/Timer.c **** 
1273:.\Generated_Source\PSoC4/Timer.c ****     CyExitCriticalSection(enableInterrupts);
1274:.\Generated_Source\PSoC4/Timer.c **** }
1275:.\Generated_Source\PSoC4/Timer.c **** 
1276:.\Generated_Source\PSoC4/Timer.c **** 
1277:.\Generated_Source\PSoC4/Timer.c **** /*******************************************************************************
1278:.\Generated_Source\PSoC4/Timer.c **** * Function Name: Timer_ReadStatus
1279:.\Generated_Source\PSoC4/Timer.c **** ********************************************************************************
1280:.\Generated_Source\PSoC4/Timer.c **** *
1281:.\Generated_Source\PSoC4/Timer.c **** * Summary:
1282:.\Generated_Source\PSoC4/Timer.c **** *  Reads the status of the Timer.
1283:.\Generated_Source\PSoC4/Timer.c **** *
1284:.\Generated_Source\PSoC4/Timer.c **** * Parameters:
1285:.\Generated_Source\PSoC4/Timer.c **** *  None
1286:.\Generated_Source\PSoC4/Timer.c **** *
1287:.\Generated_Source\PSoC4/Timer.c **** * Return:
1288:.\Generated_Source\PSoC4/Timer.c **** *  Status
1289:.\Generated_Source\PSoC4/Timer.c **** *   Values:
1290:.\Generated_Source\PSoC4/Timer.c **** *     - Timer_STATUS_DOWN    - Set if counting down
1291:.\Generated_Source\PSoC4/Timer.c **** *     - Timer_STATUS_RUNNING - Set if counter is running
1292:.\Generated_Source\PSoC4/Timer.c **** *
1293:.\Generated_Source\PSoC4/Timer.c **** *******************************************************************************/
1294:.\Generated_Source\PSoC4/Timer.c **** uint32 Timer_ReadStatus(void)
1295:.\Generated_Source\PSoC4/Timer.c **** {
1296:.\Generated_Source\PSoC4/Timer.c ****     return ((Timer_STATUS_REG >> Timer_RUNNING_STATUS_SHIFT) |
1297:.\Generated_Source\PSoC4/Timer.c ****             (Timer_STATUS_REG & Timer_STATUS_DOWN));
1298:.\Generated_Source\PSoC4/Timer.c **** }
1299:.\Generated_Source\PSoC4/Timer.c **** 
1300:.\Generated_Source\PSoC4/Timer.c **** 
1301:.\Generated_Source\PSoC4/Timer.c **** /*******************************************************************************
1302:.\Generated_Source\PSoC4/Timer.c **** * Function Name: Timer_SetInterruptMode
1303:.\Generated_Source\PSoC4/Timer.c **** ********************************************************************************
1304:.\Generated_Source\PSoC4/Timer.c **** *
1305:.\Generated_Source\PSoC4/Timer.c **** * Summary:
1306:.\Generated_Source\PSoC4/Timer.c **** *  Sets the interrupt mask to control which interrupt
1307:.\Generated_Source\PSoC4/Timer.c **** *  requests generate the interrupt signal.
1308:.\Generated_Source\PSoC4/Timer.c **** *
1309:.\Generated_Source\PSoC4/Timer.c **** * Parameters:
1310:.\Generated_Source\PSoC4/Timer.c **** *   interruptMask: Mask of bits to be enabled
1311:.\Generated_Source\PSoC4/Timer.c **** *   Values:
1312:.\Generated_Source\PSoC4/Timer.c **** *     - Timer_INTR_MASK_TC       - Terminal count mask
1313:.\Generated_Source\PSoC4/Timer.c **** *     - Timer_INTR_MASK_CC_MATCH - Compare count / capture mask
1314:.\Generated_Source\PSoC4/Timer.c **** *
1315:.\Generated_Source\PSoC4/Timer.c **** * Return:
1316:.\Generated_Source\PSoC4/Timer.c **** *  None
1317:.\Generated_Source\PSoC4/Timer.c **** *
1318:.\Generated_Source\PSoC4/Timer.c **** *******************************************************************************/
1319:.\Generated_Source\PSoC4/Timer.c **** void Timer_SetInterruptMode(uint32 interruptMask)
1320:.\Generated_Source\PSoC4/Timer.c **** {
1321:.\Generated_Source\PSoC4/Timer.c ****     Timer_INTERRUPT_MASK_REG =  interruptMask;
  44              		.loc 1 1321 0
ARM GAS  C:\Users\Helon\AppData\Local\Temp\ccSjkW6b.s 			page 25


  45 000c 074A     		ldr	r2, .L2+8
  46 000e 0B39     		sub	r1, r1, #11
  47 0010 1160     		str	r1, [r2]
  48              	.LVL1:
  49              	.LBE11:
  50              	.LBE10:
  51              	.LBB12:
  52              	.LBB13:
 695:.\Generated_Source\PSoC4/Timer.c **** }
  53              		.loc 1 695 0
  54 0012 0A22     		mov	r2, #10
  55 0014 0649     		ldr	r1, .L2+12
  56 0016 0A60     		str	r2, [r1]
  57              	.LVL2:
  58              	.LBE13:
  59              	.LBE12:
  60              	.LBB14:
  61              	.LBB15:
 873:.\Generated_Source\PSoC4/Timer.c **** }
  62              		.loc 1 873 0
  63 0018 0649     		ldr	r1, .L2+16
  64 001a 0A60     		str	r2, [r1]
  65              	.LVL3:
  66              	.LBE15:
  67              	.LBE14:
  68              	.LBB16:
  69              	.LBB17:
 617:.\Generated_Source\PSoC4/Timer.c **** }
  70              		.loc 1 617 0
  71 001c 064A     		ldr	r2, .L2+20
  72 001e 1360     		str	r3, [r2]
  73              	.LBE17:
  74              	.LBE16:
 160:.\Generated_Source\PSoC4/Timer.c **** 
  75              		.loc 1 160 0
  76 0020 7047     		bx	lr
  77              	.L3:
  78 0022 C046     		.align	2
  79              	.L2:
  80 0024 00012040 		.word	1075839232
  81 0028 24012040 		.word	1075839268
  82 002c 38012040 		.word	1075839288
  83 0030 14012040 		.word	1075839252
  84 0034 0C012040 		.word	1075839244
  85 0038 08012040 		.word	1075839240
  86              		.cfi_endproc
  87              	.LFE2:
  88              		.size	Timer_Init, .-Timer_Init
  89              		.section	.text.Timer_Stop,"ax",%progbits
  90              		.align	1
  91              		.global	Timer_Stop
  92              		.code	16
  93              		.thumb_func
  94              		.type	Timer_Stop, %function
  95              	Timer_Stop:
  96              	.LFB5:
 257:.\Generated_Source\PSoC4/Timer.c ****     uint8 enableInterrupts;
ARM GAS  C:\Users\Helon\AppData\Local\Temp\ccSjkW6b.s 			page 26


  97              		.loc 1 257 0
  98              		.cfi_startproc
  99 0000 08B5     		push	{r3, lr}
 100              		.cfi_def_cfa_offset 8
 101              		.cfi_offset 3, -8
 102              		.cfi_offset 14, -4
 260:.\Generated_Source\PSoC4/Timer.c **** 
 103              		.loc 1 260 0
 104 0002 FFF7FEFF 		bl	CyEnterCriticalSection
 105              	.LVL4:
 262:.\Generated_Source\PSoC4/Timer.c **** 
 106              		.loc 1 262 0
 107 0006 0121     		mov	r1, #1
 108 0008 034A     		ldr	r2, .L5
 265:.\Generated_Source\PSoC4/Timer.c **** 
 109              		.loc 1 265 0
 110              		@ sp needed
 262:.\Generated_Source\PSoC4/Timer.c **** 
 111              		.loc 1 262 0
 112 000a 1368     		ldr	r3, [r2]
 113 000c 8B43     		bic	r3, r1
 114 000e 1360     		str	r3, [r2]
 264:.\Generated_Source\PSoC4/Timer.c **** }
 115              		.loc 1 264 0
 116 0010 FFF7FEFF 		bl	CyExitCriticalSection
 117              	.LVL5:
 265:.\Generated_Source\PSoC4/Timer.c **** 
 118              		.loc 1 265 0
 119 0014 08BD     		pop	{r3, pc}
 120              	.L6:
 121 0016 C046     		.align	2
 122              	.L5:
 123 0018 00002040 		.word	1075838976
 124              		.cfi_endproc
 125              	.LFE5:
 126              		.size	Timer_Stop, .-Timer_Stop
 127              		.section	.text.Timer_SetMode,"ax",%progbits
 128              		.align	1
 129              		.global	Timer_SetMode
 130              		.code	16
 131              		.thumb_func
 132              		.type	Timer_SetMode, %function
 133              	Timer_SetMode:
 134              	.LFB6:
 294:.\Generated_Source\PSoC4/Timer.c ****     uint8 enableInterrupts;
 135              		.loc 1 294 0
 136              		.cfi_startproc
 137              	.LVL6:
 138 0000 10B5     		push	{r4, lr}
 139              		.cfi_def_cfa_offset 8
 140              		.cfi_offset 4, -8
 141              		.cfi_offset 14, -4
 294:.\Generated_Source\PSoC4/Timer.c ****     uint8 enableInterrupts;
 142              		.loc 1 294 0
 143 0002 041C     		mov	r4, r0
 297:.\Generated_Source\PSoC4/Timer.c **** 
 144              		.loc 1 297 0
ARM GAS  C:\Users\Helon\AppData\Local\Temp\ccSjkW6b.s 			page 27


 145 0004 FFF7FEFF 		bl	CyEnterCriticalSection
 146              	.LVL7:
 299:.\Generated_Source\PSoC4/Timer.c ****     Timer_CONTROL_REG |= mode;
 147              		.loc 1 299 0
 148 0008 054B     		ldr	r3, .L8
 149 000a 064A     		ldr	r2, .L8+4
 150 000c 1968     		ldr	r1, [r3]
 303:.\Generated_Source\PSoC4/Timer.c **** 
 151              		.loc 1 303 0
 152              		@ sp needed
 299:.\Generated_Source\PSoC4/Timer.c ****     Timer_CONTROL_REG |= mode;
 153              		.loc 1 299 0
 154 000e 0A40     		and	r2, r1
 155 0010 1A60     		str	r2, [r3]
 300:.\Generated_Source\PSoC4/Timer.c **** 
 156              		.loc 1 300 0
 157 0012 1A68     		ldr	r2, [r3]
 158 0014 2243     		orr	r2, r4
 159 0016 1A60     		str	r2, [r3]
 302:.\Generated_Source\PSoC4/Timer.c **** }
 160              		.loc 1 302 0
 161 0018 FFF7FEFF 		bl	CyExitCriticalSection
 162              	.LVL8:
 163              	.LVL9:
 303:.\Generated_Source\PSoC4/Timer.c **** 
 164              		.loc 1 303 0
 165 001c 10BD     		pop	{r4, pc}
 166              	.L9:
 167 001e C046     		.align	2
 168              	.L8:
 169 0020 00012040 		.word	1075839232
 170 0024 FFFFFFF8 		.word	-117440513
 171              		.cfi_endproc
 172              	.LFE6:
 173              		.size	Timer_SetMode, .-Timer_SetMode
 174              		.section	.text.Timer_SetQDMode,"ax",%progbits
 175              		.align	1
 176              		.global	Timer_SetQDMode
 177              		.code	16
 178              		.thumb_func
 179              		.type	Timer_SetQDMode, %function
 180              	Timer_SetQDMode:
 181              	.LFB7:
 327:.\Generated_Source\PSoC4/Timer.c ****     uint8 enableInterrupts;
 182              		.loc 1 327 0
 183              		.cfi_startproc
 184              	.LVL10:
 185 0000 10B5     		push	{r4, lr}
 186              		.cfi_def_cfa_offset 8
 187              		.cfi_offset 4, -8
 188              		.cfi_offset 14, -4
 327:.\Generated_Source\PSoC4/Timer.c ****     uint8 enableInterrupts;
 189              		.loc 1 327 0
 190 0002 041C     		mov	r4, r0
 330:.\Generated_Source\PSoC4/Timer.c **** 
 191              		.loc 1 330 0
 192 0004 FFF7FEFF 		bl	CyEnterCriticalSection
ARM GAS  C:\Users\Helon\AppData\Local\Temp\ccSjkW6b.s 			page 28


 193              	.LVL11:
 332:.\Generated_Source\PSoC4/Timer.c ****     Timer_CONTROL_REG |= qdMode;
 194              		.loc 1 332 0
 195 0008 054B     		ldr	r3, .L11
 196 000a 064A     		ldr	r2, .L11+4
 197 000c 1968     		ldr	r1, [r3]
 336:.\Generated_Source\PSoC4/Timer.c **** 
 198              		.loc 1 336 0
 199              		@ sp needed
 332:.\Generated_Source\PSoC4/Timer.c ****     Timer_CONTROL_REG |= qdMode;
 200              		.loc 1 332 0
 201 000e 0A40     		and	r2, r1
 202 0010 1A60     		str	r2, [r3]
 333:.\Generated_Source\PSoC4/Timer.c **** 
 203              		.loc 1 333 0
 204 0012 1A68     		ldr	r2, [r3]
 205 0014 2243     		orr	r2, r4
 206 0016 1A60     		str	r2, [r3]
 335:.\Generated_Source\PSoC4/Timer.c **** }
 207              		.loc 1 335 0
 208 0018 FFF7FEFF 		bl	CyExitCriticalSection
 209              	.LVL12:
 210              	.LVL13:
 336:.\Generated_Source\PSoC4/Timer.c **** 
 211              		.loc 1 336 0
 212 001c 10BD     		pop	{r4, pc}
 213              	.L12:
 214 001e C046     		.align	2
 215              	.L11:
 216 0020 00012040 		.word	1075839232
 217 0024 FFFF8FFF 		.word	-7340033
 218              		.cfi_endproc
 219              	.LFE7:
 220              		.size	Timer_SetQDMode, .-Timer_SetQDMode
 221              		.section	.text.Timer_SetPrescaler,"ax",%progbits
 222              		.align	1
 223              		.global	Timer_SetPrescaler
 224              		.code	16
 225              		.thumb_func
 226              		.type	Timer_SetPrescaler, %function
 227              	Timer_SetPrescaler:
 228              	.LFB8:
 364:.\Generated_Source\PSoC4/Timer.c ****     uint8 enableInterrupts;
 229              		.loc 1 364 0
 230              		.cfi_startproc
 231              	.LVL14:
 232 0000 10B5     		push	{r4, lr}
 233              		.cfi_def_cfa_offset 8
 234              		.cfi_offset 4, -8
 235              		.cfi_offset 14, -4
 364:.\Generated_Source\PSoC4/Timer.c ****     uint8 enableInterrupts;
 236              		.loc 1 364 0
 237 0002 041C     		mov	r4, r0
 367:.\Generated_Source\PSoC4/Timer.c **** 
 238              		.loc 1 367 0
 239 0004 FFF7FEFF 		bl	CyEnterCriticalSection
 240              	.LVL15:
ARM GAS  C:\Users\Helon\AppData\Local\Temp\ccSjkW6b.s 			page 29


 369:.\Generated_Source\PSoC4/Timer.c ****     Timer_CONTROL_REG |= prescaler;
 241              		.loc 1 369 0
 242 0008 054B     		ldr	r3, .L14
 243 000a 064A     		ldr	r2, .L14+4
 244 000c 1968     		ldr	r1, [r3]
 373:.\Generated_Source\PSoC4/Timer.c **** 
 245              		.loc 1 373 0
 246              		@ sp needed
 369:.\Generated_Source\PSoC4/Timer.c ****     Timer_CONTROL_REG |= prescaler;
 247              		.loc 1 369 0
 248 000e 0A40     		and	r2, r1
 249 0010 1A60     		str	r2, [r3]
 370:.\Generated_Source\PSoC4/Timer.c **** 
 250              		.loc 1 370 0
 251 0012 1A68     		ldr	r2, [r3]
 252 0014 2243     		orr	r2, r4
 253 0016 1A60     		str	r2, [r3]
 372:.\Generated_Source\PSoC4/Timer.c **** }
 254              		.loc 1 372 0
 255 0018 FFF7FEFF 		bl	CyExitCriticalSection
 256              	.LVL16:
 257              	.LVL17:
 373:.\Generated_Source\PSoC4/Timer.c **** 
 258              		.loc 1 373 0
 259 001c 10BD     		pop	{r4, pc}
 260              	.L15:
 261 001e C046     		.align	2
 262              	.L14:
 263 0020 00012040 		.word	1075839232
 264 0024 FF00FFFF 		.word	-65281
 265              		.cfi_endproc
 266              	.LFE8:
 267              		.size	Timer_SetPrescaler, .-Timer_SetPrescaler
 268              		.section	.text.Timer_SetOneShot,"ax",%progbits
 269              		.align	1
 270              		.global	Timer_SetOneShot
 271              		.code	16
 272              		.thumb_func
 273              		.type	Timer_SetOneShot, %function
 274              	Timer_SetOneShot:
 275              	.LFB9:
 396:.\Generated_Source\PSoC4/Timer.c ****     uint8 enableInterrupts;
 276              		.loc 1 396 0
 277              		.cfi_startproc
 278              	.LVL18:
 279 0000 10B5     		push	{r4, lr}
 280              		.cfi_def_cfa_offset 8
 281              		.cfi_offset 4, -8
 282              		.cfi_offset 14, -4
 396:.\Generated_Source\PSoC4/Timer.c ****     uint8 enableInterrupts;
 283              		.loc 1 396 0
 284 0002 041C     		mov	r4, r0
 399:.\Generated_Source\PSoC4/Timer.c **** 
 285              		.loc 1 399 0
 286 0004 FFF7FEFF 		bl	CyEnterCriticalSection
 287              	.LVL19:
 401:.\Generated_Source\PSoC4/Timer.c ****     Timer_CONTROL_REG |= ((uint32)((oneShotEnable & Timer_1BIT_MASK) <<
ARM GAS  C:\Users\Helon\AppData\Local\Temp\ccSjkW6b.s 			page 30


 288              		.loc 1 401 0
 289 0008 064A     		ldr	r2, .L17
 290 000a 074B     		ldr	r3, .L17+4
 291 000c 1168     		ldr	r1, [r2]
 406:.\Generated_Source\PSoC4/Timer.c **** 
 292              		.loc 1 406 0
 293              		@ sp needed
 401:.\Generated_Source\PSoC4/Timer.c ****     Timer_CONTROL_REG |= ((uint32)((oneShotEnable & Timer_1BIT_MASK) <<
 294              		.loc 1 401 0
 295 000e 0B40     		and	r3, r1
 296 0010 1360     		str	r3, [r2]
 402:.\Generated_Source\PSoC4/Timer.c ****                                                                Timer_ONESHOT_SHIFT));
 297              		.loc 1 402 0
 298 0012 0123     		mov	r3, #1
 299 0014 1168     		ldr	r1, [r2]
 300 0016 2340     		and	r3, r4
 301 0018 9B04     		lsl	r3, r3, #18
 302 001a 0B43     		orr	r3, r1
 303 001c 1360     		str	r3, [r2]
 405:.\Generated_Source\PSoC4/Timer.c **** }
 304              		.loc 1 405 0
 305 001e FFF7FEFF 		bl	CyExitCriticalSection
 306              	.LVL20:
 307              	.LVL21:
 406:.\Generated_Source\PSoC4/Timer.c **** 
 308              		.loc 1 406 0
 309 0022 10BD     		pop	{r4, pc}
 310              	.L18:
 311              		.align	2
 312              	.L17:
 313 0024 00012040 		.word	1075839232
 314 0028 FFFFFBFF 		.word	-262145
 315              		.cfi_endproc
 316              	.LFE9:
 317              		.size	Timer_SetOneShot, .-Timer_SetOneShot
 318              		.section	.text.Timer_SetPWMMode,"ax",%progbits
 319              		.align	1
 320              		.global	Timer_SetPWMMode
 321              		.code	16
 322              		.thumb_func
 323              		.type	Timer_SetPWMMode, %function
 324              	Timer_SetPWMMode:
 325              	.LFB10:
 450:.\Generated_Source\PSoC4/Timer.c ****     Timer_TRIG_CONTROL2_REG = (modeMask & Timer_6BIT_MASK);
 326              		.loc 1 450 0
 327              		.cfi_startproc
 328              	.LVL22:
 451:.\Generated_Source\PSoC4/Timer.c **** }
 329              		.loc 1 451 0
 330 0000 3F23     		mov	r3, #63
 331 0002 1840     		and	r0, r3
 332              	.LVL23:
 333 0004 014B     		ldr	r3, .L20
 452:.\Generated_Source\PSoC4/Timer.c **** 
 334              		.loc 1 452 0
 335              		@ sp needed
 451:.\Generated_Source\PSoC4/Timer.c **** }
ARM GAS  C:\Users\Helon\AppData\Local\Temp\ccSjkW6b.s 			page 31


 336              		.loc 1 451 0
 337 0006 1860     		str	r0, [r3]
 452:.\Generated_Source\PSoC4/Timer.c **** 
 338              		.loc 1 452 0
 339 0008 7047     		bx	lr
 340              	.L21:
 341 000a C046     		.align	2
 342              	.L20:
 343 000c 28012040 		.word	1075839272
 344              		.cfi_endproc
 345              	.LFE10:
 346              		.size	Timer_SetPWMMode, .-Timer_SetPWMMode
 347              		.section	.text.Timer_SetPWMSyncKill,"ax",%progbits
 348              		.align	1
 349              		.global	Timer_SetPWMSyncKill
 350              		.code	16
 351              		.thumb_func
 352              		.type	Timer_SetPWMSyncKill, %function
 353              	Timer_SetPWMSyncKill:
 354              	.LFB11:
 486:.\Generated_Source\PSoC4/Timer.c ****     uint8 enableInterrupts;
 355              		.loc 1 486 0
 356              		.cfi_startproc
 357              	.LVL24:
 358 0000 10B5     		push	{r4, lr}
 359              		.cfi_def_cfa_offset 8
 360              		.cfi_offset 4, -8
 361              		.cfi_offset 14, -4
 486:.\Generated_Source\PSoC4/Timer.c ****     uint8 enableInterrupts;
 362              		.loc 1 486 0
 363 0002 041C     		mov	r4, r0
 489:.\Generated_Source\PSoC4/Timer.c **** 
 364              		.loc 1 489 0
 365 0004 FFF7FEFF 		bl	CyEnterCriticalSection
 366              	.LVL25:
 491:.\Generated_Source\PSoC4/Timer.c ****     Timer_CONTROL_REG |= ((uint32)((syncKillEnable & Timer_1BIT_MASK)  <<
 367              		.loc 1 491 0
 368 0008 0421     		mov	r1, #4
 369 000a 064A     		ldr	r2, .L23
 496:.\Generated_Source\PSoC4/Timer.c **** 
 370              		.loc 1 496 0
 371              		@ sp needed
 491:.\Generated_Source\PSoC4/Timer.c ****     Timer_CONTROL_REG |= ((uint32)((syncKillEnable & Timer_1BIT_MASK)  <<
 372              		.loc 1 491 0
 373 000c 1368     		ldr	r3, [r2]
 374 000e 8B43     		bic	r3, r1
 375 0010 1360     		str	r3, [r2]
 492:.\Generated_Source\PSoC4/Timer.c ****                                                Timer_PWM_SYNC_KILL_SHIFT));
 376              		.loc 1 492 0
 377 0012 0123     		mov	r3, #1
 378 0014 1168     		ldr	r1, [r2]
 379 0016 2340     		and	r3, r4
 380 0018 9B00     		lsl	r3, r3, #2
 381 001a 0B43     		orr	r3, r1
 382 001c 1360     		str	r3, [r2]
 495:.\Generated_Source\PSoC4/Timer.c **** }
 383              		.loc 1 495 0
ARM GAS  C:\Users\Helon\AppData\Local\Temp\ccSjkW6b.s 			page 32


 384 001e FFF7FEFF 		bl	CyExitCriticalSection
 385              	.LVL26:
 386              	.LVL27:
 496:.\Generated_Source\PSoC4/Timer.c **** 
 387              		.loc 1 496 0
 388 0022 10BD     		pop	{r4, pc}
 389              	.L24:
 390              		.align	2
 391              	.L23:
 392 0024 00012040 		.word	1075839232
 393              		.cfi_endproc
 394              	.LFE11:
 395              		.size	Timer_SetPWMSyncKill, .-Timer_SetPWMSyncKill
 396              		.section	.text.Timer_SetPWMStopOnKill,"ax",%progbits
 397              		.align	1
 398              		.global	Timer_SetPWMStopOnKill
 399              		.code	16
 400              		.thumb_func
 401              		.type	Timer_SetPWMStopOnKill, %function
 402              	Timer_SetPWMStopOnKill:
 403              	.LFB12:
 520:.\Generated_Source\PSoC4/Timer.c ****     uint8 enableInterrupts;
 404              		.loc 1 520 0
 405              		.cfi_startproc
 406              	.LVL28:
 407 0000 10B5     		push	{r4, lr}
 408              		.cfi_def_cfa_offset 8
 409              		.cfi_offset 4, -8
 410              		.cfi_offset 14, -4
 520:.\Generated_Source\PSoC4/Timer.c ****     uint8 enableInterrupts;
 411              		.loc 1 520 0
 412 0002 041C     		mov	r4, r0
 523:.\Generated_Source\PSoC4/Timer.c **** 
 413              		.loc 1 523 0
 414 0004 FFF7FEFF 		bl	CyEnterCriticalSection
 415              	.LVL29:
 525:.\Generated_Source\PSoC4/Timer.c ****     Timer_CONTROL_REG |= ((uint32)((stopOnKillEnable & Timer_1BIT_MASK)  <<
 416              		.loc 1 525 0
 417 0008 0821     		mov	r1, #8
 418 000a 064A     		ldr	r2, .L26
 530:.\Generated_Source\PSoC4/Timer.c **** 
 419              		.loc 1 530 0
 420              		@ sp needed
 525:.\Generated_Source\PSoC4/Timer.c ****     Timer_CONTROL_REG |= ((uint32)((stopOnKillEnable & Timer_1BIT_MASK)  <<
 421              		.loc 1 525 0
 422 000c 1368     		ldr	r3, [r2]
 423 000e 8B43     		bic	r3, r1
 424 0010 1360     		str	r3, [r2]
 526:.\Generated_Source\PSoC4/Timer.c ****                                                          Timer_PWM_STOP_KILL_SHIFT));
 425              		.loc 1 526 0
 426 0012 0123     		mov	r3, #1
 427 0014 1168     		ldr	r1, [r2]
 428 0016 2340     		and	r3, r4
 429 0018 DB00     		lsl	r3, r3, #3
 430 001a 0B43     		orr	r3, r1
 431 001c 1360     		str	r3, [r2]
 529:.\Generated_Source\PSoC4/Timer.c **** }
ARM GAS  C:\Users\Helon\AppData\Local\Temp\ccSjkW6b.s 			page 33


 432              		.loc 1 529 0
 433 001e FFF7FEFF 		bl	CyExitCriticalSection
 434              	.LVL30:
 435              	.LVL31:
 530:.\Generated_Source\PSoC4/Timer.c **** 
 436              		.loc 1 530 0
 437 0022 10BD     		pop	{r4, pc}
 438              	.L27:
 439              		.align	2
 440              	.L26:
 441 0024 00012040 		.word	1075839232
 442              		.cfi_endproc
 443              	.LFE12:
 444              		.size	Timer_SetPWMStopOnKill, .-Timer_SetPWMStopOnKill
 445              		.section	.text.Timer_SetPWMDeadTime,"ax",%progbits
 446              		.align	1
 447              		.global	Timer_SetPWMDeadTime
 448              		.code	16
 449              		.thumb_func
 450              		.type	Timer_SetPWMDeadTime, %function
 451              	Timer_SetPWMDeadTime:
 452              	.LFB13:
 553:.\Generated_Source\PSoC4/Timer.c ****     uint8 enableInterrupts;
 453              		.loc 1 553 0
 454              		.cfi_startproc
 455              	.LVL32:
 456 0000 10B5     		push	{r4, lr}
 457              		.cfi_def_cfa_offset 8
 458              		.cfi_offset 4, -8
 459              		.cfi_offset 14, -4
 553:.\Generated_Source\PSoC4/Timer.c ****     uint8 enableInterrupts;
 460              		.loc 1 553 0
 461 0002 041C     		mov	r4, r0
 556:.\Generated_Source\PSoC4/Timer.c **** 
 462              		.loc 1 556 0
 463 0004 FFF7FEFF 		bl	CyEnterCriticalSection
 464              	.LVL33:
 558:.\Generated_Source\PSoC4/Timer.c ****     Timer_CONTROL_REG |= ((uint32)((deadTime & Timer_8BIT_MASK) <<
 465              		.loc 1 558 0
 466 0008 064B     		ldr	r3, .L29
 467 000a 074A     		ldr	r2, .L29+4
 468 000c 1968     		ldr	r1, [r3]
 559:.\Generated_Source\PSoC4/Timer.c ****                                                           Timer_PRESCALER_SHIFT));
 469              		.loc 1 559 0
 470 000e 2406     		lsl	r4, r4, #24
 471              	.LVL34:
 558:.\Generated_Source\PSoC4/Timer.c ****     Timer_CONTROL_REG |= ((uint32)((deadTime & Timer_8BIT_MASK) <<
 472              		.loc 1 558 0
 473 0010 0A40     		and	r2, r1
 474 0012 1A60     		str	r2, [r3]
 559:.\Generated_Source\PSoC4/Timer.c ****                                                           Timer_PRESCALER_SHIFT));
 475              		.loc 1 559 0
 476 0014 1A68     		ldr	r2, [r3]
 477 0016 240C     		lsr	r4, r4, #16
 478 0018 1443     		orr	r4, r2
 479 001a 1C60     		str	r4, [r3]
 562:.\Generated_Source\PSoC4/Timer.c **** }
ARM GAS  C:\Users\Helon\AppData\Local\Temp\ccSjkW6b.s 			page 34


 480              		.loc 1 562 0
 481 001c FFF7FEFF 		bl	CyExitCriticalSection
 482              	.LVL35:
 563:.\Generated_Source\PSoC4/Timer.c **** 
 483              		.loc 1 563 0
 484              		@ sp needed
 485 0020 10BD     		pop	{r4, pc}
 486              	.L30:
 487 0022 C046     		.align	2
 488              	.L29:
 489 0024 00012040 		.word	1075839232
 490 0028 FF00FFFF 		.word	-65281
 491              		.cfi_endproc
 492              	.LFE13:
 493              		.size	Timer_SetPWMDeadTime, .-Timer_SetPWMDeadTime
 494              		.section	.text.Timer_SetPWMInvert,"ax",%progbits
 495              		.align	1
 496              		.global	Timer_SetPWMInvert
 497              		.code	16
 498              		.thumb_func
 499              		.type	Timer_SetPWMInvert, %function
 500              	Timer_SetPWMInvert:
 501              	.LFB14:
 586:.\Generated_Source\PSoC4/Timer.c ****     uint8 enableInterrupts;
 502              		.loc 1 586 0
 503              		.cfi_startproc
 504              	.LVL36:
 505 0000 10B5     		push	{r4, lr}
 506              		.cfi_def_cfa_offset 8
 507              		.cfi_offset 4, -8
 508              		.cfi_offset 14, -4
 586:.\Generated_Source\PSoC4/Timer.c ****     uint8 enableInterrupts;
 509              		.loc 1 586 0
 510 0002 041C     		mov	r4, r0
 589:.\Generated_Source\PSoC4/Timer.c **** 
 511              		.loc 1 589 0
 512 0004 FFF7FEFF 		bl	CyEnterCriticalSection
 513              	.LVL37:
 591:.\Generated_Source\PSoC4/Timer.c ****     Timer_CONTROL_REG |= mask;
 514              		.loc 1 591 0
 515 0008 054B     		ldr	r3, .L32
 516 000a 064A     		ldr	r2, .L32+4
 517 000c 1968     		ldr	r1, [r3]
 595:.\Generated_Source\PSoC4/Timer.c **** 
 518              		.loc 1 595 0
 519              		@ sp needed
 591:.\Generated_Source\PSoC4/Timer.c ****     Timer_CONTROL_REG |= mask;
 520              		.loc 1 591 0
 521 000e 0A40     		and	r2, r1
 522 0010 1A60     		str	r2, [r3]
 592:.\Generated_Source\PSoC4/Timer.c **** 
 523              		.loc 1 592 0
 524 0012 1A68     		ldr	r2, [r3]
 525 0014 2243     		orr	r2, r4
 526 0016 1A60     		str	r2, [r3]
 594:.\Generated_Source\PSoC4/Timer.c **** }
 527              		.loc 1 594 0
ARM GAS  C:\Users\Helon\AppData\Local\Temp\ccSjkW6b.s 			page 35


 528 0018 FFF7FEFF 		bl	CyExitCriticalSection
 529              	.LVL38:
 530              	.LVL39:
 595:.\Generated_Source\PSoC4/Timer.c **** 
 531              		.loc 1 595 0
 532 001c 10BD     		pop	{r4, pc}
 533              	.L33:
 534 001e C046     		.align	2
 535              	.L32:
 536 0020 00012040 		.word	1075839232
 537 0024 FFFFCFFF 		.word	-3145729
 538              		.cfi_endproc
 539              	.LFE14:
 540              		.size	Timer_SetPWMInvert, .-Timer_SetPWMInvert
 541              		.section	.text.Timer_WriteCounter,"ax",%progbits
 542              		.align	1
 543              		.global	Timer_WriteCounter
 544              		.code	16
 545              		.thumb_func
 546              		.type	Timer_WriteCounter, %function
 547              	Timer_WriteCounter:
 548              	.LFB15:
 616:.\Generated_Source\PSoC4/Timer.c ****     Timer_COUNTER_REG = (count & Timer_16BIT_MASK);
 549              		.loc 1 616 0
 550              		.cfi_startproc
 551              	.LVL40:
 617:.\Generated_Source\PSoC4/Timer.c **** }
 552              		.loc 1 617 0
 553 0000 014B     		ldr	r3, .L35
 554 0002 80B2     		uxth	r0, r0
 555              	.LVL41:
 556 0004 1860     		str	r0, [r3]
 618:.\Generated_Source\PSoC4/Timer.c **** 
 557              		.loc 1 618 0
 558              		@ sp needed
 559 0006 7047     		bx	lr
 560              	.L36:
 561              		.align	2
 562              	.L35:
 563 0008 08012040 		.word	1075839240
 564              		.cfi_endproc
 565              	.LFE15:
 566              		.size	Timer_WriteCounter, .-Timer_WriteCounter
 567              		.section	.text.Timer_ReadCounter,"ax",%progbits
 568              		.align	1
 569              		.global	Timer_ReadCounter
 570              		.code	16
 571              		.thumb_func
 572              		.type	Timer_ReadCounter, %function
 573              	Timer_ReadCounter:
 574              	.LFB16:
 636:.\Generated_Source\PSoC4/Timer.c ****     return (Timer_COUNTER_REG & Timer_16BIT_MASK);
 575              		.loc 1 636 0
 576              		.cfi_startproc
 637:.\Generated_Source\PSoC4/Timer.c **** }
 577              		.loc 1 637 0
 578 0000 014B     		ldr	r3, .L38
ARM GAS  C:\Users\Helon\AppData\Local\Temp\ccSjkW6b.s 			page 36


 638:.\Generated_Source\PSoC4/Timer.c **** 
 579              		.loc 1 638 0
 580              		@ sp needed
 637:.\Generated_Source\PSoC4/Timer.c **** }
 581              		.loc 1 637 0
 582 0002 1868     		ldr	r0, [r3]
 583 0004 80B2     		uxth	r0, r0
 638:.\Generated_Source\PSoC4/Timer.c **** 
 584              		.loc 1 638 0
 585 0006 7047     		bx	lr
 586              	.L39:
 587              		.align	2
 588              	.L38:
 589 0008 08012040 		.word	1075839240
 590              		.cfi_endproc
 591              	.LFE16:
 592              		.size	Timer_ReadCounter, .-Timer_ReadCounter
 593              		.section	.text.Timer_SetCounterMode,"ax",%progbits
 594              		.align	1
 595              		.global	Timer_SetCounterMode
 596              		.code	16
 597              		.thumb_func
 598              		.type	Timer_SetCounterMode, %function
 599              	Timer_SetCounterMode:
 600              	.LFB17:
 665:.\Generated_Source\PSoC4/Timer.c ****     uint8 enableInterrupts;
 601              		.loc 1 665 0
 602              		.cfi_startproc
 603              	.LVL42:
 604 0000 10B5     		push	{r4, lr}
 605              		.cfi_def_cfa_offset 8
 606              		.cfi_offset 4, -8
 607              		.cfi_offset 14, -4
 665:.\Generated_Source\PSoC4/Timer.c ****     uint8 enableInterrupts;
 608              		.loc 1 665 0
 609 0002 041C     		mov	r4, r0
 668:.\Generated_Source\PSoC4/Timer.c **** 
 610              		.loc 1 668 0
 611 0004 FFF7FEFF 		bl	CyEnterCriticalSection
 612              	.LVL43:
 670:.\Generated_Source\PSoC4/Timer.c ****     Timer_CONTROL_REG |= counterMode;
 613              		.loc 1 670 0
 614 0008 054B     		ldr	r3, .L41
 615 000a 064A     		ldr	r2, .L41+4
 616 000c 1968     		ldr	r1, [r3]
 674:.\Generated_Source\PSoC4/Timer.c **** 
 617              		.loc 1 674 0
 618              		@ sp needed
 670:.\Generated_Source\PSoC4/Timer.c ****     Timer_CONTROL_REG |= counterMode;
 619              		.loc 1 670 0
 620 000e 0A40     		and	r2, r1
 621 0010 1A60     		str	r2, [r3]
 671:.\Generated_Source\PSoC4/Timer.c **** 
 622              		.loc 1 671 0
 623 0012 1A68     		ldr	r2, [r3]
 624 0014 2243     		orr	r2, r4
 625 0016 1A60     		str	r2, [r3]
ARM GAS  C:\Users\Helon\AppData\Local\Temp\ccSjkW6b.s 			page 37


 673:.\Generated_Source\PSoC4/Timer.c **** }
 626              		.loc 1 673 0
 627 0018 FFF7FEFF 		bl	CyExitCriticalSection
 628              	.LVL44:
 629              	.LVL45:
 674:.\Generated_Source\PSoC4/Timer.c **** 
 630              		.loc 1 674 0
 631 001c 10BD     		pop	{r4, pc}
 632              	.L42:
 633 001e C046     		.align	2
 634              	.L41:
 635 0020 00012040 		.word	1075839232
 636 0024 FFFFFCFF 		.word	-196609
 637              		.cfi_endproc
 638              	.LFE17:
 639              		.size	Timer_SetCounterMode, .-Timer_SetCounterMode
 640              		.section	.text.Timer_WritePeriod,"ax",%progbits
 641              		.align	1
 642              		.global	Timer_WritePeriod
 643              		.code	16
 644              		.thumb_func
 645              		.type	Timer_WritePeriod, %function
 646              	Timer_WritePeriod:
 647              	.LFB18:
 694:.\Generated_Source\PSoC4/Timer.c ****     Timer_PERIOD_REG = (period & Timer_16BIT_MASK);
 648              		.loc 1 694 0
 649              		.cfi_startproc
 650              	.LVL46:
 695:.\Generated_Source\PSoC4/Timer.c **** }
 651              		.loc 1 695 0
 652 0000 014B     		ldr	r3, .L44
 653 0002 80B2     		uxth	r0, r0
 654              	.LVL47:
 655 0004 1860     		str	r0, [r3]
 696:.\Generated_Source\PSoC4/Timer.c **** 
 656              		.loc 1 696 0
 657              		@ sp needed
 658 0006 7047     		bx	lr
 659              	.L45:
 660              		.align	2
 661              	.L44:
 662 0008 14012040 		.word	1075839252
 663              		.cfi_endproc
 664              	.LFE18:
 665              		.size	Timer_WritePeriod, .-Timer_WritePeriod
 666              		.section	.text.Timer_ReadPeriod,"ax",%progbits
 667              		.align	1
 668              		.global	Timer_ReadPeriod
 669              		.code	16
 670              		.thumb_func
 671              		.type	Timer_ReadPeriod, %function
 672              	Timer_ReadPeriod:
 673              	.LFB19:
 714:.\Generated_Source\PSoC4/Timer.c ****     return (Timer_PERIOD_REG & Timer_16BIT_MASK);
 674              		.loc 1 714 0
 675              		.cfi_startproc
 715:.\Generated_Source\PSoC4/Timer.c **** }
ARM GAS  C:\Users\Helon\AppData\Local\Temp\ccSjkW6b.s 			page 38


 676              		.loc 1 715 0
 677 0000 014B     		ldr	r3, .L47
 716:.\Generated_Source\PSoC4/Timer.c **** 
 678              		.loc 1 716 0
 679              		@ sp needed
 715:.\Generated_Source\PSoC4/Timer.c **** }
 680              		.loc 1 715 0
 681 0002 1868     		ldr	r0, [r3]
 682 0004 80B2     		uxth	r0, r0
 716:.\Generated_Source\PSoC4/Timer.c **** 
 683              		.loc 1 716 0
 684 0006 7047     		bx	lr
 685              	.L48:
 686              		.align	2
 687              	.L47:
 688 0008 14012040 		.word	1075839252
 689              		.cfi_endproc
 690              	.LFE19:
 691              		.size	Timer_ReadPeriod, .-Timer_ReadPeriod
 692              		.section	.text.Timer_SetCompareSwap,"ax",%progbits
 693              		.align	1
 694              		.global	Timer_SetCompareSwap
 695              		.code	16
 696              		.thumb_func
 697              		.type	Timer_SetCompareSwap, %function
 698              	Timer_SetCompareSwap:
 699              	.LFB20:
 740:.\Generated_Source\PSoC4/Timer.c ****     uint8 enableInterrupts;
 700              		.loc 1 740 0
 701              		.cfi_startproc
 702              	.LVL48:
 703 0000 10B5     		push	{r4, lr}
 704              		.cfi_def_cfa_offset 8
 705              		.cfi_offset 4, -8
 706              		.cfi_offset 14, -4
 740:.\Generated_Source\PSoC4/Timer.c ****     uint8 enableInterrupts;
 707              		.loc 1 740 0
 708 0002 041C     		mov	r4, r0
 743:.\Generated_Source\PSoC4/Timer.c **** 
 709              		.loc 1 743 0
 710 0004 FFF7FEFF 		bl	CyEnterCriticalSection
 711              	.LVL49:
 745:.\Generated_Source\PSoC4/Timer.c ****     Timer_CONTROL_REG |= (swapEnable & Timer_1BIT_MASK);
 712              		.loc 1 745 0
 713 0008 0122     		mov	r2, #1
 714 000a 054B     		ldr	r3, .L50
 749:.\Generated_Source\PSoC4/Timer.c **** 
 715              		.loc 1 749 0
 716              		@ sp needed
 745:.\Generated_Source\PSoC4/Timer.c ****     Timer_CONTROL_REG |= (swapEnable & Timer_1BIT_MASK);
 717              		.loc 1 745 0
 718 000c 1968     		ldr	r1, [r3]
 719 000e 9143     		bic	r1, r2
 720 0010 1960     		str	r1, [r3]
 746:.\Generated_Source\PSoC4/Timer.c **** 
 721              		.loc 1 746 0
 722 0012 1968     		ldr	r1, [r3]
ARM GAS  C:\Users\Helon\AppData\Local\Temp\ccSjkW6b.s 			page 39


 723 0014 2240     		and	r2, r4
 724 0016 0A43     		orr	r2, r1
 725 0018 1A60     		str	r2, [r3]
 748:.\Generated_Source\PSoC4/Timer.c **** }
 726              		.loc 1 748 0
 727 001a FFF7FEFF 		bl	CyExitCriticalSection
 728              	.LVL50:
 729              	.LVL51:
 749:.\Generated_Source\PSoC4/Timer.c **** 
 730              		.loc 1 749 0
 731 001e 10BD     		pop	{r4, pc}
 732              	.L51:
 733              		.align	2
 734              	.L50:
 735 0020 00012040 		.word	1075839232
 736              		.cfi_endproc
 737              	.LFE20:
 738              		.size	Timer_SetCompareSwap, .-Timer_SetCompareSwap
 739              		.section	.text.Timer_WritePeriodBuf,"ax",%progbits
 740              		.align	1
 741              		.global	Timer_WritePeriodBuf
 742              		.code	16
 743              		.thumb_func
 744              		.type	Timer_WritePeriodBuf, %function
 745              	Timer_WritePeriodBuf:
 746              	.LFB21:
 767:.\Generated_Source\PSoC4/Timer.c ****     Timer_PERIOD_BUF_REG = (periodBuf & Timer_16BIT_MASK);
 747              		.loc 1 767 0
 748              		.cfi_startproc
 749              	.LVL52:
 768:.\Generated_Source\PSoC4/Timer.c **** }
 750              		.loc 1 768 0
 751 0000 014B     		ldr	r3, .L53
 752 0002 80B2     		uxth	r0, r0
 753              	.LVL53:
 754 0004 1860     		str	r0, [r3]
 769:.\Generated_Source\PSoC4/Timer.c **** 
 755              		.loc 1 769 0
 756              		@ sp needed
 757 0006 7047     		bx	lr
 758              	.L54:
 759              		.align	2
 760              	.L53:
 761 0008 18012040 		.word	1075839256
 762              		.cfi_endproc
 763              	.LFE21:
 764              		.size	Timer_WritePeriodBuf, .-Timer_WritePeriodBuf
 765              		.section	.text.Timer_ReadPeriodBuf,"ax",%progbits
 766              		.align	1
 767              		.global	Timer_ReadPeriodBuf
 768              		.code	16
 769              		.thumb_func
 770              		.type	Timer_ReadPeriodBuf, %function
 771              	Timer_ReadPeriodBuf:
 772              	.LFB22:
 787:.\Generated_Source\PSoC4/Timer.c ****     return (Timer_PERIOD_BUF_REG & Timer_16BIT_MASK);
 773              		.loc 1 787 0
ARM GAS  C:\Users\Helon\AppData\Local\Temp\ccSjkW6b.s 			page 40


 774              		.cfi_startproc
 788:.\Generated_Source\PSoC4/Timer.c **** }
 775              		.loc 1 788 0
 776 0000 014B     		ldr	r3, .L56
 789:.\Generated_Source\PSoC4/Timer.c **** 
 777              		.loc 1 789 0
 778              		@ sp needed
 788:.\Generated_Source\PSoC4/Timer.c **** }
 779              		.loc 1 788 0
 780 0002 1868     		ldr	r0, [r3]
 781 0004 80B2     		uxth	r0, r0
 789:.\Generated_Source\PSoC4/Timer.c **** 
 782              		.loc 1 789 0
 783 0006 7047     		bx	lr
 784              	.L57:
 785              		.align	2
 786              	.L56:
 787 0008 18012040 		.word	1075839256
 788              		.cfi_endproc
 789              	.LFE22:
 790              		.size	Timer_ReadPeriodBuf, .-Timer_ReadPeriodBuf
 791              		.section	.text.Timer_SetPeriodSwap,"ax",%progbits
 792              		.align	1
 793              		.global	Timer_SetPeriodSwap
 794              		.code	16
 795              		.thumb_func
 796              		.type	Timer_SetPeriodSwap, %function
 797              	Timer_SetPeriodSwap:
 798              	.LFB23:
 813:.\Generated_Source\PSoC4/Timer.c ****     uint8 enableInterrupts;
 799              		.loc 1 813 0
 800              		.cfi_startproc
 801              	.LVL54:
 802 0000 10B5     		push	{r4, lr}
 803              		.cfi_def_cfa_offset 8
 804              		.cfi_offset 4, -8
 805              		.cfi_offset 14, -4
 813:.\Generated_Source\PSoC4/Timer.c ****     uint8 enableInterrupts;
 806              		.loc 1 813 0
 807 0002 041C     		mov	r4, r0
 816:.\Generated_Source\PSoC4/Timer.c **** 
 808              		.loc 1 816 0
 809 0004 FFF7FEFF 		bl	CyEnterCriticalSection
 810              	.LVL55:
 818:.\Generated_Source\PSoC4/Timer.c ****     Timer_CONTROL_REG |= ((uint32)((swapEnable & Timer_1BIT_MASK) <<
 811              		.loc 1 818 0
 812 0008 0221     		mov	r1, #2
 813 000a 064A     		ldr	r2, .L59
 823:.\Generated_Source\PSoC4/Timer.c **** 
 814              		.loc 1 823 0
 815              		@ sp needed
 818:.\Generated_Source\PSoC4/Timer.c ****     Timer_CONTROL_REG |= ((uint32)((swapEnable & Timer_1BIT_MASK) <<
 816              		.loc 1 818 0
 817 000c 1368     		ldr	r3, [r2]
 818 000e 8B43     		bic	r3, r1
 819 0010 1360     		str	r3, [r2]
 819:.\Generated_Source\PSoC4/Timer.c ****                                                             Timer_RELOAD_PERIOD_SHIFT));
ARM GAS  C:\Users\Helon\AppData\Local\Temp\ccSjkW6b.s 			page 41


 820              		.loc 1 819 0
 821 0012 0123     		mov	r3, #1
 822 0014 1168     		ldr	r1, [r2]
 823 0016 2340     		and	r3, r4
 824 0018 5B00     		lsl	r3, r3, #1
 825 001a 0B43     		orr	r3, r1
 826 001c 1360     		str	r3, [r2]
 822:.\Generated_Source\PSoC4/Timer.c **** }
 827              		.loc 1 822 0
 828 001e FFF7FEFF 		bl	CyExitCriticalSection
 829              	.LVL56:
 830              	.LVL57:
 823:.\Generated_Source\PSoC4/Timer.c **** 
 831              		.loc 1 823 0
 832 0022 10BD     		pop	{r4, pc}
 833              	.L60:
 834              		.align	2
 835              	.L59:
 836 0024 00012040 		.word	1075839232
 837              		.cfi_endproc
 838              	.LFE23:
 839              		.size	Timer_SetPeriodSwap, .-Timer_SetPeriodSwap
 840              		.section	.text.Timer_WriteCompare,"ax",%progbits
 841              		.align	1
 842              		.global	Timer_WriteCompare
 843              		.code	16
 844              		.thumb_func
 845              		.type	Timer_WriteCompare, %function
 846              	Timer_WriteCompare:
 847              	.LFB24:
 850:.\Generated_Source\PSoC4/Timer.c ****     #if (Timer_CY_TCPWM_4000)
 848              		.loc 1 850 0
 849              		.cfi_startproc
 850              	.LVL58:
 873:.\Generated_Source\PSoC4/Timer.c **** }
 851              		.loc 1 873 0
 852 0000 014B     		ldr	r3, .L62
 853 0002 80B2     		uxth	r0, r0
 854              	.LVL59:
 855 0004 1860     		str	r0, [r3]
 874:.\Generated_Source\PSoC4/Timer.c **** 
 856              		.loc 1 874 0
 857              		@ sp needed
 858 0006 7047     		bx	lr
 859              	.L63:
 860              		.align	2
 861              	.L62:
 862 0008 0C012040 		.word	1075839244
 863              		.cfi_endproc
 864              	.LFE24:
 865              		.size	Timer_WriteCompare, .-Timer_WriteCompare
 866              		.section	.text.Timer_ReadCompare,"ax",%progbits
 867              		.align	1
 868              		.global	Timer_ReadCompare
 869              		.code	16
 870              		.thumb_func
 871              		.type	Timer_ReadCompare, %function
ARM GAS  C:\Users\Helon\AppData\Local\Temp\ccSjkW6b.s 			page 42


 872              	Timer_ReadCompare:
 873              	.LFB25:
 901:.\Generated_Source\PSoC4/Timer.c ****     #if (Timer_CY_TCPWM_4000)
 874              		.loc 1 901 0
 875              		.cfi_startproc
 926:.\Generated_Source\PSoC4/Timer.c ****     #endif /* (Timer_CY_TCPWM_4000) */
 876              		.loc 1 926 0
 877 0000 014B     		ldr	r3, .L65
 928:.\Generated_Source\PSoC4/Timer.c **** 
 878              		.loc 1 928 0
 879              		@ sp needed
 926:.\Generated_Source\PSoC4/Timer.c ****     #endif /* (Timer_CY_TCPWM_4000) */
 880              		.loc 1 926 0
 881 0002 1868     		ldr	r0, [r3]
 882 0004 80B2     		uxth	r0, r0
 928:.\Generated_Source\PSoC4/Timer.c **** 
 883              		.loc 1 928 0
 884 0006 7047     		bx	lr
 885              	.L66:
 886              		.align	2
 887              	.L65:
 888 0008 0C012040 		.word	1075839244
 889              		.cfi_endproc
 890              	.LFE25:
 891              		.size	Timer_ReadCompare, .-Timer_ReadCompare
 892              		.section	.text.Timer_WriteCompareBuf,"ax",%progbits
 893              		.align	1
 894              		.global	Timer_WriteCompareBuf
 895              		.code	16
 896              		.thumb_func
 897              		.type	Timer_WriteCompareBuf, %function
 898              	Timer_WriteCompareBuf:
 899              	.LFB26:
 955:.\Generated_Source\PSoC4/Timer.c ****     #if (Timer_CY_TCPWM_4000)
 900              		.loc 1 955 0
 901              		.cfi_startproc
 902              	.LVL60:
 976:.\Generated_Source\PSoC4/Timer.c **** }
 903              		.loc 1 976 0
 904 0000 014B     		ldr	r3, .L68
 905 0002 80B2     		uxth	r0, r0
 906              	.LVL61:
 907 0004 1860     		str	r0, [r3]
 977:.\Generated_Source\PSoC4/Timer.c **** 
 908              		.loc 1 977 0
 909              		@ sp needed
 910 0006 7047     		bx	lr
 911              	.L69:
 912              		.align	2
 913              	.L68:
 914 0008 10012040 		.word	1075839248
 915              		.cfi_endproc
 916              	.LFE26:
 917              		.size	Timer_WriteCompareBuf, .-Timer_WriteCompareBuf
 918              		.section	.text.Timer_ReadCompareBuf,"ax",%progbits
 919              		.align	1
 920              		.global	Timer_ReadCompareBuf
ARM GAS  C:\Users\Helon\AppData\Local\Temp\ccSjkW6b.s 			page 43


 921              		.code	16
 922              		.thumb_func
 923              		.type	Timer_ReadCompareBuf, %function
 924              	Timer_ReadCompareBuf:
 925              	.LFB27:
1001:.\Generated_Source\PSoC4/Timer.c ****     #if (Timer_CY_TCPWM_4000)
 926              		.loc 1 1001 0
 927              		.cfi_startproc
1026:.\Generated_Source\PSoC4/Timer.c ****     #endif /* (Timer_CY_TCPWM_4000) */
 928              		.loc 1 1026 0
 929 0000 014B     		ldr	r3, .L71
1028:.\Generated_Source\PSoC4/Timer.c **** 
 930              		.loc 1 1028 0
 931              		@ sp needed
1026:.\Generated_Source\PSoC4/Timer.c ****     #endif /* (Timer_CY_TCPWM_4000) */
 932              		.loc 1 1026 0
 933 0002 1868     		ldr	r0, [r3]
 934 0004 80B2     		uxth	r0, r0
1028:.\Generated_Source\PSoC4/Timer.c **** 
 935              		.loc 1 1028 0
 936 0006 7047     		bx	lr
 937              	.L72:
 938              		.align	2
 939              	.L71:
 940 0008 10012040 		.word	1075839248
 941              		.cfi_endproc
 942              	.LFE27:
 943              		.size	Timer_ReadCompareBuf, .-Timer_ReadCompareBuf
 944              		.section	.text.Timer_ReadCapture,"ax",%progbits
 945              		.align	1
 946              		.global	Timer_ReadCapture
 947              		.code	16
 948              		.thumb_func
 949              		.type	Timer_ReadCapture, %function
 950              	Timer_ReadCapture:
 951              	.LFB28:
1047:.\Generated_Source\PSoC4/Timer.c ****     return (Timer_COMP_CAP_REG & Timer_16BIT_MASK);
 952              		.loc 1 1047 0
 953              		.cfi_startproc
1048:.\Generated_Source\PSoC4/Timer.c **** }
 954              		.loc 1 1048 0
 955 0000 014B     		ldr	r3, .L74
1049:.\Generated_Source\PSoC4/Timer.c **** 
 956              		.loc 1 1049 0
 957              		@ sp needed
1048:.\Generated_Source\PSoC4/Timer.c **** }
 958              		.loc 1 1048 0
 959 0002 1868     		ldr	r0, [r3]
 960 0004 80B2     		uxth	r0, r0
1049:.\Generated_Source\PSoC4/Timer.c **** 
 961              		.loc 1 1049 0
 962 0006 7047     		bx	lr
 963              	.L75:
 964              		.align	2
 965              	.L74:
 966 0008 0C012040 		.word	1075839244
 967              		.cfi_endproc
ARM GAS  C:\Users\Helon\AppData\Local\Temp\ccSjkW6b.s 			page 44


 968              	.LFE28:
 969              		.size	Timer_ReadCapture, .-Timer_ReadCapture
 970              		.section	.text.Timer_ReadCaptureBuf,"ax",%progbits
 971              		.align	1
 972              		.global	Timer_ReadCaptureBuf
 973              		.code	16
 974              		.thumb_func
 975              		.type	Timer_ReadCaptureBuf, %function
 976              	Timer_ReadCaptureBuf:
 977              	.LFB29:
1068:.\Generated_Source\PSoC4/Timer.c ****     return (Timer_COMP_CAP_BUF_REG & Timer_16BIT_MASK);
 978              		.loc 1 1068 0
 979              		.cfi_startproc
1069:.\Generated_Source\PSoC4/Timer.c **** }
 980              		.loc 1 1069 0
 981 0000 014B     		ldr	r3, .L77
1070:.\Generated_Source\PSoC4/Timer.c **** 
 982              		.loc 1 1070 0
 983              		@ sp needed
1069:.\Generated_Source\PSoC4/Timer.c **** }
 984              		.loc 1 1069 0
 985 0002 1868     		ldr	r0, [r3]
 986 0004 80B2     		uxth	r0, r0
1070:.\Generated_Source\PSoC4/Timer.c **** 
 987              		.loc 1 1070 0
 988 0006 7047     		bx	lr
 989              	.L78:
 990              		.align	2
 991              	.L77:
 992 0008 10012040 		.word	1075839248
 993              		.cfi_endproc
 994              	.LFE29:
 995              		.size	Timer_ReadCaptureBuf, .-Timer_ReadCaptureBuf
 996              		.section	.text.Timer_SetCaptureMode,"ax",%progbits
 997              		.align	1
 998              		.global	Timer_SetCaptureMode
 999              		.code	16
 1000              		.thumb_func
 1001              		.type	Timer_SetCaptureMode, %function
 1002              	Timer_SetCaptureMode:
 1003              	.LFB30:
1095:.\Generated_Source\PSoC4/Timer.c ****     uint8 enableInterrupts;
 1004              		.loc 1 1095 0
 1005              		.cfi_startproc
 1006              	.LVL62:
 1007 0000 10B5     		push	{r4, lr}
 1008              		.cfi_def_cfa_offset 8
 1009              		.cfi_offset 4, -8
 1010              		.cfi_offset 14, -4
1095:.\Generated_Source\PSoC4/Timer.c ****     uint8 enableInterrupts;
 1011              		.loc 1 1095 0
 1012 0002 041C     		mov	r4, r0
1098:.\Generated_Source\PSoC4/Timer.c **** 
 1013              		.loc 1 1098 0
 1014 0004 FFF7FEFF 		bl	CyEnterCriticalSection
 1015              	.LVL63:
1100:.\Generated_Source\PSoC4/Timer.c ****     Timer_TRIG_CONTROL1_REG |= triggerMode;
ARM GAS  C:\Users\Helon\AppData\Local\Temp\ccSjkW6b.s 			page 45


 1016              		.loc 1 1100 0
 1017 0008 0321     		mov	r1, #3
 1018 000a 054B     		ldr	r3, .L80
1104:.\Generated_Source\PSoC4/Timer.c **** 
 1019              		.loc 1 1104 0
 1020              		@ sp needed
1100:.\Generated_Source\PSoC4/Timer.c ****     Timer_TRIG_CONTROL1_REG |= triggerMode;
 1021              		.loc 1 1100 0
 1022 000c 1A68     		ldr	r2, [r3]
 1023 000e 8A43     		bic	r2, r1
 1024 0010 1A60     		str	r2, [r3]
1101:.\Generated_Source\PSoC4/Timer.c **** 
 1025              		.loc 1 1101 0
 1026 0012 1A68     		ldr	r2, [r3]
 1027 0014 2243     		orr	r2, r4
 1028 0016 1A60     		str	r2, [r3]
1103:.\Generated_Source\PSoC4/Timer.c **** }
 1029              		.loc 1 1103 0
 1030 0018 FFF7FEFF 		bl	CyExitCriticalSection
 1031              	.LVL64:
 1032              	.LVL65:
1104:.\Generated_Source\PSoC4/Timer.c **** 
 1033              		.loc 1 1104 0
 1034 001c 10BD     		pop	{r4, pc}
 1035              	.L81:
 1036 001e C046     		.align	2
 1037              	.L80:
 1038 0020 24012040 		.word	1075839268
 1039              		.cfi_endproc
 1040              	.LFE30:
 1041              		.size	Timer_SetCaptureMode, .-Timer_SetCaptureMode
 1042              		.section	.text.Timer_SetReloadMode,"ax",%progbits
 1043              		.align	1
 1044              		.global	Timer_SetReloadMode
 1045              		.code	16
 1046              		.thumb_func
 1047              		.type	Timer_SetReloadMode, %function
 1048              	Timer_SetReloadMode:
 1049              	.LFB31:
1128:.\Generated_Source\PSoC4/Timer.c ****     uint8 enableInterrupts;
 1050              		.loc 1 1128 0
 1051              		.cfi_startproc
 1052              	.LVL66:
 1053 0000 10B5     		push	{r4, lr}
 1054              		.cfi_def_cfa_offset 8
 1055              		.cfi_offset 4, -8
 1056              		.cfi_offset 14, -4
1128:.\Generated_Source\PSoC4/Timer.c ****     uint8 enableInterrupts;
 1057              		.loc 1 1128 0
 1058 0002 041C     		mov	r4, r0
1131:.\Generated_Source\PSoC4/Timer.c **** 
 1059              		.loc 1 1131 0
 1060 0004 FFF7FEFF 		bl	CyEnterCriticalSection
 1061              	.LVL67:
1133:.\Generated_Source\PSoC4/Timer.c ****     Timer_TRIG_CONTROL1_REG |= ((uint32)(triggerMode << Timer_RELOAD_SHIFT));
 1062              		.loc 1 1133 0
 1063 0008 3021     		mov	r1, #48
ARM GAS  C:\Users\Helon\AppData\Local\Temp\ccSjkW6b.s 			page 46


 1064 000a 054B     		ldr	r3, .L83
1137:.\Generated_Source\PSoC4/Timer.c **** 
 1065              		.loc 1 1137 0
 1066              		@ sp needed
1133:.\Generated_Source\PSoC4/Timer.c ****     Timer_TRIG_CONTROL1_REG |= ((uint32)(triggerMode << Timer_RELOAD_SHIFT));
 1067              		.loc 1 1133 0
 1068 000c 1A68     		ldr	r2, [r3]
 1069 000e 8A43     		bic	r2, r1
 1070 0010 1A60     		str	r2, [r3]
1134:.\Generated_Source\PSoC4/Timer.c **** 
 1071              		.loc 1 1134 0
 1072 0012 1968     		ldr	r1, [r3]
 1073 0014 2201     		lsl	r2, r4, #4
 1074 0016 0A43     		orr	r2, r1
 1075 0018 1A60     		str	r2, [r3]
1136:.\Generated_Source\PSoC4/Timer.c **** }
 1076              		.loc 1 1136 0
 1077 001a FFF7FEFF 		bl	CyExitCriticalSection
 1078              	.LVL68:
 1079              	.LVL69:
1137:.\Generated_Source\PSoC4/Timer.c **** 
 1080              		.loc 1 1137 0
 1081 001e 10BD     		pop	{r4, pc}
 1082              	.L84:
 1083              		.align	2
 1084              	.L83:
 1085 0020 24012040 		.word	1075839268
 1086              		.cfi_endproc
 1087              	.LFE31:
 1088              		.size	Timer_SetReloadMode, .-Timer_SetReloadMode
 1089              		.section	.text.Timer_SetStartMode,"ax",%progbits
 1090              		.align	1
 1091              		.global	Timer_SetStartMode
 1092              		.code	16
 1093              		.thumb_func
 1094              		.type	Timer_SetStartMode, %function
 1095              	Timer_SetStartMode:
 1096              	.LFB32:
1161:.\Generated_Source\PSoC4/Timer.c ****     uint8 enableInterrupts;
 1097              		.loc 1 1161 0
 1098              		.cfi_startproc
 1099              	.LVL70:
 1100 0000 10B5     		push	{r4, lr}
 1101              		.cfi_def_cfa_offset 8
 1102              		.cfi_offset 4, -8
 1103              		.cfi_offset 14, -4
1161:.\Generated_Source\PSoC4/Timer.c ****     uint8 enableInterrupts;
 1104              		.loc 1 1161 0
 1105 0002 041C     		mov	r4, r0
1164:.\Generated_Source\PSoC4/Timer.c **** 
 1106              		.loc 1 1164 0
 1107 0004 FFF7FEFF 		bl	CyEnterCriticalSection
 1108              	.LVL71:
1166:.\Generated_Source\PSoC4/Timer.c ****     Timer_TRIG_CONTROL1_REG |= ((uint32)(triggerMode << Timer_START_SHIFT));
 1109              		.loc 1 1166 0
 1110 0008 054B     		ldr	r3, .L86
 1111 000a 064A     		ldr	r2, .L86+4
ARM GAS  C:\Users\Helon\AppData\Local\Temp\ccSjkW6b.s 			page 47


 1112 000c 1968     		ldr	r1, [r3]
1170:.\Generated_Source\PSoC4/Timer.c **** 
 1113              		.loc 1 1170 0
 1114              		@ sp needed
1166:.\Generated_Source\PSoC4/Timer.c ****     Timer_TRIG_CONTROL1_REG |= ((uint32)(triggerMode << Timer_START_SHIFT));
 1115              		.loc 1 1166 0
 1116 000e 0A40     		and	r2, r1
 1117 0010 1A60     		str	r2, [r3]
1167:.\Generated_Source\PSoC4/Timer.c **** 
 1118              		.loc 1 1167 0
 1119 0012 1968     		ldr	r1, [r3]
 1120 0014 2202     		lsl	r2, r4, #8
 1121 0016 0A43     		orr	r2, r1
 1122 0018 1A60     		str	r2, [r3]
1169:.\Generated_Source\PSoC4/Timer.c **** }
 1123              		.loc 1 1169 0
 1124 001a FFF7FEFF 		bl	CyExitCriticalSection
 1125              	.LVL72:
 1126              	.LVL73:
1170:.\Generated_Source\PSoC4/Timer.c **** 
 1127              		.loc 1 1170 0
 1128 001e 10BD     		pop	{r4, pc}
 1129              	.L87:
 1130              		.align	2
 1131              	.L86:
 1132 0020 24012040 		.word	1075839268
 1133 0024 FFFCFFFF 		.word	-769
 1134              		.cfi_endproc
 1135              	.LFE32:
 1136              		.size	Timer_SetStartMode, .-Timer_SetStartMode
 1137              		.section	.text.Timer_SetStopMode,"ax",%progbits
 1138              		.align	1
 1139              		.global	Timer_SetStopMode
 1140              		.code	16
 1141              		.thumb_func
 1142              		.type	Timer_SetStopMode, %function
 1143              	Timer_SetStopMode:
 1144              	.LFB33:
1193:.\Generated_Source\PSoC4/Timer.c ****     uint8 enableInterrupts;
 1145              		.loc 1 1193 0
 1146              		.cfi_startproc
 1147              	.LVL74:
 1148 0000 10B5     		push	{r4, lr}
 1149              		.cfi_def_cfa_offset 8
 1150              		.cfi_offset 4, -8
 1151              		.cfi_offset 14, -4
1193:.\Generated_Source\PSoC4/Timer.c ****     uint8 enableInterrupts;
 1152              		.loc 1 1193 0
 1153 0002 041C     		mov	r4, r0
1196:.\Generated_Source\PSoC4/Timer.c **** 
 1154              		.loc 1 1196 0
 1155 0004 FFF7FEFF 		bl	CyEnterCriticalSection
 1156              	.LVL75:
1198:.\Generated_Source\PSoC4/Timer.c ****     Timer_TRIG_CONTROL1_REG |= ((uint32)(triggerMode << Timer_STOP_SHIFT));
 1157              		.loc 1 1198 0
 1158 0008 C021     		mov	r1, #192
 1159 000a 054B     		ldr	r3, .L89
ARM GAS  C:\Users\Helon\AppData\Local\Temp\ccSjkW6b.s 			page 48


1202:.\Generated_Source\PSoC4/Timer.c **** 
 1160              		.loc 1 1202 0
 1161              		@ sp needed
1198:.\Generated_Source\PSoC4/Timer.c ****     Timer_TRIG_CONTROL1_REG |= ((uint32)(triggerMode << Timer_STOP_SHIFT));
 1162              		.loc 1 1198 0
 1163 000c 1A68     		ldr	r2, [r3]
 1164 000e 8A43     		bic	r2, r1
 1165 0010 1A60     		str	r2, [r3]
1199:.\Generated_Source\PSoC4/Timer.c **** 
 1166              		.loc 1 1199 0
 1167 0012 1968     		ldr	r1, [r3]
 1168 0014 A201     		lsl	r2, r4, #6
 1169 0016 0A43     		orr	r2, r1
 1170 0018 1A60     		str	r2, [r3]
1201:.\Generated_Source\PSoC4/Timer.c **** }
 1171              		.loc 1 1201 0
 1172 001a FFF7FEFF 		bl	CyExitCriticalSection
 1173              	.LVL76:
 1174              	.LVL77:
1202:.\Generated_Source\PSoC4/Timer.c **** 
 1175              		.loc 1 1202 0
 1176 001e 10BD     		pop	{r4, pc}
 1177              	.L90:
 1178              		.align	2
 1179              	.L89:
 1180 0020 24012040 		.word	1075839268
 1181              		.cfi_endproc
 1182              	.LFE33:
 1183              		.size	Timer_SetStopMode, .-Timer_SetStopMode
 1184              		.section	.text.Timer_SetCountMode,"ax",%progbits
 1185              		.align	1
 1186              		.global	Timer_SetCountMode
 1187              		.code	16
 1188              		.thumb_func
 1189              		.type	Timer_SetCountMode, %function
 1190              	Timer_SetCountMode:
 1191              	.LFB34:
1226:.\Generated_Source\PSoC4/Timer.c ****     uint8 enableInterrupts;
 1192              		.loc 1 1226 0
 1193              		.cfi_startproc
 1194              	.LVL78:
 1195 0000 10B5     		push	{r4, lr}
 1196              		.cfi_def_cfa_offset 8
 1197              		.cfi_offset 4, -8
 1198              		.cfi_offset 14, -4
1226:.\Generated_Source\PSoC4/Timer.c ****     uint8 enableInterrupts;
 1199              		.loc 1 1226 0
 1200 0002 041C     		mov	r4, r0
1229:.\Generated_Source\PSoC4/Timer.c **** 
 1201              		.loc 1 1229 0
 1202 0004 FFF7FEFF 		bl	CyEnterCriticalSection
 1203              	.LVL79:
1231:.\Generated_Source\PSoC4/Timer.c ****     Timer_TRIG_CONTROL1_REG |= ((uint32)(triggerMode << Timer_COUNT_SHIFT));
 1204              		.loc 1 1231 0
 1205 0008 0C21     		mov	r1, #12
 1206 000a 054B     		ldr	r3, .L92
1235:.\Generated_Source\PSoC4/Timer.c **** 
ARM GAS  C:\Users\Helon\AppData\Local\Temp\ccSjkW6b.s 			page 49


 1207              		.loc 1 1235 0
 1208              		@ sp needed
1231:.\Generated_Source\PSoC4/Timer.c ****     Timer_TRIG_CONTROL1_REG |= ((uint32)(triggerMode << Timer_COUNT_SHIFT));
 1209              		.loc 1 1231 0
 1210 000c 1A68     		ldr	r2, [r3]
 1211 000e 8A43     		bic	r2, r1
 1212 0010 1A60     		str	r2, [r3]
1232:.\Generated_Source\PSoC4/Timer.c **** 
 1213              		.loc 1 1232 0
 1214 0012 1968     		ldr	r1, [r3]
 1215 0014 A200     		lsl	r2, r4, #2
 1216 0016 0A43     		orr	r2, r1
 1217 0018 1A60     		str	r2, [r3]
1234:.\Generated_Source\PSoC4/Timer.c **** }
 1218              		.loc 1 1234 0
 1219 001a FFF7FEFF 		bl	CyExitCriticalSection
 1220              	.LVL80:
 1221              	.LVL81:
1235:.\Generated_Source\PSoC4/Timer.c **** 
 1222              		.loc 1 1235 0
 1223 001e 10BD     		pop	{r4, pc}
 1224              	.L93:
 1225              		.align	2
 1226              	.L92:
 1227 0020 24012040 		.word	1075839268
 1228              		.cfi_endproc
 1229              	.LFE34:
 1230              		.size	Timer_SetCountMode, .-Timer_SetCountMode
 1231              		.section	.text.Timer_TriggerCommand,"ax",%progbits
 1232              		.align	1
 1233              		.global	Timer_TriggerCommand
 1234              		.code	16
 1235              		.thumb_func
 1236              		.type	Timer_TriggerCommand, %function
 1237              	Timer_TriggerCommand:
 1238              	.LFB35:
1266:.\Generated_Source\PSoC4/Timer.c ****     uint8 enableInterrupts;
 1239              		.loc 1 1266 0
 1240              		.cfi_startproc
 1241              	.LVL82:
 1242 0000 38B5     		push	{r3, r4, r5, lr}
 1243              		.cfi_def_cfa_offset 16
 1244              		.cfi_offset 3, -16
 1245              		.cfi_offset 4, -12
 1246              		.cfi_offset 5, -8
 1247              		.cfi_offset 14, -4
1266:.\Generated_Source\PSoC4/Timer.c ****     uint8 enableInterrupts;
 1248              		.loc 1 1266 0
 1249 0002 0D1C     		mov	r5, r1
 1250 0004 041C     		mov	r4, r0
1271:.\Generated_Source\PSoC4/Timer.c **** 
 1251              		.loc 1 1271 0
 1252 0006 AC40     		lsl	r4, r4, r5
1269:.\Generated_Source\PSoC4/Timer.c **** 
 1253              		.loc 1 1269 0
 1254 0008 FFF7FEFF 		bl	CyEnterCriticalSection
 1255              	.LVL83:
ARM GAS  C:\Users\Helon\AppData\Local\Temp\ccSjkW6b.s 			page 50


1271:.\Generated_Source\PSoC4/Timer.c **** 
 1256              		.loc 1 1271 0
 1257 000c 024B     		ldr	r3, .L95
1274:.\Generated_Source\PSoC4/Timer.c **** 
 1258              		.loc 1 1274 0
 1259              		@ sp needed
1271:.\Generated_Source\PSoC4/Timer.c **** 
 1260              		.loc 1 1271 0
 1261 000e 1C60     		str	r4, [r3]
1273:.\Generated_Source\PSoC4/Timer.c **** }
 1262              		.loc 1 1273 0
 1263 0010 FFF7FEFF 		bl	CyExitCriticalSection
 1264              	.LVL84:
 1265              	.LVL85:
1274:.\Generated_Source\PSoC4/Timer.c **** 
 1266              		.loc 1 1274 0
 1267 0014 38BD     		pop	{r3, r4, r5, pc}
 1268              	.L96:
 1269 0016 C046     		.align	2
 1270              	.L95:
 1271 0018 08002040 		.word	1075838984
 1272              		.cfi_endproc
 1273              	.LFE35:
 1274              		.size	Timer_TriggerCommand, .-Timer_TriggerCommand
 1275              		.section	.text.Timer_Enable,"ax",%progbits
 1276              		.align	1
 1277              		.global	Timer_Enable
 1278              		.code	16
 1279              		.thumb_func
 1280              		.type	Timer_Enable, %function
 1281              	Timer_Enable:
 1282              	.LFB3:
 178:.\Generated_Source\PSoC4/Timer.c ****     uint8 enableInterrupts;
 1283              		.loc 1 178 0
 1284              		.cfi_startproc
 1285 0000 10B5     		push	{r4, lr}
 1286              		.cfi_def_cfa_offset 8
 1287              		.cfi_offset 4, -8
 1288              		.cfi_offset 14, -4
 182:.\Generated_Source\PSoC4/Timer.c ****     CyExitCriticalSection(enableInterrupts);
 1289              		.loc 1 182 0
 1290 0002 0124     		mov	r4, #1
 181:.\Generated_Source\PSoC4/Timer.c ****     Timer_BLOCK_CONTROL_REG |= Timer_MASK;
 1291              		.loc 1 181 0
 1292 0004 FFF7FEFF 		bl	CyEnterCriticalSection
 1293              	.LVL86:
 182:.\Generated_Source\PSoC4/Timer.c ****     CyExitCriticalSection(enableInterrupts);
 1294              		.loc 1 182 0
 1295 0008 054A     		ldr	r2, .L98
 203:.\Generated_Source\PSoC4/Timer.c **** 
 1296              		.loc 1 203 0
 1297              		@ sp needed
 182:.\Generated_Source\PSoC4/Timer.c ****     CyExitCriticalSection(enableInterrupts);
 1298              		.loc 1 182 0
 1299 000a 1368     		ldr	r3, [r2]
 1300 000c 2343     		orr	r3, r4
 1301 000e 1360     		str	r3, [r2]
ARM GAS  C:\Users\Helon\AppData\Local\Temp\ccSjkW6b.s 			page 51


 183:.\Generated_Source\PSoC4/Timer.c **** 
 1302              		.loc 1 183 0
 1303 0010 FFF7FEFF 		bl	CyExitCriticalSection
 1304              	.LVL87:
 194:.\Generated_Source\PSoC4/Timer.c ****         #endif /* (0u == Timer_TC_START_SIGNAL_PRESENT) */
 1305              		.loc 1 194 0
 1306 0014 201C     		mov	r0, r4
 1307 0016 1821     		mov	r1, #24
 1308 0018 FFF7FEFF 		bl	Timer_TriggerCommand
 1309              	.LVL88:
 203:.\Generated_Source\PSoC4/Timer.c **** 
 1310              		.loc 1 203 0
 1311 001c 10BD     		pop	{r4, pc}
 1312              	.L99:
 1313 001e C046     		.align	2
 1314              	.L98:
 1315 0020 00002040 		.word	1075838976
 1316              		.cfi_endproc
 1317              	.LFE3:
 1318              		.size	Timer_Enable, .-Timer_Enable
 1319              		.section	.text.Timer_Start,"ax",%progbits
 1320              		.align	1
 1321              		.global	Timer_Start
 1322              		.code	16
 1323              		.thumb_func
 1324              		.type	Timer_Start, %function
 1325              	Timer_Start:
 1326              	.LFB4:
 231:.\Generated_Source\PSoC4/Timer.c ****     if (0u == Timer_initVar)
 1327              		.loc 1 231 0
 1328              		.cfi_startproc
 1329 0000 10B5     		push	{r4, lr}
 1330              		.cfi_def_cfa_offset 8
 1331              		.cfi_offset 4, -8
 1332              		.cfi_offset 14, -4
 232:.\Generated_Source\PSoC4/Timer.c ****     {
 1333              		.loc 1 232 0
 1334 0002 054C     		ldr	r4, .L103
 1335 0004 2378     		ldrb	r3, [r4]
 1336 0006 002B     		cmp	r3, #0
 1337 0008 03D1     		bne	.L101
 234:.\Generated_Source\PSoC4/Timer.c ****         Timer_initVar = 1u;
 1338              		.loc 1 234 0
 1339 000a FFF7FEFF 		bl	Timer_Init
 1340              	.LVL89:
 235:.\Generated_Source\PSoC4/Timer.c ****     }
 1341              		.loc 1 235 0
 1342 000e 0123     		mov	r3, #1
 1343 0010 2370     		strb	r3, [r4]
 1344              	.L101:
 238:.\Generated_Source\PSoC4/Timer.c **** }
 1345              		.loc 1 238 0
 1346 0012 FFF7FEFF 		bl	Timer_Enable
 1347              	.LVL90:
 239:.\Generated_Source\PSoC4/Timer.c **** 
 1348              		.loc 1 239 0
 1349              		@ sp needed
ARM GAS  C:\Users\Helon\AppData\Local\Temp\ccSjkW6b.s 			page 52


 1350 0016 10BD     		pop	{r4, pc}
 1351              	.L104:
 1352              		.align	2
 1353              	.L103:
 1354 0018 00000000 		.word	.LANCHOR0
 1355              		.cfi_endproc
 1356              	.LFE4:
 1357              		.size	Timer_Start, .-Timer_Start
 1358              		.section	.text.Timer_ReadStatus,"ax",%progbits
 1359              		.align	1
 1360              		.global	Timer_ReadStatus
 1361              		.code	16
 1362              		.thumb_func
 1363              		.type	Timer_ReadStatus, %function
 1364              	Timer_ReadStatus:
 1365              	.LFB36:
1295:.\Generated_Source\PSoC4/Timer.c ****     return ((Timer_STATUS_REG >> Timer_RUNNING_STATUS_SHIFT) |
 1366              		.loc 1 1295 0
 1367              		.cfi_startproc
1296:.\Generated_Source\PSoC4/Timer.c ****             (Timer_STATUS_REG & Timer_STATUS_DOWN));
 1368              		.loc 1 1296 0
 1369 0000 034A     		ldr	r2, .L106
1298:.\Generated_Source\PSoC4/Timer.c **** 
 1370              		.loc 1 1298 0
 1371              		@ sp needed
1296:.\Generated_Source\PSoC4/Timer.c ****             (Timer_STATUS_REG & Timer_STATUS_DOWN));
 1372              		.loc 1 1296 0
 1373 0002 1368     		ldr	r3, [r2]
1297:.\Generated_Source\PSoC4/Timer.c **** }
 1374              		.loc 1 1297 0
 1375 0004 1068     		ldr	r0, [r2]
 1376 0006 0122     		mov	r2, #1
1296:.\Generated_Source\PSoC4/Timer.c ****             (Timer_STATUS_REG & Timer_STATUS_DOWN));
 1377              		.loc 1 1296 0
 1378 0008 9B0F     		lsr	r3, r3, #30
1297:.\Generated_Source\PSoC4/Timer.c **** }
 1379              		.loc 1 1297 0
 1380 000a 1040     		and	r0, r2
1296:.\Generated_Source\PSoC4/Timer.c ****             (Timer_STATUS_REG & Timer_STATUS_DOWN));
 1381              		.loc 1 1296 0
 1382 000c 1843     		orr	r0, r3
1298:.\Generated_Source\PSoC4/Timer.c **** 
 1383              		.loc 1 1298 0
 1384 000e 7047     		bx	lr
 1385              	.L107:
 1386              		.align	2
 1387              	.L106:
 1388 0010 04012040 		.word	1075839236
 1389              		.cfi_endproc
 1390              	.LFE36:
 1391              		.size	Timer_ReadStatus, .-Timer_ReadStatus
 1392              		.section	.text.Timer_SetInterruptMode,"ax",%progbits
 1393              		.align	1
 1394              		.global	Timer_SetInterruptMode
 1395              		.code	16
 1396              		.thumb_func
 1397              		.type	Timer_SetInterruptMode, %function
ARM GAS  C:\Users\Helon\AppData\Local\Temp\ccSjkW6b.s 			page 53


 1398              	Timer_SetInterruptMode:
 1399              	.LFB37:
1320:.\Generated_Source\PSoC4/Timer.c ****     Timer_INTERRUPT_MASK_REG =  interruptMask;
 1400              		.loc 1 1320 0
 1401              		.cfi_startproc
 1402              	.LVL91:
 1403              		.loc 1 1321 0
 1404 0000 014B     		ldr	r3, .L109
1322:.\Generated_Source\PSoC4/Timer.c **** }
 1405              		.loc 1 1322 0
 1406              		@ sp needed
1321:.\Generated_Source\PSoC4/Timer.c **** }
 1407              		.loc 1 1321 0
 1408 0002 1860     		str	r0, [r3]
 1409              		.loc 1 1322 0
 1410 0004 7047     		bx	lr
 1411              	.L110:
 1412 0006 C046     		.align	2
 1413              	.L109:
 1414 0008 38012040 		.word	1075839288
 1415              		.cfi_endproc
 1416              	.LFE37:
 1417              		.size	Timer_SetInterruptMode, .-Timer_SetInterruptMode
 1418              		.section	.text.Timer_GetInterruptSourceMasked,"ax",%progbits
 1419              		.align	1
 1420              		.global	Timer_GetInterruptSourceMasked
 1421              		.code	16
 1422              		.thumb_func
 1423              		.type	Timer_GetInterruptSourceMasked, %function
 1424              	Timer_GetInterruptSourceMasked:
 1425              	.LFB38:
1323:.\Generated_Source\PSoC4/Timer.c **** 
1324:.\Generated_Source\PSoC4/Timer.c **** 
1325:.\Generated_Source\PSoC4/Timer.c **** /*******************************************************************************
1326:.\Generated_Source\PSoC4/Timer.c **** * Function Name: Timer_GetInterruptSourceMasked
1327:.\Generated_Source\PSoC4/Timer.c **** ********************************************************************************
1328:.\Generated_Source\PSoC4/Timer.c **** *
1329:.\Generated_Source\PSoC4/Timer.c **** * Summary:
1330:.\Generated_Source\PSoC4/Timer.c **** *  Gets the interrupt requests masked by the interrupt mask.
1331:.\Generated_Source\PSoC4/Timer.c **** *
1332:.\Generated_Source\PSoC4/Timer.c **** * Parameters:
1333:.\Generated_Source\PSoC4/Timer.c **** *   None
1334:.\Generated_Source\PSoC4/Timer.c **** *
1335:.\Generated_Source\PSoC4/Timer.c **** * Return:
1336:.\Generated_Source\PSoC4/Timer.c **** *  Masked interrupt source
1337:.\Generated_Source\PSoC4/Timer.c **** *   Values:
1338:.\Generated_Source\PSoC4/Timer.c **** *     - Timer_INTR_MASK_TC       - Terminal count mask
1339:.\Generated_Source\PSoC4/Timer.c **** *     - Timer_INTR_MASK_CC_MATCH - Compare count / capture mask
1340:.\Generated_Source\PSoC4/Timer.c **** *
1341:.\Generated_Source\PSoC4/Timer.c **** *******************************************************************************/
1342:.\Generated_Source\PSoC4/Timer.c **** uint32 Timer_GetInterruptSourceMasked(void)
1343:.\Generated_Source\PSoC4/Timer.c **** {
 1426              		.loc 1 1343 0
 1427              		.cfi_startproc
1344:.\Generated_Source\PSoC4/Timer.c ****     return (Timer_INTERRUPT_MASKED_REG);
 1428              		.loc 1 1344 0
 1429 0000 014B     		ldr	r3, .L112
ARM GAS  C:\Users\Helon\AppData\Local\Temp\ccSjkW6b.s 			page 54


1345:.\Generated_Source\PSoC4/Timer.c **** }
 1430              		.loc 1 1345 0
 1431              		@ sp needed
1344:.\Generated_Source\PSoC4/Timer.c ****     return (Timer_INTERRUPT_MASKED_REG);
 1432              		.loc 1 1344 0
 1433 0002 1868     		ldr	r0, [r3]
 1434              		.loc 1 1345 0
 1435 0004 7047     		bx	lr
 1436              	.L113:
 1437 0006 C046     		.align	2
 1438              	.L112:
 1439 0008 3C012040 		.word	1075839292
 1440              		.cfi_endproc
 1441              	.LFE38:
 1442              		.size	Timer_GetInterruptSourceMasked, .-Timer_GetInterruptSourceMasked
 1443              		.section	.text.Timer_GetInterruptSource,"ax",%progbits
 1444              		.align	1
 1445              		.global	Timer_GetInterruptSource
 1446              		.code	16
 1447              		.thumb_func
 1448              		.type	Timer_GetInterruptSource, %function
 1449              	Timer_GetInterruptSource:
 1450              	.LFB39:
1346:.\Generated_Source\PSoC4/Timer.c **** 
1347:.\Generated_Source\PSoC4/Timer.c **** 
1348:.\Generated_Source\PSoC4/Timer.c **** /*******************************************************************************
1349:.\Generated_Source\PSoC4/Timer.c **** * Function Name: Timer_GetInterruptSource
1350:.\Generated_Source\PSoC4/Timer.c **** ********************************************************************************
1351:.\Generated_Source\PSoC4/Timer.c **** *
1352:.\Generated_Source\PSoC4/Timer.c **** * Summary:
1353:.\Generated_Source\PSoC4/Timer.c **** *  Gets the interrupt requests (without masking).
1354:.\Generated_Source\PSoC4/Timer.c **** *
1355:.\Generated_Source\PSoC4/Timer.c **** * Parameters:
1356:.\Generated_Source\PSoC4/Timer.c **** *  None
1357:.\Generated_Source\PSoC4/Timer.c **** *
1358:.\Generated_Source\PSoC4/Timer.c **** * Return:
1359:.\Generated_Source\PSoC4/Timer.c **** *  Interrupt request value
1360:.\Generated_Source\PSoC4/Timer.c **** *   Values:
1361:.\Generated_Source\PSoC4/Timer.c **** *     - Timer_INTR_MASK_TC       - Terminal count mask
1362:.\Generated_Source\PSoC4/Timer.c **** *     - Timer_INTR_MASK_CC_MATCH - Compare count / capture mask
1363:.\Generated_Source\PSoC4/Timer.c **** *
1364:.\Generated_Source\PSoC4/Timer.c **** *******************************************************************************/
1365:.\Generated_Source\PSoC4/Timer.c **** uint32 Timer_GetInterruptSource(void)
1366:.\Generated_Source\PSoC4/Timer.c **** {
 1451              		.loc 1 1366 0
 1452              		.cfi_startproc
1367:.\Generated_Source\PSoC4/Timer.c ****     return (Timer_INTERRUPT_REQ_REG);
 1453              		.loc 1 1367 0
 1454 0000 014B     		ldr	r3, .L115
1368:.\Generated_Source\PSoC4/Timer.c **** }
 1455              		.loc 1 1368 0
 1456              		@ sp needed
1367:.\Generated_Source\PSoC4/Timer.c ****     return (Timer_INTERRUPT_REQ_REG);
 1457              		.loc 1 1367 0
 1458 0002 1868     		ldr	r0, [r3]
 1459              		.loc 1 1368 0
 1460 0004 7047     		bx	lr
ARM GAS  C:\Users\Helon\AppData\Local\Temp\ccSjkW6b.s 			page 55


 1461              	.L116:
 1462 0006 C046     		.align	2
 1463              	.L115:
 1464 0008 30012040 		.word	1075839280
 1465              		.cfi_endproc
 1466              	.LFE39:
 1467              		.size	Timer_GetInterruptSource, .-Timer_GetInterruptSource
 1468              		.section	.text.Timer_ClearInterrupt,"ax",%progbits
 1469              		.align	1
 1470              		.global	Timer_ClearInterrupt
 1471              		.code	16
 1472              		.thumb_func
 1473              		.type	Timer_ClearInterrupt, %function
 1474              	Timer_ClearInterrupt:
 1475              	.LFB40:
1369:.\Generated_Source\PSoC4/Timer.c **** 
1370:.\Generated_Source\PSoC4/Timer.c **** 
1371:.\Generated_Source\PSoC4/Timer.c **** /*******************************************************************************
1372:.\Generated_Source\PSoC4/Timer.c **** * Function Name: Timer_ClearInterrupt
1373:.\Generated_Source\PSoC4/Timer.c **** ********************************************************************************
1374:.\Generated_Source\PSoC4/Timer.c **** *
1375:.\Generated_Source\PSoC4/Timer.c **** * Summary:
1376:.\Generated_Source\PSoC4/Timer.c **** *  Clears the interrupt request.
1377:.\Generated_Source\PSoC4/Timer.c **** *
1378:.\Generated_Source\PSoC4/Timer.c **** * Parameters:
1379:.\Generated_Source\PSoC4/Timer.c **** *   interruptMask: Mask of interrupts to clear
1380:.\Generated_Source\PSoC4/Timer.c **** *   Values:
1381:.\Generated_Source\PSoC4/Timer.c **** *     - Timer_INTR_MASK_TC       - Terminal count mask
1382:.\Generated_Source\PSoC4/Timer.c **** *     - Timer_INTR_MASK_CC_MATCH - Compare count / capture mask
1383:.\Generated_Source\PSoC4/Timer.c **** *
1384:.\Generated_Source\PSoC4/Timer.c **** * Return:
1385:.\Generated_Source\PSoC4/Timer.c **** *  None
1386:.\Generated_Source\PSoC4/Timer.c **** *
1387:.\Generated_Source\PSoC4/Timer.c **** *******************************************************************************/
1388:.\Generated_Source\PSoC4/Timer.c **** void Timer_ClearInterrupt(uint32 interruptMask)
1389:.\Generated_Source\PSoC4/Timer.c **** {
 1476              		.loc 1 1389 0
 1477              		.cfi_startproc
 1478              	.LVL92:
1390:.\Generated_Source\PSoC4/Timer.c ****     Timer_INTERRUPT_REQ_REG = interruptMask;
 1479              		.loc 1 1390 0
 1480 0000 014B     		ldr	r3, .L118
1391:.\Generated_Source\PSoC4/Timer.c **** }
 1481              		.loc 1 1391 0
 1482              		@ sp needed
1390:.\Generated_Source\PSoC4/Timer.c ****     Timer_INTERRUPT_REQ_REG = interruptMask;
 1483              		.loc 1 1390 0
 1484 0002 1860     		str	r0, [r3]
 1485              		.loc 1 1391 0
 1486 0004 7047     		bx	lr
 1487              	.L119:
 1488 0006 C046     		.align	2
 1489              	.L118:
 1490 0008 30012040 		.word	1075839280
 1491              		.cfi_endproc
 1492              	.LFE40:
 1493              		.size	Timer_ClearInterrupt, .-Timer_ClearInterrupt
ARM GAS  C:\Users\Helon\AppData\Local\Temp\ccSjkW6b.s 			page 56


 1494              		.section	.text.Timer_SetInterrupt,"ax",%progbits
 1495              		.align	1
 1496              		.global	Timer_SetInterrupt
 1497              		.code	16
 1498              		.thumb_func
 1499              		.type	Timer_SetInterrupt, %function
 1500              	Timer_SetInterrupt:
 1501              	.LFB41:
1392:.\Generated_Source\PSoC4/Timer.c **** 
1393:.\Generated_Source\PSoC4/Timer.c **** 
1394:.\Generated_Source\PSoC4/Timer.c **** /*******************************************************************************
1395:.\Generated_Source\PSoC4/Timer.c **** * Function Name: Timer_SetInterrupt
1396:.\Generated_Source\PSoC4/Timer.c **** ********************************************************************************
1397:.\Generated_Source\PSoC4/Timer.c **** *
1398:.\Generated_Source\PSoC4/Timer.c **** * Summary:
1399:.\Generated_Source\PSoC4/Timer.c **** *  Sets a software interrupt request.
1400:.\Generated_Source\PSoC4/Timer.c **** *
1401:.\Generated_Source\PSoC4/Timer.c **** * Parameters:
1402:.\Generated_Source\PSoC4/Timer.c **** *   interruptMask: Mask of interrupts to set
1403:.\Generated_Source\PSoC4/Timer.c **** *   Values:
1404:.\Generated_Source\PSoC4/Timer.c **** *     - Timer_INTR_MASK_TC       - Terminal count mask
1405:.\Generated_Source\PSoC4/Timer.c **** *     - Timer_INTR_MASK_CC_MATCH - Compare count / capture mask
1406:.\Generated_Source\PSoC4/Timer.c **** *
1407:.\Generated_Source\PSoC4/Timer.c **** * Return:
1408:.\Generated_Source\PSoC4/Timer.c **** *  None
1409:.\Generated_Source\PSoC4/Timer.c **** *
1410:.\Generated_Source\PSoC4/Timer.c **** *******************************************************************************/
1411:.\Generated_Source\PSoC4/Timer.c **** void Timer_SetInterrupt(uint32 interruptMask)
1412:.\Generated_Source\PSoC4/Timer.c **** {
 1502              		.loc 1 1412 0
 1503              		.cfi_startproc
 1504              	.LVL93:
1413:.\Generated_Source\PSoC4/Timer.c ****     Timer_INTERRUPT_SET_REG = interruptMask;
 1505              		.loc 1 1413 0
 1506 0000 014B     		ldr	r3, .L121
1414:.\Generated_Source\PSoC4/Timer.c **** }
 1507              		.loc 1 1414 0
 1508              		@ sp needed
1413:.\Generated_Source\PSoC4/Timer.c ****     Timer_INTERRUPT_SET_REG = interruptMask;
 1509              		.loc 1 1413 0
 1510 0002 1860     		str	r0, [r3]
 1511              		.loc 1 1414 0
 1512 0004 7047     		bx	lr
 1513              	.L122:
 1514 0006 C046     		.align	2
 1515              	.L121:
 1516 0008 34012040 		.word	1075839284
 1517              		.cfi_endproc
 1518              	.LFE41:
 1519              		.size	Timer_SetInterrupt, .-Timer_SetInterrupt
 1520              		.global	Timer_initVar
 1521              		.bss
 1522              		.set	.LANCHOR0,. + 0
 1523              		.type	Timer_initVar, %object
 1524              		.size	Timer_initVar, 1
 1525              	Timer_initVar:
 1526 0000 00       		.space	1
ARM GAS  C:\Users\Helon\AppData\Local\Temp\ccSjkW6b.s 			page 57


 1527              		.text
 1528              	.Letext0:
 1529              		.file 2 ".\\Generated_Source\\PSoC4\\cytypes.h"
 1530              		.file 3 ".\\Generated_Source\\PSoC4\\CyLib.h"
 1531              		.section	.debug_info,"",%progbits
 1532              	.Ldebug_info0:
 1533 0000 5B090000 		.4byte	0x95b
 1534 0004 0400     		.2byte	0x4
 1535 0006 00000000 		.4byte	.Ldebug_abbrev0
 1536 000a 04       		.byte	0x4
 1537 000b 01       		.uleb128 0x1
 1538 000c 1D000000 		.4byte	.LASF76
 1539 0010 01       		.byte	0x1
 1540 0011 BE020000 		.4byte	.LASF77
 1541 0015 84010000 		.4byte	.LASF78
 1542 0019 00000000 		.4byte	.Ldebug_ranges0+0
 1543 001d 00000000 		.4byte	0
 1544 0021 00000000 		.4byte	.Ldebug_line0
 1545 0025 02       		.uleb128 0x2
 1546 0026 01       		.byte	0x1
 1547 0027 06       		.byte	0x6
 1548 0028 78010000 		.4byte	.LASF0
 1549 002c 02       		.uleb128 0x2
 1550 002d 01       		.byte	0x1
 1551 002e 08       		.byte	0x8
 1552 002f 95040000 		.4byte	.LASF1
 1553 0033 02       		.uleb128 0x2
 1554 0034 02       		.byte	0x2
 1555 0035 05       		.byte	0x5
 1556 0036 B4040000 		.4byte	.LASF2
 1557 003a 02       		.uleb128 0x2
 1558 003b 02       		.byte	0x2
 1559 003c 07       		.byte	0x7
 1560 003d 3F030000 		.4byte	.LASF3
 1561 0041 02       		.uleb128 0x2
 1562 0042 04       		.byte	0x4
 1563 0043 05       		.byte	0x5
 1564 0044 0E020000 		.4byte	.LASF4
 1565 0048 02       		.uleb128 0x2
 1566 0049 04       		.byte	0x4
 1567 004a 07       		.byte	0x7
 1568 004b 00030000 		.4byte	.LASF5
 1569 004f 02       		.uleb128 0x2
 1570 0050 08       		.byte	0x8
 1571 0051 05       		.byte	0x5
 1572 0052 6A010000 		.4byte	.LASF6
 1573 0056 02       		.uleb128 0x2
 1574 0057 08       		.byte	0x8
 1575 0058 07       		.byte	0x7
 1576 0059 22010000 		.4byte	.LASF7
 1577 005d 03       		.uleb128 0x3
 1578 005e 04       		.byte	0x4
 1579 005f 05       		.byte	0x5
 1580 0060 696E7400 		.ascii	"int\000"
 1581 0064 02       		.uleb128 0x2
 1582 0065 04       		.byte	0x4
 1583 0066 07       		.byte	0x7
ARM GAS  C:\Users\Helon\AppData\Local\Temp\ccSjkW6b.s 			page 58


 1584 0067 DF020000 		.4byte	.LASF8
 1585 006b 04       		.uleb128 0x4
 1586 006c 3E020000 		.4byte	.LASF9
 1587 0070 02       		.byte	0x2
 1588 0071 3801     		.2byte	0x138
 1589 0073 2C000000 		.4byte	0x2c
 1590 0077 04       		.uleb128 0x4
 1591 0078 62020000 		.4byte	.LASF10
 1592 007c 02       		.byte	0x2
 1593 007d 3A01     		.2byte	0x13a
 1594 007f 48000000 		.4byte	0x48
 1595 0083 02       		.uleb128 0x2
 1596 0084 04       		.byte	0x4
 1597 0085 04       		.byte	0x4
 1598 0086 39040000 		.4byte	.LASF11
 1599 008a 02       		.uleb128 0x2
 1600 008b 08       		.byte	0x8
 1601 008c 04       		.byte	0x4
 1602 008d 44020000 		.4byte	.LASF12
 1603 0091 02       		.uleb128 0x2
 1604 0092 01       		.byte	0x1
 1605 0093 08       		.byte	0x8
 1606 0094 FF040000 		.4byte	.LASF13
 1607 0098 04       		.uleb128 0x4
 1608 0099 AF030000 		.4byte	.LASF14
 1609 009d 02       		.byte	0x2
 1610 009e E401     		.2byte	0x1e4
 1611 00a0 A4000000 		.4byte	0xa4
 1612 00a4 05       		.uleb128 0x5
 1613 00a5 77000000 		.4byte	0x77
 1614 00a9 02       		.uleb128 0x2
 1615 00aa 04       		.byte	0x4
 1616 00ab 07       		.byte	0x7
 1617 00ac DE030000 		.4byte	.LASF15
 1618 00b0 06       		.uleb128 0x6
 1619 00b1 4B020000 		.4byte	.LASF16
 1620 00b5 01       		.byte	0x1
 1621 00b6 2705     		.2byte	0x527
 1622 00b8 01       		.byte	0x1
 1623 00b9 CA000000 		.4byte	0xca
 1624 00bd 07       		.uleb128 0x7
 1625 00be BE040000 		.4byte	.LASF18
 1626 00c2 01       		.byte	0x1
 1627 00c3 2705     		.2byte	0x527
 1628 00c5 77000000 		.4byte	0x77
 1629 00c9 00       		.byte	0
 1630 00ca 06       		.uleb128 0x6
 1631 00cb DA000000 		.4byte	.LASF17
 1632 00cf 01       		.byte	0x1
 1633 00d0 B502     		.2byte	0x2b5
 1634 00d2 01       		.byte	0x1
 1635 00d3 E4000000 		.4byte	0xe4
 1636 00d7 07       		.uleb128 0x7
 1637 00d8 FF000000 		.4byte	.LASF19
 1638 00dc 01       		.byte	0x1
 1639 00dd B502     		.2byte	0x2b5
 1640 00df 77000000 		.4byte	0x77
ARM GAS  C:\Users\Helon\AppData\Local\Temp\ccSjkW6b.s 			page 59


 1641 00e3 00       		.byte	0
 1642 00e4 06       		.uleb128 0x6
 1643 00e5 69020000 		.4byte	.LASF20
 1644 00e9 01       		.byte	0x1
 1645 00ea 5103     		.2byte	0x351
 1646 00ec 01       		.byte	0x1
 1647 00ed FE000000 		.4byte	0xfe
 1648 00f1 07       		.uleb128 0x7
 1649 00f2 1E040000 		.4byte	.LASF21
 1650 00f6 01       		.byte	0x1
 1651 00f7 5103     		.2byte	0x351
 1652 00f9 77000000 		.4byte	0x77
 1653 00fd 00       		.byte	0
 1654 00fe 06       		.uleb128 0x6
 1655 00ff 52030000 		.4byte	.LASF22
 1656 0103 01       		.byte	0x1
 1657 0104 6702     		.2byte	0x267
 1658 0106 01       		.byte	0x1
 1659 0107 18010000 		.4byte	0x118
 1660 010b 07       		.uleb128 0x7
 1661 010c 17000000 		.4byte	.LASF23
 1662 0110 01       		.byte	0x1
 1663 0111 6702     		.2byte	0x267
 1664 0113 77000000 		.4byte	0x77
 1665 0117 00       		.byte	0
 1666 0118 08       		.uleb128 0x8
 1667 0119 DF040000 		.4byte	.LASF24
 1668 011d 01       		.byte	0x1
 1669 011e 26       		.byte	0x26
 1670 011f 00000000 		.4byte	.LFB2
 1671 0123 3C000000 		.4byte	.LFE2-.LFB2
 1672 0127 01       		.uleb128 0x1
 1673 0128 9C       		.byte	0x9c
 1674 0129 92010000 		.4byte	0x192
 1675 012d 09       		.uleb128 0x9
 1676 012e B0000000 		.4byte	0xb0
 1677 0132 0C000000 		.4byte	.LBB10
 1678 0136 06000000 		.4byte	.LBE10-.LBB10
 1679 013a 01       		.byte	0x1
 1680 013b 40       		.byte	0x40
 1681 013c 47010000 		.4byte	0x147
 1682 0140 0A       		.uleb128 0xa
 1683 0141 BD000000 		.4byte	0xbd
 1684 0145 01       		.byte	0x1
 1685 0146 00       		.byte	0
 1686 0147 09       		.uleb128 0x9
 1687 0148 CA000000 		.4byte	0xca
 1688 014c 12000000 		.4byte	.LBB12
 1689 0150 06000000 		.4byte	.LBE12-.LBB12
 1690 0154 01       		.byte	0x1
 1691 0155 43       		.byte	0x43
 1692 0156 61010000 		.4byte	0x161
 1693 015a 0A       		.uleb128 0xa
 1694 015b D7000000 		.4byte	0xd7
 1695 015f 0A       		.byte	0xa
 1696 0160 00       		.byte	0
 1697 0161 09       		.uleb128 0x9
ARM GAS  C:\Users\Helon\AppData\Local\Temp\ccSjkW6b.s 			page 60


 1698 0162 E4000000 		.4byte	0xe4
 1699 0166 18000000 		.4byte	.LBB14
 1700 016a 04000000 		.4byte	.LBE14-.LBB14
 1701 016e 01       		.byte	0x1
 1702 016f 46       		.byte	0x46
 1703 0170 7B010000 		.4byte	0x17b
 1704 0174 0A       		.uleb128 0xa
 1705 0175 F1000000 		.4byte	0xf1
 1706 0179 0A       		.byte	0xa
 1707 017a 00       		.byte	0
 1708 017b 0B       		.uleb128 0xb
 1709 017c FE000000 		.4byte	0xfe
 1710 0180 1C000000 		.4byte	.LBB16
 1711 0184 04000000 		.4byte	.LBE16-.LBB16
 1712 0188 01       		.byte	0x1
 1713 0189 54       		.byte	0x54
 1714 018a 0A       		.uleb128 0xa
 1715 018b 0B010000 		.4byte	0x10b
 1716 018f 00       		.byte	0
 1717 0190 00       		.byte	0
 1718 0191 00       		.byte	0
 1719 0192 0C       		.uleb128 0xc
 1720 0193 77030000 		.4byte	.LASF25
 1721 0197 01       		.byte	0x1
 1722 0198 0001     		.2byte	0x100
 1723 019a 00000000 		.4byte	.LFB5
 1724 019e 1C000000 		.4byte	.LFE5-.LFB5
 1725 01a2 01       		.uleb128 0x1
 1726 01a3 9C       		.byte	0x9c
 1727 01a4 CB010000 		.4byte	0x1cb
 1728 01a8 0D       		.uleb128 0xd
 1729 01a9 45050000 		.4byte	.LASF27
 1730 01ad 01       		.byte	0x1
 1731 01ae 0201     		.2byte	0x102
 1732 01b0 6B000000 		.4byte	0x6b
 1733 01b4 00000000 		.4byte	.LLST0
 1734 01b8 0E       		.uleb128 0xe
 1735 01b9 06000000 		.4byte	.LVL4
 1736 01bd 46090000 		.4byte	0x946
 1737 01c1 0E       		.uleb128 0xe
 1738 01c2 14000000 		.4byte	.LVL5
 1739 01c6 51090000 		.4byte	0x951
 1740 01ca 00       		.byte	0
 1741 01cb 0C       		.uleb128 0xc
 1742 01cc 06010000 		.4byte	.LASF26
 1743 01d0 01       		.byte	0x1
 1744 01d1 2501     		.2byte	0x125
 1745 01d3 00000000 		.4byte	.LFB6
 1746 01d7 28000000 		.4byte	.LFE6-.LFB6
 1747 01db 01       		.uleb128 0x1
 1748 01dc 9C       		.byte	0x9c
 1749 01dd 14020000 		.4byte	0x214
 1750 01e1 0F       		.uleb128 0xf
 1751 01e2 04050000 		.4byte	.LASF29
 1752 01e6 01       		.byte	0x1
 1753 01e7 2501     		.2byte	0x125
 1754 01e9 77000000 		.4byte	0x77
ARM GAS  C:\Users\Helon\AppData\Local\Temp\ccSjkW6b.s 			page 61


 1755 01ed 13000000 		.4byte	.LLST1
 1756 01f1 0D       		.uleb128 0xd
 1757 01f2 45050000 		.4byte	.LASF27
 1758 01f6 01       		.byte	0x1
 1759 01f7 2701     		.2byte	0x127
 1760 01f9 6B000000 		.4byte	0x6b
 1761 01fd 3F000000 		.4byte	.LLST2
 1762 0201 0E       		.uleb128 0xe
 1763 0202 08000000 		.4byte	.LVL7
 1764 0206 46090000 		.4byte	0x946
 1765 020a 0E       		.uleb128 0xe
 1766 020b 1C000000 		.4byte	.LVL8
 1767 020f 51090000 		.4byte	0x951
 1768 0213 00       		.byte	0
 1769 0214 0C       		.uleb128 0xc
 1770 0215 EB010000 		.4byte	.LASF28
 1771 0219 01       		.byte	0x1
 1772 021a 4601     		.2byte	0x146
 1773 021c 00000000 		.4byte	.LFB7
 1774 0220 28000000 		.4byte	.LFE7-.LFB7
 1775 0224 01       		.uleb128 0x1
 1776 0225 9C       		.byte	0x9c
 1777 0226 5D020000 		.4byte	0x25d
 1778 022a 0F       		.uleb128 0xf
 1779 022b 63010000 		.4byte	.LASF30
 1780 022f 01       		.byte	0x1
 1781 0230 4601     		.2byte	0x146
 1782 0232 77000000 		.4byte	0x77
 1783 0236 52000000 		.4byte	.LLST3
 1784 023a 0D       		.uleb128 0xd
 1785 023b 45050000 		.4byte	.LASF27
 1786 023f 01       		.byte	0x1
 1787 0240 4801     		.2byte	0x148
 1788 0242 6B000000 		.4byte	0x6b
 1789 0246 7E000000 		.4byte	.LLST4
 1790 024a 0E       		.uleb128 0xe
 1791 024b 08000000 		.4byte	.LVL11
 1792 024f 46090000 		.4byte	0x946
 1793 0253 0E       		.uleb128 0xe
 1794 0254 1C000000 		.4byte	.LVL12
 1795 0258 51090000 		.4byte	0x951
 1796 025c 00       		.byte	0
 1797 025d 0C       		.uleb128 0xc
 1798 025e CC040000 		.4byte	.LASF31
 1799 0262 01       		.byte	0x1
 1800 0263 6B01     		.2byte	0x16b
 1801 0265 00000000 		.4byte	.LFB8
 1802 0269 28000000 		.4byte	.LFE8-.LFB8
 1803 026d 01       		.uleb128 0x1
 1804 026e 9C       		.byte	0x9c
 1805 026f A6020000 		.4byte	0x2a6
 1806 0273 0F       		.uleb128 0xf
 1807 0274 3F040000 		.4byte	.LASF32
 1808 0278 01       		.byte	0x1
 1809 0279 6B01     		.2byte	0x16b
 1810 027b 77000000 		.4byte	0x77
 1811 027f 91000000 		.4byte	.LLST5
ARM GAS  C:\Users\Helon\AppData\Local\Temp\ccSjkW6b.s 			page 62


 1812 0283 0D       		.uleb128 0xd
 1813 0284 45050000 		.4byte	.LASF27
 1814 0288 01       		.byte	0x1
 1815 0289 6D01     		.2byte	0x16d
 1816 028b 6B000000 		.4byte	0x6b
 1817 028f BD000000 		.4byte	.LLST6
 1818 0293 0E       		.uleb128 0xe
 1819 0294 08000000 		.4byte	.LVL15
 1820 0298 46090000 		.4byte	0x946
 1821 029c 0E       		.uleb128 0xe
 1822 029d 1C000000 		.4byte	.LVL16
 1823 02a1 51090000 		.4byte	0x951
 1824 02a5 00       		.byte	0
 1825 02a6 0C       		.uleb128 0xc
 1826 02a7 6B050000 		.4byte	.LASF33
 1827 02ab 01       		.byte	0x1
 1828 02ac 8B01     		.2byte	0x18b
 1829 02ae 00000000 		.4byte	.LFB9
 1830 02b2 2C000000 		.4byte	.LFE9-.LFB9
 1831 02b6 01       		.uleb128 0x1
 1832 02b7 9C       		.byte	0x9c
 1833 02b8 EF020000 		.4byte	0x2ef
 1834 02bc 0F       		.uleb128 0xf
 1835 02bd 82030000 		.4byte	.LASF34
 1836 02c1 01       		.byte	0x1
 1837 02c2 8B01     		.2byte	0x18b
 1838 02c4 77000000 		.4byte	0x77
 1839 02c8 D0000000 		.4byte	.LLST7
 1840 02cc 0D       		.uleb128 0xd
 1841 02cd 45050000 		.4byte	.LASF27
 1842 02d1 01       		.byte	0x1
 1843 02d2 8D01     		.2byte	0x18d
 1844 02d4 6B000000 		.4byte	0x6b
 1845 02d8 FC000000 		.4byte	.LLST8
 1846 02dc 0E       		.uleb128 0xe
 1847 02dd 08000000 		.4byte	.LVL19
 1848 02e1 46090000 		.4byte	0x946
 1849 02e5 0E       		.uleb128 0xe
 1850 02e6 22000000 		.4byte	.LVL20
 1851 02ea 51090000 		.4byte	0x951
 1852 02ee 00       		.byte	0
 1853 02ef 0C       		.uleb128 0xc
 1854 02f0 A6050000 		.4byte	.LASF35
 1855 02f4 01       		.byte	0x1
 1856 02f5 C101     		.2byte	0x1c1
 1857 02f7 00000000 		.4byte	.LFB10
 1858 02fb 10000000 		.4byte	.LFE10-.LFB10
 1859 02ff 01       		.uleb128 0x1
 1860 0300 9C       		.byte	0x9c
 1861 0301 16030000 		.4byte	0x316
 1862 0305 0F       		.uleb128 0xf
 1863 0306 12030000 		.4byte	.LASF36
 1864 030a 01       		.byte	0x1
 1865 030b C101     		.2byte	0x1c1
 1866 030d 77000000 		.4byte	0x77
 1867 0311 0F010000 		.4byte	.LLST9
 1868 0315 00       		.byte	0
ARM GAS  C:\Users\Helon\AppData\Local\Temp\ccSjkW6b.s 			page 63


 1869 0316 0C       		.uleb128 0xc
 1870 0317 4E010000 		.4byte	.LASF37
 1871 031b 01       		.byte	0x1
 1872 031c E501     		.2byte	0x1e5
 1873 031e 00000000 		.4byte	.LFB11
 1874 0322 28000000 		.4byte	.LFE11-.LFB11
 1875 0326 01       		.uleb128 0x1
 1876 0327 9C       		.byte	0x9c
 1877 0328 5F030000 		.4byte	0x35f
 1878 032c 0F       		.uleb128 0xf
 1879 032d FC030000 		.4byte	.LASF38
 1880 0331 01       		.byte	0x1
 1881 0332 E501     		.2byte	0x1e5
 1882 0334 77000000 		.4byte	0x77
 1883 0338 30010000 		.4byte	.LLST10
 1884 033c 0D       		.uleb128 0xd
 1885 033d 45050000 		.4byte	.LASF27
 1886 0341 01       		.byte	0x1
 1887 0342 E701     		.2byte	0x1e7
 1888 0344 6B000000 		.4byte	0x6b
 1889 0348 5C010000 		.4byte	.LLST11
 1890 034c 0E       		.uleb128 0xe
 1891 034d 08000000 		.4byte	.LVL25
 1892 0351 46090000 		.4byte	0x946
 1893 0355 0E       		.uleb128 0xe
 1894 0356 22000000 		.4byte	.LVL26
 1895 035a 51090000 		.4byte	0x951
 1896 035e 00       		.byte	0
 1897 035f 0C       		.uleb128 0xc
 1898 0360 00000000 		.4byte	.LASF39
 1899 0364 01       		.byte	0x1
 1900 0365 0702     		.2byte	0x207
 1901 0367 00000000 		.4byte	.LFB12
 1902 036b 28000000 		.4byte	.LFE12-.LFB12
 1903 036f 01       		.uleb128 0x1
 1904 0370 9C       		.byte	0x9c
 1905 0371 A8030000 		.4byte	0x3a8
 1906 0375 0F       		.uleb128 0xf
 1907 0376 A3040000 		.4byte	.LASF40
 1908 037a 01       		.byte	0x1
 1909 037b 0702     		.2byte	0x207
 1910 037d 77000000 		.4byte	0x77
 1911 0381 6F010000 		.4byte	.LLST12
 1912 0385 0D       		.uleb128 0xd
 1913 0386 45050000 		.4byte	.LASF27
 1914 038a 01       		.byte	0x1
 1915 038b 0902     		.2byte	0x209
 1916 038d 6B000000 		.4byte	0x6b
 1917 0391 9B010000 		.4byte	.LLST13
 1918 0395 0E       		.uleb128 0xe
 1919 0396 08000000 		.4byte	.LVL29
 1920 039a 46090000 		.4byte	0x946
 1921 039e 0E       		.uleb128 0xe
 1922 039f 22000000 		.4byte	.LVL30
 1923 03a3 51090000 		.4byte	0x951
 1924 03a7 00       		.byte	0
 1925 03a8 0C       		.uleb128 0xc
ARM GAS  C:\Users\Helon\AppData\Local\Temp\ccSjkW6b.s 			page 64


 1926 03a9 39010000 		.4byte	.LASF41
 1927 03ad 01       		.byte	0x1
 1928 03ae 2802     		.2byte	0x228
 1929 03b0 00000000 		.4byte	.LFB13
 1930 03b4 2C000000 		.4byte	.LFE13-.LFB13
 1931 03b8 01       		.uleb128 0x1
 1932 03b9 9C       		.byte	0x9c
 1933 03ba F1030000 		.4byte	0x3f1
 1934 03be 0F       		.uleb128 0xf
 1935 03bf 9F020000 		.4byte	.LASF42
 1936 03c3 01       		.byte	0x1
 1937 03c4 2802     		.2byte	0x228
 1938 03c6 77000000 		.4byte	0x77
 1939 03ca AE010000 		.4byte	.LLST14
 1940 03ce 0D       		.uleb128 0xd
 1941 03cf 45050000 		.4byte	.LASF27
 1942 03d3 01       		.byte	0x1
 1943 03d4 2A02     		.2byte	0x22a
 1944 03d6 6B000000 		.4byte	0x6b
 1945 03da DA010000 		.4byte	.LLST15
 1946 03de 0E       		.uleb128 0xe
 1947 03df 08000000 		.4byte	.LVL33
 1948 03e3 46090000 		.4byte	0x946
 1949 03e7 0E       		.uleb128 0xe
 1950 03e8 20000000 		.4byte	.LVL35
 1951 03ec 51090000 		.4byte	0x951
 1952 03f0 00       		.byte	0
 1953 03f1 0C       		.uleb128 0xc
 1954 03f2 0B040000 		.4byte	.LASF43
 1955 03f6 01       		.byte	0x1
 1956 03f7 4902     		.2byte	0x249
 1957 03f9 00000000 		.4byte	.LFB14
 1958 03fd 28000000 		.4byte	.LFE14-.LFB14
 1959 0401 01       		.uleb128 0x1
 1960 0402 9C       		.byte	0x9c
 1961 0403 3A040000 		.4byte	0x43a
 1962 0407 0F       		.uleb128 0xf
 1963 0408 88020000 		.4byte	.LASF44
 1964 040c 01       		.byte	0x1
 1965 040d 4902     		.2byte	0x249
 1966 040f 77000000 		.4byte	0x77
 1967 0413 ED010000 		.4byte	.LLST16
 1968 0417 0D       		.uleb128 0xd
 1969 0418 45050000 		.4byte	.LASF27
 1970 041c 01       		.byte	0x1
 1971 041d 4B02     		.2byte	0x24b
 1972 041f 6B000000 		.4byte	0x6b
 1973 0423 19020000 		.4byte	.LLST17
 1974 0427 0E       		.uleb128 0xe
 1975 0428 08000000 		.4byte	.LVL37
 1976 042c 46090000 		.4byte	0x946
 1977 0430 0E       		.uleb128 0xe
 1978 0431 1C000000 		.4byte	.LVL38
 1979 0435 51090000 		.4byte	0x951
 1980 0439 00       		.byte	0
 1981 043a 10       		.uleb128 0x10
 1982 043b FE000000 		.4byte	0xfe
ARM GAS  C:\Users\Helon\AppData\Local\Temp\ccSjkW6b.s 			page 65


 1983 043f 00000000 		.4byte	.LFB15
 1984 0443 0C000000 		.4byte	.LFE15-.LFB15
 1985 0447 01       		.uleb128 0x1
 1986 0448 9C       		.byte	0x9c
 1987 0449 57040000 		.4byte	0x457
 1988 044d 11       		.uleb128 0x11
 1989 044e 0B010000 		.4byte	0x10b
 1990 0452 2C020000 		.4byte	.LLST18
 1991 0456 00       		.byte	0
 1992 0457 12       		.uleb128 0x12
 1993 0458 65030000 		.4byte	.LASF47
 1994 045c 01       		.byte	0x1
 1995 045d 7B02     		.2byte	0x27b
 1996 045f 77000000 		.4byte	0x77
 1997 0463 00000000 		.4byte	.LFB16
 1998 0467 0C000000 		.4byte	.LFE16-.LFB16
 1999 046b 01       		.uleb128 0x1
 2000 046c 9C       		.byte	0x9c
 2001 046d 0C       		.uleb128 0xc
 2002 046e EA040000 		.4byte	.LASF45
 2003 0472 01       		.byte	0x1
 2004 0473 9802     		.2byte	0x298
 2005 0475 00000000 		.4byte	.LFB17
 2006 0479 28000000 		.4byte	.LFE17-.LFB17
 2007 047d 01       		.uleb128 0x1
 2008 047e 9C       		.byte	0x9c
 2009 047f B6040000 		.4byte	0x4b6
 2010 0483 0F       		.uleb128 0xf
 2011 0484 1D050000 		.4byte	.LASF46
 2012 0488 01       		.byte	0x1
 2013 0489 9802     		.2byte	0x298
 2014 048b 77000000 		.4byte	0x77
 2015 048f 4D020000 		.4byte	.LLST19
 2016 0493 0D       		.uleb128 0xd
 2017 0494 45050000 		.4byte	.LASF27
 2018 0498 01       		.byte	0x1
 2019 0499 9A02     		.2byte	0x29a
 2020 049b 6B000000 		.4byte	0x6b
 2021 049f 79020000 		.4byte	.LLST20
 2022 04a3 0E       		.uleb128 0xe
 2023 04a4 08000000 		.4byte	.LVL43
 2024 04a8 46090000 		.4byte	0x946
 2025 04ac 0E       		.uleb128 0xe
 2026 04ad 1C000000 		.4byte	.LVL44
 2027 04b1 51090000 		.4byte	0x951
 2028 04b5 00       		.byte	0
 2029 04b6 10       		.uleb128 0x10
 2030 04b7 CA000000 		.4byte	0xca
 2031 04bb 00000000 		.4byte	.LFB18
 2032 04bf 0C000000 		.4byte	.LFE18-.LFB18
 2033 04c3 01       		.uleb128 0x1
 2034 04c4 9C       		.byte	0x9c
 2035 04c5 D3040000 		.4byte	0x4d3
 2036 04c9 11       		.uleb128 0x11
 2037 04ca D7000000 		.4byte	0xd7
 2038 04ce 8C020000 		.4byte	.LLST21
 2039 04d2 00       		.byte	0
ARM GAS  C:\Users\Helon\AppData\Local\Temp\ccSjkW6b.s 			page 66


 2040 04d3 12       		.uleb128 0x12
 2041 04d4 29050000 		.4byte	.LASF48
 2042 04d8 01       		.byte	0x1
 2043 04d9 C902     		.2byte	0x2c9
 2044 04db 77000000 		.4byte	0x77
 2045 04df 00000000 		.4byte	.LFB19
 2046 04e3 0C000000 		.4byte	.LFE19-.LFB19
 2047 04e7 01       		.uleb128 0x1
 2048 04e8 9C       		.byte	0x9c
 2049 04e9 0C       		.uleb128 0xc
 2050 04ea C9030000 		.4byte	.LASF49
 2051 04ee 01       		.byte	0x1
 2052 04ef E302     		.2byte	0x2e3
 2053 04f1 00000000 		.4byte	.LFB20
 2054 04f5 24000000 		.4byte	.LFE20-.LFB20
 2055 04f9 01       		.uleb128 0x1
 2056 04fa 9C       		.byte	0x9c
 2057 04fb 32050000 		.4byte	0x532
 2058 04ff 0F       		.uleb128 0xf
 2059 0500 91050000 		.4byte	.LASF50
 2060 0504 01       		.byte	0x1
 2061 0505 E302     		.2byte	0x2e3
 2062 0507 77000000 		.4byte	0x77
 2063 050b AD020000 		.4byte	.LLST22
 2064 050f 0D       		.uleb128 0xd
 2065 0510 45050000 		.4byte	.LASF27
 2066 0514 01       		.byte	0x1
 2067 0515 E502     		.2byte	0x2e5
 2068 0517 6B000000 		.4byte	0x6b
 2069 051b D9020000 		.4byte	.LLST23
 2070 051f 0E       		.uleb128 0xe
 2071 0520 08000000 		.4byte	.LVL49
 2072 0524 46090000 		.4byte	0x946
 2073 0528 0E       		.uleb128 0xe
 2074 0529 1E000000 		.4byte	.LVL50
 2075 052d 51090000 		.4byte	0x951
 2076 0531 00       		.byte	0
 2077 0532 0C       		.uleb128 0xc
 2078 0533 E7030000 		.4byte	.LASF51
 2079 0537 01       		.byte	0x1
 2080 0538 FE02     		.2byte	0x2fe
 2081 053a 00000000 		.4byte	.LFB21
 2082 053e 0C000000 		.4byte	.LFE21-.LFB21
 2083 0542 01       		.uleb128 0x1
 2084 0543 9C       		.byte	0x9c
 2085 0544 59050000 		.4byte	0x559
 2086 0548 0F       		.uleb128 0xf
 2087 0549 9C050000 		.4byte	.LASF52
 2088 054d 01       		.byte	0x1
 2089 054e FE02     		.2byte	0x2fe
 2090 0550 77000000 		.4byte	0x77
 2091 0554 EC020000 		.4byte	.LLST24
 2092 0558 00       		.byte	0
 2093 0559 12       		.uleb128 0x12
 2094 055a B5030000 		.4byte	.LASF53
 2095 055e 01       		.byte	0x1
 2096 055f 1203     		.2byte	0x312
ARM GAS  C:\Users\Helon\AppData\Local\Temp\ccSjkW6b.s 			page 67


 2097 0561 77000000 		.4byte	0x77
 2098 0565 00000000 		.4byte	.LFB22
 2099 0569 0C000000 		.4byte	.LFE22-.LFB22
 2100 056d 01       		.uleb128 0x1
 2101 056e 9C       		.byte	0x9c
 2102 056f 0C       		.uleb128 0xc
 2103 0570 5B040000 		.4byte	.LASF54
 2104 0574 01       		.byte	0x1
 2105 0575 2C03     		.2byte	0x32c
 2106 0577 00000000 		.4byte	.LFB23
 2107 057b 28000000 		.4byte	.LFE23-.LFB23
 2108 057f 01       		.uleb128 0x1
 2109 0580 9C       		.byte	0x9c
 2110 0581 B8050000 		.4byte	0x5b8
 2111 0585 0F       		.uleb128 0xf
 2112 0586 91050000 		.4byte	.LASF50
 2113 058a 01       		.byte	0x1
 2114 058b 2C03     		.2byte	0x32c
 2115 058d 77000000 		.4byte	0x77
 2116 0591 0D030000 		.4byte	.LLST25
 2117 0595 0D       		.uleb128 0xd
 2118 0596 45050000 		.4byte	.LASF27
 2119 059a 01       		.byte	0x1
 2120 059b 2E03     		.2byte	0x32e
 2121 059d 6B000000 		.4byte	0x6b
 2122 05a1 39030000 		.4byte	.LLST26
 2123 05a5 0E       		.uleb128 0xe
 2124 05a6 08000000 		.4byte	.LVL55
 2125 05aa 46090000 		.4byte	0x946
 2126 05ae 0E       		.uleb128 0xe
 2127 05af 22000000 		.4byte	.LVL56
 2128 05b3 51090000 		.4byte	0x951
 2129 05b7 00       		.byte	0
 2130 05b8 10       		.uleb128 0x10
 2131 05b9 E4000000 		.4byte	0xe4
 2132 05bd 00000000 		.4byte	.LFB24
 2133 05c1 0C000000 		.4byte	.LFE24-.LFB24
 2134 05c5 01       		.uleb128 0x1
 2135 05c6 9C       		.byte	0x9c
 2136 05c7 D5050000 		.4byte	0x5d5
 2137 05cb 11       		.uleb128 0x11
 2138 05cc F1000000 		.4byte	0xf1
 2139 05d0 4C030000 		.4byte	.LLST27
 2140 05d4 00       		.byte	0
 2141 05d5 12       		.uleb128 0x12
 2142 05d6 8D020000 		.4byte	.LASF55
 2143 05da 01       		.byte	0x1
 2144 05db 8403     		.2byte	0x384
 2145 05dd 77000000 		.4byte	0x77
 2146 05e1 00000000 		.4byte	.LFB25
 2147 05e5 0C000000 		.4byte	.LFE25-.LFB25
 2148 05e9 01       		.uleb128 0x1
 2149 05ea 9C       		.byte	0x9c
 2150 05eb 0C       		.uleb128 0xc
 2151 05ec A8020000 		.4byte	.LASF56
 2152 05f0 01       		.byte	0x1
 2153 05f1 BA03     		.2byte	0x3ba
ARM GAS  C:\Users\Helon\AppData\Local\Temp\ccSjkW6b.s 			page 68


 2154 05f3 00000000 		.4byte	.LFB26
 2155 05f7 0C000000 		.4byte	.LFE26-.LFB26
 2156 05fb 01       		.uleb128 0x1
 2157 05fc 9C       		.byte	0x9c
 2158 05fd 12060000 		.4byte	0x612
 2159 0601 0F       		.uleb128 0xf
 2160 0602 3A050000 		.4byte	.LASF57
 2161 0606 01       		.byte	0x1
 2162 0607 BA03     		.2byte	0x3ba
 2163 0609 77000000 		.4byte	0x77
 2164 060d 6D030000 		.4byte	.LLST28
 2165 0611 00       		.byte	0
 2166 0612 12       		.uleb128 0x12
 2167 0613 B7050000 		.4byte	.LASF58
 2168 0617 01       		.byte	0x1
 2169 0618 E803     		.2byte	0x3e8
 2170 061a 77000000 		.4byte	0x77
 2171 061e 00000000 		.4byte	.LFB27
 2172 0622 0C000000 		.4byte	.LFE27-.LFB27
 2173 0626 01       		.uleb128 0x1
 2174 0627 9C       		.byte	0x9c
 2175 0628 12       		.uleb128 0x12
 2176 0629 17020000 		.4byte	.LASF59
 2177 062d 01       		.byte	0x1
 2178 062e 1604     		.2byte	0x416
 2179 0630 77000000 		.4byte	0x77
 2180 0634 00000000 		.4byte	.LFB28
 2181 0638 0C000000 		.4byte	.LFE28-.LFB28
 2182 063c 01       		.uleb128 0x1
 2183 063d 9C       		.byte	0x9c
 2184 063e 12       		.uleb128 0x12
 2185 063f 6F040000 		.4byte	.LASF60
 2186 0643 01       		.byte	0x1
 2187 0644 2B04     		.2byte	0x42b
 2188 0646 77000000 		.4byte	0x77
 2189 064a 00000000 		.4byte	.LFB29
 2190 064e 0C000000 		.4byte	.LFE29-.LFB29
 2191 0652 01       		.uleb128 0x1
 2192 0653 9C       		.byte	0x9c
 2193 0654 0C       		.uleb128 0xc
 2194 0655 56050000 		.4byte	.LASF61
 2195 0659 01       		.byte	0x1
 2196 065a 4604     		.2byte	0x446
 2197 065c 00000000 		.4byte	.LFB30
 2198 0660 24000000 		.4byte	.LFE30-.LFB30
 2199 0664 01       		.uleb128 0x1
 2200 0665 9C       		.byte	0x9c
 2201 0666 9D060000 		.4byte	0x69d
 2202 066a 0F       		.uleb128 0xf
 2203 066b 7C020000 		.4byte	.LASF62
 2204 066f 01       		.byte	0x1
 2205 0670 4604     		.2byte	0x446
 2206 0672 77000000 		.4byte	0x77
 2207 0676 8E030000 		.4byte	.LLST29
 2208 067a 0D       		.uleb128 0xd
 2209 067b 45050000 		.4byte	.LASF27
 2210 067f 01       		.byte	0x1
ARM GAS  C:\Users\Helon\AppData\Local\Temp\ccSjkW6b.s 			page 69


 2211 0680 4804     		.2byte	0x448
 2212 0682 6B000000 		.4byte	0x6b
 2213 0686 BA030000 		.4byte	.LLST30
 2214 068a 0E       		.uleb128 0xe
 2215 068b 08000000 		.4byte	.LVL63
 2216 068f 46090000 		.4byte	0x946
 2217 0693 0E       		.uleb128 0xe
 2218 0694 1C000000 		.4byte	.LVL64
 2219 0698 51090000 		.4byte	0x951
 2220 069c 00       		.byte	0
 2221 069d 0C       		.uleb128 0xc
 2222 069e 09050000 		.4byte	.LASF63
 2223 06a2 01       		.byte	0x1
 2224 06a3 6704     		.2byte	0x467
 2225 06a5 00000000 		.4byte	.LFB31
 2226 06a9 24000000 		.4byte	.LFE31-.LFB31
 2227 06ad 01       		.uleb128 0x1
 2228 06ae 9C       		.byte	0x9c
 2229 06af E6060000 		.4byte	0x6e6
 2230 06b3 0F       		.uleb128 0xf
 2231 06b4 7C020000 		.4byte	.LASF62
 2232 06b8 01       		.byte	0x1
 2233 06b9 6704     		.2byte	0x467
 2234 06bb 77000000 		.4byte	0x77
 2235 06bf CD030000 		.4byte	.LLST31
 2236 06c3 0D       		.uleb128 0xd
 2237 06c4 45050000 		.4byte	.LASF27
 2238 06c8 01       		.byte	0x1
 2239 06c9 6904     		.2byte	0x469
 2240 06cb 6B000000 		.4byte	0x6b
 2241 06cf F9030000 		.4byte	.LLST32
 2242 06d3 0E       		.uleb128 0xe
 2243 06d4 08000000 		.4byte	.LVL67
 2244 06d8 46090000 		.4byte	0x946
 2245 06dc 0E       		.uleb128 0xe
 2246 06dd 1E000000 		.4byte	.LVL68
 2247 06e1 51090000 		.4byte	0x951
 2248 06e5 00       		.byte	0
 2249 06e6 0C       		.uleb128 0xc
 2250 06e7 26040000 		.4byte	.LASF64
 2251 06eb 01       		.byte	0x1
 2252 06ec 8804     		.2byte	0x488
 2253 06ee 00000000 		.4byte	.LFB32
 2254 06f2 28000000 		.4byte	.LFE32-.LFB32
 2255 06f6 01       		.uleb128 0x1
 2256 06f7 9C       		.byte	0x9c
 2257 06f8 2F070000 		.4byte	0x72f
 2258 06fc 0F       		.uleb128 0xf
 2259 06fd 7C020000 		.4byte	.LASF62
 2260 0701 01       		.byte	0x1
 2261 0702 8804     		.2byte	0x488
 2262 0704 77000000 		.4byte	0x77
 2263 0708 0C040000 		.4byte	.LLST33
 2264 070c 0D       		.uleb128 0xd
 2265 070d 45050000 		.4byte	.LASF27
 2266 0711 01       		.byte	0x1
 2267 0712 8A04     		.2byte	0x48a
ARM GAS  C:\Users\Helon\AppData\Local\Temp\ccSjkW6b.s 			page 70


 2268 0714 6B000000 		.4byte	0x6b
 2269 0718 38040000 		.4byte	.LLST34
 2270 071c 0E       		.uleb128 0xe
 2271 071d 08000000 		.4byte	.LVL71
 2272 0721 46090000 		.4byte	0x946
 2273 0725 0E       		.uleb128 0xe
 2274 0726 1E000000 		.4byte	.LVL72
 2275 072a 51090000 		.4byte	0x951
 2276 072e 00       		.byte	0
 2277 072f 0C       		.uleb128 0xc
 2278 0730 49040000 		.4byte	.LASF65
 2279 0734 01       		.byte	0x1
 2280 0735 A804     		.2byte	0x4a8
 2281 0737 00000000 		.4byte	.LFB33
 2282 073b 24000000 		.4byte	.LFE33-.LFB33
 2283 073f 01       		.uleb128 0x1
 2284 0740 9C       		.byte	0x9c
 2285 0741 78070000 		.4byte	0x778
 2286 0745 0F       		.uleb128 0xf
 2287 0746 7C020000 		.4byte	.LASF62
 2288 074a 01       		.byte	0x1
 2289 074b A804     		.2byte	0x4a8
 2290 074d 77000000 		.4byte	0x77
 2291 0751 4B040000 		.4byte	.LLST35
 2292 0755 0D       		.uleb128 0xd
 2293 0756 45050000 		.4byte	.LASF27
 2294 075a 01       		.byte	0x1
 2295 075b AA04     		.2byte	0x4aa
 2296 075d 6B000000 		.4byte	0x6b
 2297 0761 77040000 		.4byte	.LLST36
 2298 0765 0E       		.uleb128 0xe
 2299 0766 08000000 		.4byte	.LVL75
 2300 076a 46090000 		.4byte	0x946
 2301 076e 0E       		.uleb128 0xe
 2302 076f 1E000000 		.4byte	.LVL76
 2303 0773 51090000 		.4byte	0x951
 2304 0777 00       		.byte	0
 2305 0778 0C       		.uleb128 0xc
 2306 0779 FB010000 		.4byte	.LASF66
 2307 077d 01       		.byte	0x1
 2308 077e C904     		.2byte	0x4c9
 2309 0780 00000000 		.4byte	.LFB34
 2310 0784 24000000 		.4byte	.LFE34-.LFB34
 2311 0788 01       		.uleb128 0x1
 2312 0789 9C       		.byte	0x9c
 2313 078a C1070000 		.4byte	0x7c1
 2314 078e 0F       		.uleb128 0xf
 2315 078f 7C020000 		.4byte	.LASF62
 2316 0793 01       		.byte	0x1
 2317 0794 C904     		.2byte	0x4c9
 2318 0796 77000000 		.4byte	0x77
 2319 079a 8A040000 		.4byte	.LLST37
 2320 079e 0D       		.uleb128 0xd
 2321 079f 45050000 		.4byte	.LASF27
 2322 07a3 01       		.byte	0x1
 2323 07a4 CB04     		.2byte	0x4cb
 2324 07a6 6B000000 		.4byte	0x6b
ARM GAS  C:\Users\Helon\AppData\Local\Temp\ccSjkW6b.s 			page 71


 2325 07aa B6040000 		.4byte	.LLST38
 2326 07ae 0E       		.uleb128 0xe
 2327 07af 08000000 		.4byte	.LVL79
 2328 07b3 46090000 		.4byte	0x946
 2329 07b7 0E       		.uleb128 0xe
 2330 07b8 1E000000 		.4byte	.LVL80
 2331 07bc 51090000 		.4byte	0x951
 2332 07c0 00       		.byte	0
 2333 07c1 0C       		.uleb128 0xc
 2334 07c2 29020000 		.4byte	.LASF67
 2335 07c6 01       		.byte	0x1
 2336 07c7 F104     		.2byte	0x4f1
 2337 07c9 00000000 		.4byte	.LFB35
 2338 07cd 1C000000 		.4byte	.LFE35-.LFB35
 2339 07d1 01       		.uleb128 0x1
 2340 07d2 9C       		.byte	0x9c
 2341 07d3 1A080000 		.4byte	0x81a
 2342 07d7 0F       		.uleb128 0xf
 2343 07d8 88020000 		.4byte	.LASF44
 2344 07dc 01       		.byte	0x1
 2345 07dd F104     		.2byte	0x4f1
 2346 07df 77000000 		.4byte	0x77
 2347 07e3 C9040000 		.4byte	.LLST39
 2348 07e7 0F       		.uleb128 0xf
 2349 07e8 F8020000 		.4byte	.LASF68
 2350 07ec 01       		.byte	0x1
 2351 07ed F104     		.2byte	0x4f1
 2352 07ef 77000000 		.4byte	0x77
 2353 07f3 EA040000 		.4byte	.LLST40
 2354 07f7 0D       		.uleb128 0xd
 2355 07f8 45050000 		.4byte	.LASF27
 2356 07fc 01       		.byte	0x1
 2357 07fd F304     		.2byte	0x4f3
 2358 07ff 6B000000 		.4byte	0x6b
 2359 0803 16050000 		.4byte	.LLST41
 2360 0807 0E       		.uleb128 0xe
 2361 0808 0C000000 		.4byte	.LVL83
 2362 080c 46090000 		.4byte	0x946
 2363 0810 0E       		.uleb128 0xe
 2364 0811 14000000 		.4byte	.LVL84
 2365 0815 51090000 		.4byte	0x951
 2366 0819 00       		.byte	0
 2367 081a 08       		.uleb128 0x8
 2368 081b 1B030000 		.4byte	.LASF69
 2369 081f 01       		.byte	0x1
 2370 0820 B1       		.byte	0xb1
 2371 0821 00000000 		.4byte	.LFB3
 2372 0825 24000000 		.4byte	.LFE3-.LFB3
 2373 0829 01       		.uleb128 0x1
 2374 082a 9C       		.byte	0x9c
 2375 082b 66080000 		.4byte	0x866
 2376 082f 13       		.uleb128 0x13
 2377 0830 45050000 		.4byte	.LASF27
 2378 0834 01       		.byte	0x1
 2379 0835 B3       		.byte	0xb3
 2380 0836 6B000000 		.4byte	0x6b
 2381 083a 29050000 		.4byte	.LLST42
ARM GAS  C:\Users\Helon\AppData\Local\Temp\ccSjkW6b.s 			page 72


 2382 083e 0E       		.uleb128 0xe
 2383 083f 08000000 		.4byte	.LVL86
 2384 0843 46090000 		.4byte	0x946
 2385 0847 0E       		.uleb128 0xe
 2386 0848 14000000 		.4byte	.LVL87
 2387 084c 51090000 		.4byte	0x951
 2388 0850 14       		.uleb128 0x14
 2389 0851 1C000000 		.4byte	.LVL88
 2390 0855 C1070000 		.4byte	0x7c1
 2391 0859 15       		.uleb128 0x15
 2392 085a 01       		.uleb128 0x1
 2393 085b 51       		.byte	0x51
 2394 085c 01       		.uleb128 0x1
 2395 085d 48       		.byte	0x48
 2396 085e 15       		.uleb128 0x15
 2397 085f 01       		.uleb128 0x1
 2398 0860 50       		.byte	0x50
 2399 0861 02       		.uleb128 0x2
 2400 0862 74       		.byte	0x74
 2401 0863 00       		.sleb128 0
 2402 0864 00       		.byte	0
 2403 0865 00       		.byte	0
 2404 0866 08       		.uleb128 0x8
 2405 0867 EC020000 		.4byte	.LASF70
 2406 086b 01       		.byte	0x1
 2407 086c E6       		.byte	0xe6
 2408 086d 00000000 		.4byte	.LFB4
 2409 0871 1C000000 		.4byte	.LFE4-.LFB4
 2410 0875 01       		.uleb128 0x1
 2411 0876 9C       		.byte	0x9c
 2412 0877 8E080000 		.4byte	0x88e
 2413 087b 0E       		.uleb128 0xe
 2414 087c 0E000000 		.4byte	.LVL89
 2415 0880 18010000 		.4byte	0x118
 2416 0884 0E       		.uleb128 0xe
 2417 0885 16000000 		.4byte	.LVL90
 2418 0889 1A080000 		.4byte	0x81a
 2419 088d 00       		.byte	0
 2420 088e 12       		.uleb128 0x12
 2421 088f 84040000 		.4byte	.LASF71
 2422 0893 01       		.byte	0x1
 2423 0894 0E05     		.2byte	0x50e
 2424 0896 77000000 		.4byte	0x77
 2425 089a 00000000 		.4byte	.LFB36
 2426 089e 14000000 		.4byte	.LFE36-.LFB36
 2427 08a2 01       		.uleb128 0x1
 2428 08a3 9C       		.byte	0x9c
 2429 08a4 10       		.uleb128 0x10
 2430 08a5 B0000000 		.4byte	0xb0
 2431 08a9 00000000 		.4byte	.LFB37
 2432 08ad 0C000000 		.4byte	.LFE37-.LFB37
 2433 08b1 01       		.uleb128 0x1
 2434 08b2 9C       		.byte	0x9c
 2435 08b3 BF080000 		.4byte	0x8bf
 2436 08b7 16       		.uleb128 0x16
 2437 08b8 BD000000 		.4byte	0xbd
 2438 08bc 01       		.uleb128 0x1
ARM GAS  C:\Users\Helon\AppData\Local\Temp\ccSjkW6b.s 			page 73


 2439 08bd 50       		.byte	0x50
 2440 08be 00       		.byte	0
 2441 08bf 12       		.uleb128 0x12
 2442 08c0 90030000 		.4byte	.LASF72
 2443 08c4 01       		.byte	0x1
 2444 08c5 3E05     		.2byte	0x53e
 2445 08c7 77000000 		.4byte	0x77
 2446 08cb 00000000 		.4byte	.LFB38
 2447 08cf 0C000000 		.4byte	.LFE38-.LFB38
 2448 08d3 01       		.uleb128 0x1
 2449 08d4 9C       		.byte	0x9c
 2450 08d5 12       		.uleb128 0x12
 2451 08d6 AB000000 		.4byte	.LASF73
 2452 08da 01       		.byte	0x1
 2453 08db 5505     		.2byte	0x555
 2454 08dd 77000000 		.4byte	0x77
 2455 08e1 00000000 		.4byte	.LFB39
 2456 08e5 0C000000 		.4byte	.LFE39-.LFB39
 2457 08e9 01       		.uleb128 0x1
 2458 08ea 9C       		.byte	0x9c
 2459 08eb 0C       		.uleb128 0xc
 2460 08ec 7C050000 		.4byte	.LASF74
 2461 08f0 01       		.byte	0x1
 2462 08f1 6C05     		.2byte	0x56c
 2463 08f3 00000000 		.4byte	.LFB40
 2464 08f7 0C000000 		.4byte	.LFE40-.LFB40
 2465 08fb 01       		.uleb128 0x1
 2466 08fc 9C       		.byte	0x9c
 2467 08fd 10090000 		.4byte	0x910
 2468 0901 17       		.uleb128 0x17
 2469 0902 BE040000 		.4byte	.LASF18
 2470 0906 01       		.byte	0x1
 2471 0907 6C05     		.2byte	0x56c
 2472 0909 77000000 		.4byte	0x77
 2473 090d 01       		.uleb128 0x1
 2474 090e 50       		.byte	0x50
 2475 090f 00       		.byte	0
 2476 0910 0C       		.uleb128 0xc
 2477 0911 EC000000 		.4byte	.LASF75
 2478 0915 01       		.byte	0x1
 2479 0916 8305     		.2byte	0x583
 2480 0918 00000000 		.4byte	.LFB41
 2481 091c 0C000000 		.4byte	.LFE41-.LFB41
 2482 0920 01       		.uleb128 0x1
 2483 0921 9C       		.byte	0x9c
 2484 0922 35090000 		.4byte	0x935
 2485 0926 17       		.uleb128 0x17
 2486 0927 BE040000 		.4byte	.LASF18
 2487 092b 01       		.byte	0x1
 2488 092c 8305     		.2byte	0x583
 2489 092e 77000000 		.4byte	0x77
 2490 0932 01       		.uleb128 0x1
 2491 0933 50       		.byte	0x50
 2492 0934 00       		.byte	0
 2493 0935 18       		.uleb128 0x18
 2494 0936 14010000 		.4byte	.LASF79
 2495 093a 01       		.byte	0x1
ARM GAS  C:\Users\Helon\AppData\Local\Temp\ccSjkW6b.s 			page 74


 2496 093b 15       		.byte	0x15
 2497 093c 6B000000 		.4byte	0x6b
 2498 0940 05       		.uleb128 0x5
 2499 0941 03       		.byte	0x3
 2500 0942 00000000 		.4byte	Timer_initVar
 2501 0946 19       		.uleb128 0x19
 2502 0947 28030000 		.4byte	.LASF80
 2503 094b 03       		.byte	0x3
 2504 094c 61       		.byte	0x61
 2505 094d 6B000000 		.4byte	0x6b
 2506 0951 1A       		.uleb128 0x1a
 2507 0952 C4000000 		.4byte	.LASF81
 2508 0956 03       		.byte	0x3
 2509 0957 62       		.byte	0x62
 2510 0958 1B       		.uleb128 0x1b
 2511 0959 6B000000 		.4byte	0x6b
 2512 095d 00       		.byte	0
 2513 095e 00       		.byte	0
 2514              		.section	.debug_abbrev,"",%progbits
 2515              	.Ldebug_abbrev0:
 2516 0000 01       		.uleb128 0x1
 2517 0001 11       		.uleb128 0x11
 2518 0002 01       		.byte	0x1
 2519 0003 25       		.uleb128 0x25
 2520 0004 0E       		.uleb128 0xe
 2521 0005 13       		.uleb128 0x13
 2522 0006 0B       		.uleb128 0xb
 2523 0007 03       		.uleb128 0x3
 2524 0008 0E       		.uleb128 0xe
 2525 0009 1B       		.uleb128 0x1b
 2526 000a 0E       		.uleb128 0xe
 2527 000b 55       		.uleb128 0x55
 2528 000c 17       		.uleb128 0x17
 2529 000d 11       		.uleb128 0x11
 2530 000e 01       		.uleb128 0x1
 2531 000f 10       		.uleb128 0x10
 2532 0010 17       		.uleb128 0x17
 2533 0011 00       		.byte	0
 2534 0012 00       		.byte	0
 2535 0013 02       		.uleb128 0x2
 2536 0014 24       		.uleb128 0x24
 2537 0015 00       		.byte	0
 2538 0016 0B       		.uleb128 0xb
 2539 0017 0B       		.uleb128 0xb
 2540 0018 3E       		.uleb128 0x3e
 2541 0019 0B       		.uleb128 0xb
 2542 001a 03       		.uleb128 0x3
 2543 001b 0E       		.uleb128 0xe
 2544 001c 00       		.byte	0
 2545 001d 00       		.byte	0
 2546 001e 03       		.uleb128 0x3
 2547 001f 24       		.uleb128 0x24
 2548 0020 00       		.byte	0
 2549 0021 0B       		.uleb128 0xb
 2550 0022 0B       		.uleb128 0xb
 2551 0023 3E       		.uleb128 0x3e
 2552 0024 0B       		.uleb128 0xb
ARM GAS  C:\Users\Helon\AppData\Local\Temp\ccSjkW6b.s 			page 75


 2553 0025 03       		.uleb128 0x3
 2554 0026 08       		.uleb128 0x8
 2555 0027 00       		.byte	0
 2556 0028 00       		.byte	0
 2557 0029 04       		.uleb128 0x4
 2558 002a 16       		.uleb128 0x16
 2559 002b 00       		.byte	0
 2560 002c 03       		.uleb128 0x3
 2561 002d 0E       		.uleb128 0xe
 2562 002e 3A       		.uleb128 0x3a
 2563 002f 0B       		.uleb128 0xb
 2564 0030 3B       		.uleb128 0x3b
 2565 0031 05       		.uleb128 0x5
 2566 0032 49       		.uleb128 0x49
 2567 0033 13       		.uleb128 0x13
 2568 0034 00       		.byte	0
 2569 0035 00       		.byte	0
 2570 0036 05       		.uleb128 0x5
 2571 0037 35       		.uleb128 0x35
 2572 0038 00       		.byte	0
 2573 0039 49       		.uleb128 0x49
 2574 003a 13       		.uleb128 0x13
 2575 003b 00       		.byte	0
 2576 003c 00       		.byte	0
 2577 003d 06       		.uleb128 0x6
 2578 003e 2E       		.uleb128 0x2e
 2579 003f 01       		.byte	0x1
 2580 0040 3F       		.uleb128 0x3f
 2581 0041 19       		.uleb128 0x19
 2582 0042 03       		.uleb128 0x3
 2583 0043 0E       		.uleb128 0xe
 2584 0044 3A       		.uleb128 0x3a
 2585 0045 0B       		.uleb128 0xb
 2586 0046 3B       		.uleb128 0x3b
 2587 0047 05       		.uleb128 0x5
 2588 0048 27       		.uleb128 0x27
 2589 0049 19       		.uleb128 0x19
 2590 004a 20       		.uleb128 0x20
 2591 004b 0B       		.uleb128 0xb
 2592 004c 01       		.uleb128 0x1
 2593 004d 13       		.uleb128 0x13
 2594 004e 00       		.byte	0
 2595 004f 00       		.byte	0
 2596 0050 07       		.uleb128 0x7
 2597 0051 05       		.uleb128 0x5
 2598 0052 00       		.byte	0
 2599 0053 03       		.uleb128 0x3
 2600 0054 0E       		.uleb128 0xe
 2601 0055 3A       		.uleb128 0x3a
 2602 0056 0B       		.uleb128 0xb
 2603 0057 3B       		.uleb128 0x3b
 2604 0058 05       		.uleb128 0x5
 2605 0059 49       		.uleb128 0x49
 2606 005a 13       		.uleb128 0x13
 2607 005b 00       		.byte	0
 2608 005c 00       		.byte	0
 2609 005d 08       		.uleb128 0x8
ARM GAS  C:\Users\Helon\AppData\Local\Temp\ccSjkW6b.s 			page 76


 2610 005e 2E       		.uleb128 0x2e
 2611 005f 01       		.byte	0x1
 2612 0060 3F       		.uleb128 0x3f
 2613 0061 19       		.uleb128 0x19
 2614 0062 03       		.uleb128 0x3
 2615 0063 0E       		.uleb128 0xe
 2616 0064 3A       		.uleb128 0x3a
 2617 0065 0B       		.uleb128 0xb
 2618 0066 3B       		.uleb128 0x3b
 2619 0067 0B       		.uleb128 0xb
 2620 0068 27       		.uleb128 0x27
 2621 0069 19       		.uleb128 0x19
 2622 006a 11       		.uleb128 0x11
 2623 006b 01       		.uleb128 0x1
 2624 006c 12       		.uleb128 0x12
 2625 006d 06       		.uleb128 0x6
 2626 006e 40       		.uleb128 0x40
 2627 006f 18       		.uleb128 0x18
 2628 0070 9742     		.uleb128 0x2117
 2629 0072 19       		.uleb128 0x19
 2630 0073 01       		.uleb128 0x1
 2631 0074 13       		.uleb128 0x13
 2632 0075 00       		.byte	0
 2633 0076 00       		.byte	0
 2634 0077 09       		.uleb128 0x9
 2635 0078 1D       		.uleb128 0x1d
 2636 0079 01       		.byte	0x1
 2637 007a 31       		.uleb128 0x31
 2638 007b 13       		.uleb128 0x13
 2639 007c 11       		.uleb128 0x11
 2640 007d 01       		.uleb128 0x1
 2641 007e 12       		.uleb128 0x12
 2642 007f 06       		.uleb128 0x6
 2643 0080 58       		.uleb128 0x58
 2644 0081 0B       		.uleb128 0xb
 2645 0082 59       		.uleb128 0x59
 2646 0083 0B       		.uleb128 0xb
 2647 0084 01       		.uleb128 0x1
 2648 0085 13       		.uleb128 0x13
 2649 0086 00       		.byte	0
 2650 0087 00       		.byte	0
 2651 0088 0A       		.uleb128 0xa
 2652 0089 05       		.uleb128 0x5
 2653 008a 00       		.byte	0
 2654 008b 31       		.uleb128 0x31
 2655 008c 13       		.uleb128 0x13
 2656 008d 1C       		.uleb128 0x1c
 2657 008e 0B       		.uleb128 0xb
 2658 008f 00       		.byte	0
 2659 0090 00       		.byte	0
 2660 0091 0B       		.uleb128 0xb
 2661 0092 1D       		.uleb128 0x1d
 2662 0093 01       		.byte	0x1
 2663 0094 31       		.uleb128 0x31
 2664 0095 13       		.uleb128 0x13
 2665 0096 11       		.uleb128 0x11
 2666 0097 01       		.uleb128 0x1
ARM GAS  C:\Users\Helon\AppData\Local\Temp\ccSjkW6b.s 			page 77


 2667 0098 12       		.uleb128 0x12
 2668 0099 06       		.uleb128 0x6
 2669 009a 58       		.uleb128 0x58
 2670 009b 0B       		.uleb128 0xb
 2671 009c 59       		.uleb128 0x59
 2672 009d 0B       		.uleb128 0xb
 2673 009e 00       		.byte	0
 2674 009f 00       		.byte	0
 2675 00a0 0C       		.uleb128 0xc
 2676 00a1 2E       		.uleb128 0x2e
 2677 00a2 01       		.byte	0x1
 2678 00a3 3F       		.uleb128 0x3f
 2679 00a4 19       		.uleb128 0x19
 2680 00a5 03       		.uleb128 0x3
 2681 00a6 0E       		.uleb128 0xe
 2682 00a7 3A       		.uleb128 0x3a
 2683 00a8 0B       		.uleb128 0xb
 2684 00a9 3B       		.uleb128 0x3b
 2685 00aa 05       		.uleb128 0x5
 2686 00ab 27       		.uleb128 0x27
 2687 00ac 19       		.uleb128 0x19
 2688 00ad 11       		.uleb128 0x11
 2689 00ae 01       		.uleb128 0x1
 2690 00af 12       		.uleb128 0x12
 2691 00b0 06       		.uleb128 0x6
 2692 00b1 40       		.uleb128 0x40
 2693 00b2 18       		.uleb128 0x18
 2694 00b3 9742     		.uleb128 0x2117
 2695 00b5 19       		.uleb128 0x19
 2696 00b6 01       		.uleb128 0x1
 2697 00b7 13       		.uleb128 0x13
 2698 00b8 00       		.byte	0
 2699 00b9 00       		.byte	0
 2700 00ba 0D       		.uleb128 0xd
 2701 00bb 34       		.uleb128 0x34
 2702 00bc 00       		.byte	0
 2703 00bd 03       		.uleb128 0x3
 2704 00be 0E       		.uleb128 0xe
 2705 00bf 3A       		.uleb128 0x3a
 2706 00c0 0B       		.uleb128 0xb
 2707 00c1 3B       		.uleb128 0x3b
 2708 00c2 05       		.uleb128 0x5
 2709 00c3 49       		.uleb128 0x49
 2710 00c4 13       		.uleb128 0x13
 2711 00c5 02       		.uleb128 0x2
 2712 00c6 17       		.uleb128 0x17
 2713 00c7 00       		.byte	0
 2714 00c8 00       		.byte	0
 2715 00c9 0E       		.uleb128 0xe
 2716 00ca 898201   		.uleb128 0x4109
 2717 00cd 00       		.byte	0
 2718 00ce 11       		.uleb128 0x11
 2719 00cf 01       		.uleb128 0x1
 2720 00d0 31       		.uleb128 0x31
 2721 00d1 13       		.uleb128 0x13
 2722 00d2 00       		.byte	0
 2723 00d3 00       		.byte	0
ARM GAS  C:\Users\Helon\AppData\Local\Temp\ccSjkW6b.s 			page 78


 2724 00d4 0F       		.uleb128 0xf
 2725 00d5 05       		.uleb128 0x5
 2726 00d6 00       		.byte	0
 2727 00d7 03       		.uleb128 0x3
 2728 00d8 0E       		.uleb128 0xe
 2729 00d9 3A       		.uleb128 0x3a
 2730 00da 0B       		.uleb128 0xb
 2731 00db 3B       		.uleb128 0x3b
 2732 00dc 05       		.uleb128 0x5
 2733 00dd 49       		.uleb128 0x49
 2734 00de 13       		.uleb128 0x13
 2735 00df 02       		.uleb128 0x2
 2736 00e0 17       		.uleb128 0x17
 2737 00e1 00       		.byte	0
 2738 00e2 00       		.byte	0
 2739 00e3 10       		.uleb128 0x10
 2740 00e4 2E       		.uleb128 0x2e
 2741 00e5 01       		.byte	0x1
 2742 00e6 31       		.uleb128 0x31
 2743 00e7 13       		.uleb128 0x13
 2744 00e8 11       		.uleb128 0x11
 2745 00e9 01       		.uleb128 0x1
 2746 00ea 12       		.uleb128 0x12
 2747 00eb 06       		.uleb128 0x6
 2748 00ec 40       		.uleb128 0x40
 2749 00ed 18       		.uleb128 0x18
 2750 00ee 9742     		.uleb128 0x2117
 2751 00f0 19       		.uleb128 0x19
 2752 00f1 01       		.uleb128 0x1
 2753 00f2 13       		.uleb128 0x13
 2754 00f3 00       		.byte	0
 2755 00f4 00       		.byte	0
 2756 00f5 11       		.uleb128 0x11
 2757 00f6 05       		.uleb128 0x5
 2758 00f7 00       		.byte	0
 2759 00f8 31       		.uleb128 0x31
 2760 00f9 13       		.uleb128 0x13
 2761 00fa 02       		.uleb128 0x2
 2762 00fb 17       		.uleb128 0x17
 2763 00fc 00       		.byte	0
 2764 00fd 00       		.byte	0
 2765 00fe 12       		.uleb128 0x12
 2766 00ff 2E       		.uleb128 0x2e
 2767 0100 00       		.byte	0
 2768 0101 3F       		.uleb128 0x3f
 2769 0102 19       		.uleb128 0x19
 2770 0103 03       		.uleb128 0x3
 2771 0104 0E       		.uleb128 0xe
 2772 0105 3A       		.uleb128 0x3a
 2773 0106 0B       		.uleb128 0xb
 2774 0107 3B       		.uleb128 0x3b
 2775 0108 05       		.uleb128 0x5
 2776 0109 27       		.uleb128 0x27
 2777 010a 19       		.uleb128 0x19
 2778 010b 49       		.uleb128 0x49
 2779 010c 13       		.uleb128 0x13
 2780 010d 11       		.uleb128 0x11
ARM GAS  C:\Users\Helon\AppData\Local\Temp\ccSjkW6b.s 			page 79


 2781 010e 01       		.uleb128 0x1
 2782 010f 12       		.uleb128 0x12
 2783 0110 06       		.uleb128 0x6
 2784 0111 40       		.uleb128 0x40
 2785 0112 18       		.uleb128 0x18
 2786 0113 9742     		.uleb128 0x2117
 2787 0115 19       		.uleb128 0x19
 2788 0116 00       		.byte	0
 2789 0117 00       		.byte	0
 2790 0118 13       		.uleb128 0x13
 2791 0119 34       		.uleb128 0x34
 2792 011a 00       		.byte	0
 2793 011b 03       		.uleb128 0x3
 2794 011c 0E       		.uleb128 0xe
 2795 011d 3A       		.uleb128 0x3a
 2796 011e 0B       		.uleb128 0xb
 2797 011f 3B       		.uleb128 0x3b
 2798 0120 0B       		.uleb128 0xb
 2799 0121 49       		.uleb128 0x49
 2800 0122 13       		.uleb128 0x13
 2801 0123 02       		.uleb128 0x2
 2802 0124 17       		.uleb128 0x17
 2803 0125 00       		.byte	0
 2804 0126 00       		.byte	0
 2805 0127 14       		.uleb128 0x14
 2806 0128 898201   		.uleb128 0x4109
 2807 012b 01       		.byte	0x1
 2808 012c 11       		.uleb128 0x11
 2809 012d 01       		.uleb128 0x1
 2810 012e 31       		.uleb128 0x31
 2811 012f 13       		.uleb128 0x13
 2812 0130 00       		.byte	0
 2813 0131 00       		.byte	0
 2814 0132 15       		.uleb128 0x15
 2815 0133 8A8201   		.uleb128 0x410a
 2816 0136 00       		.byte	0
 2817 0137 02       		.uleb128 0x2
 2818 0138 18       		.uleb128 0x18
 2819 0139 9142     		.uleb128 0x2111
 2820 013b 18       		.uleb128 0x18
 2821 013c 00       		.byte	0
 2822 013d 00       		.byte	0
 2823 013e 16       		.uleb128 0x16
 2824 013f 05       		.uleb128 0x5
 2825 0140 00       		.byte	0
 2826 0141 31       		.uleb128 0x31
 2827 0142 13       		.uleb128 0x13
 2828 0143 02       		.uleb128 0x2
 2829 0144 18       		.uleb128 0x18
 2830 0145 00       		.byte	0
 2831 0146 00       		.byte	0
 2832 0147 17       		.uleb128 0x17
 2833 0148 05       		.uleb128 0x5
 2834 0149 00       		.byte	0
 2835 014a 03       		.uleb128 0x3
 2836 014b 0E       		.uleb128 0xe
 2837 014c 3A       		.uleb128 0x3a
ARM GAS  C:\Users\Helon\AppData\Local\Temp\ccSjkW6b.s 			page 80


 2838 014d 0B       		.uleb128 0xb
 2839 014e 3B       		.uleb128 0x3b
 2840 014f 05       		.uleb128 0x5
 2841 0150 49       		.uleb128 0x49
 2842 0151 13       		.uleb128 0x13
 2843 0152 02       		.uleb128 0x2
 2844 0153 18       		.uleb128 0x18
 2845 0154 00       		.byte	0
 2846 0155 00       		.byte	0
 2847 0156 18       		.uleb128 0x18
 2848 0157 34       		.uleb128 0x34
 2849 0158 00       		.byte	0
 2850 0159 03       		.uleb128 0x3
 2851 015a 0E       		.uleb128 0xe
 2852 015b 3A       		.uleb128 0x3a
 2853 015c 0B       		.uleb128 0xb
 2854 015d 3B       		.uleb128 0x3b
 2855 015e 0B       		.uleb128 0xb
 2856 015f 49       		.uleb128 0x49
 2857 0160 13       		.uleb128 0x13
 2858 0161 3F       		.uleb128 0x3f
 2859 0162 19       		.uleb128 0x19
 2860 0163 02       		.uleb128 0x2
 2861 0164 18       		.uleb128 0x18
 2862 0165 00       		.byte	0
 2863 0166 00       		.byte	0
 2864 0167 19       		.uleb128 0x19
 2865 0168 2E       		.uleb128 0x2e
 2866 0169 00       		.byte	0
 2867 016a 3F       		.uleb128 0x3f
 2868 016b 19       		.uleb128 0x19
 2869 016c 03       		.uleb128 0x3
 2870 016d 0E       		.uleb128 0xe
 2871 016e 3A       		.uleb128 0x3a
 2872 016f 0B       		.uleb128 0xb
 2873 0170 3B       		.uleb128 0x3b
 2874 0171 0B       		.uleb128 0xb
 2875 0172 27       		.uleb128 0x27
 2876 0173 19       		.uleb128 0x19
 2877 0174 49       		.uleb128 0x49
 2878 0175 13       		.uleb128 0x13
 2879 0176 3C       		.uleb128 0x3c
 2880 0177 19       		.uleb128 0x19
 2881 0178 00       		.byte	0
 2882 0179 00       		.byte	0
 2883 017a 1A       		.uleb128 0x1a
 2884 017b 2E       		.uleb128 0x2e
 2885 017c 01       		.byte	0x1
 2886 017d 3F       		.uleb128 0x3f
 2887 017e 19       		.uleb128 0x19
 2888 017f 03       		.uleb128 0x3
 2889 0180 0E       		.uleb128 0xe
 2890 0181 3A       		.uleb128 0x3a
 2891 0182 0B       		.uleb128 0xb
 2892 0183 3B       		.uleb128 0x3b
 2893 0184 0B       		.uleb128 0xb
 2894 0185 27       		.uleb128 0x27
ARM GAS  C:\Users\Helon\AppData\Local\Temp\ccSjkW6b.s 			page 81


 2895 0186 19       		.uleb128 0x19
 2896 0187 3C       		.uleb128 0x3c
 2897 0188 19       		.uleb128 0x19
 2898 0189 00       		.byte	0
 2899 018a 00       		.byte	0
 2900 018b 1B       		.uleb128 0x1b
 2901 018c 05       		.uleb128 0x5
 2902 018d 00       		.byte	0
 2903 018e 49       		.uleb128 0x49
 2904 018f 13       		.uleb128 0x13
 2905 0190 00       		.byte	0
 2906 0191 00       		.byte	0
 2907 0192 00       		.byte	0
 2908              		.section	.debug_loc,"",%progbits
 2909              	.Ldebug_loc0:
 2910              	.LLST0:
 2911 0000 06000000 		.4byte	.LVL4
 2912 0004 13000000 		.4byte	.LVL5-1
 2913 0008 0100     		.2byte	0x1
 2914 000a 50       		.byte	0x50
 2915 000b 00000000 		.4byte	0
 2916 000f 00000000 		.4byte	0
 2917              	.LLST1:
 2918 0013 00000000 		.4byte	.LVL6
 2919 0017 07000000 		.4byte	.LVL7-1
 2920 001b 0100     		.2byte	0x1
 2921 001d 50       		.byte	0x50
 2922 001e 07000000 		.4byte	.LVL7-1
 2923 0022 1C000000 		.4byte	.LVL9
 2924 0026 0100     		.2byte	0x1
 2925 0028 54       		.byte	0x54
 2926 0029 1C000000 		.4byte	.LVL9
 2927 002d 28000000 		.4byte	.LFE6
 2928 0031 0400     		.2byte	0x4
 2929 0033 F3       		.byte	0xf3
 2930 0034 01       		.uleb128 0x1
 2931 0035 50       		.byte	0x50
 2932 0036 9F       		.byte	0x9f
 2933 0037 00000000 		.4byte	0
 2934 003b 00000000 		.4byte	0
 2935              	.LLST2:
 2936 003f 08000000 		.4byte	.LVL7
 2937 0043 1B000000 		.4byte	.LVL8-1
 2938 0047 0100     		.2byte	0x1
 2939 0049 50       		.byte	0x50
 2940 004a 00000000 		.4byte	0
 2941 004e 00000000 		.4byte	0
 2942              	.LLST3:
 2943 0052 00000000 		.4byte	.LVL10
 2944 0056 07000000 		.4byte	.LVL11-1
 2945 005a 0100     		.2byte	0x1
 2946 005c 50       		.byte	0x50
 2947 005d 07000000 		.4byte	.LVL11-1
 2948 0061 1C000000 		.4byte	.LVL13
 2949 0065 0100     		.2byte	0x1
 2950 0067 54       		.byte	0x54
 2951 0068 1C000000 		.4byte	.LVL13
ARM GAS  C:\Users\Helon\AppData\Local\Temp\ccSjkW6b.s 			page 82


 2952 006c 28000000 		.4byte	.LFE7
 2953 0070 0400     		.2byte	0x4
 2954 0072 F3       		.byte	0xf3
 2955 0073 01       		.uleb128 0x1
 2956 0074 50       		.byte	0x50
 2957 0075 9F       		.byte	0x9f
 2958 0076 00000000 		.4byte	0
 2959 007a 00000000 		.4byte	0
 2960              	.LLST4:
 2961 007e 08000000 		.4byte	.LVL11
 2962 0082 1B000000 		.4byte	.LVL12-1
 2963 0086 0100     		.2byte	0x1
 2964 0088 50       		.byte	0x50
 2965 0089 00000000 		.4byte	0
 2966 008d 00000000 		.4byte	0
 2967              	.LLST5:
 2968 0091 00000000 		.4byte	.LVL14
 2969 0095 07000000 		.4byte	.LVL15-1
 2970 0099 0100     		.2byte	0x1
 2971 009b 50       		.byte	0x50
 2972 009c 07000000 		.4byte	.LVL15-1
 2973 00a0 1C000000 		.4byte	.LVL17
 2974 00a4 0100     		.2byte	0x1
 2975 00a6 54       		.byte	0x54
 2976 00a7 1C000000 		.4byte	.LVL17
 2977 00ab 28000000 		.4byte	.LFE8
 2978 00af 0400     		.2byte	0x4
 2979 00b1 F3       		.byte	0xf3
 2980 00b2 01       		.uleb128 0x1
 2981 00b3 50       		.byte	0x50
 2982 00b4 9F       		.byte	0x9f
 2983 00b5 00000000 		.4byte	0
 2984 00b9 00000000 		.4byte	0
 2985              	.LLST6:
 2986 00bd 08000000 		.4byte	.LVL15
 2987 00c1 1B000000 		.4byte	.LVL16-1
 2988 00c5 0100     		.2byte	0x1
 2989 00c7 50       		.byte	0x50
 2990 00c8 00000000 		.4byte	0
 2991 00cc 00000000 		.4byte	0
 2992              	.LLST7:
 2993 00d0 00000000 		.4byte	.LVL18
 2994 00d4 07000000 		.4byte	.LVL19-1
 2995 00d8 0100     		.2byte	0x1
 2996 00da 50       		.byte	0x50
 2997 00db 07000000 		.4byte	.LVL19-1
 2998 00df 22000000 		.4byte	.LVL21
 2999 00e3 0100     		.2byte	0x1
 3000 00e5 54       		.byte	0x54
 3001 00e6 22000000 		.4byte	.LVL21
 3002 00ea 2C000000 		.4byte	.LFE9
 3003 00ee 0400     		.2byte	0x4
 3004 00f0 F3       		.byte	0xf3
 3005 00f1 01       		.uleb128 0x1
 3006 00f2 50       		.byte	0x50
 3007 00f3 9F       		.byte	0x9f
 3008 00f4 00000000 		.4byte	0
ARM GAS  C:\Users\Helon\AppData\Local\Temp\ccSjkW6b.s 			page 83


 3009 00f8 00000000 		.4byte	0
 3010              	.LLST8:
 3011 00fc 08000000 		.4byte	.LVL19
 3012 0100 21000000 		.4byte	.LVL20-1
 3013 0104 0100     		.2byte	0x1
 3014 0106 50       		.byte	0x50
 3015 0107 00000000 		.4byte	0
 3016 010b 00000000 		.4byte	0
 3017              	.LLST9:
 3018 010f 00000000 		.4byte	.LVL22
 3019 0113 04000000 		.4byte	.LVL23
 3020 0117 0100     		.2byte	0x1
 3021 0119 50       		.byte	0x50
 3022 011a 04000000 		.4byte	.LVL23
 3023 011e 10000000 		.4byte	.LFE10
 3024 0122 0400     		.2byte	0x4
 3025 0124 F3       		.byte	0xf3
 3026 0125 01       		.uleb128 0x1
 3027 0126 50       		.byte	0x50
 3028 0127 9F       		.byte	0x9f
 3029 0128 00000000 		.4byte	0
 3030 012c 00000000 		.4byte	0
 3031              	.LLST10:
 3032 0130 00000000 		.4byte	.LVL24
 3033 0134 07000000 		.4byte	.LVL25-1
 3034 0138 0100     		.2byte	0x1
 3035 013a 50       		.byte	0x50
 3036 013b 07000000 		.4byte	.LVL25-1
 3037 013f 22000000 		.4byte	.LVL27
 3038 0143 0100     		.2byte	0x1
 3039 0145 54       		.byte	0x54
 3040 0146 22000000 		.4byte	.LVL27
 3041 014a 28000000 		.4byte	.LFE11
 3042 014e 0400     		.2byte	0x4
 3043 0150 F3       		.byte	0xf3
 3044 0151 01       		.uleb128 0x1
 3045 0152 50       		.byte	0x50
 3046 0153 9F       		.byte	0x9f
 3047 0154 00000000 		.4byte	0
 3048 0158 00000000 		.4byte	0
 3049              	.LLST11:
 3050 015c 08000000 		.4byte	.LVL25
 3051 0160 21000000 		.4byte	.LVL26-1
 3052 0164 0100     		.2byte	0x1
 3053 0166 50       		.byte	0x50
 3054 0167 00000000 		.4byte	0
 3055 016b 00000000 		.4byte	0
 3056              	.LLST12:
 3057 016f 00000000 		.4byte	.LVL28
 3058 0173 07000000 		.4byte	.LVL29-1
 3059 0177 0100     		.2byte	0x1
 3060 0179 50       		.byte	0x50
 3061 017a 07000000 		.4byte	.LVL29-1
 3062 017e 22000000 		.4byte	.LVL31
 3063 0182 0100     		.2byte	0x1
 3064 0184 54       		.byte	0x54
 3065 0185 22000000 		.4byte	.LVL31
ARM GAS  C:\Users\Helon\AppData\Local\Temp\ccSjkW6b.s 			page 84


 3066 0189 28000000 		.4byte	.LFE12
 3067 018d 0400     		.2byte	0x4
 3068 018f F3       		.byte	0xf3
 3069 0190 01       		.uleb128 0x1
 3070 0191 50       		.byte	0x50
 3071 0192 9F       		.byte	0x9f
 3072 0193 00000000 		.4byte	0
 3073 0197 00000000 		.4byte	0
 3074              	.LLST13:
 3075 019b 08000000 		.4byte	.LVL29
 3076 019f 21000000 		.4byte	.LVL30-1
 3077 01a3 0100     		.2byte	0x1
 3078 01a5 50       		.byte	0x50
 3079 01a6 00000000 		.4byte	0
 3080 01aa 00000000 		.4byte	0
 3081              	.LLST14:
 3082 01ae 00000000 		.4byte	.LVL32
 3083 01b2 07000000 		.4byte	.LVL33-1
 3084 01b6 0100     		.2byte	0x1
 3085 01b8 50       		.byte	0x50
 3086 01b9 07000000 		.4byte	.LVL33-1
 3087 01bd 10000000 		.4byte	.LVL34
 3088 01c1 0100     		.2byte	0x1
 3089 01c3 54       		.byte	0x54
 3090 01c4 10000000 		.4byte	.LVL34
 3091 01c8 2C000000 		.4byte	.LFE13
 3092 01cc 0400     		.2byte	0x4
 3093 01ce F3       		.byte	0xf3
 3094 01cf 01       		.uleb128 0x1
 3095 01d0 50       		.byte	0x50
 3096 01d1 9F       		.byte	0x9f
 3097 01d2 00000000 		.4byte	0
 3098 01d6 00000000 		.4byte	0
 3099              	.LLST15:
 3100 01da 08000000 		.4byte	.LVL33
 3101 01de 1F000000 		.4byte	.LVL35-1
 3102 01e2 0100     		.2byte	0x1
 3103 01e4 50       		.byte	0x50
 3104 01e5 00000000 		.4byte	0
 3105 01e9 00000000 		.4byte	0
 3106              	.LLST16:
 3107 01ed 00000000 		.4byte	.LVL36
 3108 01f1 07000000 		.4byte	.LVL37-1
 3109 01f5 0100     		.2byte	0x1
 3110 01f7 50       		.byte	0x50
 3111 01f8 07000000 		.4byte	.LVL37-1
 3112 01fc 1C000000 		.4byte	.LVL39
 3113 0200 0100     		.2byte	0x1
 3114 0202 54       		.byte	0x54
 3115 0203 1C000000 		.4byte	.LVL39
 3116 0207 28000000 		.4byte	.LFE14
 3117 020b 0400     		.2byte	0x4
 3118 020d F3       		.byte	0xf3
 3119 020e 01       		.uleb128 0x1
 3120 020f 50       		.byte	0x50
 3121 0210 9F       		.byte	0x9f
 3122 0211 00000000 		.4byte	0
ARM GAS  C:\Users\Helon\AppData\Local\Temp\ccSjkW6b.s 			page 85


 3123 0215 00000000 		.4byte	0
 3124              	.LLST17:
 3125 0219 08000000 		.4byte	.LVL37
 3126 021d 1B000000 		.4byte	.LVL38-1
 3127 0221 0100     		.2byte	0x1
 3128 0223 50       		.byte	0x50
 3129 0224 00000000 		.4byte	0
 3130 0228 00000000 		.4byte	0
 3131              	.LLST18:
 3132 022c 00000000 		.4byte	.LVL40
 3133 0230 04000000 		.4byte	.LVL41
 3134 0234 0100     		.2byte	0x1
 3135 0236 50       		.byte	0x50
 3136 0237 04000000 		.4byte	.LVL41
 3137 023b 0C000000 		.4byte	.LFE15
 3138 023f 0400     		.2byte	0x4
 3139 0241 F3       		.byte	0xf3
 3140 0242 01       		.uleb128 0x1
 3141 0243 50       		.byte	0x50
 3142 0244 9F       		.byte	0x9f
 3143 0245 00000000 		.4byte	0
 3144 0249 00000000 		.4byte	0
 3145              	.LLST19:
 3146 024d 00000000 		.4byte	.LVL42
 3147 0251 07000000 		.4byte	.LVL43-1
 3148 0255 0100     		.2byte	0x1
 3149 0257 50       		.byte	0x50
 3150 0258 07000000 		.4byte	.LVL43-1
 3151 025c 1C000000 		.4byte	.LVL45
 3152 0260 0100     		.2byte	0x1
 3153 0262 54       		.byte	0x54
 3154 0263 1C000000 		.4byte	.LVL45
 3155 0267 28000000 		.4byte	.LFE17
 3156 026b 0400     		.2byte	0x4
 3157 026d F3       		.byte	0xf3
 3158 026e 01       		.uleb128 0x1
 3159 026f 50       		.byte	0x50
 3160 0270 9F       		.byte	0x9f
 3161 0271 00000000 		.4byte	0
 3162 0275 00000000 		.4byte	0
 3163              	.LLST20:
 3164 0279 08000000 		.4byte	.LVL43
 3165 027d 1B000000 		.4byte	.LVL44-1
 3166 0281 0100     		.2byte	0x1
 3167 0283 50       		.byte	0x50
 3168 0284 00000000 		.4byte	0
 3169 0288 00000000 		.4byte	0
 3170              	.LLST21:
 3171 028c 00000000 		.4byte	.LVL46
 3172 0290 04000000 		.4byte	.LVL47
 3173 0294 0100     		.2byte	0x1
 3174 0296 50       		.byte	0x50
 3175 0297 04000000 		.4byte	.LVL47
 3176 029b 0C000000 		.4byte	.LFE18
 3177 029f 0400     		.2byte	0x4
 3178 02a1 F3       		.byte	0xf3
 3179 02a2 01       		.uleb128 0x1
ARM GAS  C:\Users\Helon\AppData\Local\Temp\ccSjkW6b.s 			page 86


 3180 02a3 50       		.byte	0x50
 3181 02a4 9F       		.byte	0x9f
 3182 02a5 00000000 		.4byte	0
 3183 02a9 00000000 		.4byte	0
 3184              	.LLST22:
 3185 02ad 00000000 		.4byte	.LVL48
 3186 02b1 07000000 		.4byte	.LVL49-1
 3187 02b5 0100     		.2byte	0x1
 3188 02b7 50       		.byte	0x50
 3189 02b8 07000000 		.4byte	.LVL49-1
 3190 02bc 1E000000 		.4byte	.LVL51
 3191 02c0 0100     		.2byte	0x1
 3192 02c2 54       		.byte	0x54
 3193 02c3 1E000000 		.4byte	.LVL51
 3194 02c7 24000000 		.4byte	.LFE20
 3195 02cb 0400     		.2byte	0x4
 3196 02cd F3       		.byte	0xf3
 3197 02ce 01       		.uleb128 0x1
 3198 02cf 50       		.byte	0x50
 3199 02d0 9F       		.byte	0x9f
 3200 02d1 00000000 		.4byte	0
 3201 02d5 00000000 		.4byte	0
 3202              	.LLST23:
 3203 02d9 08000000 		.4byte	.LVL49
 3204 02dd 1D000000 		.4byte	.LVL50-1
 3205 02e1 0100     		.2byte	0x1
 3206 02e3 50       		.byte	0x50
 3207 02e4 00000000 		.4byte	0
 3208 02e8 00000000 		.4byte	0
 3209              	.LLST24:
 3210 02ec 00000000 		.4byte	.LVL52
 3211 02f0 04000000 		.4byte	.LVL53
 3212 02f4 0100     		.2byte	0x1
 3213 02f6 50       		.byte	0x50
 3214 02f7 04000000 		.4byte	.LVL53
 3215 02fb 0C000000 		.4byte	.LFE21
 3216 02ff 0400     		.2byte	0x4
 3217 0301 F3       		.byte	0xf3
 3218 0302 01       		.uleb128 0x1
 3219 0303 50       		.byte	0x50
 3220 0304 9F       		.byte	0x9f
 3221 0305 00000000 		.4byte	0
 3222 0309 00000000 		.4byte	0
 3223              	.LLST25:
 3224 030d 00000000 		.4byte	.LVL54
 3225 0311 07000000 		.4byte	.LVL55-1
 3226 0315 0100     		.2byte	0x1
 3227 0317 50       		.byte	0x50
 3228 0318 07000000 		.4byte	.LVL55-1
 3229 031c 22000000 		.4byte	.LVL57
 3230 0320 0100     		.2byte	0x1
 3231 0322 54       		.byte	0x54
 3232 0323 22000000 		.4byte	.LVL57
 3233 0327 28000000 		.4byte	.LFE23
 3234 032b 0400     		.2byte	0x4
 3235 032d F3       		.byte	0xf3
 3236 032e 01       		.uleb128 0x1
ARM GAS  C:\Users\Helon\AppData\Local\Temp\ccSjkW6b.s 			page 87


 3237 032f 50       		.byte	0x50
 3238 0330 9F       		.byte	0x9f
 3239 0331 00000000 		.4byte	0
 3240 0335 00000000 		.4byte	0
 3241              	.LLST26:
 3242 0339 08000000 		.4byte	.LVL55
 3243 033d 21000000 		.4byte	.LVL56-1
 3244 0341 0100     		.2byte	0x1
 3245 0343 50       		.byte	0x50
 3246 0344 00000000 		.4byte	0
 3247 0348 00000000 		.4byte	0
 3248              	.LLST27:
 3249 034c 00000000 		.4byte	.LVL58
 3250 0350 04000000 		.4byte	.LVL59
 3251 0354 0100     		.2byte	0x1
 3252 0356 50       		.byte	0x50
 3253 0357 04000000 		.4byte	.LVL59
 3254 035b 0C000000 		.4byte	.LFE24
 3255 035f 0400     		.2byte	0x4
 3256 0361 F3       		.byte	0xf3
 3257 0362 01       		.uleb128 0x1
 3258 0363 50       		.byte	0x50
 3259 0364 9F       		.byte	0x9f
 3260 0365 00000000 		.4byte	0
 3261 0369 00000000 		.4byte	0
 3262              	.LLST28:
 3263 036d 00000000 		.4byte	.LVL60
 3264 0371 04000000 		.4byte	.LVL61
 3265 0375 0100     		.2byte	0x1
 3266 0377 50       		.byte	0x50
 3267 0378 04000000 		.4byte	.LVL61
 3268 037c 0C000000 		.4byte	.LFE26
 3269 0380 0400     		.2byte	0x4
 3270 0382 F3       		.byte	0xf3
 3271 0383 01       		.uleb128 0x1
 3272 0384 50       		.byte	0x50
 3273 0385 9F       		.byte	0x9f
 3274 0386 00000000 		.4byte	0
 3275 038a 00000000 		.4byte	0
 3276              	.LLST29:
 3277 038e 00000000 		.4byte	.LVL62
 3278 0392 07000000 		.4byte	.LVL63-1
 3279 0396 0100     		.2byte	0x1
 3280 0398 50       		.byte	0x50
 3281 0399 07000000 		.4byte	.LVL63-1
 3282 039d 1C000000 		.4byte	.LVL65
 3283 03a1 0100     		.2byte	0x1
 3284 03a3 54       		.byte	0x54
 3285 03a4 1C000000 		.4byte	.LVL65
 3286 03a8 24000000 		.4byte	.LFE30
 3287 03ac 0400     		.2byte	0x4
 3288 03ae F3       		.byte	0xf3
 3289 03af 01       		.uleb128 0x1
 3290 03b0 50       		.byte	0x50
 3291 03b1 9F       		.byte	0x9f
 3292 03b2 00000000 		.4byte	0
 3293 03b6 00000000 		.4byte	0
ARM GAS  C:\Users\Helon\AppData\Local\Temp\ccSjkW6b.s 			page 88


 3294              	.LLST30:
 3295 03ba 08000000 		.4byte	.LVL63
 3296 03be 1B000000 		.4byte	.LVL64-1
 3297 03c2 0100     		.2byte	0x1
 3298 03c4 50       		.byte	0x50
 3299 03c5 00000000 		.4byte	0
 3300 03c9 00000000 		.4byte	0
 3301              	.LLST31:
 3302 03cd 00000000 		.4byte	.LVL66
 3303 03d1 07000000 		.4byte	.LVL67-1
 3304 03d5 0100     		.2byte	0x1
 3305 03d7 50       		.byte	0x50
 3306 03d8 07000000 		.4byte	.LVL67-1
 3307 03dc 1E000000 		.4byte	.LVL69
 3308 03e0 0100     		.2byte	0x1
 3309 03e2 54       		.byte	0x54
 3310 03e3 1E000000 		.4byte	.LVL69
 3311 03e7 24000000 		.4byte	.LFE31
 3312 03eb 0400     		.2byte	0x4
 3313 03ed F3       		.byte	0xf3
 3314 03ee 01       		.uleb128 0x1
 3315 03ef 50       		.byte	0x50
 3316 03f0 9F       		.byte	0x9f
 3317 03f1 00000000 		.4byte	0
 3318 03f5 00000000 		.4byte	0
 3319              	.LLST32:
 3320 03f9 08000000 		.4byte	.LVL67
 3321 03fd 1D000000 		.4byte	.LVL68-1
 3322 0401 0100     		.2byte	0x1
 3323 0403 50       		.byte	0x50
 3324 0404 00000000 		.4byte	0
 3325 0408 00000000 		.4byte	0
 3326              	.LLST33:
 3327 040c 00000000 		.4byte	.LVL70
 3328 0410 07000000 		.4byte	.LVL71-1
 3329 0414 0100     		.2byte	0x1
 3330 0416 50       		.byte	0x50
 3331 0417 07000000 		.4byte	.LVL71-1
 3332 041b 1E000000 		.4byte	.LVL73
 3333 041f 0100     		.2byte	0x1
 3334 0421 54       		.byte	0x54
 3335 0422 1E000000 		.4byte	.LVL73
 3336 0426 28000000 		.4byte	.LFE32
 3337 042a 0400     		.2byte	0x4
 3338 042c F3       		.byte	0xf3
 3339 042d 01       		.uleb128 0x1
 3340 042e 50       		.byte	0x50
 3341 042f 9F       		.byte	0x9f
 3342 0430 00000000 		.4byte	0
 3343 0434 00000000 		.4byte	0
 3344              	.LLST34:
 3345 0438 08000000 		.4byte	.LVL71
 3346 043c 1D000000 		.4byte	.LVL72-1
 3347 0440 0100     		.2byte	0x1
 3348 0442 50       		.byte	0x50
 3349 0443 00000000 		.4byte	0
 3350 0447 00000000 		.4byte	0
ARM GAS  C:\Users\Helon\AppData\Local\Temp\ccSjkW6b.s 			page 89


 3351              	.LLST35:
 3352 044b 00000000 		.4byte	.LVL74
 3353 044f 07000000 		.4byte	.LVL75-1
 3354 0453 0100     		.2byte	0x1
 3355 0455 50       		.byte	0x50
 3356 0456 07000000 		.4byte	.LVL75-1
 3357 045a 1E000000 		.4byte	.LVL77
 3358 045e 0100     		.2byte	0x1
 3359 0460 54       		.byte	0x54
 3360 0461 1E000000 		.4byte	.LVL77
 3361 0465 24000000 		.4byte	.LFE33
 3362 0469 0400     		.2byte	0x4
 3363 046b F3       		.byte	0xf3
 3364 046c 01       		.uleb128 0x1
 3365 046d 50       		.byte	0x50
 3366 046e 9F       		.byte	0x9f
 3367 046f 00000000 		.4byte	0
 3368 0473 00000000 		.4byte	0
 3369              	.LLST36:
 3370 0477 08000000 		.4byte	.LVL75
 3371 047b 1D000000 		.4byte	.LVL76-1
 3372 047f 0100     		.2byte	0x1
 3373 0481 50       		.byte	0x50
 3374 0482 00000000 		.4byte	0
 3375 0486 00000000 		.4byte	0
 3376              	.LLST37:
 3377 048a 00000000 		.4byte	.LVL78
 3378 048e 07000000 		.4byte	.LVL79-1
 3379 0492 0100     		.2byte	0x1
 3380 0494 50       		.byte	0x50
 3381 0495 07000000 		.4byte	.LVL79-1
 3382 0499 1E000000 		.4byte	.LVL81
 3383 049d 0100     		.2byte	0x1
 3384 049f 54       		.byte	0x54
 3385 04a0 1E000000 		.4byte	.LVL81
 3386 04a4 24000000 		.4byte	.LFE34
 3387 04a8 0400     		.2byte	0x4
 3388 04aa F3       		.byte	0xf3
 3389 04ab 01       		.uleb128 0x1
 3390 04ac 50       		.byte	0x50
 3391 04ad 9F       		.byte	0x9f
 3392 04ae 00000000 		.4byte	0
 3393 04b2 00000000 		.4byte	0
 3394              	.LLST38:
 3395 04b6 08000000 		.4byte	.LVL79
 3396 04ba 1D000000 		.4byte	.LVL80-1
 3397 04be 0100     		.2byte	0x1
 3398 04c0 50       		.byte	0x50
 3399 04c1 00000000 		.4byte	0
 3400 04c5 00000000 		.4byte	0
 3401              	.LLST39:
 3402 04c9 00000000 		.4byte	.LVL82
 3403 04cd 0B000000 		.4byte	.LVL83-1
 3404 04d1 0100     		.2byte	0x1
 3405 04d3 50       		.byte	0x50
 3406 04d4 0B000000 		.4byte	.LVL83-1
 3407 04d8 1C000000 		.4byte	.LFE35
ARM GAS  C:\Users\Helon\AppData\Local\Temp\ccSjkW6b.s 			page 90


 3408 04dc 0400     		.2byte	0x4
 3409 04de F3       		.byte	0xf3
 3410 04df 01       		.uleb128 0x1
 3411 04e0 50       		.byte	0x50
 3412 04e1 9F       		.byte	0x9f
 3413 04e2 00000000 		.4byte	0
 3414 04e6 00000000 		.4byte	0
 3415              	.LLST40:
 3416 04ea 00000000 		.4byte	.LVL82
 3417 04ee 0B000000 		.4byte	.LVL83-1
 3418 04f2 0100     		.2byte	0x1
 3419 04f4 51       		.byte	0x51
 3420 04f5 0B000000 		.4byte	.LVL83-1
 3421 04f9 14000000 		.4byte	.LVL85
 3422 04fd 0100     		.2byte	0x1
 3423 04ff 55       		.byte	0x55
 3424 0500 14000000 		.4byte	.LVL85
 3425 0504 1C000000 		.4byte	.LFE35
 3426 0508 0400     		.2byte	0x4
 3427 050a F3       		.byte	0xf3
 3428 050b 01       		.uleb128 0x1
 3429 050c 51       		.byte	0x51
 3430 050d 9F       		.byte	0x9f
 3431 050e 00000000 		.4byte	0
 3432 0512 00000000 		.4byte	0
 3433              	.LLST41:
 3434 0516 0C000000 		.4byte	.LVL83
 3435 051a 13000000 		.4byte	.LVL84-1
 3436 051e 0100     		.2byte	0x1
 3437 0520 50       		.byte	0x50
 3438 0521 00000000 		.4byte	0
 3439 0525 00000000 		.4byte	0
 3440              	.LLST42:
 3441 0529 08000000 		.4byte	.LVL86
 3442 052d 13000000 		.4byte	.LVL87-1
 3443 0531 0100     		.2byte	0x1
 3444 0533 50       		.byte	0x50
 3445 0534 00000000 		.4byte	0
 3446 0538 00000000 		.4byte	0
 3447              		.section	.debug_aranges,"",%progbits
 3448 0000 54010000 		.4byte	0x154
 3449 0004 0200     		.2byte	0x2
 3450 0006 00000000 		.4byte	.Ldebug_info0
 3451 000a 04       		.byte	0x4
 3452 000b 00       		.byte	0
 3453 000c 0000     		.2byte	0
 3454 000e 0000     		.2byte	0
 3455 0010 00000000 		.4byte	.LFB2
 3456 0014 3C000000 		.4byte	.LFE2-.LFB2
 3457 0018 00000000 		.4byte	.LFB5
 3458 001c 1C000000 		.4byte	.LFE5-.LFB5
 3459 0020 00000000 		.4byte	.LFB6
 3460 0024 28000000 		.4byte	.LFE6-.LFB6
 3461 0028 00000000 		.4byte	.LFB7
 3462 002c 28000000 		.4byte	.LFE7-.LFB7
 3463 0030 00000000 		.4byte	.LFB8
 3464 0034 28000000 		.4byte	.LFE8-.LFB8
ARM GAS  C:\Users\Helon\AppData\Local\Temp\ccSjkW6b.s 			page 91


 3465 0038 00000000 		.4byte	.LFB9
 3466 003c 2C000000 		.4byte	.LFE9-.LFB9
 3467 0040 00000000 		.4byte	.LFB10
 3468 0044 10000000 		.4byte	.LFE10-.LFB10
 3469 0048 00000000 		.4byte	.LFB11
 3470 004c 28000000 		.4byte	.LFE11-.LFB11
 3471 0050 00000000 		.4byte	.LFB12
 3472 0054 28000000 		.4byte	.LFE12-.LFB12
 3473 0058 00000000 		.4byte	.LFB13
 3474 005c 2C000000 		.4byte	.LFE13-.LFB13
 3475 0060 00000000 		.4byte	.LFB14
 3476 0064 28000000 		.4byte	.LFE14-.LFB14
 3477 0068 00000000 		.4byte	.LFB15
 3478 006c 0C000000 		.4byte	.LFE15-.LFB15
 3479 0070 00000000 		.4byte	.LFB16
 3480 0074 0C000000 		.4byte	.LFE16-.LFB16
 3481 0078 00000000 		.4byte	.LFB17
 3482 007c 28000000 		.4byte	.LFE17-.LFB17
 3483 0080 00000000 		.4byte	.LFB18
 3484 0084 0C000000 		.4byte	.LFE18-.LFB18
 3485 0088 00000000 		.4byte	.LFB19
 3486 008c 0C000000 		.4byte	.LFE19-.LFB19
 3487 0090 00000000 		.4byte	.LFB20
 3488 0094 24000000 		.4byte	.LFE20-.LFB20
 3489 0098 00000000 		.4byte	.LFB21
 3490 009c 0C000000 		.4byte	.LFE21-.LFB21
 3491 00a0 00000000 		.4byte	.LFB22
 3492 00a4 0C000000 		.4byte	.LFE22-.LFB22
 3493 00a8 00000000 		.4byte	.LFB23
 3494 00ac 28000000 		.4byte	.LFE23-.LFB23
 3495 00b0 00000000 		.4byte	.LFB24
 3496 00b4 0C000000 		.4byte	.LFE24-.LFB24
 3497 00b8 00000000 		.4byte	.LFB25
 3498 00bc 0C000000 		.4byte	.LFE25-.LFB25
 3499 00c0 00000000 		.4byte	.LFB26
 3500 00c4 0C000000 		.4byte	.LFE26-.LFB26
 3501 00c8 00000000 		.4byte	.LFB27
 3502 00cc 0C000000 		.4byte	.LFE27-.LFB27
 3503 00d0 00000000 		.4byte	.LFB28
 3504 00d4 0C000000 		.4byte	.LFE28-.LFB28
 3505 00d8 00000000 		.4byte	.LFB29
 3506 00dc 0C000000 		.4byte	.LFE29-.LFB29
 3507 00e0 00000000 		.4byte	.LFB30
 3508 00e4 24000000 		.4byte	.LFE30-.LFB30
 3509 00e8 00000000 		.4byte	.LFB31
 3510 00ec 24000000 		.4byte	.LFE31-.LFB31
 3511 00f0 00000000 		.4byte	.LFB32
 3512 00f4 28000000 		.4byte	.LFE32-.LFB32
 3513 00f8 00000000 		.4byte	.LFB33
 3514 00fc 24000000 		.4byte	.LFE33-.LFB33
 3515 0100 00000000 		.4byte	.LFB34
 3516 0104 24000000 		.4byte	.LFE34-.LFB34
 3517 0108 00000000 		.4byte	.LFB35
 3518 010c 1C000000 		.4byte	.LFE35-.LFB35
 3519 0110 00000000 		.4byte	.LFB3
 3520 0114 24000000 		.4byte	.LFE3-.LFB3
 3521 0118 00000000 		.4byte	.LFB4
ARM GAS  C:\Users\Helon\AppData\Local\Temp\ccSjkW6b.s 			page 92


 3522 011c 1C000000 		.4byte	.LFE4-.LFB4
 3523 0120 00000000 		.4byte	.LFB36
 3524 0124 14000000 		.4byte	.LFE36-.LFB36
 3525 0128 00000000 		.4byte	.LFB37
 3526 012c 0C000000 		.4byte	.LFE37-.LFB37
 3527 0130 00000000 		.4byte	.LFB38
 3528 0134 0C000000 		.4byte	.LFE38-.LFB38
 3529 0138 00000000 		.4byte	.LFB39
 3530 013c 0C000000 		.4byte	.LFE39-.LFB39
 3531 0140 00000000 		.4byte	.LFB40
 3532 0144 0C000000 		.4byte	.LFE40-.LFB40
 3533 0148 00000000 		.4byte	.LFB41
 3534 014c 0C000000 		.4byte	.LFE41-.LFB41
 3535 0150 00000000 		.4byte	0
 3536 0154 00000000 		.4byte	0
 3537              		.section	.debug_ranges,"",%progbits
 3538              	.Ldebug_ranges0:
 3539 0000 00000000 		.4byte	.LFB2
 3540 0004 3C000000 		.4byte	.LFE2
 3541 0008 00000000 		.4byte	.LFB5
 3542 000c 1C000000 		.4byte	.LFE5
 3543 0010 00000000 		.4byte	.LFB6
 3544 0014 28000000 		.4byte	.LFE6
 3545 0018 00000000 		.4byte	.LFB7
 3546 001c 28000000 		.4byte	.LFE7
 3547 0020 00000000 		.4byte	.LFB8
 3548 0024 28000000 		.4byte	.LFE8
 3549 0028 00000000 		.4byte	.LFB9
 3550 002c 2C000000 		.4byte	.LFE9
 3551 0030 00000000 		.4byte	.LFB10
 3552 0034 10000000 		.4byte	.LFE10
 3553 0038 00000000 		.4byte	.LFB11
 3554 003c 28000000 		.4byte	.LFE11
 3555 0040 00000000 		.4byte	.LFB12
 3556 0044 28000000 		.4byte	.LFE12
 3557 0048 00000000 		.4byte	.LFB13
 3558 004c 2C000000 		.4byte	.LFE13
 3559 0050 00000000 		.4byte	.LFB14
 3560 0054 28000000 		.4byte	.LFE14
 3561 0058 00000000 		.4byte	.LFB15
 3562 005c 0C000000 		.4byte	.LFE15
 3563 0060 00000000 		.4byte	.LFB16
 3564 0064 0C000000 		.4byte	.LFE16
 3565 0068 00000000 		.4byte	.LFB17
 3566 006c 28000000 		.4byte	.LFE17
 3567 0070 00000000 		.4byte	.LFB18
 3568 0074 0C000000 		.4byte	.LFE18
 3569 0078 00000000 		.4byte	.LFB19
 3570 007c 0C000000 		.4byte	.LFE19
 3571 0080 00000000 		.4byte	.LFB20
 3572 0084 24000000 		.4byte	.LFE20
 3573 0088 00000000 		.4byte	.LFB21
 3574 008c 0C000000 		.4byte	.LFE21
 3575 0090 00000000 		.4byte	.LFB22
 3576 0094 0C000000 		.4byte	.LFE22
 3577 0098 00000000 		.4byte	.LFB23
 3578 009c 28000000 		.4byte	.LFE23
ARM GAS  C:\Users\Helon\AppData\Local\Temp\ccSjkW6b.s 			page 93


 3579 00a0 00000000 		.4byte	.LFB24
 3580 00a4 0C000000 		.4byte	.LFE24
 3581 00a8 00000000 		.4byte	.LFB25
 3582 00ac 0C000000 		.4byte	.LFE25
 3583 00b0 00000000 		.4byte	.LFB26
 3584 00b4 0C000000 		.4byte	.LFE26
 3585 00b8 00000000 		.4byte	.LFB27
 3586 00bc 0C000000 		.4byte	.LFE27
 3587 00c0 00000000 		.4byte	.LFB28
 3588 00c4 0C000000 		.4byte	.LFE28
 3589 00c8 00000000 		.4byte	.LFB29
 3590 00cc 0C000000 		.4byte	.LFE29
 3591 00d0 00000000 		.4byte	.LFB30
 3592 00d4 24000000 		.4byte	.LFE30
 3593 00d8 00000000 		.4byte	.LFB31
 3594 00dc 24000000 		.4byte	.LFE31
 3595 00e0 00000000 		.4byte	.LFB32
 3596 00e4 28000000 		.4byte	.LFE32
 3597 00e8 00000000 		.4byte	.LFB33
 3598 00ec 24000000 		.4byte	.LFE33
 3599 00f0 00000000 		.4byte	.LFB34
 3600 00f4 24000000 		.4byte	.LFE34
 3601 00f8 00000000 		.4byte	.LFB35
 3602 00fc 1C000000 		.4byte	.LFE35
 3603 0100 00000000 		.4byte	.LFB3
 3604 0104 24000000 		.4byte	.LFE3
 3605 0108 00000000 		.4byte	.LFB4
 3606 010c 1C000000 		.4byte	.LFE4
 3607 0110 00000000 		.4byte	.LFB36
 3608 0114 14000000 		.4byte	.LFE36
 3609 0118 00000000 		.4byte	.LFB37
 3610 011c 0C000000 		.4byte	.LFE37
 3611 0120 00000000 		.4byte	.LFB38
 3612 0124 0C000000 		.4byte	.LFE38
 3613 0128 00000000 		.4byte	.LFB39
 3614 012c 0C000000 		.4byte	.LFE39
 3615 0130 00000000 		.4byte	.LFB40
 3616 0134 0C000000 		.4byte	.LFE40
 3617 0138 00000000 		.4byte	.LFB41
 3618 013c 0C000000 		.4byte	.LFE41
 3619 0140 00000000 		.4byte	0
 3620 0144 00000000 		.4byte	0
 3621              		.section	.debug_line,"",%progbits
 3622              	.Ldebug_line0:
 3623 0000 E7030000 		.section	.debug_str,"MS",%progbits,1
 3623      02004F00 
 3623      00000201 
 3623      FB0E0D00 
 3623      01010101 
 3624              	.LASF39:
 3625 0000 54696D65 		.ascii	"Timer_SetPWMStopOnKill\000"
 3625      725F5365 
 3625      7450574D 
 3625      53746F70 
 3625      4F6E4B69 
 3626              	.LASF23:
 3627 0017 636F756E 		.ascii	"count\000"
ARM GAS  C:\Users\Helon\AppData\Local\Temp\ccSjkW6b.s 			page 94


 3627      7400
 3628              	.LASF76:
 3629 001d 474E5520 		.ascii	"GNU C 4.9.3 20150303 (release) [ARM/embedded-4_9-br"
 3629      4320342E 
 3629      392E3320 
 3629      32303135 
 3629      30333033 
 3630 0050 616E6368 		.ascii	"anch revision 221220] -mcpu=cortex-m0 -mthumb -g -O"
 3630      20726576 
 3630      6973696F 
 3630      6E203232 
 3630      31323230 
 3631 0083 73202D66 		.ascii	"s -ffunction-sections -ffat-lto-objects\000"
 3631      66756E63 
 3631      74696F6E 
 3631      2D736563 
 3631      74696F6E 
 3632              	.LASF73:
 3633 00ab 54696D65 		.ascii	"Timer_GetInterruptSource\000"
 3633      725F4765 
 3633      74496E74 
 3633      65727275 
 3633      7074536F 
 3634              	.LASF81:
 3635 00c4 43794578 		.ascii	"CyExitCriticalSection\000"
 3635      69744372 
 3635      69746963 
 3635      616C5365 
 3635      6374696F 
 3636              	.LASF17:
 3637 00da 54696D65 		.ascii	"Timer_WritePeriod\000"
 3637      725F5772 
 3637      69746550 
 3637      6572696F 
 3637      6400
 3638              	.LASF75:
 3639 00ec 54696D65 		.ascii	"Timer_SetInterrupt\000"
 3639      725F5365 
 3639      74496E74 
 3639      65727275 
 3639      707400
 3640              	.LASF19:
 3641 00ff 70657269 		.ascii	"period\000"
 3641      6F6400
 3642              	.LASF26:
 3643 0106 54696D65 		.ascii	"Timer_SetMode\000"
 3643      725F5365 
 3643      744D6F64 
 3643      6500
 3644              	.LASF79:
 3645 0114 54696D65 		.ascii	"Timer_initVar\000"
 3645      725F696E 
 3645      69745661 
 3645      7200
 3646              	.LASF7:
 3647 0122 6C6F6E67 		.ascii	"long long unsigned int\000"
 3647      206C6F6E 
ARM GAS  C:\Users\Helon\AppData\Local\Temp\ccSjkW6b.s 			page 95


 3647      6720756E 
 3647      7369676E 
 3647      65642069 
 3648              	.LASF41:
 3649 0139 54696D65 		.ascii	"Timer_SetPWMDeadTime\000"
 3649      725F5365 
 3649      7450574D 
 3649      44656164 
 3649      54696D65 
 3650              	.LASF37:
 3651 014e 54696D65 		.ascii	"Timer_SetPWMSyncKill\000"
 3651      725F5365 
 3651      7450574D 
 3651      53796E63 
 3651      4B696C6C 
 3652              	.LASF30:
 3653 0163 71644D6F 		.ascii	"qdMode\000"
 3653      646500
 3654              	.LASF6:
 3655 016a 6C6F6E67 		.ascii	"long long int\000"
 3655      206C6F6E 
 3655      6720696E 
 3655      7400
 3656              	.LASF0:
 3657 0178 7369676E 		.ascii	"signed char\000"
 3657      65642063 
 3657      68617200 
 3658              	.LASF78:
 3659 0184 473A5C50 		.ascii	"G:\\Project\\LiYangLiu---BLE Module\\Code\\Troughpu"
 3659      726F6A65 
 3659      63745C4C 
 3659      6959616E 
 3659      674C6975 
 3660 01b3 725F4365 		.ascii	"r_Central_Peripheral\\Troughput_Central_Peripheral."
 3660      6E747261 
 3660      6C5F5065 
 3660      72697068 
 3660      6572616C 
 3661 01e5 63796473 		.ascii	"cydsn\000"
 3661      6E00
 3662              	.LASF28:
 3663 01eb 54696D65 		.ascii	"Timer_SetQDMode\000"
 3663      725F5365 
 3663      7451444D 
 3663      6F646500 
 3664              	.LASF66:
 3665 01fb 54696D65 		.ascii	"Timer_SetCountMode\000"
 3665      725F5365 
 3665      74436F75 
 3665      6E744D6F 
 3665      646500
 3666              	.LASF4:
 3667 020e 6C6F6E67 		.ascii	"long int\000"
 3667      20696E74 
 3667      00
 3668              	.LASF59:
 3669 0217 54696D65 		.ascii	"Timer_ReadCapture\000"
ARM GAS  C:\Users\Helon\AppData\Local\Temp\ccSjkW6b.s 			page 96


 3669      725F5265 
 3669      61644361 
 3669      70747572 
 3669      6500
 3670              	.LASF67:
 3671 0229 54696D65 		.ascii	"Timer_TriggerCommand\000"
 3671      725F5472 
 3671      69676765 
 3671      72436F6D 
 3671      6D616E64 
 3672              	.LASF9:
 3673 023e 75696E74 		.ascii	"uint8\000"
 3673      3800
 3674              	.LASF12:
 3675 0244 646F7562 		.ascii	"double\000"
 3675      6C6500
 3676              	.LASF16:
 3677 024b 54696D65 		.ascii	"Timer_SetInterruptMode\000"
 3677      725F5365 
 3677      74496E74 
 3677      65727275 
 3677      70744D6F 
 3678              	.LASF10:
 3679 0262 75696E74 		.ascii	"uint32\000"
 3679      333200
 3680              	.LASF20:
 3681 0269 54696D65 		.ascii	"Timer_WriteCompare\000"
 3681      725F5772 
 3681      69746543 
 3681      6F6D7061 
 3681      726500
 3682              	.LASF62:
 3683 027c 74726967 		.ascii	"triggerMode\000"
 3683      6765724D 
 3683      6F646500 
 3684              	.LASF44:
 3685 0288 6D61736B 		.ascii	"mask\000"
 3685      00
 3686              	.LASF55:
 3687 028d 54696D65 		.ascii	"Timer_ReadCompare\000"
 3687      725F5265 
 3687      6164436F 
 3687      6D706172 
 3687      6500
 3688              	.LASF42:
 3689 029f 64656164 		.ascii	"deadTime\000"
 3689      54696D65 
 3689      00
 3690              	.LASF56:
 3691 02a8 54696D65 		.ascii	"Timer_WriteCompareBuf\000"
 3691      725F5772 
 3691      69746543 
 3691      6F6D7061 
 3691      72654275 
 3692              	.LASF77:
 3693 02be 2E5C4765 		.ascii	".\\Generated_Source\\PSoC4\\Timer.c\000"
 3693      6E657261 
ARM GAS  C:\Users\Helon\AppData\Local\Temp\ccSjkW6b.s 			page 97


 3693      7465645F 
 3693      536F7572 
 3693      63655C50 
 3694              	.LASF8:
 3695 02df 756E7369 		.ascii	"unsigned int\000"
 3695      676E6564 
 3695      20696E74 
 3695      00
 3696              	.LASF70:
 3697 02ec 54696D65 		.ascii	"Timer_Start\000"
 3697      725F5374 
 3697      61727400 
 3698              	.LASF68:
 3699 02f8 636F6D6D 		.ascii	"command\000"
 3699      616E6400 
 3700              	.LASF5:
 3701 0300 6C6F6E67 		.ascii	"long unsigned int\000"
 3701      20756E73 
 3701      69676E65 
 3701      6420696E 
 3701      7400
 3702              	.LASF36:
 3703 0312 6D6F6465 		.ascii	"modeMask\000"
 3703      4D61736B 
 3703      00
 3704              	.LASF69:
 3705 031b 54696D65 		.ascii	"Timer_Enable\000"
 3705      725F456E 
 3705      61626C65 
 3705      00
 3706              	.LASF80:
 3707 0328 4379456E 		.ascii	"CyEnterCriticalSection\000"
 3707      74657243 
 3707      72697469 
 3707      63616C53 
 3707      65637469 
 3708              	.LASF3:
 3709 033f 73686F72 		.ascii	"short unsigned int\000"
 3709      7420756E 
 3709      7369676E 
 3709      65642069 
 3709      6E7400
 3710              	.LASF22:
 3711 0352 54696D65 		.ascii	"Timer_WriteCounter\000"
 3711      725F5772 
 3711      69746543 
 3711      6F756E74 
 3711      657200
 3712              	.LASF47:
 3713 0365 54696D65 		.ascii	"Timer_ReadCounter\000"
 3713      725F5265 
 3713      6164436F 
 3713      756E7465 
 3713      7200
 3714              	.LASF25:
 3715 0377 54696D65 		.ascii	"Timer_Stop\000"
 3715      725F5374 
ARM GAS  C:\Users\Helon\AppData\Local\Temp\ccSjkW6b.s 			page 98


 3715      6F7000
 3716              	.LASF34:
 3717 0382 6F6E6553 		.ascii	"oneShotEnable\000"
 3717      686F7445 
 3717      6E61626C 
 3717      6500
 3718              	.LASF72:
 3719 0390 54696D65 		.ascii	"Timer_GetInterruptSourceMasked\000"
 3719      725F4765 
 3719      74496E74 
 3719      65727275 
 3719      7074536F 
 3720              	.LASF14:
 3721 03af 72656733 		.ascii	"reg32\000"
 3721      3200
 3722              	.LASF53:
 3723 03b5 54696D65 		.ascii	"Timer_ReadPeriodBuf\000"
 3723      725F5265 
 3723      61645065 
 3723      72696F64 
 3723      42756600 
 3724              	.LASF49:
 3725 03c9 54696D65 		.ascii	"Timer_SetCompareSwap\000"
 3725      725F5365 
 3725      74436F6D 
 3725      70617265 
 3725      53776170 
 3726              	.LASF15:
 3727 03de 73697A65 		.ascii	"sizetype\000"
 3727      74797065 
 3727      00
 3728              	.LASF51:
 3729 03e7 54696D65 		.ascii	"Timer_WritePeriodBuf\000"
 3729      725F5772 
 3729      69746550 
 3729      6572696F 
 3729      64427566 
 3730              	.LASF38:
 3731 03fc 73796E63 		.ascii	"syncKillEnable\000"
 3731      4B696C6C 
 3731      456E6162 
 3731      6C6500
 3732              	.LASF43:
 3733 040b 54696D65 		.ascii	"Timer_SetPWMInvert\000"
 3733      725F5365 
 3733      7450574D 
 3733      496E7665 
 3733      727400
 3734              	.LASF21:
 3735 041e 636F6D70 		.ascii	"compare\000"
 3735      61726500 
 3736              	.LASF64:
 3737 0426 54696D65 		.ascii	"Timer_SetStartMode\000"
 3737      725F5365 
 3737      74537461 
 3737      72744D6F 
 3737      646500
ARM GAS  C:\Users\Helon\AppData\Local\Temp\ccSjkW6b.s 			page 99


 3738              	.LASF11:
 3739 0439 666C6F61 		.ascii	"float\000"
 3739      7400
 3740              	.LASF32:
 3741 043f 70726573 		.ascii	"prescaler\000"
 3741      63616C65 
 3741      7200
 3742              	.LASF65:
 3743 0449 54696D65 		.ascii	"Timer_SetStopMode\000"
 3743      725F5365 
 3743      7453746F 
 3743      704D6F64 
 3743      6500
 3744              	.LASF54:
 3745 045b 54696D65 		.ascii	"Timer_SetPeriodSwap\000"
 3745      725F5365 
 3745      74506572 
 3745      696F6453 
 3745      77617000 
 3746              	.LASF60:
 3747 046f 54696D65 		.ascii	"Timer_ReadCaptureBuf\000"
 3747      725F5265 
 3747      61644361 
 3747      70747572 
 3747      65427566 
 3748              	.LASF71:
 3749 0484 54696D65 		.ascii	"Timer_ReadStatus\000"
 3749      725F5265 
 3749      61645374 
 3749      61747573 
 3749      00
 3750              	.LASF1:
 3751 0495 756E7369 		.ascii	"unsigned char\000"
 3751      676E6564 
 3751      20636861 
 3751      7200
 3752              	.LASF40:
 3753 04a3 73746F70 		.ascii	"stopOnKillEnable\000"
 3753      4F6E4B69 
 3753      6C6C456E 
 3753      61626C65 
 3753      00
 3754              	.LASF2:
 3755 04b4 73686F72 		.ascii	"short int\000"
 3755      7420696E 
 3755      7400
 3756              	.LASF18:
 3757 04be 696E7465 		.ascii	"interruptMask\000"
 3757      72727570 
 3757      744D6173 
 3757      6B00
 3758              	.LASF31:
 3759 04cc 54696D65 		.ascii	"Timer_SetPrescaler\000"
 3759      725F5365 
 3759      74507265 
 3759      7363616C 
 3759      657200
ARM GAS  C:\Users\Helon\AppData\Local\Temp\ccSjkW6b.s 			page 100


 3760              	.LASF24:
 3761 04df 54696D65 		.ascii	"Timer_Init\000"
 3761      725F496E 
 3761      697400
 3762              	.LASF45:
 3763 04ea 54696D65 		.ascii	"Timer_SetCounterMode\000"
 3763      725F5365 
 3763      74436F75 
 3763      6E746572 
 3763      4D6F6465 
 3764              	.LASF13:
 3765 04ff 63686172 		.ascii	"char\000"
 3765      00
 3766              	.LASF29:
 3767 0504 6D6F6465 		.ascii	"mode\000"
 3767      00
 3768              	.LASF63:
 3769 0509 54696D65 		.ascii	"Timer_SetReloadMode\000"
 3769      725F5365 
 3769      7452656C 
 3769      6F61644D 
 3769      6F646500 
 3770              	.LASF46:
 3771 051d 636F756E 		.ascii	"counterMode\000"
 3771      7465724D 
 3771      6F646500 
 3772              	.LASF48:
 3773 0529 54696D65 		.ascii	"Timer_ReadPeriod\000"
 3773      725F5265 
 3773      61645065 
 3773      72696F64 
 3773      00
 3774              	.LASF57:
 3775 053a 636F6D70 		.ascii	"compareBuf\000"
 3775      61726542 
 3775      756600
 3776              	.LASF27:
 3777 0545 656E6162 		.ascii	"enableInterrupts\000"
 3777      6C65496E 
 3777      74657272 
 3777      75707473 
 3777      00
 3778              	.LASF61:
 3779 0556 54696D65 		.ascii	"Timer_SetCaptureMode\000"
 3779      725F5365 
 3779      74436170 
 3779      74757265 
 3779      4D6F6465 
 3780              	.LASF33:
 3781 056b 54696D65 		.ascii	"Timer_SetOneShot\000"
 3781      725F5365 
 3781      744F6E65 
 3781      53686F74 
 3781      00
 3782              	.LASF74:
 3783 057c 54696D65 		.ascii	"Timer_ClearInterrupt\000"
 3783      725F436C 
ARM GAS  C:\Users\Helon\AppData\Local\Temp\ccSjkW6b.s 			page 101


 3783      65617249 
 3783      6E746572 
 3783      72757074 
 3784              	.LASF50:
 3785 0591 73776170 		.ascii	"swapEnable\000"
 3785      456E6162 
 3785      6C6500
 3786              	.LASF52:
 3787 059c 70657269 		.ascii	"periodBuf\000"
 3787      6F644275 
 3787      6600
 3788              	.LASF35:
 3789 05a6 54696D65 		.ascii	"Timer_SetPWMMode\000"
 3789      725F5365 
 3789      7450574D 
 3789      4D6F6465 
 3789      00
 3790              	.LASF58:
 3791 05b7 54696D65 		.ascii	"Timer_ReadCompareBuf\000"
 3791      725F5265 
 3791      6164436F 
 3791      6D706172 
 3791      65427566 
 3792              		.ident	"GCC: (GNU Tools for ARM Embedded Processors) 4.9.3 20150303 (release) [ARM/embedded-4_9-br
