ARM GAS  C:\Users\Helon\AppData\Local\Temp\ccIsqGNC.s 			page 1


   1              		.cpu cortex-m0
   2              		.fpu softvfp
   3              		.eabi_attribute 20, 1
   4              		.eabi_attribute 21, 1
   5              		.eabi_attribute 23, 3
   6              		.eabi_attribute 24, 1
   7              		.eabi_attribute 25, 1
   8              		.eabi_attribute 26, 1
   9              		.eabi_attribute 30, 4
  10              		.eabi_attribute 34, 0
  11              		.eabi_attribute 18, 4
  12              		.code	16
  13              		.file	"TimerInterrupt.c"
  14              		.text
  15              	.Ltext0:
  16              		.cfi_sections	.debug_frame
  17              		.section	.text.TimerInterrupt_Interrupt,"ax",%progbits
  18              		.align	1
  19              		.global	TimerInterrupt_Interrupt
  20              		.code	16
  21              		.thumb_func
  22              		.type	TimerInterrupt_Interrupt, %function
  23              	TimerInterrupt_Interrupt:
  24              	.LFB5:
  25              		.file 1 ".\\Generated_Source\\PSoC4\\TimerInterrupt.c"
   1:.\Generated_Source\PSoC4/TimerInterrupt.c **** /*******************************************************************************
   2:.\Generated_Source\PSoC4/TimerInterrupt.c **** * File Name: TimerInterrupt.c  
   3:.\Generated_Source\PSoC4/TimerInterrupt.c **** * Version 1.70
   4:.\Generated_Source\PSoC4/TimerInterrupt.c **** *
   5:.\Generated_Source\PSoC4/TimerInterrupt.c **** *  Description:
   6:.\Generated_Source\PSoC4/TimerInterrupt.c **** *   API for controlling the state of an interrupt.
   7:.\Generated_Source\PSoC4/TimerInterrupt.c **** *
   8:.\Generated_Source\PSoC4/TimerInterrupt.c **** *
   9:.\Generated_Source\PSoC4/TimerInterrupt.c **** *  Note:
  10:.\Generated_Source\PSoC4/TimerInterrupt.c **** *
  11:.\Generated_Source\PSoC4/TimerInterrupt.c **** ********************************************************************************
  12:.\Generated_Source\PSoC4/TimerInterrupt.c **** * Copyright 2008-2015, Cypress Semiconductor Corporation.  All rights reserved.
  13:.\Generated_Source\PSoC4/TimerInterrupt.c **** * You may use this file only in accordance with the license, terms, conditions, 
  14:.\Generated_Source\PSoC4/TimerInterrupt.c **** * disclaimers, and limitations in the end user license agreement accompanying 
  15:.\Generated_Source\PSoC4/TimerInterrupt.c **** * the software package with which this file was provided.
  16:.\Generated_Source\PSoC4/TimerInterrupt.c **** *******************************************************************************/
  17:.\Generated_Source\PSoC4/TimerInterrupt.c **** 
  18:.\Generated_Source\PSoC4/TimerInterrupt.c **** 
  19:.\Generated_Source\PSoC4/TimerInterrupt.c **** #include <cydevice_trm.h>
  20:.\Generated_Source\PSoC4/TimerInterrupt.c **** #include <CyLib.h>
  21:.\Generated_Source\PSoC4/TimerInterrupt.c **** #include <TimerInterrupt.h>
  22:.\Generated_Source\PSoC4/TimerInterrupt.c **** #include "cyapicallbacks.h"
  23:.\Generated_Source\PSoC4/TimerInterrupt.c **** 
  24:.\Generated_Source\PSoC4/TimerInterrupt.c **** #if !defined(TimerInterrupt__REMOVED) /* Check for removal by optimization */
  25:.\Generated_Source\PSoC4/TimerInterrupt.c **** 
  26:.\Generated_Source\PSoC4/TimerInterrupt.c **** /*******************************************************************************
  27:.\Generated_Source\PSoC4/TimerInterrupt.c **** *  Place your includes, defines and code here 
  28:.\Generated_Source\PSoC4/TimerInterrupt.c **** ********************************************************************************/
  29:.\Generated_Source\PSoC4/TimerInterrupt.c **** /* `#START TimerInterrupt_intc` */
  30:.\Generated_Source\PSoC4/TimerInterrupt.c **** 
  31:.\Generated_Source\PSoC4/TimerInterrupt.c **** /* `#END` */
  32:.\Generated_Source\PSoC4/TimerInterrupt.c **** 
ARM GAS  C:\Users\Helon\AppData\Local\Temp\ccIsqGNC.s 			page 2


  33:.\Generated_Source\PSoC4/TimerInterrupt.c **** extern cyisraddress CyRamVectors[CYINT_IRQ_BASE + CY_NUM_INTERRUPTS];
  34:.\Generated_Source\PSoC4/TimerInterrupt.c **** 
  35:.\Generated_Source\PSoC4/TimerInterrupt.c **** /* Declared in startup, used to set unused interrupts to. */
  36:.\Generated_Source\PSoC4/TimerInterrupt.c **** CY_ISR_PROTO(IntDefaultHandler);
  37:.\Generated_Source\PSoC4/TimerInterrupt.c **** 
  38:.\Generated_Source\PSoC4/TimerInterrupt.c **** 
  39:.\Generated_Source\PSoC4/TimerInterrupt.c **** /*******************************************************************************
  40:.\Generated_Source\PSoC4/TimerInterrupt.c **** * Function Name: TimerInterrupt_Start
  41:.\Generated_Source\PSoC4/TimerInterrupt.c **** ********************************************************************************
  42:.\Generated_Source\PSoC4/TimerInterrupt.c **** *
  43:.\Generated_Source\PSoC4/TimerInterrupt.c **** * Summary:
  44:.\Generated_Source\PSoC4/TimerInterrupt.c **** *  Set up the interrupt and enable it. This function disables the interrupt, 
  45:.\Generated_Source\PSoC4/TimerInterrupt.c **** *  sets the default interrupt vector, sets the priority from the value in the
  46:.\Generated_Source\PSoC4/TimerInterrupt.c **** *  Design Wide Resources Interrupt Editor, then enables the interrupt to the 
  47:.\Generated_Source\PSoC4/TimerInterrupt.c **** *  interrupt controller.
  48:.\Generated_Source\PSoC4/TimerInterrupt.c **** *
  49:.\Generated_Source\PSoC4/TimerInterrupt.c **** * Parameters:  
  50:.\Generated_Source\PSoC4/TimerInterrupt.c **** *   None
  51:.\Generated_Source\PSoC4/TimerInterrupt.c **** *
  52:.\Generated_Source\PSoC4/TimerInterrupt.c **** * Return:
  53:.\Generated_Source\PSoC4/TimerInterrupt.c **** *   None
  54:.\Generated_Source\PSoC4/TimerInterrupt.c **** *
  55:.\Generated_Source\PSoC4/TimerInterrupt.c **** *******************************************************************************/
  56:.\Generated_Source\PSoC4/TimerInterrupt.c **** void TimerInterrupt_Start(void)
  57:.\Generated_Source\PSoC4/TimerInterrupt.c **** {
  58:.\Generated_Source\PSoC4/TimerInterrupt.c ****     /* For all we know the interrupt is active. */
  59:.\Generated_Source\PSoC4/TimerInterrupt.c ****     TimerInterrupt_Disable();
  60:.\Generated_Source\PSoC4/TimerInterrupt.c **** 
  61:.\Generated_Source\PSoC4/TimerInterrupt.c ****     /* Set the ISR to point to the TimerInterrupt Interrupt. */
  62:.\Generated_Source\PSoC4/TimerInterrupt.c ****     TimerInterrupt_SetVector(&TimerInterrupt_Interrupt);
  63:.\Generated_Source\PSoC4/TimerInterrupt.c **** 
  64:.\Generated_Source\PSoC4/TimerInterrupt.c ****     /* Set the priority. */
  65:.\Generated_Source\PSoC4/TimerInterrupt.c ****     TimerInterrupt_SetPriority((uint8)TimerInterrupt_INTC_PRIOR_NUMBER);
  66:.\Generated_Source\PSoC4/TimerInterrupt.c **** 
  67:.\Generated_Source\PSoC4/TimerInterrupt.c ****     /* Enable it. */
  68:.\Generated_Source\PSoC4/TimerInterrupt.c ****     TimerInterrupt_Enable();
  69:.\Generated_Source\PSoC4/TimerInterrupt.c **** }
  70:.\Generated_Source\PSoC4/TimerInterrupt.c **** 
  71:.\Generated_Source\PSoC4/TimerInterrupt.c **** 
  72:.\Generated_Source\PSoC4/TimerInterrupt.c **** /*******************************************************************************
  73:.\Generated_Source\PSoC4/TimerInterrupt.c **** * Function Name: TimerInterrupt_StartEx
  74:.\Generated_Source\PSoC4/TimerInterrupt.c **** ********************************************************************************
  75:.\Generated_Source\PSoC4/TimerInterrupt.c **** *
  76:.\Generated_Source\PSoC4/TimerInterrupt.c **** * Summary:
  77:.\Generated_Source\PSoC4/TimerInterrupt.c **** *  Sets up the interrupt and enables it. This function disables the interrupt,
  78:.\Generated_Source\PSoC4/TimerInterrupt.c **** *  sets the interrupt vector based on the address passed in, sets the priority 
  79:.\Generated_Source\PSoC4/TimerInterrupt.c **** *  from the value in the Design Wide Resources Interrupt Editor, then enables 
  80:.\Generated_Source\PSoC4/TimerInterrupt.c **** *  the interrupt to the interrupt controller.
  81:.\Generated_Source\PSoC4/TimerInterrupt.c **** *  
  82:.\Generated_Source\PSoC4/TimerInterrupt.c **** *  When defining ISR functions, the CY_ISR and CY_ISR_PROTO macros should be 
  83:.\Generated_Source\PSoC4/TimerInterrupt.c **** *  used to provide consistent definition across compilers:
  84:.\Generated_Source\PSoC4/TimerInterrupt.c **** *  
  85:.\Generated_Source\PSoC4/TimerInterrupt.c **** *  Function definition example:
  86:.\Generated_Source\PSoC4/TimerInterrupt.c **** *   CY_ISR(MyISR)
  87:.\Generated_Source\PSoC4/TimerInterrupt.c **** *   {
  88:.\Generated_Source\PSoC4/TimerInterrupt.c **** *   }
  89:.\Generated_Source\PSoC4/TimerInterrupt.c **** *   Function prototype example:
ARM GAS  C:\Users\Helon\AppData\Local\Temp\ccIsqGNC.s 			page 3


  90:.\Generated_Source\PSoC4/TimerInterrupt.c **** *   CY_ISR_PROTO(MyISR);
  91:.\Generated_Source\PSoC4/TimerInterrupt.c **** *
  92:.\Generated_Source\PSoC4/TimerInterrupt.c **** * Parameters:  
  93:.\Generated_Source\PSoC4/TimerInterrupt.c **** *   address: Address of the ISR to set in the interrupt vector table.
  94:.\Generated_Source\PSoC4/TimerInterrupt.c **** *
  95:.\Generated_Source\PSoC4/TimerInterrupt.c **** * Return:
  96:.\Generated_Source\PSoC4/TimerInterrupt.c **** *   None
  97:.\Generated_Source\PSoC4/TimerInterrupt.c **** *
  98:.\Generated_Source\PSoC4/TimerInterrupt.c **** *******************************************************************************/
  99:.\Generated_Source\PSoC4/TimerInterrupt.c **** void TimerInterrupt_StartEx(cyisraddress address)
 100:.\Generated_Source\PSoC4/TimerInterrupt.c **** {
 101:.\Generated_Source\PSoC4/TimerInterrupt.c ****     /* For all we know the interrupt is active. */
 102:.\Generated_Source\PSoC4/TimerInterrupt.c ****     TimerInterrupt_Disable();
 103:.\Generated_Source\PSoC4/TimerInterrupt.c **** 
 104:.\Generated_Source\PSoC4/TimerInterrupt.c ****     /* Set the ISR to point to the TimerInterrupt Interrupt. */
 105:.\Generated_Source\PSoC4/TimerInterrupt.c ****     TimerInterrupt_SetVector(address);
 106:.\Generated_Source\PSoC4/TimerInterrupt.c **** 
 107:.\Generated_Source\PSoC4/TimerInterrupt.c ****     /* Set the priority. */
 108:.\Generated_Source\PSoC4/TimerInterrupt.c ****     TimerInterrupt_SetPriority((uint8)TimerInterrupt_INTC_PRIOR_NUMBER);
 109:.\Generated_Source\PSoC4/TimerInterrupt.c **** 
 110:.\Generated_Source\PSoC4/TimerInterrupt.c ****     /* Enable it. */
 111:.\Generated_Source\PSoC4/TimerInterrupt.c ****     TimerInterrupt_Enable();
 112:.\Generated_Source\PSoC4/TimerInterrupt.c **** }
 113:.\Generated_Source\PSoC4/TimerInterrupt.c **** 
 114:.\Generated_Source\PSoC4/TimerInterrupt.c **** 
 115:.\Generated_Source\PSoC4/TimerInterrupt.c **** /*******************************************************************************
 116:.\Generated_Source\PSoC4/TimerInterrupt.c **** * Function Name: TimerInterrupt_Stop
 117:.\Generated_Source\PSoC4/TimerInterrupt.c **** ********************************************************************************
 118:.\Generated_Source\PSoC4/TimerInterrupt.c **** *
 119:.\Generated_Source\PSoC4/TimerInterrupt.c **** * Summary:
 120:.\Generated_Source\PSoC4/TimerInterrupt.c **** *   Disables and removes the interrupt.
 121:.\Generated_Source\PSoC4/TimerInterrupt.c **** *
 122:.\Generated_Source\PSoC4/TimerInterrupt.c **** * Parameters:  
 123:.\Generated_Source\PSoC4/TimerInterrupt.c **** *   None
 124:.\Generated_Source\PSoC4/TimerInterrupt.c **** *
 125:.\Generated_Source\PSoC4/TimerInterrupt.c **** * Return:
 126:.\Generated_Source\PSoC4/TimerInterrupt.c **** *   None
 127:.\Generated_Source\PSoC4/TimerInterrupt.c **** *
 128:.\Generated_Source\PSoC4/TimerInterrupt.c **** *******************************************************************************/
 129:.\Generated_Source\PSoC4/TimerInterrupt.c **** void TimerInterrupt_Stop(void)
 130:.\Generated_Source\PSoC4/TimerInterrupt.c **** {
 131:.\Generated_Source\PSoC4/TimerInterrupt.c ****     /* Disable this interrupt. */
 132:.\Generated_Source\PSoC4/TimerInterrupt.c ****     TimerInterrupt_Disable();
 133:.\Generated_Source\PSoC4/TimerInterrupt.c **** 
 134:.\Generated_Source\PSoC4/TimerInterrupt.c ****     /* Set the ISR to point to the passive one. */
 135:.\Generated_Source\PSoC4/TimerInterrupt.c ****     TimerInterrupt_SetVector(&IntDefaultHandler);
 136:.\Generated_Source\PSoC4/TimerInterrupt.c **** }
 137:.\Generated_Source\PSoC4/TimerInterrupt.c **** 
 138:.\Generated_Source\PSoC4/TimerInterrupt.c **** 
 139:.\Generated_Source\PSoC4/TimerInterrupt.c **** /*******************************************************************************
 140:.\Generated_Source\PSoC4/TimerInterrupt.c **** * Function Name: TimerInterrupt_Interrupt
 141:.\Generated_Source\PSoC4/TimerInterrupt.c **** ********************************************************************************
 142:.\Generated_Source\PSoC4/TimerInterrupt.c **** *
 143:.\Generated_Source\PSoC4/TimerInterrupt.c **** * Summary:
 144:.\Generated_Source\PSoC4/TimerInterrupt.c **** *   The default Interrupt Service Routine for TimerInterrupt.
 145:.\Generated_Source\PSoC4/TimerInterrupt.c **** *
 146:.\Generated_Source\PSoC4/TimerInterrupt.c **** *   Add custom code between the START and END comments to keep the next version
ARM GAS  C:\Users\Helon\AppData\Local\Temp\ccIsqGNC.s 			page 4


 147:.\Generated_Source\PSoC4/TimerInterrupt.c **** *   of this file from over-writing your code.
 148:.\Generated_Source\PSoC4/TimerInterrupt.c **** *
 149:.\Generated_Source\PSoC4/TimerInterrupt.c **** *   Note You may use either the default ISR by using this API, or you may define
 150:.\Generated_Source\PSoC4/TimerInterrupt.c **** *   your own separate ISR through ISR_StartEx().
 151:.\Generated_Source\PSoC4/TimerInterrupt.c **** *
 152:.\Generated_Source\PSoC4/TimerInterrupt.c **** * Parameters:  
 153:.\Generated_Source\PSoC4/TimerInterrupt.c **** *   None
 154:.\Generated_Source\PSoC4/TimerInterrupt.c **** *
 155:.\Generated_Source\PSoC4/TimerInterrupt.c **** * Return:
 156:.\Generated_Source\PSoC4/TimerInterrupt.c **** *   None
 157:.\Generated_Source\PSoC4/TimerInterrupt.c **** *
 158:.\Generated_Source\PSoC4/TimerInterrupt.c **** *******************************************************************************/
 159:.\Generated_Source\PSoC4/TimerInterrupt.c **** CY_ISR(TimerInterrupt_Interrupt)
 160:.\Generated_Source\PSoC4/TimerInterrupt.c **** {
  26              		.loc 1 160 0
  27              		.cfi_startproc
 161:.\Generated_Source\PSoC4/TimerInterrupt.c ****     #ifdef TimerInterrupt_INTERRUPT_INTERRUPT_CALLBACK
 162:.\Generated_Source\PSoC4/TimerInterrupt.c ****         TimerInterrupt_Interrupt_InterruptCallback();
 163:.\Generated_Source\PSoC4/TimerInterrupt.c ****     #endif /* TimerInterrupt_INTERRUPT_INTERRUPT_CALLBACK */ 
 164:.\Generated_Source\PSoC4/TimerInterrupt.c **** 
 165:.\Generated_Source\PSoC4/TimerInterrupt.c ****     /*  Place your Interrupt code here. */
 166:.\Generated_Source\PSoC4/TimerInterrupt.c ****     /* `#START TimerInterrupt_Interrupt` */
 167:.\Generated_Source\PSoC4/TimerInterrupt.c **** 
 168:.\Generated_Source\PSoC4/TimerInterrupt.c ****     /* `#END` */
 169:.\Generated_Source\PSoC4/TimerInterrupt.c **** }
  28              		.loc 1 169 0
  29              		@ sp needed
  30 0000 7047     		bx	lr
  31              		.cfi_endproc
  32              	.LFE5:
  33              		.size	TimerInterrupt_Interrupt, .-TimerInterrupt_Interrupt
  34              		.section	.text.TimerInterrupt_Stop,"ax",%progbits
  35              		.align	1
  36              		.global	TimerInterrupt_Stop
  37              		.code	16
  38              		.thumb_func
  39              		.type	TimerInterrupt_Stop, %function
  40              	TimerInterrupt_Stop:
  41              	.LFB4:
 130:.\Generated_Source\PSoC4/TimerInterrupt.c ****     /* Disable this interrupt. */
  42              		.loc 1 130 0
  43              		.cfi_startproc
  44              	.LBB18:
  45              	.LBB19:
 170:.\Generated_Source\PSoC4/TimerInterrupt.c **** 
 171:.\Generated_Source\PSoC4/TimerInterrupt.c **** 
 172:.\Generated_Source\PSoC4/TimerInterrupt.c **** /*******************************************************************************
 173:.\Generated_Source\PSoC4/TimerInterrupt.c **** * Function Name: TimerInterrupt_SetVector
 174:.\Generated_Source\PSoC4/TimerInterrupt.c **** ********************************************************************************
 175:.\Generated_Source\PSoC4/TimerInterrupt.c **** *
 176:.\Generated_Source\PSoC4/TimerInterrupt.c **** * Summary:
 177:.\Generated_Source\PSoC4/TimerInterrupt.c **** *   Change the ISR vector for the Interrupt. Note calling TimerInterrupt_Start
 178:.\Generated_Source\PSoC4/TimerInterrupt.c **** *   will override any effect this method would have had. To set the vector 
 179:.\Generated_Source\PSoC4/TimerInterrupt.c **** *   before the component has been started use TimerInterrupt_StartEx instead.
 180:.\Generated_Source\PSoC4/TimerInterrupt.c **** * 
 181:.\Generated_Source\PSoC4/TimerInterrupt.c **** *   When defining ISR functions, the CY_ISR and CY_ISR_PROTO macros should be 
 182:.\Generated_Source\PSoC4/TimerInterrupt.c **** *   used to provide consistent definition across compilers:
ARM GAS  C:\Users\Helon\AppData\Local\Temp\ccIsqGNC.s 			page 5


 183:.\Generated_Source\PSoC4/TimerInterrupt.c **** *
 184:.\Generated_Source\PSoC4/TimerInterrupt.c **** *   Function definition example:
 185:.\Generated_Source\PSoC4/TimerInterrupt.c **** *   CY_ISR(MyISR)
 186:.\Generated_Source\PSoC4/TimerInterrupt.c **** *   {
 187:.\Generated_Source\PSoC4/TimerInterrupt.c **** *   }
 188:.\Generated_Source\PSoC4/TimerInterrupt.c **** *
 189:.\Generated_Source\PSoC4/TimerInterrupt.c **** *   Function prototype example:
 190:.\Generated_Source\PSoC4/TimerInterrupt.c **** *     CY_ISR_PROTO(MyISR);
 191:.\Generated_Source\PSoC4/TimerInterrupt.c **** *
 192:.\Generated_Source\PSoC4/TimerInterrupt.c **** * Parameters:
 193:.\Generated_Source\PSoC4/TimerInterrupt.c **** *   address: Address of the ISR to set in the interrupt vector table.
 194:.\Generated_Source\PSoC4/TimerInterrupt.c **** *
 195:.\Generated_Source\PSoC4/TimerInterrupt.c **** * Return:
 196:.\Generated_Source\PSoC4/TimerInterrupt.c **** *   None
 197:.\Generated_Source\PSoC4/TimerInterrupt.c **** *
 198:.\Generated_Source\PSoC4/TimerInterrupt.c **** *******************************************************************************/
 199:.\Generated_Source\PSoC4/TimerInterrupt.c **** void TimerInterrupt_SetVector(cyisraddress address)
 200:.\Generated_Source\PSoC4/TimerInterrupt.c **** {
 201:.\Generated_Source\PSoC4/TimerInterrupt.c ****     CyRamVectors[CYINT_IRQ_BASE + TimerInterrupt__INTC_NUMBER] = address;
 202:.\Generated_Source\PSoC4/TimerInterrupt.c **** }
 203:.\Generated_Source\PSoC4/TimerInterrupt.c **** 
 204:.\Generated_Source\PSoC4/TimerInterrupt.c **** 
 205:.\Generated_Source\PSoC4/TimerInterrupt.c **** /*******************************************************************************
 206:.\Generated_Source\PSoC4/TimerInterrupt.c **** * Function Name: TimerInterrupt_GetVector
 207:.\Generated_Source\PSoC4/TimerInterrupt.c **** ********************************************************************************
 208:.\Generated_Source\PSoC4/TimerInterrupt.c **** *
 209:.\Generated_Source\PSoC4/TimerInterrupt.c **** * Summary:
 210:.\Generated_Source\PSoC4/TimerInterrupt.c **** *   Gets the "address" of the current ISR vector for the Interrupt.
 211:.\Generated_Source\PSoC4/TimerInterrupt.c **** *
 212:.\Generated_Source\PSoC4/TimerInterrupt.c **** * Parameters:
 213:.\Generated_Source\PSoC4/TimerInterrupt.c **** *   None
 214:.\Generated_Source\PSoC4/TimerInterrupt.c **** *
 215:.\Generated_Source\PSoC4/TimerInterrupt.c **** * Return:
 216:.\Generated_Source\PSoC4/TimerInterrupt.c **** *   Address of the ISR in the interrupt vector table.
 217:.\Generated_Source\PSoC4/TimerInterrupt.c **** *
 218:.\Generated_Source\PSoC4/TimerInterrupt.c **** *******************************************************************************/
 219:.\Generated_Source\PSoC4/TimerInterrupt.c **** cyisraddress TimerInterrupt_GetVector(void)
 220:.\Generated_Source\PSoC4/TimerInterrupt.c **** {
 221:.\Generated_Source\PSoC4/TimerInterrupt.c ****     return CyRamVectors[CYINT_IRQ_BASE + TimerInterrupt__INTC_NUMBER];
 222:.\Generated_Source\PSoC4/TimerInterrupt.c **** }
 223:.\Generated_Source\PSoC4/TimerInterrupt.c **** 
 224:.\Generated_Source\PSoC4/TimerInterrupt.c **** 
 225:.\Generated_Source\PSoC4/TimerInterrupt.c **** /*******************************************************************************
 226:.\Generated_Source\PSoC4/TimerInterrupt.c **** * Function Name: TimerInterrupt_SetPriority
 227:.\Generated_Source\PSoC4/TimerInterrupt.c **** ********************************************************************************
 228:.\Generated_Source\PSoC4/TimerInterrupt.c **** *
 229:.\Generated_Source\PSoC4/TimerInterrupt.c **** * Summary:
 230:.\Generated_Source\PSoC4/TimerInterrupt.c **** *   Sets the Priority of the Interrupt. 
 231:.\Generated_Source\PSoC4/TimerInterrupt.c **** *
 232:.\Generated_Source\PSoC4/TimerInterrupt.c **** *   Note calling TimerInterrupt_Start or TimerInterrupt_StartEx will 
 233:.\Generated_Source\PSoC4/TimerInterrupt.c **** *   override any effect this API would have had. This API should only be called
 234:.\Generated_Source\PSoC4/TimerInterrupt.c **** *   after TimerInterrupt_Start or TimerInterrupt_StartEx has been called. 
 235:.\Generated_Source\PSoC4/TimerInterrupt.c **** *   To set the initial priority for the component, use the Design-Wide Resources
 236:.\Generated_Source\PSoC4/TimerInterrupt.c **** *   Interrupt Editor.
 237:.\Generated_Source\PSoC4/TimerInterrupt.c **** *
 238:.\Generated_Source\PSoC4/TimerInterrupt.c **** *   Note This API has no effect on Non-maskable interrupt NMI).
 239:.\Generated_Source\PSoC4/TimerInterrupt.c **** *
ARM GAS  C:\Users\Helon\AppData\Local\Temp\ccIsqGNC.s 			page 6


 240:.\Generated_Source\PSoC4/TimerInterrupt.c **** * Parameters:
 241:.\Generated_Source\PSoC4/TimerInterrupt.c **** *   priority: Priority of the interrupt, 0 being the highest priority
 242:.\Generated_Source\PSoC4/TimerInterrupt.c **** *             PSoC 3 and PSoC 5LP: Priority is from 0 to 7.
 243:.\Generated_Source\PSoC4/TimerInterrupt.c **** *             PSoC 4: Priority is from 0 to 3.
 244:.\Generated_Source\PSoC4/TimerInterrupt.c **** *
 245:.\Generated_Source\PSoC4/TimerInterrupt.c **** * Return:
 246:.\Generated_Source\PSoC4/TimerInterrupt.c **** *   None
 247:.\Generated_Source\PSoC4/TimerInterrupt.c **** *
 248:.\Generated_Source\PSoC4/TimerInterrupt.c **** *******************************************************************************/
 249:.\Generated_Source\PSoC4/TimerInterrupt.c **** void TimerInterrupt_SetPriority(uint8 priority)
 250:.\Generated_Source\PSoC4/TimerInterrupt.c **** {
 251:.\Generated_Source\PSoC4/TimerInterrupt.c **** 	uint8 interruptState;
 252:.\Generated_Source\PSoC4/TimerInterrupt.c ****     uint32 priorityOffset = ((TimerInterrupt__INTC_NUMBER % 4u) * 8u) + 6u;
 253:.\Generated_Source\PSoC4/TimerInterrupt.c ****     
 254:.\Generated_Source\PSoC4/TimerInterrupt.c **** 	interruptState = CyEnterCriticalSection();
 255:.\Generated_Source\PSoC4/TimerInterrupt.c ****     *TimerInterrupt_INTC_PRIOR = (*TimerInterrupt_INTC_PRIOR & (uint32)(~TimerInterrupt__INTC_PRIOR
 256:.\Generated_Source\PSoC4/TimerInterrupt.c ****                                     ((uint32)priority << priorityOffset);
 257:.\Generated_Source\PSoC4/TimerInterrupt.c **** 	CyExitCriticalSection(interruptState);
 258:.\Generated_Source\PSoC4/TimerInterrupt.c **** }
 259:.\Generated_Source\PSoC4/TimerInterrupt.c **** 
 260:.\Generated_Source\PSoC4/TimerInterrupt.c **** 
 261:.\Generated_Source\PSoC4/TimerInterrupt.c **** /*******************************************************************************
 262:.\Generated_Source\PSoC4/TimerInterrupt.c **** * Function Name: TimerInterrupt_GetPriority
 263:.\Generated_Source\PSoC4/TimerInterrupt.c **** ********************************************************************************
 264:.\Generated_Source\PSoC4/TimerInterrupt.c **** *
 265:.\Generated_Source\PSoC4/TimerInterrupt.c **** * Summary:
 266:.\Generated_Source\PSoC4/TimerInterrupt.c **** *   Gets the Priority of the Interrupt.
 267:.\Generated_Source\PSoC4/TimerInterrupt.c **** *
 268:.\Generated_Source\PSoC4/TimerInterrupt.c **** * Parameters:
 269:.\Generated_Source\PSoC4/TimerInterrupt.c **** *   None
 270:.\Generated_Source\PSoC4/TimerInterrupt.c **** *
 271:.\Generated_Source\PSoC4/TimerInterrupt.c **** * Return:
 272:.\Generated_Source\PSoC4/TimerInterrupt.c **** *   Priority of the interrupt, 0 being the highest priority
 273:.\Generated_Source\PSoC4/TimerInterrupt.c **** *    PSoC 3 and PSoC 5LP: Priority is from 0 to 7.
 274:.\Generated_Source\PSoC4/TimerInterrupt.c **** *    PSoC 4: Priority is from 0 to 3.
 275:.\Generated_Source\PSoC4/TimerInterrupt.c **** *
 276:.\Generated_Source\PSoC4/TimerInterrupt.c **** *******************************************************************************/
 277:.\Generated_Source\PSoC4/TimerInterrupt.c **** uint8 TimerInterrupt_GetPriority(void)
 278:.\Generated_Source\PSoC4/TimerInterrupt.c **** {
 279:.\Generated_Source\PSoC4/TimerInterrupt.c ****     uint32 priority;
 280:.\Generated_Source\PSoC4/TimerInterrupt.c **** 	uint32 priorityOffset = ((TimerInterrupt__INTC_NUMBER % 4u) * 8u) + 6u;
 281:.\Generated_Source\PSoC4/TimerInterrupt.c **** 
 282:.\Generated_Source\PSoC4/TimerInterrupt.c ****     priority = (*TimerInterrupt_INTC_PRIOR & TimerInterrupt__INTC_PRIOR_MASK) >> priorityOffset;
 283:.\Generated_Source\PSoC4/TimerInterrupt.c **** 
 284:.\Generated_Source\PSoC4/TimerInterrupt.c ****     return (uint8)priority;
 285:.\Generated_Source\PSoC4/TimerInterrupt.c **** }
 286:.\Generated_Source\PSoC4/TimerInterrupt.c **** 
 287:.\Generated_Source\PSoC4/TimerInterrupt.c **** 
 288:.\Generated_Source\PSoC4/TimerInterrupt.c **** /*******************************************************************************
 289:.\Generated_Source\PSoC4/TimerInterrupt.c **** * Function Name: TimerInterrupt_Enable
 290:.\Generated_Source\PSoC4/TimerInterrupt.c **** ********************************************************************************
 291:.\Generated_Source\PSoC4/TimerInterrupt.c **** *
 292:.\Generated_Source\PSoC4/TimerInterrupt.c **** * Summary:
 293:.\Generated_Source\PSoC4/TimerInterrupt.c **** *   Enables the interrupt to the interrupt controller. Do not call this function
 294:.\Generated_Source\PSoC4/TimerInterrupt.c **** *   unless ISR_Start() has been called or the functionality of the ISR_Start() 
 295:.\Generated_Source\PSoC4/TimerInterrupt.c **** *   function, which sets the vector and the priority, has been called.
 296:.\Generated_Source\PSoC4/TimerInterrupt.c **** *
ARM GAS  C:\Users\Helon\AppData\Local\Temp\ccIsqGNC.s 			page 7


 297:.\Generated_Source\PSoC4/TimerInterrupt.c **** * Parameters:
 298:.\Generated_Source\PSoC4/TimerInterrupt.c **** *   None
 299:.\Generated_Source\PSoC4/TimerInterrupt.c **** *
 300:.\Generated_Source\PSoC4/TimerInterrupt.c **** * Return:
 301:.\Generated_Source\PSoC4/TimerInterrupt.c **** *   None
 302:.\Generated_Source\PSoC4/TimerInterrupt.c **** *
 303:.\Generated_Source\PSoC4/TimerInterrupt.c **** *******************************************************************************/
 304:.\Generated_Source\PSoC4/TimerInterrupt.c **** void TimerInterrupt_Enable(void)
 305:.\Generated_Source\PSoC4/TimerInterrupt.c **** {
 306:.\Generated_Source\PSoC4/TimerInterrupt.c ****     /* Enable the general interrupt. */
 307:.\Generated_Source\PSoC4/TimerInterrupt.c ****     *TimerInterrupt_INTC_SET_EN = TimerInterrupt__INTC_MASK;
 308:.\Generated_Source\PSoC4/TimerInterrupt.c **** }
 309:.\Generated_Source\PSoC4/TimerInterrupt.c **** 
 310:.\Generated_Source\PSoC4/TimerInterrupt.c **** 
 311:.\Generated_Source\PSoC4/TimerInterrupt.c **** /*******************************************************************************
 312:.\Generated_Source\PSoC4/TimerInterrupt.c **** * Function Name: TimerInterrupt_GetState
 313:.\Generated_Source\PSoC4/TimerInterrupt.c **** ********************************************************************************
 314:.\Generated_Source\PSoC4/TimerInterrupt.c **** *
 315:.\Generated_Source\PSoC4/TimerInterrupt.c **** * Summary:
 316:.\Generated_Source\PSoC4/TimerInterrupt.c **** *   Gets the state (enabled, disabled) of the Interrupt.
 317:.\Generated_Source\PSoC4/TimerInterrupt.c **** *
 318:.\Generated_Source\PSoC4/TimerInterrupt.c **** * Parameters:
 319:.\Generated_Source\PSoC4/TimerInterrupt.c **** *   None
 320:.\Generated_Source\PSoC4/TimerInterrupt.c **** *
 321:.\Generated_Source\PSoC4/TimerInterrupt.c **** * Return:
 322:.\Generated_Source\PSoC4/TimerInterrupt.c **** *   1 if enabled, 0 if disabled.
 323:.\Generated_Source\PSoC4/TimerInterrupt.c **** *
 324:.\Generated_Source\PSoC4/TimerInterrupt.c **** *******************************************************************************/
 325:.\Generated_Source\PSoC4/TimerInterrupt.c **** uint8 TimerInterrupt_GetState(void)
 326:.\Generated_Source\PSoC4/TimerInterrupt.c **** {
 327:.\Generated_Source\PSoC4/TimerInterrupt.c ****     /* Get the state of the general interrupt. */
 328:.\Generated_Source\PSoC4/TimerInterrupt.c ****     return ((*TimerInterrupt_INTC_SET_EN & (uint32)TimerInterrupt__INTC_MASK) != 0u) ? 1u:0u;
 329:.\Generated_Source\PSoC4/TimerInterrupt.c **** }
 330:.\Generated_Source\PSoC4/TimerInterrupt.c **** 
 331:.\Generated_Source\PSoC4/TimerInterrupt.c **** 
 332:.\Generated_Source\PSoC4/TimerInterrupt.c **** /*******************************************************************************
 333:.\Generated_Source\PSoC4/TimerInterrupt.c **** * Function Name: TimerInterrupt_Disable
 334:.\Generated_Source\PSoC4/TimerInterrupt.c **** ********************************************************************************
 335:.\Generated_Source\PSoC4/TimerInterrupt.c **** *
 336:.\Generated_Source\PSoC4/TimerInterrupt.c **** * Summary:
 337:.\Generated_Source\PSoC4/TimerInterrupt.c **** *   Disables the Interrupt in the interrupt controller.
 338:.\Generated_Source\PSoC4/TimerInterrupt.c **** *
 339:.\Generated_Source\PSoC4/TimerInterrupt.c **** * Parameters:
 340:.\Generated_Source\PSoC4/TimerInterrupt.c **** *   None
 341:.\Generated_Source\PSoC4/TimerInterrupt.c **** *
 342:.\Generated_Source\PSoC4/TimerInterrupt.c **** * Return:
 343:.\Generated_Source\PSoC4/TimerInterrupt.c **** *   None
 344:.\Generated_Source\PSoC4/TimerInterrupt.c **** *
 345:.\Generated_Source\PSoC4/TimerInterrupt.c **** *******************************************************************************/
 346:.\Generated_Source\PSoC4/TimerInterrupt.c **** void TimerInterrupt_Disable(void)
 347:.\Generated_Source\PSoC4/TimerInterrupt.c **** {
 348:.\Generated_Source\PSoC4/TimerInterrupt.c ****     /* Disable the general interrupt. */
 349:.\Generated_Source\PSoC4/TimerInterrupt.c ****     *TimerInterrupt_INTC_CLR_EN = TimerInterrupt__INTC_MASK;
  46              		.loc 1 349 0
  47 0000 8022     		mov	r2, #128
  48 0002 044B     		ldr	r3, .L3
  49 0004 1203     		lsl	r2, r2, #12
ARM GAS  C:\Users\Helon\AppData\Local\Temp\ccIsqGNC.s 			page 8


  50 0006 1A60     		str	r2, [r3]
  51              	.LVL0:
  52              	.LBE19:
  53              	.LBE18:
  54              	.LBB20:
  55              	.LBB21:
 201:.\Generated_Source\PSoC4/TimerInterrupt.c **** }
  56              		.loc 1 201 0
  57 0008 034B     		ldr	r3, .L3+4
  58 000a 044A     		ldr	r2, .L3+8
  59 000c 8C33     		add	r3, r3, #140
  60 000e 1A60     		str	r2, [r3]
  61              	.LBE21:
  62              	.LBE20:
 136:.\Generated_Source\PSoC4/TimerInterrupt.c **** 
  63              		.loc 1 136 0
  64              		@ sp needed
  65 0010 7047     		bx	lr
  66              	.L4:
  67 0012 C046     		.align	2
  68              	.L3:
  69 0014 80E100E0 		.word	-536813184
  70 0018 00000000 		.word	CyRamVectors
  71 001c 00000000 		.word	IntDefaultHandler
  72              		.cfi_endproc
  73              	.LFE4:
  74              		.size	TimerInterrupt_Stop, .-TimerInterrupt_Stop
  75              		.section	.text.TimerInterrupt_SetVector,"ax",%progbits
  76              		.align	1
  77              		.global	TimerInterrupt_SetVector
  78              		.code	16
  79              		.thumb_func
  80              		.type	TimerInterrupt_SetVector, %function
  81              	TimerInterrupt_SetVector:
  82              	.LFB6:
 200:.\Generated_Source\PSoC4/TimerInterrupt.c ****     CyRamVectors[CYINT_IRQ_BASE + TimerInterrupt__INTC_NUMBER] = address;
  83              		.loc 1 200 0
  84              		.cfi_startproc
  85              	.LVL1:
 201:.\Generated_Source\PSoC4/TimerInterrupt.c **** }
  86              		.loc 1 201 0
  87 0000 014B     		ldr	r3, .L6
 202:.\Generated_Source\PSoC4/TimerInterrupt.c **** 
  88              		.loc 1 202 0
  89              		@ sp needed
 201:.\Generated_Source\PSoC4/TimerInterrupt.c **** }
  90              		.loc 1 201 0
  91 0002 8C33     		add	r3, r3, #140
  92 0004 1860     		str	r0, [r3]
 202:.\Generated_Source\PSoC4/TimerInterrupt.c **** 
  93              		.loc 1 202 0
  94 0006 7047     		bx	lr
  95              	.L7:
  96              		.align	2
  97              	.L6:
  98 0008 00000000 		.word	CyRamVectors
  99              		.cfi_endproc
ARM GAS  C:\Users\Helon\AppData\Local\Temp\ccIsqGNC.s 			page 9


 100              	.LFE6:
 101              		.size	TimerInterrupt_SetVector, .-TimerInterrupt_SetVector
 102              		.section	.text.TimerInterrupt_GetVector,"ax",%progbits
 103              		.align	1
 104              		.global	TimerInterrupt_GetVector
 105              		.code	16
 106              		.thumb_func
 107              		.type	TimerInterrupt_GetVector, %function
 108              	TimerInterrupt_GetVector:
 109              	.LFB7:
 220:.\Generated_Source\PSoC4/TimerInterrupt.c ****     return CyRamVectors[CYINT_IRQ_BASE + TimerInterrupt__INTC_NUMBER];
 110              		.loc 1 220 0
 111              		.cfi_startproc
 221:.\Generated_Source\PSoC4/TimerInterrupt.c **** }
 112              		.loc 1 221 0
 113 0000 014B     		ldr	r3, .L9
 222:.\Generated_Source\PSoC4/TimerInterrupt.c **** 
 114              		.loc 1 222 0
 115              		@ sp needed
 221:.\Generated_Source\PSoC4/TimerInterrupt.c **** }
 116              		.loc 1 221 0
 117 0002 8C33     		add	r3, r3, #140
 118 0004 1868     		ldr	r0, [r3]
 222:.\Generated_Source\PSoC4/TimerInterrupt.c **** 
 119              		.loc 1 222 0
 120 0006 7047     		bx	lr
 121              	.L10:
 122              		.align	2
 123              	.L9:
 124 0008 00000000 		.word	CyRamVectors
 125              		.cfi_endproc
 126              	.LFE7:
 127              		.size	TimerInterrupt_GetVector, .-TimerInterrupt_GetVector
 128              		.section	.text.TimerInterrupt_SetPriority,"ax",%progbits
 129              		.align	1
 130              		.global	TimerInterrupt_SetPriority
 131              		.code	16
 132              		.thumb_func
 133              		.type	TimerInterrupt_SetPriority, %function
 134              	TimerInterrupt_SetPriority:
 135              	.LFB8:
 250:.\Generated_Source\PSoC4/TimerInterrupt.c **** 	uint8 interruptState;
 136              		.loc 1 250 0
 137              		.cfi_startproc
 138              	.LVL2:
 139 0000 10B5     		push	{r4, lr}
 140              		.cfi_def_cfa_offset 8
 141              		.cfi_offset 4, -8
 142              		.cfi_offset 14, -4
 250:.\Generated_Source\PSoC4/TimerInterrupt.c **** 	uint8 interruptState;
 143              		.loc 1 250 0
 144 0002 041C     		mov	r4, r0
 254:.\Generated_Source\PSoC4/TimerInterrupt.c ****     *TimerInterrupt_INTC_PRIOR = (*TimerInterrupt_INTC_PRIOR & (uint32)(~TimerInterrupt__INTC_PRIOR
 145              		.loc 1 254 0
 146 0004 FFF7FEFF 		bl	CyEnterCriticalSection
 147              	.LVL3:
 255:.\Generated_Source\PSoC4/TimerInterrupt.c ****                                     ((uint32)priority << priorityOffset);
ARM GAS  C:\Users\Helon\AppData\Local\Temp\ccIsqGNC.s 			page 10


 148              		.loc 1 255 0
 149 0008 044A     		ldr	r2, .L12
 256:.\Generated_Source\PSoC4/TimerInterrupt.c **** 	CyExitCriticalSection(interruptState);
 150              		.loc 1 256 0
 151 000a A407     		lsl	r4, r4, #30
 255:.\Generated_Source\PSoC4/TimerInterrupt.c ****                                     ((uint32)priority << priorityOffset);
 152              		.loc 1 255 0
 153 000c 1368     		ldr	r3, [r2]
 258:.\Generated_Source\PSoC4/TimerInterrupt.c **** 
 154              		.loc 1 258 0
 155              		@ sp needed
 255:.\Generated_Source\PSoC4/TimerInterrupt.c ****                                     ((uint32)priority << priorityOffset);
 156              		.loc 1 255 0
 157 000e 9B00     		lsl	r3, r3, #2
 158 0010 9B08     		lsr	r3, r3, #2
 159 0012 2343     		orr	r3, r4
 160 0014 1360     		str	r3, [r2]
 257:.\Generated_Source\PSoC4/TimerInterrupt.c **** }
 161              		.loc 1 257 0
 162 0016 FFF7FEFF 		bl	CyExitCriticalSection
 163              	.LVL4:
 258:.\Generated_Source\PSoC4/TimerInterrupt.c **** 
 164              		.loc 1 258 0
 165 001a 10BD     		pop	{r4, pc}
 166              	.L13:
 167              		.align	2
 168              	.L12:
 169 001c 10E400E0 		.word	-536812528
 170              		.cfi_endproc
 171              	.LFE8:
 172              		.size	TimerInterrupt_SetPriority, .-TimerInterrupt_SetPriority
 173              		.section	.text.TimerInterrupt_Start,"ax",%progbits
 174              		.align	1
 175              		.global	TimerInterrupt_Start
 176              		.code	16
 177              		.thumb_func
 178              		.type	TimerInterrupt_Start, %function
 179              	TimerInterrupt_Start:
 180              	.LFB2:
  57:.\Generated_Source\PSoC4/TimerInterrupt.c ****     /* For all we know the interrupt is active. */
 181              		.loc 1 57 0
 182              		.cfi_startproc
 183 0000 10B5     		push	{r4, lr}
 184              		.cfi_def_cfa_offset 8
 185              		.cfi_offset 4, -8
 186              		.cfi_offset 14, -4
 187              	.LBB22:
 188              	.LBB23:
 189              		.loc 1 349 0
 190 0002 8024     		mov	r4, #128
 191 0004 064B     		ldr	r3, .L15
 192 0006 2403     		lsl	r4, r4, #12
 193 0008 1C60     		str	r4, [r3]
 194              	.LVL5:
 195              	.LBE23:
 196              	.LBE22:
 197              	.LBB24:
ARM GAS  C:\Users\Helon\AppData\Local\Temp\ccIsqGNC.s 			page 11


 198              	.LBB25:
 201:.\Generated_Source\PSoC4/TimerInterrupt.c **** }
 199              		.loc 1 201 0
 200 000a 064B     		ldr	r3, .L15+4
 201 000c 064A     		ldr	r2, .L15+8
 202 000e 8C33     		add	r3, r3, #140
 203              	.LBE25:
 204              	.LBE24:
  65:.\Generated_Source\PSoC4/TimerInterrupt.c **** 
 205              		.loc 1 65 0
 206 0010 0320     		mov	r0, #3
 207              	.LBB27:
 208              	.LBB26:
 201:.\Generated_Source\PSoC4/TimerInterrupt.c **** }
 209              		.loc 1 201 0
 210 0012 1A60     		str	r2, [r3]
 211              	.LBE26:
 212              	.LBE27:
  65:.\Generated_Source\PSoC4/TimerInterrupt.c **** 
 213              		.loc 1 65 0
 214 0014 FFF7FEFF 		bl	TimerInterrupt_SetPriority
 215              	.LVL6:
 216              	.LBB28:
 217              	.LBB29:
 307:.\Generated_Source\PSoC4/TimerInterrupt.c **** }
 218              		.loc 1 307 0
 219 0018 044B     		ldr	r3, .L15+12
 220              	.LBE29:
 221              	.LBE28:
  69:.\Generated_Source\PSoC4/TimerInterrupt.c **** 
 222              		.loc 1 69 0
 223              		@ sp needed
 224              	.LBB31:
 225              	.LBB30:
 307:.\Generated_Source\PSoC4/TimerInterrupt.c **** }
 226              		.loc 1 307 0
 227 001a 1C60     		str	r4, [r3]
 228              	.LBE30:
 229              	.LBE31:
  69:.\Generated_Source\PSoC4/TimerInterrupt.c **** 
 230              		.loc 1 69 0
 231 001c 10BD     		pop	{r4, pc}
 232              	.L16:
 233 001e C046     		.align	2
 234              	.L15:
 235 0020 80E100E0 		.word	-536813184
 236 0024 00000000 		.word	CyRamVectors
 237 0028 00000000 		.word	TimerInterrupt_Interrupt
 238 002c 00E100E0 		.word	-536813312
 239              		.cfi_endproc
 240              	.LFE2:
 241              		.size	TimerInterrupt_Start, .-TimerInterrupt_Start
 242              		.section	.text.TimerInterrupt_StartEx,"ax",%progbits
 243              		.align	1
 244              		.global	TimerInterrupt_StartEx
 245              		.code	16
 246              		.thumb_func
ARM GAS  C:\Users\Helon\AppData\Local\Temp\ccIsqGNC.s 			page 12


 247              		.type	TimerInterrupt_StartEx, %function
 248              	TimerInterrupt_StartEx:
 249              	.LFB3:
 100:.\Generated_Source\PSoC4/TimerInterrupt.c ****     /* For all we know the interrupt is active. */
 250              		.loc 1 100 0
 251              		.cfi_startproc
 252              	.LVL7:
 253 0000 10B5     		push	{r4, lr}
 254              		.cfi_def_cfa_offset 8
 255              		.cfi_offset 4, -8
 256              		.cfi_offset 14, -4
 257              	.LBB32:
 258              	.LBB33:
 259              		.loc 1 349 0
 260 0002 8024     		mov	r4, #128
 261 0004 054B     		ldr	r3, .L18
 262 0006 2403     		lsl	r4, r4, #12
 263 0008 1C60     		str	r4, [r3]
 264              	.LVL8:
 265              	.LBE33:
 266              	.LBE32:
 267              	.LBB34:
 268              	.LBB35:
 201:.\Generated_Source\PSoC4/TimerInterrupt.c **** }
 269              		.loc 1 201 0
 270 000a 054B     		ldr	r3, .L18+4
 271              	.LBE35:
 272              	.LBE34:
 112:.\Generated_Source\PSoC4/TimerInterrupt.c **** 
 273              		.loc 1 112 0
 274              		@ sp needed
 275              	.LBB37:
 276              	.LBB36:
 201:.\Generated_Source\PSoC4/TimerInterrupt.c **** }
 277              		.loc 1 201 0
 278 000c 8C33     		add	r3, r3, #140
 279 000e 1860     		str	r0, [r3]
 280              	.LBE36:
 281              	.LBE37:
 108:.\Generated_Source\PSoC4/TimerInterrupt.c **** 
 282              		.loc 1 108 0
 283 0010 0320     		mov	r0, #3
 284              	.LVL9:
 285 0012 FFF7FEFF 		bl	TimerInterrupt_SetPriority
 286              	.LVL10:
 287              	.LBB38:
 288              	.LBB39:
 307:.\Generated_Source\PSoC4/TimerInterrupt.c **** }
 289              		.loc 1 307 0
 290 0016 034B     		ldr	r3, .L18+8
 291 0018 1C60     		str	r4, [r3]
 292              	.LBE39:
 293              	.LBE38:
 112:.\Generated_Source\PSoC4/TimerInterrupt.c **** 
 294              		.loc 1 112 0
 295 001a 10BD     		pop	{r4, pc}
 296              	.L19:
ARM GAS  C:\Users\Helon\AppData\Local\Temp\ccIsqGNC.s 			page 13


 297              		.align	2
 298              	.L18:
 299 001c 80E100E0 		.word	-536813184
 300 0020 00000000 		.word	CyRamVectors
 301 0024 00E100E0 		.word	-536813312
 302              		.cfi_endproc
 303              	.LFE3:
 304              		.size	TimerInterrupt_StartEx, .-TimerInterrupt_StartEx
 305              		.section	.text.TimerInterrupt_GetPriority,"ax",%progbits
 306              		.align	1
 307              		.global	TimerInterrupt_GetPriority
 308              		.code	16
 309              		.thumb_func
 310              		.type	TimerInterrupt_GetPriority, %function
 311              	TimerInterrupt_GetPriority:
 312              	.LFB9:
 278:.\Generated_Source\PSoC4/TimerInterrupt.c ****     uint32 priority;
 313              		.loc 1 278 0
 314              		.cfi_startproc
 315              	.LVL11:
 282:.\Generated_Source\PSoC4/TimerInterrupt.c **** 
 316              		.loc 1 282 0
 317 0000 014B     		ldr	r3, .L21
 285:.\Generated_Source\PSoC4/TimerInterrupt.c **** 
 318              		.loc 1 285 0
 319              		@ sp needed
 282:.\Generated_Source\PSoC4/TimerInterrupt.c **** 
 320              		.loc 1 282 0
 321 0002 1868     		ldr	r0, [r3]
 322              	.LVL12:
 284:.\Generated_Source\PSoC4/TimerInterrupt.c **** }
 323              		.loc 1 284 0
 324 0004 800F     		lsr	r0, r0, #30
 325              	.LVL13:
 285:.\Generated_Source\PSoC4/TimerInterrupt.c **** 
 326              		.loc 1 285 0
 327 0006 7047     		bx	lr
 328              	.L22:
 329              		.align	2
 330              	.L21:
 331 0008 10E400E0 		.word	-536812528
 332              		.cfi_endproc
 333              	.LFE9:
 334              		.size	TimerInterrupt_GetPriority, .-TimerInterrupt_GetPriority
 335              		.section	.text.TimerInterrupt_Enable,"ax",%progbits
 336              		.align	1
 337              		.global	TimerInterrupt_Enable
 338              		.code	16
 339              		.thumb_func
 340              		.type	TimerInterrupt_Enable, %function
 341              	TimerInterrupt_Enable:
 342              	.LFB10:
 305:.\Generated_Source\PSoC4/TimerInterrupt.c ****     /* Enable the general interrupt. */
 343              		.loc 1 305 0
 344              		.cfi_startproc
 307:.\Generated_Source\PSoC4/TimerInterrupt.c **** }
 345              		.loc 1 307 0
ARM GAS  C:\Users\Helon\AppData\Local\Temp\ccIsqGNC.s 			page 14


 346 0000 8022     		mov	r2, #128
 347 0002 024B     		ldr	r3, .L24
 348 0004 1203     		lsl	r2, r2, #12
 349 0006 1A60     		str	r2, [r3]
 308:.\Generated_Source\PSoC4/TimerInterrupt.c **** 
 350              		.loc 1 308 0
 351              		@ sp needed
 352 0008 7047     		bx	lr
 353              	.L25:
 354 000a C046     		.align	2
 355              	.L24:
 356 000c 00E100E0 		.word	-536813312
 357              		.cfi_endproc
 358              	.LFE10:
 359              		.size	TimerInterrupt_Enable, .-TimerInterrupt_Enable
 360              		.section	.text.TimerInterrupt_GetState,"ax",%progbits
 361              		.align	1
 362              		.global	TimerInterrupt_GetState
 363              		.code	16
 364              		.thumb_func
 365              		.type	TimerInterrupt_GetState, %function
 366              	TimerInterrupt_GetState:
 367              	.LFB11:
 326:.\Generated_Source\PSoC4/TimerInterrupt.c ****     /* Get the state of the general interrupt. */
 368              		.loc 1 326 0
 369              		.cfi_startproc
 328:.\Generated_Source\PSoC4/TimerInterrupt.c **** }
 370              		.loc 1 328 0
 371 0000 024B     		ldr	r3, .L27
 329:.\Generated_Source\PSoC4/TimerInterrupt.c **** 
 372              		.loc 1 329 0
 373              		@ sp needed
 328:.\Generated_Source\PSoC4/TimerInterrupt.c **** }
 374              		.loc 1 328 0
 375 0002 1868     		ldr	r0, [r3]
 376 0004 0003     		lsl	r0, r0, #12
 377 0006 C00F     		lsr	r0, r0, #31
 329:.\Generated_Source\PSoC4/TimerInterrupt.c **** 
 378              		.loc 1 329 0
 379 0008 7047     		bx	lr
 380              	.L28:
 381 000a C046     		.align	2
 382              	.L27:
 383 000c 00E100E0 		.word	-536813312
 384              		.cfi_endproc
 385              	.LFE11:
 386              		.size	TimerInterrupt_GetState, .-TimerInterrupt_GetState
 387              		.section	.text.TimerInterrupt_Disable,"ax",%progbits
 388              		.align	1
 389              		.global	TimerInterrupt_Disable
 390              		.code	16
 391              		.thumb_func
 392              		.type	TimerInterrupt_Disable, %function
 393              	TimerInterrupt_Disable:
 394              	.LFB12:
 347:.\Generated_Source\PSoC4/TimerInterrupt.c ****     /* Disable the general interrupt. */
 395              		.loc 1 347 0
ARM GAS  C:\Users\Helon\AppData\Local\Temp\ccIsqGNC.s 			page 15


 396              		.cfi_startproc
 397              		.loc 1 349 0
 398 0000 8022     		mov	r2, #128
 399 0002 024B     		ldr	r3, .L30
 400 0004 1203     		lsl	r2, r2, #12
 401 0006 1A60     		str	r2, [r3]
 350:.\Generated_Source\PSoC4/TimerInterrupt.c **** }
 402              		.loc 1 350 0
 403              		@ sp needed
 404 0008 7047     		bx	lr
 405              	.L31:
 406 000a C046     		.align	2
 407              	.L30:
 408 000c 80E100E0 		.word	-536813184
 409              		.cfi_endproc
 410              	.LFE12:
 411              		.size	TimerInterrupt_Disable, .-TimerInterrupt_Disable
 412              		.section	.text.TimerInterrupt_SetPending,"ax",%progbits
 413              		.align	1
 414              		.global	TimerInterrupt_SetPending
 415              		.code	16
 416              		.thumb_func
 417              		.type	TimerInterrupt_SetPending, %function
 418              	TimerInterrupt_SetPending:
 419              	.LFB13:
 351:.\Generated_Source\PSoC4/TimerInterrupt.c **** 
 352:.\Generated_Source\PSoC4/TimerInterrupt.c **** 
 353:.\Generated_Source\PSoC4/TimerInterrupt.c **** /*******************************************************************************
 354:.\Generated_Source\PSoC4/TimerInterrupt.c **** * Function Name: TimerInterrupt_SetPending
 355:.\Generated_Source\PSoC4/TimerInterrupt.c **** ********************************************************************************
 356:.\Generated_Source\PSoC4/TimerInterrupt.c **** *
 357:.\Generated_Source\PSoC4/TimerInterrupt.c **** * Summary:
 358:.\Generated_Source\PSoC4/TimerInterrupt.c **** *   Causes the Interrupt to enter the pending state, a software method of
 359:.\Generated_Source\PSoC4/TimerInterrupt.c **** *   generating the interrupt.
 360:.\Generated_Source\PSoC4/TimerInterrupt.c **** *
 361:.\Generated_Source\PSoC4/TimerInterrupt.c **** * Parameters:
 362:.\Generated_Source\PSoC4/TimerInterrupt.c **** *   None
 363:.\Generated_Source\PSoC4/TimerInterrupt.c **** *
 364:.\Generated_Source\PSoC4/TimerInterrupt.c **** * Return:
 365:.\Generated_Source\PSoC4/TimerInterrupt.c **** *   None
 366:.\Generated_Source\PSoC4/TimerInterrupt.c **** *
 367:.\Generated_Source\PSoC4/TimerInterrupt.c **** * Side Effects:
 368:.\Generated_Source\PSoC4/TimerInterrupt.c **** *   If interrupts are enabled and the interrupt is set up properly, the ISR is
 369:.\Generated_Source\PSoC4/TimerInterrupt.c **** *   entered (depending on the priority of this interrupt and other pending 
 370:.\Generated_Source\PSoC4/TimerInterrupt.c **** *   interrupts).
 371:.\Generated_Source\PSoC4/TimerInterrupt.c **** *
 372:.\Generated_Source\PSoC4/TimerInterrupt.c **** *******************************************************************************/
 373:.\Generated_Source\PSoC4/TimerInterrupt.c **** void TimerInterrupt_SetPending(void)
 374:.\Generated_Source\PSoC4/TimerInterrupt.c **** {
 420              		.loc 1 374 0
 421              		.cfi_startproc
 375:.\Generated_Source\PSoC4/TimerInterrupt.c ****     *TimerInterrupt_INTC_SET_PD = TimerInterrupt__INTC_MASK;
 422              		.loc 1 375 0
 423 0000 8022     		mov	r2, #128
 424 0002 024B     		ldr	r3, .L33
 425 0004 1203     		lsl	r2, r2, #12
 426 0006 1A60     		str	r2, [r3]
ARM GAS  C:\Users\Helon\AppData\Local\Temp\ccIsqGNC.s 			page 16


 376:.\Generated_Source\PSoC4/TimerInterrupt.c **** }
 427              		.loc 1 376 0
 428              		@ sp needed
 429 0008 7047     		bx	lr
 430              	.L34:
 431 000a C046     		.align	2
 432              	.L33:
 433 000c 00E200E0 		.word	-536813056
 434              		.cfi_endproc
 435              	.LFE13:
 436              		.size	TimerInterrupt_SetPending, .-TimerInterrupt_SetPending
 437              		.section	.text.TimerInterrupt_ClearPending,"ax",%progbits
 438              		.align	1
 439              		.global	TimerInterrupt_ClearPending
 440              		.code	16
 441              		.thumb_func
 442              		.type	TimerInterrupt_ClearPending, %function
 443              	TimerInterrupt_ClearPending:
 444              	.LFB14:
 377:.\Generated_Source\PSoC4/TimerInterrupt.c **** 
 378:.\Generated_Source\PSoC4/TimerInterrupt.c **** 
 379:.\Generated_Source\PSoC4/TimerInterrupt.c **** /*******************************************************************************
 380:.\Generated_Source\PSoC4/TimerInterrupt.c **** * Function Name: TimerInterrupt_ClearPending
 381:.\Generated_Source\PSoC4/TimerInterrupt.c **** ********************************************************************************
 382:.\Generated_Source\PSoC4/TimerInterrupt.c **** *
 383:.\Generated_Source\PSoC4/TimerInterrupt.c **** * Summary:
 384:.\Generated_Source\PSoC4/TimerInterrupt.c **** *   Clears a pending interrupt in the interrupt controller.
 385:.\Generated_Source\PSoC4/TimerInterrupt.c **** *
 386:.\Generated_Source\PSoC4/TimerInterrupt.c **** *   Note Some interrupt sources are clear-on-read and require the block 
 387:.\Generated_Source\PSoC4/TimerInterrupt.c **** *   interrupt/status register to be read/cleared with the appropriate block API 
 388:.\Generated_Source\PSoC4/TimerInterrupt.c **** *   (GPIO, UART, and so on). Otherwise the ISR will continue to remain in 
 389:.\Generated_Source\PSoC4/TimerInterrupt.c **** *   pending state even though the interrupt itself is cleared using this API.
 390:.\Generated_Source\PSoC4/TimerInterrupt.c **** *
 391:.\Generated_Source\PSoC4/TimerInterrupt.c **** * Parameters:
 392:.\Generated_Source\PSoC4/TimerInterrupt.c **** *   None
 393:.\Generated_Source\PSoC4/TimerInterrupt.c **** *
 394:.\Generated_Source\PSoC4/TimerInterrupt.c **** * Return:
 395:.\Generated_Source\PSoC4/TimerInterrupt.c **** *   None
 396:.\Generated_Source\PSoC4/TimerInterrupt.c **** *
 397:.\Generated_Source\PSoC4/TimerInterrupt.c **** *******************************************************************************/
 398:.\Generated_Source\PSoC4/TimerInterrupt.c **** void TimerInterrupt_ClearPending(void)
 399:.\Generated_Source\PSoC4/TimerInterrupt.c **** {
 445              		.loc 1 399 0
 446              		.cfi_startproc
 400:.\Generated_Source\PSoC4/TimerInterrupt.c ****     *TimerInterrupt_INTC_CLR_PD = TimerInterrupt__INTC_MASK;
 447              		.loc 1 400 0
 448 0000 8022     		mov	r2, #128
 449 0002 024B     		ldr	r3, .L36
 450 0004 1203     		lsl	r2, r2, #12
 451 0006 1A60     		str	r2, [r3]
 401:.\Generated_Source\PSoC4/TimerInterrupt.c **** }
 452              		.loc 1 401 0
 453              		@ sp needed
 454 0008 7047     		bx	lr
 455              	.L37:
 456 000a C046     		.align	2
 457              	.L36:
ARM GAS  C:\Users\Helon\AppData\Local\Temp\ccIsqGNC.s 			page 17


 458 000c 80E200E0 		.word	-536812928
 459              		.cfi_endproc
 460              	.LFE14:
 461              		.size	TimerInterrupt_ClearPending, .-TimerInterrupt_ClearPending
 462              		.text
 463              	.Letext0:
 464              		.file 2 "Generated_Source\\PSoC4/cytypes.h"
 465              		.file 3 "Generated_Source\\PSoC4/CyLib.h"