ARM GAS  C:\Users\Helon\AppData\Local\Temp\cc1lFCAz.s 			page 1


   1              		.cpu cortex-m0
   2              		.fpu softvfp
   3              		.eabi_attribute 20, 1
   4              		.eabi_attribute 21, 1
   5              		.eabi_attribute 23, 3
   6              		.eabi_attribute 24, 1
   7              		.eabi_attribute 25, 1
   8              		.eabi_attribute 26, 1
   9              		.eabi_attribute 30, 4
  10              		.eabi_attribute 34, 0
  11              		.eabi_attribute 18, 4
  12              		.code	16
  13              		.file	"Timer_PM.c"
  14              		.text
  15              	.Ltext0:
  16              		.cfi_sections	.debug_frame
  17              		.section	.text.Timer_SaveConfig,"ax",%progbits
  18              		.align	1
  19              		.global	Timer_SaveConfig
  20              		.code	16
  21              		.thumb_func
  22              		.type	Timer_SaveConfig, %function
  23              	Timer_SaveConfig:
  24              	.LFB2:
  25              		.file 1 ".\\Generated_Source\\PSoC4\\Timer_PM.c"
   1:.\Generated_Source\PSoC4/Timer_PM.c **** /*******************************************************************************
   2:.\Generated_Source\PSoC4/Timer_PM.c **** * File Name: Timer_PM.c
   3:.\Generated_Source\PSoC4/Timer_PM.c **** * Version 2.10
   4:.\Generated_Source\PSoC4/Timer_PM.c **** *
   5:.\Generated_Source\PSoC4/Timer_PM.c **** * Description:
   6:.\Generated_Source\PSoC4/Timer_PM.c **** *  This file contains the setup, control, and status commands to support
   7:.\Generated_Source\PSoC4/Timer_PM.c **** *  the component operations in the low power mode.
   8:.\Generated_Source\PSoC4/Timer_PM.c **** *
   9:.\Generated_Source\PSoC4/Timer_PM.c **** * Note:
  10:.\Generated_Source\PSoC4/Timer_PM.c **** *  None
  11:.\Generated_Source\PSoC4/Timer_PM.c **** *
  12:.\Generated_Source\PSoC4/Timer_PM.c **** ********************************************************************************
  13:.\Generated_Source\PSoC4/Timer_PM.c **** * Copyright 2013-2015, Cypress Semiconductor Corporation.  All rights reserved.
  14:.\Generated_Source\PSoC4/Timer_PM.c **** * You may use this file only in accordance with the license, terms, conditions,
  15:.\Generated_Source\PSoC4/Timer_PM.c **** * disclaimers, and limitations in the end user license agreement accompanying
  16:.\Generated_Source\PSoC4/Timer_PM.c **** * the software package with which this file was provided.
  17:.\Generated_Source\PSoC4/Timer_PM.c **** *******************************************************************************/
  18:.\Generated_Source\PSoC4/Timer_PM.c **** 
  19:.\Generated_Source\PSoC4/Timer_PM.c **** #include "Timer.h"
  20:.\Generated_Source\PSoC4/Timer_PM.c **** 
  21:.\Generated_Source\PSoC4/Timer_PM.c **** static Timer_BACKUP_STRUCT Timer_backup;
  22:.\Generated_Source\PSoC4/Timer_PM.c **** 
  23:.\Generated_Source\PSoC4/Timer_PM.c **** 
  24:.\Generated_Source\PSoC4/Timer_PM.c **** /*******************************************************************************
  25:.\Generated_Source\PSoC4/Timer_PM.c **** * Function Name: Timer_SaveConfig
  26:.\Generated_Source\PSoC4/Timer_PM.c **** ********************************************************************************
  27:.\Generated_Source\PSoC4/Timer_PM.c **** *
  28:.\Generated_Source\PSoC4/Timer_PM.c **** * Summary:
  29:.\Generated_Source\PSoC4/Timer_PM.c **** *  All configuration registers are retention. Nothing to save here.
  30:.\Generated_Source\PSoC4/Timer_PM.c **** *
  31:.\Generated_Source\PSoC4/Timer_PM.c **** * Parameters:
  32:.\Generated_Source\PSoC4/Timer_PM.c **** *  None
ARM GAS  C:\Users\Helon\AppData\Local\Temp\cc1lFCAz.s 			page 2


  33:.\Generated_Source\PSoC4/Timer_PM.c **** *
  34:.\Generated_Source\PSoC4/Timer_PM.c **** * Return:
  35:.\Generated_Source\PSoC4/Timer_PM.c **** *  None
  36:.\Generated_Source\PSoC4/Timer_PM.c **** *
  37:.\Generated_Source\PSoC4/Timer_PM.c **** *******************************************************************************/
  38:.\Generated_Source\PSoC4/Timer_PM.c **** void Timer_SaveConfig(void)
  39:.\Generated_Source\PSoC4/Timer_PM.c **** {
  26              		.loc 1 39 0
  27              		.cfi_startproc
  40:.\Generated_Source\PSoC4/Timer_PM.c **** 
  41:.\Generated_Source\PSoC4/Timer_PM.c **** }
  28              		.loc 1 41 0
  29              		@ sp needed
  30 0000 7047     		bx	lr
  31              		.cfi_endproc
  32              	.LFE2:
  33              		.size	Timer_SaveConfig, .-Timer_SaveConfig
  34              		.section	.text.Timer_Sleep,"ax",%progbits
  35              		.align	1
  36              		.global	Timer_Sleep
  37              		.code	16
  38              		.thumb_func
  39              		.type	Timer_Sleep, %function
  40              	Timer_Sleep:
  41              	.LFB3:
  42:.\Generated_Source\PSoC4/Timer_PM.c **** 
  43:.\Generated_Source\PSoC4/Timer_PM.c **** 
  44:.\Generated_Source\PSoC4/Timer_PM.c **** /*******************************************************************************
  45:.\Generated_Source\PSoC4/Timer_PM.c **** * Function Name: Timer_Sleep
  46:.\Generated_Source\PSoC4/Timer_PM.c **** ********************************************************************************
  47:.\Generated_Source\PSoC4/Timer_PM.c **** *
  48:.\Generated_Source\PSoC4/Timer_PM.c **** * Summary:
  49:.\Generated_Source\PSoC4/Timer_PM.c **** *  Stops the component operation and saves the user configuration.
  50:.\Generated_Source\PSoC4/Timer_PM.c **** *
  51:.\Generated_Source\PSoC4/Timer_PM.c **** * Parameters:
  52:.\Generated_Source\PSoC4/Timer_PM.c **** *  None
  53:.\Generated_Source\PSoC4/Timer_PM.c **** *
  54:.\Generated_Source\PSoC4/Timer_PM.c **** * Return:
  55:.\Generated_Source\PSoC4/Timer_PM.c **** *  None
  56:.\Generated_Source\PSoC4/Timer_PM.c **** *
  57:.\Generated_Source\PSoC4/Timer_PM.c **** *******************************************************************************/
  58:.\Generated_Source\PSoC4/Timer_PM.c **** void Timer_Sleep(void)
  59:.\Generated_Source\PSoC4/Timer_PM.c **** {
  42              		.loc 1 59 0
  43              		.cfi_startproc
  44 0000 08B5     		push	{r3, lr}
  45              		.cfi_def_cfa_offset 8
  46              		.cfi_offset 3, -8
  47              		.cfi_offset 14, -4
  60:.\Generated_Source\PSoC4/Timer_PM.c ****     if(0u != (Timer_BLOCK_CONTROL_REG & Timer_MASK))
  48              		.loc 1 60 0
  49 0002 054B     		ldr	r3, .L6
  50 0004 1A68     		ldr	r2, [r3]
  51 0006 0423     		mov	r3, #4
  52 0008 1340     		and	r3, r2
  53 000a 044A     		ldr	r2, .L6+4
  54 000c 00D0     		beq	.L3
ARM GAS  C:\Users\Helon\AppData\Local\Temp\cc1lFCAz.s 			page 3


  61:.\Generated_Source\PSoC4/Timer_PM.c ****     {
  62:.\Generated_Source\PSoC4/Timer_PM.c ****         Timer_backup.enableState = 1u;
  55              		.loc 1 62 0
  56 000e 0123     		mov	r3, #1
  57              	.L3:
  63:.\Generated_Source\PSoC4/Timer_PM.c ****     }
  64:.\Generated_Source\PSoC4/Timer_PM.c ****     else
  65:.\Generated_Source\PSoC4/Timer_PM.c ****     {
  66:.\Generated_Source\PSoC4/Timer_PM.c ****         Timer_backup.enableState = 0u;
  58              		.loc 1 66 0
  59 0010 1370     		strb	r3, [r2]
  67:.\Generated_Source\PSoC4/Timer_PM.c ****     }
  68:.\Generated_Source\PSoC4/Timer_PM.c **** 
  69:.\Generated_Source\PSoC4/Timer_PM.c ****     Timer_Stop();
  70:.\Generated_Source\PSoC4/Timer_PM.c ****     Timer_SaveConfig();
  71:.\Generated_Source\PSoC4/Timer_PM.c **** }
  60              		.loc 1 71 0
  61              		@ sp needed
  69:.\Generated_Source\PSoC4/Timer_PM.c ****     Timer_SaveConfig();
  62              		.loc 1 69 0
  63 0012 FFF7FEFF 		bl	Timer_Stop
  64              	.LVL0:
  65              		.loc 1 71 0
  66 0016 08BD     		pop	{r3, pc}
  67              	.L7:
  68              		.align	2
  69              	.L6:
  70 0018 00002040 		.word	1075838976
  71 001c 00000000 		.word	.LANCHOR0
  72              		.cfi_endproc
  73              	.LFE3:
  74              		.size	Timer_Sleep, .-Timer_Sleep
  75              		.section	.text.Timer_RestoreConfig,"ax",%progbits
  76              		.align	1
  77              		.global	Timer_RestoreConfig
  78              		.code	16
  79              		.thumb_func
  80              		.type	Timer_RestoreConfig, %function
  81              	Timer_RestoreConfig:
  82              	.LFB4:
  72:.\Generated_Source\PSoC4/Timer_PM.c **** 
  73:.\Generated_Source\PSoC4/Timer_PM.c **** 
  74:.\Generated_Source\PSoC4/Timer_PM.c **** /*******************************************************************************
  75:.\Generated_Source\PSoC4/Timer_PM.c **** * Function Name: Timer_RestoreConfig
  76:.\Generated_Source\PSoC4/Timer_PM.c **** ********************************************************************************
  77:.\Generated_Source\PSoC4/Timer_PM.c **** *
  78:.\Generated_Source\PSoC4/Timer_PM.c **** * Summary:
  79:.\Generated_Source\PSoC4/Timer_PM.c **** *  All configuration registers are retention. Nothing to restore here.
  80:.\Generated_Source\PSoC4/Timer_PM.c **** *
  81:.\Generated_Source\PSoC4/Timer_PM.c **** * Parameters:
  82:.\Generated_Source\PSoC4/Timer_PM.c **** *  None
  83:.\Generated_Source\PSoC4/Timer_PM.c **** *
  84:.\Generated_Source\PSoC4/Timer_PM.c **** * Return:
  85:.\Generated_Source\PSoC4/Timer_PM.c **** *  None
  86:.\Generated_Source\PSoC4/Timer_PM.c **** *
  87:.\Generated_Source\PSoC4/Timer_PM.c **** *******************************************************************************/
  88:.\Generated_Source\PSoC4/Timer_PM.c **** void Timer_RestoreConfig(void)
ARM GAS  C:\Users\Helon\AppData\Local\Temp\cc1lFCAz.s 			page 4


  89:.\Generated_Source\PSoC4/Timer_PM.c **** {
  83              		.loc 1 89 0
  84              		.cfi_startproc
  90:.\Generated_Source\PSoC4/Timer_PM.c **** 
  91:.\Generated_Source\PSoC4/Timer_PM.c **** }
  85              		.loc 1 91 0
  86              		@ sp needed
  87 0000 7047     		bx	lr
  88              		.cfi_endproc
  89              	.LFE4:
  90              		.size	Timer_RestoreConfig, .-Timer_RestoreConfig
  91              		.section	.text.Timer_Wakeup,"ax",%progbits
  92              		.align	1
  93              		.global	Timer_Wakeup
  94              		.code	16
  95              		.thumb_func
  96              		.type	Timer_Wakeup, %function
  97              	Timer_Wakeup:
  98              	.LFB5:
  92:.\Generated_Source\PSoC4/Timer_PM.c **** 
  93:.\Generated_Source\PSoC4/Timer_PM.c **** 
  94:.\Generated_Source\PSoC4/Timer_PM.c **** /*******************************************************************************
  95:.\Generated_Source\PSoC4/Timer_PM.c **** * Function Name: Timer_Wakeup
  96:.\Generated_Source\PSoC4/Timer_PM.c **** ********************************************************************************
  97:.\Generated_Source\PSoC4/Timer_PM.c **** *
  98:.\Generated_Source\PSoC4/Timer_PM.c **** * Summary:
  99:.\Generated_Source\PSoC4/Timer_PM.c **** *  Restores the user configuration and restores the enable state.
 100:.\Generated_Source\PSoC4/Timer_PM.c **** *
 101:.\Generated_Source\PSoC4/Timer_PM.c **** * Parameters:
 102:.\Generated_Source\PSoC4/Timer_PM.c **** *  None
 103:.\Generated_Source\PSoC4/Timer_PM.c **** *
 104:.\Generated_Source\PSoC4/Timer_PM.c **** * Return:
 105:.\Generated_Source\PSoC4/Timer_PM.c **** *  None
 106:.\Generated_Source\PSoC4/Timer_PM.c **** *
 107:.\Generated_Source\PSoC4/Timer_PM.c **** *******************************************************************************/
 108:.\Generated_Source\PSoC4/Timer_PM.c **** void Timer_Wakeup(void)
 109:.\Generated_Source\PSoC4/Timer_PM.c **** {
  99              		.loc 1 109 0
 100              		.cfi_startproc
 101 0000 08B5     		push	{r3, lr}
 102              		.cfi_def_cfa_offset 8
 103              		.cfi_offset 3, -8
 104              		.cfi_offset 14, -4
 110:.\Generated_Source\PSoC4/Timer_PM.c ****     Timer_RestoreConfig();
 111:.\Generated_Source\PSoC4/Timer_PM.c **** 
 112:.\Generated_Source\PSoC4/Timer_PM.c ****     if(0u != Timer_backup.enableState)
 105              		.loc 1 112 0
 106 0002 034B     		ldr	r3, .L14
 107 0004 1B78     		ldrb	r3, [r3]
 108 0006 002B     		cmp	r3, #0
 109 0008 01D0     		beq	.L9
 113:.\Generated_Source\PSoC4/Timer_PM.c ****     {
 114:.\Generated_Source\PSoC4/Timer_PM.c ****         Timer_Enable();
 110              		.loc 1 114 0
 111 000a FFF7FEFF 		bl	Timer_Enable
 112              	.LVL1:
 113              	.L9:
ARM GAS  C:\Users\Helon\AppData\Local\Temp\cc1lFCAz.s 			page 5


 115:.\Generated_Source\PSoC4/Timer_PM.c ****     }
 116:.\Generated_Source\PSoC4/Timer_PM.c **** }
 114              		.loc 1 116 0
 115              		@ sp needed
 116 000e 08BD     		pop	{r3, pc}
 117              	.L15:
 118              		.align	2
 119              	.L14:
 120 0010 00000000 		.word	.LANCHOR0
 121              		.cfi_endproc
 122              	.LFE5:
 123              		.size	Timer_Wakeup, .-Timer_Wakeup
 124              		.bss
 125              		.set	.LANCHOR0,. + 0
 126              		.type	Timer_backup, %object
 127              		.size	Timer_backup, 1
 128              	Timer_backup:
 129 0000 00       		.space	1
 130              		.text
 131              	.Letext0:
 132              		.file 2 ".\\Generated_Source\\PSoC4\\cytypes.h"
 133              		.file 3 ".\\Generated_Source\\PSoC4\\Timer.h"