ARM GAS  C:\Users\Helon\AppData\Local\Temp\cc29ZTyE.s 			page 1


   1              		.cpu cortex-m0
   2              		.fpu softvfp
   3              		.eabi_attribute 20, 1
   4              		.eabi_attribute 21, 1
   5              		.eabi_attribute 23, 3
   6              		.eabi_attribute 24, 1
   7              		.eabi_attribute 25, 1
   8              		.eabi_attribute 26, 1
   9              		.eabi_attribute 30, 4
  10              		.eabi_attribute 34, 0
  11              		.eabi_attribute 18, 4
  12              		.code	16
  13              		.file	"UART_UART.c"
  14              		.text
  15              	.Ltext0:
  16              		.cfi_sections	.debug_frame
  17              		.section	.text.UART_UART_WAKEUP_ISR,"ax",%progbits
  18              		.align	1
  19              		.global	UART_UART_WAKEUP_ISR
  20              		.code	16
  21              		.thumb_func
  22              		.type	UART_UART_WAKEUP_ISR, %function
  23              	UART_UART_WAKEUP_ISR:
  24              	.LFB18:
  25              		.file 1 ".\\Generated_Source\\PSoC4\\UART_UART.c"
   1:.\Generated_Source\PSoC4/UART_UART.c **** /*******************************************************************************
   2:.\Generated_Source\PSoC4/UART_UART.c **** * File Name: UART_UART.c
   3:.\Generated_Source\PSoC4/UART_UART.c **** * Version 3.10
   4:.\Generated_Source\PSoC4/UART_UART.c **** *
   5:.\Generated_Source\PSoC4/UART_UART.c **** * Description:
   6:.\Generated_Source\PSoC4/UART_UART.c **** *  This file provides the source code to the API for the SCB Component in
   7:.\Generated_Source\PSoC4/UART_UART.c **** *  UART mode.
   8:.\Generated_Source\PSoC4/UART_UART.c **** *
   9:.\Generated_Source\PSoC4/UART_UART.c **** * Note:
  10:.\Generated_Source\PSoC4/UART_UART.c **** *
  11:.\Generated_Source\PSoC4/UART_UART.c **** *******************************************************************************
  12:.\Generated_Source\PSoC4/UART_UART.c **** * Copyright 2013-2015, Cypress Semiconductor Corporation.  All rights reserved.
  13:.\Generated_Source\PSoC4/UART_UART.c **** * You may use this file only in accordance with the license, terms, conditions,
  14:.\Generated_Source\PSoC4/UART_UART.c **** * disclaimers, and limitations in the end user license agreement accompanying
  15:.\Generated_Source\PSoC4/UART_UART.c **** * the software package with which this file was provided.
  16:.\Generated_Source\PSoC4/UART_UART.c **** *******************************************************************************/
  17:.\Generated_Source\PSoC4/UART_UART.c **** 
  18:.\Generated_Source\PSoC4/UART_UART.c **** #include "UART_PVT.h"
  19:.\Generated_Source\PSoC4/UART_UART.c **** #include "UART_SPI_UART_PVT.h"
  20:.\Generated_Source\PSoC4/UART_UART.c **** #include "cyapicallbacks.h"
  21:.\Generated_Source\PSoC4/UART_UART.c **** 
  22:.\Generated_Source\PSoC4/UART_UART.c **** #if(UART_SCB_MODE_UNCONFIG_CONST_CFG)
  23:.\Generated_Source\PSoC4/UART_UART.c **** 
  24:.\Generated_Source\PSoC4/UART_UART.c ****     /***************************************
  25:.\Generated_Source\PSoC4/UART_UART.c ****     *  Configuration Structure Initialization
  26:.\Generated_Source\PSoC4/UART_UART.c ****     ***************************************/
  27:.\Generated_Source\PSoC4/UART_UART.c **** 
  28:.\Generated_Source\PSoC4/UART_UART.c ****     const UART_UART_INIT_STRUCT UART_configUart =
  29:.\Generated_Source\PSoC4/UART_UART.c ****     {
  30:.\Generated_Source\PSoC4/UART_UART.c ****         UART_UART_SUB_MODE,
  31:.\Generated_Source\PSoC4/UART_UART.c ****         UART_UART_DIRECTION,
  32:.\Generated_Source\PSoC4/UART_UART.c ****         UART_UART_DATA_BITS_NUM,
ARM GAS  C:\Users\Helon\AppData\Local\Temp\cc29ZTyE.s 			page 2


  33:.\Generated_Source\PSoC4/UART_UART.c ****         UART_UART_PARITY_TYPE,
  34:.\Generated_Source\PSoC4/UART_UART.c ****         UART_UART_STOP_BITS_NUM,
  35:.\Generated_Source\PSoC4/UART_UART.c ****         UART_UART_OVS_FACTOR,
  36:.\Generated_Source\PSoC4/UART_UART.c ****         UART_UART_IRDA_LOW_POWER,
  37:.\Generated_Source\PSoC4/UART_UART.c ****         UART_UART_MEDIAN_FILTER_ENABLE,
  38:.\Generated_Source\PSoC4/UART_UART.c ****         UART_UART_RETRY_ON_NACK,
  39:.\Generated_Source\PSoC4/UART_UART.c ****         UART_UART_IRDA_POLARITY,
  40:.\Generated_Source\PSoC4/UART_UART.c ****         UART_UART_DROP_ON_PARITY_ERR,
  41:.\Generated_Source\PSoC4/UART_UART.c ****         UART_UART_DROP_ON_FRAME_ERR,
  42:.\Generated_Source\PSoC4/UART_UART.c ****         UART_UART_WAKE_ENABLE,
  43:.\Generated_Source\PSoC4/UART_UART.c ****         0u,
  44:.\Generated_Source\PSoC4/UART_UART.c ****         NULL,
  45:.\Generated_Source\PSoC4/UART_UART.c ****         0u,
  46:.\Generated_Source\PSoC4/UART_UART.c ****         NULL,
  47:.\Generated_Source\PSoC4/UART_UART.c ****         UART_UART_MP_MODE_ENABLE,
  48:.\Generated_Source\PSoC4/UART_UART.c ****         UART_UART_MP_ACCEPT_ADDRESS,
  49:.\Generated_Source\PSoC4/UART_UART.c ****         UART_UART_MP_RX_ADDRESS,
  50:.\Generated_Source\PSoC4/UART_UART.c ****         UART_UART_MP_RX_ADDRESS_MASK,
  51:.\Generated_Source\PSoC4/UART_UART.c ****         (uint32) UART_SCB_IRQ_INTERNAL,
  52:.\Generated_Source\PSoC4/UART_UART.c ****         UART_UART_INTR_RX_MASK,
  53:.\Generated_Source\PSoC4/UART_UART.c ****         UART_UART_RX_TRIGGER_LEVEL,
  54:.\Generated_Source\PSoC4/UART_UART.c ****         UART_UART_INTR_TX_MASK,
  55:.\Generated_Source\PSoC4/UART_UART.c ****         UART_UART_TX_TRIGGER_LEVEL,
  56:.\Generated_Source\PSoC4/UART_UART.c ****         (uint8) UART_UART_BYTE_MODE_ENABLE,
  57:.\Generated_Source\PSoC4/UART_UART.c ****         (uint8) UART_UART_CTS_ENABLE,
  58:.\Generated_Source\PSoC4/UART_UART.c ****         (uint8) UART_UART_CTS_POLARITY,
  59:.\Generated_Source\PSoC4/UART_UART.c ****         (uint8) UART_UART_RTS_POLARITY,
  60:.\Generated_Source\PSoC4/UART_UART.c ****         (uint8) UART_UART_RTS_FIFO_LEVEL
  61:.\Generated_Source\PSoC4/UART_UART.c ****     };
  62:.\Generated_Source\PSoC4/UART_UART.c **** 
  63:.\Generated_Source\PSoC4/UART_UART.c **** 
  64:.\Generated_Source\PSoC4/UART_UART.c ****     /*******************************************************************************
  65:.\Generated_Source\PSoC4/UART_UART.c ****     * Function Name: UART_UartInit
  66:.\Generated_Source\PSoC4/UART_UART.c ****     ********************************************************************************
  67:.\Generated_Source\PSoC4/UART_UART.c ****     *
  68:.\Generated_Source\PSoC4/UART_UART.c ****     * Summary:
  69:.\Generated_Source\PSoC4/UART_UART.c ****     *  Configures the SCB for the UART operation.
  70:.\Generated_Source\PSoC4/UART_UART.c ****     *
  71:.\Generated_Source\PSoC4/UART_UART.c ****     * Parameters:
  72:.\Generated_Source\PSoC4/UART_UART.c ****     *  config:  Pointer to a structure that contains the following ordered list of
  73:.\Generated_Source\PSoC4/UART_UART.c ****     *           fields. These fields match the selections available in the
  74:.\Generated_Source\PSoC4/UART_UART.c ****     *           customizer.
  75:.\Generated_Source\PSoC4/UART_UART.c ****     *
  76:.\Generated_Source\PSoC4/UART_UART.c ****     * Return:
  77:.\Generated_Source\PSoC4/UART_UART.c ****     *  None
  78:.\Generated_Source\PSoC4/UART_UART.c ****     *
  79:.\Generated_Source\PSoC4/UART_UART.c ****     *******************************************************************************/
  80:.\Generated_Source\PSoC4/UART_UART.c ****     void UART_UartInit(const UART_UART_INIT_STRUCT *config)
  81:.\Generated_Source\PSoC4/UART_UART.c ****     {
  82:.\Generated_Source\PSoC4/UART_UART.c ****         uint32 pinsConfig;
  83:.\Generated_Source\PSoC4/UART_UART.c **** 
  84:.\Generated_Source\PSoC4/UART_UART.c ****         if (NULL == config)
  85:.\Generated_Source\PSoC4/UART_UART.c ****         {
  86:.\Generated_Source\PSoC4/UART_UART.c ****             CYASSERT(0u != 0u); /* Halt execution due to bad function parameter */
  87:.\Generated_Source\PSoC4/UART_UART.c ****         }
  88:.\Generated_Source\PSoC4/UART_UART.c ****         else
  89:.\Generated_Source\PSoC4/UART_UART.c ****         {
ARM GAS  C:\Users\Helon\AppData\Local\Temp\cc29ZTyE.s 			page 3


  90:.\Generated_Source\PSoC4/UART_UART.c ****             /* Get direction to configure UART pins: TX, RX or TX+RX */
  91:.\Generated_Source\PSoC4/UART_UART.c ****             pinsConfig  = config->direction;
  92:.\Generated_Source\PSoC4/UART_UART.c **** 
  93:.\Generated_Source\PSoC4/UART_UART.c ****         #if !(UART_CY_SCBIP_V0 || UART_CY_SCBIP_V1)
  94:.\Generated_Source\PSoC4/UART_UART.c ****             /* Add RTS and CTS pins to configure */
  95:.\Generated_Source\PSoC4/UART_UART.c ****             pinsConfig |= (0u != config->rtsRxFifoLevel) ? (UART_UART_RTS_PIN_ENABLE) : (0u);
  96:.\Generated_Source\PSoC4/UART_UART.c ****             pinsConfig |= (0u != config->enableCts)      ? (UART_UART_CTS_PIN_ENABLE) : (0u);
  97:.\Generated_Source\PSoC4/UART_UART.c ****         #endif /* !(UART_CY_SCBIP_V0 || UART_CY_SCBIP_V1) */
  98:.\Generated_Source\PSoC4/UART_UART.c **** 
  99:.\Generated_Source\PSoC4/UART_UART.c ****             /* Configure pins */
 100:.\Generated_Source\PSoC4/UART_UART.c ****             UART_SetPins(UART_SCB_MODE_UART, config->mode, pinsConfig);
 101:.\Generated_Source\PSoC4/UART_UART.c **** 
 102:.\Generated_Source\PSoC4/UART_UART.c ****             /* Store internal configuration */
 103:.\Generated_Source\PSoC4/UART_UART.c ****             UART_scbMode       = (uint8) UART_SCB_MODE_UART;
 104:.\Generated_Source\PSoC4/UART_UART.c ****             UART_scbEnableWake = (uint8) config->enableWake;
 105:.\Generated_Source\PSoC4/UART_UART.c ****             UART_scbEnableIntr = (uint8) config->enableInterrupt;
 106:.\Generated_Source\PSoC4/UART_UART.c **** 
 107:.\Generated_Source\PSoC4/UART_UART.c ****             /* Set RX direction internal variables */
 108:.\Generated_Source\PSoC4/UART_UART.c ****             UART_rxBuffer      =         config->rxBuffer;
 109:.\Generated_Source\PSoC4/UART_UART.c ****             UART_rxDataBits    = (uint8) config->dataBits;
 110:.\Generated_Source\PSoC4/UART_UART.c ****             UART_rxBufferSize  = (uint8) config->rxBufferSize;
 111:.\Generated_Source\PSoC4/UART_UART.c **** 
 112:.\Generated_Source\PSoC4/UART_UART.c ****             /* Set TX direction internal variables */
 113:.\Generated_Source\PSoC4/UART_UART.c ****             UART_txBuffer      =         config->txBuffer;
 114:.\Generated_Source\PSoC4/UART_UART.c ****             UART_txDataBits    = (uint8) config->dataBits;
 115:.\Generated_Source\PSoC4/UART_UART.c ****             UART_txBufferSize  = (uint8) config->txBufferSize;
 116:.\Generated_Source\PSoC4/UART_UART.c **** 
 117:.\Generated_Source\PSoC4/UART_UART.c ****             /* Configure UART interface */
 118:.\Generated_Source\PSoC4/UART_UART.c ****             if(UART_UART_MODE_IRDA == config->mode)
 119:.\Generated_Source\PSoC4/UART_UART.c ****             {
 120:.\Generated_Source\PSoC4/UART_UART.c ****                 /* OVS settings: IrDA */
 121:.\Generated_Source\PSoC4/UART_UART.c ****                 UART_CTRL_REG  = ((0u != config->enableIrdaLowPower) ?
 122:.\Generated_Source\PSoC4/UART_UART.c ****                                                 (UART_UART_GET_CTRL_OVS_IRDA_LP(config->oversample)
 123:.\Generated_Source\PSoC4/UART_UART.c ****                                                 (UART_CTRL_OVS_IRDA_OVS16));
 124:.\Generated_Source\PSoC4/UART_UART.c ****             }
 125:.\Generated_Source\PSoC4/UART_UART.c ****             else
 126:.\Generated_Source\PSoC4/UART_UART.c ****             {
 127:.\Generated_Source\PSoC4/UART_UART.c ****                 /* OVS settings: UART and SmartCard */
 128:.\Generated_Source\PSoC4/UART_UART.c ****                 UART_CTRL_REG  = UART_GET_CTRL_OVS(config->oversample);
 129:.\Generated_Source\PSoC4/UART_UART.c ****             }
 130:.\Generated_Source\PSoC4/UART_UART.c **** 
 131:.\Generated_Source\PSoC4/UART_UART.c ****             UART_CTRL_REG     |= UART_GET_CTRL_BYTE_MODE  (config->enableByteMode)      |
 132:.\Generated_Source\PSoC4/UART_UART.c ****                                              UART_GET_CTRL_ADDR_ACCEPT(config->multiprocAcceptAddr)
 133:.\Generated_Source\PSoC4/UART_UART.c ****                                              UART_CTRL_UART;
 134:.\Generated_Source\PSoC4/UART_UART.c **** 
 135:.\Generated_Source\PSoC4/UART_UART.c ****             /* Configure sub-mode: UART, SmartCard or IrDA */
 136:.\Generated_Source\PSoC4/UART_UART.c ****             UART_UART_CTRL_REG = UART_GET_UART_CTRL_MODE(config->mode);
 137:.\Generated_Source\PSoC4/UART_UART.c **** 
 138:.\Generated_Source\PSoC4/UART_UART.c ****             /* Configure RX direction */
 139:.\Generated_Source\PSoC4/UART_UART.c ****             UART_UART_RX_CTRL_REG = UART_GET_UART_RX_CTRL_MODE(config->stopBits)              |
 140:.\Generated_Source\PSoC4/UART_UART.c ****                                         UART_GET_UART_RX_CTRL_POLARITY(config->enableInvertedRx)   
 141:.\Generated_Source\PSoC4/UART_UART.c ****                                         UART_GET_UART_RX_CTRL_MP_MODE(config->enableMultiproc)     
 142:.\Generated_Source\PSoC4/UART_UART.c ****                                         UART_GET_UART_RX_CTRL_DROP_ON_PARITY_ERR(config->dropOnPari
 143:.\Generated_Source\PSoC4/UART_UART.c ****                                         UART_GET_UART_RX_CTRL_DROP_ON_FRAME_ERR(config->dropOnFrame
 144:.\Generated_Source\PSoC4/UART_UART.c **** 
 145:.\Generated_Source\PSoC4/UART_UART.c ****             if(UART_UART_PARITY_NONE != config->parity)
 146:.\Generated_Source\PSoC4/UART_UART.c ****             {
ARM GAS  C:\Users\Helon\AppData\Local\Temp\cc29ZTyE.s 			page 4


 147:.\Generated_Source\PSoC4/UART_UART.c ****                UART_UART_RX_CTRL_REG |= UART_GET_UART_RX_CTRL_PARITY(config->parity) |
 148:.\Generated_Source\PSoC4/UART_UART.c ****                                                     UART_UART_RX_CTRL_PARITY_ENABLED;
 149:.\Generated_Source\PSoC4/UART_UART.c ****             }
 150:.\Generated_Source\PSoC4/UART_UART.c **** 
 151:.\Generated_Source\PSoC4/UART_UART.c ****             UART_RX_CTRL_REG      = UART_GET_RX_CTRL_DATA_WIDTH(config->dataBits)       |
 152:.\Generated_Source\PSoC4/UART_UART.c ****                                                 UART_GET_RX_CTRL_MEDIAN(config->enableMedianFilter)
 153:.\Generated_Source\PSoC4/UART_UART.c ****                                                 UART_GET_UART_RX_CTRL_ENABLED(config->direction);
 154:.\Generated_Source\PSoC4/UART_UART.c **** 
 155:.\Generated_Source\PSoC4/UART_UART.c ****             UART_RX_FIFO_CTRL_REG = UART_GET_RX_FIFO_CTRL_TRIGGER_LEVEL(config->rxTriggerLevel);
 156:.\Generated_Source\PSoC4/UART_UART.c **** 
 157:.\Generated_Source\PSoC4/UART_UART.c ****             /* Configure MP address */
 158:.\Generated_Source\PSoC4/UART_UART.c ****             UART_RX_MATCH_REG     = UART_GET_RX_MATCH_ADDR(config->multiprocAddr) |
 159:.\Generated_Source\PSoC4/UART_UART.c ****                                                 UART_GET_RX_MATCH_MASK(config->multiprocAddrMask);
 160:.\Generated_Source\PSoC4/UART_UART.c **** 
 161:.\Generated_Source\PSoC4/UART_UART.c ****             /* Configure RX direction */
 162:.\Generated_Source\PSoC4/UART_UART.c ****             UART_UART_TX_CTRL_REG = UART_GET_UART_TX_CTRL_MODE(config->stopBits) |
 163:.\Generated_Source\PSoC4/UART_UART.c ****                                                 UART_GET_UART_TX_CTRL_RETRY_NACK(config->enableRetr
 164:.\Generated_Source\PSoC4/UART_UART.c **** 
 165:.\Generated_Source\PSoC4/UART_UART.c ****             if(UART_UART_PARITY_NONE != config->parity)
 166:.\Generated_Source\PSoC4/UART_UART.c ****             {
 167:.\Generated_Source\PSoC4/UART_UART.c ****                UART_UART_TX_CTRL_REG |= UART_GET_UART_TX_CTRL_PARITY(config->parity) |
 168:.\Generated_Source\PSoC4/UART_UART.c ****                                                     UART_UART_TX_CTRL_PARITY_ENABLED;
 169:.\Generated_Source\PSoC4/UART_UART.c ****             }
 170:.\Generated_Source\PSoC4/UART_UART.c **** 
 171:.\Generated_Source\PSoC4/UART_UART.c ****             UART_TX_CTRL_REG      = UART_GET_TX_CTRL_DATA_WIDTH(config->dataBits)    |
 172:.\Generated_Source\PSoC4/UART_UART.c ****                                                 UART_GET_UART_TX_CTRL_ENABLED(config->direction);
 173:.\Generated_Source\PSoC4/UART_UART.c **** 
 174:.\Generated_Source\PSoC4/UART_UART.c ****             UART_TX_FIFO_CTRL_REG = UART_GET_TX_FIFO_CTRL_TRIGGER_LEVEL(config->txTriggerLevel);
 175:.\Generated_Source\PSoC4/UART_UART.c **** 
 176:.\Generated_Source\PSoC4/UART_UART.c ****         #if !(UART_CY_SCBIP_V0 || UART_CY_SCBIP_V1)
 177:.\Generated_Source\PSoC4/UART_UART.c ****             UART_UART_FLOW_CTRL_REG = UART_GET_UART_FLOW_CTRL_CTS_ENABLE(config->enableCts) | \
 178:.\Generated_Source\PSoC4/UART_UART.c ****                                             UART_GET_UART_FLOW_CTRL_CTS_POLARITY (config->ctsPolari
 179:.\Generated_Source\PSoC4/UART_UART.c ****                                             UART_GET_UART_FLOW_CTRL_RTS_POLARITY (config->rtsPolari
 180:.\Generated_Source\PSoC4/UART_UART.c ****                                             UART_GET_UART_FLOW_CTRL_TRIGGER_LEVEL(config->rtsRxFifo
 181:.\Generated_Source\PSoC4/UART_UART.c ****         #endif /* !(UART_CY_SCBIP_V0 || UART_CY_SCBIP_V1) */
 182:.\Generated_Source\PSoC4/UART_UART.c **** 
 183:.\Generated_Source\PSoC4/UART_UART.c ****             /* Configure interrupt with UART handler but do not enable it */
 184:.\Generated_Source\PSoC4/UART_UART.c ****             CyIntDisable    (UART_ISR_NUMBER);
 185:.\Generated_Source\PSoC4/UART_UART.c ****             CyIntSetPriority(UART_ISR_NUMBER, UART_ISR_PRIORITY);
 186:.\Generated_Source\PSoC4/UART_UART.c ****             (void) CyIntSetVector(UART_ISR_NUMBER, &UART_SPI_UART_ISR);
 187:.\Generated_Source\PSoC4/UART_UART.c **** 
 188:.\Generated_Source\PSoC4/UART_UART.c ****             /* Configure WAKE interrupt */
 189:.\Generated_Source\PSoC4/UART_UART.c ****         #if(UART_UART_RX_WAKEUP_IRQ)
 190:.\Generated_Source\PSoC4/UART_UART.c ****             CyIntDisable    (UART_RX_WAKE_ISR_NUMBER);
 191:.\Generated_Source\PSoC4/UART_UART.c ****             CyIntSetPriority(UART_RX_WAKE_ISR_NUMBER, UART_RX_WAKE_ISR_PRIORITY);
 192:.\Generated_Source\PSoC4/UART_UART.c ****             (void) CyIntSetVector(UART_RX_WAKE_ISR_NUMBER, &UART_UART_WAKEUP_ISR);
 193:.\Generated_Source\PSoC4/UART_UART.c ****         #endif /* (UART_UART_RX_WAKEUP_IRQ) */
 194:.\Generated_Source\PSoC4/UART_UART.c **** 
 195:.\Generated_Source\PSoC4/UART_UART.c ****             /* Configure interrupt sources */
 196:.\Generated_Source\PSoC4/UART_UART.c ****             UART_INTR_I2C_EC_MASK_REG = UART_NO_INTR_SOURCES;
 197:.\Generated_Source\PSoC4/UART_UART.c ****             UART_INTR_SPI_EC_MASK_REG = UART_NO_INTR_SOURCES;
 198:.\Generated_Source\PSoC4/UART_UART.c ****             UART_INTR_SLAVE_MASK_REG  = UART_NO_INTR_SOURCES;
 199:.\Generated_Source\PSoC4/UART_UART.c ****             UART_INTR_MASTER_MASK_REG = UART_NO_INTR_SOURCES;
 200:.\Generated_Source\PSoC4/UART_UART.c ****             UART_INTR_RX_MASK_REG     = config->rxInterruptMask;
 201:.\Generated_Source\PSoC4/UART_UART.c ****             UART_INTR_TX_MASK_REG     = config->txInterruptMask;
 202:.\Generated_Source\PSoC4/UART_UART.c **** 
 203:.\Generated_Source\PSoC4/UART_UART.c ****             /* Clear RX buffer indexes */
ARM GAS  C:\Users\Helon\AppData\Local\Temp\cc29ZTyE.s 			page 5


 204:.\Generated_Source\PSoC4/UART_UART.c ****             UART_rxBufferHead     = 0u;
 205:.\Generated_Source\PSoC4/UART_UART.c ****             UART_rxBufferTail     = 0u;
 206:.\Generated_Source\PSoC4/UART_UART.c ****             UART_rxBufferOverflow = 0u;
 207:.\Generated_Source\PSoC4/UART_UART.c **** 
 208:.\Generated_Source\PSoC4/UART_UART.c ****             /* Clear TX buffer indexes */
 209:.\Generated_Source\PSoC4/UART_UART.c ****             UART_txBufferHead = 0u;
 210:.\Generated_Source\PSoC4/UART_UART.c ****             UART_txBufferTail = 0u;
 211:.\Generated_Source\PSoC4/UART_UART.c ****         }
 212:.\Generated_Source\PSoC4/UART_UART.c ****     }
 213:.\Generated_Source\PSoC4/UART_UART.c **** 
 214:.\Generated_Source\PSoC4/UART_UART.c **** #else
 215:.\Generated_Source\PSoC4/UART_UART.c **** 
 216:.\Generated_Source\PSoC4/UART_UART.c ****     /*******************************************************************************
 217:.\Generated_Source\PSoC4/UART_UART.c ****     * Function Name: UART_UartInit
 218:.\Generated_Source\PSoC4/UART_UART.c ****     ********************************************************************************
 219:.\Generated_Source\PSoC4/UART_UART.c ****     *
 220:.\Generated_Source\PSoC4/UART_UART.c ****     * Summary:
 221:.\Generated_Source\PSoC4/UART_UART.c ****     *  Configures the SCB for the UART operation.
 222:.\Generated_Source\PSoC4/UART_UART.c ****     *
 223:.\Generated_Source\PSoC4/UART_UART.c ****     * Parameters:
 224:.\Generated_Source\PSoC4/UART_UART.c ****     *  None
 225:.\Generated_Source\PSoC4/UART_UART.c ****     *
 226:.\Generated_Source\PSoC4/UART_UART.c ****     * Return:
 227:.\Generated_Source\PSoC4/UART_UART.c ****     *  None
 228:.\Generated_Source\PSoC4/UART_UART.c ****     *
 229:.\Generated_Source\PSoC4/UART_UART.c ****     *******************************************************************************/
 230:.\Generated_Source\PSoC4/UART_UART.c ****     void UART_UartInit(void)
 231:.\Generated_Source\PSoC4/UART_UART.c ****     {
 232:.\Generated_Source\PSoC4/UART_UART.c ****         /* Configure UART interface */
 233:.\Generated_Source\PSoC4/UART_UART.c ****         UART_CTRL_REG = UART_UART_DEFAULT_CTRL;
 234:.\Generated_Source\PSoC4/UART_UART.c **** 
 235:.\Generated_Source\PSoC4/UART_UART.c ****         /* Configure sub-mode: UART, SmartCard or IrDA */
 236:.\Generated_Source\PSoC4/UART_UART.c ****         UART_UART_CTRL_REG = UART_UART_DEFAULT_UART_CTRL;
 237:.\Generated_Source\PSoC4/UART_UART.c **** 
 238:.\Generated_Source\PSoC4/UART_UART.c ****         /* Configure RX direction */
 239:.\Generated_Source\PSoC4/UART_UART.c ****         UART_UART_RX_CTRL_REG = UART_UART_DEFAULT_UART_RX_CTRL;
 240:.\Generated_Source\PSoC4/UART_UART.c ****         UART_RX_CTRL_REG      = UART_UART_DEFAULT_RX_CTRL;
 241:.\Generated_Source\PSoC4/UART_UART.c ****         UART_RX_FIFO_CTRL_REG = UART_UART_DEFAULT_RX_FIFO_CTRL;
 242:.\Generated_Source\PSoC4/UART_UART.c ****         UART_RX_MATCH_REG     = UART_UART_DEFAULT_RX_MATCH_REG;
 243:.\Generated_Source\PSoC4/UART_UART.c **** 
 244:.\Generated_Source\PSoC4/UART_UART.c ****         /* Configure TX direction */
 245:.\Generated_Source\PSoC4/UART_UART.c ****         UART_UART_TX_CTRL_REG = UART_UART_DEFAULT_UART_TX_CTRL;
 246:.\Generated_Source\PSoC4/UART_UART.c ****         UART_TX_CTRL_REG      = UART_UART_DEFAULT_TX_CTRL;
 247:.\Generated_Source\PSoC4/UART_UART.c ****         UART_TX_FIFO_CTRL_REG = UART_UART_DEFAULT_TX_FIFO_CTRL;
 248:.\Generated_Source\PSoC4/UART_UART.c **** 
 249:.\Generated_Source\PSoC4/UART_UART.c ****     #if !(UART_CY_SCBIP_V0 || UART_CY_SCBIP_V1)
 250:.\Generated_Source\PSoC4/UART_UART.c ****         UART_UART_FLOW_CTRL_REG = UART_UART_DEFAULT_FLOW_CTRL;
 251:.\Generated_Source\PSoC4/UART_UART.c ****     #endif /* !(UART_CY_SCBIP_V0 || UART_CY_SCBIP_V1) */
 252:.\Generated_Source\PSoC4/UART_UART.c **** 
 253:.\Generated_Source\PSoC4/UART_UART.c ****         /* Configure interrupt with UART handler but do not enable it */
 254:.\Generated_Source\PSoC4/UART_UART.c ****     #if(UART_SCB_IRQ_INTERNAL)
 255:.\Generated_Source\PSoC4/UART_UART.c ****         CyIntDisable    (UART_ISR_NUMBER);
 256:.\Generated_Source\PSoC4/UART_UART.c ****         CyIntSetPriority(UART_ISR_NUMBER, UART_ISR_PRIORITY);
 257:.\Generated_Source\PSoC4/UART_UART.c ****         (void) CyIntSetVector(UART_ISR_NUMBER, &UART_SPI_UART_ISR);
 258:.\Generated_Source\PSoC4/UART_UART.c ****     #endif /* (UART_SCB_IRQ_INTERNAL) */
 259:.\Generated_Source\PSoC4/UART_UART.c **** 
 260:.\Generated_Source\PSoC4/UART_UART.c ****         /* Configure WAKE interrupt */
ARM GAS  C:\Users\Helon\AppData\Local\Temp\cc29ZTyE.s 			page 6


 261:.\Generated_Source\PSoC4/UART_UART.c ****     #if(UART_UART_RX_WAKEUP_IRQ)
 262:.\Generated_Source\PSoC4/UART_UART.c ****         CyIntDisable    (UART_RX_WAKE_ISR_NUMBER);
 263:.\Generated_Source\PSoC4/UART_UART.c ****         CyIntSetPriority(UART_RX_WAKE_ISR_NUMBER, UART_RX_WAKE_ISR_PRIORITY);
 264:.\Generated_Source\PSoC4/UART_UART.c ****         (void) CyIntSetVector(UART_RX_WAKE_ISR_NUMBER, &UART_UART_WAKEUP_ISR);
 265:.\Generated_Source\PSoC4/UART_UART.c ****     #endif /* (UART_UART_RX_WAKEUP_IRQ) */
 266:.\Generated_Source\PSoC4/UART_UART.c **** 
 267:.\Generated_Source\PSoC4/UART_UART.c ****         /* Configure interrupt sources */
 268:.\Generated_Source\PSoC4/UART_UART.c ****         UART_INTR_I2C_EC_MASK_REG = UART_UART_DEFAULT_INTR_I2C_EC_MASK;
 269:.\Generated_Source\PSoC4/UART_UART.c ****         UART_INTR_SPI_EC_MASK_REG = UART_UART_DEFAULT_INTR_SPI_EC_MASK;
 270:.\Generated_Source\PSoC4/UART_UART.c ****         UART_INTR_SLAVE_MASK_REG  = UART_UART_DEFAULT_INTR_SLAVE_MASK;
 271:.\Generated_Source\PSoC4/UART_UART.c ****         UART_INTR_MASTER_MASK_REG = UART_UART_DEFAULT_INTR_MASTER_MASK;
 272:.\Generated_Source\PSoC4/UART_UART.c ****         UART_INTR_RX_MASK_REG     = UART_UART_DEFAULT_INTR_RX_MASK;
 273:.\Generated_Source\PSoC4/UART_UART.c ****         UART_INTR_TX_MASK_REG     = UART_UART_DEFAULT_INTR_TX_MASK;
 274:.\Generated_Source\PSoC4/UART_UART.c **** 
 275:.\Generated_Source\PSoC4/UART_UART.c ****     #if(UART_INTERNAL_RX_SW_BUFFER_CONST)
 276:.\Generated_Source\PSoC4/UART_UART.c ****         UART_rxBufferHead     = 0u;
 277:.\Generated_Source\PSoC4/UART_UART.c ****         UART_rxBufferTail     = 0u;
 278:.\Generated_Source\PSoC4/UART_UART.c ****         UART_rxBufferOverflow = 0u;
 279:.\Generated_Source\PSoC4/UART_UART.c ****     #endif /* (UART_INTERNAL_RX_SW_BUFFER_CONST) */
 280:.\Generated_Source\PSoC4/UART_UART.c **** 
 281:.\Generated_Source\PSoC4/UART_UART.c ****     #if(UART_INTERNAL_TX_SW_BUFFER_CONST)
 282:.\Generated_Source\PSoC4/UART_UART.c ****         UART_txBufferHead = 0u;
 283:.\Generated_Source\PSoC4/UART_UART.c ****         UART_txBufferTail = 0u;
 284:.\Generated_Source\PSoC4/UART_UART.c ****     #endif /* (UART_INTERNAL_TX_SW_BUFFER_CONST) */
 285:.\Generated_Source\PSoC4/UART_UART.c ****     }
 286:.\Generated_Source\PSoC4/UART_UART.c **** #endif /* (UART_SCB_MODE_UNCONFIG_CONST_CFG) */
 287:.\Generated_Source\PSoC4/UART_UART.c **** 
 288:.\Generated_Source\PSoC4/UART_UART.c **** 
 289:.\Generated_Source\PSoC4/UART_UART.c **** /*******************************************************************************
 290:.\Generated_Source\PSoC4/UART_UART.c **** * Function Name: UART_UartPostEnable
 291:.\Generated_Source\PSoC4/UART_UART.c **** ********************************************************************************
 292:.\Generated_Source\PSoC4/UART_UART.c **** *
 293:.\Generated_Source\PSoC4/UART_UART.c **** * Summary:
 294:.\Generated_Source\PSoC4/UART_UART.c **** *  Restores HSIOM settings for the UART output pins (TX and/or RTS) to be 
 295:.\Generated_Source\PSoC4/UART_UART.c **** *  controlled by the SCB UART.
 296:.\Generated_Source\PSoC4/UART_UART.c **** *
 297:.\Generated_Source\PSoC4/UART_UART.c **** * Parameters:
 298:.\Generated_Source\PSoC4/UART_UART.c **** *  None
 299:.\Generated_Source\PSoC4/UART_UART.c **** *
 300:.\Generated_Source\PSoC4/UART_UART.c **** * Return:
 301:.\Generated_Source\PSoC4/UART_UART.c **** *  None
 302:.\Generated_Source\PSoC4/UART_UART.c **** *
 303:.\Generated_Source\PSoC4/UART_UART.c **** *******************************************************************************/
 304:.\Generated_Source\PSoC4/UART_UART.c **** void UART_UartPostEnable(void)
 305:.\Generated_Source\PSoC4/UART_UART.c **** {
 306:.\Generated_Source\PSoC4/UART_UART.c **** #if (UART_SCB_MODE_UNCONFIG_CONST_CFG)
 307:.\Generated_Source\PSoC4/UART_UART.c **** 
 308:.\Generated_Source\PSoC4/UART_UART.c **** #if (UART_TX_SCL_MISO_PIN)
 309:.\Generated_Source\PSoC4/UART_UART.c ****     if (UART_CHECK_TX_SCL_MISO_PIN_USED)
 310:.\Generated_Source\PSoC4/UART_UART.c ****     {
 311:.\Generated_Source\PSoC4/UART_UART.c ****         /* Set SCB UART to drive the output pin */
 312:.\Generated_Source\PSoC4/UART_UART.c ****         UART_SET_HSIOM_SEL(UART_TX_SCL_MISO_HSIOM_REG, UART_TX_SCL_MISO_HSIOM_MASK,
 313:.\Generated_Source\PSoC4/UART_UART.c ****                                        UART_TX_SCL_MISO_HSIOM_POS, UART_HSIOM_UART_SEL);
 314:.\Generated_Source\PSoC4/UART_UART.c ****     }
 315:.\Generated_Source\PSoC4/UART_UART.c **** #endif /* (UART_TX_SCL_MISO_PIN_PIN) */
 316:.\Generated_Source\PSoC4/UART_UART.c **** 
 317:.\Generated_Source\PSoC4/UART_UART.c **** #if (UART_RTS_SS0_PIN)
ARM GAS  C:\Users\Helon\AppData\Local\Temp\cc29ZTyE.s 			page 7


 318:.\Generated_Source\PSoC4/UART_UART.c ****     if (UART_CHECK_RTS_SS0_PIN_USED)
 319:.\Generated_Source\PSoC4/UART_UART.c ****     {
 320:.\Generated_Source\PSoC4/UART_UART.c ****         /* Set SCB UART to drive the output pin */
 321:.\Generated_Source\PSoC4/UART_UART.c ****         UART_SET_HSIOM_SEL(UART_RTS_SS0_HSIOM_REG, UART_RTS_SS0_HSIOM_MASK,
 322:.\Generated_Source\PSoC4/UART_UART.c ****                                        UART_RTS_SS0_HSIOM_POS, UART_HSIOM_UART_SEL);
 323:.\Generated_Source\PSoC4/UART_UART.c ****     }
 324:.\Generated_Source\PSoC4/UART_UART.c **** #endif /* (UART_RTS_SS0_PIN) */
 325:.\Generated_Source\PSoC4/UART_UART.c **** 
 326:.\Generated_Source\PSoC4/UART_UART.c **** #else
 327:.\Generated_Source\PSoC4/UART_UART.c **** #if (UART_UART_TX_PIN)
 328:.\Generated_Source\PSoC4/UART_UART.c ****      /* Set SCB UART to drive the output pin */
 329:.\Generated_Source\PSoC4/UART_UART.c ****     UART_SET_HSIOM_SEL(UART_TX_HSIOM_REG, UART_TX_HSIOM_MASK,
 330:.\Generated_Source\PSoC4/UART_UART.c ****                                    UART_TX_HSIOM_POS, UART_HSIOM_UART_SEL);
 331:.\Generated_Source\PSoC4/UART_UART.c **** #endif /* (UART_UART_TX_PIN) */
 332:.\Generated_Source\PSoC4/UART_UART.c **** 
 333:.\Generated_Source\PSoC4/UART_UART.c **** #if (UART_UART_RTS_PIN)
 334:.\Generated_Source\PSoC4/UART_UART.c ****     /* Set SCB UART to drive the output pin */
 335:.\Generated_Source\PSoC4/UART_UART.c ****     UART_SET_HSIOM_SEL(UART_RTS_HSIOM_REG, UART_RTS_HSIOM_MASK,
 336:.\Generated_Source\PSoC4/UART_UART.c ****                                    UART_RTS_HSIOM_POS, UART_HSIOM_UART_SEL);
 337:.\Generated_Source\PSoC4/UART_UART.c **** #endif /* (UART_UART_RTS_PIN) */
 338:.\Generated_Source\PSoC4/UART_UART.c **** 
 339:.\Generated_Source\PSoC4/UART_UART.c **** #endif /* (UART_SCB_MODE_UNCONFIG_CONST_CFG) */
 340:.\Generated_Source\PSoC4/UART_UART.c **** }
 341:.\Generated_Source\PSoC4/UART_UART.c **** 
 342:.\Generated_Source\PSoC4/UART_UART.c **** 
 343:.\Generated_Source\PSoC4/UART_UART.c **** /*******************************************************************************
 344:.\Generated_Source\PSoC4/UART_UART.c **** * Function Name: UART_UartStop
 345:.\Generated_Source\PSoC4/UART_UART.c **** ********************************************************************************
 346:.\Generated_Source\PSoC4/UART_UART.c **** *
 347:.\Generated_Source\PSoC4/UART_UART.c **** * Summary:
 348:.\Generated_Source\PSoC4/UART_UART.c **** *  Changes the HSIOM settings for the UART output pins (TX and/or RTS) to keep
 349:.\Generated_Source\PSoC4/UART_UART.c **** *  them inactive after the block is disabled. The output pins are controlled by
 350:.\Generated_Source\PSoC4/UART_UART.c **** *  the GPIO data register. Also, the function disables the skip start feature to
 351:.\Generated_Source\PSoC4/UART_UART.c **** *  not cause it to trigger after the component is enabled.
 352:.\Generated_Source\PSoC4/UART_UART.c **** *
 353:.\Generated_Source\PSoC4/UART_UART.c **** * Parameters:
 354:.\Generated_Source\PSoC4/UART_UART.c **** *  None
 355:.\Generated_Source\PSoC4/UART_UART.c **** *
 356:.\Generated_Source\PSoC4/UART_UART.c **** * Return:
 357:.\Generated_Source\PSoC4/UART_UART.c **** *  None
 358:.\Generated_Source\PSoC4/UART_UART.c **** *
 359:.\Generated_Source\PSoC4/UART_UART.c **** *******************************************************************************/
 360:.\Generated_Source\PSoC4/UART_UART.c **** void UART_UartStop(void)
 361:.\Generated_Source\PSoC4/UART_UART.c **** {
 362:.\Generated_Source\PSoC4/UART_UART.c **** #if(UART_SCB_MODE_UNCONFIG_CONST_CFG)
 363:.\Generated_Source\PSoC4/UART_UART.c ****     #if (UART_TX_SCL_MISO_PIN)
 364:.\Generated_Source\PSoC4/UART_UART.c ****         if (UART_CHECK_TX_SCL_MISO_PIN_USED)
 365:.\Generated_Source\PSoC4/UART_UART.c ****         {
 366:.\Generated_Source\PSoC4/UART_UART.c ****             /* Set GPIO to drive output pin */
 367:.\Generated_Source\PSoC4/UART_UART.c ****             UART_SET_HSIOM_SEL(UART_TX_SCL_MISO_HSIOM_REG, UART_TX_SCL_MISO_HSIOM_MASK,
 368:.\Generated_Source\PSoC4/UART_UART.c ****                                            UART_TX_SCL_MISO_HSIOM_POS, UART_HSIOM_GPIO_SEL);
 369:.\Generated_Source\PSoC4/UART_UART.c ****         }
 370:.\Generated_Source\PSoC4/UART_UART.c ****     #endif /* (UART_TX_SCL_MISO_PIN_PIN) */
 371:.\Generated_Source\PSoC4/UART_UART.c **** 
 372:.\Generated_Source\PSoC4/UART_UART.c ****     #if (UART_RTS_SS0_PIN)
 373:.\Generated_Source\PSoC4/UART_UART.c ****         if (UART_CHECK_RTS_SS0_PIN_USED)
 374:.\Generated_Source\PSoC4/UART_UART.c ****         {
ARM GAS  C:\Users\Helon\AppData\Local\Temp\cc29ZTyE.s 			page 8


 375:.\Generated_Source\PSoC4/UART_UART.c ****             /* Set output pin state after block is disabled */
 376:.\Generated_Source\PSoC4/UART_UART.c ****             UART_uart_rts_spi_ss0_Write(UART_GET_UART_RTS_INACTIVE);
 377:.\Generated_Source\PSoC4/UART_UART.c **** 
 378:.\Generated_Source\PSoC4/UART_UART.c ****             /* Set GPIO to drive output pin */
 379:.\Generated_Source\PSoC4/UART_UART.c ****             UART_SET_HSIOM_SEL(UART_RTS_SS0_HSIOM_REG, UART_RTS_SS0_HSIOM_MASK,
 380:.\Generated_Source\PSoC4/UART_UART.c ****                                            UART_RTS_SS0_HSIOM_POS, UART_HSIOM_GPIO_SEL);
 381:.\Generated_Source\PSoC4/UART_UART.c ****         }
 382:.\Generated_Source\PSoC4/UART_UART.c ****     #endif /* (UART_SS0_PIN) */
 383:.\Generated_Source\PSoC4/UART_UART.c **** 
 384:.\Generated_Source\PSoC4/UART_UART.c **** #else
 385:.\Generated_Source\PSoC4/UART_UART.c ****     #if (UART_UART_TX_PIN)
 386:.\Generated_Source\PSoC4/UART_UART.c ****         /* Set GPIO to drive output pin */
 387:.\Generated_Source\PSoC4/UART_UART.c ****         UART_SET_HSIOM_SEL(UART_TX_HSIOM_REG, UART_TX_HSIOM_MASK,
 388:.\Generated_Source\PSoC4/UART_UART.c ****                                        UART_TX_HSIOM_POS, UART_HSIOM_GPIO_SEL);
 389:.\Generated_Source\PSoC4/UART_UART.c ****     #endif /* (UART_UART_TX_PIN) */
 390:.\Generated_Source\PSoC4/UART_UART.c **** 
 391:.\Generated_Source\PSoC4/UART_UART.c ****     #if (UART_UART_RTS_PIN)
 392:.\Generated_Source\PSoC4/UART_UART.c ****         /* Set output pin state after block is disabled */
 393:.\Generated_Source\PSoC4/UART_UART.c ****         UART_rts_Write(UART_GET_UART_RTS_INACTIVE);
 394:.\Generated_Source\PSoC4/UART_UART.c **** 
 395:.\Generated_Source\PSoC4/UART_UART.c ****         /* Set GPIO to drive output pin */
 396:.\Generated_Source\PSoC4/UART_UART.c ****         UART_SET_HSIOM_SEL(UART_RTS_HSIOM_REG, UART_RTS_HSIOM_MASK,
 397:.\Generated_Source\PSoC4/UART_UART.c ****                                        UART_RTS_HSIOM_POS, UART_HSIOM_GPIO_SEL);
 398:.\Generated_Source\PSoC4/UART_UART.c ****     #endif /* (UART_UART_RTS_PIN) */
 399:.\Generated_Source\PSoC4/UART_UART.c **** 
 400:.\Generated_Source\PSoC4/UART_UART.c **** #endif /* (UART_SCB_MODE_UNCONFIG_CONST_CFG) */
 401:.\Generated_Source\PSoC4/UART_UART.c **** 
 402:.\Generated_Source\PSoC4/UART_UART.c **** #if (UART_UART_WAKE_ENABLE_CONST)
 403:.\Generated_Source\PSoC4/UART_UART.c ****     /* Disable skip start feature used for wakeup */
 404:.\Generated_Source\PSoC4/UART_UART.c ****     UART_UART_RX_CTRL_REG &= (uint32) ~UART_UART_RX_CTRL_SKIP_START;
 405:.\Generated_Source\PSoC4/UART_UART.c **** #endif /* (UART_UART_WAKE_ENABLE_CONST) */
 406:.\Generated_Source\PSoC4/UART_UART.c **** }
 407:.\Generated_Source\PSoC4/UART_UART.c **** 
 408:.\Generated_Source\PSoC4/UART_UART.c **** 
 409:.\Generated_Source\PSoC4/UART_UART.c **** /*******************************************************************************
 410:.\Generated_Source\PSoC4/UART_UART.c **** * Function Name: UART_UartSetRxAddress
 411:.\Generated_Source\PSoC4/UART_UART.c **** ********************************************************************************
 412:.\Generated_Source\PSoC4/UART_UART.c **** *
 413:.\Generated_Source\PSoC4/UART_UART.c **** * Summary:
 414:.\Generated_Source\PSoC4/UART_UART.c **** *  Sets the hardware detectable receiver address for the UART in the
 415:.\Generated_Source\PSoC4/UART_UART.c **** *  Multiprocessor mode.
 416:.\Generated_Source\PSoC4/UART_UART.c **** *
 417:.\Generated_Source\PSoC4/UART_UART.c **** * Parameters:
 418:.\Generated_Source\PSoC4/UART_UART.c **** *  address: Address for hardware address detection.
 419:.\Generated_Source\PSoC4/UART_UART.c **** *
 420:.\Generated_Source\PSoC4/UART_UART.c **** * Return:
 421:.\Generated_Source\PSoC4/UART_UART.c **** *  None
 422:.\Generated_Source\PSoC4/UART_UART.c **** *
 423:.\Generated_Source\PSoC4/UART_UART.c **** *******************************************************************************/
 424:.\Generated_Source\PSoC4/UART_UART.c **** void UART_UartSetRxAddress(uint32 address)
 425:.\Generated_Source\PSoC4/UART_UART.c **** {
 426:.\Generated_Source\PSoC4/UART_UART.c ****      uint32 matchReg;
 427:.\Generated_Source\PSoC4/UART_UART.c **** 
 428:.\Generated_Source\PSoC4/UART_UART.c ****     matchReg = UART_RX_MATCH_REG;
 429:.\Generated_Source\PSoC4/UART_UART.c **** 
 430:.\Generated_Source\PSoC4/UART_UART.c ****     matchReg &= ((uint32) ~UART_RX_MATCH_ADDR_MASK); /* Clear address bits */
 431:.\Generated_Source\PSoC4/UART_UART.c ****     matchReg |= ((uint32)  (address & UART_RX_MATCH_ADDR_MASK)); /* Set address  */
ARM GAS  C:\Users\Helon\AppData\Local\Temp\cc29ZTyE.s 			page 9


 432:.\Generated_Source\PSoC4/UART_UART.c **** 
 433:.\Generated_Source\PSoC4/UART_UART.c ****     UART_RX_MATCH_REG = matchReg;
 434:.\Generated_Source\PSoC4/UART_UART.c **** }
 435:.\Generated_Source\PSoC4/UART_UART.c **** 
 436:.\Generated_Source\PSoC4/UART_UART.c **** 
 437:.\Generated_Source\PSoC4/UART_UART.c **** /*******************************************************************************
 438:.\Generated_Source\PSoC4/UART_UART.c **** * Function Name: UART_UartSetRxAddressMask
 439:.\Generated_Source\PSoC4/UART_UART.c **** ********************************************************************************
 440:.\Generated_Source\PSoC4/UART_UART.c **** *
 441:.\Generated_Source\PSoC4/UART_UART.c **** * Summary:
 442:.\Generated_Source\PSoC4/UART_UART.c **** *  Sets the hardware address mask for the UART in the Multiprocessor mode.
 443:.\Generated_Source\PSoC4/UART_UART.c **** *
 444:.\Generated_Source\PSoC4/UART_UART.c **** * Parameters:
 445:.\Generated_Source\PSoC4/UART_UART.c **** *  addressMask: Address mask.
 446:.\Generated_Source\PSoC4/UART_UART.c **** *   0 - address bit does not care while comparison.
 447:.\Generated_Source\PSoC4/UART_UART.c **** *   1 - address bit is significant while comparison.
 448:.\Generated_Source\PSoC4/UART_UART.c **** *
 449:.\Generated_Source\PSoC4/UART_UART.c **** * Return:
 450:.\Generated_Source\PSoC4/UART_UART.c **** *  None
 451:.\Generated_Source\PSoC4/UART_UART.c **** *
 452:.\Generated_Source\PSoC4/UART_UART.c **** *******************************************************************************/
 453:.\Generated_Source\PSoC4/UART_UART.c **** void UART_UartSetRxAddressMask(uint32 addressMask)
 454:.\Generated_Source\PSoC4/UART_UART.c **** {
 455:.\Generated_Source\PSoC4/UART_UART.c ****     uint32 matchReg;
 456:.\Generated_Source\PSoC4/UART_UART.c **** 
 457:.\Generated_Source\PSoC4/UART_UART.c ****     matchReg = UART_RX_MATCH_REG;
 458:.\Generated_Source\PSoC4/UART_UART.c **** 
 459:.\Generated_Source\PSoC4/UART_UART.c ****     matchReg &= ((uint32) ~UART_RX_MATCH_MASK_MASK); /* Clear address mask bits */
 460:.\Generated_Source\PSoC4/UART_UART.c ****     matchReg |= ((uint32) (addressMask << UART_RX_MATCH_MASK_POS));
 461:.\Generated_Source\PSoC4/UART_UART.c **** 
 462:.\Generated_Source\PSoC4/UART_UART.c ****     UART_RX_MATCH_REG = matchReg;
 463:.\Generated_Source\PSoC4/UART_UART.c **** }
 464:.\Generated_Source\PSoC4/UART_UART.c **** 
 465:.\Generated_Source\PSoC4/UART_UART.c **** 
 466:.\Generated_Source\PSoC4/UART_UART.c **** #if(UART_UART_RX_DIRECTION)
 467:.\Generated_Source\PSoC4/UART_UART.c ****     /*******************************************************************************
 468:.\Generated_Source\PSoC4/UART_UART.c ****     * Function Name: UART_UartGetChar
 469:.\Generated_Source\PSoC4/UART_UART.c ****     ********************************************************************************
 470:.\Generated_Source\PSoC4/UART_UART.c ****     *
 471:.\Generated_Source\PSoC4/UART_UART.c ****     * Summary:
 472:.\Generated_Source\PSoC4/UART_UART.c ****     *  Retrieves the next data element from the receive buffer.
 473:.\Generated_Source\PSoC4/UART_UART.c ****     *  This function is designed for ASCII characters and returns a char
 474:.\Generated_Source\PSoC4/UART_UART.c ****     *  where 1 to 255 are valid characters and 0 indicates an error occurred or
 475:.\Generated_Source\PSoC4/UART_UART.c ****     *  no data present.
 476:.\Generated_Source\PSoC4/UART_UART.c ****     *  - The RX software buffer is disabled: returns the data element
 477:.\Generated_Source\PSoC4/UART_UART.c ****     *    retrieved from the RX FIFO.
 478:.\Generated_Source\PSoC4/UART_UART.c ****     *    Undefined data will be returned if the RX FIFO is empty.
 479:.\Generated_Source\PSoC4/UART_UART.c ****     *  - The RX software buffer is enabled: returns the data element from
 480:.\Generated_Source\PSoC4/UART_UART.c ****     *    the software receive buffer.
 481:.\Generated_Source\PSoC4/UART_UART.c ****     *
 482:.\Generated_Source\PSoC4/UART_UART.c ****     * Parameters:
 483:.\Generated_Source\PSoC4/UART_UART.c ****     *  None
 484:.\Generated_Source\PSoC4/UART_UART.c ****     *
 485:.\Generated_Source\PSoC4/UART_UART.c ****     * Return:
 486:.\Generated_Source\PSoC4/UART_UART.c ****     *  The next data element from the receive buffer.
 487:.\Generated_Source\PSoC4/UART_UART.c ****     *  ASCII character values from 1 to 255 are valid.
 488:.\Generated_Source\PSoC4/UART_UART.c ****     *  A returned zero signifies an error condition or no data available.
ARM GAS  C:\Users\Helon\AppData\Local\Temp\cc29ZTyE.s 			page 10


 489:.\Generated_Source\PSoC4/UART_UART.c ****     *
 490:.\Generated_Source\PSoC4/UART_UART.c ****     * Side Effects:
 491:.\Generated_Source\PSoC4/UART_UART.c ****     *  The errors bits may not correspond with reading characters due to RX FIFO
 492:.\Generated_Source\PSoC4/UART_UART.c ****     *  and software buffer usage.
 493:.\Generated_Source\PSoC4/UART_UART.c ****     *  RX software buffer is enabled: The internal software buffer overflow
 494:.\Generated_Source\PSoC4/UART_UART.c ****     *  does not treat as an error condition.
 495:.\Generated_Source\PSoC4/UART_UART.c ****     *  Check SCB_rxBufferOverflow to capture that error condition.
 496:.\Generated_Source\PSoC4/UART_UART.c ****     *
 497:.\Generated_Source\PSoC4/UART_UART.c ****     *******************************************************************************/
 498:.\Generated_Source\PSoC4/UART_UART.c ****     uint32 UART_UartGetChar(void)
 499:.\Generated_Source\PSoC4/UART_UART.c ****     {
 500:.\Generated_Source\PSoC4/UART_UART.c ****         uint32 rxData = 0u;
 501:.\Generated_Source\PSoC4/UART_UART.c **** 
 502:.\Generated_Source\PSoC4/UART_UART.c ****         /* Reads data only if there is data to read */
 503:.\Generated_Source\PSoC4/UART_UART.c ****         if (0u != UART_SpiUartGetRxBufferSize())
 504:.\Generated_Source\PSoC4/UART_UART.c ****         {
 505:.\Generated_Source\PSoC4/UART_UART.c ****             rxData = UART_SpiUartReadRxData();
 506:.\Generated_Source\PSoC4/UART_UART.c ****         }
 507:.\Generated_Source\PSoC4/UART_UART.c **** 
 508:.\Generated_Source\PSoC4/UART_UART.c ****         if (UART_CHECK_INTR_RX(UART_INTR_RX_ERR))
 509:.\Generated_Source\PSoC4/UART_UART.c ****         {
 510:.\Generated_Source\PSoC4/UART_UART.c ****             rxData = 0u; /* Error occurred: returns zero */
 511:.\Generated_Source\PSoC4/UART_UART.c ****             UART_ClearRxInterruptSource(UART_INTR_RX_ERR);
 512:.\Generated_Source\PSoC4/UART_UART.c ****         }
 513:.\Generated_Source\PSoC4/UART_UART.c **** 
 514:.\Generated_Source\PSoC4/UART_UART.c ****         return (rxData);
 515:.\Generated_Source\PSoC4/UART_UART.c ****     }
 516:.\Generated_Source\PSoC4/UART_UART.c **** 
 517:.\Generated_Source\PSoC4/UART_UART.c **** 
 518:.\Generated_Source\PSoC4/UART_UART.c ****     /*******************************************************************************
 519:.\Generated_Source\PSoC4/UART_UART.c ****     * Function Name: UART_UartGetByte
 520:.\Generated_Source\PSoC4/UART_UART.c ****     ********************************************************************************
 521:.\Generated_Source\PSoC4/UART_UART.c ****     *
 522:.\Generated_Source\PSoC4/UART_UART.c ****     * Summary:
 523:.\Generated_Source\PSoC4/UART_UART.c ****     *  Retrieves the next data element from the receive buffer, returns the
 524:.\Generated_Source\PSoC4/UART_UART.c ****     *  received byte and error condition.
 525:.\Generated_Source\PSoC4/UART_UART.c ****     *   - The RX software buffer is disabled: returns the data element retrieved
 526:.\Generated_Source\PSoC4/UART_UART.c ****     *     from the RX FIFO. Undefined data will be returned if the RX FIFO is
 527:.\Generated_Source\PSoC4/UART_UART.c ****     *     empty.
 528:.\Generated_Source\PSoC4/UART_UART.c ****     *   - The RX software buffer is enabled: returns data element from the
 529:.\Generated_Source\PSoC4/UART_UART.c ****     *     software receive buffer.
 530:.\Generated_Source\PSoC4/UART_UART.c ****     *
 531:.\Generated_Source\PSoC4/UART_UART.c ****     * Parameters:
 532:.\Generated_Source\PSoC4/UART_UART.c ****     *  None
 533:.\Generated_Source\PSoC4/UART_UART.c ****     *
 534:.\Generated_Source\PSoC4/UART_UART.c ****     * Return:
 535:.\Generated_Source\PSoC4/UART_UART.c ****     *  Bits 7-0 contain the next data element from the receive buffer and
 536:.\Generated_Source\PSoC4/UART_UART.c ****     *  other bits contain the error condition.
 537:.\Generated_Source\PSoC4/UART_UART.c ****     *
 538:.\Generated_Source\PSoC4/UART_UART.c ****     * Side Effects:
 539:.\Generated_Source\PSoC4/UART_UART.c ****     *  The errors bits may not correspond with reading characters due to RX FIFO
 540:.\Generated_Source\PSoC4/UART_UART.c ****     *  and software buffer usage.
 541:.\Generated_Source\PSoC4/UART_UART.c ****     *  RX software buffer is disabled: The internal software buffer overflow
 542:.\Generated_Source\PSoC4/UART_UART.c ****     *  is not returned as status by this function.
 543:.\Generated_Source\PSoC4/UART_UART.c ****     *  Check SCB_rxBufferOverflow to capture that error condition.
 544:.\Generated_Source\PSoC4/UART_UART.c ****     *
 545:.\Generated_Source\PSoC4/UART_UART.c ****     *******************************************************************************/
ARM GAS  C:\Users\Helon\AppData\Local\Temp\cc29ZTyE.s 			page 11


 546:.\Generated_Source\PSoC4/UART_UART.c ****     uint32 UART_UartGetByte(void)
 547:.\Generated_Source\PSoC4/UART_UART.c ****     {
 548:.\Generated_Source\PSoC4/UART_UART.c ****         uint32 rxData;
 549:.\Generated_Source\PSoC4/UART_UART.c ****         uint32 tmpStatus;
 550:.\Generated_Source\PSoC4/UART_UART.c **** 
 551:.\Generated_Source\PSoC4/UART_UART.c ****         #if (UART_CHECK_RX_SW_BUFFER)
 552:.\Generated_Source\PSoC4/UART_UART.c ****         {
 553:.\Generated_Source\PSoC4/UART_UART.c ****             UART_DisableInt();
 554:.\Generated_Source\PSoC4/UART_UART.c ****         }
 555:.\Generated_Source\PSoC4/UART_UART.c ****         #endif
 556:.\Generated_Source\PSoC4/UART_UART.c **** 
 557:.\Generated_Source\PSoC4/UART_UART.c ****         if (0u != UART_SpiUartGetRxBufferSize())
 558:.\Generated_Source\PSoC4/UART_UART.c ****         {
 559:.\Generated_Source\PSoC4/UART_UART.c ****             /* Enables interrupt to receive more bytes: at least one byte is in
 560:.\Generated_Source\PSoC4/UART_UART.c ****             * buffer.
 561:.\Generated_Source\PSoC4/UART_UART.c ****             */
 562:.\Generated_Source\PSoC4/UART_UART.c ****             #if (UART_CHECK_RX_SW_BUFFER)
 563:.\Generated_Source\PSoC4/UART_UART.c ****             {            
 564:.\Generated_Source\PSoC4/UART_UART.c ****                 UART_EnableInt();
 565:.\Generated_Source\PSoC4/UART_UART.c ****             }
 566:.\Generated_Source\PSoC4/UART_UART.c ****             #endif
 567:.\Generated_Source\PSoC4/UART_UART.c **** 
 568:.\Generated_Source\PSoC4/UART_UART.c ****             /* Get received byte */
 569:.\Generated_Source\PSoC4/UART_UART.c ****             rxData = UART_SpiUartReadRxData();
 570:.\Generated_Source\PSoC4/UART_UART.c ****         }
 571:.\Generated_Source\PSoC4/UART_UART.c ****         else
 572:.\Generated_Source\PSoC4/UART_UART.c ****         {
 573:.\Generated_Source\PSoC4/UART_UART.c ****             /* Reads a byte directly from RX FIFO: underflow is raised in the case
 574:.\Generated_Source\PSoC4/UART_UART.c ****             * of empty. Otherwise the first received byte will be read.
 575:.\Generated_Source\PSoC4/UART_UART.c ****             */
 576:.\Generated_Source\PSoC4/UART_UART.c ****             rxData = UART_RX_FIFO_RD_REG;
 577:.\Generated_Source\PSoC4/UART_UART.c **** 
 578:.\Generated_Source\PSoC4/UART_UART.c ****             /* Enables interrupt to receive more bytes.
 579:.\Generated_Source\PSoC4/UART_UART.c ****             * The RX_NOT_EMPTY interrupt is cleared by the interrupt routine
 580:.\Generated_Source\PSoC4/UART_UART.c ****             * in case the byte was received and read by code above.
 581:.\Generated_Source\PSoC4/UART_UART.c ****             */
 582:.\Generated_Source\PSoC4/UART_UART.c ****             #if (UART_CHECK_RX_SW_BUFFER)
 583:.\Generated_Source\PSoC4/UART_UART.c ****             {
 584:.\Generated_Source\PSoC4/UART_UART.c ****                 UART_EnableInt();
 585:.\Generated_Source\PSoC4/UART_UART.c ****             }
 586:.\Generated_Source\PSoC4/UART_UART.c ****             #endif
 587:.\Generated_Source\PSoC4/UART_UART.c ****         }
 588:.\Generated_Source\PSoC4/UART_UART.c **** 
 589:.\Generated_Source\PSoC4/UART_UART.c ****         /* Get and clear RX error mask */
 590:.\Generated_Source\PSoC4/UART_UART.c ****         tmpStatus = (UART_GetRxInterruptSource() & UART_INTR_RX_ERR);
 591:.\Generated_Source\PSoC4/UART_UART.c ****         UART_ClearRxInterruptSource(UART_INTR_RX_ERR);
 592:.\Generated_Source\PSoC4/UART_UART.c **** 
 593:.\Generated_Source\PSoC4/UART_UART.c ****         /* Puts together data and error status:
 594:.\Generated_Source\PSoC4/UART_UART.c ****         * MP mode and accept address: 9th bit is set to notify mark.
 595:.\Generated_Source\PSoC4/UART_UART.c ****         */
 596:.\Generated_Source\PSoC4/UART_UART.c ****         rxData |= ((uint32) (tmpStatus << 8u));
 597:.\Generated_Source\PSoC4/UART_UART.c **** 
 598:.\Generated_Source\PSoC4/UART_UART.c ****         return (rxData);
 599:.\Generated_Source\PSoC4/UART_UART.c ****     }
 600:.\Generated_Source\PSoC4/UART_UART.c **** 
 601:.\Generated_Source\PSoC4/UART_UART.c **** 
 602:.\Generated_Source\PSoC4/UART_UART.c ****     #if !(UART_CY_SCBIP_V0 || UART_CY_SCBIP_V1)
ARM GAS  C:\Users\Helon\AppData\Local\Temp\cc29ZTyE.s 			page 12


 603:.\Generated_Source\PSoC4/UART_UART.c ****         /*******************************************************************************
 604:.\Generated_Source\PSoC4/UART_UART.c ****         * Function Name: UART_UartSetRtsPolarity
 605:.\Generated_Source\PSoC4/UART_UART.c ****         ********************************************************************************
 606:.\Generated_Source\PSoC4/UART_UART.c ****         *
 607:.\Generated_Source\PSoC4/UART_UART.c ****         * Summary:
 608:.\Generated_Source\PSoC4/UART_UART.c ****         *  Sets active polarity of RTS output signal.
 609:.\Generated_Source\PSoC4/UART_UART.c ****         *
 610:.\Generated_Source\PSoC4/UART_UART.c ****         * Parameters:
 611:.\Generated_Source\PSoC4/UART_UART.c ****         *  polarity: Active polarity of RTS output signal.
 612:.\Generated_Source\PSoC4/UART_UART.c ****         *   UART_UART_RTS_ACTIVE_LOW  - RTS signal is active low.
 613:.\Generated_Source\PSoC4/UART_UART.c ****         *   UART_UART_RTS_ACTIVE_HIGH - RTS signal is active high.
 614:.\Generated_Source\PSoC4/UART_UART.c ****         *
 615:.\Generated_Source\PSoC4/UART_UART.c ****         * Return:
 616:.\Generated_Source\PSoC4/UART_UART.c ****         *  None
 617:.\Generated_Source\PSoC4/UART_UART.c ****         *
 618:.\Generated_Source\PSoC4/UART_UART.c ****         *******************************************************************************/
 619:.\Generated_Source\PSoC4/UART_UART.c ****         void UART_UartSetRtsPolarity(uint32 polarity)
 620:.\Generated_Source\PSoC4/UART_UART.c ****         {
 621:.\Generated_Source\PSoC4/UART_UART.c ****             if(0u != polarity)
 622:.\Generated_Source\PSoC4/UART_UART.c ****             {
 623:.\Generated_Source\PSoC4/UART_UART.c ****                 UART_UART_FLOW_CTRL_REG |= (uint32)  UART_UART_FLOW_CTRL_RTS_POLARITY;
 624:.\Generated_Source\PSoC4/UART_UART.c ****             }
 625:.\Generated_Source\PSoC4/UART_UART.c ****             else
 626:.\Generated_Source\PSoC4/UART_UART.c ****             {
 627:.\Generated_Source\PSoC4/UART_UART.c ****                 UART_UART_FLOW_CTRL_REG &= (uint32) ~UART_UART_FLOW_CTRL_RTS_POLARITY;
 628:.\Generated_Source\PSoC4/UART_UART.c ****             }
 629:.\Generated_Source\PSoC4/UART_UART.c ****         }
 630:.\Generated_Source\PSoC4/UART_UART.c **** 
 631:.\Generated_Source\PSoC4/UART_UART.c **** 
 632:.\Generated_Source\PSoC4/UART_UART.c ****         /*******************************************************************************
 633:.\Generated_Source\PSoC4/UART_UART.c ****         * Function Name: UART_UartSetRtsFifoLevel
 634:.\Generated_Source\PSoC4/UART_UART.c ****         ********************************************************************************
 635:.\Generated_Source\PSoC4/UART_UART.c ****         *
 636:.\Generated_Source\PSoC4/UART_UART.c ****         * Summary:
 637:.\Generated_Source\PSoC4/UART_UART.c ****         *  Sets level in the RX FIFO for RTS signal activation.
 638:.\Generated_Source\PSoC4/UART_UART.c ****         *  While the RX FIFO has fewer entries than the RX FIFO level the RTS signal
 639:.\Generated_Source\PSoC4/UART_UART.c ****         *  remains active, otherwise the RTS signal becomes inactive.
 640:.\Generated_Source\PSoC4/UART_UART.c ****         *
 641:.\Generated_Source\PSoC4/UART_UART.c ****         * Parameters:
 642:.\Generated_Source\PSoC4/UART_UART.c ****         *  level: Level in the RX FIFO for RTS signal activation.
 643:.\Generated_Source\PSoC4/UART_UART.c ****         *         The range of valid level values is between 0 and RX FIFO depth - 1.
 644:.\Generated_Source\PSoC4/UART_UART.c ****         *         Setting level value to 0 disables RTS signal activation.
 645:.\Generated_Source\PSoC4/UART_UART.c ****         *
 646:.\Generated_Source\PSoC4/UART_UART.c ****         * Return:
 647:.\Generated_Source\PSoC4/UART_UART.c ****         *  None
 648:.\Generated_Source\PSoC4/UART_UART.c ****         *
 649:.\Generated_Source\PSoC4/UART_UART.c ****         *******************************************************************************/
 650:.\Generated_Source\PSoC4/UART_UART.c ****         void UART_UartSetRtsFifoLevel(uint32 level)
 651:.\Generated_Source\PSoC4/UART_UART.c ****         {
 652:.\Generated_Source\PSoC4/UART_UART.c ****             uint32 uartFlowCtrl;
 653:.\Generated_Source\PSoC4/UART_UART.c **** 
 654:.\Generated_Source\PSoC4/UART_UART.c ****             uartFlowCtrl = UART_UART_FLOW_CTRL_REG;
 655:.\Generated_Source\PSoC4/UART_UART.c **** 
 656:.\Generated_Source\PSoC4/UART_UART.c ****             uartFlowCtrl &= ((uint32) ~UART_UART_FLOW_CTRL_TRIGGER_LEVEL_MASK); /* Clear level mask
 657:.\Generated_Source\PSoC4/UART_UART.c ****             uartFlowCtrl |= ((uint32) (UART_UART_FLOW_CTRL_TRIGGER_LEVEL_MASK & level));
 658:.\Generated_Source\PSoC4/UART_UART.c **** 
 659:.\Generated_Source\PSoC4/UART_UART.c ****             UART_UART_FLOW_CTRL_REG = uartFlowCtrl;
ARM GAS  C:\Users\Helon\AppData\Local\Temp\cc29ZTyE.s 			page 13


 660:.\Generated_Source\PSoC4/UART_UART.c ****         }
 661:.\Generated_Source\PSoC4/UART_UART.c ****     #endif /* !(UART_CY_SCBIP_V0 || UART_CY_SCBIP_V1) */
 662:.\Generated_Source\PSoC4/UART_UART.c **** 
 663:.\Generated_Source\PSoC4/UART_UART.c **** #endif /* (UART_UART_RX_DIRECTION) */
 664:.\Generated_Source\PSoC4/UART_UART.c **** 
 665:.\Generated_Source\PSoC4/UART_UART.c **** 
 666:.\Generated_Source\PSoC4/UART_UART.c **** #if(UART_UART_TX_DIRECTION)
 667:.\Generated_Source\PSoC4/UART_UART.c ****     /*******************************************************************************
 668:.\Generated_Source\PSoC4/UART_UART.c ****     * Function Name: UART_UartPutString
 669:.\Generated_Source\PSoC4/UART_UART.c ****     ********************************************************************************
 670:.\Generated_Source\PSoC4/UART_UART.c ****     *
 671:.\Generated_Source\PSoC4/UART_UART.c ****     * Summary:
 672:.\Generated_Source\PSoC4/UART_UART.c ****     *  Places a NULL terminated string in the transmit buffer to be sent at the
 673:.\Generated_Source\PSoC4/UART_UART.c ****     *  next available bus time.
 674:.\Generated_Source\PSoC4/UART_UART.c ****     *  This function is blocking and waits until there is space available to put
 675:.\Generated_Source\PSoC4/UART_UART.c ****     *  all the requested data into the  transmit buffer.
 676:.\Generated_Source\PSoC4/UART_UART.c ****     *
 677:.\Generated_Source\PSoC4/UART_UART.c ****     * Parameters:
 678:.\Generated_Source\PSoC4/UART_UART.c ****     *  string: pointer to the null terminated string array to be placed in the
 679:.\Generated_Source\PSoC4/UART_UART.c ****     *          transmit buffer.
 680:.\Generated_Source\PSoC4/UART_UART.c ****     *
 681:.\Generated_Source\PSoC4/UART_UART.c ****     * Return:
 682:.\Generated_Source\PSoC4/UART_UART.c ****     *  None
 683:.\Generated_Source\PSoC4/UART_UART.c ****     *
 684:.\Generated_Source\PSoC4/UART_UART.c ****     *******************************************************************************/
 685:.\Generated_Source\PSoC4/UART_UART.c ****     void UART_UartPutString(const char8 string[])
 686:.\Generated_Source\PSoC4/UART_UART.c ****     {
 687:.\Generated_Source\PSoC4/UART_UART.c ****         uint32 bufIndex;
 688:.\Generated_Source\PSoC4/UART_UART.c **** 
 689:.\Generated_Source\PSoC4/UART_UART.c ****         bufIndex = 0u;
 690:.\Generated_Source\PSoC4/UART_UART.c **** 
 691:.\Generated_Source\PSoC4/UART_UART.c ****         /* Blocks the control flow until all data has been sent */
 692:.\Generated_Source\PSoC4/UART_UART.c ****         while(string[bufIndex] != ((char8) 0))
 693:.\Generated_Source\PSoC4/UART_UART.c ****         {
 694:.\Generated_Source\PSoC4/UART_UART.c ****             UART_UartPutChar((uint32) string[bufIndex]);
 695:.\Generated_Source\PSoC4/UART_UART.c ****             bufIndex++;
 696:.\Generated_Source\PSoC4/UART_UART.c ****         }
 697:.\Generated_Source\PSoC4/UART_UART.c ****     }
 698:.\Generated_Source\PSoC4/UART_UART.c **** 
 699:.\Generated_Source\PSoC4/UART_UART.c **** 
 700:.\Generated_Source\PSoC4/UART_UART.c ****     /*******************************************************************************
 701:.\Generated_Source\PSoC4/UART_UART.c ****     * Function Name: UART_UartPutCRLF
 702:.\Generated_Source\PSoC4/UART_UART.c ****     ********************************************************************************
 703:.\Generated_Source\PSoC4/UART_UART.c ****     *
 704:.\Generated_Source\PSoC4/UART_UART.c ****     * Summary:
 705:.\Generated_Source\PSoC4/UART_UART.c ****     *  Places a byte of data followed by a carriage return (0x0D) and
 706:.\Generated_Source\PSoC4/UART_UART.c ****     *  line feed (0x0A) into the transmit buffer.
 707:.\Generated_Source\PSoC4/UART_UART.c ****     *  This function is blocking and waits until there is space available to put
 708:.\Generated_Source\PSoC4/UART_UART.c ****     *  all the requested data into the  transmit buffer.
 709:.\Generated_Source\PSoC4/UART_UART.c ****     *
 710:.\Generated_Source\PSoC4/UART_UART.c ****     * Parameters:
 711:.\Generated_Source\PSoC4/UART_UART.c ****     *  txDataByte : the data to be transmitted.
 712:.\Generated_Source\PSoC4/UART_UART.c ****     *
 713:.\Generated_Source\PSoC4/UART_UART.c ****     * Return:
 714:.\Generated_Source\PSoC4/UART_UART.c ****     *  None
 715:.\Generated_Source\PSoC4/UART_UART.c ****     *
 716:.\Generated_Source\PSoC4/UART_UART.c ****     *******************************************************************************/
ARM GAS  C:\Users\Helon\AppData\Local\Temp\cc29ZTyE.s 			page 14


 717:.\Generated_Source\PSoC4/UART_UART.c ****     void UART_UartPutCRLF(uint32 txDataByte)
 718:.\Generated_Source\PSoC4/UART_UART.c ****     {
 719:.\Generated_Source\PSoC4/UART_UART.c ****         UART_UartPutChar(txDataByte);  /* Blocks control flow until all data has been sent */
 720:.\Generated_Source\PSoC4/UART_UART.c ****         UART_UartPutChar(0x0Du);       /* Blocks control flow until all data has been sent */
 721:.\Generated_Source\PSoC4/UART_UART.c ****         UART_UartPutChar(0x0Au);       /* Blocks control flow until all data has been sent */
 722:.\Generated_Source\PSoC4/UART_UART.c ****     }
 723:.\Generated_Source\PSoC4/UART_UART.c **** 
 724:.\Generated_Source\PSoC4/UART_UART.c **** 
 725:.\Generated_Source\PSoC4/UART_UART.c ****     #if !(UART_CY_SCBIP_V0 || UART_CY_SCBIP_V1)
 726:.\Generated_Source\PSoC4/UART_UART.c ****         /*******************************************************************************
 727:.\Generated_Source\PSoC4/UART_UART.c ****         * Function Name: UARTSCB_UartEnableCts
 728:.\Generated_Source\PSoC4/UART_UART.c ****         ********************************************************************************
 729:.\Generated_Source\PSoC4/UART_UART.c ****         *
 730:.\Generated_Source\PSoC4/UART_UART.c ****         * Summary:
 731:.\Generated_Source\PSoC4/UART_UART.c ****         *  Enables usage of CTS input signal by the UART transmitter.
 732:.\Generated_Source\PSoC4/UART_UART.c ****         *
 733:.\Generated_Source\PSoC4/UART_UART.c ****         * Parameters:
 734:.\Generated_Source\PSoC4/UART_UART.c ****         *  None
 735:.\Generated_Source\PSoC4/UART_UART.c ****         *
 736:.\Generated_Source\PSoC4/UART_UART.c ****         * Return:
 737:.\Generated_Source\PSoC4/UART_UART.c ****         *  None
 738:.\Generated_Source\PSoC4/UART_UART.c ****         *
 739:.\Generated_Source\PSoC4/UART_UART.c ****         *******************************************************************************/
 740:.\Generated_Source\PSoC4/UART_UART.c ****         void UART_UartEnableCts(void)
 741:.\Generated_Source\PSoC4/UART_UART.c ****         {
 742:.\Generated_Source\PSoC4/UART_UART.c ****             UART_UART_FLOW_CTRL_REG |= (uint32)  UART_UART_FLOW_CTRL_CTS_ENABLE;
 743:.\Generated_Source\PSoC4/UART_UART.c ****         }
 744:.\Generated_Source\PSoC4/UART_UART.c **** 
 745:.\Generated_Source\PSoC4/UART_UART.c **** 
 746:.\Generated_Source\PSoC4/UART_UART.c ****         /*******************************************************************************
 747:.\Generated_Source\PSoC4/UART_UART.c ****         * Function Name: UART_UartDisableCts
 748:.\Generated_Source\PSoC4/UART_UART.c ****         ********************************************************************************
 749:.\Generated_Source\PSoC4/UART_UART.c ****         *
 750:.\Generated_Source\PSoC4/UART_UART.c ****         * Summary:
 751:.\Generated_Source\PSoC4/UART_UART.c ****         *  Disables usage of CTS input signal by the UART transmitter.
 752:.\Generated_Source\PSoC4/UART_UART.c ****         *
 753:.\Generated_Source\PSoC4/UART_UART.c ****         * Parameters:
 754:.\Generated_Source\PSoC4/UART_UART.c ****         *  None
 755:.\Generated_Source\PSoC4/UART_UART.c ****         *
 756:.\Generated_Source\PSoC4/UART_UART.c ****         * Return:
 757:.\Generated_Source\PSoC4/UART_UART.c ****         *  None
 758:.\Generated_Source\PSoC4/UART_UART.c ****         *
 759:.\Generated_Source\PSoC4/UART_UART.c ****         *******************************************************************************/
 760:.\Generated_Source\PSoC4/UART_UART.c ****         void UART_UartDisableCts(void)
 761:.\Generated_Source\PSoC4/UART_UART.c ****         {
 762:.\Generated_Source\PSoC4/UART_UART.c ****             UART_UART_FLOW_CTRL_REG &= (uint32) ~UART_UART_FLOW_CTRL_CTS_ENABLE;
 763:.\Generated_Source\PSoC4/UART_UART.c ****         }
 764:.\Generated_Source\PSoC4/UART_UART.c **** 
 765:.\Generated_Source\PSoC4/UART_UART.c **** 
 766:.\Generated_Source\PSoC4/UART_UART.c ****         /*******************************************************************************
 767:.\Generated_Source\PSoC4/UART_UART.c ****         * Function Name: UART_UartSetCtsPolarity
 768:.\Generated_Source\PSoC4/UART_UART.c ****         ********************************************************************************
 769:.\Generated_Source\PSoC4/UART_UART.c ****         *
 770:.\Generated_Source\PSoC4/UART_UART.c ****         * Summary:
 771:.\Generated_Source\PSoC4/UART_UART.c ****         *  Sets active polarity of CTS input signal.
 772:.\Generated_Source\PSoC4/UART_UART.c ****         *
 773:.\Generated_Source\PSoC4/UART_UART.c ****         * Parameters:
ARM GAS  C:\Users\Helon\AppData\Local\Temp\cc29ZTyE.s 			page 15


 774:.\Generated_Source\PSoC4/UART_UART.c ****         *  polarity: Active polarity of CTS output signal.
 775:.\Generated_Source\PSoC4/UART_UART.c ****         *   UART_UART_CTS_ACTIVE_LOW  - CTS signal is active low.
 776:.\Generated_Source\PSoC4/UART_UART.c ****         *   UART_UART_CTS_ACTIVE_HIGH - CTS signal is active high.
 777:.\Generated_Source\PSoC4/UART_UART.c ****         *
 778:.\Generated_Source\PSoC4/UART_UART.c ****         * Return:
 779:.\Generated_Source\PSoC4/UART_UART.c ****         *  None
 780:.\Generated_Source\PSoC4/UART_UART.c ****         *
 781:.\Generated_Source\PSoC4/UART_UART.c ****         *******************************************************************************/
 782:.\Generated_Source\PSoC4/UART_UART.c ****         void UART_UartSetCtsPolarity(uint32 polarity)
 783:.\Generated_Source\PSoC4/UART_UART.c ****         {
 784:.\Generated_Source\PSoC4/UART_UART.c ****             if (0u != polarity)
 785:.\Generated_Source\PSoC4/UART_UART.c ****             {
 786:.\Generated_Source\PSoC4/UART_UART.c ****                 UART_UART_FLOW_CTRL_REG |= (uint32)  UART_UART_FLOW_CTRL_CTS_POLARITY;
 787:.\Generated_Source\PSoC4/UART_UART.c ****             }
 788:.\Generated_Source\PSoC4/UART_UART.c ****             else
 789:.\Generated_Source\PSoC4/UART_UART.c ****             {
 790:.\Generated_Source\PSoC4/UART_UART.c ****                 UART_UART_FLOW_CTRL_REG &= (uint32) ~UART_UART_FLOW_CTRL_CTS_POLARITY;
 791:.\Generated_Source\PSoC4/UART_UART.c ****             }
 792:.\Generated_Source\PSoC4/UART_UART.c ****         }
 793:.\Generated_Source\PSoC4/UART_UART.c ****     #endif /* !(UART_CY_SCBIP_V0 || UART_CY_SCBIP_V1) */
 794:.\Generated_Source\PSoC4/UART_UART.c **** 
 795:.\Generated_Source\PSoC4/UART_UART.c **** #endif /* (UART_UART_TX_DIRECTION) */
 796:.\Generated_Source\PSoC4/UART_UART.c **** 
 797:.\Generated_Source\PSoC4/UART_UART.c **** 
 798:.\Generated_Source\PSoC4/UART_UART.c **** #if(UART_UART_WAKE_ENABLE_CONST)
 799:.\Generated_Source\PSoC4/UART_UART.c ****     /*******************************************************************************
 800:.\Generated_Source\PSoC4/UART_UART.c ****     * Function Name: UART_UartSaveConfig
 801:.\Generated_Source\PSoC4/UART_UART.c ****     ********************************************************************************
 802:.\Generated_Source\PSoC4/UART_UART.c ****     *
 803:.\Generated_Source\PSoC4/UART_UART.c ****     * Summary:
 804:.\Generated_Source\PSoC4/UART_UART.c ****     *  Clears and enables interrupt on a falling edge of the Rx input. The GPIO
 805:.\Generated_Source\PSoC4/UART_UART.c ****     *  event wakes up the device and SKIP_START feature allows the UART continue
 806:.\Generated_Source\PSoC4/UART_UART.c ****     *  receiving data bytes properly. The GPIO interrupt does not track in the
 807:.\Generated_Source\PSoC4/UART_UART.c ****     *  active mode therefore requires to be cleared by this API.
 808:.\Generated_Source\PSoC4/UART_UART.c ****     *
 809:.\Generated_Source\PSoC4/UART_UART.c ****     * Parameters:
 810:.\Generated_Source\PSoC4/UART_UART.c ****     *  None
 811:.\Generated_Source\PSoC4/UART_UART.c ****     *
 812:.\Generated_Source\PSoC4/UART_UART.c ****     * Return:
 813:.\Generated_Source\PSoC4/UART_UART.c ****     *  None
 814:.\Generated_Source\PSoC4/UART_UART.c ****     *
 815:.\Generated_Source\PSoC4/UART_UART.c ****     *******************************************************************************/
 816:.\Generated_Source\PSoC4/UART_UART.c ****     void UART_UartSaveConfig(void)
 817:.\Generated_Source\PSoC4/UART_UART.c ****     {
 818:.\Generated_Source\PSoC4/UART_UART.c ****         /* Clear interrupt activity:
 819:.\Generated_Source\PSoC4/UART_UART.c ****         *  - set skip start and disable RX. At GPIO wakeup RX will be enabled.
 820:.\Generated_Source\PSoC4/UART_UART.c ****         *  - clear rx_wake interrupt source as it triggers during normal operation.
 821:.\Generated_Source\PSoC4/UART_UART.c ****         *  - clear wake interrupt pending state as it becomes pending in active mode.
 822:.\Generated_Source\PSoC4/UART_UART.c ****         */
 823:.\Generated_Source\PSoC4/UART_UART.c **** 
 824:.\Generated_Source\PSoC4/UART_UART.c ****         UART_UART_RX_CTRL_REG |= UART_UART_RX_CTRL_SKIP_START;
 825:.\Generated_Source\PSoC4/UART_UART.c **** 
 826:.\Generated_Source\PSoC4/UART_UART.c ****     #if(UART_SCB_MODE_UNCONFIG_CONST_CFG)
 827:.\Generated_Source\PSoC4/UART_UART.c ****         #if(UART_MOSI_SCL_RX_WAKE_PIN)
 828:.\Generated_Source\PSoC4/UART_UART.c ****             (void) UART_uart_rx_wake_i2c_sda_spi_mosi_ClearInterrupt();
 829:.\Generated_Source\PSoC4/UART_UART.c ****         #endif /* (UART_MOSI_SCL_RX_WAKE_PIN) */
 830:.\Generated_Source\PSoC4/UART_UART.c ****     #else
ARM GAS  C:\Users\Helon\AppData\Local\Temp\cc29ZTyE.s 			page 16


 831:.\Generated_Source\PSoC4/UART_UART.c ****         #if(UART_UART_RX_WAKE_PIN)
 832:.\Generated_Source\PSoC4/UART_UART.c ****             (void) UART_rx_wake_ClearInterrupt();
 833:.\Generated_Source\PSoC4/UART_UART.c ****         #endif /* (UART_UART_RX_WAKE_PIN) */
 834:.\Generated_Source\PSoC4/UART_UART.c ****     #endif /* (UART_SCB_MODE_UNCONFIG_CONST_CFG) */
 835:.\Generated_Source\PSoC4/UART_UART.c **** 
 836:.\Generated_Source\PSoC4/UART_UART.c ****     #if(UART_UART_RX_WAKEUP_IRQ)
 837:.\Generated_Source\PSoC4/UART_UART.c ****         UART_RxWakeClearPendingInt();
 838:.\Generated_Source\PSoC4/UART_UART.c ****         UART_RxWakeEnableInt();
 839:.\Generated_Source\PSoC4/UART_UART.c ****     #endif /* (UART_UART_RX_WAKEUP_IRQ) */
 840:.\Generated_Source\PSoC4/UART_UART.c ****     }
 841:.\Generated_Source\PSoC4/UART_UART.c **** 
 842:.\Generated_Source\PSoC4/UART_UART.c **** 
 843:.\Generated_Source\PSoC4/UART_UART.c ****     /*******************************************************************************
 844:.\Generated_Source\PSoC4/UART_UART.c ****     * Function Name: UART_UartRestoreConfig
 845:.\Generated_Source\PSoC4/UART_UART.c ****     ********************************************************************************
 846:.\Generated_Source\PSoC4/UART_UART.c ****     *
 847:.\Generated_Source\PSoC4/UART_UART.c ****     * Summary:
 848:.\Generated_Source\PSoC4/UART_UART.c ****     *  Disables the RX GPIO interrupt. Until this function is called the interrupt
 849:.\Generated_Source\PSoC4/UART_UART.c ****     *  remains active and triggers on every falling edge of the UART RX line.
 850:.\Generated_Source\PSoC4/UART_UART.c ****     *
 851:.\Generated_Source\PSoC4/UART_UART.c ****     * Parameters:
 852:.\Generated_Source\PSoC4/UART_UART.c ****     *  None
 853:.\Generated_Source\PSoC4/UART_UART.c ****     *
 854:.\Generated_Source\PSoC4/UART_UART.c ****     * Return:
 855:.\Generated_Source\PSoC4/UART_UART.c ****     *  None
 856:.\Generated_Source\PSoC4/UART_UART.c ****     *
 857:.\Generated_Source\PSoC4/UART_UART.c ****     *******************************************************************************/
 858:.\Generated_Source\PSoC4/UART_UART.c ****     void UART_UartRestoreConfig(void)
 859:.\Generated_Source\PSoC4/UART_UART.c ****     {
 860:.\Generated_Source\PSoC4/UART_UART.c ****     /* Disable RX GPIO interrupt: no more triggers in active mode */
 861:.\Generated_Source\PSoC4/UART_UART.c ****     #if(UART_UART_RX_WAKEUP_IRQ)
 862:.\Generated_Source\PSoC4/UART_UART.c ****         UART_RxWakeDisableInt();
 863:.\Generated_Source\PSoC4/UART_UART.c ****     #endif /* (UART_UART_RX_WAKEUP_IRQ) */
 864:.\Generated_Source\PSoC4/UART_UART.c ****     }
 865:.\Generated_Source\PSoC4/UART_UART.c **** #endif /* (UART_UART_WAKE_ENABLE_CONST) */
 866:.\Generated_Source\PSoC4/UART_UART.c **** 
 867:.\Generated_Source\PSoC4/UART_UART.c **** 
 868:.\Generated_Source\PSoC4/UART_UART.c **** #if(UART_UART_RX_WAKEUP_IRQ)
 869:.\Generated_Source\PSoC4/UART_UART.c ****     /*******************************************************************************
 870:.\Generated_Source\PSoC4/UART_UART.c ****     * Function Name: UART_UART_WAKEUP_ISR
 871:.\Generated_Source\PSoC4/UART_UART.c ****     ********************************************************************************
 872:.\Generated_Source\PSoC4/UART_UART.c ****     *
 873:.\Generated_Source\PSoC4/UART_UART.c ****     * Summary:
 874:.\Generated_Source\PSoC4/UART_UART.c ****     *  Handles the Interrupt Service Routine for the SCB UART mode GPIO wakeup
 875:.\Generated_Source\PSoC4/UART_UART.c ****     *  event. This event is configured to trigger on a falling edge of the RX line.
 876:.\Generated_Source\PSoC4/UART_UART.c ****     *
 877:.\Generated_Source\PSoC4/UART_UART.c ****     * Parameters:
 878:.\Generated_Source\PSoC4/UART_UART.c ****     *  None
 879:.\Generated_Source\PSoC4/UART_UART.c ****     *
 880:.\Generated_Source\PSoC4/UART_UART.c ****     * Return:
 881:.\Generated_Source\PSoC4/UART_UART.c ****     *  None
 882:.\Generated_Source\PSoC4/UART_UART.c ****     *
 883:.\Generated_Source\PSoC4/UART_UART.c ****     *******************************************************************************/
 884:.\Generated_Source\PSoC4/UART_UART.c ****     CY_ISR(UART_UART_WAKEUP_ISR)
 885:.\Generated_Source\PSoC4/UART_UART.c ****     {
  26              		.loc 1 885 0
  27              		.cfi_startproc
ARM GAS  C:\Users\Helon\AppData\Local\Temp\cc29ZTyE.s 			page 17


  28 0000 08B5     		push	{r3, lr}
  29              		.cfi_def_cfa_offset 8
  30              		.cfi_offset 3, -8
  31              		.cfi_offset 14, -4
 886:.\Generated_Source\PSoC4/UART_UART.c ****     #ifdef UART_UART_WAKEUP_ISR_ENTRY_CALLBACK
 887:.\Generated_Source\PSoC4/UART_UART.c ****         UART_UART_WAKEUP_ISR_EntryCallback();
 888:.\Generated_Source\PSoC4/UART_UART.c ****     #endif /* UART_UART_WAKEUP_ISR_ENTRY_CALLBACK */
 889:.\Generated_Source\PSoC4/UART_UART.c **** 
 890:.\Generated_Source\PSoC4/UART_UART.c ****         /* Clear interrupt source: the event becomes multi triggered and is
 891:.\Generated_Source\PSoC4/UART_UART.c ****         * only disabled by UART_UartRestoreConfig() call.
 892:.\Generated_Source\PSoC4/UART_UART.c ****         */
 893:.\Generated_Source\PSoC4/UART_UART.c ****     #if(UART_SCB_MODE_UNCONFIG_CONST_CFG)
 894:.\Generated_Source\PSoC4/UART_UART.c ****         #if(UART_MOSI_SCL_RX_WAKE_PIN)
 895:.\Generated_Source\PSoC4/UART_UART.c ****             (void) UART_uart_rx_wake_i2c_sda_spi_mosi_ClearInterrupt();
 896:.\Generated_Source\PSoC4/UART_UART.c ****         #endif /* (UART_MOSI_SCL_RX_WAKE_PIN) */
 897:.\Generated_Source\PSoC4/UART_UART.c ****     #else
 898:.\Generated_Source\PSoC4/UART_UART.c ****         #if(UART_UART_RX_WAKE_PIN)
 899:.\Generated_Source\PSoC4/UART_UART.c ****             (void) UART_rx_wake_ClearInterrupt();
  32              		.loc 1 899 0
  33 0002 FFF7FEFF 		bl	UART_rx_wake_ClearInterrupt
  34              	.LVL0:
 900:.\Generated_Source\PSoC4/UART_UART.c ****         #endif /* (UART_UART_RX_WAKE_PIN) */
 901:.\Generated_Source\PSoC4/UART_UART.c ****     #endif /* (UART_SCB_MODE_UNCONFIG_CONST_CFG) */
 902:.\Generated_Source\PSoC4/UART_UART.c **** 
 903:.\Generated_Source\PSoC4/UART_UART.c ****     #ifdef UART_UART_WAKEUP_ISR_EXIT_CALLBACK
 904:.\Generated_Source\PSoC4/UART_UART.c ****         UART_UART_WAKEUP_ISR_ExitCallback();
 905:.\Generated_Source\PSoC4/UART_UART.c ****     #endif /* UART_UART_WAKEUP_ISR_EXIT_CALLBACK */
 906:.\Generated_Source\PSoC4/UART_UART.c ****     }
  35              		.loc 1 906 0
  36              		@ sp needed
  37 0006 08BD     		pop	{r3, pc}
  38              		.cfi_endproc
  39              	.LFE18:
  40              		.size	UART_UART_WAKEUP_ISR, .-UART_UART_WAKEUP_ISR
  41              		.section	.text.UART_UartInit,"ax",%progbits
  42              		.align	1
  43              		.global	UART_UartInit
  44              		.code	16
  45              		.thumb_func
  46              		.type	UART_UartInit, %function
  47              	UART_UartInit:
  48              	.LFB2:
 231:.\Generated_Source\PSoC4/UART_UART.c ****         /* Configure UART interface */
  49              		.loc 1 231 0
  50              		.cfi_startproc
  51 0000 70B5     		push	{r4, r5, r6, lr}
  52              		.cfi_def_cfa_offset 16
  53              		.cfi_offset 4, -16
  54              		.cfi_offset 5, -12
  55              		.cfi_offset 6, -8
  56              		.cfi_offset 14, -4
 236:.\Generated_Source\PSoC4/UART_UART.c **** 
  57              		.loc 1 236 0
  58 0002 0024     		mov	r4, #0
 239:.\Generated_Source\PSoC4/UART_UART.c ****         UART_RX_CTRL_REG      = UART_UART_DEFAULT_RX_CTRL;
  59              		.loc 1 239 0
  60 0004 0125     		mov	r5, #1
ARM GAS  C:\Users\Helon\AppData\Local\Temp\cc29ZTyE.s 			page 18


 241:.\Generated_Source\PSoC4/UART_UART.c ****         UART_RX_MATCH_REG     = UART_UART_DEFAULT_RX_MATCH_REG;
  61              		.loc 1 241 0
  62 0006 0721     		mov	r1, #7
 250:.\Generated_Source\PSoC4/UART_UART.c ****     #endif /* !(UART_CY_SCBIP_V0 || UART_CY_SCBIP_V1) */
  63              		.loc 1 250 0
  64 0008 0426     		mov	r6, #4
 233:.\Generated_Source\PSoC4/UART_UART.c **** 
  65              		.loc 1 233 0
  66 000a 1F4A     		ldr	r2, .L3
  67 000c 1F4B     		ldr	r3, .L3+4
 255:.\Generated_Source\PSoC4/UART_UART.c ****         CyIntSetPriority(UART_ISR_NUMBER, UART_ISR_PRIORITY);
  68              		.loc 1 255 0
  69 000e 0920     		mov	r0, #9
 233:.\Generated_Source\PSoC4/UART_UART.c **** 
  70              		.loc 1 233 0
  71 0010 1A60     		str	r2, [r3]
 236:.\Generated_Source\PSoC4/UART_UART.c **** 
  72              		.loc 1 236 0
  73 0012 1F4B     		ldr	r3, .L3+8
 240:.\Generated_Source\PSoC4/UART_UART.c ****         UART_RX_FIFO_CTRL_REG = UART_UART_DEFAULT_RX_FIFO_CTRL;
  74              		.loc 1 240 0
  75 0014 1F4A     		ldr	r2, .L3+12
 236:.\Generated_Source\PSoC4/UART_UART.c **** 
  76              		.loc 1 236 0
  77 0016 1C60     		str	r4, [r3]
 239:.\Generated_Source\PSoC4/UART_UART.c ****         UART_RX_CTRL_REG      = UART_UART_DEFAULT_RX_CTRL;
  78              		.loc 1 239 0
  79 0018 1F4B     		ldr	r3, .L3+16
 285:.\Generated_Source\PSoC4/UART_UART.c **** #endif /* (UART_SCB_MODE_UNCONFIG_CONST_CFG) */
  80              		.loc 1 285 0
  81              		@ sp needed
 239:.\Generated_Source\PSoC4/UART_UART.c ****         UART_RX_CTRL_REG      = UART_UART_DEFAULT_RX_CTRL;
  82              		.loc 1 239 0
  83 001a 1D60     		str	r5, [r3]
 240:.\Generated_Source\PSoC4/UART_UART.c ****         UART_RX_FIFO_CTRL_REG = UART_UART_DEFAULT_RX_FIFO_CTRL;
  84              		.loc 1 240 0
  85 001c 1F4B     		ldr	r3, .L3+20
  86 001e 1360     		str	r3, [r2]
 241:.\Generated_Source\PSoC4/UART_UART.c ****         UART_RX_MATCH_REG     = UART_UART_DEFAULT_RX_MATCH_REG;
  87              		.loc 1 241 0
  88 0020 1F4A     		ldr	r2, .L3+24
  89 0022 1160     		str	r1, [r2]
 242:.\Generated_Source\PSoC4/UART_UART.c **** 
  90              		.loc 1 242 0
  91 0024 1F4A     		ldr	r2, .L3+28
  92 0026 1460     		str	r4, [r2]
 245:.\Generated_Source\PSoC4/UART_UART.c ****         UART_TX_CTRL_REG      = UART_UART_DEFAULT_TX_CTRL;
  93              		.loc 1 245 0
  94 0028 1F4A     		ldr	r2, .L3+32
  95 002a 1560     		str	r5, [r2]
 246:.\Generated_Source\PSoC4/UART_UART.c ****         UART_TX_FIFO_CTRL_REG = UART_UART_DEFAULT_TX_FIFO_CTRL;
  96              		.loc 1 246 0
  97 002c 1F4A     		ldr	r2, .L3+36
  98 002e 1360     		str	r3, [r2]
 247:.\Generated_Source\PSoC4/UART_UART.c **** 
  99              		.loc 1 247 0
 100 0030 1F4B     		ldr	r3, .L3+40
ARM GAS  C:\Users\Helon\AppData\Local\Temp\cc29ZTyE.s 			page 19


 101 0032 1C60     		str	r4, [r3]
 250:.\Generated_Source\PSoC4/UART_UART.c ****     #endif /* !(UART_CY_SCBIP_V0 || UART_CY_SCBIP_V1) */
 102              		.loc 1 250 0
 103 0034 1F4B     		ldr	r3, .L3+44
 104 0036 1E60     		str	r6, [r3]
 255:.\Generated_Source\PSoC4/UART_UART.c ****         CyIntSetPriority(UART_ISR_NUMBER, UART_ISR_PRIORITY);
 105              		.loc 1 255 0
 106 0038 FFF7FEFF 		bl	CyIntDisable
 107              	.LVL1:
 256:.\Generated_Source\PSoC4/UART_UART.c ****         (void) CyIntSetVector(UART_ISR_NUMBER, &UART_SPI_UART_ISR);
 108              		.loc 1 256 0
 109 003c 0920     		mov	r0, #9
 110 003e 0321     		mov	r1, #3
 111 0040 FFF7FEFF 		bl	CyIntSetPriority
 112              	.LVL2:
 257:.\Generated_Source\PSoC4/UART_UART.c ****     #endif /* (UART_SCB_IRQ_INTERNAL) */
 113              		.loc 1 257 0
 114 0044 1C49     		ldr	r1, .L3+48
 115 0046 0920     		mov	r0, #9
 116 0048 FFF7FEFF 		bl	CyIntSetVector
 117              	.LVL3:
 262:.\Generated_Source\PSoC4/UART_UART.c ****         CyIntSetPriority(UART_RX_WAKE_ISR_NUMBER, UART_RX_WAKE_ISR_PRIORITY);
 118              		.loc 1 262 0
 119 004c 281C     		mov	r0, r5
 120 004e FFF7FEFF 		bl	CyIntDisable
 121              	.LVL4:
 263:.\Generated_Source\PSoC4/UART_UART.c ****         (void) CyIntSetVector(UART_RX_WAKE_ISR_NUMBER, &UART_UART_WAKEUP_ISR);
 122              		.loc 1 263 0
 123 0052 281C     		mov	r0, r5
 124 0054 0321     		mov	r1, #3
 125 0056 FFF7FEFF 		bl	CyIntSetPriority
 126              	.LVL5:
 264:.\Generated_Source\PSoC4/UART_UART.c ****     #endif /* (UART_UART_RX_WAKEUP_IRQ) */
 127              		.loc 1 264 0
 128 005a 281C     		mov	r0, r5
 129 005c 1749     		ldr	r1, .L3+52
 130 005e FFF7FEFF 		bl	CyIntSetVector
 131              	.LVL6:
 268:.\Generated_Source\PSoC4/UART_UART.c ****         UART_INTR_SPI_EC_MASK_REG = UART_UART_DEFAULT_INTR_SPI_EC_MASK;
 132              		.loc 1 268 0
 133 0062 174B     		ldr	r3, .L3+56
 134 0064 1C60     		str	r4, [r3]
 269:.\Generated_Source\PSoC4/UART_UART.c ****         UART_INTR_SLAVE_MASK_REG  = UART_UART_DEFAULT_INTR_SLAVE_MASK;
 135              		.loc 1 269 0
 136 0066 174B     		ldr	r3, .L3+60
 137 0068 1C60     		str	r4, [r3]
 270:.\Generated_Source\PSoC4/UART_UART.c ****         UART_INTR_MASTER_MASK_REG = UART_UART_DEFAULT_INTR_MASTER_MASK;
 138              		.loc 1 270 0
 139 006a 174B     		ldr	r3, .L3+64
 140 006c 1C60     		str	r4, [r3]
 271:.\Generated_Source\PSoC4/UART_UART.c ****         UART_INTR_RX_MASK_REG     = UART_UART_DEFAULT_INTR_RX_MASK;
 141              		.loc 1 271 0
 142 006e 174B     		ldr	r3, .L3+68
 143 0070 1C60     		str	r4, [r3]
 272:.\Generated_Source\PSoC4/UART_UART.c ****         UART_INTR_TX_MASK_REG     = UART_UART_DEFAULT_INTR_TX_MASK;
 144              		.loc 1 272 0
 145 0072 174B     		ldr	r3, .L3+72
ARM GAS  C:\Users\Helon\AppData\Local\Temp\cc29ZTyE.s 			page 20


 146 0074 1E60     		str	r6, [r3]
 273:.\Generated_Source\PSoC4/UART_UART.c **** 
 147              		.loc 1 273 0
 148 0076 174B     		ldr	r3, .L3+76
 149 0078 1C60     		str	r4, [r3]
 276:.\Generated_Source\PSoC4/UART_UART.c ****         UART_rxBufferTail     = 0u;
 150              		.loc 1 276 0
 151 007a 174B     		ldr	r3, .L3+80
 152 007c 1C60     		str	r4, [r3]
 277:.\Generated_Source\PSoC4/UART_UART.c ****         UART_rxBufferOverflow = 0u;
 153              		.loc 1 277 0
 154 007e 174B     		ldr	r3, .L3+84
 155 0080 1C60     		str	r4, [r3]
 278:.\Generated_Source\PSoC4/UART_UART.c ****     #endif /* (UART_INTERNAL_RX_SW_BUFFER_CONST) */
 156              		.loc 1 278 0
 157 0082 174B     		ldr	r3, .L3+88
 158 0084 1C70     		strb	r4, [r3]
 285:.\Generated_Source\PSoC4/UART_UART.c **** #endif /* (UART_SCB_MODE_UNCONFIG_CONST_CFG) */
 159              		.loc 1 285 0
 160 0086 70BD     		pop	{r4, r5, r6, pc}
 161              	.L4:
 162              		.align	2
 163              	.L3:
 164 0088 0B000002 		.word	33554443
 165 008c 00002440 		.word	1076101120
 166 0090 40002440 		.word	1076101184
 167 0094 00032440 		.word	1076101888
 168 0098 48002440 		.word	1076101192
 169 009c 07000080 		.word	-2147483641
 170 00a0 04032440 		.word	1076101892
 171 00a4 10032440 		.word	1076101904
 172 00a8 44002440 		.word	1076101188
 173 00ac 00022440 		.word	1076101632
 174 00b0 04022440 		.word	1076101636
 175 00b4 50002440 		.word	1076101200
 176 00b8 00000000 		.word	UART_SPI_UART_ISR
 177 00bc 00000000 		.word	UART_UART_WAKEUP_ISR
 178 00c0 880E2440 		.word	1076104840
 179 00c4 C80E2440 		.word	1076104904
 180 00c8 480F2440 		.word	1076105032
 181 00cc 080F2440 		.word	1076104968
 182 00d0 C80F2440 		.word	1076105160
 183 00d4 880F2440 		.word	1076105096
 184 00d8 00000000 		.word	UART_rxBufferHead
 185 00dc 00000000 		.word	UART_rxBufferTail
 186 00e0 00000000 		.word	UART_rxBufferOverflow
 187              		.cfi_endproc
 188              	.LFE2:
 189              		.size	UART_UartInit, .-UART_UartInit
 190              		.section	.text.UART_UartPostEnable,"ax",%progbits
 191              		.align	1
 192              		.global	UART_UartPostEnable
 193              		.code	16
 194              		.thumb_func
 195              		.type	UART_UartPostEnable, %function
 196              	UART_UartPostEnable:
 197              	.LFB3:
ARM GAS  C:\Users\Helon\AppData\Local\Temp\cc29ZTyE.s 			page 21


 305:.\Generated_Source\PSoC4/UART_UART.c **** #if (UART_SCB_MODE_UNCONFIG_CONST_CFG)
 198              		.loc 1 305 0
 199              		.cfi_startproc
 329:.\Generated_Source\PSoC4/UART_UART.c ****                                    UART_TX_HSIOM_POS, UART_HSIOM_UART_SEL);
 200              		.loc 1 329 0
 201 0000 044A     		ldr	r2, .L6
 202 0002 054B     		ldr	r3, .L6+4
 203 0004 1168     		ldr	r1, [r2]
 340:.\Generated_Source\PSoC4/UART_UART.c **** 
 204              		.loc 1 340 0
 205              		@ sp needed
 329:.\Generated_Source\PSoC4/UART_UART.c ****                                    UART_TX_HSIOM_POS, UART_HSIOM_UART_SEL);
 206              		.loc 1 329 0
 207 0006 0B40     		and	r3, r1
 208 0008 9021     		mov	r1, #144
 209 000a 0904     		lsl	r1, r1, #16
 210 000c 0B43     		orr	r3, r1
 211 000e 1360     		str	r3, [r2]
 340:.\Generated_Source\PSoC4/UART_UART.c **** 
 212              		.loc 1 340 0
 213 0010 7047     		bx	lr
 214              	.L7:
 215 0012 C046     		.align	2
 216              	.L6:
 217 0014 00010240 		.word	1073873152
 218 0018 FFFF0FFF 		.word	-15728641
 219              		.cfi_endproc
 220              	.LFE3:
 221              		.size	UART_UartPostEnable, .-UART_UartPostEnable
 222              		.section	.text.UART_UartStop,"ax",%progbits
 223              		.align	1
 224              		.global	UART_UartStop
 225              		.code	16
 226              		.thumb_func
 227              		.type	UART_UartStop, %function
 228              	UART_UartStop:
 229              	.LFB4:
 361:.\Generated_Source\PSoC4/UART_UART.c **** #if(UART_SCB_MODE_UNCONFIG_CONST_CFG)
 230              		.loc 1 361 0
 231              		.cfi_startproc
 387:.\Generated_Source\PSoC4/UART_UART.c ****                                        UART_TX_HSIOM_POS, UART_HSIOM_GPIO_SEL);
 232              		.loc 1 387 0
 233 0000 054A     		ldr	r2, .L9
 234 0002 064B     		ldr	r3, .L9+4
 235 0004 1168     		ldr	r1, [r2]
 406:.\Generated_Source\PSoC4/UART_UART.c **** 
 236              		.loc 1 406 0
 237              		@ sp needed
 387:.\Generated_Source\PSoC4/UART_UART.c ****                                        UART_TX_HSIOM_POS, UART_HSIOM_GPIO_SEL);
 238              		.loc 1 387 0
 239 0006 0B40     		and	r3, r1
 240 0008 1360     		str	r3, [r2]
 404:.\Generated_Source\PSoC4/UART_UART.c **** #endif /* (UART_UART_WAKE_ENABLE_CONST) */
 241              		.loc 1 404 0
 242 000a 054A     		ldr	r2, .L9+8
 243 000c 054B     		ldr	r3, .L9+12
 244 000e 1168     		ldr	r1, [r2]
ARM GAS  C:\Users\Helon\AppData\Local\Temp\cc29ZTyE.s 			page 22


 245 0010 0B40     		and	r3, r1
 246 0012 1360     		str	r3, [r2]
 406:.\Generated_Source\PSoC4/UART_UART.c **** 
 247              		.loc 1 406 0
 248 0014 7047     		bx	lr
 249              	.L10:
 250 0016 C046     		.align	2
 251              	.L9:
 252 0018 00010240 		.word	1073873152
 253 001c FFFF0FFF 		.word	-15728641
 254 0020 48002440 		.word	1076101192
 255 0024 FFDFFFFF 		.word	-8193
 256              		.cfi_endproc
 257              	.LFE4:
 258              		.size	UART_UartStop, .-UART_UartStop
 259              		.section	.text.UART_UartSetRxAddress,"ax",%progbits
 260              		.align	1
 261              		.global	UART_UartSetRxAddress
 262              		.code	16
 263              		.thumb_func
 264              		.type	UART_UartSetRxAddress, %function
 265              	UART_UartSetRxAddress:
 266              	.LFB5:
 425:.\Generated_Source\PSoC4/UART_UART.c ****      uint32 matchReg;
 267              		.loc 1 425 0
 268              		.cfi_startproc
 269              	.LVL7:
 430:.\Generated_Source\PSoC4/UART_UART.c ****     matchReg |= ((uint32)  (address & UART_RX_MATCH_ADDR_MASK)); /* Set address  */
 270              		.loc 1 430 0
 271 0000 FF22     		mov	r2, #255
 428:.\Generated_Source\PSoC4/UART_UART.c **** 
 272              		.loc 1 428 0
 273 0002 0349     		ldr	r1, .L12
 431:.\Generated_Source\PSoC4/UART_UART.c **** 
 274              		.loc 1 431 0
 275 0004 1040     		and	r0, r2
 276              	.LVL8:
 428:.\Generated_Source\PSoC4/UART_UART.c **** 
 277              		.loc 1 428 0
 278 0006 0B68     		ldr	r3, [r1]
 279              	.LVL9:
 434:.\Generated_Source\PSoC4/UART_UART.c **** 
 280              		.loc 1 434 0
 281              		@ sp needed
 430:.\Generated_Source\PSoC4/UART_UART.c ****     matchReg |= ((uint32)  (address & UART_RX_MATCH_ADDR_MASK)); /* Set address  */
 282              		.loc 1 430 0
 283 0008 9343     		bic	r3, r2
 284              	.LVL10:
 431:.\Generated_Source\PSoC4/UART_UART.c **** 
 285              		.loc 1 431 0
 286 000a 1843     		orr	r0, r3
 287              	.LVL11:
 433:.\Generated_Source\PSoC4/UART_UART.c **** }
 288              		.loc 1 433 0
 289 000c 0860     		str	r0, [r1]
 434:.\Generated_Source\PSoC4/UART_UART.c **** 
 290              		.loc 1 434 0
ARM GAS  C:\Users\Helon\AppData\Local\Temp\cc29ZTyE.s 			page 23


 291 000e 7047     		bx	lr
 292              	.L13:
 293              		.align	2
 294              	.L12:
 295 0010 10032440 		.word	1076101904
 296              		.cfi_endproc
 297              	.LFE5:
 298              		.size	UART_UartSetRxAddress, .-UART_UartSetRxAddress
 299              		.section	.text.UART_UartSetRxAddressMask,"ax",%progbits
 300              		.align	1
 301              		.global	UART_UartSetRxAddressMask
 302              		.code	16
 303              		.thumb_func
 304              		.type	UART_UartSetRxAddressMask, %function
 305              	UART_UartSetRxAddressMask:
 306              	.LFB6:
 454:.\Generated_Source\PSoC4/UART_UART.c ****     uint32 matchReg;
 307              		.loc 1 454 0
 308              		.cfi_startproc
 309              	.LVL12:
 457:.\Generated_Source\PSoC4/UART_UART.c **** 
 310              		.loc 1 457 0
 311 0000 034A     		ldr	r2, .L15
 459:.\Generated_Source\PSoC4/UART_UART.c ****     matchReg |= ((uint32) (addressMask << UART_RX_MATCH_MASK_POS));
 312              		.loc 1 459 0
 313 0002 044B     		ldr	r3, .L15+4
 457:.\Generated_Source\PSoC4/UART_UART.c **** 
 314              		.loc 1 457 0
 315 0004 1168     		ldr	r1, [r2]
 316              	.LVL13:
 460:.\Generated_Source\PSoC4/UART_UART.c **** 
 317              		.loc 1 460 0
 318 0006 0004     		lsl	r0, r0, #16
 319              	.LVL14:
 459:.\Generated_Source\PSoC4/UART_UART.c ****     matchReg |= ((uint32) (addressMask << UART_RX_MATCH_MASK_POS));
 320              		.loc 1 459 0
 321 0008 0B40     		and	r3, r1
 322              	.LVL15:
 460:.\Generated_Source\PSoC4/UART_UART.c **** 
 323              		.loc 1 460 0
 324 000a 1843     		orr	r0, r3
 325              	.LVL16:
 462:.\Generated_Source\PSoC4/UART_UART.c **** }
 326              		.loc 1 462 0
 327 000c 1060     		str	r0, [r2]
 463:.\Generated_Source\PSoC4/UART_UART.c **** 
 328              		.loc 1 463 0
 329              		@ sp needed
 330 000e 7047     		bx	lr
 331              	.L16:
 332              		.align	2
 333              	.L15:
 334 0010 10032440 		.word	1076101904
 335 0014 FFFF00FF 		.word	-16711681
 336              		.cfi_endproc
 337              	.LFE6:
 338              		.size	UART_UartSetRxAddressMask, .-UART_UartSetRxAddressMask
ARM GAS  C:\Users\Helon\AppData\Local\Temp\cc29ZTyE.s 			page 24


 339              		.section	.text.UART_UartGetChar,"ax",%progbits
 340              		.align	1
 341              		.global	UART_UartGetChar
 342              		.code	16
 343              		.thumb_func
 344              		.type	UART_UartGetChar, %function
 345              	UART_UartGetChar:
 346              	.LFB7:
 499:.\Generated_Source\PSoC4/UART_UART.c ****         uint32 rxData = 0u;
 347              		.loc 1 499 0
 348              		.cfi_startproc
 349              	.LVL17:
 350 0000 08B5     		push	{r3, lr}
 351              		.cfi_def_cfa_offset 8
 352              		.cfi_offset 3, -8
 353              		.cfi_offset 14, -4
 503:.\Generated_Source\PSoC4/UART_UART.c ****         {
 354              		.loc 1 503 0
 355 0002 FFF7FEFF 		bl	UART_SpiUartGetRxBufferSize
 356              	.LVL18:
 357 0006 031C     		mov	r3, r0
 500:.\Generated_Source\PSoC4/UART_UART.c **** 
 358              		.loc 1 500 0
 359 0008 0020     		mov	r0, #0
 503:.\Generated_Source\PSoC4/UART_UART.c ****         {
 360              		.loc 1 503 0
 361 000a 8342     		cmp	r3, r0
 362 000c 01D0     		beq	.L18
 505:.\Generated_Source\PSoC4/UART_UART.c ****         }
 363              		.loc 1 505 0
 364 000e FFF7FEFF 		bl	UART_SpiUartReadRxData
 365              	.LVL19:
 366              	.L18:
 508:.\Generated_Source\PSoC4/UART_UART.c ****         {
 367              		.loc 1 508 0
 368 0012 D822     		mov	r2, #216
 369 0014 034B     		ldr	r3, .L26
 370 0016 9200     		lsl	r2, r2, #2
 371 0018 1968     		ldr	r1, [r3]
 372 001a 1142     		tst	r1, r2
 373 001c 01D0     		beq	.L19
 374              	.LVL20:
 510:.\Generated_Source\PSoC4/UART_UART.c ****             UART_ClearRxInterruptSource(UART_INTR_RX_ERR);
 375              		.loc 1 510 0
 376 001e 0020     		mov	r0, #0
 511:.\Generated_Source\PSoC4/UART_UART.c ****         }
 377              		.loc 1 511 0
 378 0020 1A60     		str	r2, [r3]
 379              	.LVL21:
 380              	.L19:
 515:.\Generated_Source\PSoC4/UART_UART.c **** 
 381              		.loc 1 515 0
 382              		@ sp needed
 383 0022 08BD     		pop	{r3, pc}
 384              	.L27:
 385              		.align	2
 386              	.L26:
ARM GAS  C:\Users\Helon\AppData\Local\Temp\cc29ZTyE.s 			page 25


 387 0024 C00F2440 		.word	1076105152
 388              		.cfi_endproc
 389              	.LFE7:
 390              		.size	UART_UartGetChar, .-UART_UartGetChar
 391              		.section	.text.UART_UartGetByte,"ax",%progbits
 392              		.align	1
 393              		.global	UART_UartGetByte
 394              		.code	16
 395              		.thumb_func
 396              		.type	UART_UartGetByte, %function
 397              	UART_UartGetByte:
 398              	.LFB8:
 547:.\Generated_Source\PSoC4/UART_UART.c ****         uint32 rxData;
 399              		.loc 1 547 0
 400              		.cfi_startproc
 401 0000 10B5     		push	{r4, lr}
 402              		.cfi_def_cfa_offset 8
 403              		.cfi_offset 4, -8
 404              		.cfi_offset 14, -4
 553:.\Generated_Source\PSoC4/UART_UART.c ****         }
 405              		.loc 1 553 0
 406 0002 0920     		mov	r0, #9
 407 0004 FFF7FEFF 		bl	CyIntDisable
 408              	.LVL22:
 557:.\Generated_Source\PSoC4/UART_UART.c ****         {
 409              		.loc 1 557 0
 410 0008 FFF7FEFF 		bl	UART_SpiUartGetRxBufferSize
 411              	.LVL23:
 412 000c 0028     		cmp	r0, #0
 413 000e 06D0     		beq	.L29
 564:.\Generated_Source\PSoC4/UART_UART.c ****             }
 414              		.loc 1 564 0
 415 0010 0920     		mov	r0, #9
 416 0012 FFF7FEFF 		bl	CyIntEnable
 417              	.LVL24:
 569:.\Generated_Source\PSoC4/UART_UART.c ****         }
 418              		.loc 1 569 0
 419 0016 FFF7FEFF 		bl	UART_SpiUartReadRxData
 420              	.LVL25:
 421 001a 041C     		mov	r4, r0
 422              	.LVL26:
 423 001c 04E0     		b	.L30
 424              	.LVL27:
 425              	.L29:
 576:.\Generated_Source\PSoC4/UART_UART.c **** 
 426              		.loc 1 576 0
 427 001e 074B     		ldr	r3, .L31
 584:.\Generated_Source\PSoC4/UART_UART.c ****             }
 428              		.loc 1 584 0
 429 0020 0920     		mov	r0, #9
 576:.\Generated_Source\PSoC4/UART_UART.c **** 
 430              		.loc 1 576 0
 431 0022 1C68     		ldr	r4, [r3]
 432              	.LVL28:
 584:.\Generated_Source\PSoC4/UART_UART.c ****             }
 433              		.loc 1 584 0
 434 0024 FFF7FEFF 		bl	CyIntEnable
ARM GAS  C:\Users\Helon\AppData\Local\Temp\cc29ZTyE.s 			page 26


 435              	.LVL29:
 436              	.L30:
 591:.\Generated_Source\PSoC4/UART_UART.c **** 
 437              		.loc 1 591 0
 438 0028 D823     		mov	r3, #216
 590:.\Generated_Source\PSoC4/UART_UART.c ****         UART_ClearRxInterruptSource(UART_INTR_RX_ERR);
 439              		.loc 1 590 0
 440 002a 054A     		ldr	r2, .L31+4
 591:.\Generated_Source\PSoC4/UART_UART.c **** 
 441              		.loc 1 591 0
 442 002c 9B00     		lsl	r3, r3, #2
 590:.\Generated_Source\PSoC4/UART_UART.c ****         UART_ClearRxInterruptSource(UART_INTR_RX_ERR);
 443              		.loc 1 590 0
 444 002e 1068     		ldr	r0, [r2]
 445              	.LVL30:
 599:.\Generated_Source\PSoC4/UART_UART.c **** 
 446              		.loc 1 599 0
 447              		@ sp needed
 590:.\Generated_Source\PSoC4/UART_UART.c ****         UART_ClearRxInterruptSource(UART_INTR_RX_ERR);
 448              		.loc 1 590 0
 449 0030 1840     		and	r0, r3
 450              	.LVL31:
 596:.\Generated_Source\PSoC4/UART_UART.c **** 
 451              		.loc 1 596 0
 452 0032 0002     		lsl	r0, r0, #8
 453 0034 2043     		orr	r0, r4
 591:.\Generated_Source\PSoC4/UART_UART.c **** 
 454              		.loc 1 591 0
 455 0036 1360     		str	r3, [r2]
 456              	.LVL32:
 599:.\Generated_Source\PSoC4/UART_UART.c **** 
 457              		.loc 1 599 0
 458 0038 10BD     		pop	{r4, pc}
 459              	.L32:
 460 003a C046     		.align	2
 461              	.L31:
 462 003c 40032440 		.word	1076101952
 463 0040 C00F2440 		.word	1076105152
 464              		.cfi_endproc
 465              	.LFE8:
 466              		.size	UART_UartGetByte, .-UART_UartGetByte
 467              		.section	.text.UART_UartSetRtsPolarity,"ax",%progbits
 468              		.align	1
 469              		.global	UART_UartSetRtsPolarity
 470              		.code	16
 471              		.thumb_func
 472              		.type	UART_UartSetRtsPolarity, %function
 473              	UART_UartSetRtsPolarity:
 474              	.LFB9:
 620:.\Generated_Source\PSoC4/UART_UART.c ****             if(0u != polarity)
 475              		.loc 1 620 0
 476              		.cfi_startproc
 477              	.LVL33:
 478 0000 064B     		ldr	r3, .L37
 621:.\Generated_Source\PSoC4/UART_UART.c ****             {
 479              		.loc 1 621 0
 480 0002 0028     		cmp	r0, #0
ARM GAS  C:\Users\Helon\AppData\Local\Temp\cc29ZTyE.s 			page 27


 481 0004 04D0     		beq	.L34
 623:.\Generated_Source\PSoC4/UART_UART.c ****             }
 482              		.loc 1 623 0
 483 0006 8021     		mov	r1, #128
 484 0008 1A68     		ldr	r2, [r3]
 485 000a 4902     		lsl	r1, r1, #9
 486 000c 0A43     		orr	r2, r1
 487 000e 02E0     		b	.L36
 488              	.L34:
 627:.\Generated_Source\PSoC4/UART_UART.c ****             }
 489              		.loc 1 627 0
 490 0010 1968     		ldr	r1, [r3]
 491 0012 034A     		ldr	r2, .L37+4
 492 0014 0A40     		and	r2, r1
 493              	.L36:
 494 0016 1A60     		str	r2, [r3]
 629:.\Generated_Source\PSoC4/UART_UART.c **** 
 495              		.loc 1 629 0
 496              		@ sp needed
 497 0018 7047     		bx	lr
 498              	.L38:
 499 001a C046     		.align	2
 500              	.L37:
 501 001c 50002440 		.word	1076101200
 502 0020 FFFFFEFF 		.word	-65537
 503              		.cfi_endproc
 504              	.LFE9:
 505              		.size	UART_UartSetRtsPolarity, .-UART_UartSetRtsPolarity
 506              		.section	.text.UART_UartSetRtsFifoLevel,"ax",%progbits
 507              		.align	1
 508              		.global	UART_UartSetRtsFifoLevel
 509              		.code	16
 510              		.thumb_func
 511              		.type	UART_UartSetRtsFifoLevel, %function
 512              	UART_UartSetRtsFifoLevel:
 513              	.LFB10:
 651:.\Generated_Source\PSoC4/UART_UART.c ****             uint32 uartFlowCtrl;
 514              		.loc 1 651 0
 515              		.cfi_startproc
 516              	.LVL34:
 656:.\Generated_Source\PSoC4/UART_UART.c ****             uartFlowCtrl |= ((uint32) (UART_UART_FLOW_CTRL_TRIGGER_LEVEL_MASK & level));
 517              		.loc 1 656 0
 518 0000 0F22     		mov	r2, #15
 654:.\Generated_Source\PSoC4/UART_UART.c **** 
 519              		.loc 1 654 0
 520 0002 0349     		ldr	r1, .L40
 657:.\Generated_Source\PSoC4/UART_UART.c **** 
 521              		.loc 1 657 0
 522 0004 1040     		and	r0, r2
 523              	.LVL35:
 654:.\Generated_Source\PSoC4/UART_UART.c **** 
 524              		.loc 1 654 0
 525 0006 0B68     		ldr	r3, [r1]
 526              	.LVL36:
 660:.\Generated_Source\PSoC4/UART_UART.c ****     #endif /* !(UART_CY_SCBIP_V0 || UART_CY_SCBIP_V1) */
 527              		.loc 1 660 0
 528              		@ sp needed
ARM GAS  C:\Users\Helon\AppData\Local\Temp\cc29ZTyE.s 			page 28


 656:.\Generated_Source\PSoC4/UART_UART.c ****             uartFlowCtrl |= ((uint32) (UART_UART_FLOW_CTRL_TRIGGER_LEVEL_MASK & level));
 529              		.loc 1 656 0
 530 0008 9343     		bic	r3, r2
 531              	.LVL37:
 657:.\Generated_Source\PSoC4/UART_UART.c **** 
 532              		.loc 1 657 0
 533 000a 1843     		orr	r0, r3
 534              	.LVL38:
 659:.\Generated_Source\PSoC4/UART_UART.c ****         }
 535              		.loc 1 659 0
 536 000c 0860     		str	r0, [r1]
 660:.\Generated_Source\PSoC4/UART_UART.c ****     #endif /* !(UART_CY_SCBIP_V0 || UART_CY_SCBIP_V1) */
 537              		.loc 1 660 0
 538 000e 7047     		bx	lr
 539              	.L41:
 540              		.align	2
 541              	.L40:
 542 0010 50002440 		.word	1076101200
 543              		.cfi_endproc
 544              	.LFE10:
 545              		.size	UART_UartSetRtsFifoLevel, .-UART_UartSetRtsFifoLevel
 546              		.section	.text.UART_UartPutString,"ax",%progbits
 547              		.align	1
 548              		.global	UART_UartPutString
 549              		.code	16
 550              		.thumb_func
 551              		.type	UART_UartPutString, %function
 552              	UART_UartPutString:
 553              	.LFB11:
 686:.\Generated_Source\PSoC4/UART_UART.c ****         uint32 bufIndex;
 554              		.loc 1 686 0
 555              		.cfi_startproc
 556              	.LVL39:
 557 0000 10B5     		push	{r4, lr}
 558              		.cfi_def_cfa_offset 8
 559              		.cfi_offset 4, -8
 560              		.cfi_offset 14, -4
 561 0002 041C     		mov	r4, r0
 562              	.LVL40:
 563              	.L43:
 564 0004 0134     		add	r4, r4, #1
 565              	.LVL41:
 566 0006 631E     		sub	r3, r4, #1
 692:.\Generated_Source\PSoC4/UART_UART.c ****         {
 567              		.loc 1 692 0
 568 0008 1878     		ldrb	r0, [r3]
 569 000a 0028     		cmp	r0, #0
 570 000c 02D0     		beq	.L45
 694:.\Generated_Source\PSoC4/UART_UART.c ****             bufIndex++;
 571              		.loc 1 694 0
 572 000e FFF7FEFF 		bl	UART_SpiUartWriteTxData
 573              	.LVL42:
 574 0012 F7E7     		b	.L43
 575              	.LVL43:
 576              	.L45:
 697:.\Generated_Source\PSoC4/UART_UART.c **** 
 577              		.loc 1 697 0
ARM GAS  C:\Users\Helon\AppData\Local\Temp\cc29ZTyE.s 			page 29


 578              		@ sp needed
 579              	.LVL44:
 580 0014 10BD     		pop	{r4, pc}
 581              		.cfi_endproc
 582              	.LFE11:
 583              		.size	UART_UartPutString, .-UART_UartPutString
 584              		.section	.text.UART_UartPutCRLF,"ax",%progbits
 585              		.align	1
 586              		.global	UART_UartPutCRLF
 587              		.code	16
 588              		.thumb_func
 589              		.type	UART_UartPutCRLF, %function
 590              	UART_UartPutCRLF:
 591              	.LFB12:
 718:.\Generated_Source\PSoC4/UART_UART.c ****         UART_UartPutChar(txDataByte);  /* Blocks control flow until all data has been sent */
 592              		.loc 1 718 0
 593              		.cfi_startproc
 594              	.LVL45:
 595 0000 08B5     		push	{r3, lr}
 596              		.cfi_def_cfa_offset 8
 597              		.cfi_offset 3, -8
 598              		.cfi_offset 14, -4
 719:.\Generated_Source\PSoC4/UART_UART.c ****         UART_UartPutChar(0x0Du);       /* Blocks control flow until all data has been sent */
 599              		.loc 1 719 0
 600 0002 FFF7FEFF 		bl	UART_SpiUartWriteTxData
 601              	.LVL46:
 720:.\Generated_Source\PSoC4/UART_UART.c ****         UART_UartPutChar(0x0Au);       /* Blocks control flow until all data has been sent */
 602              		.loc 1 720 0
 603 0006 0D20     		mov	r0, #13
 604 0008 FFF7FEFF 		bl	UART_SpiUartWriteTxData
 605              	.LVL47:
 721:.\Generated_Source\PSoC4/UART_UART.c ****     }
 606              		.loc 1 721 0
 607 000c 0A20     		mov	r0, #10
 608 000e FFF7FEFF 		bl	UART_SpiUartWriteTxData
 609              	.LVL48:
 722:.\Generated_Source\PSoC4/UART_UART.c **** 
 610              		.loc 1 722 0
 611              		@ sp needed
 612 0012 08BD     		pop	{r3, pc}
 613              		.cfi_endproc
 614              	.LFE12:
 615              		.size	UART_UartPutCRLF, .-UART_UartPutCRLF
 616              		.section	.text.UART_UartEnableCts,"ax",%progbits
 617              		.align	1
 618              		.global	UART_UartEnableCts
 619              		.code	16
 620              		.thumb_func
 621              		.type	UART_UartEnableCts, %function
 622              	UART_UartEnableCts:
 623              	.LFB13:
 741:.\Generated_Source\PSoC4/UART_UART.c ****             UART_UART_FLOW_CTRL_REG |= (uint32)  UART_UART_FLOW_CTRL_CTS_ENABLE;
 624              		.loc 1 741 0
 625              		.cfi_startproc
 742:.\Generated_Source\PSoC4/UART_UART.c ****         }
 626              		.loc 1 742 0
 627 0000 8021     		mov	r1, #128
ARM GAS  C:\Users\Helon\AppData\Local\Temp\cc29ZTyE.s 			page 30


 628 0002 034A     		ldr	r2, .L48
 629 0004 8904     		lsl	r1, r1, #18
 630 0006 1368     		ldr	r3, [r2]
 743:.\Generated_Source\PSoC4/UART_UART.c **** 
 631              		.loc 1 743 0
 632              		@ sp needed
 742:.\Generated_Source\PSoC4/UART_UART.c ****         }
 633              		.loc 1 742 0
 634 0008 0B43     		orr	r3, r1
 635 000a 1360     		str	r3, [r2]
 743:.\Generated_Source\PSoC4/UART_UART.c **** 
 636              		.loc 1 743 0
 637 000c 7047     		bx	lr
 638              	.L49:
 639 000e C046     		.align	2
 640              	.L48:
 641 0010 50002440 		.word	1076101200
 642              		.cfi_endproc
 643              	.LFE13:
 644              		.size	UART_UartEnableCts, .-UART_UartEnableCts
 645              		.section	.text.UART_UartDisableCts,"ax",%progbits
 646              		.align	1
 647              		.global	UART_UartDisableCts
 648              		.code	16
 649              		.thumb_func
 650              		.type	UART_UartDisableCts, %function
 651              	UART_UartDisableCts:
 652              	.LFB14:
 761:.\Generated_Source\PSoC4/UART_UART.c ****             UART_UART_FLOW_CTRL_REG &= (uint32) ~UART_UART_FLOW_CTRL_CTS_ENABLE;
 653              		.loc 1 761 0
 654              		.cfi_startproc
 762:.\Generated_Source\PSoC4/UART_UART.c ****         }
 655              		.loc 1 762 0
 656 0000 024A     		ldr	r2, .L51
 657 0002 034B     		ldr	r3, .L51+4
 658 0004 1168     		ldr	r1, [r2]
 763:.\Generated_Source\PSoC4/UART_UART.c **** 
 659              		.loc 1 763 0
 660              		@ sp needed
 762:.\Generated_Source\PSoC4/UART_UART.c ****         }
 661              		.loc 1 762 0
 662 0006 0B40     		and	r3, r1
 663 0008 1360     		str	r3, [r2]
 763:.\Generated_Source\PSoC4/UART_UART.c **** 
 664              		.loc 1 763 0
 665 000a 7047     		bx	lr
 666              	.L52:
 667              		.align	2
 668              	.L51:
 669 000c 50002440 		.word	1076101200
 670 0010 FFFFFFFD 		.word	-33554433
 671              		.cfi_endproc
 672              	.LFE14:
 673              		.size	UART_UartDisableCts, .-UART_UartDisableCts
 674              		.section	.text.UART_UartSetCtsPolarity,"ax",%progbits
 675              		.align	1
 676              		.global	UART_UartSetCtsPolarity
ARM GAS  C:\Users\Helon\AppData\Local\Temp\cc29ZTyE.s 			page 31


 677              		.code	16
 678              		.thumb_func
 679              		.type	UART_UartSetCtsPolarity, %function
 680              	UART_UartSetCtsPolarity:
 681              	.LFB15:
 783:.\Generated_Source\PSoC4/UART_UART.c ****             if (0u != polarity)
 682              		.loc 1 783 0
 683              		.cfi_startproc
 684              	.LVL49:
 685 0000 064B     		ldr	r3, .L57
 784:.\Generated_Source\PSoC4/UART_UART.c ****             {
 686              		.loc 1 784 0
 687 0002 0028     		cmp	r0, #0
 688 0004 04D0     		beq	.L54
 786:.\Generated_Source\PSoC4/UART_UART.c ****             }
 689              		.loc 1 786 0
 690 0006 8021     		mov	r1, #128
 691 0008 1A68     		ldr	r2, [r3]
 692 000a 4904     		lsl	r1, r1, #17
 693 000c 0A43     		orr	r2, r1
 694 000e 02E0     		b	.L56
 695              	.L54:
 790:.\Generated_Source\PSoC4/UART_UART.c ****             }
 696              		.loc 1 790 0
 697 0010 1968     		ldr	r1, [r3]
 698 0012 034A     		ldr	r2, .L57+4
 699 0014 0A40     		and	r2, r1
 700              	.L56:
 701 0016 1A60     		str	r2, [r3]
 792:.\Generated_Source\PSoC4/UART_UART.c ****     #endif /* !(UART_CY_SCBIP_V0 || UART_CY_SCBIP_V1) */
 702              		.loc 1 792 0
 703              		@ sp needed
 704 0018 7047     		bx	lr
 705              	.L58:
 706 001a C046     		.align	2
 707              	.L57:
 708 001c 50002440 		.word	1076101200
 709 0020 FFFFFFFE 		.word	-16777217
 710              		.cfi_endproc
 711              	.LFE15:
 712              		.size	UART_UartSetCtsPolarity, .-UART_UartSetCtsPolarity
 713              		.section	.text.UART_UartSaveConfig,"ax",%progbits
 714              		.align	1
 715              		.global	UART_UartSaveConfig
 716              		.code	16
 717              		.thumb_func
 718              		.type	UART_UartSaveConfig, %function
 719              	UART_UartSaveConfig:
 720              	.LFB16:
 817:.\Generated_Source\PSoC4/UART_UART.c ****         /* Clear interrupt activity:
 721              		.loc 1 817 0
 722              		.cfi_startproc
 824:.\Generated_Source\PSoC4/UART_UART.c **** 
 723              		.loc 1 824 0
 724 0000 8021     		mov	r1, #128
 725 0002 074A     		ldr	r2, .L60
 817:.\Generated_Source\PSoC4/UART_UART.c ****         /* Clear interrupt activity:
ARM GAS  C:\Users\Helon\AppData\Local\Temp\cc29ZTyE.s 			page 32


 726              		.loc 1 817 0
 727 0004 08B5     		push	{r3, lr}
 728              		.cfi_def_cfa_offset 8
 729              		.cfi_offset 3, -8
 730              		.cfi_offset 14, -4
 824:.\Generated_Source\PSoC4/UART_UART.c **** 
 731              		.loc 1 824 0
 732 0006 1368     		ldr	r3, [r2]
 733 0008 8901     		lsl	r1, r1, #6
 734 000a 0B43     		orr	r3, r1
 735 000c 1360     		str	r3, [r2]
 832:.\Generated_Source\PSoC4/UART_UART.c ****         #endif /* (UART_UART_RX_WAKE_PIN) */
 736              		.loc 1 832 0
 737 000e FFF7FEFF 		bl	UART_rx_wake_ClearInterrupt
 738              	.LVL50:
 837:.\Generated_Source\PSoC4/UART_UART.c ****         UART_RxWakeEnableInt();
 739              		.loc 1 837 0
 740 0012 0120     		mov	r0, #1
 741 0014 FFF7FEFF 		bl	CyIntClearPending
 742              	.LVL51:
 838:.\Generated_Source\PSoC4/UART_UART.c ****     #endif /* (UART_UART_RX_WAKEUP_IRQ) */
 743              		.loc 1 838 0
 744 0018 0120     		mov	r0, #1
 745 001a FFF7FEFF 		bl	CyIntEnable
 746              	.LVL52:
 840:.\Generated_Source\PSoC4/UART_UART.c **** 
 747              		.loc 1 840 0
 748              		@ sp needed
 749 001e 08BD     		pop	{r3, pc}
 750              	.L61:
 751              		.align	2
 752              	.L60:
 753 0020 48002440 		.word	1076101192
 754              		.cfi_endproc
 755              	.LFE16:
 756              		.size	UART_UartSaveConfig, .-UART_UartSaveConfig
 757              		.section	.text.UART_UartRestoreConfig,"ax",%progbits
 758              		.align	1
 759              		.global	UART_UartRestoreConfig
 760              		.code	16
 761              		.thumb_func
 762              		.type	UART_UartRestoreConfig, %function
 763              	UART_UartRestoreConfig:
 764              	.LFB17:
 859:.\Generated_Source\PSoC4/UART_UART.c ****     /* Disable RX GPIO interrupt: no more triggers in active mode */
 765              		.loc 1 859 0
 766              		.cfi_startproc
 767 0000 08B5     		push	{r3, lr}
 768              		.cfi_def_cfa_offset 8
 769              		.cfi_offset 3, -8
 770              		.cfi_offset 14, -4
 862:.\Generated_Source\PSoC4/UART_UART.c ****     #endif /* (UART_UART_RX_WAKEUP_IRQ) */
 771              		.loc 1 862 0
 772 0002 0120     		mov	r0, #1
 773 0004 FFF7FEFF 		bl	CyIntDisable
 774              	.LVL53:
 864:.\Generated_Source\PSoC4/UART_UART.c **** #endif /* (UART_UART_WAKE_ENABLE_CONST) */
ARM GAS  C:\Users\Helon\AppData\Local\Temp\cc29ZTyE.s 			page 33


 775              		.loc 1 864 0
 776              		@ sp needed
 777 0008 08BD     		pop	{r3, pc}
 778              		.cfi_endproc
 779              	.LFE17:
 780              		.size	UART_UartRestoreConfig, .-UART_UartRestoreConfig
 781              		.text
 782              	.Letext0:
 783              		.file 2 "Generated_Source\\PSoC4/cytypes.h"
 784              		.file 3 ".\\Generated_Source\\PSoC4\\UART_SPI_UART_PVT.h"
 785              		.file 4 "Generated_Source\\PSoC4/CyLib.h"
 786              		.file 5 ".\\Generated_Source\\PSoC4\\UART_rx_wake.h"
 787              		.file 6 ".\\Generated_Source\\PSoC4\\UART_SPI_UART.h"