ARM GAS  C:\Users\Helon\AppData\Local\Temp\ccfYRt13.s 			page 1


   1              		.cpu cortex-m0
   2              		.fpu softvfp
   3              		.eabi_attribute 20, 1
   4              		.eabi_attribute 21, 1
   5              		.eabi_attribute 23, 3
   6              		.eabi_attribute 24, 1
   7              		.eabi_attribute 25, 1
   8              		.eabi_attribute 26, 1
   9              		.eabi_attribute 30, 4
  10              		.eabi_attribute 34, 0
  11              		.eabi_attribute 18, 4
  12              		.code	16
  13              		.file	"WriteUserSFlash.c"
  14              		.text
  15              	.Ltext0:
  16              		.cfi_sections	.debug_frame
  17              		.section	.text.WriteUserSFlashRow,"ax",%progbits
  18              		.align	2
  19              		.global	WriteUserSFlashRow
  20              		.code	16
  21              		.thumb_func
  22              		.type	WriteUserSFlashRow, %function
  23              	WriteUserSFlashRow:
  24              	.LFB37:
  25              		.file 1 ".\\WriteUserSFlash.c"
   1:.\WriteUserSFlash.c **** /*******************************************************************************
   2:.\WriteUserSFlash.c **** * File Name: WriteUserSFlash.c
   3:.\WriteUserSFlash.c **** *
   4:.\WriteUserSFlash.c **** * Version: 1.0
   5:.\WriteUserSFlash.c **** *
   6:.\WriteUserSFlash.c **** * Description:
   7:.\WriteUserSFlash.c **** *  This file contains the source code for User SFlash Write API.
   8:.\WriteUserSFlash.c **** *
   9:.\WriteUserSFlash.c **** * Owner:
  10:.\WriteUserSFlash.c **** *  sey@cypress.com, kris@cypress.com
  11:.\WriteUserSFlash.c **** *
  12:.\WriteUserSFlash.c **** * Hardware Dependency:
  13:.\WriteUserSFlash.c **** *  1. PSoC 4 BLE device
  14:.\WriteUserSFlash.c **** *
  15:.\WriteUserSFlash.c **** * Code Tested With:
  16:.\WriteUserSFlash.c **** *  1. PSoC Creator 3.1 SP1
  17:.\WriteUserSFlash.c **** *  2. ARM GCC 4.8.4
  18:.\WriteUserSFlash.c **** *
  19:.\WriteUserSFlash.c **** ********************************************************************************
  20:.\WriteUserSFlash.c **** * Copyright 2015, Cypress Semiconductor Corporation.  All rights reserved.
  21:.\WriteUserSFlash.c **** * You may use this file only in accordance with the license, terms, conditions,
  22:.\WriteUserSFlash.c **** * disclaimers, and limitations in the end user license agreement accompanying
  23:.\WriteUserSFlash.c **** * the software package with which this file was provided.
  24:.\WriteUserSFlash.c **** *******************************************************************************/
  25:.\WriteUserSFlash.c **** 
  26:.\WriteUserSFlash.c **** #include <Project.h>
  27:.\WriteUserSFlash.c **** #include <WriteUserSFlash.h>
  28:.\WriteUserSFlash.c **** 
  29:.\WriteUserSFlash.c **** /***************************************
  30:.\WriteUserSFlash.c **** * 全局变量
  31:.\WriteUserSFlash.c **** ***************************************/
  32:.\WriteUserSFlash.c **** char SetDeviceName[23]={0};
ARM GAS  C:\Users\Helon\AppData\Local\Temp\ccfYRt13.s 			page 2


  33:.\WriteUserSFlash.c **** /*******************************************************************************
  34:.\WriteUserSFlash.c **** * Function Name: WriteUserSFlashRow
  35:.\WriteUserSFlash.c **** ********************************************************************************
  36:.\WriteUserSFlash.c **** * Summary:
  37:.\WriteUserSFlash.c **** *        This routine calls the PSoC 4 BLE device supervisory ROM APIs to update
  38:.\WriteUserSFlash.c **** * the user configuration area of Supervisory Flash (SFlash).  
  39:.\WriteUserSFlash.c **** *
  40:.\WriteUserSFlash.c **** * Parameters:
  41:.\WriteUserSFlash.c **** *  userRowNUmber - User config SFlash row number to which data is to be written
  42:.\WriteUserSFlash.c **** *  dataPointer - Pointer to the data to be written. This API writes one row of
  43:.\WriteUserSFlash.c **** *                user config SFlash row at a time.
  44:.\WriteUserSFlash.c **** *
  45:.\WriteUserSFlash.c **** * Return:
  46:.\WriteUserSFlash.c **** *  uint32 - state of the user config SFlash write operation.
  47:.\WriteUserSFlash.c **** *
  48:.\WriteUserSFlash.c **** *******************************************************************************/
  49:.\WriteUserSFlash.c **** #if defined (__GNUC__)
  50:.\WriteUserSFlash.c **** #pragma GCC optimize ("O0")
  51:.\WriteUserSFlash.c **** #endif /* End of #if defined (__GNUC__) */
  52:.\WriteUserSFlash.c **** uint32 WriteUserSFlashRow(uint8 userRowNUmber, uint32 *dataPointer,uint8_t datalength,uint8_t addre
  53:.\WriteUserSFlash.c **** {    
  26              		.loc 1 53 0
  27              		.cfi_startproc
  28              	.LVL0:
  29 0000 F0B5     		push	{r4, r5, r6, r7, lr}
  30              		.cfi_def_cfa_offset 20
  31              		.cfi_offset 4, -20
  32              		.cfi_offset 5, -16
  33              		.cfi_offset 6, -12
  34              		.cfi_offset 7, -8
  35              		.cfi_offset 14, -4
  36 0002 93B0     		sub	sp, sp, #76
  37              		.cfi_def_cfa_offset 96
  38 0004 00AF     		add	r7, sp, #0
  39              		.cfi_def_cfa_register 7
  40              	.LVL1:
  41 0006 B961     		str	r1, [r7, #24]
  42 0008 111C     		mov	r1, r2
  43              	.LVL2:
  44 000a 1E1C     		mov	r6, r3
  45 000c 1F23     		mov	r3, #31
  46              	.LVL3:
  47 000e FA18     		add	r2, r7, r3
  48              	.LVL4:
  49 0010 031C     		add	r3, r0, #0
  50 0012 1370     		strb	r3, [r2]
  51 0014 1E23     		mov	r3, #30
  52 0016 FA18     		add	r2, r7, r3
  53 0018 0B1C     		add	r3, r1, #0
  54 001a 1370     		strb	r3, [r2]
  55 001c 1D23     		mov	r3, #29
  56 001e FA18     		add	r2, r7, r3
  57 0020 331C     		add	r3, r6, #0
  58 0022 1370     		strb	r3, [r2]
  59 0024 6B46     		mov	r3, sp
  60 0026 181C     		mov	r0, r3
  54:.\WriteUserSFlash.c ****     if(userRowNUmber==0)
ARM GAS  C:\Users\Helon\AppData\Local\Temp\ccfYRt13.s 			page 3


  61              		.loc 1 54 0
  62 0028 1F23     		mov	r3, #31
  63 002a FB18     		add	r3, r7, r3
  64 002c 1B78     		ldrb	r3, [r3]
  65 002e 002B     		cmp	r3, #0
  66 0030 07D1     		bne	.L2
  55:.\WriteUserSFlash.c ****     {
  56:.\WriteUserSFlash.c ****         if(address<6)
  67              		.loc 1 56 0
  68 0032 1D23     		mov	r3, #29
  69 0034 FB18     		add	r3, r7, r3
  70 0036 1B78     		ldrb	r3, [r3]
  71 0038 052B     		cmp	r3, #5
  72 003a 02D8     		bhi	.L2
  57:.\WriteUserSFlash.c ****             return USER_SFLASH_WRITE_FAIL;
  73              		.loc 1 57 0
  74 003c 0123     		mov	r3, #1
  75 003e 5B42     		neg	r3, r3
  76 0040 AFE0     		b	.L3
  77              	.L2:
  58:.\WriteUserSFlash.c ****     }
  59:.\WriteUserSFlash.c ****     uint8 localCount;
  60:.\WriteUserSFlash.c **** 	volatile uint32 retValue=0;
  78              		.loc 1 60 0
  79 0042 0023     		mov	r3, #0
  80 0044 BB63     		str	r3, [r7, #56]
  61:.\WriteUserSFlash.c **** //	volatile uint32 cmdDataBuffer[(CY_FLASH_SIZEOF_ROW/4) + 2];
  62:.\WriteUserSFlash.c ****     volatile uint32 cmdDataBuffer[datalength+2];
  81              		.loc 1 62 0
  82 0046 1E23     		mov	r3, #30
  83 0048 FB18     		add	r3, r7, r3
  84 004a 1B78     		ldrb	r3, [r3]
  85 004c 9A1C     		add	r2, r3, #2
  86 004e 531E     		sub	r3, r2, #1
  87 0050 3B64     		str	r3, [r7, #64]
  88              	.LVL5:
  89 0052 131C     		mov	r3, r2
  90              	.LVL6:
  91 0054 3B61     		str	r3, [r7, #16]
  92 0056 0023     		mov	r3, #0
  93 0058 7B61     		str	r3, [r7, #20]
  94 005a 3B69     		ldr	r3, [r7, #16]
  95 005c DB0E     		lsr	r3, r3, #27
  96 005e 7969     		ldr	r1, [r7, #20]
  97 0060 4901     		lsl	r1, r1, #5
  98 0062 7960     		str	r1, [r7, #4]
  99 0064 7968     		ldr	r1, [r7, #4]
 100 0066 1943     		orr	r1, r3
 101 0068 7960     		str	r1, [r7, #4]
 102 006a 3B69     		ldr	r3, [r7, #16]
 103 006c 5B01     		lsl	r3, r3, #5
 104 006e 3B60     		str	r3, [r7]
 105 0070 131C     		mov	r3, r2
 106 0072 BB60     		str	r3, [r7, #8]
 107 0074 0023     		mov	r3, #0
 108 0076 FB60     		str	r3, [r7, #12]
 109 0078 BB68     		ldr	r3, [r7, #8]
ARM GAS  C:\Users\Helon\AppData\Local\Temp\ccfYRt13.s 			page 4


 110 007a DB0E     		lsr	r3, r3, #27
 111 007c F968     		ldr	r1, [r7, #12]
 112 007e 4D01     		lsl	r5, r1, #5
 113 0080 1D43     		orr	r5, r3
 114 0082 BB68     		ldr	r3, [r7, #8]
 115 0084 5C01     		lsl	r4, r3, #5
 116 0086 131C     		mov	r3, r2
 117 0088 9B00     		lsl	r3, r3, #2
 118 008a 0333     		add	r3, r3, #3
 119 008c 0733     		add	r3, r3, #7
 120 008e DB08     		lsr	r3, r3, #3
 121 0090 DB00     		lsl	r3, r3, #3
 122 0092 6A46     		mov	r2, sp
 123 0094 D31A     		sub	r3, r2, r3
 124 0096 9D46     		mov	sp, r3
 125              	.LVL7:
 126 0098 6B46     		mov	r3, sp
 127 009a 0333     		add	r3, r3, #3
 128 009c 9B08     		lsr	r3, r3, #2
 129 009e 9B00     		lsl	r3, r3, #2
 130 00a0 FB63     		str	r3, [r7, #60]
 131              	.LVL8:
  63:.\WriteUserSFlash.c **** 	volatile uint32 reg1,reg2,reg3,reg4,reg5,reg6;
  64:.\WriteUserSFlash.c **** 	
  65:.\WriteUserSFlash.c **** 	/* Store the clock settings temporarily */
  66:.\WriteUserSFlash.c ****     reg1 =	CY_GET_XTND_REG32((void CYFAR *)(CYREG_CLK_SELECT));
 132              		.loc 1 66 0
 133 00a2 424B     		ldr	r3, .L7
 134              	.LVL9:
 135 00a4 1B68     		ldr	r3, [r3]
 136 00a6 7B63     		str	r3, [r7, #52]
  67:.\WriteUserSFlash.c ****     reg2 =  CY_GET_XTND_REG32((void CYFAR *)(CYREG_CLK_IMO_CONFIG));
 137              		.loc 1 67 0
 138 00a8 414B     		ldr	r3, .L7+4
 139 00aa 1B68     		ldr	r3, [r3]
 140 00ac 3B63     		str	r3, [r7, #48]
  68:.\WriteUserSFlash.c ****     reg3 =  CY_GET_XTND_REG32((void CYFAR *)(CYREG_PWR_BG_TRIM4));
 141              		.loc 1 68 0
 142 00ae 414B     		ldr	r3, .L7+8
 143 00b0 1B68     		ldr	r3, [r3]
 144 00b2 FB62     		str	r3, [r7, #44]
  69:.\WriteUserSFlash.c ****     reg4 =  CY_GET_XTND_REG32((void CYFAR *)(CYREG_PWR_BG_TRIM5));
 145              		.loc 1 69 0
 146 00b4 404B     		ldr	r3, .L7+12
 147 00b6 1B68     		ldr	r3, [r3]
 148 00b8 BB62     		str	r3, [r7, #40]
  70:.\WriteUserSFlash.c ****     reg5 =  CY_GET_XTND_REG32((void CYFAR *)(CYREG_CLK_IMO_TRIM1));
 149              		.loc 1 70 0
 150 00ba 404B     		ldr	r3, .L7+16
 151 00bc 1B68     		ldr	r3, [r3]
 152 00be 7B62     		str	r3, [r7, #36]
  71:.\WriteUserSFlash.c ****     reg6 =  CY_GET_XTND_REG32((void CYFAR *)(CYREG_CLK_IMO_TRIM2));
 153              		.loc 1 71 0
 154 00c0 3F4B     		ldr	r3, .L7+20
 155 00c2 1B68     		ldr	r3, [r3]
 156 00c4 3B62     		str	r3, [r7, #32]
  72:.\WriteUserSFlash.c **** 	
ARM GAS  C:\Users\Helon\AppData\Local\Temp\ccfYRt13.s 			page 5


  73:.\WriteUserSFlash.c **** 	/* Initialize the clock necessary for flash programming */
  74:.\WriteUserSFlash.c **** 	CY_SET_REG32(CYREG_CPUSS_SYSARG, 0x0000e8b6);
 157              		.loc 1 74 0
 158 00c6 3F4B     		ldr	r3, .L7+24
 159 00c8 3F4A     		ldr	r2, .L7+28
 160              	.LVL10:
 161 00ca 1A60     		str	r2, [r3]
  75:.\WriteUserSFlash.c **** 	CY_SET_REG32(CYREG_CPUSS_SYSREQ, 0x80000015);
 162              		.loc 1 75 0
 163 00cc 3F4B     		ldr	r3, .L7+32
 164 00ce 404A     		ldr	r2, .L7+36
 165 00d0 1A60     		str	r2, [r3]
  76:.\WriteUserSFlash.c **** 	
  77:.\WriteUserSFlash.c **** 	/******* Initialize SRAM parameters for the LOAD FLASH command ******/
  78:.\WriteUserSFlash.c **** 	/* byte 3 (i.e. 00) is the Macro_select */
  79:.\WriteUserSFlash.c **** 	/* byte 2 (i.e. 00) is the Start addr of page latch 
  80:.\WriteUserSFlash.c ****        如果是第0行，前6个字节不能修改，否则MAC地址会丢失*/
  81:.\WriteUserSFlash.c **** 	/* byte 1 (i.e. d7) is the key 2  */
  82:.\WriteUserSFlash.c **** 	/* byte 0 (i.e. b6) is the key 1  */
  83:.\WriteUserSFlash.c ****   	cmdDataBuffer[0]=0x0000d7b6|(address<<16);
 166              		.loc 1 83 0
 167 00d2 1D23     		mov	r3, #29
 168 00d4 FB18     		add	r3, r7, r3
 169 00d6 1B78     		ldrb	r3, [r3]
 170 00d8 1B04     		lsl	r3, r3, #16
 171 00da 3E4A     		ldr	r2, .L7+40
 172 00dc 1343     		orr	r3, r2
 173 00de 1A1C     		mov	r2, r3
 174 00e0 FB6B     		ldr	r3, [r7, #60]
 175 00e2 1A60     		str	r2, [r3]
  84:.\WriteUserSFlash.c **** 	/****** Initialize SRAM parameters for the LOAD FLASH command ******/
  85:.\WriteUserSFlash.c **** 	/* byte 3,2 and 1 are null */
  86:.\WriteUserSFlash.c **** 	/* byte 0 (i.e. 7F) is the number of bytes to be written */
  87:.\WriteUserSFlash.c **** 	cmdDataBuffer[1]=(0x00000000|datalength)-1;	     
 176              		.loc 1 87 0
 177 00e4 1E23     		mov	r3, #30
 178 00e6 FB18     		add	r3, r7, r3
 179 00e8 1B78     		ldrb	r3, [r3]
 180 00ea 013B     		sub	r3, r3, #1
 181 00ec 1A1C     		mov	r2, r3
 182 00ee FB6B     		ldr	r3, [r7, #60]
 183 00f0 5A60     		str	r2, [r3, #4]
  88:.\WriteUserSFlash.c **** 	/* Initialize the SRAM buffer with data bytes */
  89:.\WriteUserSFlash.c **** //    cmdDataBuffer[2] = *dataPointer;
  90:.\WriteUserSFlash.c ****     for(localCount = 0; localCount < datalength; localCount++)    
 184              		.loc 1 90 0
 185 00f2 2F23     		mov	r3, #47
 186 00f4 1822     		mov	r2, #24
 187 00f6 BA18     		add	r2, r7, r2
 188 00f8 D318     		add	r3, r2, r3
 189 00fa 0022     		mov	r2, #0
 190 00fc 1A70     		strb	r2, [r3]
 191              	.LVL11:
 192 00fe 1CE0     		b	.L4
 193              	.L5:
  91:.\WriteUserSFlash.c **** 	{
  92:.\WriteUserSFlash.c **** 		cmdDataBuffer[localCount + 2] = dataPointer[localCount]; 
ARM GAS  C:\Users\Helon\AppData\Local\Temp\ccfYRt13.s 			page 6


 194              		.loc 1 92 0 discriminator 3
 195 0100 2F23     		mov	r3, #47
 196 0102 1822     		mov	r2, #24
 197 0104 BA18     		add	r2, r7, r2
 198 0106 D318     		add	r3, r2, r3
 199 0108 1B78     		ldrb	r3, [r3]
 200 010a 9A1C     		add	r2, r3, #2
 201 010c 2F23     		mov	r3, #47
 202 010e 1821     		mov	r1, #24
 203 0110 7918     		add	r1, r7, r1
 204 0112 CB18     		add	r3, r1, r3
 205 0114 1B78     		ldrb	r3, [r3]
 206 0116 9B00     		lsl	r3, r3, #2
 207 0118 B969     		ldr	r1, [r7, #24]
 208 011a CB18     		add	r3, r1, r3
 209 011c 1968     		ldr	r1, [r3]
 210 011e FB6B     		ldr	r3, [r7, #60]
 211 0120 9200     		lsl	r2, r2, #2
 212 0122 D150     		str	r1, [r2, r3]
  90:.\WriteUserSFlash.c **** 	{
 213              		.loc 1 90 0 discriminator 3
 214 0124 2F23     		mov	r3, #47
 215 0126 1822     		mov	r2, #24
 216 0128 BA18     		add	r2, r7, r2
 217 012a D318     		add	r3, r2, r3
 218 012c 1A78     		ldrb	r2, [r3]
 219 012e 2F23     		mov	r3, #47
 220 0130 1821     		mov	r1, #24
 221 0132 7918     		add	r1, r7, r1
 222 0134 CB18     		add	r3, r1, r3
 223 0136 0132     		add	r2, r2, #1
 224 0138 1A70     		strb	r2, [r3]
 225              	.LVL12:
 226              	.L4:
  90:.\WriteUserSFlash.c **** 	{
 227              		.loc 1 90 0 is_stmt 0 discriminator 1
 228 013a 2F23     		mov	r3, #47
 229 013c 1822     		mov	r2, #24
 230 013e BA18     		add	r2, r7, r2
 231 0140 D218     		add	r2, r2, r3
 232 0142 1E23     		mov	r3, #30
 233 0144 FB18     		add	r3, r7, r3
 234 0146 1278     		ldrb	r2, [r2]
 235 0148 1B78     		ldrb	r3, [r3]
 236 014a 9A42     		cmp	r2, r3
 237 014c D8D3     		bcc	.L5
  93:.\WriteUserSFlash.c **** 	}
  94:.\WriteUserSFlash.c **** 	
  95:.\WriteUserSFlash.c **** 	/* Write the following to registers to execute a LOAD FLASH bytes */
  96:.\WriteUserSFlash.c **** 	CY_SET_REG32(CYREG_CPUSS_SYSARG, &cmdDataBuffer[0]);
 238              		.loc 1 96 0 is_stmt 1
 239 014e 1D4B     		ldr	r3, .L7+24
 240 0150 FA6B     		ldr	r2, [r7, #60]
 241 0152 1A60     		str	r2, [r3]
  97:.\WriteUserSFlash.c **** 	CY_SET_REG32(CYREG_CPUSS_SYSREQ, LOAD_FLASH);
 242              		.loc 1 97 0
 243 0154 1D4B     		ldr	r3, .L7+32
ARM GAS  C:\Users\Helon\AppData\Local\Temp\ccfYRt13.s 			page 7


 244 0156 204A     		ldr	r2, .L7+44
 245 0158 1A60     		str	r2, [r3]
  98:.\WriteUserSFlash.c **** 	
  99:.\WriteUserSFlash.c ****     /****** Initialize SRAM parameters for the WRITE ROW command ******/
 100:.\WriteUserSFlash.c **** 	/* byte 3 & 2 are null */
 101:.\WriteUserSFlash.c **** 	/* byte 1 (i.e. 0xeb) is the key 2  */
 102:.\WriteUserSFlash.c **** 	/* byte 0 (i.e. 0xb6) is the key 1  */
 103:.\WriteUserSFlash.c **** 	cmdDataBuffer[0] = 0x0000ebb6;
 246              		.loc 1 103 0
 247 015a FB6B     		ldr	r3, [r7, #60]
 248 015c 1F4A     		ldr	r2, .L7+48
 249 015e 1A60     		str	r2, [r3]
 104:.\WriteUserSFlash.c ****     
 105:.\WriteUserSFlash.c **** 	/* byte 7,6 and 5 are null */
 106:.\WriteUserSFlash.c **** 	/* byte 4 is desired SFlash user row 
 107:.\WriteUserSFlash.c **** 	 * Allowed values 0 - row 4
 108:.\WriteUserSFlash.c **** 	                  1 - row 5 
 109:.\WriteUserSFlash.c **** 					  2 - row 6
 110:.\WriteUserSFlash.c **** 					  3 - row 7 */
 111:.\WriteUserSFlash.c **** 	cmdDataBuffer[1] = (uint32) userRowNUmber;
 250              		.loc 1 111 0
 251 0160 1F23     		mov	r3, #31
 252 0162 FB18     		add	r3, r7, r3
 253 0164 1A78     		ldrb	r2, [r3]
 254 0166 FB6B     		ldr	r3, [r7, #60]
 255 0168 5A60     		str	r2, [r3, #4]
 112:.\WriteUserSFlash.c **** 	
 113:.\WriteUserSFlash.c **** 	/* Write the following to registers to execute a WRITE USER SFlash ROW command */
 114:.\WriteUserSFlash.c **** 	CY_SET_REG32(CYREG_CPUSS_SYSARG, &cmdDataBuffer[0]);
 256              		.loc 1 114 0
 257 016a 164B     		ldr	r3, .L7+24
 258 016c FA6B     		ldr	r2, [r7, #60]
 259 016e 1A60     		str	r2, [r3]
 115:.\WriteUserSFlash.c **** 	CY_SET_REG32(CYREG_CPUSS_SYSREQ, WRITE_USER_SFLASH_ROW);
 260              		.loc 1 115 0
 261 0170 164B     		ldr	r3, .L7+32
 262 0172 1B4A     		ldr	r2, .L7+52
 263 0174 1A60     		str	r2, [r3]
 116:.\WriteUserSFlash.c ****     
 117:.\WriteUserSFlash.c **** 	/* Read back SYSARG for the result. 0xA0000000 = SUCCESS; */
 118:.\WriteUserSFlash.c **** 	retValue = CY_GET_REG32(CYREG_CPUSS_SYSARG);
 264              		.loc 1 118 0
 265 0176 134B     		ldr	r3, .L7+24
 266 0178 1B68     		ldr	r3, [r3]
 267 017a BB63     		str	r3, [r7, #56]
 119:.\WriteUserSFlash.c **** 	
 120:.\WriteUserSFlash.c **** 	/* Restore the clock settings after the flash programming is done */
 121:.\WriteUserSFlash.c ****     CY_SET_XTND_REG32((void CYFAR *)(CYREG_CLK_SELECT),reg1);
 268              		.loc 1 121 0
 269 017c 0B4B     		ldr	r3, .L7
 270 017e 7A6B     		ldr	r2, [r7, #52]
 271 0180 1A60     		str	r2, [r3]
 122:.\WriteUserSFlash.c ****     CY_SET_XTND_REG32((void CYFAR *)(CYREG_CLK_IMO_CONFIG),reg2);
 272              		.loc 1 122 0
 273 0182 0B4B     		ldr	r3, .L7+4
 274 0184 3A6B     		ldr	r2, [r7, #48]
 275 0186 1A60     		str	r2, [r3]
ARM GAS  C:\Users\Helon\AppData\Local\Temp\ccfYRt13.s 			page 8


 123:.\WriteUserSFlash.c ****     CY_SET_XTND_REG32((void CYFAR *)(CYREG_PWR_BG_TRIM4),reg3);
 276              		.loc 1 123 0
 277 0188 0A4B     		ldr	r3, .L7+8
 278 018a FA6A     		ldr	r2, [r7, #44]
 279 018c 1A60     		str	r2, [r3]
 124:.\WriteUserSFlash.c ****     CY_SET_XTND_REG32((void CYFAR *)(CYREG_PWR_BG_TRIM5),reg4);
 280              		.loc 1 124 0
 281 018e 0A4B     		ldr	r3, .L7+12
 282 0190 BA6A     		ldr	r2, [r7, #40]
 283 0192 1A60     		str	r2, [r3]
 125:.\WriteUserSFlash.c ****     CY_SET_XTND_REG32((void CYFAR *)(CYREG_CLK_IMO_TRIM1),reg5);
 284              		.loc 1 125 0
 285 0194 094B     		ldr	r3, .L7+16
 286 0196 7A6A     		ldr	r2, [r7, #36]
 287 0198 1A60     		str	r2, [r3]
 126:.\WriteUserSFlash.c ****     CY_SET_XTND_REG32((void CYFAR *)(CYREG_CLK_IMO_TRIM2),reg6);  
 288              		.loc 1 126 0
 289 019a 094B     		ldr	r3, .L7+20
 290 019c 3A6A     		ldr	r2, [r7, #32]
 291 019e 1A60     		str	r2, [r3]
 127:.\WriteUserSFlash.c **** 	
 128:.\WriteUserSFlash.c **** 	return retValue;
 292              		.loc 1 128 0
 293 01a0 BB6B     		ldr	r3, [r7, #56]
 294              	.LVL13:
 295              	.L3:
 296 01a2 8546     		mov	sp, r0
 129:.\WriteUserSFlash.c **** }
 297              		.loc 1 129 0
 298 01a4 181C     		mov	r0, r3
 299 01a6 BD46     		mov	sp, r7
 300 01a8 13B0     		add	sp, sp, #76
 301              		@ sp needed
 302              	.LVL14:
 303 01aa F0BD     		pop	{r4, r5, r6, r7, pc}
 304              	.L8:
 305              		.align	2
 306              	.L7:
 307 01ac 00010B40 		.word	1074462976
 308 01b0 08010B40 		.word	1074462984
 309 01b4 1CFF0B40 		.word	1074528028
 310 01b8 20FF0B40 		.word	1074528032
 311 01bc 28FF0B40 		.word	1074528040
 312 01c0 2CFF0B40 		.word	1074528044
 313 01c4 08001040 		.word	1074790408
 314 01c8 B6E80000 		.word	59574
 315 01cc 04001040 		.word	1074790404
 316 01d0 15000080 		.word	-2147483627
 317 01d4 B6D70000 		.word	55222
 318 01d8 04000080 		.word	-2147483644
 319 01dc B6EB0000 		.word	60342
 320 01e0 18000080 		.word	-2147483624
 321              		.cfi_endproc
 322              	.LFE37:
 323              		.size	WriteUserSFlashRow, .-WriteUserSFlashRow
 324              		.section	.text.ReadDataFromSFlash,"ax",%progbits
 325              		.align	1
ARM GAS  C:\Users\Helon\AppData\Local\Temp\ccfYRt13.s 			page 9


 326              		.global	ReadDataFromSFlash
 327              		.code	16
 328              		.thumb_func
 329              		.type	ReadDataFromSFlash, %function
 330              	ReadDataFromSFlash:
 331              	.LFB38:
 130:.\WriteUserSFlash.c **** #if defined (__GNUC__)
 131:.\WriteUserSFlash.c **** #pragma GCC reset_options
 132:.\WriteUserSFlash.c **** #endif /* End of #if defined (__GNUC__) */
 133:.\WriteUserSFlash.c **** 
 134:.\WriteUserSFlash.c **** /*******************************************************************************
 135:.\WriteUserSFlash.c **** * Function Name: ReadDataFromSFlash
 136:.\WriteUserSFlash.c **** ********************************************************************************
 137:.\WriteUserSFlash.c **** *
 138:.\WriteUserSFlash.c **** *
 139:.\WriteUserSFlash.c **** * 
 140:.\WriteUserSFlash.c **** *  读取SFlash中的第一个数据
 141:.\WriteUserSFlash.c **** * \param  none
 142:.\WriteUserSFlash.c **** * \return
 143:.\WriteUserSFlash.c **** *  None
 144:.\WriteUserSFlash.c **** *       SFlash中有506Bytes字节的用户可配置的空间
 145:.\WriteUserSFlash.c **** ******************************************************************************/
 146:.\WriteUserSFlash.c **** uint8_t ReadDataFromSFlash()
 147:.\WriteUserSFlash.c **** {
 332              		.loc 1 147 0
 333              		.cfi_startproc
 334              	.LVL15:
 148:.\WriteUserSFlash.c ****     
 149:.\WriteUserSFlash.c ****     uint8_t FlashData=0;
 150:.\WriteUserSFlash.c ****     uint8_t *sflashPtr=(uint8_t *)USER_SFLASH_BASE_ADDRESS;//SFlash的首地址
 151:.\WriteUserSFlash.c ****     sflashPtr=sflashPtr+6;
 152:.\WriteUserSFlash.c ****     FlashData=*sflashPtr;
 153:.\WriteUserSFlash.c ****     return FlashData;    
 335              		.loc 1 153 0
 336 0000 014B     		ldr	r3, .L10
 337              	.LVL16:
 154:.\WriteUserSFlash.c **** }
 338              		.loc 1 154 0
 339              		@ sp needed
 153:.\WriteUserSFlash.c **** }
 340              		.loc 1 153 0
 341 0002 1878     		ldrb	r0, [r3]
 342              		.loc 1 154 0
 343 0004 7047     		bx	lr
 344              	.L11:
 345 0006 C046     		.align	2
 346              	.L10:
 347 0008 06F2FF0F 		.word	268431878
 348              		.cfi_endproc
 349              	.LFE38:
 350              		.size	ReadDataFromSFlash, .-ReadDataFromSFlash
 351              		.section	.text.ReadDeviceNameFromSFlash,"ax",%progbits
 352              		.align	1
 353              		.global	ReadDeviceNameFromSFlash
 354              		.code	16
 355              		.thumb_func
 356              		.type	ReadDeviceNameFromSFlash, %function
ARM GAS  C:\Users\Helon\AppData\Local\Temp\ccfYRt13.s 			page 10


 357              	ReadDeviceNameFromSFlash:
 358              	.LFB39:
 155:.\WriteUserSFlash.c **** 
 156:.\WriteUserSFlash.c **** /*******************************************************************************
 157:.\WriteUserSFlash.c **** * Function Name: ReadDeviceNameFromSFlash
 158:.\WriteUserSFlash.c **** ********************************************************************************
 159:.\WriteUserSFlash.c **** *
 160:.\WriteUserSFlash.c **** *
 161:.\WriteUserSFlash.c **** * 
 162:.\WriteUserSFlash.c **** *  读取存放在SFlash中的设备名
 163:.\WriteUserSFlash.c **** * \param  none
 164:.\WriteUserSFlash.c **** * \return
 165:.\WriteUserSFlash.c **** *  None
 166:.\WriteUserSFlash.c **** *       SFlash中有506Bytes字节的用户可配置的空间
 167:.\WriteUserSFlash.c **** ******************************************************************************/
 168:.\WriteUserSFlash.c **** uint8_t ReadDeviceNameFromSFlash()
 169:.\WriteUserSFlash.c **** {
 359              		.loc 1 169 0
 360              		.cfi_startproc
 361              	.LVL17:
 170:.\WriteUserSFlash.c ****     uint8_t FlashData=0;
 171:.\WriteUserSFlash.c ****     uint8_t *sflashPtr=(uint8_t *)USER_SFLASH_BASE_ADDRESS;//SFlash的首地址
 172:.\WriteUserSFlash.c ****     FlashData=*(sflashPtr+128);//取得存放在SFlash的设备名的长度
 173:.\WriteUserSFlash.c ****     if(FlashData==0)
 174:.\WriteUserSFlash.c ****         return 0;
 362              		.loc 1 174 0
 363 0000 0020     		mov	r0, #0
 169:.\WriteUserSFlash.c ****     uint8_t FlashData=0;
 364              		.loc 1 169 0
 365 0002 08B5     		push	{r3, lr}
 366              		.cfi_def_cfa_offset 8
 367              		.cfi_offset 3, -8
 368              		.cfi_offset 14, -4
 172:.\WriteUserSFlash.c ****     if(FlashData==0)
 369              		.loc 1 172 0
 370 0004 044B     		ldr	r3, .L17
 371 0006 1A78     		ldrb	r2, [r3]
 372              	.LVL18:
 173:.\WriteUserSFlash.c ****         return 0;
 373              		.loc 1 173 0
 374 0008 8242     		cmp	r2, r0
 375 000a 04D0     		beq	.L13
 175:.\WriteUserSFlash.c ****     else
 176:.\WriteUserSFlash.c ****     {
 177:.\WriteUserSFlash.c ****         memcpy(SetDeviceName,sflashPtr+128*2,FlashData); 
 376              		.loc 1 177 0
 377 000c 0348     		ldr	r0, .L17+4
 378 000e 0449     		ldr	r1, .L17+8
 379 0010 FFF7FEFF 		bl	memcpy
 380              	.LVL19:
 178:.\WriteUserSFlash.c ****         return 1;
 381              		.loc 1 178 0
 382 0014 0120     		mov	r0, #1
 383              	.L13:
 179:.\WriteUserSFlash.c ****     }
 180:.\WriteUserSFlash.c **** }
 384              		.loc 1 180 0
ARM GAS  C:\Users\Helon\AppData\Local\Temp\ccfYRt13.s 			page 11


 385              		@ sp needed
 386 0016 08BD     		pop	{r3, pc}
 387              	.L18:
 388              		.align	2
 389              	.L17:
 390 0018 80F2FF0F 		.word	268432000
 391 001c 00000000 		.word	.LANCHOR0
 392 0020 00F3FF0F 		.word	268432128
 393              		.cfi_endproc
 394              	.LFE39:
 395              		.size	ReadDeviceNameFromSFlash, .-ReadDeviceNameFromSFlash
 396              		.global	SetDeviceName
 397              		.bss
 398              		.set	.LANCHOR0,. + 0
 399              		.type	SetDeviceName, %object
 400              		.size	SetDeviceName, 23
 401              	SetDeviceName:
 402 0000 00000000 		.space	23
 402      00000000 
 402      00000000 
 402      00000000 
 402      00000000 
 403              		.text
 404              	.Letext0:
 405              		.file 2 "c:\\program files (x86)\\cypress\\psoc creator\\3.3\\psoc creator\\import\\gnu\\arm\\4.9.
 406              		.file 3 "c:\\program files (x86)\\cypress\\psoc creator\\3.3\\psoc creator\\import\\gnu\\arm\\4.9.
 407              		.file 4 "Generated_Source\\PSoC4/cytypes.h"
 408              		.file 5 "Generated_Source\\PSoC4/BLE_Stack.h"